   1               		.file	"mainChestStrap.c"
   2               	__SREG__ = 0x3f
   3               	__SP_H__ = 0x3e
   4               	__SP_L__ = 0x3d
   5               	__CCP__  = 0x34
   6               	__tmp_reg__ = 0
   7               	__zero_reg__ = 1
  15               	.Ltext0:
  16               	.global	CCPWrite
  18               	CCPWrite:
  19               	.LFB7:
  20               	.LM1:
  21               	.LVL0:
  22 0000 0F93      		push r16
  23 0002 DF93      		push r29
  24 0004 CF93      		push r28
  25 0006 0F92      		push __tmp_reg__
  26 0008 CDB7      		in r28,__SP_L__
  27 000a DEB7      		in r29,__SP_H__
  28               	/* prologue: function */
  29               	/* frame size = 1 */
  30               	.LM2:
  31 000c 2FB7      		in r18,__SREG__
  32               	.LVL1:
  33 000e 2983      		std Y+1,r18
  34               	.LM3:
  35               	/* #APP */
  36               	 ;  78 "mainChestStrap.h" 1
  37 0010 F894      		cli
  38               	 ;  0 "" 2
  39               	.LM4:
  40               	/* #NOAPP */
  41 0012 1BBE      		out 59-0,__zero_reg__
  42               	.LM5:
  43               	/* #APP */
  44               	 ;  100 "mainChestStrap.h" 1
  45 0014 FC01      		movw r30,  r24
  46 0016 08ED      		ldi  r16,  216
  47 0018 04BF      		out   52, r16
  48 001a 6083      		st     Z,  r22
  49               		
  50               	 ;  0 "" 2
  51               	.LM6:
  52               	/* #NOAPP */
  53 001c 8981      		ldd r24,Y+1
  54               	.LVL2:
  55 001e 8FBF      		out __SREG__,r24
  56               	/* epilogue start */
  57               	.LM7:
  58 0020 0F90      		pop __tmp_reg__
  59 0022 CF91      		pop r28
  60 0024 DF91      		pop r29
  61 0026 0F91      		pop r16
  62 0028 0895      		ret
  63               	.LFE7:
  65               	.global	Debug_Init
  67               	Debug_Init:
  68               	.LFB8:
  69               	.LM8:
  70               	.LVL3:
  71               	/* prologue: function */
  72               	/* frame size = 0 */
  73 002a 9B01      		movw r18,r22
  74 002c AC01      		movw r20,r24
  75               	.LM9:
  76 002e E0E4      		ldi r30,lo8(1600)
  77 0030 F6E0      		ldi r31,hi8(1600)
  78 0032 88E0      		ldi r24,lo8(8)
  79 0034 8183      		std Z+1,r24
  80               	.LM10:
  81 0036 84E0      		ldi r24,lo8(4)
  82 0038 8283      		std Z+2,r24
  83               	.LM11:
  84 003a 91E0      		ldi r25,lo8(1)
  85 003c 9283      		std Z+2,r25
  86               	.LM12:
  87 003e 82E0      		ldi r24,lo8(2)
  88 0040 8183      		std Z+1,r24
  89               	.LM13:
  90 0042 8683      		std Z+6,r24
  91               	.LM14:
  92 0044 E0EA      		ldi r30,lo8(2208)
  93 0046 F8E0      		ldi r31,hi8(2208)
  94 0048 83E0      		ldi r24,lo8(3)
  95 004a 8583      		std Z+5,r24
  96               	.LM15:
  97 004c 2038      		cpi r18,lo8(9600)
  98 004e 65E2      		ldi r22,hi8(9600)
  99 0050 3607      		cpc r19,r22
 100 0052 60E0      		ldi r22,hlo8(9600)
 101 0054 4607      		cpc r20,r22
 102 0056 60E0      		ldi r22,hhi8(9600)
 103 0058 5607      		cpc r21,r22
 104               	.LVL4:
 105 005a 01F4      		brne .L4
 106               	.LM16:
 107 005c 8FE5      		ldi r24,lo8(95)
 108 005e 00C0      		rjmp .L13
 109               	.L4:
 110               	.LM17:
 111 0060 2030      		cpi r18,lo8(115200)
 112 0062 62EC      		ldi r22,hi8(115200)
 113 0064 3607      		cpc r19,r22
 114 0066 61E0      		ldi r22,hlo8(115200)
 115 0068 4607      		cpc r20,r22
 116 006a 60E0      		ldi r22,hhi8(115200)
 117 006c 5607      		cpc r21,r22
 118 006e 01F4      		brne .L6
 119               	.LM18:
 120 0070 87E0      		ldi r24,lo8(7)
 121               	.L13:
 122 0072 8683      		std Z+6,r24
 123 0074 00C0      		rjmp .L12
 124               	.L6:
 125               	.LM19:
 126 0076 2030      		cpi r18,lo8(230400)
 127 0078 64E8      		ldi r22,hi8(230400)
 128 007a 3607      		cpc r19,r22
 129 007c 63E0      		ldi r22,hlo8(230400)
 130 007e 4607      		cpc r20,r22
 131 0080 60E0      		ldi r22,hhi8(230400)
 132 0082 5607      		cpc r21,r22
 133 0084 01F0      		breq .L13
 134               	.L7:
 135               	.LM20:
 136 0086 2030      		cpi r18,lo8(460800)
 137 0088 88E0      		ldi r24,hi8(460800)
 138 008a 3807      		cpc r19,r24
 139 008c 87E0      		ldi r24,hlo8(460800)
 140 008e 4807      		cpc r20,r24
 141 0090 80E0      		ldi r24,hhi8(460800)
 142 0092 5807      		cpc r21,r24
 143 0094 01F4      		brne .L8
 144               	.LM21:
 145 0096 9683      		std Z+6,r25
 146 0098 00C0      		rjmp .L12
 147               	.L8:
 148               	.LM22:
 149 009a 2050      		subi r18,lo8(921600)
 150 009c 3041      		sbci r19,hi8(921600)
 151 009e 4E40      		sbci r20,hlo8(921600)
 152 00a0 5040      		sbci r21,hhi8(921600)
 153 00a2 01F4      		brne .L5
 154               	.LM23:
 155 00a4 1682      		std Z+6,__zero_reg__
 156               	.L12:
 157               	.LM24:
 158 00a6 1782      		std Z+7,__zero_reg__
 159               	.L5:
 160               	.LM25:
 161 00a8 E0EA      		ldi r30,lo8(2208)
 162 00aa F8E0      		ldi r31,hi8(2208)
 163 00ac 8091 A408 		lds r24,2212
 164 00b0 8061      		ori r24,lo8(16)
 165 00b2 8483      		std Z+4,r24
 166               	.LM26:
 167 00b4 8091 A408 		lds r24,2212
 168 00b8 8860      		ori r24,lo8(8)
 169 00ba 8483      		std Z+4,r24
 170               	.LM27:
 171 00bc 8091 A308 		lds r24,2211
 172 00c0 8062      		ori r24,lo8(32)
 173 00c2 8383      		std Z+3,r24
 174               	.LBB488:
 175               	.LBB489:
 176               	.LBB490:
 177               	.LBB491:
 178               	.LM28:
 179 00c4 2091 0000 		lds r18,Debug_writeLocation
 180 00c8 3091 0000 		lds r19,(Debug_writeLocation)+1
 181               	.LVL5:
 182 00cc 8091 0000 		lds r24,Debug_readLocation
 183 00d0 9091 0000 		lds r25,(Debug_readLocation)+1
 184 00d4 2817      		cp r18,r24
 185 00d6 3907      		cpc r19,r25
 186 00d8 01F0      		breq .L11
 187               	.LBE491:
 188               	.LBE490:
 189               	.LM29:
 190 00da 8091 0000 		lds r24,Debug_writeLocation
 191 00de 9091 0000 		lds r25,(Debug_writeLocation)+1
 192 00e2 8093 0000 		sts Debug_readLocation,r24
 193 00e6 9093 0000 		sts (Debug_readLocation)+1,r25
 194               	.L11:
 195 00ea 0895      		ret
 196               	.LBE489:
 197               	.LBE488:
 198               	.LFE8:
 200               	.global	Debug_ClearBuffer
 202               	Debug_ClearBuffer:
 203               	.LFB9:
 204               	.LM30:
 205               	/* prologue: function */
 206               	/* frame size = 0 */
 207               	.LBB492:
 208               	.LBB493:
 209               	.LM31:
 210 00ec 2091 0000 		lds r18,Debug_writeLocation
 211 00f0 3091 0000 		lds r19,(Debug_writeLocation)+1
 212 00f4 8091 0000 		lds r24,Debug_readLocation
 213 00f8 9091 0000 		lds r25,(Debug_readLocation)+1
 214 00fc 2817      		cp r18,r24
 215 00fe 3907      		cpc r19,r25
 216 0100 01F0      		breq .L17
 217               	.LBE493:
 218               	.LBE492:
 219               	.LM32:
 220 0102 8091 0000 		lds r24,Debug_writeLocation
 221 0106 9091 0000 		lds r25,(Debug_writeLocation)+1
 222 010a 8093 0000 		sts Debug_readLocation,r24
 223 010e 9093 0000 		sts (Debug_readLocation)+1,r25
 224               	.L17:
 225 0112 0895      		ret
 226               	.LFE9:
 228               	.global	Debug_CharReadyToRead
 230               	Debug_CharReadyToRead:
 231               	.LFB10:
 232               	.LM33:
 233               	/* prologue: function */
 234               	/* frame size = 0 */
 235               	.LM34:
 236 0114 2091 0000 		lds r18,Debug_writeLocation
 237 0118 3091 0000 		lds r19,(Debug_writeLocation)+1
 238 011c 8091 0000 		lds r24,Debug_readLocation
 239 0120 9091 0000 		lds r25,(Debug_readLocation)+1
 240 0124 40E0      		ldi r20,lo8(0)
 241 0126 2817      		cp r18,r24
 242 0128 3907      		cpc r19,r25
 243 012a 01F0      		breq .L19
 244 012c 41E0      		ldi r20,lo8(1)
 245               	.L19:
 246               	.LM35:
 247 012e 842F      		mov r24,r20
 248               	/* epilogue start */
 249 0130 0895      		ret
 250               	.LFE10:
 252               	.global	Debug_GetByte
 254               	Debug_GetByte:
 255               	.LFB11:
 256               	.LM36:
 257               	.LVL6:
 258               	/* prologue: function */
 259               	/* frame size = 0 */
 260               	.LM37:
 261 0132 8823      		tst r24
 262 0134 01F0      		breq .L22
 263               	.L26:
 264               	.LBB494:
 265               	.LBB495:
 266               	.LM38:
 267 0136 2091 0000 		lds r18,Debug_writeLocation
 268 013a 3091 0000 		lds r19,(Debug_writeLocation)+1
 269 013e 8091 0000 		lds r24,Debug_readLocation
 270 0142 9091 0000 		lds r25,(Debug_readLocation)+1
 271               	.LVL7:
 272 0146 2817      		cp r18,r24
 273 0148 3907      		cpc r19,r25
 274 014a 01F0      		breq .L26
 275               	.LVL8:
 276               	.L22:
 277               	.LBE495:
 278               	.LBE494:
 279               	.LM39:
 280 014c E091 0000 		lds r30,Debug_readLocation
 281 0150 F091 0000 		lds r31,(Debug_readLocation)+1
 282 0154 E050      		subi r30,lo8(-(DebugBuffer))
 283 0156 F040      		sbci r31,hi8(-(DebugBuffer))
 284 0158 E081      		ld r30,Z
 285               	.LVL9:
 286               	.LM40:
 287 015a 8091 0000 		lds r24,Debug_readLocation
 288 015e 9091 0000 		lds r25,(Debug_readLocation)+1
 289               	.LVL10:
 290 0162 0196      		adiw r24,1
 291 0164 8093 0000 		sts Debug_readLocation,r24
 292 0168 9093 0000 		sts (Debug_readLocation)+1,r25
 293               	.LM41:
 294 016c 8091 0000 		lds r24,Debug_readLocation
 295 0170 9091 0000 		lds r25,(Debug_readLocation)+1
 296 0174 8436      		cpi r24,100
 297 0176 9105      		cpc r25,__zero_reg__
 298 0178 00F0      		brlo .L24
 299               	.LM42:
 300 017a 1092 0000 		sts Debug_readLocation,__zero_reg__
 301 017e 1092 0000 		sts (Debug_readLocation)+1,__zero_reg__
 302               	.L24:
 303               	.LM43:
 304 0182 8E2F      		mov r24,r30
 305               	/* epilogue start */
 306 0184 0895      		ret
 307               	.LFE11:
 309               	.global	Debug_SendByte
 311               	Debug_SendByte:
 312               	.LFB12:
 313               	.LM44:
 314               	.LVL11:
 315               	/* prologue: function */
 316               	/* frame size = 0 */
 317 0186 482F      		mov r20,r24
 318               	.LVL12:
 319               	.L29:
 320               	.LM45:
 321 0188 8091 A108 		lds r24,2209
 322 018c 85FF      		sbrs r24,5
 323 018e 00C0      		rjmp .L29
 324 0190 00C0      		rjmp .L38
 325               	.L33:
 326               	.LM46:
 327 0192 8091 0000 		lds r24,Debug_timeOutCounter
 328 0196 9091 0000 		lds r25,(Debug_timeOutCounter)+1
 329 019a A091 0000 		lds r26,(Debug_timeOutCounter)+2
 330 019e B091 0000 		lds r27,(Debug_timeOutCounter)+3
 331 01a2 0196      		adiw r24,1
 332 01a4 A11D      		adc r26,__zero_reg__
 333 01a6 B11D      		adc r27,__zero_reg__
 334 01a8 8093 0000 		sts Debug_timeOutCounter,r24
 335 01ac 9093 0000 		sts (Debug_timeOutCounter)+1,r25
 336 01b0 A093 0000 		sts (Debug_timeOutCounter)+2,r26
 337 01b4 B093 0000 		sts (Debug_timeOutCounter)+3,r27
 338               	.LM47:
 339 01b8 8091 0000 		lds r24,Debug_timeOutCounter
 340 01bc 9091 0000 		lds r25,(Debug_timeOutCounter)+1
 341 01c0 A091 0000 		lds r26,(Debug_timeOutCounter)+2
 342 01c4 B091 0000 		lds r27,(Debug_timeOutCounter)+3
 343 01c8 8151      		subi r24,lo8(10001)
 344 01ca 9742      		sbci r25,hi8(10001)
 345 01cc A040      		sbci r26,hlo8(10001)
 346 01ce B040      		sbci r27,hhi8(10001)
 347 01d0 00F0      		brlo .L31
 348               	.LM48:
 349 01d2 1092 0000 		sts Debug_timeOutCounter,__zero_reg__
 350 01d6 1092 0000 		sts (Debug_timeOutCounter)+1,__zero_reg__
 351 01da 1092 0000 		sts (Debug_timeOutCounter)+2,__zero_reg__
 352 01de 1092 0000 		sts (Debug_timeOutCounter)+3,__zero_reg__
 353 01e2 80E0      		ldi r24,lo8(0)
 354 01e4 0895      		ret
 355               	.L31:
 356               	.LBB496:
 357               	.LBB497:
 358               	.LBB498:
 359               	.LBB499:
 360               	.LM49:
 361 01e6 C901      		movw r24,r18
 362               	.LVL13:
 363               	/* #APP */
 364               	 ;  105 "/usr/local/CrossPack-AVR-20100115/lib/gcc/avr/4.3.3/../../../../avr/include/util/delay_bas
 365 01e8 0197      		1: sbiw r24,1
 366 01ea 01F4      		brne 1b
 367               	 ;  0 "" 2
 368               	/* #NOAPP */
 369 01ec 00C0      		rjmp .L37
 370               	.LVL14:
 371               	.L38:
 372 01ee 26E6      		ldi r18,lo8(3686)
 373 01f0 3EE0      		ldi r19,hi8(3686)
 374               	.LVL15:
 375               	.L37:
 376               	.LBE499:
 377               	.LBE498:
 378               	.LBE497:
 379               	.LBE496:
 380               	.LM50:
 381 01f2 8091 4806 		lds r24,1608
 382               	.LVL16:
 383 01f6 80FD      		sbrc r24,0
 384 01f8 00C0      		rjmp .L33
 385               	.LM51:
 386 01fa 4093 A008 		sts 2208,r20
 387 01fe 81E0      		ldi r24,lo8(1)
 388               	.LM52:
 389 0200 0895      		ret
 390               	.LFE12:
 392               	.global	__vector_25
 394               	__vector_25:
 395               	.LFB14:
 396               	.LM53:
 397 0202 1F92      		push __zero_reg__
 398 0204 0F92      		push r0
 399 0206 0FB6      		in r0,__SREG__
 400 0208 0F92      		push r0
 401 020a 0BB6      		in r0,59-0
 402 020c 0F92      		push r0
 403 020e 1124      		clr __zero_reg__
 404 0210 8F93      		push r24
 405 0212 9F93      		push r25
 406 0214 EF93      		push r30
 407 0216 FF93      		push r31
 408               	/* prologue: Signal */
 409               	/* frame size = 0 */
 410               	.LM54:
 411 0218 E091 0000 		lds r30,Debug_writeLocation
 412 021c F091 0000 		lds r31,(Debug_writeLocation)+1
 413 0220 8091 A008 		lds r24,2208
 414 0224 E050      		subi r30,lo8(-(DebugBuffer))
 415 0226 F040      		sbci r31,hi8(-(DebugBuffer))
 416 0228 8083      		st Z,r24
 417               	.LM55:
 418 022a 8091 0000 		lds r24,Debug_writeLocation
 419 022e 9091 0000 		lds r25,(Debug_writeLocation)+1
 420 0232 0196      		adiw r24,1
 421 0234 8093 0000 		sts Debug_writeLocation,r24
 422 0238 9093 0000 		sts (Debug_writeLocation)+1,r25
 423               	.LM56:
 424 023c 8091 0000 		lds r24,Debug_writeLocation
 425 0240 9091 0000 		lds r25,(Debug_writeLocation)+1
 426 0244 8436      		cpi r24,100
 427 0246 9105      		cpc r25,__zero_reg__
 428 0248 00F0      		brlo .L41
 429               	.LM57:
 430 024a 1092 0000 		sts Debug_writeLocation,__zero_reg__
 431 024e 1092 0000 		sts (Debug_writeLocation)+1,__zero_reg__
 432               	.L41:
 433               	/* epilogue start */
 434               	.LM58:
 435 0252 FF91      		pop r31
 436 0254 EF91      		pop r30
 437 0256 9F91      		pop r25
 438 0258 8F91      		pop r24
 439 025a 0F90      		pop r0
 440 025c 0BBE      		out 59-0,r0
 441 025e 0F90      		pop r0
 442 0260 0FBE      		out __SREG__,r0
 443 0262 0F90      		pop r0
 444 0264 1F90      		pop __zero_reg__
 445 0266 1895      		reti
 446               	.LFE14:
 448               	.global	Leds_Init
 450               	Leds_Init:
 451               	.LFB15:
 452               	.LM59:
 453               	.LVL17:
 454               	/* prologue: function */
 455               	/* frame size = 0 */
 456               	.LM60:
 457 0268 E82F      		mov r30,r24
 458 026a F0E0      		ldi r31,lo8(0)
 459 026c 81E0      		ldi r24,lo8(1)
 460 026e 90E0      		ldi r25,hi8(1)
 461               	.LVL18:
 462 0270 0E2E      		mov r0,r30
 463 0272 00C0      		rjmp 2f
 464 0274 880F      	1:	lsl r24
 465 0276 991F      		rol r25
 466 0278 0A94      	2:	dec r0
 467 027a 02F4      		brpl 1b
 468 027c A0EA      		ldi r26,lo8(1696)
 469 027e B6E0      		ldi r27,hi8(1696)
 470 0280 1196      		adiw r26,1
 471 0282 8C93      		st X,r24
 472               	.LBB500:
 473               	.LBB501:
 474               	.LM61:
 475 0284 E050      		subi r30,lo8(-(ledState))
 476 0286 F040      		sbci r31,hi8(-(ledState))
 477 0288 1082      		st Z,__zero_reg__
 478               	/* epilogue start */
 479               	.LBE501:
 480               	.LBE500:
 481               	.LM62:
 482 028a 0895      		ret
 483               	.LFE15:
 485               	.global	Leds_State
 487               	Leds_State:
 488               	.LFB16:
 489               	.LM63:
 490               	.LVL19:
 491               	/* prologue: function */
 492               	/* frame size = 0 */
 493               	.LM64:
 494 028c E0E0      		ldi r30,lo8(ledState)
 495 028e F0E0      		ldi r31,hi8(ledState)
 496 0290 E80F      		add r30,r24
 497 0292 F11D      		adc r31,__zero_reg__
 498 0294 6083      		st Z,r22
 499               	/* epilogue start */
 500               	.LM65:
 501 0296 0895      		ret
 502               	.LFE16:
 504               	.global	Leds_Set
 506               	Leds_Set:
 507               	.LFB17:
 508               	.LM66:
 509               	.LVL20:
 510               	/* prologue: function */
 511               	/* frame size = 0 */
 512               	.LM67:
 513 0298 21E0      		ldi r18,lo8(1)
 514 029a 30E0      		ldi r19,hi8(1)
 515 029c 00C0      		rjmp 2f
 516 029e 220F      	1:	lsl r18
 517 02a0 331F      		rol r19
 518 02a2 8A95      	2:	dec r24
 519 02a4 02F4      		brpl 1b
 520 02a6 E0EA      		ldi r30,lo8(1696)
 521 02a8 F6E0      		ldi r31,hi8(1696)
 522 02aa 2583      		std Z+5,r18
 523               	/* epilogue start */
 524               	.LM68:
 525 02ac 0895      		ret
 526               	.LFE17:
 528               	.global	Leds_Clear
 530               	Leds_Clear:
 531               	.LFB18:
 532               	.LM69:
 533               	.LVL21:
 534               	/* prologue: function */
 535               	/* frame size = 0 */
 536               	.LM70:
 537 02ae 21E0      		ldi r18,lo8(1)
 538 02b0 30E0      		ldi r19,hi8(1)
 539 02b2 00C0      		rjmp 2f
 540 02b4 220F      	1:	lsl r18
 541 02b6 331F      		rol r19
 542 02b8 8A95      	2:	dec r24
 543 02ba 02F4      		brpl 1b
 544 02bc E0EA      		ldi r30,lo8(1696)
 545 02be F6E0      		ldi r31,hi8(1696)
 546 02c0 2683      		std Z+6,r18
 547               	/* epilogue start */
 548               	.LM71:
 549 02c2 0895      		ret
 550               	.LFE18:
 552               	.global	Leds_Toggle
 554               	Leds_Toggle:
 555               	.LFB19:
 556               	.LM72:
 557               	.LVL22:
 558               	/* prologue: function */
 559               	/* frame size = 0 */
 560               	.LM73:
 561 02c4 21E0      		ldi r18,lo8(1)
 562 02c6 30E0      		ldi r19,hi8(1)
 563 02c8 00C0      		rjmp 2f
 564 02ca 220F      	1:	lsl r18
 565 02cc 331F      		rol r19
 566 02ce 8A95      	2:	dec r24
 567 02d0 02F4      		brpl 1b
 568 02d2 E0EA      		ldi r30,lo8(1696)
 569 02d4 F6E0      		ldi r31,hi8(1696)
 570 02d6 2783      		std Z+7,r18
 571               	/* epilogue start */
 572               	.LM74:
 573 02d8 0895      		ret
 574               	.LFE19:
 576               	.global	Time_Init
 578               	Time_Init:
 579               	.LFB20:
 580               	.LM75:
 581               	/* prologue: function */
 582               	/* frame size = 0 */
 583               	.LM76:
 584 02da 88E0      		ldi r24,lo8(8)
 585 02dc 8093 4008 		sts 2112,r24
 586               	.LM77:
 587 02e0 80EC      		ldi r24,lo8(-64)
 588 02e2 8093 8001 		sts 384,r24
 589               	.LM78:
 590 02e6 E0E0      		ldi r30,lo8(2048)
 591 02e8 F8E0      		ldi r31,hi8(2048)
 592 02ea 8FEF      		ldi r24,lo8(-1)
 593 02ec 9FEF      		ldi r25,hi8(-1)
 594 02ee 86A3      		std Z+38,r24
 595 02f0 97A3      		std Z+39,r25
 596               	.LM79:
 597 02f2 8081      		ld r24,Z
 598 02f4 807F      		andi r24,lo8(-16)
 599 02f6 8460      		ori r24,lo8(4)
 600 02f8 8083      		st Z,r24
 601               	/* epilogue start */
 602               	.LM80:
 603 02fa 0895      		ret
 604               	.LFE20:
 606               	.global	Time_Set
 608               	Time_Set:
 609               	.LFB21:
 610               	.LM81:
 611               	.LVL23:
 612 02fc 0F93      		push r16
 613 02fe DF93      		push r29
 614 0300 CF93      		push r28
 615 0302 0F92      		push __tmp_reg__
 616 0304 CDB7      		in r28,__SP_L__
 617 0306 DEB7      		in r29,__SP_H__
 618               	/* prologue: function */
 619               	/* frame size = 1 */
 620 0308 AB01      		movw r20,r22
 621 030a BC01      		movw r22,r24
 622               	.LM82:
 623               	/* #APP */
 624               	 ;  70 "time.c" 1
 625 030c F894      		cli
 626               	 ;  0 "" 2
 627               	.LM83:
 628               	/* #NOAPP */
 629 030e 82E0      		ldi r24,lo8(2)
 630 0310 8093 F000 		sts 240,r24
 631               	.LBB502:
 632               	.LBB503:
 633               	.LM84:
 634 0314 8FB7      		in r24,__SREG__
 635 0316 8983      		std Y+1,r24
 636               	.LVL24:
 637               	.LM85:
 638               	/* #APP */
 639               	 ;  78 "mainChestStrap.h" 1
 640 0318 F894      		cli
 641               	 ;  0 "" 2
 642               	.LM86:
 643               	/* #NOAPP */
 644 031a 1BBE      		out 59-0,__zero_reg__
 645               	.LM87:
 646 031c 21E0      		ldi r18,lo8(1)
 647 031e 80EF      		ldi r24,lo8(240)
 648 0320 90E0      		ldi r25,hi8(240)
 649               	/* #APP */
 650               	 ;  100 "mainChestStrap.h" 1
 651 0322 FC01      		movw r30,  r24
 652 0324 08ED      		ldi  r16,  216
 653 0326 04BF      		out   52, r16
 654 0328 2083      		st     Z,  r18
 655               		
 656               	 ;  0 "" 2
 657               	.LM88:
 658               	/* #NOAPP */
 659 032a 8981      		ldd r24,Y+1
 660 032c 8FBF      		out __SREG__,r24
 661               	.LBE503:
 662               	.LBE502:
 663               	.LM89:
 664 032e 8091 F000 		lds r24,240
 665 0332 8460      		ori r24,lo8(4)
 666 0334 8093 F000 		sts 240,r24
 667               	.LM90:
 668 0338 8091 F000 		lds r24,240
 669 033c 8860      		ori r24,lo8(8)
 670 033e 8093 F000 		sts 240,r24
 671               	.LM91:
 672 0342 8091 2004 		lds r24,1056
 673 0346 8E7F      		andi r24,lo8(-2)
 674 0348 8093 2004 		sts 1056,r24
 675               	.LVL25:
 676               	.L55:
 677               	.LM92:
 678 034c E0E2      		ldi r30,lo8(1056)
 679 034e F4E0      		ldi r31,hi8(1056)
 680 0350 8091 2104 		lds r24,1057
 681 0354 80FD      		sbrc r24,0
 682 0356 00C0      		rjmp .L55
 683               	.LM93:
 684 0358 8EEF      		ldi r24,lo8(-2)
 685 035a 9FEF      		ldi r25,hi8(-2)
 686 035c AFEF      		ldi r26,hlo8(-2)
 687 035e BFEF      		ldi r27,hhi8(-2)
 688 0360 8087      		std Z+8,r24
 689 0362 9187      		std Z+9,r25
 690 0364 A287      		std Z+10,r26
 691 0366 B387      		std Z+11,r27
 692               	.LM94:
 693 0368 1486      		std Z+12,__zero_reg__
 694 036a 1586      		std Z+13,__zero_reg__
 695 036c 1686      		std Z+14,__zero_reg__
 696 036e 1786      		std Z+15,__zero_reg__
 697               	.LM95:
 698 0370 4483      		std Z+4,r20
 699 0372 5583      		std Z+5,r21
 700 0374 6683      		std Z+6,r22
 701 0376 7783      		std Z+7,r23
 702               	.LM96:
 703 0378 8091 2004 		lds r24,1056
 704 037c 8160      		ori r24,lo8(1)
 705 037e 8093 2004 		sts 1056,r24
 706               	.L56:
 707               	.LM97:
 708 0382 8091 2104 		lds r24,1057
 709 0386 80FD      		sbrc r24,0
 710 0388 00C0      		rjmp .L56
 711               	.LM98:
 712 038a 8091 2204 		lds r24,1058
 713 038e 837F      		andi r24,lo8(-13)
 714 0390 8460      		ori r24,lo8(4)
 715 0392 E0E2      		ldi r30,lo8(1056)
 716 0394 F4E0      		ldi r31,hi8(1056)
 717 0396 8283      		std Z+2,r24
 718               	.LM99:
 719               	/* #APP */
 720               	 ;  90 "time.c" 1
 721 0398 7894      		sei
 722               	 ;  0 "" 2
 723               	/* epilogue start */
 724               	.LM100:
 725               	/* #NOAPP */
 726 039a 0F90      		pop __tmp_reg__
 727 039c CF91      		pop r28
 728 039e DF91      		pop r29
 729 03a0 0F91      		pop r16
 730 03a2 0895      		ret
 731               	.LFE21:
 733               	.global	Time_CheckVBatSystem
 735               	Time_CheckVBatSystem:
 736               	.LFB22:
 737               	.LM101:
 738               	/* prologue: function */
 739               	/* frame size = 0 */
 740               	.LM102:
 741 03a4 8091 F100 		lds r24,241
 742 03a8 87FD      		sbrc r24,7
 743 03aa 00C0      		rjmp .L61
 744               	.LM103:
 745 03ac 8091 F100 		lds r24,241
 746 03b0 80FD      		sbrc r24,0
 747 03b2 00C0      		rjmp .L61
 748               	.LM104:
 749 03b4 8091 F100 		lds r24,241
 750 03b8 81FD      		sbrc r24,1
 751 03ba 00C0      		rjmp .L61
 752               	.LM105:
 753 03bc 82E0      		ldi r24,lo8(2)
 754 03be 8093 F000 		sts 240,r24
 755               	.LM106:
 756 03c2 8091 F100 		lds r24,241
 757 03c6 8695      		lsr r24
 758 03c8 8695      		lsr r24
 759 03ca 8095      		com r24
 760 03cc 8170      		andi r24,lo8(1)
 761 03ce 0895      		ret
 762               	.L61:
 763 03d0 80E0      		ldi r24,lo8(0)
 764               	.LM107:
 765 03d2 0895      		ret
 766               	.LFE22:
 768               	.global	Time_Get
 770               	Time_Get:
 771               	.LFB23:
 772               	.LM108:
 773               	/* prologue: function */
 774               	/* frame size = 0 */
 775               	.LM109:
 776 03d4 8091 2104 		lds r24,1057
 777 03d8 8061      		ori r24,lo8(16)
 778 03da E0E2      		ldi r30,lo8(1056)
 779 03dc F4E0      		ldi r31,hi8(1056)
 780 03de 8183      		std Z+1,r24
 781               	.L65:
 782               	.LM110:
 783 03e0 8091 2104 		lds r24,1057
 784 03e4 84FD      		sbrc r24,4
 785 03e6 00C0      		rjmp .L65
 786               	.LM111:
 787 03e8 2091 2404 		lds r18,1060
 788 03ec 3091 2504 		lds r19,(1060)+1
 789 03f0 4091 2604 		lds r20,(1060)+2
 790 03f4 5091 2704 		lds r21,(1060)+3
 791               	.LM112:
 792 03f8 B901      		movw r22,r18
 793 03fa CA01      		movw r24,r20
 794               	/* epilogue start */
 795 03fc 0895      		ret
 796               	.LFE23:
 798               	.global	Time_Get32BitTimer
 800               	Time_Get32BitTimer:
 801               	.LFB24:
 802               	.LM113:
 803               	/* prologue: function */
 804               	/* frame size = 0 */
 805               	.LM114:
 806               	/* #APP */
 807               	 ;  120 "time.c" 1
 808 03fe F894      		cli
 809               	 ;  0 "" 2
 810               	.LM115:
 811               	/* #NOAPP */
 812 0400 2091 6008 		lds r18,2144
 813 0404 3091 6108 		lds r19,(2144)+1
 814               	.LVL26:
 815               	.LM116:
 816 0408 6091 2008 		lds r22,2080
 817 040c 7091 2108 		lds r23,(2080)+1
 818               	.LVL27:
 819               	.LM117:
 820 0410 8091 6008 		lds r24,2144
 821 0414 9091 6108 		lds r25,(2144)+1
 822 0418 2817      		cp r18,r24
 823 041a 3907      		cpc r19,r25
 824 041c 01F0      		breq .L69
 825               	.LM118:
 826 041e 2091 6008 		lds r18,2144
 827 0422 3091 6108 		lds r19,(2144)+1
 828               	.LM119:
 829 0426 6091 2008 		lds r22,2080
 830 042a 7091 2108 		lds r23,(2080)+1
 831               	.L69:
 832               	.LM120:
 833               	/* #APP */
 834               	 ;  130 "time.c" 1
 835 042e 7894      		sei
 836               	 ;  0 "" 2
 837               	/* #NOAPP */
 838 0430 40E0      		ldi r20,lo8(0)
 839 0432 50E0      		ldi r21,hi8(0)
 840               	.LVL28:
 841 0434 A901      		movw r20,r18
 842 0436 3327      		clr r19
 843 0438 2227      		clr r18
 844               	.LVL29:
 845 043a CB01      		movw r24,r22
 846 043c A0E0      		ldi r26,lo8(0)
 847 043e B0E0      		ldi r27,hi8(0)
 848               	.LVL30:
 849 0440 280F      		add r18,r24
 850 0442 391F      		adc r19,r25
 851 0444 4A1F      		adc r20,r26
 852 0446 5B1F      		adc r21,r27
 853               	.LM121:
 854 0448 B901      		movw r22,r18
 855               	.LVL31:
 856 044a CA01      		movw r24,r20
 857               	.LVL32:
 858               	/* epilogue start */
 859 044c 0895      		ret
 860               	.LFE24:
 862               	.global	Time_UTCSecsToTime
 864               	Time_UTCSecsToTime:
 865               	.LFB25:
 866               	.LM122:
 867               	.LVL33:
 868 044e 8F92      		push r8
 869 0450 9F92      		push r9
 870 0452 AF92      		push r10
 871 0454 BF92      		push r11
 872 0456 CF92      		push r12
 873 0458 DF92      		push r13
 874 045a EF92      		push r14
 875 045c FF92      		push r15
 876 045e 0F93      		push r16
 877 0460 1F93      		push r17
 878 0462 CF93      		push r28
 879 0464 DF93      		push r29
 880               	/* prologue: function */
 881               	/* frame size = 0 */
 882 0466 7B01      		movw r14,r22
 883 0468 8C01      		movw r16,r24
 884 046a EA01      		movw r28,r20
 885               	.LM123:
 886 046c 2CE3      		ldi r18,lo8(60)
 887 046e 30E0      		ldi r19,hi8(60)
 888 0470 40E0      		ldi r20,hlo8(60)
 889 0472 50E0      		ldi r21,hhi8(60)
 890 0474 0E94 0000 		call __udivmodsi4
 891               	.LVL34:
 892 0478 6983      		std Y+1,r22
 893               	.LM124:
 894 047a C801      		movw r24,r16
 895 047c B701      		movw r22,r14
 896 047e 2CE3      		ldi r18,lo8(60)
 897 0480 30E0      		ldi r19,hi8(60)
 898 0482 40E0      		ldi r20,hlo8(60)
 899 0484 50E0      		ldi r21,hhi8(60)
 900 0486 0E94 0000 		call __udivmodsi4
 901 048a 122F      		mov r17,r18
 902 048c 032F      		mov r16,r19
 903 048e F42E      		mov r15,r20
 904               	.LVL35:
 905 0490 E52E      		mov r14,r21
 906               	.LVL36:
 907               	.LM125:
 908 0492 622F      		mov r22,r18
 909 0494 732F      		mov r23,r19
 910 0496 842F      		mov r24,r20
 911 0498 952F      		mov r25,r21
 912 049a 2CE3      		ldi r18,lo8(60)
 913 049c 30E0      		ldi r19,hi8(60)
 914 049e 40E0      		ldi r20,hlo8(60)
 915 04a0 50E0      		ldi r21,hhi8(60)
 916 04a2 0E94 0000 		call __udivmodsi4
 917 04a6 6A83      		std Y+2,r22
 918               	.LM126:
 919 04a8 612F      		mov r22,r17
 920 04aa 702F      		mov r23,r16
 921 04ac 8F2D      		mov r24,r15
 922 04ae 9E2D      		mov r25,r14
 923 04b0 2CE3      		ldi r18,lo8(60)
 924 04b2 30E0      		ldi r19,hi8(60)
 925 04b4 40E0      		ldi r20,hlo8(60)
 926 04b6 50E0      		ldi r21,hhi8(60)
 927 04b8 0E94 0000 		call __udivmodsi4
 928 04bc 122F      		mov r17,r18
 929 04be 032F      		mov r16,r19
 930 04c0 F42E      		mov r15,r20
 931 04c2 E52E      		mov r14,r21
 932               	.LM127:
 933 04c4 622F      		mov r22,r18
 934 04c6 732F      		mov r23,r19
 935 04c8 842F      		mov r24,r20
 936 04ca 952F      		mov r25,r21
 937 04cc 28E1      		ldi r18,lo8(24)
 938 04ce 30E0      		ldi r19,hi8(24)
 939 04d0 40E0      		ldi r20,hlo8(24)
 940 04d2 50E0      		ldi r21,hhi8(24)
 941 04d4 0E94 0000 		call __udivmodsi4
 942 04d8 6B83      		std Y+3,r22
 943               	.LM128:
 944 04da 612F      		mov r22,r17
 945 04dc 702F      		mov r23,r16
 946 04de 8F2D      		mov r24,r15
 947 04e0 9E2D      		mov r25,r14
 948 04e2 28E1      		ldi r18,lo8(24)
 949 04e4 30E0      		ldi r19,hi8(24)
 950 04e6 40E0      		ldi r20,hlo8(24)
 951 04e8 50E0      		ldi r21,hhi8(24)
 952 04ea 0E94 0000 		call __udivmodsi4
 953 04ee 7901      		movw r14,r18
 954 04f0 8A01      		movw r16,r20
 955               	.LM129:
 956 04f2 C801      		movw r24,r16
 957 04f4 B701      		movw r22,r14
 958               	.LVL37:
 959 04f6 6C5F      		subi r22,lo8(-(4))
 960 04f8 7F4F      		sbci r23,hi8(-(4))
 961 04fa 8F4F      		sbci r24,hlo8(-(4))
 962 04fc 9F4F      		sbci r25,hhi8(-(4))
 963 04fe 27E0      		ldi r18,lo8(7)
 964 0500 30E0      		ldi r19,hi8(7)
 965 0502 40E0      		ldi r20,hlo8(7)
 966 0504 50E0      		ldi r21,hhi8(7)
 967 0506 0E94 0000 		call __udivmodsi4
 968 050a 6F5F      		subi r22,lo8(-(1))
 969 050c 6C83      		std Y+4,r22
 970 050e 20E0      		ldi r18,lo8(0)
 971               	.LVL38:
 972 0510 AA24      		clr r10
 973 0512 BB24      		clr r11
 974 0514 6501      		movw r12,r10
 975               	.LVL39:
 976 0516 00C0      		rjmp .L72
 977               	.LVL40:
 978               	.L76:
 979               	.LM130:
 980 0518 2F5F      		subi r18,lo8(-(1))
 981               	.LVL41:
 982               	.L72:
 983               	.LM131:
 984 051a 822E      		mov r8,r18
 985 051c 9924      		clr r9
 986 051e F401      		movw r30,r8
 987 0520 EE54      		subi r30,lo8(-(1970))
 988 0522 F84F      		sbci r31,hi8(-(1970))
 989 0524 CF01      		movw r24,r30
 990 0526 8370      		andi r24,lo8(3)
 991 0528 9070      		andi r25,hi8(3)
 992 052a 892B      		or r24,r25
 993 052c 01F4      		brne .L73
 994 052e CF01      		movw r24,r30
 995 0530 64E6      		ldi r22,lo8(100)
 996 0532 70E0      		ldi r23,hi8(100)
 997 0534 0E94 0000 		call __divmodhi4
 998               	.LVL42:
 999 0538 892B      		or r24,r25
 1000 053a 01F4      		brne .L74
 1001 053c CF01      		movw r24,r30
 1002 053e 60E9      		ldi r22,lo8(400)
 1003 0540 71E0      		ldi r23,hi8(400)
 1004 0542 0E94 0000 		call __divmodhi4
 1005 0546 892B      		or r24,r25
 1006 0548 01F4      		brne .L73
 1007               	.L74:
 1008 054a 8EE6      		ldi r24,lo8(366)
 1009 054c 91E0      		ldi r25,hi8(366)
 1010 054e A0E0      		ldi r26,hlo8(366)
 1011 0550 B0E0      		ldi r27,hhi8(366)
 1012 0552 00C0      		rjmp .L75
 1013               	.LVL43:
 1014               	.L73:
 1015 0554 8DE6      		ldi r24,lo8(365)
 1016 0556 91E0      		ldi r25,hi8(365)
 1017 0558 A0E0      		ldi r26,hlo8(365)
 1018 055a B0E0      		ldi r27,hhi8(365)
 1019               	.L75:
 1020 055c A80E      		add r10,r24
 1021 055e B91E      		adc r11,r25
 1022 0560 CA1E      		adc r12,r26
 1023 0562 DB1E      		adc r13,r27
 1024 0564 C501      		movw r24,r10
 1025 0566 A0E0      		ldi r26,lo8(0)
 1026 0568 B0E0      		ldi r27,hi8(0)
 1027 056a E816      		cp r14,r24
 1028 056c F906      		cpc r15,r25
 1029 056e 0A07      		cpc r16,r26
 1030 0570 1B07      		cpc r17,r27
 1031 0572 00F4      		brsh .L76
 1032               	.LVL44:
 1033               	.LM132:
 1034 0574 2F83      		std Y+7,r18
 1035               	.LM133:
 1036 0576 F401      		movw r30,r8
 1037 0578 EE54      		subi r30,lo8(-(1970))
 1038 057a F84F      		sbci r31,hi8(-(1970))
 1039 057c 93E0      		ldi r25,lo8(3)
 1040 057e 892E      		mov r8,r25
 1041 0580 912C      		mov r9,__zero_reg__
 1042 0582 8E22      		and r8,r30
 1043 0584 9F22      		and r9,r31
 1044 0586 8114      		cp r8,__zero_reg__
 1045 0588 9104      		cpc r9,__zero_reg__
 1046 058a 01F4      		brne .L77
 1047 058c CF01      		movw r24,r30
 1048               	.LVL45:
 1049 058e 64E6      		ldi r22,lo8(100)
 1050 0590 70E0      		ldi r23,hi8(100)
 1051 0592 0E94 0000 		call __divmodhi4
 1052               	.LVL46:
 1053 0596 892B      		or r24,r25
 1054 0598 01F4      		brne .L78
 1055 059a CF01      		movw r24,r30
 1056 059c 60E9      		ldi r22,lo8(400)
 1057 059e 71E0      		ldi r23,hi8(400)
 1058 05a0 0E94 0000 		call __divmodhi4
 1059 05a4 892B      		or r24,r25
 1060 05a6 01F4      		brne .L77
 1061               	.L78:
 1062 05a8 8EE6      		ldi r24,lo8(366)
 1063 05aa 91E0      		ldi r25,hi8(366)
 1064 05ac A0E0      		ldi r26,hlo8(366)
 1065 05ae B0E0      		ldi r27,hhi8(366)
 1066 05b0 00C0      		rjmp .L79
 1067               	.LVL47:
 1068               	.L77:
 1069 05b2 8DE6      		ldi r24,lo8(365)
 1070 05b4 91E0      		ldi r25,hi8(365)
 1071 05b6 A0E0      		ldi r26,hlo8(365)
 1072 05b8 B0E0      		ldi r27,hhi8(365)
 1073               	.L79:
 1074               	.LM134:
 1075 05ba A81A      		sub r10,r24
 1076 05bc B90A      		sbc r11,r25
 1077 05be CA0A      		sbc r12,r26
 1078 05c0 DB0A      		sbc r13,r27
 1079 05c2 9801      		movw r18,r16
 1080 05c4 8701      		movw r16,r14
 1081 05c6 0A19      		sub r16,r10
 1082 05c8 1B09      		sbc r17,r11
 1083 05ca 2C09      		sbc r18,r12
 1084 05cc 3D09      		sbc r19,r13
 1085               	.LVL48:
 1086               	.LM135:
 1087 05ce CF01      		movw r24,r30
 1088 05d0 64E6      		ldi r22,lo8(100)
 1089 05d2 70E0      		ldi r23,hi8(100)
 1090 05d4 0E94 0000 		call __divmodhi4
 1091               	.LVL49:
 1092 05d8 7C01      		movw r14,r24
 1093 05da CF01      		movw r24,r30
 1094 05dc 60E9      		ldi r22,lo8(400)
 1095 05de 71E0      		ldi r23,hi8(400)
 1096 05e0 0E94 0000 		call __divmodhi4
 1097 05e4 AC01      		movw r20,r24
 1098 05e6 E0E0      		ldi r30,lo8(monthDays)
 1099 05e8 F0E0      		ldi r31,hi8(monthDays)
 1100 05ea 60E0      		ldi r22,lo8(0)
 1101               	.LVL50:
 1102               	.L85:
 1103               	.LM136:
 1104 05ec 6130      		cpi r22,lo8(1)
 1105 05ee 01F4      		brne .L80
 1106               	.LM137:
 1107 05f0 8114      		cp r8,__zero_reg__
 1108 05f2 9104      		cpc r9,__zero_reg__
 1109 05f4 01F4      		brne .L81
 1110 05f6 E114      		cp r14,__zero_reg__
 1111 05f8 F104      		cpc r15,__zero_reg__
 1112 05fa 01F4      		brne .L82
 1113 05fc 4115      		cp r20,__zero_reg__
 1114 05fe 5105      		cpc r21,__zero_reg__
 1115 0600 01F0      		breq .L82
 1116 0602 00C0      		rjmp .L81
 1117               	.L80:
 1118               	.LM138:
 1119 0604 8081      		ld r24,Z
 1120               	.LVL51:
 1121 0606 00C0      		rjmp .L83
 1122               	.LVL52:
 1123               	.L81:
 1124 0608 8CE1      		ldi r24,lo8(28)
 1125               	.LVL53:
 1126 060a 00C0      		rjmp .L83
 1127               	.LVL54:
 1128               	.L82:
 1129 060c 8DE1      		ldi r24,lo8(29)
 1130               	.LVL55:
 1131               	.L83:
 1132               	.LM139:
 1133 060e 90E0      		ldi r25,lo8(0)
 1134 0610 A0E0      		ldi r26,lo8(0)
 1135 0612 B0E0      		ldi r27,hi8(0)
 1136 0614 0817      		cp r16,r24
 1137 0616 1907      		cpc r17,r25
 1138 0618 2A07      		cpc r18,r26
 1139 061a 3B07      		cpc r19,r27
 1140               	.LVL56:
 1141 061c 00F0      		brlo .L84
 1142               	.LM140:
 1143 061e 081B      		sub r16,r24
 1144 0620 190B      		sbc r17,r25
 1145 0622 2A0B      		sbc r18,r26
 1146 0624 3B0B      		sbc r19,r27
 1147               	.LM141:
 1148 0626 6F5F      		subi r22,lo8(-(1))
 1149 0628 3196      		adiw r30,1
 1150 062a 6C30      		cpi r22,lo8(12)
 1151 062c 01F4      		brne .L85
 1152               	.L84:
 1153               	.LM142:
 1154 062e 6F5F      		subi r22,lo8(-(1))
 1155 0630 6E83      		std Y+6,r22
 1156               	.LM143:
 1157 0632 802F      		mov r24,r16
 1158               	.LVL57:
 1159 0634 8F5F      		subi r24,lo8(-(1))
 1160 0636 8D83      		std Y+5,r24
 1161               	.LM144:
 1162 0638 CE01      		movw r24,r28
 1163               	.LVL58:
 1164               	/* epilogue start */
 1165 063a DF91      		pop r29
 1166 063c CF91      		pop r28
 1167 063e 1F91      		pop r17
 1168 0640 0F91      		pop r16
 1169 0642 FF90      		pop r15
 1170 0644 EF90      		pop r14
 1171 0646 DF90      		pop r13
 1172 0648 CF90      		pop r12
 1173 064a BF90      		pop r11
 1174 064c AF90      		pop r10
 1175               	.LVL59:
 1176 064e 9F90      		pop r9
 1177 0650 8F90      		pop r8
 1178 0652 0895      		ret
 1179               	.LFE25:
 1182               	wait_ready:
 1183               	.LFB27:
 1184               	.LM145:
 1185               	/* prologue: function */
 1186               	/* frame size = 0 */
 1187               	.LM146:
 1188 0654 82E3      		ldi r24,lo8(50)
 1189 0656 8093 0000 		sts Timer2,r24
 1190               	.LBB504:
 1191               	.LBB505:
 1192               	.LM147:
 1193 065a 8FEF      		ldi r24,lo8(-1)
 1194 065c E0EC      		ldi r30,lo8(2496)
 1195 065e F9E0      		ldi r31,hi8(2496)
 1196 0660 8383      		std Z+3,r24
 1197               	.L89:
 1198               	.LM148:
 1199 0662 8091 C209 		lds r24,2498
 1200 0666 87FF      		sbrs r24,7
 1201 0668 00C0      		rjmp .L89
 1202               	.LM149:
 1203 066a 8091 C309 		lds r24,2499
 1204               	.LBE505:
 1205               	.LBE504:
 1206               	.LBB506:
 1207               	.LBB507:
 1208               	.LM150:
 1209 066e E0EC      		ldi r30,lo8(2496)
 1210 0670 F9E0      		ldi r31,hi8(2496)
 1211 0672 2FEF      		ldi r18,lo8(-1)
 1212               	.LVL60:
 1213               	.L92:
 1214 0674 2383      		std Z+3,r18
 1215               	.L90:
 1216               	.LM151:
 1217 0676 8091 C209 		lds r24,2498
 1218 067a 87FF      		sbrs r24,7
 1219 067c 00C0      		rjmp .L90
 1220               	.LM152:
 1221 067e 9091 C309 		lds r25,2499
 1222               	.LBE507:
 1223               	.LBE506:
 1224               	.LM153:
 1225 0682 9F3F      		cpi r25,lo8(-1)
 1226 0684 01F0      		breq .L91
 1227 0686 8091 0000 		lds r24,Timer2
 1228 068a 8823      		tst r24
 1229 068c 01F4      		brne .L92
 1230               	.L91:
 1231               	.LM154:
 1232 068e 892F      		mov r24,r25
 1233               	/* epilogue start */
 1234 0690 0895      		ret
 1235               	.LFE27:
 1238               	select:
 1239               	.LFB29:
 1240               	.LM155:
 1241 0692 1F93      		push r17
 1242 0694 CF93      		push r28
 1243 0696 DF93      		push r29
 1244               	/* prologue: function */
 1245               	/* frame size = 0 */
 1246               	.LM156:
 1247 0698 C0E6      		ldi r28,lo8(1632)
 1248 069a D6E0      		ldi r29,hi8(1632)
 1249 069c 10E1      		ldi r17,lo8(16)
 1250 069e 1E83      		std Y+6,r17
 1251               	.LM157:
 1252 06a0 0E94 0000 		call wait_ready
 1253 06a4 8F3F      		cpi r24,lo8(-1)
 1254 06a6 01F4      		brne .L98
 1255 06a8 81E0      		ldi r24,lo8(1)
 1256 06aa 00C0      		rjmp .L99
 1257               	.L98:
 1258               	.LBB508:
 1259               	.LBB509:
 1260               	.LM158:
 1261 06ac 1D83      		std Y+5,r17
 1262               	.LBB510:
 1263               	.LBB511:
 1264               	.LM159:
 1265 06ae 8FEF      		ldi r24,lo8(-1)
 1266 06b0 E0EC      		ldi r30,lo8(2496)
 1267 06b2 F9E0      		ldi r31,hi8(2496)
 1268 06b4 8383      		std Z+3,r24
 1269               	.L100:
 1270               	.LM160:
 1271 06b6 8091 C209 		lds r24,2498
 1272 06ba 87FF      		sbrs r24,7
 1273 06bc 00C0      		rjmp .L100
 1274               	.LM161:
 1275 06be 8091 C309 		lds r24,2499
 1276 06c2 80E0      		ldi r24,lo8(0)
 1277               	.L99:
 1278               	/* epilogue start */
 1279               	.LBE511:
 1280               	.LBE510:
 1281               	.LBE509:
 1282               	.LBE508:
 1283               	.LM162:
 1284 06c4 DF91      		pop r29
 1285 06c6 CF91      		pop r28
 1286 06c8 1F91      		pop r17
 1287 06ca 0895      		ret
 1288               	.LFE29:
 1291               	rcvr_datablock:
 1292               	.LFB33:
 1293               	.LM163:
 1294               	.LVL61:
 1295               	/* prologue: function */
 1296               	/* frame size = 0 */
 1297 06cc FC01      		movw r30,r24
 1298               	.LM164:
 1299 06ce 84E1      		ldi r24,lo8(20)
 1300               	.LVL62:
 1301 06d0 8093 0000 		sts Timer1,r24
 1302               	.LBB512:
 1303               	.LBB513:
 1304               	.LM165:
 1305 06d4 A0EC      		ldi r26,lo8(2496)
 1306 06d6 B9E0      		ldi r27,hi8(2496)
 1307 06d8 9FEF      		ldi r25,lo8(-1)
 1308               	.L106:
 1309 06da 1396      		adiw r26,3
 1310 06dc 9C93      		st X,r25
 1311 06de 1397      		sbiw r26,3
 1312               	.L104:
 1313               	.LM166:
 1314 06e0 8091 C209 		lds r24,2498
 1315 06e4 87FF      		sbrs r24,7
 1316 06e6 00C0      		rjmp .L104
 1317               	.LM167:
 1318 06e8 8091 C309 		lds r24,2499
 1319               	.LVL63:
 1320               	.LBE513:
 1321               	.LBE512:
 1322               	.LM168:
 1323 06ec 8F3F      		cpi r24,lo8(-1)
 1324 06ee 01F4      		brne .L105
 1325 06f0 8091 0000 		lds r24,Timer1
 1326               	.LVL64:
 1327 06f4 8823      		tst r24
 1328 06f6 01F4      		brne .L106
 1329 06f8 00C0      		rjmp .L107
 1330               	.LVL65:
 1331               	.L105:
 1332               	.LM169:
 1333 06fa 8E3F      		cpi r24,lo8(-2)
 1334 06fc 01F0      		breq .+2
 1335 06fe 00C0      		rjmp .L107
 1336               	.LM170:
 1337 0700 A0EC      		ldi r26,lo8(2496)
 1338 0702 B9E0      		ldi r27,hi8(2496)
 1339 0704 9FEF      		ldi r25,lo8(-1)
 1340               	.L126:
 1341 0706 1396      		adiw r26,3
 1342 0708 9C93      		st X,r25
 1343 070a 1397      		sbiw r26,3
 1344               	.L108:
 1345 070c 8091 C209 		lds r24,2498
 1346               	.LVL66:
 1347 0710 87FF      		sbrs r24,7
 1348 0712 00C0      		rjmp .L108
 1349 0714 8091 C309 		lds r24,2499
 1350 0718 8083      		st Z,r24
 1351               	.LM171:
 1352 071a 1396      		adiw r26,3
 1353 071c 9C93      		st X,r25
 1354 071e 1397      		sbiw r26,3
 1355               	.L109:
 1356 0720 8091 C209 		lds r24,2498
 1357 0724 87FF      		sbrs r24,7
 1358 0726 00C0      		rjmp .L109
 1359 0728 8091 C309 		lds r24,2499
 1360 072c 8183      		std Z+1,r24
 1361               	.LM172:
 1362 072e 1396      		adiw r26,3
 1363 0730 9C93      		st X,r25
 1364 0732 1397      		sbiw r26,3
 1365               	.L110:
 1366 0734 8091 C209 		lds r24,2498
 1367 0738 87FF      		sbrs r24,7
 1368 073a 00C0      		rjmp .L110
 1369 073c 8091 C309 		lds r24,2499
 1370 0740 8283      		std Z+2,r24
 1371               	.LM173:
 1372 0742 1396      		adiw r26,3
 1373 0744 9C93      		st X,r25
 1374 0746 1397      		sbiw r26,3
 1375               	.L111:
 1376 0748 8091 C209 		lds r24,2498
 1377 074c 87FF      		sbrs r24,7
 1378 074e 00C0      		rjmp .L111
 1379 0750 8091 C309 		lds r24,2499
 1380 0754 8383      		std Z+3,r24
 1381               	.LM174:
 1382 0756 6450      		subi r22,lo8(-(-4))
 1383 0758 7040      		sbci r23,hi8(-(-4))
 1384               	.LVL67:
 1385 075a 01F0      		breq .L112
 1386               	.LM175:
 1387 075c 3496      		adiw r30,4
 1388 075e 00C0      		rjmp .L126
 1389               	.L112:
 1390               	.LBB514:
 1391               	.LBB515:
 1392               	.LM176:
 1393 0760 8FEF      		ldi r24,lo8(-1)
 1394 0762 E0EC      		ldi r30,lo8(2496)
 1395 0764 F9E0      		ldi r31,hi8(2496)
 1396               	.LVL68:
 1397 0766 8383      		std Z+3,r24
 1398               	.L114:
 1399               	.LM177:
 1400 0768 8091 C209 		lds r24,2498
 1401 076c 87FF      		sbrs r24,7
 1402 076e 00C0      		rjmp .L114
 1403               	.LM178:
 1404 0770 8091 C309 		lds r24,2499
 1405               	.LBE515:
 1406               	.LBE514:
 1407               	.LBB516:
 1408               	.LBB517:
 1409               	.LM179:
 1410 0774 8FEF      		ldi r24,lo8(-1)
 1411 0776 E0EC      		ldi r30,lo8(2496)
 1412 0778 F9E0      		ldi r31,hi8(2496)
 1413 077a 8383      		std Z+3,r24
 1414               	.L115:
 1415               	.LM180:
 1416 077c 8091 C209 		lds r24,2498
 1417 0780 87FF      		sbrs r24,7
 1418 0782 00C0      		rjmp .L115
 1419               	.LM181:
 1420 0784 8091 C309 		lds r24,2499
 1421 0788 81E0      		ldi r24,lo8(1)
 1422 078a 0895      		ret
 1423               	.LVL69:
 1424               	.L107:
 1425               	.LM182:
 1426 078c 80E0      		ldi r24,lo8(0)
 1427               	.LVL70:
 1428               	.LBE517:
 1429               	.LBE516:
 1430               	.LM183:
 1431 078e 0895      		ret
 1432               	.LFE33:
 1435               	xmit_datablock:
 1436               	.LFB34:
 1437               	.LM184:
 1438               	.LVL71:
 1439 0790 1F93      		push r17
 1440 0792 CF93      		push r28
 1441 0794 DF93      		push r29
 1442               	/* prologue: function */
 1443               	/* frame size = 0 */
 1444 0796 EC01      		movw r28,r24
 1445 0798 162F      		mov r17,r22
 1446               	.LM185:
 1447 079a 0E94 0000 		call wait_ready
 1448               	.LVL72:
 1449 079e 8F3F      		cpi r24,lo8(-1)
 1450 07a0 01F0      		breq .L128
 1451 07a2 90E0      		ldi r25,lo8(0)
 1452 07a4 00C0      		rjmp .L129
 1453               	.L128:
 1454               	.LM186:
 1455 07a6 E0EC      		ldi r30,lo8(2496)
 1456 07a8 F9E0      		ldi r31,hi8(2496)
 1457 07aa 1383      		std Z+3,r17
 1458               	.L130:
 1459 07ac 8091 C209 		lds r24,2498
 1460 07b0 87FF      		sbrs r24,7
 1461 07b2 00C0      		rjmp .L130
 1462               	.LM187:
 1463 07b4 1D3F      		cpi r17,lo8(-3)
 1464 07b6 01F4      		brne .L131
 1465 07b8 91E0      		ldi r25,lo8(1)
 1466 07ba 00C0      		rjmp .L129
 1467               	.L131:
 1468 07bc 90E0      		ldi r25,lo8(0)
 1469               	.LVL73:
 1470               	.LM188:
 1471 07be E0EC      		ldi r30,lo8(2496)
 1472 07c0 F9E0      		ldi r31,hi8(2496)
 1473               	.L135:
 1474 07c2 8881      		ld r24,Y
 1475 07c4 8383      		std Z+3,r24
 1476               	.L132:
 1477 07c6 8091 C209 		lds r24,2498
 1478 07ca 87FF      		sbrs r24,7
 1479 07cc 00C0      		rjmp .L132
 1480               	.LM189:
 1481 07ce 8981      		ldd r24,Y+1
 1482 07d0 8383      		std Z+3,r24
 1483               	.L133:
 1484 07d2 8091 C209 		lds r24,2498
 1485 07d6 87FF      		sbrs r24,7
 1486 07d8 00C0      		rjmp .L133
 1487               	.LM190:
 1488 07da 9150      		subi r25,lo8(-(-1))
 1489 07dc 01F0      		breq .L134
 1490               	.LM191:
 1491 07de 2296      		adiw r28,2
 1492 07e0 00C0      		rjmp .L135
 1493               	.L134:
 1494               	.LM192:
 1495 07e2 8FEF      		ldi r24,lo8(-1)
 1496 07e4 E0EC      		ldi r30,lo8(2496)
 1497 07e6 F9E0      		ldi r31,hi8(2496)
 1498 07e8 8383      		std Z+3,r24
 1499               	.L136:
 1500 07ea 8091 C209 		lds r24,2498
 1501 07ee 87FF      		sbrs r24,7
 1502 07f0 00C0      		rjmp .L136
 1503               	.LM193:
 1504 07f2 8FEF      		ldi r24,lo8(-1)
 1505 07f4 E0EC      		ldi r30,lo8(2496)
 1506 07f6 F9E0      		ldi r31,hi8(2496)
 1507 07f8 8383      		std Z+3,r24
 1508               	.L137:
 1509 07fa 8091 C209 		lds r24,2498
 1510 07fe 87FF      		sbrs r24,7
 1511 0800 00C0      		rjmp .L137
 1512               	.LBB518:
 1513               	.LBB519:
 1514               	.LM194:
 1515 0802 8FEF      		ldi r24,lo8(-1)
 1516 0804 E0EC      		ldi r30,lo8(2496)
 1517 0806 F9E0      		ldi r31,hi8(2496)
 1518 0808 8383      		std Z+3,r24
 1519               	.L138:
 1520               	.LM195:
 1521 080a 8091 C209 		lds r24,2498
 1522 080e 87FF      		sbrs r24,7
 1523 0810 00C0      		rjmp .L138
 1524               	.LM196:
 1525 0812 8091 C309 		lds r24,2499
 1526               	.LVL74:
 1527 0816 90E0      		ldi r25,lo8(0)
 1528               	.LVL75:
 1529 0818 8F71      		andi r24,lo8(31)
 1530 081a 8530      		cpi r24,lo8(5)
 1531 081c 01F0      		breq .L139
 1532 081e 91E0      		ldi r25,lo8(1)
 1533               	.L139:
 1534 0820 81E0      		ldi r24,lo8(1)
 1535               	.LVL76:
 1536 0822 9827      		eor r25,r24
 1537               	.L129:
 1538               	.LBE519:
 1539               	.LBE518:
 1540               	.LM197:
 1541 0824 892F      		mov r24,r25
 1542               	/* epilogue start */
 1543 0826 DF91      		pop r29
 1544 0828 CF91      		pop r28
 1545               	.LVL77:
 1546 082a 1F91      		pop r17
 1547               	.LVL78:
 1548 082c 0895      		ret
 1549               	.LFE34:
 1552               	send_cmd:
 1553               	.LFB35:
 1554               	.LM198:
 1555               	.LVL79:
 1556 082e DF92      		push r13
 1557 0830 EF92      		push r14
 1558 0832 FF92      		push r15
 1559 0834 0F93      		push r16
 1560 0836 1F93      		push r17
 1561               	/* prologue: function */
 1562               	/* frame size = 0 */
 1563 0838 D82E      		mov r13,r24
 1564 083a 7A01      		movw r14,r20
 1565 083c 8B01      		movw r16,r22
 1566               	.LM199:
 1567 083e 87FF      		sbrs r24,7
 1568 0840 00C0      		rjmp .L148
 1569               	.LVL80:
 1570               	.LM200:
 1571 0842 87E7      		ldi r24,lo8(119)
 1572               	.LVL81:
 1573 0844 40E0      		ldi r20,lo8(0)
 1574 0846 50E0      		ldi r21,hi8(0)
 1575 0848 60E0      		ldi r22,hlo8(0)
 1576 084a 70E0      		ldi r23,hhi8(0)
 1577 084c 0E94 0000 		call send_cmd
 1578               	.LM201:
 1579 0850 8230      		cpi r24,lo8(2)
 1580               	.LVL82:
 1581 0852 00F0      		brlo .+2
 1582 0854 00C0      		rjmp .L149
 1583               	.LM202:
 1584 0856 8FE7      		ldi r24,lo8(127)
 1585               	.LVL83:
 1586 0858 D822      		and r13,r24
 1587               	.LVL84:
 1588               	.L148:
 1589               	.LBB520:
 1590               	.LBB521:
 1591               	.LM203:
 1592 085a 80E1      		ldi r24,lo8(16)
 1593 085c E0E6      		ldi r30,lo8(1632)
 1594 085e F6E0      		ldi r31,hi8(1632)
 1595 0860 8583      		std Z+5,r24
 1596               	.LBB522:
 1597               	.LBB523:
 1598               	.LM204:
 1599 0862 8FEF      		ldi r24,lo8(-1)
 1600 0864 E0EC      		ldi r30,lo8(2496)
 1601 0866 F9E0      		ldi r31,hi8(2496)
 1602 0868 8383      		std Z+3,r24
 1603               	.L150:
 1604               	.LM205:
 1605 086a 8091 C209 		lds r24,2498
 1606 086e 87FF      		sbrs r24,7
 1607 0870 00C0      		rjmp .L150
 1608               	.LM206:
 1609 0872 8091 C309 		lds r24,2499
 1610               	.LBE523:
 1611               	.LBE522:
 1612               	.LBE521:
 1613               	.LBE520:
 1614               	.LM207:
 1615 0876 0E94 0000 		call select
 1616 087a 8823      		tst r24
 1617 087c 01F4      		brne .L151
 1618 087e 8FEF      		ldi r24,lo8(-1)
 1619               	.LVL85:
 1620 0880 00C0      		rjmp .L149
 1621               	.LVL86:
 1622               	.L151:
 1623               	.LM208:
 1624 0882 E0EC      		ldi r30,lo8(2496)
 1625 0884 F9E0      		ldi r31,hi8(2496)
 1626 0886 D382      		std Z+3,r13
 1627               	.L152:
 1628 0888 8091 C209 		lds r24,2498
 1629 088c 87FF      		sbrs r24,7
 1630 088e 00C0      		rjmp .L152
 1631               	.LM209:
 1632 0890 812F      		mov r24,r17
 1633 0892 9927      		clr r25
 1634 0894 AA27      		clr r26
 1635 0896 BB27      		clr r27
 1636 0898 E0EC      		ldi r30,lo8(2496)
 1637 089a F9E0      		ldi r31,hi8(2496)
 1638 089c 8383      		std Z+3,r24
 1639               	.L153:
 1640 089e 8091 C209 		lds r24,2498
 1641 08a2 87FF      		sbrs r24,7
 1642 08a4 00C0      		rjmp .L153
 1643               	.LM210:
 1644 08a6 C801      		movw r24,r16
 1645 08a8 AA27      		clr r26
 1646 08aa BB27      		clr r27
 1647 08ac E0EC      		ldi r30,lo8(2496)
 1648 08ae F9E0      		ldi r31,hi8(2496)
 1649 08b0 8383      		std Z+3,r24
 1650               	.L154:
 1651 08b2 8091 C209 		lds r24,2498
 1652 08b6 87FF      		sbrs r24,7
 1653 08b8 00C0      		rjmp .L154
 1654               	.LM211:
 1655 08ba BB27      		clr r27
 1656 08bc A12F      		mov r26,r17
 1657 08be 902F      		mov r25,r16
 1658 08c0 8F2D      		mov r24,r15
 1659 08c2 E0EC      		ldi r30,lo8(2496)
 1660 08c4 F9E0      		ldi r31,hi8(2496)
 1661 08c6 8383      		std Z+3,r24
 1662               	.L155:
 1663 08c8 8091 C209 		lds r24,2498
 1664 08cc 87FF      		sbrs r24,7
 1665 08ce 00C0      		rjmp .L155
 1666               	.LM212:
 1667 08d0 E0EC      		ldi r30,lo8(2496)
 1668 08d2 F9E0      		ldi r31,hi8(2496)
 1669 08d4 E382      		std Z+3,r14
 1670               	.L156:
 1671 08d6 8091 C209 		lds r24,2498
 1672 08da 87FF      		sbrs r24,7
 1673 08dc 00C0      		rjmp .L156
 1674               	.LM213:
 1675 08de 80E4      		ldi r24,lo8(64)
 1676 08e0 D816      		cp r13,r24
 1677 08e2 01F4      		brne .L157
 1678 08e4 85E9      		ldi r24,lo8(-107)
 1679               	.LVL87:
 1680 08e6 00C0      		rjmp .L158
 1681               	.LVL88:
 1682               	.L157:
 1683               	.LM214:
 1684 08e8 88E4      		ldi r24,lo8(72)
 1685 08ea D816      		cp r13,r24
 1686 08ec 01F4      		brne .L159
 1687 08ee 87E8      		ldi r24,lo8(-121)
 1688               	.LVL89:
 1689 08f0 00C0      		rjmp .L158
 1690               	.LVL90:
 1691               	.L159:
 1692 08f2 81E0      		ldi r24,lo8(1)
 1693               	.LVL91:
 1694               	.L158:
 1695               	.LM215:
 1696 08f4 E0EC      		ldi r30,lo8(2496)
 1697 08f6 F9E0      		ldi r31,hi8(2496)
 1698 08f8 8383      		std Z+3,r24
 1699               	.L160:
 1700 08fa 8091 C209 		lds r24,2498
 1701               	.LVL92:
 1702 08fe 87FF      		sbrs r24,7
 1703 0900 00C0      		rjmp .L160
 1704               	.LM216:
 1705 0902 8CE4      		ldi r24,lo8(76)
 1706 0904 D816      		cp r13,r24
 1707 0906 01F4      		brne .L177
 1708               	.L161:
 1709               	.LBB524:
 1710               	.LBB525:
 1711               	.LM217:
 1712 0908 8FEF      		ldi r24,lo8(-1)
 1713 090a E0EC      		ldi r30,lo8(2496)
 1714 090c F9E0      		ldi r31,hi8(2496)
 1715 090e 8383      		std Z+3,r24
 1716               	.L163:
 1717               	.LM218:
 1718 0910 8091 C209 		lds r24,2498
 1719 0914 87FF      		sbrs r24,7
 1720 0916 00C0      		rjmp .L163
 1721               	.LM219:
 1722 0918 8091 C309 		lds r24,2499
 1723               	.L177:
 1724 091c 9AE0      		ldi r25,lo8(10)
 1725               	.LVL93:
 1726               	.LBE525:
 1727               	.LBE524:
 1728               	.LBB526:
 1729               	.LBB527:
 1730               	.LM220:
 1731 091e E0EC      		ldi r30,lo8(2496)
 1732 0920 F9E0      		ldi r31,hi8(2496)
 1733 0922 2FEF      		ldi r18,lo8(-1)
 1734               	.LVL94:
 1735               	.L166:
 1736 0924 2383      		std Z+3,r18
 1737               	.L164:
 1738               	.LM221:
 1739 0926 8091 C209 		lds r24,2498
 1740               	.LVL95:
 1741 092a 87FF      		sbrs r24,7
 1742 092c 00C0      		rjmp .L164
 1743               	.LM222:
 1744 092e 8091 C309 		lds r24,2499
 1745               	.LVL96:
 1746               	.LBE527:
 1747               	.LBE526:
 1748               	.LM223:
 1749 0932 87FF      		sbrs r24,7
 1750 0934 00C0      		rjmp .L149
 1751 0936 9150      		subi r25,lo8(-(-1))
 1752 0938 01F4      		brne .L166
 1753               	.L149:
 1754               	.LVL97:
 1755               	/* epilogue start */
 1756               	.LM224:
 1757 093a 1F91      		pop r17
 1758 093c 0F91      		pop r16
 1759 093e FF90      		pop r15
 1760 0940 EF90      		pop r14
 1761               	.LVL98:
 1762 0942 DF90      		pop r13
 1763               	.LVL99:
 1764 0944 0895      		ret
 1765               	.LFE35:
 1767               	.global	disk_initialize
 1769               	disk_initialize:
 1770               	.LFB36:
 1771               	.LM225:
 1772               	.LVL100:
 1773 0946 EF92      		push r14
 1774 0948 FF92      		push r15
 1775 094a 0F93      		push r16
 1776 094c 1F93      		push r17
 1777 094e DF93      		push r29
 1778 0950 CF93      		push r28
 1779 0952 00D0      		rcall .
 1780 0954 0F92      		push __tmp_reg__
 1781 0956 CDB7      		in r28,__SP_L__
 1782 0958 DEB7      		in r29,__SP_H__
 1783               	/* prologue: function */
 1784               	/* frame size = 4 */
 1785               	.LM226:
 1786 095a 8091 0000 		lds r24,Stat
 1787               	.LVL101:
 1788 095e 81FD      		sbrc r24,1
 1789 0960 00C0      		rjmp .L198
 1790               	.L179:
 1791               	.LBB528:
 1792               	.LBB529:
 1793               	.LM227:
 1794 0962 E0E6      		ldi r30,lo8(1632)
 1795 0964 F6E0      		ldi r31,hi8(1632)
 1796 0966 80EB      		ldi r24,lo8(-80)
 1797 0968 8183      		std Z+1,r24
 1798               	.LM228:
 1799 096a 88E3      		ldi r24,lo8(56)
 1800 096c 868B      		std Z+22,r24
 1801               	.LM229:
 1802 096e 1482      		std Z+4,__zero_reg__
 1803 0970 8CE2      		ldi r24,lo8(300)
 1804 0972 91E0      		ldi r25,hi8(300)
 1805               	.LVL102:
 1806               	.LBB530:
 1807               	.LBB531:
 1808               	.LBB532:
 1809               	.LBB533:
 1810               	.LM230:
 1811 0974 20E7      		ldi r18,lo8(368)
 1812 0976 31E0      		ldi r19,hi8(368)
 1813               	.L181:
 1814 0978 F901      		movw r30,r18
 1815               	.LVL103:
 1816               	/* #APP */
 1817               	 ;  105 "/usr/local/CrossPack-AVR-20100115/lib/gcc/avr/4.3.3/../../../../avr/include/util/delay_bas
 1818 097a 3197      		1: sbiw r30,1
 1819 097c 01F4      		brne 1b
 1820               	 ;  0 "" 2
 1821               	/* #NOAPP */
 1822               	.LBE533:
 1823               	.LBE532:
 1824               	.LM231:
 1825 097e 0197      		sbiw r24,1
 1826               	.LM232:
 1827 0980 01F4      		brne .L181
 1828               	.LBE531:
 1829               	.LBE530:
 1830               	.LBE529:
 1831               	.LBE528:
 1832               	.LM233:
 1833 0982 83E5      		ldi r24,lo8(83)
 1834               	.LVL104:
 1835 0984 8093 C009 		sts 2496,r24
 1836 0988 9AE0      		ldi r25,lo8(10)
 1837               	.LVL105:
 1838               	.LBB534:
 1839               	.LBB535:
 1840               	.LM234:
 1841 098a E0EC      		ldi r30,lo8(2496)
 1842 098c F9E0      		ldi r31,hi8(2496)
 1843               	.LVL106:
 1844 098e 2FEF      		ldi r18,lo8(-1)
 1845               	.L183:
 1846 0990 2383      		std Z+3,r18
 1847               	.L182:
 1848               	.LM235:
 1849 0992 8091 C209 		lds r24,2498
 1850 0996 87FF      		sbrs r24,7
 1851 0998 00C0      		rjmp .L182
 1852               	.LM236:
 1853 099a 8091 C309 		lds r24,2499
 1854               	.LBE535:
 1855               	.LBE534:
 1856               	.LM237:
 1857 099e 9150      		subi r25,lo8(-(-1))
 1858 09a0 01F4      		brne .L183
 1859               	.LM238:
 1860 09a2 80E4      		ldi r24,lo8(64)
 1861 09a4 40E0      		ldi r20,lo8(0)
 1862 09a6 50E0      		ldi r21,hi8(0)
 1863 09a8 60E0      		ldi r22,hlo8(0)
 1864 09aa 70E0      		ldi r23,hhi8(0)
 1865 09ac 0E94 0000 		call send_cmd
 1866               	.LVL107:
 1867 09b0 8130      		cpi r24,lo8(1)
 1868 09b2 01F0      		breq .+2
 1869 09b4 00C0      		rjmp .L184
 1870               	.LM239:
 1871 09b6 84E6      		ldi r24,lo8(100)
 1872 09b8 8093 0000 		sts Timer1,r24
 1873               	.LM240:
 1874 09bc 88E4      		ldi r24,lo8(72)
 1875 09be 4AEA      		ldi r20,lo8(426)
 1876 09c0 51E0      		ldi r21,hi8(426)
 1877 09c2 60E0      		ldi r22,hlo8(426)
 1878 09c4 70E0      		ldi r23,hhi8(426)
 1879 09c6 0E94 0000 		call send_cmd
 1880 09ca 8130      		cpi r24,lo8(1)
 1881 09cc 01F0      		breq .+2
 1882 09ce 00C0      		rjmp .L185
 1883 09d0 7E01      		movw r14,r28
 1884 09d2 0894      		sec
 1885 09d4 E11C      		adc r14,__zero_reg__
 1886 09d6 F11C      		adc r15,__zero_reg__
 1887 09d8 8701      		movw r16,r14
 1888               	.LBB536:
 1889               	.LBB537:
 1890               	.LM241:
 1891 09da E0EC      		ldi r30,lo8(2496)
 1892 09dc F9E0      		ldi r31,hi8(2496)
 1893 09de 9FEF      		ldi r25,lo8(-1)
 1894               	.LBE537:
 1895               	.LBE536:
 1896               	.LM242:
 1897 09e0 9E01      		movw r18,r28
 1898 09e2 2B5F      		subi r18,lo8(-(5))
 1899 09e4 3F4F      		sbci r19,hi8(-(5))
 1900               	.L187:
 1901               	.LBB539:
 1902               	.LBB538:
 1903               	.LM243:
 1904 09e6 9383      		std Z+3,r25
 1905               	.L186:
 1906               	.LM244:
 1907 09e8 8091 C209 		lds r24,2498
 1908 09ec 87FF      		sbrs r24,7
 1909 09ee 00C0      		rjmp .L186
 1910               	.LM245:
 1911 09f0 8091 C309 		lds r24,2499
 1912               	.LBE538:
 1913               	.LBE539:
 1914               	.LM246:
 1915 09f4 D801      		movw r26,r16
 1916 09f6 8D93      		st X+,r24
 1917 09f8 8D01      		movw r16,r26
 1918 09fa A217      		cp r26,r18
 1919 09fc B307      		cpc r27,r19
 1920 09fe 01F4      		brne .L187
 1921               	.LM247:
 1922 0a00 8B81      		ldd r24,Y+3
 1923 0a02 8130      		cpi r24,lo8(1)
 1924 0a04 01F0      		breq .+2
 1925 0a06 00C0      		rjmp .L184
 1926 0a08 8C81      		ldd r24,Y+4
 1927 0a0a 8A3A      		cpi r24,lo8(-86)
 1928 0a0c 01F0      		breq .+2
 1929 0a0e 00C0      		rjmp .L184
 1930               	.L201:
 1931               	.LM248:
 1932 0a10 8091 0000 		lds r24,Timer1
 1933 0a14 8823      		tst r24
 1934 0a16 01F0      		breq .L188
 1935 0a18 89EE      		ldi r24,lo8(-23)
 1936 0a1a 40E0      		ldi r20,lo8(1073741824)
 1937 0a1c 50E0      		ldi r21,hi8(1073741824)
 1938 0a1e 60E0      		ldi r22,hlo8(1073741824)
 1939 0a20 70E4      		ldi r23,hhi8(1073741824)
 1940 0a22 0E94 0000 		call send_cmd
 1941 0a26 8823      		tst r24
 1942 0a28 01F4      		brne .L201
 1943               	.L188:
 1944               	.LM249:
 1945 0a2a 8091 0000 		lds r24,Timer1
 1946 0a2e 8823      		tst r24
 1947 0a30 01F4      		brne .+2
 1948 0a32 00C0      		rjmp .L184
 1949 0a34 8AE7      		ldi r24,lo8(122)
 1950 0a36 40E0      		ldi r20,lo8(0)
 1951 0a38 50E0      		ldi r21,hi8(0)
 1952 0a3a 60E0      		ldi r22,hlo8(0)
 1953 0a3c 70E0      		ldi r23,hhi8(0)
 1954 0a3e 0E94 0000 		call send_cmd
 1955 0a42 8823      		tst r24
 1956 0a44 01F0      		breq .+2
 1957 0a46 00C0      		rjmp .L184
 1958               	.LBB540:
 1959               	.LBB541:
 1960               	.LM250:
 1961 0a48 E0EC      		ldi r30,lo8(2496)
 1962 0a4a F9E0      		ldi r31,hi8(2496)
 1963 0a4c 9FEF      		ldi r25,lo8(-1)
 1964               	.L200:
 1965 0a4e 9383      		std Z+3,r25
 1966               	.L190:
 1967               	.LM251:
 1968 0a50 8091 C209 		lds r24,2498
 1969 0a54 87FF      		sbrs r24,7
 1970 0a56 00C0      		rjmp .L190
 1971               	.LM252:
 1972 0a58 8091 C309 		lds r24,2499
 1973               	.LBE541:
 1974               	.LBE540:
 1975               	.LM253:
 1976 0a5c D701      		movw r26,r14
 1977 0a5e 8D93      		st X+,r24
 1978 0a60 7D01      		movw r14,r26
 1979 0a62 A017      		cp r26,r16
 1980 0a64 B107      		cpc r27,r17
 1981 0a66 01F4      		brne .L200
 1982               	.LM254:
 1983 0a68 8981      		ldd r24,Y+1
 1984 0a6a 86FD      		sbrc r24,6
 1985 0a6c 00C0      		rjmp .L192
 1986 0a6e 14E0      		ldi r17,lo8(4)
 1987               	.LVL108:
 1988 0a70 00C0      		rjmp .L193
 1989               	.LVL109:
 1990               	.L192:
 1991 0a72 1CE0      		ldi r17,lo8(12)
 1992               	.LVL110:
 1993 0a74 00C0      		rjmp .L193
 1994               	.LVL111:
 1995               	.L185:
 1996               	.LM255:
 1997 0a76 89EE      		ldi r24,lo8(-23)
 1998 0a78 40E0      		ldi r20,lo8(0)
 1999 0a7a 50E0      		ldi r21,hi8(0)
 2000 0a7c 60E0      		ldi r22,hlo8(0)
 2001 0a7e 70E0      		ldi r23,hhi8(0)
 2002 0a80 0E94 0000 		call send_cmd
 2003 0a84 8230      		cpi r24,lo8(2)
 2004 0a86 00F0      		brlo .L194
 2005 0a88 01E4      		ldi r16,lo8(65)
 2006               	.LVL112:
 2007 0a8a 11E0      		ldi r17,lo8(1)
 2008               	.LVL113:
 2009 0a8c 00C0      		rjmp .L202
 2010               	.LVL114:
 2011               	.L194:
 2012 0a8e 09EE      		ldi r16,lo8(-23)
 2013               	.LVL115:
 2014 0a90 12E0      		ldi r17,lo8(2)
 2015               	.LVL116:
 2016               	.L202:
 2017               	.LM256:
 2018 0a92 8091 0000 		lds r24,Timer1
 2019 0a96 8823      		tst r24
 2020 0a98 01F0      		breq .L196
 2021 0a9a 802F      		mov r24,r16
 2022 0a9c 40E0      		ldi r20,lo8(0)
 2023 0a9e 50E0      		ldi r21,hi8(0)
 2024 0aa0 60E0      		ldi r22,hlo8(0)
 2025 0aa2 70E0      		ldi r23,hhi8(0)
 2026 0aa4 0E94 0000 		call send_cmd
 2027 0aa8 8823      		tst r24
 2028 0aaa 01F4      		brne .L202
 2029               	.L196:
 2030               	.LM257:
 2031 0aac 8091 0000 		lds r24,Timer1
 2032 0ab0 8823      		tst r24
 2033 0ab2 01F0      		breq .L184
 2034 0ab4 80E5      		ldi r24,lo8(80)
 2035 0ab6 40E0      		ldi r20,lo8(512)
 2036 0ab8 52E0      		ldi r21,hi8(512)
 2037 0aba 60E0      		ldi r22,hlo8(512)
 2038 0abc 70E0      		ldi r23,hhi8(512)
 2039 0abe 0E94 0000 		call send_cmd
 2040 0ac2 8111      		cpse r24,__zero_reg__
 2041               	.L184:
 2042 0ac4 10E0      		ldi r17,lo8(0)
 2043               	.L193:
 2044               	.LM258:
 2045 0ac6 1093 0000 		sts CardType,r17
 2046               	.LBB542:
 2047               	.LBB543:
 2048               	.LM259:
 2049 0aca 80E1      		ldi r24,lo8(16)
 2050 0acc E0E6      		ldi r30,lo8(1632)
 2051 0ace F6E0      		ldi r31,hi8(1632)
 2052 0ad0 8583      		std Z+5,r24
 2053               	.LBB544:
 2054               	.LBB545:
 2055               	.LM260:
 2056 0ad2 8FEF      		ldi r24,lo8(-1)
 2057 0ad4 E0EC      		ldi r30,lo8(2496)
 2058 0ad6 F9E0      		ldi r31,hi8(2496)
 2059 0ad8 8383      		std Z+3,r24
 2060               	.L197:
 2061               	.LM261:
 2062 0ada 8091 C209 		lds r24,2498
 2063 0ade 87FF      		sbrs r24,7
 2064 0ae0 00C0      		rjmp .L197
 2065               	.LM262:
 2066 0ae2 8091 C309 		lds r24,2499
 2067               	.LBE545:
 2068               	.LBE544:
 2069               	.LBE543:
 2070               	.LBE542:
 2071               	.LM263:
 2072 0ae6 1123      		tst r17
 2073 0ae8 01F0      		breq .L198
 2074               	.LM264:
 2075 0aea 8091 0000 		lds r24,Stat
 2076 0aee 8E7F      		andi r24,lo8(-2)
 2077 0af0 8093 0000 		sts Stat,r24
 2078               	.LM265:
 2079 0af4 80ED      		ldi r24,lo8(-48)
 2080 0af6 8093 C009 		sts 2496,r24
 2081               	.L198:
 2082               	.LM266:
 2083 0afa 8091 0000 		lds r24,Stat
 2084               	/* epilogue start */
 2085               	.LM267:
 2086 0afe 2496      		adiw r28,4
 2087 0b00 CDBF      		out __SP_L__,r28
 2088 0b02 DEBF      		out __SP_H__,r29
 2089 0b04 CF91      		pop r28
 2090 0b06 DF91      		pop r29
 2091 0b08 1F91      		pop r17
 2092               	.LVL117:
 2093 0b0a 0F91      		pop r16
 2094               	.LVL118:
 2095 0b0c FF90      		pop r15
 2096 0b0e EF90      		pop r14
 2097 0b10 0895      		ret
 2098               	.LFE36:
 2100               	.global	disk_status
 2102               	disk_status:
 2103               	.LFB37:
 2104               	.LM268:
 2105               	.LVL119:
 2106               	/* prologue: function */
 2107               	/* frame size = 0 */
 2108               	.LM269:
 2109 0b12 8823      		tst r24
 2110 0b14 01F0      		breq .L214
 2111 0b16 81E0      		ldi r24,lo8(1)
 2112               	.LVL120:
 2113 0b18 0895      		ret
 2114               	.LVL121:
 2115               	.L214:
 2116               	.LM270:
 2117 0b1a 8091 0000 		lds r24,Stat
 2118               	.LVL122:
 2119               	.LM271:
 2120 0b1e 0895      		ret
 2121               	.LFE37:
 2123               	.global	disk_read
 2125               	disk_read:
 2126               	.LFB38:
 2127               	.LM272:
 2128               	.LVL123:
 2129 0b20 0F93      		push r16
 2130               	.LVL124:
 2131 0b22 CF93      		push r28
 2132 0b24 DF93      		push r29
 2133               	/* prologue: function */
 2134               	/* frame size = 0 */
 2135 0b26 EB01      		movw r28,r22
 2136               	.LM273:
 2137 0b28 8823      		tst r24
 2138 0b2a 01F0      		breq .+2
 2139 0b2c 00C0      		rjmp .L218
 2140               	.LVL125:
 2141 0b2e 0023      		tst r16
 2142               	.LVL126:
 2143 0b30 01F4      		brne .+2
 2144 0b32 00C0      		rjmp .L218
 2145               	.LM274:
 2146 0b34 8091 0000 		lds r24,Stat
 2147               	.LVL127:
 2148 0b38 80FF      		sbrs r24,0
 2149 0b3a 00C0      		rjmp .L219
 2150 0b3c 03E0      		ldi r16,lo8(3)
 2151               	.LVL128:
 2152 0b3e 00C0      		rjmp .L220
 2153               	.LVL129:
 2154               	.L219:
 2155               	.LM275:
 2156 0b40 8091 0000 		lds r24,CardType
 2157 0b44 83FD      		sbrc r24,3
 2158 0b46 00C0      		rjmp .L221
 2159 0b48 69E0      		ldi r22,9
 2160 0b4a 220F      	1:	lsl r18
 2161 0b4c 331F      		rol r19
 2162 0b4e 441F      		rol r20
 2163 0b50 551F      		rol r21
 2164 0b52 6A95      		dec r22
 2165 0b54 01F4      		brne 1b
 2166               	.LVL130:
 2167               	.L221:
 2168               	.LM276:
 2169 0b56 0130      		cpi r16,lo8(1)
 2170 0b58 01F4      		brne .L222
 2171               	.LM277:
 2172 0b5a 81E5      		ldi r24,lo8(81)
 2173 0b5c BA01      		movw r22,r20
 2174 0b5e A901      		movw r20,r18
 2175 0b60 0E94 0000 		call send_cmd
 2176               	.LVL131:
 2177 0b64 8823      		tst r24
 2178 0b66 01F4      		brne .L223
 2179 0b68 CE01      		movw r24,r28
 2180 0b6a 60E0      		ldi r22,lo8(512)
 2181 0b6c 72E0      		ldi r23,hi8(512)
 2182 0b6e 0E94 0000 		call rcvr_datablock
 2183 0b72 00E0      		ldi r16,lo8(0)
 2184 0b74 8823      		tst r24
 2185 0b76 01F4      		brne .L223
 2186 0b78 01E0      		ldi r16,lo8(1)
 2187 0b7a 00C0      		rjmp .L223
 2188               	.LVL132:
 2189               	.L222:
 2190               	.LM278:
 2191 0b7c 82E5      		ldi r24,lo8(82)
 2192 0b7e BA01      		movw r22,r20
 2193 0b80 A901      		movw r20,r18
 2194 0b82 0E94 0000 		call send_cmd
 2195               	.LVL133:
 2196 0b86 8823      		tst r24
 2197 0b88 01F4      		brne .L223
 2198               	.L231:
 2199               	.LM279:
 2200 0b8a CE01      		movw r24,r28
 2201 0b8c 60E0      		ldi r22,lo8(512)
 2202 0b8e 72E0      		ldi r23,hi8(512)
 2203 0b90 0E94 0000 		call rcvr_datablock
 2204 0b94 8823      		tst r24
 2205 0b96 01F0      		breq .L225
 2206               	.LM280:
 2207 0b98 0150      		subi r16,lo8(-(-1))
 2208 0b9a 01F0      		breq .L225
 2209               	.LM281:
 2210 0b9c C050      		subi r28,lo8(-(512))
 2211 0b9e DE4F      		sbci r29,hi8(-(512))
 2212 0ba0 00C0      		rjmp .L231
 2213               	.L225:
 2214               	.LM282:
 2215 0ba2 8CE4      		ldi r24,lo8(76)
 2216 0ba4 40E0      		ldi r20,lo8(0)
 2217 0ba6 50E0      		ldi r21,hi8(0)
 2218 0ba8 60E0      		ldi r22,hlo8(0)
 2219 0baa 70E0      		ldi r23,hhi8(0)
 2220 0bac 0E94 0000 		call send_cmd
 2221               	.L223:
 2222               	.LBB546:
 2223               	.LBB547:
 2224               	.LM283:
 2225 0bb0 80E1      		ldi r24,lo8(16)
 2226 0bb2 E0E6      		ldi r30,lo8(1632)
 2227 0bb4 F6E0      		ldi r31,hi8(1632)
 2228 0bb6 8583      		std Z+5,r24
 2229               	.LBB548:
 2230               	.LBB549:
 2231               	.LM284:
 2232 0bb8 8FEF      		ldi r24,lo8(-1)
 2233 0bba E0EC      		ldi r30,lo8(2496)
 2234 0bbc F9E0      		ldi r31,hi8(2496)
 2235 0bbe 8383      		std Z+3,r24
 2236               	.L227:
 2237               	.LM285:
 2238 0bc0 8091 C209 		lds r24,2498
 2239 0bc4 87FF      		sbrs r24,7
 2240 0bc6 00C0      		rjmp .L227
 2241               	.LM286:
 2242 0bc8 8091 C309 		lds r24,2499
 2243               	.LBE549:
 2244               	.LBE548:
 2245               	.LBE547:
 2246               	.LBE546:
 2247               	.LM287:
 2248 0bcc 0023      		tst r16
 2249 0bce 01F0      		breq .L220
 2250 0bd0 01E0      		ldi r16,lo8(1)
 2251               	.LVL134:
 2252 0bd2 00C0      		rjmp .L220
 2253               	.LVL135:
 2254               	.L218:
 2255 0bd4 04E0      		ldi r16,lo8(4)
 2256               	.LVL136:
 2257               	.L220:
 2258               	.LM288:
 2259 0bd6 802F      		mov r24,r16
 2260               	.LVL137:
 2261               	/* epilogue start */
 2262 0bd8 DF91      		pop r29
 2263 0bda CF91      		pop r28
 2264               	.LVL138:
 2265 0bdc 0F91      		pop r16
 2266 0bde 0895      		ret
 2267               	.LFE38:
 2269               	.global	disk_write
 2271               	disk_write:
 2272               	.LFB39:
 2273               	.LM289:
 2274               	.LVL139:
 2275 0be0 CF92      		push r12
 2276 0be2 DF92      		push r13
 2277 0be4 EF92      		push r14
 2278 0be6 FF92      		push r15
 2279 0be8 0F93      		push r16
 2280               	.LVL140:
 2281 0bea CF93      		push r28
 2282 0bec DF93      		push r29
 2283               	/* prologue: function */
 2284               	/* frame size = 0 */
 2285 0bee EB01      		movw r28,r22
 2286 0bf0 6901      		movw r12,r18
 2287 0bf2 7A01      		movw r14,r20
 2288               	.LM290:
 2289 0bf4 8823      		tst r24
 2290 0bf6 01F0      		breq .+2
 2291 0bf8 00C0      		rjmp .L233
 2292               	.LVL141:
 2293 0bfa 0023      		tst r16
 2294               	.LVL142:
 2295 0bfc 01F4      		brne .+2
 2296 0bfe 00C0      		rjmp .L233
 2297               	.LM291:
 2298 0c00 8091 0000 		lds r24,Stat
 2299               	.LVL143:
 2300 0c04 80FF      		sbrs r24,0
 2301 0c06 00C0      		rjmp .L234
 2302 0c08 03E0      		ldi r16,lo8(3)
 2303               	.LVL144:
 2304 0c0a 00C0      		rjmp .L235
 2305               	.LVL145:
 2306               	.L234:
 2307               	.LM292:
 2308 0c0c 8091 0000 		lds r24,Stat
 2309 0c10 82FF      		sbrs r24,2
 2310 0c12 00C0      		rjmp .L236
 2311 0c14 02E0      		ldi r16,lo8(2)
 2312               	.LVL146:
 2313 0c16 00C0      		rjmp .L235
 2314               	.LVL147:
 2315               	.L236:
 2316               	.LM293:
 2317 0c18 8091 0000 		lds r24,CardType
 2318 0c1c 90E0      		ldi r25,lo8(0)
 2319 0c1e 83FD      		sbrc r24,3
 2320 0c20 00C0      		rjmp .L237
 2321 0c22 79E0      		ldi r23,9
 2322 0c24 CC0C      	1:	lsl r12
 2323 0c26 DD1C      		rol r13
 2324 0c28 EE1C      		rol r14
 2325 0c2a FF1C      		rol r15
 2326 0c2c 7A95      		dec r23
 2327 0c2e 01F4      		brne 1b
 2328               	.LVL148:
 2329               	.L237:
 2330               	.LM294:
 2331 0c30 0130      		cpi r16,lo8(1)
 2332 0c32 01F4      		brne .L238
 2333               	.LM295:
 2334 0c34 88E5      		ldi r24,lo8(88)
 2335 0c36 B701      		movw r22,r14
 2336 0c38 A601      		movw r20,r12
 2337 0c3a 0E94 0000 		call send_cmd
 2338 0c3e 8823      		tst r24
 2339 0c40 01F4      		brne .L239
 2340 0c42 CE01      		movw r24,r28
 2341 0c44 6EEF      		ldi r22,lo8(-2)
 2342 0c46 0E94 0000 		call xmit_datablock
 2343 0c4a 00E0      		ldi r16,lo8(0)
 2344 0c4c 00C0      		rjmp .L250
 2345               	.LVL149:
 2346               	.L238:
 2347               	.LM296:
 2348 0c4e 8670      		andi r24,lo8(6)
 2349 0c50 9070      		andi r25,hi8(6)
 2350 0c52 892B      		or r24,r25
 2351 0c54 01F0      		breq .L241
 2352 0c56 402F      		mov r20,r16
 2353 0c58 50E0      		ldi r21,lo8(0)
 2354               	.LVL150:
 2355 0c5a 60E0      		ldi r22,lo8(0)
 2356 0c5c 70E0      		ldi r23,hi8(0)
 2357               	.LVL151:
 2358 0c5e 87ED      		ldi r24,lo8(-41)
 2359 0c60 0E94 0000 		call send_cmd
 2360               	.LVL152:
 2361               	.L241:
 2362               	.LM297:
 2363 0c64 89E5      		ldi r24,lo8(89)
 2364 0c66 B701      		movw r22,r14
 2365 0c68 A601      		movw r20,r12
 2366 0c6a 0E94 0000 		call send_cmd
 2367 0c6e 8823      		tst r24
 2368 0c70 01F4      		brne .L239
 2369               	.L248:
 2370               	.LM298:
 2371 0c72 CE01      		movw r24,r28
 2372 0c74 6CEF      		ldi r22,lo8(-4)
 2373 0c76 0E94 0000 		call xmit_datablock
 2374 0c7a 8823      		tst r24
 2375 0c7c 01F0      		breq .L242
 2376               	.LM299:
 2377 0c7e 0150      		subi r16,lo8(-(-1))
 2378 0c80 01F0      		breq .L242
 2379               	.LM300:
 2380 0c82 C050      		subi r28,lo8(-(512))
 2381 0c84 DE4F      		sbci r29,hi8(-(512))
 2382 0c86 00C0      		rjmp .L248
 2383               	.L242:
 2384               	.LM301:
 2385 0c88 80E0      		ldi r24,lo8(0)
 2386 0c8a 90E0      		ldi r25,hi8(0)
 2387 0c8c 6DEF      		ldi r22,lo8(-3)
 2388 0c8e 0E94 0000 		call xmit_datablock
 2389               	.L250:
 2390 0c92 8823      		tst r24
 2391 0c94 01F4      		brne .L239
 2392 0c96 01E0      		ldi r16,lo8(1)
 2393               	.L239:
 2394               	.LBB550:
 2395               	.LBB551:
 2396               	.LM302:
 2397 0c98 80E1      		ldi r24,lo8(16)
 2398 0c9a E0E6      		ldi r30,lo8(1632)
 2399 0c9c F6E0      		ldi r31,hi8(1632)
 2400 0c9e 8583      		std Z+5,r24
 2401               	.LBB552:
 2402               	.LBB553:
 2403               	.LM303:
 2404 0ca0 8FEF      		ldi r24,lo8(-1)
 2405 0ca2 E0EC      		ldi r30,lo8(2496)
 2406 0ca4 F9E0      		ldi r31,hi8(2496)
 2407 0ca6 8383      		std Z+3,r24
 2408               	.L244:
 2409               	.LM304:
 2410 0ca8 8091 C209 		lds r24,2498
 2411 0cac 87FF      		sbrs r24,7
 2412 0cae 00C0      		rjmp .L244
 2413               	.LM305:
 2414 0cb0 8091 C309 		lds r24,2499
 2415               	.LBE553:
 2416               	.LBE552:
 2417               	.LBE551:
 2418               	.LBE550:
 2419               	.LM306:
 2420 0cb4 0023      		tst r16
 2421 0cb6 01F0      		breq .L235
 2422 0cb8 01E0      		ldi r16,lo8(1)
 2423               	.LVL153:
 2424 0cba 00C0      		rjmp .L235
 2425               	.LVL154:
 2426               	.L233:
 2427 0cbc 04E0      		ldi r16,lo8(4)
 2428               	.LVL155:
 2429               	.L235:
 2430               	.LM307:
 2431 0cbe 802F      		mov r24,r16
 2432               	.LVL156:
 2433               	/* epilogue start */
 2434 0cc0 DF91      		pop r29
 2435 0cc2 CF91      		pop r28
 2436               	.LVL157:
 2437 0cc4 0F91      		pop r16
 2438 0cc6 FF90      		pop r15
 2439 0cc8 EF90      		pop r14
 2440 0cca DF90      		pop r13
 2441 0ccc CF90      		pop r12
 2442               	.LVL158:
 2443 0cce 0895      		ret
 2444               	.LFE39:
 2446               	.global	disk_ioctl
 2448               	disk_ioctl:
 2449               	.LFB40:
 2450               	.LM308:
 2451               	.LVL159:
 2452 0cd0 FF92      		push r15
 2453 0cd2 0F93      		push r16
 2454 0cd4 1F93      		push r17
 2455 0cd6 DF93      		push r29
 2456 0cd8 CF93      		push r28
 2457 0cda CDB7      		in r28,__SP_L__
 2458 0cdc DEB7      		in r29,__SP_H__
 2459 0cde 6097      		sbiw r28,16
 2460 0ce0 CDBF      		out __SP_L__,r28
 2461 0ce2 DEBF      		out __SP_H__,r29
 2462               	/* prologue: function */
 2463               	/* frame size = 16 */
 2464 0ce4 8A01      		movw r16,r20
 2465               	.LM309:
 2466 0ce6 8823      		tst r24
 2467 0ce8 01F0      		breq .+2
 2468 0cea 00C0      		rjmp .L252
 2469               	.LVL160:
 2470               	.LM310:
 2471 0cec 6430      		cpi r22,lo8(4)
 2472 0cee 01F4      		brne .L253
 2473               	.LM311:
 2474 0cf0 FA01      		movw r30,r20
 2475 0cf2 8081      		ld r24,Z
 2476               	.LVL161:
 2477 0cf4 8130      		cpi r24,lo8(1)
 2478 0cf6 01F0      		breq .L255
 2479               	.LVL162:
 2480 0cf8 8130      		cpi r24,lo8(1)
 2481 0cfa 00F4      		brsh .+2
 2482 0cfc 00C0      		rjmp .L254
 2483 0cfe 8230      		cpi r24,lo8(2)
 2484 0d00 01F0      		breq .+2
 2485 0d02 00C0      		rjmp .L252
 2486 0d04 00C0      		rjmp .L304
 2487               	.L255:
 2488               	.LBB554:
 2489               	.LBB555:
 2490               	.LM312:
 2491 0d06 E0E6      		ldi r30,lo8(1632)
 2492 0d08 F6E0      		ldi r31,hi8(1632)
 2493 0d0a 80EB      		ldi r24,lo8(-80)
 2494 0d0c 8183      		std Z+1,r24
 2495               	.LM313:
 2496 0d0e 88E3      		ldi r24,lo8(56)
 2497 0d10 868B      		std Z+22,r24
 2498               	.LM314:
 2499 0d12 1482      		std Z+4,__zero_reg__
 2500 0d14 8CE2      		ldi r24,lo8(300)
 2501 0d16 91E0      		ldi r25,hi8(300)
 2502               	.LVL163:
 2503               	.LBB556:
 2504               	.LBB557:
 2505               	.LBB558:
 2506               	.LBB559:
 2507               	.LM315:
 2508 0d18 20E7      		ldi r18,lo8(368)
 2509 0d1a 31E0      		ldi r19,hi8(368)
 2510               	.L257:
 2511 0d1c F901      		movw r30,r18
 2512               	.LVL164:
 2513               	/* #APP */
 2514               	 ;  105 "/usr/local/CrossPack-AVR-20100115/lib/gcc/avr/4.3.3/../../../../avr/include/util/delay_bas
 2515 0d1e 3197      		1: sbiw r30,1
 2516 0d20 01F4      		brne 1b
 2517               	 ;  0 "" 2
 2518               	/* #NOAPP */
 2519               	.LBE559:
 2520               	.LBE558:
 2521               	.LM316:
 2522 0d22 0197      		sbiw r24,1
 2523               	.LM317:
 2524 0d24 01F4      		brne .L257
 2525 0d26 00C0      		rjmp .L254
 2526               	.LVL165:
 2527               	.L304:
 2528               	.LBE557:
 2529               	.LBE556:
 2530               	.LBE555:
 2531               	.LBE554:
 2532               	.LM318:
 2533 0d28 81E0      		ldi r24,lo8(1)
 2534 0d2a FA01      		movw r30,r20
 2535 0d2c 8183      		std Z+1,r24
 2536 0d2e 00C0      		rjmp .L254
 2537               	.LVL166:
 2538               	.L253:
 2539               	.LM319:
 2540 0d30 8091 0000 		lds r24,Stat
 2541               	.LVL167:
 2542 0d34 80FF      		sbrs r24,0
 2543 0d36 00C0      		rjmp .L259
 2544 0d38 93E0      		ldi r25,lo8(3)
 2545               	.LVL168:
 2546 0d3a 00C0      		rjmp .L258
 2547               	.LVL169:
 2548               	.L259:
 2549               	.LM320:
 2550 0d3c 6A30      		cpi r22,lo8(10)
 2551 0d3e 01F4      		brne .+2
 2552 0d40 00C0      		rjmp .L265
 2553 0d42 6B30      		cpi r22,lo8(11)
 2554 0d44 00F4      		brsh .L270
 2555 0d46 6130      		cpi r22,lo8(1)
 2556 0d48 01F0      		breq .L262
 2557 0d4a 6130      		cpi r22,lo8(1)
 2558 0d4c 00F0      		brlo .L261
 2559 0d4e 6230      		cpi r22,lo8(2)
 2560 0d50 01F4      		brne .+2
 2561 0d52 00C0      		rjmp .L263
 2562 0d54 6330      		cpi r22,lo8(3)
 2563 0d56 01F4      		brne .L260
 2564 0d58 00C0      		rjmp .L305
 2565               	.L270:
 2566 0d5a 6C30      		cpi r22,lo8(12)
 2567 0d5c 01F4      		brne .+2
 2568 0d5e 00C0      		rjmp .L267
 2569 0d60 6C30      		cpi r22,lo8(12)
 2570 0d62 00F4      		brsh .+2
 2571 0d64 00C0      		rjmp .L266
 2572 0d66 6D30      		cpi r22,lo8(13)
 2573 0d68 01F4      		brne .+2
 2574 0d6a 00C0      		rjmp .L268
 2575 0d6c 6E30      		cpi r22,lo8(14)
 2576 0d6e 01F4      		brne .+2
 2577 0d70 00C0      		rjmp .L269
 2578               	.L260:
 2579 0d72 94E0      		ldi r25,lo8(4)
 2580               	.LVL170:
 2581 0d74 00C0      		rjmp .L271
 2582               	.LVL171:
 2583               	.L261:
 2584               	.LM321:
 2585 0d76 0E94 0000 		call select
 2586               	.LVL172:
 2587 0d7a 8823      		tst r24
 2588 0d7c 01F4      		brne .+2
 2589 0d7e 00C0      		rjmp .L272
 2590               	.LBB560:
 2591               	.LBB561:
 2592               	.LM322:
 2593 0d80 80E1      		ldi r24,lo8(16)
 2594 0d82 E0E6      		ldi r30,lo8(1632)
 2595 0d84 F6E0      		ldi r31,hi8(1632)
 2596 0d86 8583      		std Z+5,r24
 2597               	.LBB562:
 2598               	.LBB563:
 2599               	.LM323:
 2600 0d88 8FEF      		ldi r24,lo8(-1)
 2601 0d8a E0EC      		ldi r30,lo8(2496)
 2602 0d8c F9E0      		ldi r31,hi8(2496)
 2603 0d8e 8383      		std Z+3,r24
 2604               	.L273:
 2605               	.LM324:
 2606 0d90 8091 C209 		lds r24,2498
 2607 0d94 87FF      		sbrs r24,7
 2608 0d96 00C0      		rjmp .L273
 2609               	.LM325:
 2610 0d98 8091 C309 		lds r24,2499
 2611 0d9c 00C0      		rjmp .L297
 2612               	.LVL173:
 2613               	.L262:
 2614               	.LBE563:
 2615               	.LBE562:
 2616               	.LBE561:
 2617               	.LBE560:
 2618               	.LM326:
 2619 0d9e 89E4      		ldi r24,lo8(73)
 2620 0da0 40E0      		ldi r20,lo8(0)
 2621 0da2 50E0      		ldi r21,hi8(0)
 2622 0da4 60E0      		ldi r22,hlo8(0)
 2623 0da6 70E0      		ldi r23,hhi8(0)
 2624 0da8 0E94 0000 		call send_cmd
 2625               	.LVL174:
 2626 0dac 8823      		tst r24
 2627 0dae 01F0      		breq .+2
 2628 0db0 00C0      		rjmp .L272
 2629 0db2 CE01      		movw r24,r28
 2630 0db4 0196      		adiw r24,1
 2631 0db6 60E1      		ldi r22,lo8(16)
 2632 0db8 70E0      		ldi r23,hi8(16)
 2633 0dba 0E94 0000 		call rcvr_datablock
 2634 0dbe 8823      		tst r24
 2635 0dc0 01F4      		brne .+2
 2636 0dc2 00C0      		rjmp .L272
 2637               	.LM327:
 2638 0dc4 8981      		ldd r24,Y+1
 2639 0dc6 8295      		swap r24
 2640 0dc8 8695      		lsr r24
 2641 0dca 8695      		lsr r24
 2642 0dcc 8370      		andi r24,lo8(3)
 2643 0dce 7A85      		ldd r23,Y+10
 2644 0dd0 4985      		ldd r20,Y+9
 2645 0dd2 8130      		cpi r24,lo8(1)
 2646 0dd4 01F4      		brne .L274
 2647               	.LM328:
 2648 0dd6 872F      		mov r24,r23
 2649 0dd8 90E0      		ldi r25,lo8(0)
 2650 0dda 0196      		adiw r24,1
 2651 0ddc 342F      		mov r19,r20
 2652 0dde 20E0      		ldi r18,lo8(0)
 2653 0de0 820F      		add r24,r18
 2654 0de2 931F      		adc r25,r19
 2655 0de4 A0E0      		ldi r26,lo8(0)
 2656 0de6 B0E0      		ldi r27,hi8(0)
 2657 0de8 2AE0      		ldi r18,10
 2658 0dea 880F      	1:	lsl r24
 2659 0dec 991F      		rol r25
 2660 0dee AA1F      		rol r26
 2661 0df0 BB1F      		rol r27
 2662 0df2 2A95      		dec r18
 2663 0df4 01F4      		brne 1b
 2664 0df6 00C0      		rjmp .L299
 2665               	.L274:
 2666               	.LM329:
 2667 0df8 4295      		swap r20
 2668 0dfa 4695      		lsr r20
 2669 0dfc 4695      		lsr r20
 2670 0dfe 4370      		andi r20,lo8(3)
 2671 0e00 2885      		ldd r18,Y+8
 2672 0e02 30E0      		ldi r19,lo8(0)
 2673 0e04 220F      		lsl r18
 2674 0e06 331F      		rol r19
 2675 0e08 220F      		lsl r18
 2676 0e0a 331F      		rol r19
 2677 0e0c 240F      		add r18,r20
 2678 0e0e 311D      		adc r19,__zero_reg__
 2679 0e10 2F5F      		subi r18,lo8(-(1))
 2680 0e12 3F4F      		sbci r19,hi8(-(1))
 2681 0e14 8F81      		ldd r24,Y+7
 2682 0e16 90E0      		ldi r25,lo8(0)
 2683 0e18 8370      		andi r24,lo8(3)
 2684 0e1a 9070      		andi r25,hi8(3)
 2685 0e1c 982F      		mov r25,r24
 2686 0e1e 8827      		clr r24
 2687 0e20 990F      		lsl r25
 2688 0e22 990F      		lsl r25
 2689 0e24 280F      		add r18,r24
 2690 0e26 391F      		adc r19,r25
 2691 0e28 40E0      		ldi r20,lo8(0)
 2692 0e2a 50E0      		ldi r21,hi8(0)
 2693 0e2c 8E81      		ldd r24,Y+6
 2694 0e2e 8F70      		andi r24,lo8(15)
 2695 0e30 6B85      		ldd r22,Y+11
 2696 0e32 661F      		rol r22
 2697 0e34 6627      		clr r22
 2698 0e36 661F      		rol r22
 2699 0e38 860F      		add r24,r22
 2700 0e3a 8E5F      		subi r24,lo8(-(2))
 2701 0e3c 7370      		andi r23,lo8(3)
 2702 0e3e 770F      		lsl r23
 2703 0e40 870F      		add r24,r23
 2704 0e42 90E0      		ldi r25,lo8(0)
 2705 0e44 0997      		sbiw r24,9
 2706 0e46 00C0      		rjmp 2f
 2707 0e48 220F      	1:	lsl r18
 2708 0e4a 331F      		rol r19
 2709 0e4c 441F      		rol r20
 2710 0e4e 551F      		rol r21
 2711 0e50 8A95      	2:	dec r24
 2712 0e52 02F4      		brpl 1b
 2713 0e54 F801      		movw r30,r16
 2714 0e56 2083      		st Z,r18
 2715 0e58 3183      		std Z+1,r19
 2716 0e5a 4283      		std Z+2,r20
 2717 0e5c 5383      		std Z+3,r21
 2718 0e5e 00C0      		rjmp .L297
 2719               	.LVL175:
 2720               	.L263:
 2721               	.LM330:
 2722 0e60 80E0      		ldi r24,lo8(512)
 2723 0e62 92E0      		ldi r25,hi8(512)
 2724 0e64 FA01      		movw r30,r20
 2725 0e66 8083      		st Z,r24
 2726 0e68 9183      		std Z+1,r25
 2727 0e6a 00C0      		rjmp .L297
 2728               	.L305:
 2729               	.LM331:
 2730 0e6c 8091 0000 		lds r24,CardType
 2731 0e70 F82E      		mov r15,r24
 2732 0e72 82FF      		sbrs r24,2
 2733 0e74 00C0      		rjmp .L275
 2734               	.LM332:
 2735 0e76 8DEC      		ldi r24,lo8(-51)
 2736 0e78 40E0      		ldi r20,lo8(0)
 2737 0e7a 50E0      		ldi r21,hi8(0)
 2738 0e7c 60E0      		ldi r22,hlo8(0)
 2739 0e7e 70E0      		ldi r23,hhi8(0)
 2740 0e80 0E94 0000 		call send_cmd
 2741               	.LVL176:
 2742 0e84 8823      		tst r24
 2743 0e86 01F0      		breq .+2
 2744 0e88 00C0      		rjmp .L272
 2745               	.LBB564:
 2746               	.LBB565:
 2747               	.LM333:
 2748 0e8a 8FEF      		ldi r24,lo8(-1)
 2749 0e8c E0EC      		ldi r30,lo8(2496)
 2750 0e8e F9E0      		ldi r31,hi8(2496)
 2751 0e90 8383      		std Z+3,r24
 2752               	.L276:
 2753               	.LM334:
 2754 0e92 8091 C209 		lds r24,2498
 2755 0e96 87FF      		sbrs r24,7
 2756 0e98 00C0      		rjmp .L276
 2757               	.LM335:
 2758 0e9a 8091 C309 		lds r24,2499
 2759               	.LBE565:
 2760               	.LBE564:
 2761               	.LM336:
 2762 0e9e CE01      		movw r24,r28
 2763 0ea0 0196      		adiw r24,1
 2764 0ea2 60E1      		ldi r22,lo8(16)
 2765 0ea4 70E0      		ldi r23,hi8(16)
 2766 0ea6 0E94 0000 		call rcvr_datablock
 2767 0eaa 8823      		tst r24
 2768 0eac 01F4      		brne .+2
 2769 0eae 00C0      		rjmp .L272
 2770 0eb0 90E3      		ldi r25,lo8(48)
 2771               	.LVL177:
 2772               	.LBB566:
 2773               	.LBB567:
 2774               	.LM337:
 2775 0eb2 E0EC      		ldi r30,lo8(2496)
 2776 0eb4 F9E0      		ldi r31,hi8(2496)
 2777 0eb6 2FEF      		ldi r18,lo8(-1)
 2778               	.L278:
 2779 0eb8 2383      		std Z+3,r18
 2780               	.L277:
 2781               	.LM338:
 2782 0eba 8091 C209 		lds r24,2498
 2783 0ebe 87FF      		sbrs r24,7
 2784 0ec0 00C0      		rjmp .L277
 2785               	.LM339:
 2786 0ec2 8091 C309 		lds r24,2499
 2787               	.LBE567:
 2788               	.LBE566:
 2789               	.LM340:
 2790 0ec6 9150      		subi r25,lo8(-(-1))
 2791 0ec8 01F4      		brne .L278
 2792               	.LM341:
 2793 0eca 2B85      		ldd r18,Y+11
 2794 0ecc 2295      		swap r18
 2795 0ece 2F70      		andi r18,lo8(15)
 2796 0ed0 80E1      		ldi r24,lo8(16)
 2797 0ed2 90E0      		ldi r25,hi8(16)
 2798 0ed4 A0E0      		ldi r26,hlo8(16)
 2799 0ed6 B0E0      		ldi r27,hhi8(16)
 2800 0ed8 00C0      		rjmp 2f
 2801 0eda 880F      	1:	lsl r24
 2802 0edc 991F      		rol r25
 2803 0ede AA1F      		rol r26
 2804 0ee0 BB1F      		rol r27
 2805 0ee2 2A95      	2:	dec r18
 2806 0ee4 02F4      		brpl 1b
 2807 0ee6 00C0      		rjmp .L299
 2808               	.LVL178:
 2809               	.L275:
 2810               	.LM342:
 2811 0ee8 89E4      		ldi r24,lo8(73)
 2812 0eea 40E0      		ldi r20,lo8(0)
 2813 0eec 50E0      		ldi r21,hi8(0)
 2814 0eee 60E0      		ldi r22,hlo8(0)
 2815 0ef0 70E0      		ldi r23,hhi8(0)
 2816 0ef2 0E94 0000 		call send_cmd
 2817               	.LVL179:
 2818 0ef6 8823      		tst r24
 2819 0ef8 01F0      		breq .+2
 2820 0efa 00C0      		rjmp .L272
 2821 0efc CE01      		movw r24,r28
 2822 0efe 0196      		adiw r24,1
 2823 0f00 60E1      		ldi r22,lo8(16)
 2824 0f02 70E0      		ldi r23,hi8(16)
 2825 0f04 0E94 0000 		call rcvr_datablock
 2826 0f08 8823      		tst r24
 2827 0f0a 01F4      		brne .+2
 2828 0f0c 00C0      		rjmp .L272
 2829 0f0e 4B85      		ldd r20,Y+11
 2830 0f10 8C85      		ldd r24,Y+12
 2831               	.LM343:
 2832 0f12 F1FE      		sbrs r15,1
 2833 0f14 00C0      		rjmp .L279
 2834               	.LM344:
 2835 0f16 881F      		rol r24
 2836 0f18 8827      		clr r24
 2837 0f1a 881F      		rol r24
 2838 0f1c 90E0      		ldi r25,lo8(0)
 2839 0f1e 0196      		adiw r24,1
 2840 0f20 242F      		mov r18,r20
 2841 0f22 30E0      		ldi r19,lo8(0)
 2842 0f24 2F73      		andi r18,lo8(63)
 2843 0f26 3070      		andi r19,hi8(63)
 2844 0f28 220F      		lsl r18
 2845 0f2a 331F      		rol r19
 2846 0f2c 820F      		add r24,r18
 2847 0f2e 931F      		adc r25,r19
 2848 0f30 2E85      		ldd r18,Y+14
 2849 0f32 2295      		swap r18
 2850 0f34 2695      		lsr r18
 2851 0f36 2695      		lsr r18
 2852 0f38 2370      		andi r18,lo8(3)
 2853 0f3a 30E0      		ldi r19,lo8(0)
 2854 0f3c 2150      		subi r18,lo8(-(-1))
 2855 0f3e 3040      		sbci r19,hi8(-(-1))
 2856 0f40 00C0      		rjmp 2f
 2857 0f42 880F      	1:	lsl r24
 2858 0f44 991F      		rol r25
 2859 0f46 2A95      	2:	dec r18
 2860 0f48 02F4      		brpl 1b
 2861 0f4a 00C0      		rjmp .L301
 2862               	.L279:
 2863               	.LM345:
 2864 0f4c 282F      		mov r18,r24
 2865 0f4e 30E0      		ldi r19,lo8(0)
 2866 0f50 2370      		andi r18,lo8(3)
 2867 0f52 3070      		andi r19,hi8(3)
 2868 0f54 F3E0      		ldi r31,3
 2869 0f56 220F      	1:	lsl r18
 2870 0f58 331F      		rol r19
 2871 0f5a FA95      		dec r31
 2872 0f5c 01F4      		brne 1b
 2873 0f5e 8295      		swap r24
 2874 0f60 8695      		lsr r24
 2875 0f62 8770      		andi r24,lo8(7)
 2876 0f64 280F      		add r18,r24
 2877 0f66 311D      		adc r19,__zero_reg__
 2878 0f68 2F5F      		subi r18,lo8(-(1))
 2879 0f6a 3F4F      		sbci r19,hi8(-(1))
 2880 0f6c 842F      		mov r24,r20
 2881 0f6e 90E0      		ldi r25,lo8(0)
 2882 0f70 8C77      		andi r24,lo8(124)
 2883 0f72 9070      		andi r25,hi8(124)
 2884 0f74 9595      		asr r25
 2885 0f76 8795      		ror r24
 2886 0f78 9595      		asr r25
 2887 0f7a 8795      		ror r24
 2888 0f7c 0196      		adiw r24,1
 2889 0f7e AC01      		movw r20,r24
 2890 0f80 249F      		mul r18,r20
 2891 0f82 C001      		movw r24,r0
 2892 0f84 259F      		mul r18,r21
 2893 0f86 900D      		add r25,r0
 2894 0f88 349F      		mul r19,r20
 2895 0f8a 900D      		add r25,r0
 2896 0f8c 1124      		clr r1
 2897               	.L301:
 2898 0f8e A0E0      		ldi r26,lo8(0)
 2899 0f90 B0E0      		ldi r27,hi8(0)
 2900               	.LVL180:
 2901               	.L299:
 2902 0f92 F801      		movw r30,r16
 2903 0f94 8083      		st Z,r24
 2904 0f96 9183      		std Z+1,r25
 2905 0f98 A283      		std Z+2,r26
 2906 0f9a B383      		std Z+3,r27
 2907               	.LVL181:
 2908               	.L297:
 2909 0f9c 90E0      		ldi r25,lo8(0)
 2910               	.LVL182:
 2911 0f9e 00C0      		rjmp .L271
 2912               	.LVL183:
 2913               	.L265:
 2914               	.LM346:
 2915 0fa0 8091 0000 		lds r24,CardType
 2916 0fa4 FA01      		movw r30,r20
 2917 0fa6 8083      		st Z,r24
 2918 0fa8 00C0      		rjmp .L297
 2919               	.L266:
 2920               	.LM347:
 2921 0faa 89E4      		ldi r24,lo8(73)
 2922 0fac 00C0      		rjmp .L303
 2923               	.L267:
 2924               	.LM348:
 2925 0fae 8AE4      		ldi r24,lo8(74)
 2926               	.L303:
 2927 0fb0 40E0      		ldi r20,lo8(0)
 2928 0fb2 50E0      		ldi r21,hi8(0)
 2929 0fb4 60E0      		ldi r22,hlo8(0)
 2930 0fb6 70E0      		ldi r23,hhi8(0)
 2931 0fb8 0E94 0000 		call send_cmd
 2932               	.LVL184:
 2933 0fbc 8823      		tst r24
 2934 0fbe 01F4      		brne .L272
 2935 0fc0 C801      		movw r24,r16
 2936 0fc2 60E1      		ldi r22,lo8(16)
 2937 0fc4 70E0      		ldi r23,hi8(16)
 2938 0fc6 00C0      		rjmp .L298
 2939               	.LVL185:
 2940               	.L268:
 2941               	.LM349:
 2942 0fc8 8AE7      		ldi r24,lo8(122)
 2943 0fca 40E0      		ldi r20,lo8(0)
 2944 0fcc 50E0      		ldi r21,hi8(0)
 2945 0fce 60E0      		ldi r22,hlo8(0)
 2946 0fd0 70E0      		ldi r23,hhi8(0)
 2947 0fd2 0E94 0000 		call send_cmd
 2948               	.LVL186:
 2949 0fd6 8823      		tst r24
 2950 0fd8 01F4      		brne .L272
 2951 0fda F801      		movw r30,r16
 2952               	.LVL187:
 2953               	.LBB568:
 2954               	.LBB569:
 2955               	.LM350:
 2956 0fdc A0EC      		ldi r26,lo8(2496)
 2957 0fde B9E0      		ldi r27,hi8(2496)
 2958 0fe0 9FEF      		ldi r25,lo8(-1)
 2959               	.LBE569:
 2960               	.LBE568:
 2961               	.LM351:
 2962 0fe2 9801      		movw r18,r16
 2963 0fe4 2D5F      		subi r18,lo8(-(3))
 2964 0fe6 3F4F      		sbci r19,hi8(-(3))
 2965               	.L284:
 2966               	.LBB571:
 2967               	.LBB570:
 2968               	.LM352:
 2969 0fe8 1396      		adiw r26,3
 2970 0fea 9C93      		st X,r25
 2971 0fec 1397      		sbiw r26,3
 2972               	.LVL188:
 2973               	.L282:
 2974               	.LM353:
 2975 0fee 8091 C209 		lds r24,2498
 2976 0ff2 87FF      		sbrs r24,7
 2977 0ff4 00C0      		rjmp .L282
 2978               	.LM354:
 2979 0ff6 8091 C309 		lds r24,2499
 2980               	.LBE570:
 2981               	.LBE571:
 2982               	.LM355:
 2983 0ffa 8083      		st Z,r24
 2984 0ffc E217      		cp r30,r18
 2985 0ffe F307      		cpc r31,r19
 2986 1000 01F0      		breq .L297
 2987               	.LVL189:
 2988               	.L283:
 2989 1002 3196      		adiw r30,1
 2990 1004 00C0      		rjmp .L284
 2991               	.LVL190:
 2992               	.L269:
 2993               	.LM356:
 2994 1006 8DEC      		ldi r24,lo8(-51)
 2995 1008 40E0      		ldi r20,lo8(0)
 2996 100a 50E0      		ldi r21,hi8(0)
 2997 100c 60E0      		ldi r22,hlo8(0)
 2998 100e 70E0      		ldi r23,hhi8(0)
 2999 1010 0E94 0000 		call send_cmd
 3000               	.LVL191:
 3001 1014 8823      		tst r24
 3002 1016 01F4      		brne .L272
 3003               	.LBB572:
 3004               	.LBB573:
 3005               	.LM357:
 3006 1018 8FEF      		ldi r24,lo8(-1)
 3007 101a E0EC      		ldi r30,lo8(2496)
 3008 101c F9E0      		ldi r31,hi8(2496)
 3009 101e 8383      		std Z+3,r24
 3010               	.L285:
 3011               	.LM358:
 3012 1020 8091 C209 		lds r24,2498
 3013 1024 87FF      		sbrs r24,7
 3014 1026 00C0      		rjmp .L285
 3015               	.LM359:
 3016 1028 8091 C309 		lds r24,2499
 3017               	.LBE573:
 3018               	.LBE572:
 3019               	.LM360:
 3020 102c C801      		movw r24,r16
 3021 102e 60E4      		ldi r22,lo8(64)
 3022 1030 70E0      		ldi r23,hi8(64)
 3023               	.L298:
 3024 1032 0E94 0000 		call rcvr_datablock
 3025 1036 90E0      		ldi r25,lo8(0)
 3026               	.LVL192:
 3027 1038 8823      		tst r24
 3028 103a 01F4      		brne .L271
 3029               	.L272:
 3030 103c 91E0      		ldi r25,lo8(1)
 3031               	.LVL193:
 3032               	.L271:
 3033               	.LBB574:
 3034               	.LBB575:
 3035               	.LM361:
 3036 103e 80E1      		ldi r24,lo8(16)
 3037 1040 E0E6      		ldi r30,lo8(1632)
 3038 1042 F6E0      		ldi r31,hi8(1632)
 3039               	.LVL194:
 3040 1044 8583      		std Z+5,r24
 3041               	.LBB576:
 3042               	.LBB577:
 3043               	.LM362:
 3044 1046 8FEF      		ldi r24,lo8(-1)
 3045 1048 E0EC      		ldi r30,lo8(2496)
 3046 104a F9E0      		ldi r31,hi8(2496)
 3047 104c 8383      		std Z+3,r24
 3048               	.L287:
 3049               	.LM363:
 3050 104e 8091 C209 		lds r24,2498
 3051 1052 87FF      		sbrs r24,7
 3052 1054 00C0      		rjmp .L287
 3053               	.LM364:
 3054 1056 8091 C309 		lds r24,2499
 3055 105a 00C0      		rjmp .L258
 3056               	.LVL195:
 3057               	.L252:
 3058 105c 94E0      		ldi r25,lo8(4)
 3059               	.LVL196:
 3060 105e 00C0      		rjmp .L258
 3061               	.LVL197:
 3062               	.L254:
 3063 1060 90E0      		ldi r25,lo8(0)
 3064               	.LVL198:
 3065               	.L258:
 3066               	.LBE577:
 3067               	.LBE576:
 3068               	.LBE575:
 3069               	.LBE574:
 3070               	.LM365:
 3071 1062 892F      		mov r24,r25
 3072               	.LVL199:
 3073               	/* epilogue start */
 3074 1064 6096      		adiw r28,16
 3075 1066 CDBF      		out __SP_L__,r28
 3076 1068 DEBF      		out __SP_H__,r29
 3077 106a CF91      		pop r28
 3078 106c DF91      		pop r29
 3079 106e 1F91      		pop r17
 3080 1070 0F91      		pop r16
 3081               	.LVL200:
 3082 1072 FF90      		pop r15
 3083 1074 0895      		ret
 3084               	.LFE40:
 3086               	.global	disk_timerproc
 3088               	disk_timerproc:
 3089               	.LFB41:
 3090               	.LM366:
 3091               	/* prologue: function */
 3092               	/* frame size = 0 */
 3093               	.LM367:
 3094 1076 8091 0000 		lds r24,Timer1
 3095               	.LVL201:
 3096               	.LM368:
 3097 107a 8823      		tst r24
 3098 107c 01F0      		breq .L307
 3099 107e 8150      		subi r24,lo8(-(-1))
 3100 1080 8093 0000 		sts Timer1,r24
 3101               	.L307:
 3102               	.LM369:
 3103 1084 8091 0000 		lds r24,Timer2
 3104               	.LVL202:
 3105               	.LM370:
 3106 1088 8823      		tst r24
 3107 108a 01F0      		breq .L308
 3108 108c 8150      		subi r24,lo8(-(-1))
 3109 108e 8093 0000 		sts Timer2,r24
 3110               	.L308:
 3111               	.LM371:
 3112 1092 8091 0000 		lds r24,Stat
 3113               	.LVL203:
 3114               	.LM372:
 3115 1096 897F      		andi r24,lo8(-7)
 3116               	.LM373:
 3117 1098 8093 0000 		sts Stat,r24
 3118               	/* epilogue start */
 3119               	.LM374:
 3120 109c 0895      		ret
 3121               	.LFE41:
 3123               	.global	get_fattime
 3125               	get_fattime:
 3126               	.LFB42:
 3127               	.LM375:
 3128 109e EF92      		push r14
 3129 10a0 FF92      		push r15
 3130 10a2 0F93      		push r16
 3131 10a4 1F93      		push r17
 3132 10a6 DF93      		push r29
 3133 10a8 CF93      		push r28
 3134 10aa CDB7      		in r28,__SP_L__
 3135 10ac DEB7      		in r29,__SP_H__
 3136 10ae 2897      		sbiw r28,8
 3137 10b0 CDBF      		out __SP_L__,r28
 3138 10b2 DEBF      		out __SP_H__,r29
 3139               	/* prologue: function */
 3140               	/* frame size = 8 */
 3141               	.LM376:
 3142 10b4 6091 0000 		lds r22,UNIX_Time
 3143 10b8 7091 0000 		lds r23,(UNIX_Time)+1
 3144 10bc 8091 0000 		lds r24,(UNIX_Time)+2
 3145 10c0 9091 0000 		lds r25,(UNIX_Time)+3
 3146 10c4 6054      		subi r22,lo8(-(-14400))
 3147 10c6 7843      		sbci r23,hi8(-(-14400))
 3148 10c8 8040      		sbci r24,hlo8(-(-14400))
 3149 10ca 9040      		sbci r25,hhi8(-(-14400))
 3150 10cc AE01      		movw r20,r28
 3151 10ce 4F5F      		subi r20,lo8(-(1))
 3152 10d0 5F4F      		sbci r21,hi8(-(1))
 3153 10d2 0E94 0000 		call Time_UTCSecsToTime
 3154               	.LM377:
 3155 10d6 8885      		ldd r24,Y+8
 3156 10d8 90E0      		ldi r25,lo8(0)
 3157 10da 0A97      		sbiw r24,10
 3158 10dc 7C01      		movw r14,r24
 3159 10de 0027      		clr r16
 3160 10e0 F7FC      		sbrc r15,7
 3161 10e2 0095      		com r16
 3162 10e4 102F      		mov r17,r16
 3163 10e6 A9E1      		ldi r26,25
 3164 10e8 EE0C      	1:	lsl r14
 3165 10ea FF1C      		rol r15
 3166 10ec 001F      		rol r16
 3167 10ee 111F      		rol r17
 3168 10f0 AA95      		dec r26
 3169 10f2 01F4      		brne 1b
 3170               	.LM378:
 3171 10f4 2E81      		ldd r18,Y+6
 3172 10f6 30E0      		ldi r19,lo8(0)
 3173 10f8 40E0      		ldi r20,lo8(0)
 3174 10fa 50E0      		ldi r21,hi8(0)
 3175 10fc A901      		movw r20,r18
 3176 10fe 3327      		clr r19
 3177 1100 2227      		clr r18
 3178 1102 8F81      		ldd r24,Y+7
 3179 1104 90E0      		ldi r25,lo8(0)
 3180 1106 A0E0      		ldi r26,lo8(0)
 3181 1108 B0E0      		ldi r27,hi8(0)
 3182 110a E5E1      		ldi r30,21
 3183 110c 880F      	1:	lsl r24
 3184 110e 991F      		rol r25
 3185 1110 AA1F      		rol r26
 3186 1112 BB1F      		rol r27
 3187 1114 EA95      		dec r30
 3188 1116 01F4      		brne 1b
 3189 1118 282B      		or r18,r24
 3190 111a 392B      		or r19,r25
 3191 111c 4A2B      		or r20,r26
 3192 111e 5B2B      		or r21,r27
 3193               	.LM379:
 3194 1120 8C81      		ldd r24,Y+4
 3195 1122 90E0      		ldi r25,lo8(0)
 3196 1124 A0E0      		ldi r26,lo8(0)
 3197 1126 B0E0      		ldi r27,hi8(0)
 3198 1128 7BE0      		ldi r23,11
 3199 112a 880F      	1:	lsl r24
 3200 112c 991F      		rol r25
 3201 112e AA1F      		rol r26
 3202 1130 BB1F      		rol r27
 3203 1132 7A95      		dec r23
 3204 1134 01F4      		brne 1b
 3205 1136 282B      		or r18,r24
 3206 1138 392B      		or r19,r25
 3207 113a 4A2B      		or r20,r26
 3208 113c 5B2B      		or r21,r27
 3209               	.LM380:
 3210 113e 8B81      		ldd r24,Y+3
 3211 1140 90E0      		ldi r25,lo8(0)
 3212 1142 A0E0      		ldi r26,lo8(0)
 3213 1144 B0E0      		ldi r27,hi8(0)
 3214 1146 65E0      		ldi r22,5
 3215 1148 880F      	1:	lsl r24
 3216 114a 991F      		rol r25
 3217 114c AA1F      		rol r26
 3218 114e BB1F      		rol r27
 3219 1150 6A95      		dec r22
 3220 1152 01F4      		brne 1b
 3221 1154 282B      		or r18,r24
 3222 1156 392B      		or r19,r25
 3223 1158 4A2B      		or r20,r26
 3224 115a 5B2B      		or r21,r27
 3225               	.LM381:
 3226 115c 8A81      		ldd r24,Y+2
 3227 115e 8695      		lsr r24
 3228 1160 90E0      		ldi r25,lo8(0)
 3229 1162 A0E0      		ldi r26,lo8(0)
 3230 1164 B0E0      		ldi r27,hi8(0)
 3231 1166 282B      		or r18,r24
 3232 1168 392B      		or r19,r25
 3233 116a 4A2B      		or r20,r26
 3234 116c 5B2B      		or r21,r27
 3235 116e 2E29      		or r18,r14
 3236 1170 3F29      		or r19,r15
 3237 1172 402B      		or r20,r16
 3238 1174 512B      		or r21,r17
 3239               	.LM382:
 3240 1176 B901      		movw r22,r18
 3241 1178 CA01      		movw r24,r20
 3242               	/* epilogue start */
 3243 117a 2896      		adiw r28,8
 3244 117c CDBF      		out __SP_L__,r28
 3245 117e DEBF      		out __SP_H__,r29
 3246 1180 CF91      		pop r28
 3247 1182 DF91      		pop r29
 3248 1184 1F91      		pop r17
 3249 1186 0F91      		pop r16
 3250 1188 FF90      		pop r15
 3251 118a EF90      		pop r14
 3252 118c 0895      		ret
 3253               	.LFE42:
 3256               	move_window:
 3257               	.LFB47:
 3258               	.LM383:
 3259               	.LVL204:
 3260 118e 6F92      		push r6
 3261 1190 7F92      		push r7
 3262 1192 8F92      		push r8
 3263 1194 9F92      		push r9
 3264 1196 AF92      		push r10
 3265 1198 BF92      		push r11
 3266 119a CF92      		push r12
 3267 119c DF92      		push r13
 3268 119e EF92      		push r14
 3269 11a0 FF92      		push r15
 3270 11a2 0F93      		push r16
 3271 11a4 1F93      		push r17
 3272 11a6 CF93      		push r28
 3273 11a8 DF93      		push r29
 3274               	/* prologue: function */
 3275               	/* frame size = 0 */
 3276 11aa EC01      		movw r28,r24
 3277 11ac 4A01      		movw r8,r20
 3278 11ae 5B01      		movw r10,r22
 3279               	.LM384:
 3280 11b0 CAA4      		ldd r12,Y+42
 3281 11b2 DBA4      		ldd r13,Y+43
 3282 11b4 ECA4      		ldd r14,Y+44
 3283 11b6 FDA4      		ldd r15,Y+45
 3284               	.LVL205:
 3285               	.LM385:
 3286 11b8 C416      		cp r12,r20
 3287 11ba D506      		cpc r13,r21
 3288 11bc E606      		cpc r14,r22
 3289 11be F706      		cpc r15,r23
 3290 11c0 01F4      		brne .+2
 3291 11c2 00C0      		rjmp .L313
 3292               	.LVL206:
 3293               	.LM386:
 3294 11c4 8C81      		ldd r24,Y+4
 3295 11c6 8823      		tst r24
 3296 11c8 01F0      		breq .L314
 3297               	.LM387:
 3298 11ca BEE2      		ldi r27,lo8(46)
 3299 11cc 6B2E      		mov r6,r27
 3300 11ce 712C      		mov r7,__zero_reg__
 3301 11d0 6C0E      		add r6,r28
 3302 11d2 7D1E      		adc r7,r29
 3303 11d4 8981      		ldd r24,Y+1
 3304 11d6 B301      		movw r22,r6
 3305 11d8 A701      		movw r20,r14
 3306 11da 9601      		movw r18,r12
 3307 11dc 01E0      		ldi r16,lo8(1)
 3308 11de 0E94 0000 		call disk_write
 3309               	.LVL207:
 3310 11e2 8823      		tst r24
 3311 11e4 01F4      		brne .L315
 3312               	.LM388:
 3313 11e6 1C82      		std Y+4,__zero_reg__
 3314               	.LM389:
 3315 11e8 8E89      		ldd r24,Y+22
 3316 11ea 9F89      		ldd r25,Y+23
 3317 11ec A88D      		ldd r26,Y+24
 3318 11ee B98D      		ldd r27,Y+25
 3319 11f0 2E8D      		ldd r18,Y+30
 3320 11f2 3F8D      		ldd r19,Y+31
 3321 11f4 48A1      		ldd r20,Y+32
 3322 11f6 59A1      		ldd r21,Y+33
 3323 11f8 820F      		add r24,r18
 3324 11fa 931F      		adc r25,r19
 3325 11fc A41F      		adc r26,r20
 3326 11fe B51F      		adc r27,r21
 3327 1200 C816      		cp r12,r24
 3328 1202 D906      		cpc r13,r25
 3329 1204 EA06      		cpc r14,r26
 3330 1206 FB06      		cpc r15,r27
 3331 1208 00F4      		brsh .L314
 3332               	.LBB578:
 3333               	.LM390:
 3334 120a 1B81      		ldd r17,Y+3
 3335               	.LVL208:
 3336 120c 00C0      		rjmp .L316
 3337               	.L317:
 3338               	.LM391:
 3339 120e 8E89      		ldd r24,Y+22
 3340 1210 9F89      		ldd r25,Y+23
 3341 1212 A88D      		ldd r26,Y+24
 3342 1214 B98D      		ldd r27,Y+25
 3343 1216 C80E      		add r12,r24
 3344 1218 D91E      		adc r13,r25
 3345 121a EA1E      		adc r14,r26
 3346 121c FB1E      		adc r15,r27
 3347               	.LM392:
 3348 121e 8981      		ldd r24,Y+1
 3349 1220 B301      		movw r22,r6
 3350 1222 A701      		movw r20,r14
 3351 1224 9601      		movw r18,r12
 3352 1226 01E0      		ldi r16,lo8(1)
 3353 1228 0E94 0000 		call disk_write
 3354               	.LM393:
 3355 122c 1150      		subi r17,lo8(-(-1))
 3356               	.L316:
 3357 122e 1230      		cpi r17,lo8(2)
 3358 1230 00F4      		brsh .L317
 3359               	.LVL209:
 3360               	.L314:
 3361               	.LBE578:
 3362               	.LM394:
 3363 1232 8114      		cp r8,__zero_reg__
 3364 1234 9104      		cpc r9,__zero_reg__
 3365 1236 A104      		cpc r10,__zero_reg__
 3366 1238 B104      		cpc r11,__zero_reg__
 3367 123a 01F0      		breq .L313
 3368               	.LM395:
 3369 123c BE01      		movw r22,r28
 3370 123e 625D      		subi r22,lo8(-(46))
 3371 1240 7F4F      		sbci r23,hi8(-(46))
 3372 1242 8981      		ldd r24,Y+1
 3373 1244 A501      		movw r20,r10
 3374 1246 9401      		movw r18,r8
 3375 1248 01E0      		ldi r16,lo8(1)
 3376 124a 0E94 0000 		call disk_read
 3377 124e 8823      		tst r24
 3378 1250 01F4      		brne .L315
 3379               	.LM396:
 3380 1252 8AA6      		std Y+42,r8
 3381 1254 9BA6      		std Y+43,r9
 3382 1256 ACA6      		std Y+44,r10
 3383 1258 BDA6      		std Y+45,r11
 3384 125a 00C0      		rjmp .L318
 3385               	.L315:
 3386 125c 81E0      		ldi r24,lo8(1)
 3387 125e 00C0      		rjmp .L318
 3388               	.LVL210:
 3389               	.L313:
 3390 1260 80E0      		ldi r24,lo8(0)
 3391               	.LVL211:
 3392               	.L318:
 3393               	/* epilogue start */
 3394               	.LM397:
 3395 1262 DF91      		pop r29
 3396 1264 CF91      		pop r28
 3397               	.LVL212:
 3398 1266 1F91      		pop r17
 3399               	.LVL213:
 3400 1268 0F91      		pop r16
 3401 126a FF90      		pop r15
 3402 126c EF90      		pop r14
 3403 126e DF90      		pop r13
 3404 1270 CF90      		pop r12
 3405               	.LVL214:
 3406 1272 BF90      		pop r11
 3407 1274 AF90      		pop r10
 3408 1276 9F90      		pop r9
 3409 1278 8F90      		pop r8
 3410               	.LVL215:
 3411 127a 7F90      		pop r7
 3412 127c 6F90      		pop r6
 3413 127e 0895      		ret
 3414               	.LFE47:
 3417               	sync:
 3418               	.LFB48:
 3419               	.LM398:
 3420               	.LVL216:
 3421 1280 0F93      		push r16
 3422 1282 CF93      		push r28
 3423 1284 DF93      		push r29
 3424               	/* prologue: function */
 3425               	/* frame size = 0 */
 3426 1286 EC01      		movw r28,r24
 3427               	.LM399:
 3428 1288 40E0      		ldi r20,lo8(0)
 3429 128a 50E0      		ldi r21,hi8(0)
 3430 128c 60E0      		ldi r22,hlo8(0)
 3431 128e 70E0      		ldi r23,hhi8(0)
 3432 1290 0E94 0000 		call move_window
 3433               	.LVL217:
 3434               	.LM400:
 3435 1294 8823      		tst r24
 3436               	.LVL218:
 3437 1296 01F0      		breq .+2
 3438 1298 00C0      		rjmp .L321
 3439               	.LM401:
 3440 129a 8881      		ld r24,Y
 3441               	.LVL219:
 3442 129c 8330      		cpi r24,lo8(3)
 3443 129e 01F0      		breq .+2
 3444 12a0 00C0      		rjmp .L322
 3445 12a2 8D81      		ldd r24,Y+5
 3446 12a4 8823      		tst r24
 3447 12a6 01F4      		brne .+2
 3448 12a8 00C0      		rjmp .L322
 3449               	.LM402:
 3450 12aa 1AA6      		std Y+42,__zero_reg__
 3451 12ac 1BA6      		std Y+43,__zero_reg__
 3452 12ae 1CA6      		std Y+44,__zero_reg__
 3453 12b0 1DA6      		std Y+45,__zero_reg__
 3454               	.LBB579:
 3455               	.LBB580:
 3456               	.LM403:
 3457 12b2 BE01      		movw r22,r28
 3458               	.LVL220:
 3459 12b4 625D      		subi r22,lo8(-(46))
 3460 12b6 7F4F      		sbci r23,hi8(-(46))
 3461 12b8 FB01      		movw r30,r22
 3462 12ba 80E0      		ldi r24,lo8(512)
 3463 12bc 92E0      		ldi r25,hi8(512)
 3464               	.LVL221:
 3465 12be 00C0      		rjmp .L323
 3466               	.LVL222:
 3467               	.L324:
 3468               	.LM404:
 3469 12c0 1192      		st Z+,__zero_reg__
 3470               	.L323:
 3471 12c2 0197      		sbiw r24,1
 3472 12c4 2FEF      		ldi r18,hi8(-1)
 3473 12c6 8F3F      		cpi r24,lo8(-1)
 3474 12c8 9207      		cpc r25,r18
 3475 12ca 01F4      		brne .L324
 3476               	.LBE580:
 3477               	.LBE579:
 3478               	.LM405:
 3479 12cc C45D      		subi r28,lo8(-(556))
 3480 12ce DD4F      		sbci r29,hi8(-(556))
 3481 12d0 85E5      		ldi r24,lo8(85)
 3482               	.LVL223:
 3483 12d2 8993      		st Y+,r24
 3484 12d4 8AEA      		ldi r24,lo8(-86)
 3485 12d6 8883      		st Y,r24
 3486 12d8 CD52      		subi r28,lo8(-(-557))
 3487 12da D240      		sbci r29,hi8(-(-557))
 3488               	.LM406:
 3489 12dc 82E5      		ldi r24,lo8(82)
 3490 12de 8EA7      		std Y+46,r24
 3491 12e0 8FA7      		std Y+47,r24
 3492 12e2 21E6      		ldi r18,lo8(97)
 3493 12e4 28AB      		std Y+48,r18
 3494 12e6 91E4      		ldi r25,lo8(65)
 3495 12e8 99AB      		std Y+49,r25
 3496               	.LM407:
 3497 12ea CE5E      		subi r28,lo8(-(530))
 3498 12ec DD4F      		sbci r29,hi8(-(530))
 3499 12ee 82E7      		ldi r24,lo8(114)
 3500 12f0 8993      		st Y+,r24
 3501 12f2 8993      		st Y+,r24
 3502 12f4 9993      		st Y+,r25
 3503 12f6 2883      		st Y,r18
 3504 12f8 C551      		subi r28,lo8(-(-533))
 3505 12fa D240      		sbci r29,hi8(-(-533))
 3506               	.LM408:
 3507 12fc 8E85      		ldd r24,Y+14
 3508 12fe CA5E      		subi r28,lo8(-(534))
 3509 1300 DD4F      		sbci r29,hi8(-(534))
 3510 1302 8883      		st Y,r24
 3511 1304 C651      		subi r28,lo8(-(-534))
 3512 1306 D240      		sbci r29,hi8(-(-534))
 3513 1308 8F85      		ldd r24,Y+15
 3514 130a C95E      		subi r28,lo8(-(535))
 3515 130c DD4F      		sbci r29,hi8(-(535))
 3516 130e 8883      		st Y,r24
 3517 1310 C751      		subi r28,lo8(-(-535))
 3518 1312 D240      		sbci r29,hi8(-(-535))
 3519 1314 8E85      		ldd r24,Y+14
 3520 1316 9F85      		ldd r25,Y+15
 3521 1318 A889      		ldd r26,Y+16
 3522 131a B989      		ldd r27,Y+17
 3523 131c 9D01      		movw r18,r26
 3524 131e 4427      		clr r20
 3525 1320 5527      		clr r21
 3526 1322 C85E      		subi r28,lo8(-(536))
 3527 1324 DD4F      		sbci r29,hi8(-(536))
 3528 1326 2883      		st Y,r18
 3529 1328 2196      		adiw r28,1
 3530 132a 8B2F      		mov r24,r27
 3531 132c 9927      		clr r25
 3532 132e AA27      		clr r26
 3533 1330 BB27      		clr r27
 3534 1332 8883      		st Y,r24
 3535 1334 C951      		subi r28,lo8(-(-537))
 3536 1336 D240      		sbci r29,hi8(-(-537))
 3537               	.LM409:
 3538 1338 8A85      		ldd r24,Y+10
 3539 133a C65E      		subi r28,lo8(-(538))
 3540 133c DD4F      		sbci r29,hi8(-(538))
 3541 133e 8883      		st Y,r24
 3542 1340 CA51      		subi r28,lo8(-(-538))
 3543 1342 D240      		sbci r29,hi8(-(-538))
 3544 1344 8B85      		ldd r24,Y+11
 3545 1346 C55E      		subi r28,lo8(-(539))
 3546 1348 DD4F      		sbci r29,hi8(-(539))
 3547 134a 8883      		st Y,r24
 3548 134c CB51      		subi r28,lo8(-(-539))
 3549 134e D240      		sbci r29,hi8(-(-539))
 3550 1350 8A85      		ldd r24,Y+10
 3551 1352 9B85      		ldd r25,Y+11
 3552 1354 AC85      		ldd r26,Y+12
 3553 1356 BD85      		ldd r27,Y+13
 3554 1358 9D01      		movw r18,r26
 3555 135a 4427      		clr r20
 3556 135c 5527      		clr r21
 3557 135e C45E      		subi r28,lo8(-(540))
 3558 1360 DD4F      		sbci r29,hi8(-(540))
 3559 1362 2883      		st Y,r18
 3560 1364 2196      		adiw r28,1
 3561 1366 8B2F      		mov r24,r27
 3562 1368 9927      		clr r25
 3563 136a AA27      		clr r26
 3564 136c BB27      		clr r27
 3565 136e 8883      		st Y,r24
 3566 1370 CD51      		subi r28,lo8(-(-541))
 3567 1372 D240      		sbci r29,hi8(-(-541))
 3568               	.LM410:
 3569 1374 2A89      		ldd r18,Y+18
 3570 1376 3B89      		ldd r19,Y+19
 3571 1378 4C89      		ldd r20,Y+20
 3572 137a 5D89      		ldd r21,Y+21
 3573 137c 8981      		ldd r24,Y+1
 3574 137e 01E0      		ldi r16,lo8(1)
 3575 1380 0E94 0000 		call disk_write
 3576               	.LVL224:
 3577               	.LM411:
 3578 1384 1D82      		std Y+5,__zero_reg__
 3579               	.L322:
 3580               	.LM412:
 3581 1386 8981      		ldd r24,Y+1
 3582 1388 60E0      		ldi r22,lo8(0)
 3583 138a 40E0      		ldi r20,lo8(0)
 3584 138c 50E0      		ldi r21,hi8(0)
 3585 138e 0E94 0000 		call disk_ioctl
 3586 1392 8111      		cpse r24,__zero_reg__
 3587 1394 81E0      		ldi r24,lo8(1)
 3588               	.LVL225:
 3589               	.L321:
 3590               	.LVL226:
 3591               	/* epilogue start */
 3592               	.LM413:
 3593 1396 DF91      		pop r29
 3594 1398 CF91      		pop r28
 3595               	.LVL227:
 3596 139a 0F91      		pop r16
 3597 139c 0895      		ret
 3598               	.LFE48:
 3600               	.global	get_fat
 3602               	get_fat:
 3603               	.LFB49:
 3604               	.LM414:
 3605               	.LVL228:
 3606 139e 7F92      		push r7
 3607 13a0 8F92      		push r8
 3608 13a2 9F92      		push r9
 3609 13a4 AF92      		push r10
 3610 13a6 BF92      		push r11
 3611 13a8 CF92      		push r12
 3612 13aa DF92      		push r13
 3613 13ac EF92      		push r14
 3614 13ae FF92      		push r15
 3615 13b0 0F93      		push r16
 3616 13b2 1F93      		push r17
 3617 13b4 CF93      		push r28
 3618 13b6 DF93      		push r29
 3619               	/* prologue: function */
 3620               	/* frame size = 0 */
 3621 13b8 4C01      		movw r8,r24
 3622 13ba 7A01      		movw r14,r20
 3623 13bc 8B01      		movw r16,r22
 3624               	.LM415:
 3625 13be 4230      		cpi r20,lo8(2)
 3626 13c0 5105      		cpc r21,__zero_reg__
 3627 13c2 6105      		cpc r22,__zero_reg__
 3628 13c4 7105      		cpc r23,__zero_reg__
 3629               	.LVL229:
 3630 13c6 00F4      		brsh .+2
 3631 13c8 00C0      		rjmp .L328
 3632 13ca F401      		movw r30,r8
 3633 13cc 828D      		ldd r24,Z+26
 3634 13ce 938D      		ldd r25,Z+27
 3635 13d0 A48D      		ldd r26,Z+28
 3636 13d2 B58D      		ldd r27,Z+29
 3637 13d4 4817      		cp r20,r24
 3638 13d6 5907      		cpc r21,r25
 3639 13d8 6A07      		cpc r22,r26
 3640 13da 7B07      		cpc r23,r27
 3641 13dc 00F0      		brlo .+2
 3642 13de 00C0      		rjmp .L328
 3643               	.LM416:
 3644 13e0 A68C      		ldd r10,Z+30
 3645 13e2 B78C      		ldd r11,Z+31
 3646 13e4 C0A0      		ldd r12,Z+32
 3647 13e6 D1A0      		ldd r13,Z+33
 3648               	.LVL230:
 3649               	.LM417:
 3650 13e8 8081      		ld r24,Z
 3651 13ea 8230      		cpi r24,lo8(2)
 3652 13ec 01F4      		brne .+2
 3653 13ee 00C0      		rjmp .L331
 3654 13f0 8330      		cpi r24,lo8(3)
 3655 13f2 01F4      		brne .+2
 3656 13f4 00C0      		rjmp .L332
 3657 13f6 8130      		cpi r24,lo8(1)
 3658 13f8 01F0      		breq .+2
 3659 13fa 00C0      		rjmp .L329
 3660               	.LM418:
 3661 13fc EA01      		movw r28,r20
 3662               	.LVL231:
 3663 13fe D695      		lsr r29
 3664 1400 C795      		ror r28
 3665               	.LVL232:
 3666 1402 CE0D      		add r28,r14
 3667 1404 DF1D      		adc r29,r15
 3668               	.LM419:
 3669 1406 AE01      		movw r20,r28
 3670 1408 452F      		mov r20,r21
 3671 140a 5527      		clr r21
 3672 140c 4695      		lsr r20
 3673 140e 60E0      		ldi r22,lo8(0)
 3674 1410 70E0      		ldi r23,hi8(0)
 3675 1412 4A0D      		add r20,r10
 3676 1414 5B1D      		adc r21,r11
 3677 1416 6C1D      		adc r22,r12
 3678 1418 7D1D      		adc r23,r13
 3679 141a C401      		movw r24,r8
 3680 141c 0E94 0000 		call move_window
 3681 1420 8823      		tst r24
 3682 1422 01F0      		breq .+2
 3683 1424 00C0      		rjmp .L329
 3684               	.LM420:
 3685 1426 FE01      		movw r30,r28
 3686 1428 F170      		andi r31,hi8(511)
 3687 142a E80D      		add r30,r8
 3688 142c F91D      		adc r31,r9
 3689 142e 76A4      		ldd r7,Z+46
 3690 1430 2196      		adiw r28,1
 3691               	.LVL233:
 3692               	.LM421:
 3693 1432 AE01      		movw r20,r28
 3694 1434 452F      		mov r20,r21
 3695 1436 5527      		clr r21
 3696 1438 4695      		lsr r20
 3697 143a 60E0      		ldi r22,lo8(0)
 3698 143c 70E0      		ldi r23,hi8(0)
 3699 143e 4A0D      		add r20,r10
 3700 1440 5B1D      		adc r21,r11
 3701 1442 6C1D      		adc r22,r12
 3702 1444 7D1D      		adc r23,r13
 3703 1446 C401      		movw r24,r8
 3704 1448 0E94 0000 		call move_window
 3705 144c 8823      		tst r24
 3706 144e 01F0      		breq .+2
 3707 1450 00C0      		rjmp .L329
 3708               	.LM422:
 3709 1452 672D      		mov r22,r7
 3710               	.LVL234:
 3711 1454 70E0      		ldi r23,lo8(0)
 3712               	.LVL235:
 3713               	.LM423:
 3714 1456 D170      		andi r29,hi8(511)
 3715 1458 C80D      		add r28,r8
 3716 145a D91D      		adc r29,r9
 3717 145c 9EA5      		ldd r25,Y+46
 3718 145e 80E0      		ldi r24,lo8(0)
 3719 1460 682B      		or r22,r24
 3720 1462 792B      		or r23,r25
 3721               	.LVL236:
 3722               	.LM424:
 3723 1464 C701      		movw r24,r14
 3724               	.LVL237:
 3725 1466 8170      		andi r24,lo8(1)
 3726 1468 9070      		andi r25,hi8(1)
 3727 146a 892B      		or r24,r25
 3728 146c 01F0      		breq .L333
 3729 146e 94E0      		ldi r25,4
 3730 1470 7695      	1:	lsr r23
 3731 1472 6795      		ror r22
 3732 1474 9A95      		dec r25
 3733 1476 01F4      		brne 1b
 3734 1478 9B01      		movw r18,r22
 3735 147a 00C0      		rjmp .L336
 3736               	.L333:
 3737 147c 9B01      		movw r18,r22
 3738 147e 40E0      		ldi r20,lo8(0)
 3739 1480 50E0      		ldi r21,hi8(0)
 3740 1482 3F70      		andi r19,hi8(4095)
 3741 1484 4070      		andi r20,hlo8(4095)
 3742 1486 5070      		andi r21,hhi8(4095)
 3743 1488 00C0      		rjmp .L334
 3744               	.LVL238:
 3745               	.L331:
 3746               	.LM425:
 3747 148a 452F      		mov r20,r21
 3748 148c 562F      		mov r21,r22
 3749 148e 672F      		mov r22,r23
 3750 1490 7727      		clr r23
 3751               	.LVL239:
 3752 1492 4A0D      		add r20,r10
 3753 1494 5B1D      		adc r21,r11
 3754 1496 6C1D      		adc r22,r12
 3755 1498 7D1D      		adc r23,r13
 3756 149a C401      		movw r24,r8
 3757 149c 0E94 0000 		call move_window
 3758 14a0 8823      		tst r24
 3759 14a2 01F0      		breq .+2
 3760 14a4 00C0      		rjmp .L329
 3761               	.LM426:
 3762 14a6 F701      		movw r30,r14
 3763               	.LVL240:
 3764 14a8 EE0F      		lsl r30
 3765 14aa FF1F      		rol r31
 3766 14ac F170      		andi r31,hi8(511)
 3767 14ae E80D      		add r30,r8
 3768 14b0 F91D      		adc r31,r9
 3769 14b2 97A5      		ldd r25,Z+47
 3770 14b4 80E0      		ldi r24,lo8(0)
 3771 14b6 26A5      		ldd r18,Z+46
 3772 14b8 30E0      		ldi r19,lo8(0)
 3773 14ba 822B      		or r24,r18
 3774 14bc 932B      		or r25,r19
 3775 14be 9C01      		movw r18,r24
 3776               	.LVL241:
 3777               	.L336:
 3778 14c0 40E0      		ldi r20,lo8(0)
 3779 14c2 50E0      		ldi r21,hi8(0)
 3780 14c4 00C0      		rjmp .L334
 3781               	.LVL242:
 3782               	.L332:
 3783               	.LM427:
 3784 14c6 B7E0      		ldi r27,7
 3785 14c8 7695      	1:	lsr r23
 3786 14ca 6795      		ror r22
 3787 14cc 5795      		ror r21
 3788 14ce 4795      		ror r20
 3789 14d0 BA95      		dec r27
 3790 14d2 01F4      		brne 1b
 3791               	.LVL243:
 3792 14d4 4A0D      		add r20,r10
 3793 14d6 5B1D      		adc r21,r11
 3794 14d8 6C1D      		adc r22,r12
 3795 14da 7D1D      		adc r23,r13
 3796 14dc C401      		movw r24,r8
 3797 14de 0E94 0000 		call move_window
 3798 14e2 8823      		tst r24
 3799 14e4 01F4      		brne .L329
 3800               	.LM428:
 3801 14e6 F701      		movw r30,r14
 3802               	.LVL244:
 3803 14e8 EE0F      		lsl r30
 3804 14ea FF1F      		rol r31
 3805 14ec EE0F      		lsl r30
 3806 14ee FF1F      		rol r31
 3807 14f0 F170      		andi r31,hi8(511)
 3808 14f2 E80D      		add r30,r8
 3809 14f4 F91D      		adc r31,r9
 3810 14f6 81A9      		ldd r24,Z+49
 3811 14f8 90E0      		ldi r25,lo8(0)
 3812 14fa A0E0      		ldi r26,lo8(0)
 3813 14fc B0E0      		ldi r27,hi8(0)
 3814 14fe 582F      		mov r21,r24
 3815 1500 4427      		clr r20
 3816 1502 3327      		clr r19
 3817 1504 2227      		clr r18
 3818 1506 80A9      		ldd r24,Z+48
 3819 1508 90E0      		ldi r25,lo8(0)
 3820 150a A0E0      		ldi r26,lo8(0)
 3821 150c B0E0      		ldi r27,hi8(0)
 3822 150e DC01      		movw r26,r24
 3823 1510 9927      		clr r25
 3824 1512 8827      		clr r24
 3825 1514 282B      		or r18,r24
 3826 1516 392B      		or r19,r25
 3827 1518 4A2B      		or r20,r26
 3828 151a 5B2B      		or r21,r27
 3829 151c 86A5      		ldd r24,Z+46
 3830 151e 90E0      		ldi r25,lo8(0)
 3831 1520 A0E0      		ldi r26,lo8(0)
 3832 1522 B0E0      		ldi r27,hi8(0)
 3833 1524 282B      		or r18,r24
 3834 1526 392B      		or r19,r25
 3835 1528 4A2B      		or r20,r26
 3836 152a 5B2B      		or r21,r27
 3837 152c 97A5      		ldd r25,Z+47
 3838 152e 80E0      		ldi r24,lo8(0)
 3839 1530 A0E0      		ldi r26,lo8(0)
 3840 1532 B0E0      		ldi r27,hi8(0)
 3841 1534 282B      		or r18,r24
 3842 1536 392B      		or r19,r25
 3843 1538 4A2B      		or r20,r26
 3844 153a 5B2B      		or r21,r27
 3845 153c 5F70      		andi r21,hhi8(268435455)
 3846 153e 00C0      		rjmp .L334
 3847               	.LVL245:
 3848               	.L328:
 3849 1540 21E0      		ldi r18,lo8(1)
 3850 1542 30E0      		ldi r19,hi8(1)
 3851 1544 40E0      		ldi r20,hlo8(1)
 3852 1546 50E0      		ldi r21,hhi8(1)
 3853 1548 00C0      		rjmp .L334
 3854               	.LVL246:
 3855               	.L329:
 3856 154a 2FEF      		ldi r18,lo8(-1)
 3857 154c 3FEF      		ldi r19,hi8(-1)
 3858 154e 4FEF      		ldi r20,hlo8(-1)
 3859 1550 5FEF      		ldi r21,hhi8(-1)
 3860               	.LVL247:
 3861               	.L334:
 3862               	.LM429:
 3863 1552 B901      		movw r22,r18
 3864               	.LVL248:
 3865 1554 CA01      		movw r24,r20
 3866               	/* epilogue start */
 3867 1556 DF91      		pop r29
 3868 1558 CF91      		pop r28
 3869               	.LVL249:
 3870 155a 1F91      		pop r17
 3871 155c 0F91      		pop r16
 3872 155e FF90      		pop r15
 3873 1560 EF90      		pop r14
 3874               	.LVL250:
 3875 1562 DF90      		pop r13
 3876 1564 CF90      		pop r12
 3877 1566 BF90      		pop r11
 3878 1568 AF90      		pop r10
 3879               	.LVL251:
 3880 156a 9F90      		pop r9
 3881 156c 8F90      		pop r8
 3882               	.LVL252:
 3883 156e 7F90      		pop r7
 3884 1570 0895      		ret
 3885               	.LFE49:
 3887               	.global	put_fat
 3889               	put_fat:
 3890               	.LFB50:
 3891               	.LM430:
 3892               	.LVL253:
 3893 1572 2F92      		push r2
 3894 1574 3F92      		push r3
 3895 1576 4F92      		push r4
 3896 1578 5F92      		push r5
 3897 157a 6F92      		push r6
 3898 157c 7F92      		push r7
 3899 157e 8F92      		push r8
 3900 1580 9F92      		push r9
 3901 1582 AF92      		push r10
 3902 1584 BF92      		push r11
 3903 1586 CF92      		push r12
 3904 1588 DF92      		push r13
 3905 158a EF92      		push r14
 3906 158c FF92      		push r15
 3907 158e 0F93      		push r16
 3908               	.LVL254:
 3909 1590 1F93      		push r17
 3910 1592 CF93      		push r28
 3911 1594 DF93      		push r29
 3912               	/* prologue: function */
 3913               	/* frame size = 0 */
 3914 1596 3C01      		movw r6,r24
 3915 1598 6A01      		movw r12,r20
 3916 159a 7B01      		movw r14,r22
 3917 159c 4801      		movw r8,r16
 3918 159e 5901      		movw r10,r18
 3919               	.LVL255:
 3920               	.LM431:
 3921 15a0 4230      		cpi r20,lo8(2)
 3922 15a2 5105      		cpc r21,__zero_reg__
 3923 15a4 6105      		cpc r22,__zero_reg__
 3924 15a6 7105      		cpc r23,__zero_reg__
 3925               	.LVL256:
 3926 15a8 00F4      		brsh .+2
 3927 15aa 00C0      		rjmp .L338
 3928               	.LVL257:
 3929 15ac F301      		movw r30,r6
 3930 15ae 828D      		ldd r24,Z+26
 3931 15b0 938D      		ldd r25,Z+27
 3932 15b2 A48D      		ldd r26,Z+28
 3933 15b4 B58D      		ldd r27,Z+29
 3934 15b6 4817      		cp r20,r24
 3935 15b8 5907      		cpc r21,r25
 3936 15ba 6A07      		cpc r22,r26
 3937 15bc 7B07      		cpc r23,r27
 3938 15be 00F0      		brlo .+2
 3939 15c0 00C0      		rjmp .L338
 3940               	.LM432:
 3941 15c2 268C      		ldd r2,Z+30
 3942 15c4 378C      		ldd r3,Z+31
 3943 15c6 40A0      		ldd r4,Z+32
 3944 15c8 51A0      		ldd r5,Z+33
 3945               	.LVL258:
 3946               	.LM433:
 3947 15ca 8081      		ld r24,Z
 3948 15cc 8230      		cpi r24,lo8(2)
 3949 15ce 01F4      		brne .+2
 3950 15d0 00C0      		rjmp .L341
 3951 15d2 8330      		cpi r24,lo8(3)
 3952 15d4 01F4      		brne .+2
 3953 15d6 00C0      		rjmp .L342
 3954 15d8 8130      		cpi r24,lo8(1)
 3955 15da 01F0      		breq .L340
 3956 15dc 22E0      		ldi r18,lo8(2)
 3957               	.LVL259:
 3958 15de 00C0      		rjmp .L343
 3959               	.LVL260:
 3960               	.L340:
 3961               	.LM434:
 3962 15e0 EA01      		movw r28,r20
 3963               	.LVL261:
 3964 15e2 D695      		lsr r29
 3965 15e4 C795      		ror r28
 3966               	.LVL262:
 3967 15e6 C40F      		add r28,r20
 3968 15e8 D51F      		adc r29,r21
 3969               	.LM435:
 3970 15ea AE01      		movw r20,r28
 3971               	.LVL263:
 3972 15ec 452F      		mov r20,r21
 3973 15ee 5527      		clr r21
 3974 15f0 4695      		lsr r20
 3975 15f2 60E0      		ldi r22,lo8(0)
 3976 15f4 70E0      		ldi r23,hi8(0)
 3977 15f6 420D      		add r20,r2
 3978 15f8 531D      		adc r21,r3
 3979 15fa 641D      		adc r22,r4
 3980 15fc 751D      		adc r23,r5
 3981 15fe C301      		movw r24,r6
 3982 1600 0E94 0000 		call move_window
 3983 1604 282F      		mov r18,r24
 3984               	.LVL264:
 3985               	.LM436:
 3986 1606 8823      		tst r24
 3987 1608 01F0      		breq .+2
 3988 160a 00C0      		rjmp .L343
 3989               	.LVL265:
 3990               	.LM437:
 3991 160c DE01      		movw r26,r28
 3992 160e B170      		andi r27,hi8(511)
 3993               	.LM438:
 3994 1610 8601      		movw r16,r12
 3995               	.LVL266:
 3996 1612 0170      		andi r16,lo8(1)
 3997 1614 1070      		andi r17,hi8(1)
 3998 1616 0115      		cp r16,__zero_reg__
 3999 1618 1105      		cpc r17,__zero_reg__
 4000 161a 01F0      		breq .L344
 4001 161c F301      		movw r30,r6
 4002 161e EA0F      		add r30,r26
 4003 1620 FB1F      		adc r31,r27
 4004 1622 86A5      		ldd r24,Z+46
 4005               	.LVL267:
 4006 1624 8F70      		andi r24,lo8(15)
 4007 1626 982D      		mov r25,r8
 4008               	.LVL268:
 4009 1628 9295      		swap r25
 4010 162a 907F      		andi r25,lo8(-16)
 4011 162c 982B      		or r25,r24
 4012 162e 00C0      		rjmp .L345
 4013               	.LVL269:
 4014               	.L344:
 4015 1630 982D      		mov r25,r8
 4016               	.LVL270:
 4017               	.L345:
 4018 1632 A60D      		add r26,r6
 4019 1634 B71D      		adc r27,r7
 4020 1636 9E96      		adiw r26,46
 4021 1638 9C93      		st X,r25
 4022               	.LM439:
 4023 163a 2196      		adiw r28,1
 4024               	.LVL271:
 4025               	.LM440:
 4026 163c 81E0      		ldi r24,lo8(1)
 4027 163e F301      		movw r30,r6
 4028 1640 8483      		std Z+4,r24
 4029               	.LM441:
 4030 1642 AE01      		movw r20,r28
 4031 1644 452F      		mov r20,r21
 4032 1646 5527      		clr r21
 4033 1648 4695      		lsr r20
 4034 164a 60E0      		ldi r22,lo8(0)
 4035 164c 70E0      		ldi r23,hi8(0)
 4036 164e 420D      		add r20,r2
 4037 1650 531D      		adc r21,r3
 4038 1652 641D      		adc r22,r4
 4039 1654 751D      		adc r23,r5
 4040 1656 C301      		movw r24,r6
 4041 1658 0E94 0000 		call move_window
 4042               	.LVL272:
 4043 165c 282F      		mov r18,r24
 4044               	.LVL273:
 4045               	.LM442:
 4046 165e 8823      		tst r24
 4047 1660 01F0      		breq .+2
 4048 1662 00C0      		rjmp .L343
 4049               	.LVL274:
 4050               	.LM443:
 4051 1664 D170      		andi r29,hi8(511)
 4052               	.LVL275:
 4053               	.LM444:
 4054 1666 012B      		or r16,r17
 4055 1668 01F0      		breq .L346
 4056 166a 34E0      		ldi r19,4
 4057 166c B694      	1:	lsr r11
 4058 166e A794      		ror r10
 4059 1670 9794      		ror r9
 4060 1672 8794      		ror r8
 4061 1674 3A95      		dec r19
 4062 1676 01F4      		brne 1b
 4063 1678 482D      		mov r20,r8
 4064 167a 00C0      		rjmp .L347
 4065               	.L346:
 4066 167c F301      		movw r30,r6
 4067 167e EC0F      		add r30,r28
 4068 1680 FD1F      		adc r31,r29
 4069 1682 46A5      		ldd r20,Z+46
 4070 1684 407F      		andi r20,lo8(-16)
 4071 1686 BB27      		clr r27
 4072 1688 AB2D      		mov r26,r11
 4073 168a 9A2D      		mov r25,r10
 4074 168c 892D      		mov r24,r9
 4075               	.LVL276:
 4076 168e 8F70      		andi r24,lo8(15)
 4077 1690 482B      		or r20,r24
 4078               	.LVL277:
 4079               	.L347:
 4080 1692 C60D      		add r28,r6
 4081 1694 D71D      		adc r29,r7
 4082 1696 4EA7      		std Y+46,r20
 4083 1698 00C0      		rjmp .L343
 4084               	.LVL278:
 4085               	.L341:
 4086               	.LM445:
 4087 169a 452F      		mov r20,r21
 4088 169c 562F      		mov r21,r22
 4089 169e 672F      		mov r22,r23
 4090 16a0 7727      		clr r23
 4091               	.LVL279:
 4092 16a2 420D      		add r20,r2
 4093 16a4 531D      		adc r21,r3
 4094 16a6 641D      		adc r22,r4
 4095 16a8 751D      		adc r23,r5
 4096 16aa C301      		movw r24,r6
 4097 16ac 0E94 0000 		call move_window
 4098 16b0 282F      		mov r18,r24
 4099               	.LVL280:
 4100               	.LM446:
 4101 16b2 8823      		tst r24
 4102 16b4 01F4      		brne .L343
 4103               	.LVL281:
 4104               	.LM447:
 4105 16b6 F601      		movw r30,r12
 4106               	.LVL282:
 4107 16b8 EE0F      		lsl r30
 4108 16ba FF1F      		rol r31
 4109 16bc F170      		andi r31,hi8(511)
 4110 16be E60D      		add r30,r6
 4111 16c0 F71D      		adc r31,r7
 4112 16c2 86A6      		std Z+46,r8
 4113 16c4 892D      		mov r24,r9
 4114 16c6 9927      		clr r25
 4115               	.LVL283:
 4116 16c8 87A7      		std Z+47,r24
 4117 16ca 00C0      		rjmp .L343
 4118               	.LVL284:
 4119               	.L342:
 4120               	.LM448:
 4121 16cc B7E0      		ldi r27,7
 4122 16ce 7695      	1:	lsr r23
 4123 16d0 6795      		ror r22
 4124 16d2 5795      		ror r21
 4125 16d4 4795      		ror r20
 4126 16d6 BA95      		dec r27
 4127 16d8 01F4      		brne 1b
 4128               	.LVL285:
 4129 16da 420D      		add r20,r2
 4130 16dc 531D      		adc r21,r3
 4131 16de 641D      		adc r22,r4
 4132 16e0 751D      		adc r23,r5
 4133 16e2 C301      		movw r24,r6
 4134 16e4 0E94 0000 		call move_window
 4135 16e8 282F      		mov r18,r24
 4136               	.LVL286:
 4137               	.LM449:
 4138 16ea 8823      		tst r24
 4139 16ec 01F4      		brne .L343
 4140               	.LVL287:
 4141               	.LM450:
 4142 16ee F601      		movw r30,r12
 4143               	.LVL288:
 4144 16f0 EE0F      		lsl r30
 4145 16f2 FF1F      		rol r31
 4146 16f4 EE0F      		lsl r30
 4147 16f6 FF1F      		rol r31
 4148 16f8 F170      		andi r31,hi8(511)
 4149 16fa E60D      		add r30,r6
 4150 16fc F71D      		adc r31,r7
 4151 16fe 86A6      		std Z+46,r8
 4152 1700 892D      		mov r24,r9
 4153 1702 9927      		clr r25
 4154               	.LVL289:
 4155 1704 87A7      		std Z+47,r24
 4156 1706 C501      		movw r24,r10
 4157 1708 AA27      		clr r26
 4158 170a BB27      		clr r27
 4159 170c 80AB      		std Z+48,r24
 4160 170e 8B2D      		mov r24,r11
 4161 1710 9927      		clr r25
 4162 1712 AA27      		clr r26
 4163 1714 BB27      		clr r27
 4164 1716 81AB      		std Z+49,r24
 4165               	.LVL290:
 4166               	.L343:
 4167               	.LM451:
 4168 1718 81E0      		ldi r24,lo8(1)
 4169 171a F301      		movw r30,r6
 4170 171c 8483      		std Z+4,r24
 4171 171e 00C0      		rjmp .L348
 4172               	.LVL291:
 4173               	.L338:
 4174 1720 22E0      		ldi r18,lo8(2)
 4175               	.LVL292:
 4176               	.L348:
 4177               	.LM452:
 4178 1722 822F      		mov r24,r18
 4179               	/* epilogue start */
 4180 1724 DF91      		pop r29
 4181 1726 CF91      		pop r28
 4182               	.LVL293:
 4183 1728 1F91      		pop r17
 4184 172a 0F91      		pop r16
 4185 172c FF90      		pop r15
 4186 172e EF90      		pop r14
 4187 1730 DF90      		pop r13
 4188 1732 CF90      		pop r12
 4189 1734 BF90      		pop r11
 4190 1736 AF90      		pop r10
 4191 1738 9F90      		pop r9
 4192 173a 8F90      		pop r8
 4193               	.LVL294:
 4194 173c 7F90      		pop r7
 4195 173e 6F90      		pop r6
 4196               	.LVL295:
 4197 1740 5F90      		pop r5
 4198 1742 4F90      		pop r4
 4199 1744 3F90      		pop r3
 4200 1746 2F90      		pop r2
 4201               	.LVL296:
 4202 1748 0895      		ret
 4203               	.LFE50:
 4206               	remove_chain:
 4207               	.LFB51:
 4208               	.LM453:
 4209               	.LVL297:
 4210 174a 9F92      		push r9
 4211 174c AF92      		push r10
 4212 174e BF92      		push r11
 4213 1750 CF92      		push r12
 4214 1752 DF92      		push r13
 4215 1754 EF92      		push r14
 4216 1756 FF92      		push r15
 4217 1758 0F93      		push r16
 4218 175a 1F93      		push r17
 4219 175c CF93      		push r28
 4220 175e DF93      		push r29
 4221               	/* prologue: function */
 4222               	/* frame size = 0 */
 4223 1760 EC01      		movw r28,r24
 4224 1762 7A01      		movw r14,r20
 4225 1764 8B01      		movw r16,r22
 4226               	.LM454:
 4227 1766 4230      		cpi r20,lo8(2)
 4228 1768 5105      		cpc r21,__zero_reg__
 4229 176a 6105      		cpc r22,__zero_reg__
 4230 176c 7105      		cpc r23,__zero_reg__
 4231 176e 00F4      		brsh .+2
 4232 1770 00C0      		rjmp .L351
 4233               	.LVL298:
 4234 1772 8A8D      		ldd r24,Y+26
 4235 1774 9B8D      		ldd r25,Y+27
 4236 1776 AC8D      		ldd r26,Y+28
 4237 1778 BD8D      		ldd r27,Y+29
 4238 177a 4817      		cp r20,r24
 4239 177c 5907      		cpc r21,r25
 4240 177e 6A07      		cpc r22,r26
 4241 1780 7B07      		cpc r23,r27
 4242 1782 00F4      		brsh .+2
 4243 1784 00C0      		rjmp .L359
 4244 1786 00C0      		rjmp .L351
 4245               	.LVL299:
 4246               	.L357:
 4247               	.LM455:
 4248 1788 CE01      		movw r24,r28
 4249 178a B801      		movw r22,r16
 4250 178c A701      		movw r20,r14
 4251 178e 0E94 0000 		call get_fat
 4252 1792 5B01      		movw r10,r22
 4253 1794 6C01      		movw r12,r24
 4254               	.LM456:
 4255 1796 6115      		cp r22,__zero_reg__
 4256 1798 7105      		cpc r23,__zero_reg__
 4257 179a 8105      		cpc r24,__zero_reg__
 4258 179c 9105      		cpc r25,__zero_reg__
 4259 179e 01F4      		brne .+2
 4260 17a0 00C0      		rjmp .L353
 4261               	.LVL300:
 4262               	.LM457:
 4263 17a2 81E0      		ldi r24,lo8(1)
 4264 17a4 A816      		cp r10,r24
 4265 17a6 B104      		cpc r11,__zero_reg__
 4266 17a8 C104      		cpc r12,__zero_reg__
 4267 17aa D104      		cpc r13,__zero_reg__
 4268 17ac 01F0      		breq .L351
 4269               	.LVL301:
 4270               	.LM458:
 4271 17ae 2FEF      		ldi r18,lo8(-1)
 4272 17b0 A216      		cp r10,r18
 4273 17b2 2FEF      		ldi r18,hi8(-1)
 4274 17b4 B206      		cpc r11,r18
 4275 17b6 2FEF      		ldi r18,hlo8(-1)
 4276 17b8 C206      		cpc r12,r18
 4277 17ba 2FEF      		ldi r18,hhi8(-1)
 4278 17bc D206      		cpc r13,r18
 4279 17be 01F4      		brne .L354
 4280 17c0 81E0      		ldi r24,lo8(1)
 4281               	.LVL302:
 4282 17c2 00C0      		rjmp .L355
 4283               	.LVL303:
 4284               	.L354:
 4285               	.LM459:
 4286 17c4 CE01      		movw r24,r28
 4287 17c6 B801      		movw r22,r16
 4288 17c8 A701      		movw r20,r14
 4289 17ca 00E0      		ldi r16,lo8(0)
 4290 17cc 10E0      		ldi r17,hi8(0)
 4291 17ce 20E0      		ldi r18,hlo8(0)
 4292 17d0 30E0      		ldi r19,hhi8(0)
 4293 17d2 0E94 0000 		call put_fat
 4294               	.LM460:
 4295 17d6 8823      		tst r24
 4296               	.LVL304:
 4297 17d8 01F4      		brne .L355
 4298               	.LM461:
 4299 17da 8E85      		ldd r24,Y+14
 4300 17dc 9F85      		ldd r25,Y+15
 4301 17de A889      		ldd r26,Y+16
 4302 17e0 B989      		ldd r27,Y+17
 4303               	.LVL305:
 4304 17e2 8F3F      		cpi r24,lo8(-1)
 4305 17e4 2FEF      		ldi r18,hi8(-1)
 4306 17e6 9207      		cpc r25,r18
 4307 17e8 2FEF      		ldi r18,hlo8(-1)
 4308 17ea A207      		cpc r26,r18
 4309 17ec 2FEF      		ldi r18,hhi8(-1)
 4310 17ee B207      		cpc r27,r18
 4311 17f0 01F0      		breq .L356
 4312               	.LM462:
 4313 17f2 0196      		adiw r24,1
 4314 17f4 A11D      		adc r26,__zero_reg__
 4315 17f6 B11D      		adc r27,__zero_reg__
 4316 17f8 8E87      		std Y+14,r24
 4317 17fa 9F87      		std Y+15,r25
 4318 17fc A88B      		std Y+16,r26
 4319 17fe B98B      		std Y+17,r27
 4320               	.LM463:
 4321 1800 9D82      		std Y+5,r9
 4322               	.L356:
 4323 1802 8601      		movw r16,r12
 4324 1804 7501      		movw r14,r10
 4325 1806 00C0      		rjmp .L360
 4326               	.LVL306:
 4327               	.L359:
 4328 1808 9924      		clr r9
 4329 180a 9394      		inc r9
 4330               	.LVL307:
 4331               	.L360:
 4332               	.LM464:
 4333 180c 8A8D      		ldd r24,Y+26
 4334 180e 9B8D      		ldd r25,Y+27
 4335 1810 AC8D      		ldd r26,Y+28
 4336 1812 BD8D      		ldd r27,Y+29
 4337 1814 E816      		cp r14,r24
 4338 1816 F906      		cpc r15,r25
 4339 1818 0A07      		cpc r16,r26
 4340 181a 1B07      		cpc r17,r27
 4341 181c 00F4      		brsh .+2
 4342 181e 00C0      		rjmp .L357
 4343 1820 00C0      		rjmp .L353
 4344               	.LVL308:
 4345               	.L351:
 4346 1822 82E0      		ldi r24,lo8(2)
 4347               	.LVL309:
 4348 1824 00C0      		rjmp .L355
 4349               	.LVL310:
 4350               	.L353:
 4351 1826 80E0      		ldi r24,lo8(0)
 4352               	.LVL311:
 4353               	.L355:
 4354               	.LVL312:
 4355               	/* epilogue start */
 4356               	.LM465:
 4357 1828 DF91      		pop r29
 4358 182a CF91      		pop r28
 4359               	.LVL313:
 4360 182c 1F91      		pop r17
 4361 182e 0F91      		pop r16
 4362 1830 FF90      		pop r15
 4363 1832 EF90      		pop r14
 4364               	.LVL314:
 4365 1834 DF90      		pop r13
 4366 1836 CF90      		pop r12
 4367 1838 BF90      		pop r11
 4368 183a AF90      		pop r10
 4369               	.LVL315:
 4370 183c 9F90      		pop r9
 4371 183e 0895      		ret
 4372               	.LFE51:
 4375               	create_chain:
 4376               	.LFB52:
 4377               	.LM466:
 4378               	.LVL316:
 4379 1840 2F92      		push r2
 4380 1842 3F92      		push r3
 4381 1844 4F92      		push r4
 4382 1846 5F92      		push r5
 4383 1848 6F92      		push r6
 4384 184a 7F92      		push r7
 4385 184c 8F92      		push r8
 4386 184e 9F92      		push r9
 4387 1850 AF92      		push r10
 4388 1852 BF92      		push r11
 4389 1854 CF92      		push r12
 4390 1856 DF92      		push r13
 4391 1858 EF92      		push r14
 4392 185a FF92      		push r15
 4393 185c 0F93      		push r16
 4394 185e 1F93      		push r17
 4395 1860 DF93      		push r29
 4396 1862 CF93      		push r28
 4397 1864 00D0      		rcall .
 4398 1866 0F92      		push __tmp_reg__
 4399 1868 CDB7      		in r28,__SP_L__
 4400 186a DEB7      		in r29,__SP_H__
 4401               	/* prologue: function */
 4402               	/* frame size = 4 */
 4403 186c 1C01      		movw r2,r24
 4404 186e 2A01      		movw r4,r20
 4405 1870 3B01      		movw r6,r22
 4406               	.LM467:
 4407 1872 DC01      		movw r26,r24
 4408 1874 5A96      		adiw r26,26
 4409 1876 8D91      		ld r24,X+
 4410 1878 9D91      		ld r25,X+
 4411 187a 0D90      		ld __tmp_reg__,X+
 4412 187c BC91      		ld r27,X
 4413 187e A02D      		mov r26,__tmp_reg__
 4414               	.LVL317:
 4415 1880 8983      		std Y+1,r24
 4416 1882 9A83      		std Y+2,r25
 4417 1884 AB83      		std Y+3,r26
 4418 1886 BC83      		std Y+4,r27
 4419               	.LVL318:
 4420               	.LM468:
 4421 1888 4115      		cp r20,__zero_reg__
 4422 188a 5105      		cpc r21,__zero_reg__
 4423 188c 6105      		cpc r22,__zero_reg__
 4424 188e 7105      		cpc r23,__zero_reg__
 4425 1890 01F4      		brne .L362
 4426               	.LM469:
 4427 1892 F101      		movw r30,r2
 4428 1894 8284      		ldd r8,Z+10
 4429 1896 9384      		ldd r9,Z+11
 4430 1898 A484      		ldd r10,Z+12
 4431 189a B584      		ldd r11,Z+13
 4432               	.LVL319:
 4433               	.LM470:
 4434 189c 8114      		cp r8,__zero_reg__
 4435 189e 9104      		cpc r9,__zero_reg__
 4436 18a0 A104      		cpc r10,__zero_reg__
 4437 18a2 B104      		cpc r11,__zero_reg__
 4438 18a4 01F0      		breq .L363
 4439 18a6 8816      		cp r8,r24
 4440 18a8 9906      		cpc r9,r25
 4441 18aa AA06      		cpc r10,r26
 4442 18ac BB06      		cpc r11,r27
 4443 18ae 00F4      		brsh .L363
 4444 18b0 00C0      		rjmp .L364
 4445               	.LVL320:
 4446               	.L362:
 4447               	.LM471:
 4448 18b2 C101      		movw r24,r2
 4449 18b4 0E94 0000 		call get_fat
 4450               	.LVL321:
 4451 18b8 9B01      		movw r18,r22
 4452 18ba AC01      		movw r20,r24
 4453               	.LVL322:
 4454               	.LM472:
 4455 18bc 6230      		cpi r22,lo8(2)
 4456 18be 7105      		cpc r23,__zero_reg__
 4457 18c0 8105      		cpc r24,__zero_reg__
 4458 18c2 9105      		cpc r25,__zero_reg__
 4459 18c4 00F4      		brsh .L365
 4460               	.LVL323:
 4461 18c6 21E0      		ldi r18,lo8(1)
 4462 18c8 30E0      		ldi r19,hi8(1)
 4463 18ca 40E0      		ldi r20,hlo8(1)
 4464 18cc 50E0      		ldi r21,hhi8(1)
 4465               	.LVL324:
 4466 18ce 00C0      		rjmp .L366
 4467               	.LVL325:
 4468               	.L365:
 4469               	.LM473:
 4470 18d0 8981      		ldd r24,Y+1
 4471 18d2 9A81      		ldd r25,Y+2
 4472 18d4 AB81      		ldd r26,Y+3
 4473 18d6 BC81      		ldd r27,Y+4
 4474 18d8 2817      		cp r18,r24
 4475 18da 3907      		cpc r19,r25
 4476 18dc 4A07      		cpc r20,r26
 4477 18de 5B07      		cpc r21,r27
 4478 18e0 00F4      		brsh .+2
 4479 18e2 00C0      		rjmp .L366
 4480               	.LVL326:
 4481 18e4 5301      		movw r10,r6
 4482 18e6 4201      		movw r8,r4
 4483               	.LVL327:
 4484 18e8 00C0      		rjmp .L364
 4485               	.LVL328:
 4486               	.L363:
 4487 18ea A1E0      		ldi r26,lo8(1)
 4488 18ec 8A2E      		mov r8,r26
 4489 18ee 912C      		mov r9,__zero_reg__
 4490 18f0 A12C      		mov r10,__zero_reg__
 4491 18f2 B12C      		mov r11,__zero_reg__
 4492               	.LVL329:
 4493               	.L364:
 4494 18f4 7501      		movw r14,r10
 4495 18f6 6401      		movw r12,r8
 4496               	.LVL330:
 4497               	.L370:
 4498               	.LM474:
 4499 18f8 0894      		sec
 4500 18fa C11C      		adc r12,__zero_reg__
 4501 18fc D11C      		adc r13,__zero_reg__
 4502 18fe E11C      		adc r14,__zero_reg__
 4503 1900 F11C      		adc r15,__zero_reg__
 4504               	.LM475:
 4505 1902 8981      		ldd r24,Y+1
 4506 1904 9A81      		ldd r25,Y+2
 4507 1906 AB81      		ldd r26,Y+3
 4508 1908 BC81      		ldd r27,Y+4
 4509 190a C816      		cp r12,r24
 4510 190c D906      		cpc r13,r25
 4511 190e EA06      		cpc r14,r26
 4512 1910 FB06      		cpc r15,r27
 4513 1912 00F0      		brlo .L367
 4514               	.LM476:
 4515 1914 92E0      		ldi r25,lo8(2)
 4516 1916 8916      		cp r8,r25
 4517 1918 9104      		cpc r9,__zero_reg__
 4518 191a A104      		cpc r10,__zero_reg__
 4519 191c B104      		cpc r11,__zero_reg__
 4520 191e 00F4      		brsh .+2
 4521 1920 00C0      		rjmp .L368
 4522 1922 F2E0      		ldi r31,lo8(2)
 4523 1924 CF2E      		mov r12,r31
 4524 1926 D12C      		mov r13,__zero_reg__
 4525 1928 E12C      		mov r14,__zero_reg__
 4526 192a F12C      		mov r15,__zero_reg__
 4527               	.L367:
 4528               	.LM477:
 4529 192c C101      		movw r24,r2
 4530 192e B701      		movw r22,r14
 4531 1930 A601      		movw r20,r12
 4532 1932 0E94 0000 		call get_fat
 4533               	.LVL331:
 4534 1936 9B01      		movw r18,r22
 4535 1938 AC01      		movw r20,r24
 4536               	.LVL332:
 4537               	.LM478:
 4538 193a 6115      		cp r22,__zero_reg__
 4539 193c 7105      		cpc r23,__zero_reg__
 4540 193e 8105      		cpc r24,__zero_reg__
 4541 1940 9105      		cpc r25,__zero_reg__
 4542 1942 01F0      		breq .L369
 4543               	.LVL333:
 4544               	.LM479:
 4545 1944 6F3F      		cpi r22,lo8(-1)
 4546 1946 AFEF      		ldi r26,hi8(-1)
 4547 1948 7A07      		cpc r23,r26
 4548 194a AFEF      		ldi r26,hlo8(-1)
 4549 194c 8A07      		cpc r24,r26
 4550 194e AFEF      		ldi r26,hhi8(-1)
 4551 1950 9A07      		cpc r25,r26
 4552 1952 01F4      		brne .+2
 4553 1954 00C0      		rjmp .L366
 4554 1956 6130      		cpi r22,lo8(1)
 4555 1958 7105      		cpc r23,__zero_reg__
 4556 195a 8105      		cpc r24,__zero_reg__
 4557 195c 9105      		cpc r25,__zero_reg__
 4558 195e 01F4      		brne .+2
 4559 1960 00C0      		rjmp .L366
 4560               	.LM480:
 4561 1962 C814      		cp r12,r8
 4562 1964 D904      		cpc r13,r9
 4563 1966 EA04      		cpc r14,r10
 4564 1968 FB04      		cpc r15,r11
 4565 196a 01F4      		brne .L370
 4566 196c 00C0      		rjmp .L368
 4567               	.L369:
 4568 196e BC2C      		mov r11,r12
 4569 1970 AD2C      		mov r10,r13
 4570               	.LVL334:
 4571 1972 9E2C      		mov r9,r14
 4572               	.LVL335:
 4573 1974 8F2C      		mov r8,r15
 4574               	.LVL336:
 4575               	.LM481:
 4576 1976 C101      		movw r24,r2
 4577 1978 A601      		movw r20,r12
 4578               	.LVL337:
 4579 197a B701      		movw r22,r14
 4580               	.LVL338:
 4581 197c 0FEF      		ldi r16,lo8(268435455)
 4582 197e 1FEF      		ldi r17,hi8(268435455)
 4583 1980 2FEF      		ldi r18,hlo8(268435455)
 4584 1982 3FE0      		ldi r19,hhi8(268435455)
 4585 1984 0E94 0000 		call put_fat
 4586               	.LVL339:
 4587 1988 8823      		tst r24
 4588 198a 01F4      		brne .L371
 4589               	.LVL340:
 4590               	.LM482:
 4591 198c 4114      		cp r4,__zero_reg__
 4592 198e 5104      		cpc r5,__zero_reg__
 4593 1990 6104      		cpc r6,__zero_reg__
 4594 1992 7104      		cpc r7,__zero_reg__
 4595 1994 01F0      		breq .L372
 4596               	.LM483:
 4597 1996 C101      		movw r24,r2
 4598 1998 B301      		movw r22,r6
 4599 199a A201      		movw r20,r4
 4600 199c 8601      		movw r16,r12
 4601 199e 9701      		movw r18,r14
 4602 19a0 0E94 0000 		call put_fat
 4603 19a4 8823      		tst r24
 4604 19a6 01F4      		brne .L371
 4605               	.L372:
 4606               	.LM484:
 4607 19a8 F101      		movw r30,r2
 4608 19aa B286      		std Z+10,r11
 4609 19ac A386      		std Z+11,r10
 4610 19ae 9486      		std Z+12,r9
 4611 19b0 8586      		std Z+13,r8
 4612               	.LM485:
 4613 19b2 8685      		ldd r24,Z+14
 4614 19b4 9785      		ldd r25,Z+15
 4615 19b6 A089      		ldd r26,Z+16
 4616 19b8 B189      		ldd r27,Z+17
 4617 19ba 8F3F      		cpi r24,lo8(-1)
 4618 19bc FFEF      		ldi r31,hi8(-1)
 4619 19be 9F07      		cpc r25,r31
 4620 19c0 FFEF      		ldi r31,hlo8(-1)
 4621 19c2 AF07      		cpc r26,r31
 4622 19c4 FFEF      		ldi r31,hhi8(-1)
 4623 19c6 BF07      		cpc r27,r31
 4624 19c8 01F0      		breq .L375
 4625               	.L373:
 4626               	.LM486:
 4627 19ca 0197      		sbiw r24,1
 4628 19cc A109      		sbc r26,__zero_reg__
 4629 19ce B109      		sbc r27,__zero_reg__
 4630 19d0 F101      		movw r30,r2
 4631 19d2 8687      		std Z+14,r24
 4632 19d4 9787      		std Z+15,r25
 4633 19d6 A08B      		std Z+16,r26
 4634 19d8 B18B      		std Z+17,r27
 4635               	.LM487:
 4636 19da 81E0      		ldi r24,lo8(1)
 4637 19dc 8583      		std Z+5,r24
 4638               	.L375:
 4639 19de A701      		movw r20,r14
 4640 19e0 9601      		movw r18,r12
 4641               	.LVL341:
 4642 19e2 00C0      		rjmp .L366
 4643               	.LVL342:
 4644               	.L368:
 4645 19e4 20E0      		ldi r18,lo8(0)
 4646 19e6 30E0      		ldi r19,hi8(0)
 4647 19e8 40E0      		ldi r20,hlo8(0)
 4648 19ea 50E0      		ldi r21,hhi8(0)
 4649 19ec 00C0      		rjmp .L366
 4650               	.LVL343:
 4651               	.L371:
 4652 19ee 2FEF      		ldi r18,lo8(-1)
 4653 19f0 3FEF      		ldi r19,hi8(-1)
 4654 19f2 4FEF      		ldi r20,hlo8(-1)
 4655 19f4 5FEF      		ldi r21,hhi8(-1)
 4656               	.LVL344:
 4657               	.L366:
 4658               	.LM488:
 4659 19f6 B901      		movw r22,r18
 4660               	.LVL345:
 4661 19f8 CA01      		movw r24,r20
 4662               	/* epilogue start */
 4663 19fa 2496      		adiw r28,4
 4664 19fc CDBF      		out __SP_L__,r28
 4665 19fe DEBF      		out __SP_H__,r29
 4666 1a00 CF91      		pop r28
 4667 1a02 DF91      		pop r29
 4668 1a04 1F91      		pop r17
 4669 1a06 0F91      		pop r16
 4670 1a08 FF90      		pop r15
 4671 1a0a EF90      		pop r14
 4672 1a0c DF90      		pop r13
 4673 1a0e CF90      		pop r12
 4674               	.LVL346:
 4675 1a10 BF90      		pop r11
 4676               	.LVL347:
 4677 1a12 AF90      		pop r10
 4678               	.LVL348:
 4679 1a14 9F90      		pop r9
 4680               	.LVL349:
 4681 1a16 8F90      		pop r8
 4682               	.LVL350:
 4683 1a18 7F90      		pop r7
 4684 1a1a 6F90      		pop r6
 4685 1a1c 5F90      		pop r5
 4686 1a1e 4F90      		pop r4
 4687               	.LVL351:
 4688 1a20 3F90      		pop r3
 4689 1a22 2F90      		pop r2
 4690               	.LVL352:
 4691 1a24 0895      		ret
 4692               	.LFE52:
 4694               	.global	clust2sect
 4696               	clust2sect:
 4697               	.LFB53:
 4698               	.LM489:
 4699               	.LVL353:
 4700 1a26 EF92      		push r14
 4701 1a28 FF92      		push r15
 4702 1a2a 0F93      		push r16
 4703 1a2c 1F93      		push r17
 4704 1a2e CF93      		push r28
 4705 1a30 DF93      		push r29
 4706               	/* prologue: function */
 4707               	/* frame size = 0 */
 4708 1a32 EC01      		movw r28,r24
 4709 1a34 7A01      		movw r14,r20
 4710 1a36 8B01      		movw r16,r22
 4711               	.LM490:
 4712 1a38 8EEF      		ldi r24,lo8(-2)
 4713 1a3a 9FEF      		ldi r25,hi8(-2)
 4714 1a3c AFEF      		ldi r26,hlo8(-2)
 4715 1a3e BFEF      		ldi r27,hhi8(-2)
 4716               	.LVL354:
 4717 1a40 E80E      		add r14,r24
 4718 1a42 F91E      		adc r15,r25
 4719 1a44 0A1F      		adc r16,r26
 4720 1a46 1B1F      		adc r17,r27
 4721               	.LVL355:
 4722               	.LM491:
 4723 1a48 8A8D      		ldd r24,Y+26
 4724 1a4a 9B8D      		ldd r25,Y+27
 4725 1a4c AC8D      		ldd r26,Y+28
 4726 1a4e BD8D      		ldd r27,Y+29
 4727 1a50 0297      		sbiw r24,2
 4728 1a52 A109      		sbc r26,__zero_reg__
 4729 1a54 B109      		sbc r27,__zero_reg__
 4730 1a56 E816      		cp r14,r24
 4731 1a58 F906      		cpc r15,r25
 4732 1a5a 0A07      		cpc r16,r26
 4733 1a5c 1B07      		cpc r17,r27
 4734 1a5e 00F0      		brlo .L377
 4735 1a60 20E0      		ldi r18,lo8(0)
 4736 1a62 30E0      		ldi r19,hi8(0)
 4737 1a64 40E0      		ldi r20,hlo8(0)
 4738 1a66 50E0      		ldi r21,hhi8(0)
 4739 1a68 00C0      		rjmp .L378
 4740               	.L377:
 4741               	.LM492:
 4742 1a6a 2A81      		ldd r18,Y+2
 4743 1a6c 30E0      		ldi r19,lo8(0)
 4744 1a6e 40E0      		ldi r20,lo8(0)
 4745 1a70 50E0      		ldi r21,hi8(0)
 4746 1a72 C801      		movw r24,r16
 4747 1a74 B701      		movw r22,r14
 4748 1a76 0E94 0000 		call __mulsi3
 4749 1a7a 9B01      		movw r18,r22
 4750 1a7c AC01      		movw r20,r24
 4751 1a7e 8EA1      		ldd r24,Y+38
 4752 1a80 9FA1      		ldd r25,Y+39
 4753 1a82 A8A5      		ldd r26,Y+40
 4754 1a84 B9A5      		ldd r27,Y+41
 4755 1a86 280F      		add r18,r24
 4756 1a88 391F      		adc r19,r25
 4757 1a8a 4A1F      		adc r20,r26
 4758 1a8c 5B1F      		adc r21,r27
 4759               	.L378:
 4760               	.LM493:
 4761 1a8e B901      		movw r22,r18
 4762 1a90 CA01      		movw r24,r20
 4763               	/* epilogue start */
 4764 1a92 DF91      		pop r29
 4765 1a94 CF91      		pop r28
 4766               	.LVL356:
 4767 1a96 1F91      		pop r17
 4768 1a98 0F91      		pop r16
 4769 1a9a FF90      		pop r15
 4770 1a9c EF90      		pop r14
 4771               	.LVL357:
 4772 1a9e 0895      		ret
 4773               	.LFE53:
 4776               	dir_seek:
 4777               	.LFB54:
 4778               	.LM494:
 4779               	.LVL358:
 4780 1aa0 AF92      		push r10
 4781 1aa2 BF92      		push r11
 4782 1aa4 CF92      		push r12
 4783 1aa6 DF92      		push r13
 4784 1aa8 EF92      		push r14
 4785 1aaa FF92      		push r15
 4786 1aac 0F93      		push r16
 4787 1aae 1F93      		push r17
 4788 1ab0 CF93      		push r28
 4789 1ab2 DF93      		push r29
 4790               	/* prologue: function */
 4791               	/* frame size = 0 */
 4792 1ab4 5C01      		movw r10,r24
 4793 1ab6 6B01      		movw r12,r22
 4794               	.LM495:
 4795 1ab8 DC01      		movw r26,r24
 4796 1aba 1496      		adiw r26,4
 4797 1abc 6D93      		st X+,r22
 4798 1abe 7C93      		st X,r23
 4799 1ac0 1597      		sbiw r26,4+1
 4800               	.LM496:
 4801 1ac2 1696      		adiw r26,6
 4802 1ac4 4D91      		ld r20,X+
 4803 1ac6 5D91      		ld r21,X+
 4804 1ac8 6D91      		ld r22,X+
 4805 1aca 7C91      		ld r23,X
 4806 1acc 1997      		sbiw r26,6+3
 4807               	.LVL359:
 4808               	.LM497:
 4809 1ace 4130      		cpi r20,lo8(1)
 4810 1ad0 5105      		cpc r21,__zero_reg__
 4811 1ad2 6105      		cpc r22,__zero_reg__
 4812 1ad4 7105      		cpc r23,__zero_reg__
 4813 1ad6 01F4      		brne .+2
 4814 1ad8 00C0      		rjmp .L381
 4815 1ada ED91      		ld r30,X+
 4816 1adc FC91      		ld r31,X
 4817 1ade 828D      		ldd r24,Z+26
 4818 1ae0 938D      		ldd r25,Z+27
 4819 1ae2 A48D      		ldd r26,Z+28
 4820 1ae4 B58D      		ldd r27,Z+29
 4821               	.LVL360:
 4822 1ae6 4817      		cp r20,r24
 4823 1ae8 5907      		cpc r21,r25
 4824 1aea 6A07      		cpc r22,r26
 4825 1aec 7B07      		cpc r23,r27
 4826 1aee 00F0      		brlo .+2
 4827 1af0 00C0      		rjmp .L381
 4828               	.LM498:
 4829 1af2 4115      		cp r20,__zero_reg__
 4830 1af4 5105      		cpc r21,__zero_reg__
 4831 1af6 6105      		cpc r22,__zero_reg__
 4832 1af8 7105      		cpc r23,__zero_reg__
 4833 1afa 01F4      		brne .L382
 4834 1afc 8081      		ld r24,Z
 4835 1afe 8330      		cpi r24,lo8(3)
 4836 1b00 01F4      		brne .L383
 4837               	.LM499:
 4838 1b02 42A1      		ldd r20,Z+34
 4839 1b04 53A1      		ldd r21,Z+35
 4840 1b06 64A1      		ldd r22,Z+36
 4841 1b08 75A1      		ldd r23,Z+37
 4842               	.LM500:
 4843 1b0a 4115      		cp r20,__zero_reg__
 4844 1b0c 5105      		cpc r21,__zero_reg__
 4845 1b0e 6105      		cpc r22,__zero_reg__
 4846 1b10 7105      		cpc r23,__zero_reg__
 4847 1b12 01F4      		brne .L382
 4848               	.L383:
 4849               	.LM501:
 4850 1b14 F501      		movw r30,r10
 4851 1b16 1286      		std Z+10,__zero_reg__
 4852 1b18 1386      		std Z+11,__zero_reg__
 4853 1b1a 1486      		std Z+12,__zero_reg__
 4854 1b1c 1586      		std Z+13,__zero_reg__
 4855               	.LM502:
 4856 1b1e 0190      		ld __tmp_reg__,Z+
 4857 1b20 F081      		ld r31,Z
 4858 1b22 E02D      		mov r30,__tmp_reg__
 4859 1b24 8085      		ldd r24,Z+8
 4860 1b26 9185      		ldd r25,Z+9
 4861 1b28 C816      		cp r12,r24
 4862 1b2a D906      		cpc r13,r25
 4863 1b2c 00F0      		brlo .+2
 4864 1b2e 00C0      		rjmp .L381
 4865               	.LVL361:
 4866               	.LM503:
 4867 1b30 C601      		movw r24,r12
 4868 1b32 24E0      		ldi r18,4
 4869 1b34 9695      	1:	lsr r25
 4870 1b36 8795      		ror r24
 4871 1b38 2A95      		dec r18
 4872 1b3a 01F4      		brne 1b
 4873 1b3c A0E0      		ldi r26,lo8(0)
 4874 1b3e B0E0      		ldi r27,hi8(0)
 4875 1b40 22A1      		ldd r18,Z+34
 4876 1b42 33A1      		ldd r19,Z+35
 4877 1b44 44A1      		ldd r20,Z+36
 4878 1b46 55A1      		ldd r21,Z+37
 4879 1b48 820F      		add r24,r18
 4880 1b4a 931F      		adc r25,r19
 4881 1b4c A41F      		adc r26,r20
 4882 1b4e B51F      		adc r27,r21
 4883 1b50 F501      		movw r30,r10
 4884 1b52 8687      		std Z+14,r24
 4885 1b54 9787      		std Z+15,r25
 4886 1b56 A08B      		std Z+16,r26
 4887 1b58 B18B      		std Z+17,r27
 4888 1b5a 00C0      		rjmp .L384
 4889               	.LVL362:
 4890               	.L382:
 4891               	.LM504:
 4892 1b5c 8281      		ldd r24,Z+2
 4893 1b5e 082F      		mov r16,r24
 4894               	.LVL363:
 4895 1b60 10E0      		ldi r17,lo8(0)
 4896               	.LVL364:
 4897 1b62 94E0      		ldi r25,4
 4898 1b64 000F      	1:	lsl r16
 4899 1b66 111F      		rol r17
 4900 1b68 9A95      		dec r25
 4901 1b6a 01F4      		brne 1b
 4902               	.LVL365:
 4903 1b6c 00C0      		rjmp .L385
 4904               	.LVL366:
 4905               	.L388:
 4906               	.LM505:
 4907 1b6e CE01      		movw r24,r28
 4908 1b70 0E94 0000 		call get_fat
 4909               	.LVL367:
 4910 1b74 AB01      		movw r20,r22
 4911 1b76 BC01      		movw r22,r24
 4912               	.LVL368:
 4913               	.LM506:
 4914 1b78 4F3F      		cpi r20,lo8(-1)
 4915 1b7a FFEF      		ldi r31,hi8(-1)
 4916 1b7c 5F07      		cpc r21,r31
 4917 1b7e FFEF      		ldi r31,hlo8(-1)
 4918 1b80 6F07      		cpc r22,r31
 4919 1b82 FFEF      		ldi r31,hhi8(-1)
 4920 1b84 7F07      		cpc r23,r31
 4921 1b86 01F4      		brne .L386
 4922 1b88 81E0      		ldi r24,lo8(1)
 4923 1b8a 00C0      		rjmp .L387
 4924               	.L386:
 4925               	.LM507:
 4926 1b8c 4230      		cpi r20,lo8(2)
 4927 1b8e 5105      		cpc r21,__zero_reg__
 4928 1b90 6105      		cpc r22,__zero_reg__
 4929 1b92 7105      		cpc r23,__zero_reg__
 4930 1b94 00F4      		brsh .+2
 4931 1b96 00C0      		rjmp .L381
 4932 1b98 D501      		movw r26,r10
 4933 1b9a ED91      		ld r30,X+
 4934 1b9c FC91      		ld r31,X
 4935 1b9e 828D      		ldd r24,Z+26
 4936 1ba0 938D      		ldd r25,Z+27
 4937 1ba2 A48D      		ldd r26,Z+28
 4938 1ba4 B58D      		ldd r27,Z+29
 4939 1ba6 4817      		cp r20,r24
 4940 1ba8 5907      		cpc r21,r25
 4941 1baa 6A07      		cpc r22,r26
 4942 1bac 7B07      		cpc r23,r27
 4943 1bae 00F0      		brlo .+2
 4944 1bb0 00C0      		rjmp .L381
 4945               	.LM508:
 4946 1bb2 C01A      		sub r12,r16
 4947 1bb4 D10A      		sbc r13,r17
 4948               	.LVL369:
 4949               	.L385:
 4950 1bb6 F501      		movw r30,r10
 4951 1bb8 C081      		ld r28,Z
 4952 1bba D181      		ldd r29,Z+1
 4953               	.LM509:
 4954 1bbc C016      		cp r12,r16
 4955 1bbe D106      		cpc r13,r17
 4956 1bc0 00F4      		brsh .L388
 4957               	.LM510:
 4958 1bc2 D501      		movw r26,r10
 4959 1bc4 1A96      		adiw r26,10
 4960 1bc6 4D93      		st X+,r20
 4961 1bc8 5D93      		st X+,r21
 4962 1bca 6D93      		st X+,r22
 4963 1bcc 7C93      		st X,r23
 4964 1bce 1D97      		sbiw r26,10+3
 4965               	.LBB581:
 4966               	.LBB582:
 4967               	.LM511:
 4968 1bd0 8EEF      		ldi r24,lo8(-2)
 4969 1bd2 E82E      		mov r14,r24
 4970 1bd4 8FEF      		ldi r24,hi8(-2)
 4971 1bd6 F82E      		mov r15,r24
 4972 1bd8 8FEF      		ldi r24,hlo8(-2)
 4973 1bda 082F      		mov r16,r24
 4974 1bdc 8FEF      		ldi r24,hhi8(-2)
 4975 1bde 182F      		mov r17,r24
 4976               	.LVL370:
 4977 1be0 E40E      		add r14,r20
 4978 1be2 F51E      		adc r15,r21
 4979 1be4 061F      		adc r16,r22
 4980 1be6 171F      		adc r17,r23
 4981               	.LM512:
 4982 1be8 8A8D      		ldd r24,Y+26
 4983 1bea 9B8D      		ldd r25,Y+27
 4984 1bec AC8D      		ldd r26,Y+28
 4985 1bee BD8D      		ldd r27,Y+29
 4986 1bf0 0297      		sbiw r24,2
 4987 1bf2 A109      		sbc r26,__zero_reg__
 4988 1bf4 B109      		sbc r27,__zero_reg__
 4989 1bf6 E816      		cp r14,r24
 4990 1bf8 F906      		cpc r15,r25
 4991 1bfa 0A07      		cpc r16,r26
 4992 1bfc 1B07      		cpc r17,r27
 4993 1bfe 00F0      		brlo .L389
 4994 1c00 20E0      		ldi r18,lo8(0)
 4995 1c02 30E0      		ldi r19,hi8(0)
 4996 1c04 40E0      		ldi r20,hlo8(0)
 4997 1c06 50E0      		ldi r21,hhi8(0)
 4998 1c08 00C0      		rjmp .L390
 4999               	.L389:
 5000               	.LM513:
 5001 1c0a 2A81      		ldd r18,Y+2
 5002 1c0c 30E0      		ldi r19,lo8(0)
 5003 1c0e 40E0      		ldi r20,lo8(0)
 5004 1c10 50E0      		ldi r21,hi8(0)
 5005               	.LVL371:
 5006 1c12 C801      		movw r24,r16
 5007 1c14 B701      		movw r22,r14
 5008 1c16 0E94 0000 		call __mulsi3
 5009 1c1a 9B01      		movw r18,r22
 5010 1c1c AC01      		movw r20,r24
 5011 1c1e 8EA1      		ldd r24,Y+38
 5012 1c20 9FA1      		ldd r25,Y+39
 5013 1c22 A8A5      		ldd r26,Y+40
 5014 1c24 B9A5      		ldd r27,Y+41
 5015 1c26 280F      		add r18,r24
 5016 1c28 391F      		adc r19,r25
 5017 1c2a 4A1F      		adc r20,r26
 5018 1c2c 5B1F      		adc r21,r27
 5019               	.LVL372:
 5020               	.L390:
 5021               	.LBE582:
 5022               	.LBE581:
 5023               	.LM514:
 5024 1c2e C601      		movw r24,r12
 5025 1c30 14E0      		ldi r17,4
 5026 1c32 9695      	1:	lsr r25
 5027 1c34 8795      		ror r24
 5028 1c36 1A95      		dec r17
 5029 1c38 01F4      		brne 1b
 5030               	.LVL373:
 5031 1c3a A0E0      		ldi r26,lo8(0)
 5032 1c3c B0E0      		ldi r27,hi8(0)
 5033 1c3e 280F      		add r18,r24
 5034 1c40 391F      		adc r19,r25
 5035 1c42 4A1F      		adc r20,r26
 5036 1c44 5B1F      		adc r21,r27
 5037 1c46 F501      		movw r30,r10
 5038 1c48 2687      		std Z+14,r18
 5039 1c4a 3787      		std Z+15,r19
 5040 1c4c 408B      		std Z+16,r20
 5041 1c4e 518B      		std Z+17,r21
 5042               	.L384:
 5043               	.LM515:
 5044 1c50 FFE0      		ldi r31,lo8(15)
 5045 1c52 CF22      		and r12,r31
 5046 1c54 DD24      		clr r13
 5047 1c56 B5E0      		ldi r27,5
 5048 1c58 CC0C      	1:	lsl r12
 5049 1c5a DD1C      		rol r13
 5050 1c5c BA95      		dec r27
 5051 1c5e 01F4      		brne 1b
 5052 1c60 8EE2      		ldi r24,lo8(46)
 5053 1c62 90E0      		ldi r25,hi8(46)
 5054 1c64 C80E      		add r12,r24
 5055 1c66 D91E      		adc r13,r25
 5056 1c68 D501      		movw r26,r10
 5057 1c6a 8D91      		ld r24,X+
 5058 1c6c 9C91      		ld r25,X
 5059 1c6e 1197      		sbiw r26,1
 5060 1c70 8C0D      		add r24,r12
 5061 1c72 9D1D      		adc r25,r13
 5062 1c74 5296      		adiw r26,18
 5063 1c76 8D93      		st X+,r24
 5064 1c78 9C93      		st X,r25
 5065 1c7a 5397      		sbiw r26,18+1
 5066 1c7c 80E0      		ldi r24,lo8(0)
 5067 1c7e 00C0      		rjmp .L387
 5068               	.LVL374:
 5069               	.L381:
 5070               	.LM516:
 5071 1c80 82E0      		ldi r24,lo8(2)
 5072               	.LVL375:
 5073               	.L387:
 5074               	/* epilogue start */
 5075               	.LM517:
 5076 1c82 DF91      		pop r29
 5077 1c84 CF91      		pop r28
 5078 1c86 1F91      		pop r17
 5079               	.LVL376:
 5080 1c88 0F91      		pop r16
 5081               	.LVL377:
 5082 1c8a FF90      		pop r15
 5083 1c8c EF90      		pop r14
 5084               	.LVL378:
 5085 1c8e DF90      		pop r13
 5086 1c90 CF90      		pop r12
 5087               	.LVL379:
 5088 1c92 BF90      		pop r11
 5089 1c94 AF90      		pop r10
 5090               	.LVL380:
 5091 1c96 0895      		ret
 5092               	.LFE54:
 5095               	dir_next:
 5096               	.LFB55:
 5097               	.LM518:
 5098               	.LVL381:
 5099 1c98 4F92      		push r4
 5100 1c9a 5F92      		push r5
 5101 1c9c 6F92      		push r6
 5102 1c9e 7F92      		push r7
 5103 1ca0 8F92      		push r8
 5104 1ca2 9F92      		push r9
 5105 1ca4 AF92      		push r10
 5106 1ca6 BF92      		push r11
 5107 1ca8 CF92      		push r12
 5108 1caa DF92      		push r13
 5109 1cac EF92      		push r14
 5110 1cae FF92      		push r15
 5111 1cb0 0F93      		push r16
 5112 1cb2 1F93      		push r17
 5113 1cb4 CF93      		push r28
 5114 1cb6 DF93      		push r29
 5115               	/* prologue: function */
 5116               	/* frame size = 0 */
 5117 1cb8 EC01      		movw r28,r24
 5118 1cba D62E      		mov r13,r22
 5119               	.LM519:
 5120 1cbc 6C80      		ldd r6,Y+4
 5121 1cbe 7D80      		ldd r7,Y+5
 5122               	.LVL382:
 5123 1cc0 0894      		sec
 5124 1cc2 611C      		adc r6,__zero_reg__
 5125 1cc4 711C      		adc r7,__zero_reg__
 5126               	.LM520:
 5127 1cc6 6114      		cp r6,__zero_reg__
 5128 1cc8 7104      		cpc r7,__zero_reg__
 5129 1cca 01F4      		brne .+2
 5130 1ccc 00C0      		rjmp .L393
 5131               	.LVL383:
 5132 1cce 8E85      		ldd r24,Y+14
 5133 1cd0 9F85      		ldd r25,Y+15
 5134 1cd2 A889      		ldd r26,Y+16
 5135 1cd4 B989      		ldd r27,Y+17
 5136 1cd6 0097      		sbiw r24,0
 5137 1cd8 A105      		cpc r26,__zero_reg__
 5138 1cda B105      		cpc r27,__zero_reg__
 5139 1cdc 01F4      		brne .+2
 5140 1cde 00C0      		rjmp .L393
 5141               	.LM521:
 5142 1ce0 1FE0      		ldi r17,lo8(15)
 5143 1ce2 412E      		mov r4,r17
 5144 1ce4 512C      		mov r5,__zero_reg__
 5145 1ce6 4620      		and r4,r6
 5146 1ce8 5720      		and r5,r7
 5147 1cea 4114      		cp r4,__zero_reg__
 5148 1cec 5104      		cpc r5,__zero_reg__
 5149 1cee 01F0      		breq .+2
 5150 1cf0 00C0      		rjmp .L394
 5151               	.LM522:
 5152 1cf2 0196      		adiw r24,1
 5153 1cf4 A11D      		adc r26,__zero_reg__
 5154 1cf6 B11D      		adc r27,__zero_reg__
 5155 1cf8 8E87      		std Y+14,r24
 5156 1cfa 9F87      		std Y+15,r25
 5157 1cfc A88B      		std Y+16,r26
 5158 1cfe B98B      		std Y+17,r27
 5159               	.LM523:
 5160 1d00 4A85      		ldd r20,Y+10
 5161 1d02 5B85      		ldd r21,Y+11
 5162 1d04 6C85      		ldd r22,Y+12
 5163 1d06 7D85      		ldd r23,Y+13
 5164 1d08 E881      		ld r30,Y
 5165 1d0a F981      		ldd r31,Y+1
 5166 1d0c 4115      		cp r20,__zero_reg__
 5167 1d0e 5105      		cpc r21,__zero_reg__
 5168 1d10 6105      		cpc r22,__zero_reg__
 5169 1d12 7105      		cpc r23,__zero_reg__
 5170 1d14 01F4      		brne .L395
 5171               	.LM524:
 5172 1d16 8085      		ldd r24,Z+8
 5173 1d18 9185      		ldd r25,Z+9
 5174 1d1a 6816      		cp r6,r24
 5175 1d1c 7906      		cpc r7,r25
 5176 1d1e 00F4      		brsh .+2
 5177 1d20 00C0      		rjmp .L394
 5178 1d22 00C0      		rjmp .L393
 5179               	.L395:
 5180               	.LM525:
 5181 1d24 8281      		ldd r24,Z+2
 5182 1d26 90E0      		ldi r25,lo8(0)
 5183 1d28 0197      		sbiw r24,1
 5184 1d2a 9301      		movw r18,r6
 5185 1d2c A4E0      		ldi r26,4
 5186 1d2e 3695      	1:	lsr r19
 5187 1d30 2795      		ror r18
 5188 1d32 AA95      		dec r26
 5189 1d34 01F4      		brne 1b
 5190 1d36 8223      		and r24,r18
 5191 1d38 9323      		and r25,r19
 5192 1d3a 892B      		or r24,r25
 5193 1d3c 01F0      		breq .+2
 5194 1d3e 00C0      		rjmp .L394
 5195               	.LM526:
 5196 1d40 CF01      		movw r24,r30
 5197 1d42 0E94 0000 		call get_fat
 5198 1d46 7B01      		movw r14,r22
 5199 1d48 8C01      		movw r16,r24
 5200               	.LVL384:
 5201               	.LM527:
 5202 1d4a 6230      		cpi r22,lo8(2)
 5203 1d4c 7105      		cpc r23,__zero_reg__
 5204 1d4e 8105      		cpc r24,__zero_reg__
 5205 1d50 9105      		cpc r25,__zero_reg__
 5206 1d52 00F4      		brsh .+2
 5207 1d54 00C0      		rjmp .L396
 5208               	.LVL385:
 5209               	.LM528:
 5210 1d56 8FEF      		ldi r24,lo8(-1)
 5211 1d58 E816      		cp r14,r24
 5212 1d5a 8FEF      		ldi r24,hi8(-1)
 5213 1d5c F806      		cpc r15,r24
 5214 1d5e 8FEF      		ldi r24,hlo8(-1)
 5215 1d60 0807      		cpc r16,r24
 5216 1d62 8FEF      		ldi r24,hhi8(-1)
 5217 1d64 1807      		cpc r17,r24
 5218 1d66 01F4      		brne .+2
 5219 1d68 00C0      		rjmp .L397
 5220               	.LVL386:
 5221               	.LM529:
 5222 1d6a E881      		ld r30,Y
 5223 1d6c F981      		ldd r31,Y+1
 5224 1d6e 828D      		ldd r24,Z+26
 5225 1d70 938D      		ldd r25,Z+27
 5226 1d72 A48D      		ldd r26,Z+28
 5227 1d74 B58D      		ldd r27,Z+29
 5228 1d76 E816      		cp r14,r24
 5229 1d78 F906      		cpc r15,r25
 5230 1d7a 0A07      		cpc r16,r26
 5231 1d7c 1B07      		cpc r17,r27
 5232 1d7e 00F4      		brsh .+2
 5233 1d80 00C0      		rjmp .L398
 5234               	.LBB583:
 5235               	.LM530:
 5236 1d82 DD20      		tst r13
 5237 1d84 01F4      		brne .+2
 5238 1d86 00C0      		rjmp .L393
 5239               	.LM531:
 5240 1d88 4A85      		ldd r20,Y+10
 5241 1d8a 5B85      		ldd r21,Y+11
 5242 1d8c 6C85      		ldd r22,Y+12
 5243 1d8e 7D85      		ldd r23,Y+13
 5244 1d90 CF01      		movw r24,r30
 5245 1d92 0E94 0000 		call create_chain
 5246 1d96 7B01      		movw r14,r22
 5247 1d98 8C01      		movw r16,r24
 5248               	.LM532:
 5249 1d9a 6115      		cp r22,__zero_reg__
 5250 1d9c 7105      		cpc r23,__zero_reg__
 5251 1d9e 8105      		cpc r24,__zero_reg__
 5252 1da0 9105      		cpc r25,__zero_reg__
 5253 1da2 01F4      		brne .L399
 5254               	.LVL387:
 5255 1da4 87E0      		ldi r24,lo8(7)
 5256 1da6 00C0      		rjmp .L400
 5257               	.L399:
 5258               	.LM533:
 5259 1da8 91E0      		ldi r25,lo8(1)
 5260 1daa E916      		cp r14,r25
 5261 1dac F104      		cpc r15,__zero_reg__
 5262 1dae 0105      		cpc r16,__zero_reg__
 5263 1db0 1105      		cpc r17,__zero_reg__
 5264 1db2 01F4      		brne .+2
 5265 1db4 00C0      		rjmp .L396
 5266               	.LVL388:
 5267               	.LM534:
 5268 1db6 AFEF      		ldi r26,lo8(-1)
 5269 1db8 EA16      		cp r14,r26
 5270 1dba AFEF      		ldi r26,hi8(-1)
 5271 1dbc FA06      		cpc r15,r26
 5272 1dbe AFEF      		ldi r26,hlo8(-1)
 5273 1dc0 0A07      		cpc r16,r26
 5274 1dc2 AFEF      		ldi r26,hhi8(-1)
 5275 1dc4 1A07      		cpc r17,r26
 5276 1dc6 01F4      		brne .+2
 5277 1dc8 00C0      		rjmp .L397
 5278               	.LM535:
 5279 1dca 8881      		ld r24,Y
 5280 1dcc 9981      		ldd r25,Y+1
 5281 1dce 40E0      		ldi r20,lo8(0)
 5282 1dd0 50E0      		ldi r21,hi8(0)
 5283 1dd2 60E0      		ldi r22,hlo8(0)
 5284 1dd4 70E0      		ldi r23,hhi8(0)
 5285 1dd6 0E94 0000 		call move_window
 5286 1dda 8823      		tst r24
 5287 1ddc 01F0      		breq .+2
 5288 1dde 00C0      		rjmp .L397
 5289               	.LBB584:
 5290               	.LBB585:
 5291               	.LM536:
 5292 1de0 E881      		ld r30,Y
 5293 1de2 F981      		ldd r31,Y+1
 5294               	.LVL389:
 5295 1de4 BE96      		adiw r30,46
 5296 1de6 80E0      		ldi r24,lo8(512)
 5297 1de8 92E0      		ldi r25,hi8(512)
 5298               	.LVL390:
 5299 1dea 00C0      		rjmp .L401
 5300               	.L402:
 5301               	.LM537:
 5302 1dec 1192      		st Z+,__zero_reg__
 5303               	.L401:
 5304 1dee 0197      		sbiw r24,1
 5305 1df0 BFEF      		ldi r27,hi8(-1)
 5306 1df2 8F3F      		cpi r24,lo8(-1)
 5307 1df4 9B07      		cpc r25,r27
 5308 1df6 01F4      		brne .L402
 5309               	.LBE585:
 5310               	.LBE584:
 5311               	.LM538:
 5312 1df8 8880      		ld r8,Y
 5313 1dfa 9980      		ldd r9,Y+1
 5314               	.LBB586:
 5315               	.LBB587:
 5316               	.LM539:
 5317 1dfc 4EEF      		ldi r20,lo8(-2)
 5318 1dfe A42E      		mov r10,r20
 5319 1e00 4FEF      		ldi r20,hi8(-2)
 5320 1e02 B42E      		mov r11,r20
 5321 1e04 4FEF      		ldi r20,hlo8(-2)
 5322 1e06 C42E      		mov r12,r20
 5323 1e08 4FEF      		ldi r20,hhi8(-2)
 5324 1e0a D42E      		mov r13,r20
 5325               	.LVL391:
 5326 1e0c AE0C      		add r10,r14
 5327 1e0e BF1C      		adc r11,r15
 5328 1e10 C01E      		adc r12,r16
 5329 1e12 D11E      		adc r13,r17
 5330               	.LM540:
 5331 1e14 F401      		movw r30,r8
 5332               	.LVL392:
 5333 1e16 828D      		ldd r24,Z+26
 5334 1e18 938D      		ldd r25,Z+27
 5335 1e1a A48D      		ldd r26,Z+28
 5336 1e1c B58D      		ldd r27,Z+29
 5337               	.LVL393:
 5338 1e1e 0297      		sbiw r24,2
 5339 1e20 A109      		sbc r26,__zero_reg__
 5340 1e22 B109      		sbc r27,__zero_reg__
 5341 1e24 A816      		cp r10,r24
 5342 1e26 B906      		cpc r11,r25
 5343 1e28 CA06      		cpc r12,r26
 5344 1e2a DB06      		cpc r13,r27
 5345 1e2c 00F0      		brlo .L403
 5346 1e2e 20E0      		ldi r18,lo8(0)
 5347 1e30 30E0      		ldi r19,hi8(0)
 5348 1e32 40E0      		ldi r20,hlo8(0)
 5349 1e34 50E0      		ldi r21,hhi8(0)
 5350 1e36 00C0      		rjmp .L404
 5351               	.L403:
 5352               	.LM541:
 5353 1e38 D401      		movw r26,r8
 5354 1e3a 1296      		adiw r26,2
 5355 1e3c 2C91      		ld r18,X
 5356 1e3e 30E0      		ldi r19,lo8(0)
 5357 1e40 40E0      		ldi r20,lo8(0)
 5358 1e42 50E0      		ldi r21,hi8(0)
 5359 1e44 C601      		movw r24,r12
 5360 1e46 B501      		movw r22,r10
 5361 1e48 0E94 0000 		call __mulsi3
 5362 1e4c 9B01      		movw r18,r22
 5363 1e4e AC01      		movw r20,r24
 5364 1e50 F401      		movw r30,r8
 5365 1e52 86A1      		ldd r24,Z+38
 5366 1e54 97A1      		ldd r25,Z+39
 5367 1e56 A0A5      		ldd r26,Z+40
 5368 1e58 B1A5      		ldd r27,Z+41
 5369 1e5a 280F      		add r18,r24
 5370 1e5c 391F      		adc r19,r25
 5371 1e5e 4A1F      		adc r20,r26
 5372 1e60 5B1F      		adc r21,r27
 5373               	.L404:
 5374               	.LBE587:
 5375               	.LBE586:
 5376               	.LM542:
 5377 1e62 D401      		movw r26,r8
 5378 1e64 9A96      		adiw r26,42
 5379 1e66 2D93      		st X+,r18
 5380 1e68 3D93      		st X+,r19
 5381 1e6a 4D93      		st X+,r20
 5382 1e6c 5C93      		st X,r21
 5383 1e6e 9D97      		sbiw r26,42+3
 5384 1e70 DD24      		clr r13
 5385               	.LVL394:
 5386               	.LM543:
 5387 1e72 CC24      		clr r12
 5388 1e74 C394      		inc r12
 5389 1e76 00C0      		rjmp .L405
 5390               	.L406:
 5391 1e78 C482      		std Z+4,r12
 5392               	.LM544:
 5393 1e7a 8881      		ld r24,Y
 5394 1e7c 9981      		ldd r25,Y+1
 5395 1e7e 40E0      		ldi r20,lo8(0)
 5396 1e80 50E0      		ldi r21,hi8(0)
 5397 1e82 60E0      		ldi r22,hlo8(0)
 5398 1e84 70E0      		ldi r23,hhi8(0)
 5399 1e86 0E94 0000 		call move_window
 5400 1e8a 8823      		tst r24
 5401 1e8c 01F0      		breq .+2
 5402 1e8e 00C0      		rjmp .L397
 5403               	.LM545:
 5404 1e90 E881      		ld r30,Y
 5405 1e92 F981      		ldd r31,Y+1
 5406 1e94 82A5      		ldd r24,Z+42
 5407 1e96 93A5      		ldd r25,Z+43
 5408 1e98 A4A5      		ldd r26,Z+44
 5409 1e9a B5A5      		ldd r27,Z+45
 5410 1e9c 0196      		adiw r24,1
 5411 1e9e A11D      		adc r26,__zero_reg__
 5412 1ea0 B11D      		adc r27,__zero_reg__
 5413 1ea2 82A7      		std Z+42,r24
 5414 1ea4 93A7      		std Z+43,r25
 5415 1ea6 A4A7      		std Z+44,r26
 5416 1ea8 B5A7      		std Z+45,r27
 5417               	.LM546:
 5418 1eaa D394      		inc r13
 5419               	.L405:
 5420 1eac E881      		ld r30,Y
 5421 1eae F981      		ldd r31,Y+1
 5422 1eb0 8281      		ldd r24,Z+2
 5423 1eb2 D816      		cp r13,r24
 5424 1eb4 00F0      		brlo .L406
 5425               	.LM547:
 5426 1eb6 82A5      		ldd r24,Z+42
 5427 1eb8 93A5      		ldd r25,Z+43
 5428 1eba A4A5      		ldd r26,Z+44
 5429 1ebc B5A5      		ldd r27,Z+45
 5430 1ebe 8D19      		sub r24,r13
 5431 1ec0 9109      		sbc r25,__zero_reg__
 5432 1ec2 A109      		sbc r26,__zero_reg__
 5433 1ec4 B109      		sbc r27,__zero_reg__
 5434 1ec6 82A7      		std Z+42,r24
 5435 1ec8 93A7      		std Z+43,r25
 5436 1eca A4A7      		std Z+44,r26
 5437 1ecc B5A7      		std Z+45,r27
 5438               	.LVL395:
 5439               	.L398:
 5440               	.LBE583:
 5441               	.LM548:
 5442 1ece EA86      		std Y+10,r14
 5443 1ed0 FB86      		std Y+11,r15
 5444 1ed2 0C87      		std Y+12,r16
 5445 1ed4 1D87      		std Y+13,r17
 5446               	.LM549:
 5447 1ed6 C880      		ld r12,Y
 5448 1ed8 D980      		ldd r13,Y+1
 5449               	.LBB588:
 5450               	.LBB589:
 5451               	.LM550:
 5452 1eda 8EEF      		ldi r24,lo8(-2)
 5453 1edc 9FEF      		ldi r25,hi8(-2)
 5454 1ede AFEF      		ldi r26,hlo8(-2)
 5455 1ee0 BFEF      		ldi r27,hhi8(-2)
 5456 1ee2 E80E      		add r14,r24
 5457 1ee4 F91E      		adc r15,r25
 5458 1ee6 0A1F      		adc r16,r26
 5459 1ee8 1B1F      		adc r17,r27
 5460               	.LVL396:
 5461               	.LM551:
 5462 1eea F601      		movw r30,r12
 5463 1eec 828D      		ldd r24,Z+26
 5464 1eee 938D      		ldd r25,Z+27
 5465 1ef0 A48D      		ldd r26,Z+28
 5466 1ef2 B58D      		ldd r27,Z+29
 5467 1ef4 0297      		sbiw r24,2
 5468 1ef6 A109      		sbc r26,__zero_reg__
 5469 1ef8 B109      		sbc r27,__zero_reg__
 5470 1efa E816      		cp r14,r24
 5471 1efc F906      		cpc r15,r25
 5472 1efe 0A07      		cpc r16,r26
 5473 1f00 1B07      		cpc r17,r27
 5474 1f02 00F0      		brlo .L407
 5475 1f04 20E0      		ldi r18,lo8(0)
 5476 1f06 30E0      		ldi r19,hi8(0)
 5477 1f08 40E0      		ldi r20,hlo8(0)
 5478 1f0a 50E0      		ldi r21,hhi8(0)
 5479 1f0c 00C0      		rjmp .L408
 5480               	.L407:
 5481               	.LM552:
 5482 1f0e D601      		movw r26,r12
 5483 1f10 1296      		adiw r26,2
 5484 1f12 2C91      		ld r18,X
 5485 1f14 30E0      		ldi r19,lo8(0)
 5486 1f16 40E0      		ldi r20,lo8(0)
 5487 1f18 50E0      		ldi r21,hi8(0)
 5488 1f1a C801      		movw r24,r16
 5489 1f1c B701      		movw r22,r14
 5490               	.LVL397:
 5491 1f1e 0E94 0000 		call __mulsi3
 5492 1f22 9B01      		movw r18,r22
 5493 1f24 AC01      		movw r20,r24
 5494 1f26 F601      		movw r30,r12
 5495 1f28 86A1      		ldd r24,Z+38
 5496 1f2a 97A1      		ldd r25,Z+39
 5497 1f2c A0A5      		ldd r26,Z+40
 5498 1f2e B1A5      		ldd r27,Z+41
 5499 1f30 280F      		add r18,r24
 5500 1f32 391F      		adc r19,r25
 5501 1f34 4A1F      		adc r20,r26
 5502 1f36 5B1F      		adc r21,r27
 5503               	.LVL398:
 5504               	.L408:
 5505               	.LBE589:
 5506               	.LBE588:
 5507               	.LM553:
 5508 1f38 2E87      		std Y+14,r18
 5509 1f3a 3F87      		std Y+15,r19
 5510 1f3c 488B      		std Y+16,r20
 5511 1f3e 598B      		std Y+17,r21
 5512               	.LVL399:
 5513               	.L394:
 5514               	.LM554:
 5515 1f40 6C82      		std Y+4,r6
 5516 1f42 7D82      		std Y+5,r7
 5517               	.LM555:
 5518 1f44 35E0      		ldi r19,5
 5519 1f46 440C      	1:	lsl r4
 5520 1f48 551C      		rol r5
 5521 1f4a 3A95      		dec r19
 5522 1f4c 01F4      		brne 1b
 5523 1f4e 8EE2      		ldi r24,lo8(46)
 5524 1f50 90E0      		ldi r25,hi8(46)
 5525 1f52 480E      		add r4,r24
 5526 1f54 591E      		adc r5,r25
 5527 1f56 8881      		ld r24,Y
 5528 1f58 9981      		ldd r25,Y+1
 5529 1f5a 840D      		add r24,r4
 5530 1f5c 951D      		adc r25,r5
 5531 1f5e 8A8B      		std Y+18,r24
 5532 1f60 9B8B      		std Y+19,r25
 5533 1f62 80E0      		ldi r24,lo8(0)
 5534 1f64 00C0      		rjmp .L400
 5535               	.LVL400:
 5536               	.L393:
 5537               	.LM556:
 5538 1f66 84E0      		ldi r24,lo8(4)
 5539 1f68 00C0      		rjmp .L400
 5540               	.LVL401:
 5541               	.L396:
 5542 1f6a 82E0      		ldi r24,lo8(2)
 5543 1f6c 00C0      		rjmp .L400
 5544               	.LVL402:
 5545               	.L397:
 5546 1f6e 81E0      		ldi r24,lo8(1)
 5547               	.LVL403:
 5548               	.L400:
 5549               	/* epilogue start */
 5550               	.LM557:
 5551 1f70 DF91      		pop r29
 5552 1f72 CF91      		pop r28
 5553               	.LVL404:
 5554 1f74 1F91      		pop r17
 5555 1f76 0F91      		pop r16
 5556 1f78 FF90      		pop r15
 5557 1f7a EF90      		pop r14
 5558               	.LVL405:
 5559 1f7c DF90      		pop r13
 5560               	.LVL406:
 5561 1f7e CF90      		pop r12
 5562 1f80 BF90      		pop r11
 5563 1f82 AF90      		pop r10
 5564               	.LVL407:
 5565 1f84 9F90      		pop r9
 5566 1f86 8F90      		pop r8
 5567 1f88 7F90      		pop r7
 5568 1f8a 6F90      		pop r6
 5569               	.LVL408:
 5570 1f8c 5F90      		pop r5
 5571 1f8e 4F90      		pop r4
 5572 1f90 0895      		ret
 5573               	.LFE55:
 5576               	dir_read:
 5577               	.LFB57:
 5578               	.LM558:
 5579               	.LVL409:
 5580 1f92 CF93      		push r28
 5581 1f94 DF93      		push r29
 5582               	/* prologue: function */
 5583               	/* frame size = 0 */
 5584 1f96 EC01      		movw r28,r24
 5585               	.LM559:
 5586 1f98 94E0      		ldi r25,lo8(4)
 5587               	.LVL410:
 5588 1f9a 00C0      		rjmp .L411
 5589               	.LVL411:
 5590               	.L416:
 5591               	.LM560:
 5592 1f9c 8881      		ld r24,Y
 5593 1f9e 9981      		ldd r25,Y+1
 5594 1fa0 0E94 0000 		call move_window
 5595               	.LVL412:
 5596 1fa4 982F      		mov r25,r24
 5597               	.LVL413:
 5598               	.LM561:
 5599 1fa6 8823      		tst r24
 5600 1fa8 01F4      		brne .L412
 5601               	.LVL414:
 5602               	.LM562:
 5603 1faa EA89      		ldd r30,Y+18
 5604 1fac FB89      		ldd r31,Y+19
 5605               	.LVL415:
 5606               	.LM563:
 5607 1fae 8081      		ld r24,Z
 5608               	.LVL416:
 5609               	.LM564:
 5610 1fb0 8823      		tst r24
 5611 1fb2 01F0      		breq .L413
 5612               	.LM565:
 5613 1fb4 853E      		cpi r24,lo8(-27)
 5614 1fb6 01F0      		breq .L414
 5615 1fb8 8E32      		cpi r24,lo8(46)
 5616 1fba 01F0      		breq .L414
 5617 1fbc 8385      		ldd r24,Z+11
 5618               	.LVL417:
 5619 1fbe 83FF      		sbrs r24,3
 5620 1fc0 00C0      		rjmp .L415
 5621               	.LVL418:
 5622               	.L414:
 5623               	.LM566:
 5624 1fc2 CE01      		movw r24,r28
 5625               	.LVL419:
 5626 1fc4 60E0      		ldi r22,lo8(0)
 5627 1fc6 0E94 0000 		call dir_next
 5628               	.LVL420:
 5629 1fca 982F      		mov r25,r24
 5630               	.LVL421:
 5631               	.LM567:
 5632 1fcc 8823      		tst r24
 5633 1fce 01F4      		brne .L412
 5634               	.LVL422:
 5635               	.L411:
 5636               	.LM568:
 5637 1fd0 4E85      		ldd r20,Y+14
 5638 1fd2 5F85      		ldd r21,Y+15
 5639 1fd4 6889      		ldd r22,Y+16
 5640 1fd6 7989      		ldd r23,Y+17
 5641 1fd8 4115      		cp r20,__zero_reg__
 5642 1fda 5105      		cpc r21,__zero_reg__
 5643 1fdc 6105      		cpc r22,__zero_reg__
 5644 1fde 7105      		cpc r23,__zero_reg__
 5645 1fe0 01F4      		brne .L416
 5646               	.LM569:
 5647 1fe2 9923      		tst r25
 5648 1fe4 01F0      		breq .L415
 5649               	.LVL423:
 5650               	.L412:
 5651 1fe6 1E86      		std Y+14,__zero_reg__
 5652 1fe8 1F86      		std Y+15,__zero_reg__
 5653 1fea 188A      		std Y+16,__zero_reg__
 5654 1fec 198A      		std Y+17,__zero_reg__
 5655               	.L415:
 5656               	.LM570:
 5657 1fee 892F      		mov r24,r25
 5658               	.LVL424:
 5659               	/* epilogue start */
 5660 1ff0 DF91      		pop r29
 5661 1ff2 CF91      		pop r28
 5662               	.LVL425:
 5663 1ff4 0895      		ret
 5664               	.LVL426:
 5665               	.L413:
 5666               	.LM571:
 5667 1ff6 94E0      		ldi r25,lo8(4)
 5668 1ff8 00C0      		rjmp .L412
 5669               	.LFE57:
 5672               	dir_register:
 5673               	.LFB58:
 5674               	.LM572:
 5675               	.LVL427:
 5676 1ffa CF93      		push r28
 5677 1ffc DF93      		push r29
 5678               	/* prologue: function */
 5679               	/* frame size = 0 */
 5680 1ffe EC01      		movw r28,r24
 5681               	.LM573:
 5682 2000 60E0      		ldi r22,lo8(0)
 5683 2002 70E0      		ldi r23,hi8(0)
 5684 2004 0E94 0000 		call dir_seek
 5685               	.LVL428:
 5686               	.L430:
 5687 2008 482F      		mov r20,r24
 5688               	.LVL429:
 5689               	.LM574:
 5690 200a 8823      		tst r24
 5691 200c 01F4      		brne .L419
 5692               	.LVL430:
 5693               	.LM575:
 5694 200e 4E85      		ldd r20,Y+14
 5695 2010 5F85      		ldd r21,Y+15
 5696 2012 6889      		ldd r22,Y+16
 5697 2014 7989      		ldd r23,Y+17
 5698 2016 8881      		ld r24,Y
 5699 2018 9981      		ldd r25,Y+1
 5700               	.LVL431:
 5701 201a 0E94 0000 		call move_window
 5702 201e 482F      		mov r20,r24
 5703               	.LVL432:
 5704               	.LM576:
 5705 2020 8823      		tst r24
 5706 2022 01F4      		brne .L419
 5707               	.LVL433:
 5708               	.LM577:
 5709 2024 EA89      		ldd r30,Y+18
 5710 2026 FB89      		ldd r31,Y+19
 5711 2028 E081      		ld r30,Z
 5712               	.LVL434:
 5713               	.LM578:
 5714 202a E53E      		cpi r30,lo8(-27)
 5715 202c 01F0      		breq .L420
 5716 202e EE23      		tst r30
 5717 2030 01F0      		breq .L420
 5718               	.LM579:
 5719 2032 CE01      		movw r24,r28
 5720               	.LVL435:
 5721 2034 61E0      		ldi r22,lo8(1)
 5722 2036 0E94 0000 		call dir_next
 5723               	.LVL436:
 5724 203a 00C0      		rjmp .L430
 5725               	.LVL437:
 5726               	.L426:
 5727               	.LM580:
 5728 203c 6A89      		ldd r22,Y+18
 5729 203e 7B89      		ldd r23,Y+19
 5730               	.LVL438:
 5731 2040 FB01      		movw r30,r22
 5732 2042 80E2      		ldi r24,lo8(32)
 5733 2044 90E0      		ldi r25,hi8(32)
 5734               	.LVL439:
 5735 2046 00C0      		rjmp .L422
 5736               	.LVL440:
 5737               	.L423:
 5738               	.LBB590:
 5739               	.LBB591:
 5740               	.LM581:
 5741 2048 1192      		st Z+,__zero_reg__
 5742               	.L422:
 5743 204a 0197      		sbiw r24,1
 5744 204c 2FEF      		ldi r18,hi8(-1)
 5745 204e 8F3F      		cpi r24,lo8(-1)
 5746 2050 9207      		cpc r25,r18
 5747 2052 01F4      		brne .L423
 5748               	.LBE591:
 5749               	.LBE590:
 5750               	.LM582:
 5751 2054 8C89      		ldd r24,Y+20
 5752               	.LVL441:
 5753 2056 9D89      		ldd r25,Y+21
 5754               	.LVL442:
 5755 2058 9C01      		movw r18,r24
 5756               	.LVL443:
 5757 205a D901      		movw r26,r18
 5758               	.LVL444:
 5759 205c FB01      		movw r30,r22
 5760 205e 2BE0      		ldi r18,lo8(11)
 5761 2060 30E0      		ldi r19,hi8(11)
 5762               	.LVL445:
 5763 2062 00C0      		rjmp .L424
 5764               	.L425:
 5765               	.LBB592:
 5766               	.LBB593:
 5767               	.LM583:
 5768 2064 8D91      		ld r24,X+
 5769 2066 8193      		st Z+,r24
 5770               	.L424:
 5771 2068 2150      		subi r18,lo8(-(-1))
 5772 206a 3040      		sbci r19,hi8(-(-1))
 5773 206c 8FEF      		ldi r24,hi8(-1)
 5774 206e 2F3F      		cpi r18,lo8(-1)
 5775 2070 3807      		cpc r19,r24
 5776 2072 01F4      		brne .L425
 5777               	.LBE593:
 5778               	.LBE592:
 5779               	.LM584:
 5780 2074 EC89      		ldd r30,Y+20
 5781 2076 FD89      		ldd r31,Y+21
 5782               	.LVL446:
 5783 2078 8385      		ldd r24,Z+11
 5784 207a 8871      		andi r24,lo8(24)
 5785 207c FB01      		movw r30,r22
 5786 207e 8487      		std Z+12,r24
 5787               	.LM585:
 5788 2080 E881      		ld r30,Y
 5789 2082 F981      		ldd r31,Y+1
 5790 2084 81E0      		ldi r24,lo8(1)
 5791 2086 8483      		std Z+4,r24
 5792               	.LVL447:
 5793               	.L419:
 5794               	.LM586:
 5795 2088 842F      		mov r24,r20
 5796               	/* epilogue start */
 5797 208a DF91      		pop r29
 5798 208c CF91      		pop r28
 5799               	.LVL448:
 5800 208e 0895      		ret
 5801               	.LVL449:
 5802               	.L420:
 5803               	.LM587:
 5804 2090 4E85      		ldd r20,Y+14
 5805 2092 5F85      		ldd r21,Y+15
 5806 2094 6889      		ldd r22,Y+16
 5807 2096 7989      		ldd r23,Y+17
 5808 2098 8881      		ld r24,Y
 5809 209a 9981      		ldd r25,Y+1
 5810               	.LVL450:
 5811 209c 0E94 0000 		call move_window
 5812               	.LVL451:
 5813 20a0 482F      		mov r20,r24
 5814               	.LVL452:
 5815               	.LM588:
 5816 20a2 8823      		tst r24
 5817 20a4 01F0      		breq .L426
 5818               	.LVL453:
 5819 20a6 00C0      		rjmp .L419
 5820               	.LFE58:
 5823               	dir_remove:
 5824               	.LFB59:
 5825               	.LM589:
 5826               	.LVL454:
 5827 20a8 CF93      		push r28
 5828 20aa DF93      		push r29
 5829               	/* prologue: function */
 5830               	/* frame size = 0 */
 5831 20ac EC01      		movw r28,r24
 5832               	.LM590:
 5833 20ae 6C81      		ldd r22,Y+4
 5834 20b0 7D81      		ldd r23,Y+5
 5835 20b2 0E94 0000 		call dir_seek
 5836               	.LVL455:
 5837 20b6 982F      		mov r25,r24
 5838               	.LVL456:
 5839               	.LM591:
 5840 20b8 8823      		tst r24
 5841 20ba 01F4      		brne .L432
 5842               	.LVL457:
 5843               	.LM592:
 5844 20bc 4E85      		ldd r20,Y+14
 5845 20be 5F85      		ldd r21,Y+15
 5846 20c0 6889      		ldd r22,Y+16
 5847 20c2 7989      		ldd r23,Y+17
 5848 20c4 8881      		ld r24,Y
 5849 20c6 9981      		ldd r25,Y+1
 5850               	.LVL458:
 5851 20c8 0E94 0000 		call move_window
 5852               	.LVL459:
 5853 20cc 982F      		mov r25,r24
 5854               	.LVL460:
 5855               	.LM593:
 5856 20ce 8823      		tst r24
 5857 20d0 01F4      		brne .L432
 5858               	.LVL461:
 5859               	.LM594:
 5860 20d2 EA89      		ldd r30,Y+18
 5861 20d4 FB89      		ldd r31,Y+19
 5862 20d6 85EE      		ldi r24,lo8(-27)
 5863               	.LVL462:
 5864 20d8 8083      		st Z,r24
 5865               	.LM595:
 5866 20da E881      		ld r30,Y
 5867 20dc F981      		ldd r31,Y+1
 5868 20de 81E0      		ldi r24,lo8(1)
 5869 20e0 8483      		std Z+4,r24
 5870               	.LVL463:
 5871               	.L432:
 5872               	.LM596:
 5873 20e2 892F      		mov r24,r25
 5874               	/* epilogue start */
 5875 20e4 DF91      		pop r29
 5876 20e6 CF91      		pop r28
 5877               	.LVL464:
 5878 20e8 0895      		ret
 5879               	.LFE59:
 5882               	get_fileinfo:
 5883               	.LFB61:
 5884               	.LM597:
 5885               	.LVL465:
 5886 20ea EF92      		push r14
 5887 20ec FF92      		push r15
 5888 20ee 0F93      		push r16
 5889 20f0 1F93      		push r17
 5890 20f2 CF93      		push r28
 5891 20f4 DF93      		push r29
 5892               	/* prologue: function */
 5893               	/* frame size = 0 */
 5894 20f6 FC01      		movw r30,r24
 5895 20f8 7B01      		movw r14,r22
 5896               	.LM598:
 5897 20fa EB01      		movw r28,r22
 5898               	.LVL466:
 5899 20fc 2996      		adiw r28,9
 5900               	.LM599:
 5901 20fe 8685      		ldd r24,Z+14
 5902 2100 9785      		ldd r25,Z+15
 5903 2102 A089      		ldd r26,Z+16
 5904 2104 B189      		ldd r27,Z+17
 5905               	.LVL467:
 5906 2106 0097      		sbiw r24,0
 5907 2108 A105      		cpc r26,__zero_reg__
 5908 210a B105      		cpc r27,__zero_reg__
 5909 210c 01F4      		brne .+2
 5910 210e 00C0      		rjmp .L435
 5911               	.LM600:
 5912 2110 6289      		ldd r22,Z+18
 5913 2112 7389      		ldd r23,Z+19
 5914               	.LVL468:
 5915 2114 80E0      		ldi r24,lo8(0)
 5916 2116 90E0      		ldi r25,hi8(0)
 5917               	.LVL469:
 5918               	.L438:
 5919               	.LM601:
 5920 2118 FB01      		movw r30,r22
 5921               	.LVL470:
 5922 211a E80F      		add r30,r24
 5923 211c F91F      		adc r31,r25
 5924 211e E081      		ld r30,Z
 5925               	.LVL471:
 5926               	.LM602:
 5927 2120 E032      		cpi r30,lo8(32)
 5928 2122 01F0      		breq .L436
 5929               	.LM603:
 5930 2124 E530      		cpi r30,lo8(5)
 5931 2126 01F4      		brne .L437
 5932 2128 E5EE      		ldi r30,lo8(-27)
 5933               	.L437:
 5934               	.LM604:
 5935 212a E993      		st Y+,r30
 5936               	.LM605:
 5937 212c 0196      		adiw r24,1
 5938 212e 8830      		cpi r24,8
 5939 2130 9105      		cpc r25,__zero_reg__
 5940 2132 01F4      		brne .L438
 5941               	.L436:
 5942               	.LM606:
 5943 2134 DB01      		movw r26,r22
 5944 2136 1896      		adiw r26,8
 5945 2138 8C91      		ld r24,X
 5946               	.LVL472:
 5947 213a 8032      		cpi r24,lo8(32)
 5948 213c 01F4      		brne .L439
 5949 213e 8E01      		movw r16,r28
 5950 2140 00C0      		rjmp .L440
 5951               	.LVL473:
 5952               	.L439:
 5953               	.LM607:
 5954 2142 8EE2      		ldi r24,lo8(46)
 5955 2144 FE01      		movw r30,r28
 5956               	.LVL474:
 5957 2146 8193      		st Z+,r24
 5958 2148 8F01      		movw r16,r30
 5959               	.LVL475:
 5960 214a FB01      		movw r30,r22
 5961               	.LM608:
 5962 214c 9E01      		movw r18,r28
 5963 214e 2C5F      		subi r18,lo8(-(4))
 5964 2150 3F4F      		sbci r19,hi8(-(4))
 5965               	.LVL476:
 5966               	.L441:
 5967               	.LM609:
 5968 2152 8085      		ldd r24,Z+8
 5969               	.LM610:
 5970 2154 8032      		cpi r24,lo8(32)
 5971 2156 01F0      		breq .L440
 5972               	.LM611:
 5973 2158 D801      		movw r26,r16
 5974 215a 8D93      		st X+,r24
 5975 215c 8D01      		movw r16,r26
 5976 215e 3196      		adiw r30,1
 5977               	.LM612:
 5978 2160 A217      		cp r26,r18
 5979 2162 B307      		cpc r27,r19
 5980 2164 01F4      		brne .L441
 5981               	.LVL477:
 5982               	.L440:
 5983               	.LM613:
 5984 2166 FB01      		movw r30,r22
 5985 2168 8385      		ldd r24,Z+11
 5986               	.LVL478:
 5987 216a D701      		movw r26,r14
 5988 216c 1896      		adiw r26,8
 5989 216e 8C93      		st X,r24
 5990               	.LM614:
 5991 2170 278D      		ldd r18,Z+31
 5992 2172 30E0      		ldi r19,lo8(0)
 5993 2174 40E0      		ldi r20,lo8(0)
 5994 2176 50E0      		ldi r21,hi8(0)
 5995 2178 522F      		mov r21,r18
 5996 217a 4427      		clr r20
 5997 217c 3327      		clr r19
 5998 217e 2227      		clr r18
 5999 2180 868D      		ldd r24,Z+30
 6000 2182 90E0      		ldi r25,lo8(0)
 6001 2184 A0E0      		ldi r26,lo8(0)
 6002 2186 B0E0      		ldi r27,hi8(0)
 6003 2188 DC01      		movw r26,r24
 6004 218a 9927      		clr r25
 6005 218c 8827      		clr r24
 6006 218e 282B      		or r18,r24
 6007 2190 392B      		or r19,r25
 6008 2192 4A2B      		or r20,r26
 6009 2194 5B2B      		or r21,r27
 6010 2196 848D      		ldd r24,Z+28
 6011 2198 90E0      		ldi r25,lo8(0)
 6012 219a A0E0      		ldi r26,lo8(0)
 6013 219c B0E0      		ldi r27,hi8(0)
 6014 219e 282B      		or r18,r24
 6015 21a0 392B      		or r19,r25
 6016 21a2 4A2B      		or r20,r26
 6017 21a4 5B2B      		or r21,r27
 6018 21a6 958D      		ldd r25,Z+29
 6019 21a8 80E0      		ldi r24,lo8(0)
 6020 21aa A0E0      		ldi r26,lo8(0)
 6021 21ac B0E0      		ldi r27,hi8(0)
 6022 21ae 282B      		or r18,r24
 6023 21b0 392B      		or r19,r25
 6024 21b2 4A2B      		or r20,r26
 6025 21b4 5B2B      		or r21,r27
 6026 21b6 F701      		movw r30,r14
 6027 21b8 2083      		st Z,r18
 6028 21ba 3183      		std Z+1,r19
 6029 21bc 4283      		std Z+2,r20
 6030 21be 5383      		std Z+3,r21
 6031               	.LM615:
 6032 21c0 DB01      		movw r26,r22
 6033 21c2 5996      		adiw r26,25
 6034 21c4 9C91      		ld r25,X
 6035 21c6 5997      		sbiw r26,25
 6036 21c8 80E0      		ldi r24,lo8(0)
 6037 21ca 5896      		adiw r26,24
 6038 21cc 2C91      		ld r18,X
 6039 21ce 5897      		sbiw r26,24
 6040 21d0 30E0      		ldi r19,lo8(0)
 6041 21d2 822B      		or r24,r18
 6042 21d4 932B      		or r25,r19
 6043 21d6 8483      		std Z+4,r24
 6044 21d8 9583      		std Z+5,r25
 6045               	.LM616:
 6046 21da 5796      		adiw r26,23
 6047 21dc 9C91      		ld r25,X
 6048 21de 5797      		sbiw r26,23
 6049 21e0 80E0      		ldi r24,lo8(0)
 6050 21e2 5696      		adiw r26,22
 6051 21e4 2C91      		ld r18,X
 6052 21e6 30E0      		ldi r19,lo8(0)
 6053 21e8 822B      		or r24,r18
 6054 21ea 932B      		or r25,r19
 6055 21ec 8683      		std Z+6,r24
 6056 21ee 9783      		std Z+7,r25
 6057 21f0 E801      		movw r28,r16
 6058               	.LVL479:
 6059               	.L435:
 6060               	.LM617:
 6061 21f2 1882      		st Y,__zero_reg__
 6062               	/* epilogue start */
 6063               	.LM618:
 6064 21f4 DF91      		pop r29
 6065 21f6 CF91      		pop r28
 6066               	.LVL480:
 6067 21f8 1F91      		pop r17
 6068 21fa 0F91      		pop r16
 6069               	.LVL481:
 6070 21fc FF90      		pop r15
 6071 21fe EF90      		pop r14
 6072               	.LVL482:
 6073 2200 0895      		ret
 6074               	.LFE61:
 6076               		.data
 6077               	.LC0:
 6078 0000 2022 2A2B 		.string	" \"*+,[=]|\177"
 6078      2C5B 3D5D 
 6078      7C7F 00
 6079               		.text
 6081               	follow_path:
 6082               	.LFB62:
 6083               	.LM619:
 6084               	.LVL483:
 6085 2202 5F92      		push r5
 6086 2204 6F92      		push r6
 6087 2206 7F92      		push r7
 6088 2208 8F92      		push r8
 6089 220a 9F92      		push r9
 6090 220c AF92      		push r10
 6091 220e BF92      		push r11
 6092 2210 CF92      		push r12
 6093 2212 DF92      		push r13
 6094 2214 EF92      		push r14
 6095 2216 FF92      		push r15
 6096 2218 0F93      		push r16
 6097 221a 1F93      		push r17
 6098 221c CF93      		push r28
 6099 221e DF93      		push r29
 6100               	/* prologue: function */
 6101               	/* frame size = 0 */
 6102 2220 EC01      		movw r28,r24
 6103 2222 7B01      		movw r14,r22
 6104 2224 00C0      		rjmp .L446
 6105               	.LVL484:
 6106               	.L447:
 6107               	.LM620:
 6108 2226 0894      		sec
 6109 2228 E11C      		adc r14,__zero_reg__
 6110 222a F11C      		adc r15,__zero_reg__
 6111               	.LVL485:
 6112               	.L446:
 6113 222c F701      		movw r30,r14
 6114 222e 8081      		ld r24,Z
 6115 2230 8032      		cpi r24,lo8(32)
 6116 2232 01F0      		breq .L447
 6117               	.LM621:
 6118 2234 8F32      		cpi r24,lo8(47)
 6119 2236 01F0      		breq .L448
 6120 2238 8C35      		cpi r24,lo8(92)
 6121 223a 01F4      		brne .L449
 6122               	.L448:
 6123               	.LM622:
 6124 223c 0894      		sec
 6125 223e E11C      		adc r14,__zero_reg__
 6126 2240 F11C      		adc r15,__zero_reg__
 6127               	.LVL486:
 6128               	.L449:
 6129               	.LM623:
 6130 2242 1E82      		std Y+6,__zero_reg__
 6131 2244 1F82      		std Y+7,__zero_reg__
 6132 2246 1886      		std Y+8,__zero_reg__
 6133 2248 1986      		std Y+9,__zero_reg__
 6134               	.LM624:
 6135 224a F701      		movw r30,r14
 6136 224c 8081      		ld r24,Z
 6137 224e 8032      		cpi r24,lo8(32)
 6138 2250 00F4      		brsh .L450
 6139               	.LM625:
 6140 2252 CE01      		movw r24,r28
 6141 2254 60E0      		ldi r22,lo8(0)
 6142 2256 70E0      		ldi r23,hi8(0)
 6143 2258 0E94 0000 		call dir_seek
 6144               	.LM626:
 6145 225c 1A8A      		std Y+18,__zero_reg__
 6146 225e 1B8A      		std Y+19,__zero_reg__
 6147 2260 00C0      		rjmp .L451
 6148               	.LVL487:
 6149               	.L450:
 6150               	.LBB594:
 6151               	.LBB595:
 6152               	.LBB599:
 6153               	.LBB600:
 6154               	.LM627:
 6155 2262 00E2      		ldi r16,lo8(32)
 6156               	.LBE600:
 6157               	.LBE599:
 6158               	.LM628:
 6159 2264 45E0      		ldi r20,lo8(5)
 6160 2266 542E      		mov r5,r20
 6161               	.LVL488:
 6162               	.L486:
 6163               	.LM629:
 6164 2268 AC89      		ldd r26,Y+20
 6165 226a BD89      		ldd r27,Y+21
 6166               	.LVL489:
 6167 226c FD01      		movw r30,r26
 6168               	.LVL490:
 6169 226e 8BE0      		ldi r24,lo8(11)
 6170 2270 90E0      		ldi r25,hi8(11)
 6171               	.LVL491:
 6172 2272 00C0      		rjmp .L452
 6173               	.LVL492:
 6174               	.L453:
 6175               	.LBB598:
 6176               	.LBB601:
 6177               	.LM630:
 6178 2274 0193      		st Z+,r16
 6179               	.L452:
 6180 2276 0197      		sbiw r24,1
 6181 2278 2FEF      		ldi r18,hi8(-1)
 6182 227a 8F3F      		cpi r24,lo8(-1)
 6183 227c 9207      		cpc r25,r18
 6184 227e 01F4      		brne .L453
 6185 2280 40E0      		ldi r20,lo8(0)
 6186 2282 50E0      		ldi r21,hi8(0)
 6187               	.LVL493:
 6188 2284 CC24      		clr r12
 6189 2286 DD24      		clr r13
 6190 2288 38E0      		ldi r19,lo8(8)
 6191 228a A32E      		mov r10,r19
 6192 228c B12C      		mov r11,__zero_reg__
 6193 228e 10E0      		ldi r17,lo8(0)
 6194               	.LVL494:
 6195               	.L485:
 6196               	.LBE601:
 6197               	.LBE598:
 6198               	.LM631:
 6199 2290 F701      		movw r30,r14
 6200 2292 EC0D      		add r30,r12
 6201 2294 FD1D      		adc r31,r13
 6202 2296 2081      		ld r18,Z
 6203 2298 0894      		sec
 6204 229a C11C      		adc r12,__zero_reg__
 6205 229c D11C      		adc r13,__zero_reg__
 6206               	.LM632:
 6207 229e 2132      		cpi r18,lo8(33)
 6208 22a0 00F4      		brsh .+2
 6209 22a2 00C0      		rjmp .L454
 6210 22a4 2F32      		cpi r18,lo8(47)
 6211 22a6 01F4      		brne .+2
 6212 22a8 00C0      		rjmp .L455
 6213 22aa 2C35      		cpi r18,lo8(92)
 6214 22ac 01F4      		brne .+2
 6215 22ae 00C0      		rjmp .L455
 6216               	.LM633:
 6217 22b0 2E32      		cpi r18,lo8(46)
 6218 22b2 01F0      		breq .L456
 6219 22b4 4A15      		cp r20,r10
 6220 22b6 5B05      		cpc r21,r11
 6221 22b8 04F0      		brlt .L457
 6222               	.L456:
 6223               	.LM634:
 6224 22ba 88E0      		ldi r24,lo8(8)
 6225 22bc A816      		cp r10,r24
 6226 22be B104      		cpc r11,__zero_reg__
 6227               	.LVL495:
 6228 22c0 01F0      		breq .+2
 6229 22c2 00C0      		rjmp .L458
 6230 22c4 2E32      		cpi r18,lo8(46)
 6231 22c6 01F0      		breq .+2
 6232 22c8 00C0      		rjmp .L458
 6233               	.LM635:
 6234 22ca 110F      		lsl r17
 6235 22cc 110F      		lsl r17
 6236 22ce 48E0      		ldi r20,lo8(8)
 6237 22d0 50E0      		ldi r21,hi8(8)
 6238 22d2 2BE0      		ldi r18,lo8(11)
 6239 22d4 A22E      		mov r10,r18
 6240 22d6 B12C      		mov r11,__zero_reg__
 6241               	.LVL496:
 6242 22d8 00C0      		rjmp .L485
 6243               	.LVL497:
 6244               	.L457:
 6245               	.LM636:
 6246 22da 27FD      		sbrc r18,7
 6247               	.LM637:
 6248 22dc 1360      		ori r17,lo8(3)
 6249               	.L460:
 6250               	.LM638:
 6251 22de 822F      		mov r24,r18
 6252               	.LVL498:
 6253 22e0 8158      		subi r24,lo8(-(127))
 6254 22e2 8F31      		cpi r24,lo8(31)
 6255 22e4 00F0      		brlo .L461
 6256 22e6 8F55      		subi r24,lo8(-(-95))
 6257 22e8 8D31      		cpi r24,lo8(29)
 6258 22ea 00F4      		brsh .L462
 6259               	.L461:
 6260               	.LM639:
 6261 22ec F701      		movw r30,r14
 6262 22ee EC0D      		add r30,r12
 6263 22f0 FD1D      		adc r31,r13
 6264 22f2 3081      		ld r19,Z
 6265               	.LM640:
 6266 22f4 832F      		mov r24,r19
 6267 22f6 8054      		subi r24,lo8(-(-64))
 6268 22f8 8F33      		cpi r24,lo8(63)
 6269 22fa 00F0      		brlo .L463
 6270 22fc 8054      		subi r24,lo8(-(-64))
 6271 22fe 8D37      		cpi r24,lo8(125)
 6272 2300 00F0      		brlo .+2
 6273 2302 00C0      		rjmp .L458
 6274               	.L463:
 6275 2304 C501      		movw r24,r10
 6276 2306 0197      		sbiw r24,1
 6277 2308 4817      		cp r20,r24
 6278 230a 5907      		cpc r21,r25
 6279 230c 04F0      		brlt .+2
 6280 230e 00C0      		rjmp .L458
 6281               	.LM641:
 6282 2310 0894      		sec
 6283 2312 C11C      		adc r12,__zero_reg__
 6284 2314 D11C      		adc r13,__zero_reg__
 6285               	.LM642:
 6286 2316 FD01      		movw r30,r26
 6287 2318 E40F      		add r30,r20
 6288 231a F51F      		adc r31,r21
 6289 231c 2083      		st Z,r18
 6290 231e CA01      		movw r24,r20
 6291 2320 0196      		adiw r24,1
 6292               	.LVL499:
 6293               	.LM643:
 6294 2322 FD01      		movw r30,r26
 6295 2324 E80F      		add r30,r24
 6296 2326 F91F      		adc r31,r25
 6297 2328 3083      		st Z,r19
 6298 232a AC01      		movw r20,r24
 6299 232c 00C0      		rjmp .L487
 6300               	.LVL500:
 6301               	.L462:
 6302               	.LM644:
 6303 232e 622F      		mov r22,r18
 6304 2330 70E0      		ldi r23,lo8(0)
 6305 2332 E0E0      		ldi r30,lo8(.LC0)
 6306 2334 F0E0      		ldi r31,hi8(.LC0)
 6307               	.LVL501:
 6308 2336 00C0      		rjmp .L464
 6309               	.L466:
 6310               	.LBB596:
 6311               	.LBB597:
 6312               	.LM645:
 6313 2338 3196      		adiw r30,1
 6314               	.L464:
 6315 233a 8081      		ld r24,Z
 6316 233c 8823      		tst r24
 6317 233e 01F0      		breq .L465
 6318 2340 90E0      		ldi r25,lo8(0)
 6319 2342 8617      		cp r24,r22
 6320 2344 9707      		cpc r25,r23
 6321 2346 01F4      		brne .L466
 6322 2348 00C0      		rjmp .L458
 6323               	.L465:
 6324               	.LBE597:
 6325               	.LBE596:
 6326               	.LM646:
 6327 234a 822F      		mov r24,r18
 6328 234c 8154      		subi r24,lo8(-(-65))
 6329 234e 8A31      		cpi r24,lo8(26)
 6330 2350 00F4      		brsh .L467
 6331               	.LM647:
 6332 2352 1260      		ori r17,lo8(2)
 6333 2354 00C0      		rjmp .L468
 6334               	.L467:
 6335               	.LM648:
 6336 2356 822F      		mov r24,r18
 6337 2358 8156      		subi r24,lo8(-(-97))
 6338 235a 8A31      		cpi r24,lo8(26)
 6339 235c 00F4      		brsh .L468
 6340               	.LM649:
 6341 235e 1160      		ori r17,lo8(1)
 6342 2360 2052      		subi r18,lo8(-(-32))
 6343               	.L468:
 6344               	.LM650:
 6345 2362 FD01      		movw r30,r26
 6346               	.LVL502:
 6347 2364 E40F      		add r30,r20
 6348 2366 F51F      		adc r31,r21
 6349 2368 2083      		st Z,r18
 6350               	.LVL503:
 6351               	.L487:
 6352 236a 4F5F      		subi r20,lo8(-(1))
 6353 236c 5F4F      		sbci r21,hi8(-(1))
 6354 236e 00C0      		rjmp .L485
 6355               	.LVL504:
 6356               	.L454:
 6357 2370 912F      		mov r25,r17
 6358 2372 64E0      		ldi r22,lo8(4)
 6359               	.LVL505:
 6360               	.L481:
 6361               	.LM651:
 6362 2374 452B      		or r20,r21
 6363 2376 01F4      		brne .+2
 6364 2378 00C0      		rjmp .L458
 6365               	.LM652:
 6366 237a 8C91      		ld r24,X
 6367               	.LVL506:
 6368 237c 853E      		cpi r24,lo8(-27)
 6369 237e 01F4      		brne .L469
 6370 2380 5C92      		st X,r5
 6371               	.L469:
 6372               	.LM653:
 6373 2382 E8E0      		ldi r30,lo8(8)
 6374 2384 AE16      		cp r10,r30
 6375 2386 B104      		cpc r11,__zero_reg__
 6376 2388 01F4      		brne .L470
 6377 238a 912F      		mov r25,r17
 6378 238c 990F      		lsl r25
 6379 238e 990F      		lsl r25
 6380               	.LVL507:
 6381               	.L470:
 6382               	.LM654:
 6383 2390 292F      		mov r18,r25
 6384 2392 30E0      		ldi r19,lo8(0)
 6385               	.LVL508:
 6386 2394 C901      		movw r24,r18
 6387 2396 8370      		andi r24,lo8(3)
 6388 2398 9070      		andi r25,hi8(3)
 6389 239a 0197      		sbiw r24,1
 6390 239c 01F4      		brne .L471
 6391 239e 6061      		ori r22,lo8(16)
 6392               	.L471:
 6393               	.LM655:
 6394 23a0 2C70      		andi r18,lo8(12)
 6395 23a2 3070      		andi r19,hi8(12)
 6396 23a4 2430      		cpi r18,4
 6397 23a6 3105      		cpc r19,__zero_reg__
 6398 23a8 01F4      		brne .L472
 6399 23aa 6860      		ori r22,lo8(8)
 6400               	.L472:
 6401               	.LM656:
 6402 23ac 1B96      		adiw r26,11
 6403 23ae 6C93      		st X,r22
 6404               	.LBE595:
 6405               	.LBE594:
 6406               	.LBB603:
 6407               	.LM657:
 6408 23b0 CE01      		movw r24,r28
 6409 23b2 60E0      		ldi r22,lo8(0)
 6410 23b4 70E0      		ldi r23,hi8(0)
 6411               	.LVL509:
 6412 23b6 0E94 0000 		call dir_seek
 6413               	.LVL510:
 6414               	.L488:
 6415 23ba 482F      		mov r20,r24
 6416               	.LVL511:
 6417               	.LBB604:
 6418               	.LM658:
 6419 23bc 8823      		tst r24
 6420 23be 01F4      		brne .L473
 6421               	.LVL512:
 6422               	.LBE604:
 6423               	.LM659:
 6424 23c0 4E85      		ldd r20,Y+14
 6425 23c2 5F85      		ldd r21,Y+15
 6426 23c4 6889      		ldd r22,Y+16
 6427 23c6 7989      		ldd r23,Y+17
 6428 23c8 8881      		ld r24,Y
 6429 23ca 9981      		ldd r25,Y+1
 6430               	.LVL513:
 6431 23cc 0E94 0000 		call move_window
 6432 23d0 482F      		mov r20,r24
 6433               	.LVL514:
 6434               	.LBB607:
 6435               	.LM660:
 6436 23d2 8823      		tst r24
 6437 23d4 01F4      		brne .L473
 6438               	.LVL515:
 6439               	.LM661:
 6440 23d6 EA89      		ldd r30,Y+18
 6441 23d8 FB89      		ldd r31,Y+19
 6442               	.LVL516:
 6443               	.LM662:
 6444 23da 8081      		ld r24,Z
 6445               	.LVL517:
 6446 23dc 8823      		tst r24
 6447 23de 01F4      		brne .L474
 6448 23e0 44E0      		ldi r20,lo8(4)
 6449 23e2 00C0      		rjmp .L473
 6450               	.L474:
 6451               	.LM663:
 6452 23e4 8385      		ldd r24,Z+11
 6453 23e6 83FD      		sbrc r24,3
 6454 23e8 00C0      		rjmp .L475
 6455 23ea DF01      		movw r26,r30
 6456               	.LVL518:
 6457 23ec 8C89      		ldd r24,Y+20
 6458               	.LVL519:
 6459 23ee 9D89      		ldd r25,Y+21
 6460               	.LVL520:
 6461 23f0 9C01      		movw r18,r24
 6462               	.LVL521:
 6463 23f2 F901      		movw r30,r18
 6464               	.LVL522:
 6465 23f4 2BE0      		ldi r18,lo8(11)
 6466 23f6 30E0      		ldi r19,hi8(11)
 6467               	.LVL523:
 6468               	.L476:
 6469               	.LBB605:
 6470               	.LBB606:
 6471               	.LM664:
 6472 23f8 2150      		subi r18,lo8(-(-1))
 6473 23fa 3040      		sbci r19,hi8(-(-1))
 6474 23fc 8FEF      		ldi r24,hi8(-1)
 6475 23fe 2F3F      		cpi r18,lo8(-1)
 6476 2400 3807      		cpc r19,r24
 6477 2402 01F0      		breq .L473
 6478 2404 9C91      		ld r25,X
 6479               	.LVL524:
 6480 2406 8081      		ld r24,Z
 6481 2408 9817      		cp r25,r24
 6482 240a 01F4      		brne .L475
 6483 240c 1196      		adiw r26,1
 6484 240e 3196      		adiw r30,1
 6485 2410 00C0      		rjmp .L476
 6486               	.LVL525:
 6487               	.L475:
 6488               	.LBE606:
 6489               	.LBE605:
 6490               	.LBE607:
 6491               	.LM665:
 6492 2412 CE01      		movw r24,r28
 6493 2414 60E0      		ldi r22,lo8(0)
 6494 2416 0E94 0000 		call dir_next
 6495               	.LVL526:
 6496 241a 00C0      		rjmp .L488
 6497               	.LVL527:
 6498               	.L473:
 6499               	.LBE603:
 6500               	.LM666:
 6501 241c EC89      		ldd r30,Y+20
 6502 241e FD89      		ldd r31,Y+21
 6503               	.LVL528:
 6504 2420 9385      		ldd r25,Z+11
 6505               	.LVL529:
 6506 2422 9470      		andi r25,lo8(4)
 6507               	.LM667:
 6508 2424 4423      		tst r20
 6509 2426 01F0      		breq .L478
 6510 2428 842F      		mov r24,r20
 6511               	.LM668:
 6512 242a 4430      		cpi r20,lo8(4)
 6513 242c 01F4      		brne .L479
 6514 242e 9923      		tst r25
 6515 2430 01F0      		breq .L480
 6516 2432 00C0      		rjmp .L451
 6517               	.L478:
 6518               	.LM669:
 6519 2434 9923      		tst r25
 6520 2436 01F4      		brne .L479
 6521               	.LM670:
 6522 2438 EA89      		ldd r30,Y+18
 6523 243a FB89      		ldd r31,Y+19
 6524               	.LVL530:
 6525               	.LM671:
 6526 243c 8385      		ldd r24,Z+11
 6527 243e 84FF      		sbrs r24,4
 6528 2440 00C0      		rjmp .L480
 6529               	.LBB608:
 6530               	.LBB602:
 6531               	.LM672:
 6532 2442 EC0C      		add r14,r12
 6533 2444 FD1C      		adc r15,r13
 6534               	.LBE602:
 6535               	.LBE608:
 6536               	.LM673:
 6537 2446 7588      		ldd r7,Z+21
 6538 2448 6624      		clr r6
 6539 244a 2489      		ldd r18,Z+20
 6540               	.LVL531:
 6541 244c 30E0      		ldi r19,lo8(0)
 6542 244e 2629      		or r18,r6
 6543 2450 3729      		or r19,r7
 6544 2452 40E0      		ldi r20,lo8(0)
 6545 2454 50E0      		ldi r21,hi8(0)
 6546               	.LVL532:
 6547 2456 A901      		movw r20,r18
 6548 2458 3327      		clr r19
 6549 245a 2227      		clr r18
 6550               	.LVL533:
 6551 245c 938C      		ldd r9,Z+27
 6552 245e 8824      		clr r8
 6553 2460 828D      		ldd r24,Z+26
 6554 2462 90E0      		ldi r25,lo8(0)
 6555 2464 8829      		or r24,r8
 6556 2466 9929      		or r25,r9
 6557 2468 A0E0      		ldi r26,lo8(0)
 6558 246a B0E0      		ldi r27,hi8(0)
 6559               	.LVL534:
 6560 246c 282B      		or r18,r24
 6561 246e 392B      		or r19,r25
 6562 2470 4A2B      		or r20,r26
 6563 2472 5B2B      		or r21,r27
 6564 2474 2E83      		std Y+6,r18
 6565 2476 3F83      		std Y+7,r19
 6566 2478 4887      		std Y+8,r20
 6567 247a 5987      		std Y+9,r21
 6568 247c 00C0      		rjmp .L486
 6569               	.LVL535:
 6570               	.L458:
 6571               	.LM674:
 6572 247e 86E0      		ldi r24,lo8(6)
 6573               	.LVL536:
 6574 2480 00C0      		rjmp .L451
 6575               	.LVL537:
 6576               	.L479:
 6577 2482 842F      		mov r24,r20
 6578 2484 00C0      		rjmp .L451
 6579               	.LVL538:
 6580               	.L480:
 6581 2486 85E0      		ldi r24,lo8(5)
 6582               	.LVL539:
 6583               	.L451:
 6584               	.LVL540:
 6585               	/* epilogue start */
 6586               	.LM675:
 6587 2488 DF91      		pop r29
 6588 248a CF91      		pop r28
 6589               	.LVL541:
 6590 248c 1F91      		pop r17
 6591               	.LVL542:
 6592 248e 0F91      		pop r16
 6593 2490 FF90      		pop r15
 6594 2492 EF90      		pop r14
 6595               	.LVL543:
 6596 2494 DF90      		pop r13
 6597 2496 CF90      		pop r12
 6598               	.LVL544:
 6599 2498 BF90      		pop r11
 6600 249a AF90      		pop r10
 6601               	.LVL545:
 6602 249c 9F90      		pop r9
 6603 249e 8F90      		pop r8
 6604 24a0 7F90      		pop r7
 6605 24a2 6F90      		pop r6
 6606 24a4 5F90      		pop r5
 6607 24a6 0895      		ret
 6608               	.LVL546:
 6609               	.L455:
 6610               	.LM676:
 6611 24a8 912F      		mov r25,r17
 6612 24aa 60E0      		ldi r22,lo8(0)
 6613               	.LVL547:
 6614 24ac 00C0      		rjmp .L481
 6615               	.LFE62:
 6618               	check_fs:
 6619               	.LFB63:
 6620               	.LM677:
 6621               	.LVL548:
 6622 24ae 0F93      		push r16
 6623 24b0 CF93      		push r28
 6624 24b2 DF93      		push r29
 6625               	/* prologue: function */
 6626               	/* frame size = 0 */
 6627 24b4 EC01      		movw r28,r24
 6628 24b6 9A01      		movw r18,r20
 6629 24b8 AB01      		movw r20,r22
 6630               	.LM678:
 6631 24ba BC01      		movw r22,r24
 6632 24bc 625D      		subi r22,lo8(-(46))
 6633 24be 7F4F      		sbci r23,hi8(-(46))
 6634 24c0 8981      		ldd r24,Y+1
 6635               	.LVL549:
 6636 24c2 01E0      		ldi r16,lo8(1)
 6637 24c4 0E94 0000 		call disk_read
 6638               	.LVL550:
 6639 24c8 8823      		tst r24
 6640 24ca 01F0      		breq .L490
 6641 24cc 63E0      		ldi r22,lo8(3)
 6642 24ce 00C0      		rjmp .L491
 6643               	.L490:
 6644               	.LM679:
 6645 24d0 C35D      		subi r28,lo8(-(557))
 6646 24d2 DD4F      		sbci r29,hi8(-(557))
 6647 24d4 9881      		ld r25,Y
 6648 24d6 80E0      		ldi r24,lo8(0)
 6649 24d8 2A91      		ld r18,-Y
 6650 24da CC52      		subi r28,lo8(-(-556))
 6651 24dc D240      		sbci r29,hi8(-(-556))
 6652 24de 30E0      		ldi r19,lo8(0)
 6653 24e0 822B      		or r24,r18
 6654 24e2 932B      		or r25,r19
 6655 24e4 8555      		subi r24,lo8(-21931)
 6656 24e6 9A4A      		sbci r25,hi8(-21931)
 6657 24e8 01F0      		breq .L492
 6658 24ea 62E0      		ldi r22,lo8(2)
 6659 24ec 00C0      		rjmp .L491
 6660               	.L492:
 6661               	.LM680:
 6662 24ee C959      		subi r28,lo8(-(103))
 6663 24f0 DF4F      		sbci r29,hi8(-(103))
 6664 24f2 2881      		ld r18,Y
 6665 24f4 30E0      		ldi r19,lo8(0)
 6666 24f6 40E0      		ldi r20,lo8(0)
 6667 24f8 50E0      		ldi r21,hi8(0)
 6668 24fa 522F      		mov r21,r18
 6669 24fc 4427      		clr r20
 6670 24fe 3327      		clr r19
 6671 2500 2227      		clr r18
 6672 2502 8A91      		ld r24,-Y
 6673 2504 90E0      		ldi r25,lo8(0)
 6674 2506 A0E0      		ldi r26,lo8(0)
 6675 2508 B0E0      		ldi r27,hi8(0)
 6676 250a DC01      		movw r26,r24
 6677 250c 9927      		clr r25
 6678 250e 8827      		clr r24
 6679 2510 282B      		or r18,r24
 6680 2512 392B      		or r19,r25
 6681 2514 4A2B      		or r20,r26
 6682 2516 5B2B      		or r21,r27
 6683 2518 2297      		sbiw r28,2
 6684 251a 8991      		ld r24,Y+
 6685 251c 90E0      		ldi r25,lo8(0)
 6686 251e A0E0      		ldi r26,lo8(0)
 6687 2520 B0E0      		ldi r27,hi8(0)
 6688 2522 282B      		or r18,r24
 6689 2524 392B      		or r19,r25
 6690 2526 4A2B      		or r20,r26
 6691 2528 5B2B      		or r21,r27
 6692 252a 9881      		ld r25,Y
 6693 252c C556      		subi r28,lo8(-(-101))
 6694 252e D040      		sbci r29,hi8(-(-101))
 6695 2530 80E0      		ldi r24,lo8(0)
 6696 2532 A0E0      		ldi r26,lo8(0)
 6697 2534 B0E0      		ldi r27,hi8(0)
 6698 2536 282B      		or r18,r24
 6699 2538 392B      		or r19,r25
 6700 253a 4A2B      		or r20,r26
 6701 253c 5B2B      		or r21,r27
 6702 253e 5070      		andi r21,hhi8(16777215)
 6703 2540 2654      		subi r18,lo8(5521734)
 6704 2542 3144      		sbci r19,hi8(5521734)
 6705 2544 4445      		sbci r20,hlo8(5521734)
 6706 2546 5040      		sbci r21,hhi8(5521734)
 6707 2548 01F4      		brne .L493
 6708 254a 60E0      		ldi r22,lo8(0)
 6709 254c 00C0      		rjmp .L491
 6710               	.L493:
 6711 254e 60E0      		ldi r22,lo8(0)
 6712 2550 CD57      		subi r28,lo8(-(131))
 6713 2552 DF4F      		sbci r29,hi8(-(131))
 6714 2554 2881      		ld r18,Y
 6715 2556 30E0      		ldi r19,lo8(0)
 6716 2558 40E0      		ldi r20,lo8(0)
 6717 255a 50E0      		ldi r21,hi8(0)
 6718 255c 522F      		mov r21,r18
 6719 255e 4427      		clr r20
 6720 2560 3327      		clr r19
 6721 2562 2227      		clr r18
 6722 2564 8A91      		ld r24,-Y
 6723 2566 90E0      		ldi r25,lo8(0)
 6724 2568 A0E0      		ldi r26,lo8(0)
 6725 256a B0E0      		ldi r27,hi8(0)
 6726 256c DC01      		movw r26,r24
 6727 256e 9927      		clr r25
 6728 2570 8827      		clr r24
 6729 2572 282B      		or r18,r24
 6730 2574 392B      		or r19,r25
 6731 2576 4A2B      		or r20,r26
 6732 2578 5B2B      		or r21,r27
 6733 257a 2297      		sbiw r28,2
 6734 257c 8991      		ld r24,Y+
 6735 257e 90E0      		ldi r25,lo8(0)
 6736 2580 A0E0      		ldi r26,lo8(0)
 6737 2582 B0E0      		ldi r27,hi8(0)
 6738 2584 282B      		or r18,r24
 6739 2586 392B      		or r19,r25
 6740 2588 4A2B      		or r20,r26
 6741 258a 5B2B      		or r21,r27
 6742 258c 9881      		ld r25,Y
 6743               	.LVL551:
 6744 258e 80E0      		ldi r24,lo8(0)
 6745 2590 A0E0      		ldi r26,lo8(0)
 6746 2592 B0E0      		ldi r27,hi8(0)
 6747 2594 282B      		or r18,r24
 6748 2596 392B      		or r19,r25
 6749 2598 4A2B      		or r20,r26
 6750 259a 5B2B      		or r21,r27
 6751 259c 5070      		andi r21,hhi8(16777215)
 6752 259e 2654      		subi r18,lo8(5521734)
 6753 25a0 3144      		sbci r19,hi8(5521734)
 6754 25a2 4445      		sbci r20,hlo8(5521734)
 6755 25a4 5040      		sbci r21,hhi8(5521734)
 6756 25a6 01F0      		breq .L491
 6757 25a8 61E0      		ldi r22,lo8(1)
 6758               	.LVL552:
 6759               	.L491:
 6760               	.LM681:
 6761 25aa 862F      		mov r24,r22
 6762               	/* epilogue start */
 6763 25ac DF91      		pop r29
 6764 25ae CF91      		pop r28
 6765               	.LVL553:
 6766 25b0 0F91      		pop r16
 6767 25b2 0895      		ret
 6768               	.LFE63:
 6770               	.global	chk_mounted
 6772               	chk_mounted:
 6773               	.LFB64:
 6774               	.LM682:
 6775               	.LVL554:
 6776 25b4 6F92      		push r6
 6777 25b6 7F92      		push r7
 6778 25b8 8F92      		push r8
 6779 25ba 9F92      		push r9
 6780 25bc AF92      		push r10
 6781 25be BF92      		push r11
 6782 25c0 CF92      		push r12
 6783 25c2 DF92      		push r13
 6784 25c4 EF92      		push r14
 6785 25c6 FF92      		push r15
 6786 25c8 0F93      		push r16
 6787 25ca 1F93      		push r17
 6788 25cc CF93      		push r28
 6789 25ce DF93      		push r29
 6790               	/* prologue: function */
 6791               	/* frame size = 0 */
 6792 25d0 FC01      		movw r30,r24
 6793 25d2 9B01      		movw r18,r22
 6794 25d4 F42E      		mov r15,r20
 6795               	.LM683:
 6796 25d6 A081      		ld r26,Z
 6797 25d8 B181      		ldd r27,Z+1
 6798               	.LVL555:
 6799               	.LM684:
 6800 25da 8C91      		ld r24,X
 6801               	.LVL556:
 6802 25dc 082F      		mov r16,r24
 6803               	.LVL557:
 6804 25de 10E0      		ldi r17,lo8(0)
 6805               	.LVL558:
 6806 25e0 0053      		subi r16,lo8(-(-48))
 6807 25e2 1040      		sbci r17,hi8(-(-48))
 6808               	.LVL559:
 6809               	.LM685:
 6810 25e4 0A30      		cpi r16,10
 6811 25e6 1105      		cpc r17,__zero_reg__
 6812 25e8 00F4      		brsh .L497
 6813               	.LVL560:
 6814 25ea 1196      		adiw r26,1
 6815 25ec 8C91      		ld r24,X
 6816 25ee 1197      		sbiw r26,1
 6817 25f0 8A33      		cpi r24,lo8(58)
 6818 25f2 01F4      		brne .L497
 6819               	.LM686:
 6820 25f4 1296      		adiw r26,2
 6821 25f6 A083      		st Z,r26
 6822 25f8 B183      		std Z+1,r27
 6823               	.LM687:
 6824 25fa 0230      		cpi r16,2
 6825 25fc 1105      		cpc r17,__zero_reg__
 6826 25fe 00F0      		brlo .L498
 6827 2600 8BE0      		ldi r24,lo8(11)
 6828 2602 00C0      		rjmp .L499
 6829               	.L497:
 6830 2604 00E0      		ldi r16,lo8(0)
 6831 2606 10E0      		ldi r17,hi8(0)
 6832               	.L498:
 6833               	.LM688:
 6834 2608 F801      		movw r30,r16
 6835               	.LVL561:
 6836 260a EE0F      		lsl r30
 6837 260c FF1F      		rol r31
 6838 260e E050      		subi r30,lo8(-(FatFs))
 6839 2610 F040      		sbci r31,hi8(-(FatFs))
 6840 2612 C081      		ld r28,Z
 6841 2614 D181      		ldd r29,Z+1
 6842               	.LVL562:
 6843 2616 F901      		movw r30,r18
 6844 2618 C083      		st Z,r28
 6845 261a D183      		std Z+1,r29
 6846               	.LM689:
 6847 261c 2097      		sbiw r28,0
 6848 261e 01F4      		brne .L500
 6849 2620 8CE0      		ldi r24,lo8(12)
 6850 2622 00C0      		rjmp .L499
 6851               	.L500:
 6852               	.LM690:
 6853 2624 8881      		ld r24,Y
 6854 2626 8823      		tst r24
 6855 2628 01F0      		breq .L501
 6856               	.LBB609:
 6857               	.LBB610:
 6858               	.LM691:
 6859 262a 8981      		ldd r24,Y+1
 6860 262c 8823      		tst r24
 6861 262e 01F0      		breq .L502
 6862 2630 81E0      		ldi r24,lo8(1)
 6863               	.LVL563:
 6864 2632 00C0      		rjmp .L503
 6865               	.LVL564:
 6866               	.L502:
 6867               	.LM692:
 6868 2634 8091 0000 		lds r24,Stat
 6869               	.LVL565:
 6870               	.L503:
 6871               	.LBE610:
 6872               	.LBE609:
 6873               	.LM693:
 6874 2638 80FD      		sbrc r24,0
 6875 263a 00C0      		rjmp .L501
 6876               	.LVL566:
 6877               	.LM694:
 6878 263c FF20      		tst r15
 6879 263e 01F4      		brne .+2
 6880 2640 00C0      		rjmp .L504
 6881 2642 82FD      		sbrc r24,2
 6882 2644 00C0      		rjmp .L505
 6883 2646 00C0      		rjmp .L504
 6884               	.L501:
 6885               	.LM695:
 6886 2648 1882      		st Y,__zero_reg__
 6887               	.LM696:
 6888 264a F801      		movw r30,r16
 6889 264c EE0F      		lsl r30
 6890 264e FF1F      		rol r31
 6891 2650 E050      		subi r30,lo8(-(Drives))
 6892 2652 F040      		sbci r31,hi8(-(Drives))
 6893 2654 8081      		ld r24,Z
 6894 2656 8983      		std Y+1,r24
 6895               	.LM697:
 6896 2658 0E94 0000 		call disk_initialize
 6897               	.LVL567:
 6898               	.LM698:
 6899 265c 80FF      		sbrs r24,0
 6900 265e 00C0      		rjmp .L506
 6901 2660 83E0      		ldi r24,lo8(3)
 6902 2662 00C0      		rjmp .L499
 6903               	.L506:
 6904               	.LM699:
 6905 2664 FF20      		tst r15
 6906 2666 01F0      		breq .L507
 6907 2668 82FD      		sbrc r24,2
 6908 266a 00C0      		rjmp .L505
 6909               	.L507:
 6910               	.LM700:
 6911 266c CE01      		movw r24,r28
 6912 266e 40E0      		ldi r20,lo8(0)
 6913 2670 50E0      		ldi r21,hi8(0)
 6914 2672 60E0      		ldi r22,hlo8(0)
 6915 2674 70E0      		ldi r23,hhi8(0)
 6916 2676 0E94 0000 		call check_fs
 6917               	.LM701:
 6918 267a 8130      		cpi r24,lo8(1)
 6919               	.LVL568:
 6920 267c 01F0      		breq .L508
 6921 267e AA24      		clr r10
 6922 2680 BB24      		clr r11
 6923 2682 6501      		movw r12,r10
 6924               	.LVL569:
 6925 2684 00C0      		rjmp .L509
 6926               	.LVL570:
 6927               	.L508:
 6928               	.LM702:
 6929 2686 000F      		lsl r16
 6930 2688 111F      		rol r17
 6931 268a 0050      		subi r16,lo8(-(Drives))
 6932 268c 1040      		sbci r17,hi8(-(Drives))
 6933 268e F801      		movw r30,r16
 6934 2690 8181      		ldd r24,Z+1
 6935               	.LVL571:
 6936 2692 E82F      		mov r30,r24
 6937               	.LVL572:
 6938 2694 F0E0      		ldi r31,lo8(0)
 6939               	.LVL573:
 6940 2696 A4E0      		ldi r26,4
 6941 2698 EE0F      	1:	lsl r30
 6942 269a FF1F      		rol r31
 6943 269c AA95      		dec r26
 6944 269e 01F4      		brne 1b
 6945               	.LVL574:
 6946 26a0 E451      		subi r30,lo8(-(492))
 6947 26a2 FE4F      		sbci r31,hi8(-(492))
 6948 26a4 EC0F      		add r30,r28
 6949 26a6 FD1F      		adc r31,r29
 6950               	.LM703:
 6951 26a8 8481      		ldd r24,Z+4
 6952 26aa 8823      		tst r24
 6953 26ac 01F4      		brne .+2
 6954 26ae 00C0      		rjmp .L510
 6955               	.LM704:
 6956 26b0 8385      		ldd r24,Z+11
 6957 26b2 90E0      		ldi r25,lo8(0)
 6958 26b4 A0E0      		ldi r26,lo8(0)
 6959 26b6 B0E0      		ldi r27,hi8(0)
 6960 26b8 D82E      		mov r13,r24
 6961 26ba CC24      		clr r12
 6962 26bc BB24      		clr r11
 6963 26be AA24      		clr r10
 6964               	.LVL575:
 6965 26c0 8285      		ldd r24,Z+10
 6966 26c2 90E0      		ldi r25,lo8(0)
 6967 26c4 A0E0      		ldi r26,lo8(0)
 6968 26c6 B0E0      		ldi r27,hi8(0)
 6969 26c8 DC01      		movw r26,r24
 6970 26ca 9927      		clr r25
 6971 26cc 8827      		clr r24
 6972 26ce A82A      		or r10,r24
 6973 26d0 B92A      		or r11,r25
 6974 26d2 CA2A      		or r12,r26
 6975 26d4 DB2A      		or r13,r27
 6976 26d6 8085      		ldd r24,Z+8
 6977 26d8 90E0      		ldi r25,lo8(0)
 6978 26da A0E0      		ldi r26,lo8(0)
 6979 26dc B0E0      		ldi r27,hi8(0)
 6980 26de A82A      		or r10,r24
 6981 26e0 B92A      		or r11,r25
 6982 26e2 CA2A      		or r12,r26
 6983 26e4 DB2A      		or r13,r27
 6984 26e6 9185      		ldd r25,Z+9
 6985 26e8 80E0      		ldi r24,lo8(0)
 6986 26ea A0E0      		ldi r26,lo8(0)
 6987 26ec B0E0      		ldi r27,hi8(0)
 6988 26ee A82A      		or r10,r24
 6989 26f0 B92A      		or r11,r25
 6990 26f2 CA2A      		or r12,r26
 6991 26f4 DB2A      		or r13,r27
 6992               	.LM705:
 6993 26f6 CE01      		movw r24,r28
 6994 26f8 B601      		movw r22,r12
 6995 26fa A501      		movw r20,r10
 6996 26fc 0E94 0000 		call check_fs
 6997               	.LVL576:
 6998               	.L509:
 6999               	.LM706:
 7000 2700 8330      		cpi r24,lo8(3)
 7001 2702 01F4      		brne .L511
 7002 2704 81E0      		ldi r24,lo8(1)
 7003               	.LVL577:
 7004 2706 00C0      		rjmp .L499
 7005               	.LVL578:
 7006               	.L511:
 7007               	.LM707:
 7008 2708 8823      		tst r24
 7009 270a 01F0      		breq .+2
 7010 270c 00C0      		rjmp .L510
 7011 270e 9AAD      		ldd r25,Y+58
 7012 2710 80E0      		ldi r24,lo8(0)
 7013               	.LVL579:
 7014 2712 29AD      		ldd r18,Y+57
 7015 2714 30E0      		ldi r19,lo8(0)
 7016 2716 822B      		or r24,r18
 7017 2718 932B      		or r25,r19
 7018 271a 8050      		subi r24,lo8(512)
 7019 271c 9240      		sbci r25,hi8(512)
 7020 271e 01F0      		breq .+2
 7021 2720 00C0      		rjmp .L510
 7022               	.LM708:
 7023 2722 CB5B      		subi r28,lo8(-(69))
 7024 2724 DF4F      		sbci r29,hi8(-(69))
 7025 2726 9881      		ld r25,Y
 7026 2728 80E0      		ldi r24,lo8(0)
 7027 272a 2A91      		ld r18,-Y
 7028 272c C454      		subi r28,lo8(-(-68))
 7029 272e D040      		sbci r29,hi8(-(-68))
 7030 2730 30E0      		ldi r19,lo8(0)
 7031 2732 822B      		or r24,r18
 7032 2734 932B      		or r25,r19
 7033 2736 7C01      		movw r14,r24
 7034               	.LVL580:
 7035 2738 00E0      		ldi r16,lo8(0)
 7036 273a 10E0      		ldi r17,hi8(0)
 7037               	.LVL581:
 7038               	.LM709:
 7039 273c E114      		cp r14,__zero_reg__
 7040 273e F104      		cpc r15,__zero_reg__
 7041 2740 0105      		cpc r16,__zero_reg__
 7042 2742 1105      		cpc r17,__zero_reg__
 7043 2744 01F4      		brne .L512
 7044 2746 CB5A      		subi r28,lo8(-(85))
 7045 2748 DF4F      		sbci r29,hi8(-(85))
 7046 274a 8881      		ld r24,Y
 7047 274c 90E0      		ldi r25,lo8(0)
 7048 274e A0E0      		ldi r26,lo8(0)
 7049 2750 B0E0      		ldi r27,hi8(0)
 7050 2752 182F      		mov r17,r24
 7051 2754 0027      		clr r16
 7052 2756 FF24      		clr r15
 7053 2758 EE24      		clr r14
 7054               	.LVL582:
 7055 275a 8A91      		ld r24,-Y
 7056 275c 90E0      		ldi r25,lo8(0)
 7057 275e A0E0      		ldi r26,lo8(0)
 7058 2760 B0E0      		ldi r27,hi8(0)
 7059 2762 DC01      		movw r26,r24
 7060 2764 9927      		clr r25
 7061 2766 8827      		clr r24
 7062 2768 E82A      		or r14,r24
 7063 276a F92A      		or r15,r25
 7064 276c 0A2B      		or r16,r26
 7065 276e 1B2B      		or r17,r27
 7066 2770 2297      		sbiw r28,2
 7067 2772 8991      		ld r24,Y+
 7068 2774 90E0      		ldi r25,lo8(0)
 7069 2776 A0E0      		ldi r26,lo8(0)
 7070 2778 B0E0      		ldi r27,hi8(0)
 7071 277a E82A      		or r14,r24
 7072 277c F92A      		or r15,r25
 7073 277e 0A2B      		or r16,r26
 7074 2780 1B2B      		or r17,r27
 7075 2782 9881      		ld r25,Y
 7076 2784 C355      		subi r28,lo8(-(-83))
 7077 2786 D040      		sbci r29,hi8(-(-83))
 7078 2788 80E0      		ldi r24,lo8(0)
 7079 278a A0E0      		ldi r26,lo8(0)
 7080 278c B0E0      		ldi r27,hi8(0)
 7081 278e E82A      		or r14,r24
 7082 2790 F92A      		or r15,r25
 7083 2792 0A2B      		or r16,r26
 7084 2794 1B2B      		or r17,r27
 7085               	.L512:
 7086               	.LM710:
 7087 2796 EE8A      		std Y+22,r14
 7088 2798 FF8A      		std Y+23,r15
 7089 279a 088F      		std Y+24,r16
 7090 279c 198F      		std Y+25,r17
 7091               	.LM711:
 7092 279e 2EAD      		ldd r18,Y+62
 7093 27a0 2B83      		std Y+3,r18
 7094               	.LM712:
 7095 27a2 30E0      		ldi r19,lo8(0)
 7096 27a4 40E0      		ldi r20,lo8(0)
 7097 27a6 50E0      		ldi r21,hi8(0)
 7098 27a8 C801      		movw r24,r16
 7099 27aa B701      		movw r22,r14
 7100 27ac 0E94 0000 		call __mulsi3
 7101 27b0 3B01      		movw r6,r22
 7102 27b2 4C01      		movw r8,r24
 7103               	.LVL583:
 7104               	.LM713:
 7105 27b4 9DAD      		ldd r25,Y+61
 7106 27b6 80E0      		ldi r24,lo8(0)
 7107 27b8 2CAD      		ldd r18,Y+60
 7108 27ba 30E0      		ldi r19,lo8(0)
 7109 27bc 822B      		or r24,r18
 7110 27be 932B      		or r25,r19
 7111 27c0 A0E0      		ldi r26,lo8(0)
 7112 27c2 B0E0      		ldi r27,hi8(0)
 7113 27c4 8A0D      		add r24,r10
 7114 27c6 9B1D      		adc r25,r11
 7115 27c8 AC1D      		adc r26,r12
 7116 27ca BD1D      		adc r27,r13
 7117 27cc 8E8F      		std Y+30,r24
 7118 27ce 9F8F      		std Y+31,r25
 7119 27d0 A8A3      		std Y+32,r26
 7120 27d2 B9A3      		std Y+33,r27
 7121               	.LM714:
 7122 27d4 8BAD      		ldd r24,Y+59
 7123 27d6 8A83      		std Y+2,r24
 7124               	.LM715:
 7125 27d8 C05C      		subi r28,lo8(-(64))
 7126 27da DF4F      		sbci r29,hi8(-(64))
 7127 27dc 9881      		ld r25,Y
 7128 27de C054      		subi r28,lo8(-(-64))
 7129 27e0 D040      		sbci r29,hi8(-(-64))
 7130 27e2 80E0      		ldi r24,lo8(0)
 7131 27e4 2FAD      		ldd r18,Y+63
 7132 27e6 422F      		mov r20,r18
 7133 27e8 50E0      		ldi r21,lo8(0)
 7134 27ea 482B      		or r20,r24
 7135 27ec 592B      		or r21,r25
 7136 27ee 4887      		std Y+8,r20
 7137 27f0 5987      		std Y+9,r21
 7138               	.LM716:
 7139 27f2 CE5B      		subi r28,lo8(-(66))
 7140 27f4 DF4F      		sbci r29,hi8(-(66))
 7141 27f6 9881      		ld r25,Y
 7142 27f8 80E0      		ldi r24,lo8(0)
 7143 27fa 2A91      		ld r18,-Y
 7144 27fc C154      		subi r28,lo8(-(-65))
 7145 27fe D040      		sbci r29,hi8(-(-65))
 7146 2800 30E0      		ldi r19,lo8(0)
 7147 2802 822B      		or r24,r18
 7148 2804 932B      		or r25,r19
 7149 2806 7C01      		movw r14,r24
 7150               	.LVL584:
 7151 2808 00E0      		ldi r16,lo8(0)
 7152 280a 10E0      		ldi r17,hi8(0)
 7153               	.LVL585:
 7154               	.LM717:
 7155 280c E114      		cp r14,__zero_reg__
 7156 280e F104      		cpc r15,__zero_reg__
 7157 2810 0105      		cpc r16,__zero_reg__
 7158 2812 1105      		cpc r17,__zero_reg__
 7159 2814 01F4      		brne .L513
 7160 2816 CF5A      		subi r28,lo8(-(81))
 7161 2818 DF4F      		sbci r29,hi8(-(81))
 7162 281a 8881      		ld r24,Y
 7163 281c 90E0      		ldi r25,lo8(0)
 7164 281e A0E0      		ldi r26,lo8(0)
 7165 2820 B0E0      		ldi r27,hi8(0)
 7166 2822 182F      		mov r17,r24
 7167 2824 0027      		clr r16
 7168 2826 FF24      		clr r15
 7169 2828 EE24      		clr r14
 7170               	.LVL586:
 7171 282a 8A91      		ld r24,-Y
 7172 282c 90E0      		ldi r25,lo8(0)
 7173 282e A0E0      		ldi r26,lo8(0)
 7174 2830 B0E0      		ldi r27,hi8(0)
 7175 2832 DC01      		movw r26,r24
 7176 2834 9927      		clr r25
 7177 2836 8827      		clr r24
 7178 2838 E82A      		or r14,r24
 7179 283a F92A      		or r15,r25
 7180 283c 0A2B      		or r16,r26
 7181 283e 1B2B      		or r17,r27
 7182 2840 2297      		sbiw r28,2
 7183 2842 8991      		ld r24,Y+
 7184 2844 90E0      		ldi r25,lo8(0)
 7185 2846 A0E0      		ldi r26,lo8(0)
 7186 2848 B0E0      		ldi r27,hi8(0)
 7187 284a E82A      		or r14,r24
 7188 284c F92A      		or r15,r25
 7189 284e 0A2B      		or r16,r26
 7190 2850 1B2B      		or r17,r27
 7191 2852 9881      		ld r25,Y
 7192 2854 CF54      		subi r28,lo8(-(-79))
 7193 2856 D040      		sbci r29,hi8(-(-79))
 7194 2858 80E0      		ldi r24,lo8(0)
 7195 285a A0E0      		ldi r26,lo8(0)
 7196 285c B0E0      		ldi r27,hi8(0)
 7197 285e E82A      		or r14,r24
 7198 2860 F92A      		or r15,r25
 7199 2862 0A2B      		or r16,r26
 7200 2864 1B2B      		or r17,r27
 7201               	.L513:
 7202               	.LM718:
 7203 2866 9DAD      		ldd r25,Y+61
 7204 2868 80E0      		ldi r24,lo8(0)
 7205 286a 2CAD      		ldd r18,Y+60
 7206 286c 30E0      		ldi r19,lo8(0)
 7207 286e 822B      		or r24,r18
 7208 2870 932B      		or r25,r19
 7209 2872 A0E0      		ldi r26,lo8(0)
 7210 2874 B0E0      		ldi r27,hi8(0)
 7211 2876 E81A      		sub r14,r24
 7212 2878 F90A      		sbc r15,r25
 7213 287a 0A0B      		sbc r16,r26
 7214 287c 1B0B      		sbc r17,r27
 7215               	.LVL587:
 7216 287e E618      		sub r14,r6
 7217 2880 F708      		sbc r15,r7
 7218 2882 0809      		sbc r16,r8
 7219 2884 1909      		sbc r17,r9
 7220 2886 F4E0      		ldi r31,4
 7221 2888 5695      	1:	lsr r21
 7222 288a 4795      		ror r20
 7223 288c FA95      		dec r31
 7224 288e 01F4      		brne 1b
 7225 2890 CA01      		movw r24,r20
 7226 2892 A0E0      		ldi r26,lo8(0)
 7227 2894 B0E0      		ldi r27,hi8(0)
 7228 2896 E81A      		sub r14,r24
 7229 2898 F90A      		sbc r15,r25
 7230 289a 0A0B      		sbc r16,r26
 7231 289c 1B0B      		sbc r17,r27
 7232 289e 2A81      		ldd r18,Y+2
 7233 28a0 30E0      		ldi r19,lo8(0)
 7234 28a2 40E0      		ldi r20,lo8(0)
 7235 28a4 50E0      		ldi r21,hi8(0)
 7236 28a6 C801      		movw r24,r16
 7237 28a8 B701      		movw r22,r14
 7238 28aa 0E94 0000 		call __udivmodsi4
 7239 28ae 2E5F      		subi r18,lo8(-(2))
 7240 28b0 3F4F      		sbci r19,hi8(-(2))
 7241 28b2 4F4F      		sbci r20,hlo8(-(2))
 7242 28b4 5F4F      		sbci r21,hhi8(-(2))
 7243               	.LVL588:
 7244 28b6 2A8F      		std Y+26,r18
 7245 28b8 3B8F      		std Y+27,r19
 7246 28ba 4C8F      		std Y+28,r20
 7247 28bc 5D8F      		std Y+29,r21
 7248               	.LM719:
 7249 28be 273F      		cpi r18,lo8(4087)
 7250 28c0 8FE0      		ldi r24,hi8(4087)
 7251 28c2 3807      		cpc r19,r24
 7252 28c4 80E0      		ldi r24,hlo8(4087)
 7253 28c6 4807      		cpc r20,r24
 7254 28c8 80E0      		ldi r24,hhi8(4087)
 7255 28ca 5807      		cpc r21,r24
 7256 28cc 00F4      		brsh .L514
 7257 28ce 11E0      		ldi r17,lo8(1)
 7258               	.LVL589:
 7259 28d0 00C0      		rjmp .L515
 7260               	.LVL590:
 7261               	.L514:
 7262               	.LM720:
 7263 28d2 275F      		subi r18,lo8(65527)
 7264 28d4 3F4F      		sbci r19,hi8(65527)
 7265 28d6 4040      		sbci r20,hlo8(65527)
 7266 28d8 5040      		sbci r21,hhi8(65527)
 7267 28da 00F0      		brlo .+2
 7268 28dc 00C0      		rjmp .L516
 7269 28de 12E0      		ldi r17,lo8(2)
 7270               	.LVL591:
 7271               	.L515:
 7272               	.LM721:
 7273 28e0 8E8D      		ldd r24,Y+30
 7274 28e2 9F8D      		ldd r25,Y+31
 7275 28e4 A8A1      		ldd r26,Y+32
 7276 28e6 B9A1      		ldd r27,Y+33
 7277 28e8 860D      		add r24,r6
 7278 28ea 971D      		adc r25,r7
 7279 28ec A81D      		adc r26,r8
 7280 28ee B91D      		adc r27,r9
 7281 28f0 8AA3      		std Y+34,r24
 7282 28f2 9BA3      		std Y+35,r25
 7283 28f4 ACA3      		std Y+36,r26
 7284 28f6 BDA3      		std Y+37,r27
 7285               	.L518:
 7286               	.LM722:
 7287 28f8 8885      		ldd r24,Y+8
 7288 28fa 9985      		ldd r25,Y+9
 7289 28fc E4E0      		ldi r30,4
 7290 28fe 9695      	1:	lsr r25
 7291 2900 8795      		ror r24
 7292 2902 EA95      		dec r30
 7293 2904 01F4      		brne 1b
 7294 2906 A0E0      		ldi r26,lo8(0)
 7295 2908 B0E0      		ldi r27,hi8(0)
 7296 290a 2E8D      		ldd r18,Y+30
 7297 290c 3F8D      		ldd r19,Y+31
 7298 290e 48A1      		ldd r20,Y+32
 7299 2910 59A1      		ldd r21,Y+33
 7300               	.LVL592:
 7301 2912 820F      		add r24,r18
 7302 2914 931F      		adc r25,r19
 7303 2916 A41F      		adc r26,r20
 7304 2918 B51F      		adc r27,r21
 7305 291a 860D      		add r24,r6
 7306 291c 971D      		adc r25,r7
 7307 291e A81D      		adc r26,r8
 7308 2920 B91D      		adc r27,r9
 7309 2922 8EA3      		std Y+38,r24
 7310 2924 9FA3      		std Y+39,r25
 7311 2926 A8A7      		std Y+40,r26
 7312 2928 B9A7      		std Y+41,r27
 7313               	.LM723:
 7314 292a 8FEF      		ldi r24,lo8(-1)
 7315 292c 9FEF      		ldi r25,hi8(-1)
 7316 292e AFEF      		ldi r26,hlo8(-1)
 7317 2930 BFEF      		ldi r27,hhi8(-1)
 7318 2932 8E87      		std Y+14,r24
 7319 2934 9F87      		std Y+15,r25
 7320 2936 A88B      		std Y+16,r26
 7321 2938 B98B      		std Y+17,r27
 7322               	.LM724:
 7323 293a 1C82      		std Y+4,__zero_reg__
 7324               	.LM725:
 7325 293c 1330      		cpi r17,lo8(3)
 7326 293e 01F0      		breq .+2
 7327 2940 00C0      		rjmp .L517
 7328               	.LM726:
 7329 2942 1D82      		std Y+5,__zero_reg__
 7330               	.LM727:
 7331 2944 C15A      		subi r28,lo8(-(95))
 7332 2946 DF4F      		sbci r29,hi8(-(95))
 7333 2948 3881      		ld r19,Y
 7334 294a 20E0      		ldi r18,lo8(0)
 7335 294c 8A91      		ld r24,-Y
 7336 294e CE55      		subi r28,lo8(-(-94))
 7337 2950 D040      		sbci r29,hi8(-(-94))
 7338 2952 90E0      		ldi r25,lo8(0)
 7339 2954 282B      		or r18,r24
 7340 2956 392B      		or r19,r25
 7341 2958 40E0      		ldi r20,lo8(0)
 7342 295a 50E0      		ldi r21,hi8(0)
 7343 295c 2A0D      		add r18,r10
 7344 295e 3B1D      		adc r19,r11
 7345 2960 4C1D      		adc r20,r12
 7346 2962 5D1D      		adc r21,r13
 7347 2964 2A8B      		std Y+18,r18
 7348 2966 3B8B      		std Y+19,r19
 7349 2968 4C8B      		std Y+20,r20
 7350 296a 5D8B      		std Y+21,r21
 7351               	.LM728:
 7352 296c BE01      		movw r22,r28
 7353 296e 625D      		subi r22,lo8(-(46))
 7354 2970 7F4F      		sbci r23,hi8(-(46))
 7355 2972 8981      		ldd r24,Y+1
 7356 2974 01E0      		ldi r16,lo8(1)
 7357               	.LVL593:
 7358 2976 0E94 0000 		call disk_read
 7359 297a 8823      		tst r24
 7360 297c 01F0      		breq .+2
 7361 297e 00C0      		rjmp .L517
 7362 2980 C35D      		subi r28,lo8(-(557))
 7363 2982 DD4F      		sbci r29,hi8(-(557))
 7364 2984 9881      		ld r25,Y
 7365 2986 80E0      		ldi r24,lo8(0)
 7366 2988 2A91      		ld r18,-Y
 7367 298a CC52      		subi r28,lo8(-(-556))
 7368 298c D240      		sbci r29,hi8(-(-556))
 7369 298e 30E0      		ldi r19,lo8(0)
 7370 2990 822B      		or r24,r18
 7371 2992 932B      		or r25,r19
 7372 2994 8555      		subi r24,lo8(-21931)
 7373 2996 9A4A      		sbci r25,hi8(-21931)
 7374 2998 01F0      		breq .+2
 7375 299a 00C0      		rjmp .L517
 7376 299c 29A9      		ldd r18,Y+49
 7377 299e 30E0      		ldi r19,lo8(0)
 7378 29a0 40E0      		ldi r20,lo8(0)
 7379 29a2 50E0      		ldi r21,hi8(0)
 7380 29a4 522F      		mov r21,r18
 7381 29a6 4427      		clr r20
 7382 29a8 3327      		clr r19
 7383 29aa 2227      		clr r18
 7384 29ac 88A9      		ldd r24,Y+48
 7385 29ae 90E0      		ldi r25,lo8(0)
 7386 29b0 A0E0      		ldi r26,lo8(0)
 7387 29b2 B0E0      		ldi r27,hi8(0)
 7388 29b4 DC01      		movw r26,r24
 7389 29b6 9927      		clr r25
 7390 29b8 8827      		clr r24
 7391 29ba 282B      		or r18,r24
 7392 29bc 392B      		or r19,r25
 7393 29be 4A2B      		or r20,r26
 7394 29c0 5B2B      		or r21,r27
 7395 29c2 8EA5      		ldd r24,Y+46
 7396 29c4 90E0      		ldi r25,lo8(0)
 7397 29c6 A0E0      		ldi r26,lo8(0)
 7398 29c8 B0E0      		ldi r27,hi8(0)
 7399 29ca 282B      		or r18,r24
 7400 29cc 392B      		or r19,r25
 7401 29ce 4A2B      		or r20,r26
 7402 29d0 5B2B      		or r21,r27
 7403 29d2 9FA5      		ldd r25,Y+47
 7404 29d4 80E0      		ldi r24,lo8(0)
 7405 29d6 A0E0      		ldi r26,lo8(0)
 7406 29d8 B0E0      		ldi r27,hi8(0)
 7407 29da 282B      		or r18,r24
 7408 29dc 392B      		or r19,r25
 7409 29de 4A2B      		or r20,r26
 7410 29e0 5B2B      		or r21,r27
 7411 29e2 2255      		subi r18,lo8(1096897106)
 7412 29e4 3245      		sbci r19,hi8(1096897106)
 7413 29e6 4146      		sbci r20,hlo8(1096897106)
 7414 29e8 5144      		sbci r21,hhi8(1096897106)
 7415 29ea 01F0      		breq .+2
 7416 29ec 00C0      		rjmp .L517
 7417 29ee CB5E      		subi r28,lo8(-(533))
 7418 29f0 DD4F      		sbci r29,hi8(-(533))
 7419 29f2 2881      		ld r18,Y
 7420 29f4 30E0      		ldi r19,lo8(0)
 7421 29f6 40E0      		ldi r20,lo8(0)
 7422 29f8 50E0      		ldi r21,hi8(0)
 7423 29fa 522F      		mov r21,r18
 7424 29fc 4427      		clr r20
 7425 29fe 3327      		clr r19
 7426 2a00 2227      		clr r18
 7427 2a02 8A91      		ld r24,-Y
 7428 2a04 90E0      		ldi r25,lo8(0)
 7429 2a06 A0E0      		ldi r26,lo8(0)
 7430 2a08 B0E0      		ldi r27,hi8(0)
 7431 2a0a DC01      		movw r26,r24
 7432 2a0c 9927      		clr r25
 7433 2a0e 8827      		clr r24
 7434 2a10 282B      		or r18,r24
 7435 2a12 392B      		or r19,r25
 7436 2a14 4A2B      		or r20,r26
 7437 2a16 5B2B      		or r21,r27
 7438 2a18 2297      		sbiw r28,2
 7439 2a1a 8991      		ld r24,Y+
 7440 2a1c 90E0      		ldi r25,lo8(0)
 7441 2a1e A0E0      		ldi r26,lo8(0)
 7442 2a20 B0E0      		ldi r27,hi8(0)
 7443 2a22 282B      		or r18,r24
 7444 2a24 392B      		or r19,r25
 7445 2a26 4A2B      		or r20,r26
 7446 2a28 5B2B      		or r21,r27
 7447 2a2a 9881      		ld r25,Y
 7448 2a2c C351      		subi r28,lo8(-(-531))
 7449 2a2e D240      		sbci r29,hi8(-(-531))
 7450 2a30 80E0      		ldi r24,lo8(0)
 7451 2a32 A0E0      		ldi r26,lo8(0)
 7452 2a34 B0E0      		ldi r27,hi8(0)
 7453 2a36 282B      		or r18,r24
 7454 2a38 392B      		or r19,r25
 7455 2a3a 4A2B      		or r20,r26
 7456 2a3c 5B2B      		or r21,r27
 7457 2a3e 2257      		subi r18,lo8(1631679090)
 7458 2a40 3247      		sbci r19,hi8(1631679090)
 7459 2a42 4144      		sbci r20,hlo8(1631679090)
 7460 2a44 5146      		sbci r21,hhi8(1631679090)
 7461 2a46 01F0      		breq .+2
 7462 2a48 00C0      		rjmp .L517
 7463               	.LM729:
 7464 2a4a C35E      		subi r28,lo8(-(541))
 7465 2a4c DD4F      		sbci r29,hi8(-(541))
 7466 2a4e 2881      		ld r18,Y
 7467 2a50 30E0      		ldi r19,lo8(0)
 7468 2a52 40E0      		ldi r20,lo8(0)
 7469 2a54 50E0      		ldi r21,hi8(0)
 7470 2a56 522F      		mov r21,r18
 7471 2a58 4427      		clr r20
 7472 2a5a 3327      		clr r19
 7473 2a5c 2227      		clr r18
 7474 2a5e 8A91      		ld r24,-Y
 7475 2a60 90E0      		ldi r25,lo8(0)
 7476 2a62 A0E0      		ldi r26,lo8(0)
 7477 2a64 B0E0      		ldi r27,hi8(0)
 7478 2a66 DC01      		movw r26,r24
 7479 2a68 9927      		clr r25
 7480 2a6a 8827      		clr r24
 7481 2a6c 282B      		or r18,r24
 7482 2a6e 392B      		or r19,r25
 7483 2a70 4A2B      		or r20,r26
 7484 2a72 5B2B      		or r21,r27
 7485 2a74 2297      		sbiw r28,2
 7486 2a76 8991      		ld r24,Y+
 7487 2a78 90E0      		ldi r25,lo8(0)
 7488 2a7a A0E0      		ldi r26,lo8(0)
 7489 2a7c B0E0      		ldi r27,hi8(0)
 7490 2a7e 282B      		or r18,r24
 7491 2a80 392B      		or r19,r25
 7492 2a82 4A2B      		or r20,r26
 7493 2a84 5B2B      		or r21,r27
 7494 2a86 9881      		ld r25,Y
 7495 2a88 CB51      		subi r28,lo8(-(-539))
 7496 2a8a D240      		sbci r29,hi8(-(-539))
 7497 2a8c 80E0      		ldi r24,lo8(0)
 7498 2a8e A0E0      		ldi r26,lo8(0)
 7499 2a90 B0E0      		ldi r27,hi8(0)
 7500 2a92 282B      		or r18,r24
 7501 2a94 392B      		or r19,r25
 7502 2a96 4A2B      		or r20,r26
 7503 2a98 5B2B      		or r21,r27
 7504 2a9a 2A87      		std Y+10,r18
 7505 2a9c 3B87      		std Y+11,r19
 7506 2a9e 4C87      		std Y+12,r20
 7507 2aa0 5D87      		std Y+13,r21
 7508               	.LM730:
 7509 2aa2 C75E      		subi r28,lo8(-(537))
 7510 2aa4 DD4F      		sbci r29,hi8(-(537))
 7511 2aa6 2881      		ld r18,Y
 7512 2aa8 30E0      		ldi r19,lo8(0)
 7513 2aaa 40E0      		ldi r20,lo8(0)
 7514 2aac 50E0      		ldi r21,hi8(0)
 7515 2aae 522F      		mov r21,r18
 7516 2ab0 4427      		clr r20
 7517 2ab2 3327      		clr r19
 7518 2ab4 2227      		clr r18
 7519 2ab6 8A91      		ld r24,-Y
 7520 2ab8 90E0      		ldi r25,lo8(0)
 7521 2aba A0E0      		ldi r26,lo8(0)
 7522 2abc B0E0      		ldi r27,hi8(0)
 7523 2abe DC01      		movw r26,r24
 7524 2ac0 9927      		clr r25
 7525 2ac2 8827      		clr r24
 7526 2ac4 282B      		or r18,r24
 7527 2ac6 392B      		or r19,r25
 7528 2ac8 4A2B      		or r20,r26
 7529 2aca 5B2B      		or r21,r27
 7530 2acc 2297      		sbiw r28,2
 7531 2ace 8991      		ld r24,Y+
 7532 2ad0 90E0      		ldi r25,lo8(0)
 7533 2ad2 A0E0      		ldi r26,lo8(0)
 7534 2ad4 B0E0      		ldi r27,hi8(0)
 7535 2ad6 282B      		or r18,r24
 7536 2ad8 392B      		or r19,r25
 7537 2ada 4A2B      		or r20,r26
 7538 2adc 5B2B      		or r21,r27
 7539 2ade 9881      		ld r25,Y
 7540 2ae0 C751      		subi r28,lo8(-(-535))
 7541 2ae2 D240      		sbci r29,hi8(-(-535))
 7542 2ae4 80E0      		ldi r24,lo8(0)
 7543 2ae6 A0E0      		ldi r26,lo8(0)
 7544 2ae8 B0E0      		ldi r27,hi8(0)
 7545 2aea 282B      		or r18,r24
 7546 2aec 392B      		or r19,r25
 7547 2aee 4A2B      		or r20,r26
 7548 2af0 5B2B      		or r21,r27
 7549 2af2 2E87      		std Y+14,r18
 7550 2af4 3F87      		std Y+15,r19
 7551 2af6 488B      		std Y+16,r20
 7552 2af8 598B      		std Y+17,r21
 7553               	.LVL594:
 7554               	.L517:
 7555               	.LM731:
 7556 2afa 1883      		st Y,r17
 7557               	.LM732:
 7558 2afc 1AA6      		std Y+42,__zero_reg__
 7559 2afe 1BA6      		std Y+43,__zero_reg__
 7560 2b00 1CA6      		std Y+44,__zero_reg__
 7561 2b02 1DA6      		std Y+45,__zero_reg__
 7562               	.LM733:
 7563 2b04 8091 0000 		lds r24,Fsid
 7564 2b08 9091 0000 		lds r25,(Fsid)+1
 7565 2b0c 0196      		adiw r24,1
 7566 2b0e 8093 0000 		sts Fsid,r24
 7567 2b12 9093 0000 		sts (Fsid)+1,r25
 7568 2b16 8E83      		std Y+6,r24
 7569 2b18 9F83      		std Y+7,r25
 7570 2b1a 00C0      		rjmp .L504
 7571               	.LVL595:
 7572               	.L505:
 7573               	.LM734:
 7574 2b1c 8AE0      		ldi r24,lo8(10)
 7575 2b1e 00C0      		rjmp .L499
 7576               	.LVL596:
 7577               	.L504:
 7578 2b20 80E0      		ldi r24,lo8(0)
 7579 2b22 00C0      		rjmp .L499
 7580               	.LVL597:
 7581               	.L510:
 7582 2b24 8DE0      		ldi r24,lo8(13)
 7583               	.LVL598:
 7584               	.L499:
 7585               	/* epilogue start */
 7586               	.LM735:
 7587 2b26 DF91      		pop r29
 7588 2b28 CF91      		pop r28
 7589               	.LVL599:
 7590 2b2a 1F91      		pop r17
 7591               	.LVL600:
 7592 2b2c 0F91      		pop r16
 7593               	.LVL601:
 7594 2b2e FF90      		pop r15
 7595               	.LVL602:
 7596 2b30 EF90      		pop r14
 7597               	.LVL603:
 7598 2b32 DF90      		pop r13
 7599 2b34 CF90      		pop r12
 7600 2b36 BF90      		pop r11
 7601 2b38 AF90      		pop r10
 7602               	.LVL604:
 7603 2b3a 9F90      		pop r9
 7604 2b3c 8F90      		pop r8
 7605 2b3e 7F90      		pop r7
 7606 2b40 6F90      		pop r6
 7607               	.LVL605:
 7608 2b42 0895      		ret
 7609               	.LVL606:
 7610               	.L516:
 7611               	.LM736:
 7612 2b44 C35A      		subi r28,lo8(-(93))
 7613 2b46 DF4F      		sbci r29,hi8(-(93))
 7614 2b48 2881      		ld r18,Y
 7615               	.LVL607:
 7616 2b4a 30E0      		ldi r19,lo8(0)
 7617 2b4c 40E0      		ldi r20,lo8(0)
 7618 2b4e 50E0      		ldi r21,hi8(0)
 7619 2b50 522F      		mov r21,r18
 7620 2b52 4427      		clr r20
 7621 2b54 3327      		clr r19
 7622 2b56 2227      		clr r18
 7623               	.LVL608:
 7624 2b58 8A91      		ld r24,-Y
 7625 2b5a 90E0      		ldi r25,lo8(0)
 7626 2b5c A0E0      		ldi r26,lo8(0)
 7627 2b5e B0E0      		ldi r27,hi8(0)
 7628 2b60 DC01      		movw r26,r24
 7629 2b62 9927      		clr r25
 7630 2b64 8827      		clr r24
 7631               	.LVL609:
 7632 2b66 282B      		or r18,r24
 7633 2b68 392B      		or r19,r25
 7634 2b6a 4A2B      		or r20,r26
 7635 2b6c 5B2B      		or r21,r27
 7636 2b6e 2297      		sbiw r28,2
 7637 2b70 8991      		ld r24,Y+
 7638 2b72 90E0      		ldi r25,lo8(0)
 7639 2b74 A0E0      		ldi r26,lo8(0)
 7640 2b76 B0E0      		ldi r27,hi8(0)
 7641 2b78 282B      		or r18,r24
 7642 2b7a 392B      		or r19,r25
 7643 2b7c 4A2B      		or r20,r26
 7644 2b7e 5B2B      		or r21,r27
 7645 2b80 9881      		ld r25,Y
 7646 2b82 CB55      		subi r28,lo8(-(-91))
 7647 2b84 D040      		sbci r29,hi8(-(-91))
 7648 2b86 80E0      		ldi r24,lo8(0)
 7649 2b88 A0E0      		ldi r26,lo8(0)
 7650 2b8a B0E0      		ldi r27,hi8(0)
 7651 2b8c 282B      		or r18,r24
 7652 2b8e 392B      		or r19,r25
 7653 2b90 4A2B      		or r20,r26
 7654 2b92 5B2B      		or r21,r27
 7655 2b94 2AA3      		std Y+34,r18
 7656 2b96 3BA3      		std Y+35,r19
 7657 2b98 4CA3      		std Y+36,r20
 7658 2b9a 5DA3      		std Y+37,r21
 7659 2b9c 13E0      		ldi r17,lo8(3)
 7660               	.LVL610:
 7661 2b9e 00C0      		rjmp .L518
 7662               	.LFE64:
 7665               	validate:
 7666               	.LFB65:
 7667               	.LM737:
 7668               	.LVL611:
 7669               	/* prologue: function */
 7670               	/* frame size = 0 */
 7671 2ba0 FC01      		movw r30,r24
 7672               	.LM738:
 7673 2ba2 0097      		sbiw r24,0
 7674 2ba4 01F0      		breq .L521
 7675 2ba6 8081      		ld r24,Z
 7676               	.LVL612:
 7677 2ba8 8823      		tst r24
 7678 2baa 01F0      		breq .L521
 7679 2bac 8681      		ldd r24,Z+6
 7680 2bae 9781      		ldd r25,Z+7
 7681 2bb0 8617      		cp r24,r22
 7682 2bb2 9707      		cpc r25,r23
 7683 2bb4 01F4      		brne .L521
 7684               	.LBB611:
 7685               	.LBB612:
 7686               	.LM739:
 7687 2bb6 8181      		ldd r24,Z+1
 7688 2bb8 8823      		tst r24
 7689 2bba 01F0      		breq .L522
 7690 2bbc 81E0      		ldi r24,lo8(1)
 7691 2bbe 00C0      		rjmp .L523
 7692               	.L522:
 7693               	.LM740:
 7694 2bc0 8091 0000 		lds r24,Stat
 7695               	.L523:
 7696               	.LBE612:
 7697               	.LBE611:
 7698               	.LM741:
 7699 2bc4 80FD      		sbrc r24,0
 7700 2bc6 00C0      		rjmp .L524
 7701 2bc8 80E0      		ldi r24,lo8(0)
 7702 2bca 0895      		ret
 7703               	.L524:
 7704 2bcc 83E0      		ldi r24,lo8(3)
 7705 2bce 0895      		ret
 7706               	.LVL613:
 7707               	.L521:
 7708 2bd0 89E0      		ldi r24,lo8(9)
 7709               	.LM742:
 7710 2bd2 0895      		ret
 7711               	.LFE65:
 7713               	.global	f_mount
 7715               	f_mount:
 7716               	.LFB66:
 7717               	.LM743:
 7718               	.LVL614:
 7719 2bd4 CF93      		push r28
 7720 2bd6 DF93      		push r29
 7721               	/* prologue: function */
 7722               	/* frame size = 0 */
 7723 2bd8 EB01      		movw r28,r22
 7724               	.LM744:
 7725 2bda 8230      		cpi r24,lo8(2)
 7726 2bdc 00F0      		brlo .L528
 7727               	.LVL615:
 7728 2bde 8BE0      		ldi r24,lo8(11)
 7729               	.LVL616:
 7730 2be0 00C0      		rjmp .L529
 7731               	.LVL617:
 7732               	.L528:
 7733               	.LM745:
 7734 2be2 A82F      		mov r26,r24
 7735 2be4 B0E0      		ldi r27,lo8(0)
 7736 2be6 FD01      		movw r30,r26
 7737 2be8 EE0F      		lsl r30
 7738 2bea FF1F      		rol r31
 7739 2bec E050      		subi r30,lo8(-(FatFs))
 7740 2bee F040      		sbci r31,hi8(-(FatFs))
 7741 2bf0 0190      		ld __tmp_reg__,Z+
 7742 2bf2 F081      		ld r31,Z
 7743 2bf4 E02D      		mov r30,__tmp_reg__
 7744               	.LVL618:
 7745               	.LM746:
 7746 2bf6 3097      		sbiw r30,0
 7747 2bf8 01F0      		breq .L530
 7748               	.LM747:
 7749 2bfa 1082      		st Z,__zero_reg__
 7750               	.L530:
 7751               	.LM748:
 7752 2bfc 2097      		sbiw r28,0
 7753 2bfe 01F0      		breq .L531
 7754               	.LM749:
 7755 2c00 1882      		st Y,__zero_reg__
 7756               	.L531:
 7757               	.LM750:
 7758 2c02 AA0F      		lsl r26
 7759 2c04 BB1F      		rol r27
 7760 2c06 A050      		subi r26,lo8(-(FatFs))
 7761 2c08 B040      		sbci r27,hi8(-(FatFs))
 7762 2c0a CD93      		st X+,r28
 7763 2c0c DC93      		st X,r29
 7764 2c0e 80E0      		ldi r24,lo8(0)
 7765               	.LVL619:
 7766               	.L529:
 7767               	/* epilogue start */
 7768               	.LM751:
 7769 2c10 DF91      		pop r29
 7770 2c12 CF91      		pop r28
 7771               	.LVL620:
 7772 2c14 0895      		ret
 7773               	.LFE66:
 7775               	.global	f_open
 7777               	f_open:
 7778               	.LFB67:
 7779               	.LM752:
 7780               	.LVL621:
 7781 2c16 5F92      		push r5
 7782 2c18 6F92      		push r6
 7783 2c1a 7F92      		push r7
 7784 2c1c 8F92      		push r8
 7785 2c1e 9F92      		push r9
 7786 2c20 AF92      		push r10
 7787 2c22 BF92      		push r11
 7788 2c24 CF92      		push r12
 7789 2c26 DF92      		push r13
 7790 2c28 EF92      		push r14
 7791 2c2a FF92      		push r15
 7792 2c2c 0F93      		push r16
 7793 2c2e 1F93      		push r17
 7794 2c30 DF93      		push r29
 7795 2c32 CF93      		push r28
 7796 2c34 CDB7      		in r28,__SP_L__
 7797 2c36 DEB7      		in r29,__SP_H__
 7798 2c38 A497      		sbiw r28,36
 7799 2c3a CDBF      		out __SP_L__,r28
 7800 2c3c DEBF      		out __SP_H__,r29
 7801               	/* prologue: function */
 7802               	/* frame size = 36 */
 7803 2c3e 3C01      		movw r6,r24
 7804 2c40 6BA3      		std Y+35,r22
 7805 2c42 7CA3      		std Y+36,r23
 7806               	.LM753:
 7807 2c44 DC01      		movw r26,r24
 7808 2c46 1D92      		st X+,__zero_reg__
 7809 2c48 1C92      		st X,__zero_reg__
 7810               	.LM754:
 7811 2c4a 5FE1      		ldi r21,lo8(31)
 7812 2c4c 552E      		mov r5,r21
 7813               	.LVL622:
 7814 2c4e 5422      		and r5,r20
 7815               	.LM755:
 7816 2c50 8E01      		movw r16,r28
 7817 2c52 035F      		subi r16,lo8(-(13))
 7818 2c54 1F4F      		sbci r17,hi8(-(13))
 7819 2c56 4E71      		andi r20,lo8(30)
 7820               	.LVL623:
 7821 2c58 CE01      		movw r24,r28
 7822               	.LVL624:
 7823 2c5a 8396      		adiw r24,35
 7824 2c5c B801      		movw r22,r16
 7825               	.LVL625:
 7826 2c5e 0E94 0000 		call chk_mounted
 7827               	.LVL626:
 7828               	.LM756:
 7829 2c62 8823      		tst r24
 7830               	.LVL627:
 7831 2c64 01F0      		breq .L534
 7832 2c66 282F      		mov r18,r24
 7833 2c68 00C0      		rjmp .L535
 7834               	.LVL628:
 7835               	.L534:
 7836               	.LM757:
 7837 2c6a CE01      		movw r24,r28
 7838               	.LVL629:
 7839 2c6c 0196      		adiw r24,1
 7840 2c6e 89A3      		std Y+33,r24
 7841 2c70 9AA3      		std Y+34,r25
 7842               	.LM758:
 7843 2c72 6BA1      		ldd r22,Y+35
 7844 2c74 7CA1      		ldd r23,Y+36
 7845 2c76 C801      		movw r24,r16
 7846 2c78 0E94 0000 		call follow_path
 7847 2c7c 282F      		mov r18,r24
 7848               	.LVL630:
 7849               	.LM759:
 7850 2c7e 452D      		mov r20,r5
 7851               	.LVL631:
 7852 2c80 50E0      		ldi r21,lo8(0)
 7853 2c82 CA01      		movw r24,r20
 7854 2c84 8C71      		andi r24,lo8(28)
 7855 2c86 9070      		andi r25,hi8(28)
 7856 2c88 892B      		or r24,r25
 7857 2c8a 01F4      		brne .+2
 7858 2c8c 00C0      		rjmp .L536
 7859               	.LBB613:
 7860               	.LM760:
 7861 2c8e 2223      		tst r18
 7862 2c90 01F0      		breq .L537
 7863               	.LM761:
 7864 2c92 2430      		cpi r18,lo8(4)
 7865 2c94 01F0      		breq .+2
 7866 2c96 00C0      		rjmp .L535
 7867               	.LM762:
 7868 2c98 C801      		movw r24,r16
 7869 2c9a 0E94 0000 		call dir_register
 7870               	.LVL632:
 7871 2c9e 282F      		mov r18,r24
 7872               	.LVL633:
 7873               	.LM763:
 7874 2ca0 8823      		tst r24
 7875 2ca2 01F0      		breq .+2
 7876 2ca4 00C0      		rjmp .L535
 7877               	.LVL634:
 7878               	.LM764:
 7879 2ca6 B8E0      		ldi r27,lo8(8)
 7880 2ca8 5B2A      		or r5,r27
 7881               	.LM765:
 7882 2caa CF8C      		ldd r12,Y+31
 7883 2cac D8A0      		ldd r13,Y+32
 7884               	.LVL635:
 7885 2cae 00C0      		rjmp .L538
 7886               	.LVL636:
 7887               	.L537:
 7888               	.LM766:
 7889 2cb0 52FE      		sbrs r5,2
 7890 2cb2 00C0      		rjmp .L539
 7891               	.LVL637:
 7892 2cb4 28E0      		ldi r18,lo8(8)
 7893 2cb6 00C0      		rjmp .L535
 7894               	.L539:
 7895               	.LM767:
 7896 2cb8 CF8C      		ldd r12,Y+31
 7897 2cba D8A0      		ldd r13,Y+32
 7898               	.LVL638:
 7899               	.LM768:
 7900 2cbc C114      		cp r12,__zero_reg__
 7901 2cbe D104      		cpc r13,__zero_reg__
 7902 2cc0 01F4      		brne .+2
 7903 2cc2 00C0      		rjmp .L540
 7904 2cc4 F601      		movw r30,r12
 7905 2cc6 8385      		ldd r24,Z+11
 7906 2cc8 8171      		andi r24,lo8(17)
 7907 2cca 01F0      		breq .+2
 7908 2ccc 00C0      		rjmp .L540
 7909               	.LM769:
 7910 2cce 53FE      		sbrs r5,3
 7911 2cd0 00C0      		rjmp .L538
 7912               	.LM770:
 7913 2cd2 9589      		ldd r25,Z+21
 7914 2cd4 80E0      		ldi r24,lo8(0)
 7915 2cd6 2489      		ldd r18,Z+20
 7916               	.LVL639:
 7917 2cd8 30E0      		ldi r19,lo8(0)
 7918 2cda 822B      		or r24,r18
 7919 2cdc 932B      		or r25,r19
 7920 2cde A0E0      		ldi r26,lo8(0)
 7921 2ce0 B0E0      		ldi r27,hi8(0)
 7922 2ce2 8C01      		movw r16,r24
 7923 2ce4 FF24      		clr r15
 7924 2ce6 EE24      		clr r14
 7925               	.LVL640:
 7926 2ce8 938D      		ldd r25,Z+27
 7927 2cea 80E0      		ldi r24,lo8(0)
 7928 2cec 228D      		ldd r18,Z+26
 7929 2cee 30E0      		ldi r19,lo8(0)
 7930 2cf0 822B      		or r24,r18
 7931 2cf2 932B      		or r25,r19
 7932 2cf4 A0E0      		ldi r26,lo8(0)
 7933 2cf6 B0E0      		ldi r27,hi8(0)
 7934 2cf8 E82A      		or r14,r24
 7935 2cfa F92A      		or r15,r25
 7936 2cfc 0A2B      		or r16,r26
 7937 2cfe 1B2B      		or r17,r27
 7938               	.LM771:
 7939 2d00 148A      		std Z+20,__zero_reg__
 7940 2d02 158A      		std Z+21,__zero_reg__
 7941               	.LM772:
 7942 2d04 128E      		std Z+26,__zero_reg__
 7943 2d06 138E      		std Z+27,__zero_reg__
 7944               	.LM773:
 7945 2d08 148E      		std Z+28,__zero_reg__
 7946 2d0a 158E      		std Z+29,__zero_reg__
 7947 2d0c 168E      		std Z+30,__zero_reg__
 7948 2d0e 178E      		std Z+31,__zero_reg__
 7949               	.LM774:
 7950 2d10 ED85      		ldd r30,Y+13
 7951 2d12 FE85      		ldd r31,Y+14
 7952 2d14 81E0      		ldi r24,lo8(1)
 7953 2d16 8483      		std Z+4,r24
 7954               	.LM775:
 7955 2d18 82A4      		ldd r8,Z+42
 7956 2d1a 93A4      		ldd r9,Z+43
 7957 2d1c A4A4      		ldd r10,Z+44
 7958 2d1e B5A4      		ldd r11,Z+45
 7959               	.LVL641:
 7960               	.LM776:
 7961 2d20 E114      		cp r14,__zero_reg__
 7962 2d22 F104      		cpc r15,__zero_reg__
 7963 2d24 0105      		cpc r16,__zero_reg__
 7964 2d26 1105      		cpc r17,__zero_reg__
 7965 2d28 01F0      		breq .L541
 7966               	.LM777:
 7967 2d2a CF01      		movw r24,r30
 7968 2d2c B801      		movw r22,r16
 7969 2d2e A701      		movw r20,r14
 7970 2d30 0E94 0000 		call remove_chain
 7971 2d34 282F      		mov r18,r24
 7972               	.LVL642:
 7973               	.LM778:
 7974 2d36 8823      		tst r24
 7975 2d38 01F0      		breq .+2
 7976 2d3a 00C0      		rjmp .L535
 7977               	.LVL643:
 7978               	.LM779:
 7979 2d3c ED85      		ldd r30,Y+13
 7980 2d3e FE85      		ldd r31,Y+14
 7981 2d40 0894      		sec
 7982 2d42 E108      		sbc r14,__zero_reg__
 7983 2d44 F108      		sbc r15,__zero_reg__
 7984 2d46 0109      		sbc r16,__zero_reg__
 7985 2d48 1109      		sbc r17,__zero_reg__
 7986 2d4a E286      		std Z+10,r14
 7987 2d4c F386      		std Z+11,r15
 7988 2d4e 0487      		std Z+12,r16
 7989 2d50 1587      		std Z+13,r17
 7990               	.L541:
 7991               	.LM780:
 7992 2d52 8D85      		ldd r24,Y+13
 7993 2d54 9E85      		ldd r25,Y+14
 7994               	.LVL644:
 7995 2d56 B501      		movw r22,r10
 7996 2d58 A401      		movw r20,r8
 7997 2d5a 0E94 0000 		call move_window
 7998               	.LVL645:
 7999 2d5e 282F      		mov r18,r24
 8000               	.LVL646:
 8001               	.LM781:
 8002 2d60 8823      		tst r24
 8003 2d62 01F0      		breq .+2
 8004 2d64 00C0      		rjmp .L535
 8005               	.LVL647:
 8006               	.L538:
 8007               	.LM782:
 8008 2d66 53FE      		sbrs r5,3
 8009 2d68 00C0      		rjmp .L542
 8010               	.LM783:
 8011 2d6a D601      		movw r26,r12
 8012 2d6c 1B96      		adiw r26,11
 8013 2d6e 1C92      		st X,__zero_reg__
 8014               	.LM784:
 8015 2d70 0E94 0000 		call get_fattime
 8016               	.LVL648:
 8017               	.LM785:
 8018 2d74 F601      		movw r30,r12
 8019 2d76 6687      		std Z+14,r22
 8020 2d78 272F      		mov r18,r23
 8021 2d7a 3327      		clr r19
 8022 2d7c 2787      		std Z+15,r18
 8023 2d7e 9C01      		movw r18,r24
 8024 2d80 4427      		clr r20
 8025 2d82 5527      		clr r21
 8026 2d84 208B      		std Z+16,r18
 8027 2d86 692F      		mov r22,r25
 8028 2d88 7727      		clr r23
 8029 2d8a 8827      		clr r24
 8030 2d8c 9927      		clr r25
 8031 2d8e 618B      		std Z+17,r22
 8032               	.LM786:
 8033 2d90 ED85      		ldd r30,Y+13
 8034 2d92 FE85      		ldd r31,Y+14
 8035 2d94 81E0      		ldi r24,lo8(1)
 8036 2d96 8483      		std Z+4,r24
 8037               	.LM787:
 8038 2d98 F0E2      		ldi r31,lo8(32)
 8039 2d9a 5F2A      		or r5,r31
 8040 2d9c 00C0      		rjmp .L542
 8041               	.LVL649:
 8042               	.L536:
 8043               	.LBE613:
 8044               	.LM788:
 8045 2d9e 2223      		tst r18
 8046 2da0 01F0      		breq .+2
 8047 2da2 00C0      		rjmp .L535
 8048               	.LM789:
 8049 2da4 CF8C      		ldd r12,Y+31
 8050 2da6 D8A0      		ldd r13,Y+32
 8051               	.LVL650:
 8052               	.LM790:
 8053 2da8 C114      		cp r12,__zero_reg__
 8054 2daa D104      		cpc r13,__zero_reg__
 8055 2dac 01F4      		brne .+2
 8056 2dae 00C0      		rjmp .L543
 8057 2db0 D601      		movw r26,r12
 8058 2db2 1B96      		adiw r26,11
 8059 2db4 8C91      		ld r24,X
 8060 2db6 84FD      		sbrc r24,4
 8061 2db8 00C0      		rjmp .L543
 8062               	.LM791:
 8063 2dba 51FE      		sbrs r5,1
 8064 2dbc 00C0      		rjmp .L542
 8065               	.LVL651:
 8066 2dbe 80FD      		sbrc r24,0
 8067 2dc0 00C0      		rjmp .L540
 8068               	.LVL652:
 8069               	.L542:
 8070               	.LM792:
 8071 2dc2 ED85      		ldd r30,Y+13
 8072 2dc4 FE85      		ldd r31,Y+14
 8073 2dc6 22A5      		ldd r18,Z+42
 8074 2dc8 33A5      		ldd r19,Z+43
 8075 2dca 44A5      		ldd r20,Z+44
 8076 2dcc 55A5      		ldd r21,Z+45
 8077               	.LVL653:
 8078 2dce D301      		movw r26,r6
 8079 2dd0 5A96      		adiw r26,26
 8080 2dd2 2D93      		st X+,r18
 8081 2dd4 3D93      		st X+,r19
 8082 2dd6 4D93      		st X+,r20
 8083 2dd8 5C93      		st X,r21
 8084 2dda 5D97      		sbiw r26,26+3
 8085               	.LM793:
 8086 2ddc 8F8D      		ldd r24,Y+31
 8087 2dde 98A1      		ldd r25,Y+32
 8088               	.LVL654:
 8089 2de0 5E96      		adiw r26,30
 8090 2de2 8D93      		st X+,r24
 8091 2de4 9C93      		st X,r25
 8092 2de6 5F97      		sbiw r26,30+1
 8093               	.LM794:
 8094 2de8 1496      		adiw r26,4
 8095 2dea 5C92      		st X,r5
 8096               	.LM795:
 8097 2dec D601      		movw r26,r12
 8098 2dee 5596      		adiw r26,21
 8099 2df0 3C91      		ld r19,X
 8100 2df2 5597      		sbiw r26,21
 8101 2df4 20E0      		ldi r18,lo8(0)
 8102 2df6 5496      		adiw r26,20
 8103 2df8 8C91      		ld r24,X
 8104 2dfa 5497      		sbiw r26,20
 8105 2dfc 90E0      		ldi r25,lo8(0)
 8106 2dfe 282B      		or r18,r24
 8107 2e00 392B      		or r19,r25
 8108 2e02 40E0      		ldi r20,lo8(0)
 8109 2e04 50E0      		ldi r21,hi8(0)
 8110 2e06 A901      		movw r20,r18
 8111 2e08 3327      		clr r19
 8112 2e0a 2227      		clr r18
 8113 2e0c 5B96      		adiw r26,27
 8114 2e0e 9C91      		ld r25,X
 8115 2e10 5B97      		sbiw r26,27
 8116 2e12 80E0      		ldi r24,lo8(0)
 8117 2e14 5A96      		adiw r26,26
 8118 2e16 6C91      		ld r22,X
 8119 2e18 70E0      		ldi r23,lo8(0)
 8120 2e1a 862B      		or r24,r22
 8121 2e1c 972B      		or r25,r23
 8122 2e1e A0E0      		ldi r26,lo8(0)
 8123 2e20 B0E0      		ldi r27,hi8(0)
 8124 2e22 282B      		or r18,r24
 8125 2e24 392B      		or r19,r25
 8126 2e26 4A2B      		or r20,r26
 8127 2e28 5B2B      		or r21,r27
 8128 2e2a D301      		movw r26,r6
 8129 2e2c 1E96      		adiw r26,14
 8130 2e2e 2D93      		st X+,r18
 8131 2e30 3D93      		st X+,r19
 8132 2e32 4D93      		st X+,r20
 8133 2e34 5C93      		st X,r21
 8134 2e36 5197      		sbiw r26,14+3
 8135               	.LM796:
 8136 2e38 D601      		movw r26,r12
 8137 2e3a 5F96      		adiw r26,31
 8138 2e3c 2C91      		ld r18,X
 8139 2e3e 5F97      		sbiw r26,31
 8140 2e40 30E0      		ldi r19,lo8(0)
 8141 2e42 40E0      		ldi r20,lo8(0)
 8142 2e44 50E0      		ldi r21,hi8(0)
 8143 2e46 522F      		mov r21,r18
 8144 2e48 4427      		clr r20
 8145 2e4a 3327      		clr r19
 8146 2e4c 2227      		clr r18
 8147 2e4e 5E96      		adiw r26,30
 8148 2e50 8C91      		ld r24,X
 8149 2e52 90E0      		ldi r25,lo8(0)
 8150 2e54 A0E0      		ldi r26,lo8(0)
 8151 2e56 B0E0      		ldi r27,hi8(0)
 8152 2e58 DC01      		movw r26,r24
 8153 2e5a 9927      		clr r25
 8154 2e5c 8827      		clr r24
 8155 2e5e 282B      		or r18,r24
 8156 2e60 392B      		or r19,r25
 8157 2e62 4A2B      		or r20,r26
 8158 2e64 5B2B      		or r21,r27
 8159 2e66 D601      		movw r26,r12
 8160 2e68 5C96      		adiw r26,28
 8161 2e6a 8C91      		ld r24,X
 8162 2e6c 90E0      		ldi r25,lo8(0)
 8163 2e6e A0E0      		ldi r26,lo8(0)
 8164 2e70 B0E0      		ldi r27,hi8(0)
 8165 2e72 282B      		or r18,r24
 8166 2e74 392B      		or r19,r25
 8167 2e76 4A2B      		or r20,r26
 8168 2e78 5B2B      		or r21,r27
 8169 2e7a D601      		movw r26,r12
 8170 2e7c 5D96      		adiw r26,29
 8171 2e7e 9C91      		ld r25,X
 8172 2e80 80E0      		ldi r24,lo8(0)
 8173 2e82 A0E0      		ldi r26,lo8(0)
 8174 2e84 B0E0      		ldi r27,hi8(0)
 8175 2e86 282B      		or r18,r24
 8176 2e88 392B      		or r19,r25
 8177 2e8a 4A2B      		or r20,r26
 8178 2e8c 5B2B      		or r21,r27
 8179 2e8e D301      		movw r26,r6
 8180 2e90 1A96      		adiw r26,10
 8181 2e92 2D93      		st X+,r18
 8182 2e94 3D93      		st X+,r19
 8183 2e96 4D93      		st X+,r20
 8184 2e98 5C93      		st X,r21
 8185 2e9a 1D97      		sbiw r26,10+3
 8186               	.LM797:
 8187 2e9c 1696      		adiw r26,6
 8188 2e9e 1D92      		st X+,__zero_reg__
 8189 2ea0 1D92      		st X+,__zero_reg__
 8190 2ea2 1D92      		st X+,__zero_reg__
 8191 2ea4 1C92      		st X,__zero_reg__
 8192 2ea6 1997      		sbiw r26,6+3
 8193 2ea8 8FEF      		ldi r24,lo8(-1)
 8194 2eaa 1596      		adiw r26,5
 8195 2eac 8C93      		st X,r24
 8196 2eae 1597      		sbiw r26,5
 8197               	.LM798:
 8198 2eb0 5696      		adiw r26,22
 8199 2eb2 1D92      		st X+,__zero_reg__
 8200 2eb4 1D92      		st X+,__zero_reg__
 8201 2eb6 1D92      		st X+,__zero_reg__
 8202 2eb8 1C92      		st X,__zero_reg__
 8203 2eba 5997      		sbiw r26,22+3
 8204               	.LM799:
 8205 2ebc ED93      		st X+,r30
 8206 2ebe FC93      		st X,r31
 8207 2ec0 1197      		sbiw r26,1
 8208 2ec2 8681      		ldd r24,Z+6
 8209 2ec4 9781      		ldd r25,Z+7
 8210 2ec6 1296      		adiw r26,2
 8211 2ec8 8D93      		st X+,r24
 8212 2eca 9C93      		st X,r25
 8213 2ecc 1397      		sbiw r26,2+1
 8214 2ece 20E0      		ldi r18,lo8(0)
 8215               	.LVL655:
 8216 2ed0 00C0      		rjmp .L535
 8217               	.LVL656:
 8218               	.L540:
 8219               	.LM800:
 8220 2ed2 27E0      		ldi r18,lo8(7)
 8221 2ed4 00C0      		rjmp .L535
 8222               	.LVL657:
 8223               	.L543:
 8224 2ed6 24E0      		ldi r18,lo8(4)
 8225               	.LVL658:
 8226               	.L535:
 8227               	.LM801:
 8228 2ed8 822F      		mov r24,r18
 8229               	/* epilogue start */
 8230 2eda A496      		adiw r28,36
 8231 2edc CDBF      		out __SP_L__,r28
 8232 2ede DEBF      		out __SP_H__,r29
 8233 2ee0 CF91      		pop r28
 8234 2ee2 DF91      		pop r29
 8235 2ee4 1F91      		pop r17
 8236 2ee6 0F91      		pop r16
 8237 2ee8 FF90      		pop r15
 8238 2eea EF90      		pop r14
 8239               	.LVL659:
 8240 2eec DF90      		pop r13
 8241 2eee CF90      		pop r12
 8242               	.LVL660:
 8243 2ef0 BF90      		pop r11
 8244 2ef2 AF90      		pop r10
 8245 2ef4 9F90      		pop r9
 8246 2ef6 8F90      		pop r8
 8247               	.LVL661:
 8248 2ef8 7F90      		pop r7
 8249 2efa 6F90      		pop r6
 8250               	.LVL662:
 8251 2efc 5F90      		pop r5
 8252               	.LVL663:
 8253 2efe 0895      		ret
 8254               	.LFE67:
 8256               	.global	f_read
 8258               	f_read:
 8259               	.LFB68:
 8260               	.LM802:
 8261               	.LVL664:
 8262 2f00 2F92      		push r2
 8263 2f02 3F92      		push r3
 8264 2f04 4F92      		push r4
 8265 2f06 5F92      		push r5
 8266 2f08 6F92      		push r6
 8267 2f0a 7F92      		push r7
 8268 2f0c 8F92      		push r8
 8269 2f0e 9F92      		push r9
 8270 2f10 AF92      		push r10
 8271 2f12 BF92      		push r11
 8272 2f14 CF92      		push r12
 8273 2f16 DF92      		push r13
 8274 2f18 EF92      		push r14
 8275 2f1a FF92      		push r15
 8276 2f1c 0F93      		push r16
 8277 2f1e 1F93      		push r17
 8278 2f20 DF93      		push r29
 8279 2f22 CF93      		push r28
 8280 2f24 00D0      		rcall .
 8281 2f26 0F92      		push __tmp_reg__
 8282 2f28 CDB7      		in r28,__SP_L__
 8283 2f2a DEB7      		in r29,__SP_H__
 8284               	/* prologue: function */
 8285               	/* frame size = 4 */
 8286 2f2c 8B83      		std Y+3,r24
 8287 2f2e 9C83      		std Y+4,r25
 8288 2f30 162F      		mov r17,r22
 8289 2f32 072F      		mov r16,r23
 8290               	.LVL665:
 8291 2f34 4A01      		movw r8,r20
 8292 2f36 2983      		std Y+1,r18
 8293 2f38 3A83      		std Y+2,r19
 8294               	.LM803:
 8295 2f3a D901      		movw r26,r18
 8296 2f3c 1D92      		st X+,__zero_reg__
 8297 2f3e 1C92      		st X,__zero_reg__
 8298               	.LM804:
 8299 2f40 FC01      		movw r30,r24
 8300 2f42 6281      		ldd r22,Z+2
 8301 2f44 7381      		ldd r23,Z+3
 8302               	.LVL666:
 8303 2f46 8081      		ld r24,Z
 8304 2f48 9181      		ldd r25,Z+1
 8305               	.LVL667:
 8306 2f4a 0E94 0000 		call validate
 8307               	.LVL668:
 8308 2f4e 782E      		mov r7,r24
 8309               	.LVL669:
 8310               	.LM805:
 8311 2f50 8823      		tst r24
 8312 2f52 01F0      		breq .+2
 8313 2f54 00C0      		rjmp .L546
 8314               	.LVL670:
 8315               	.LM806:
 8316 2f56 AB81      		ldd r26,Y+3
 8317 2f58 BC81      		ldd r27,Y+4
 8318 2f5a 1496      		adiw r26,4
 8319 2f5c 8C91      		ld r24,X
 8320               	.LVL671:
 8321 2f5e 87FD      		sbrc r24,7
 8322 2f60 00C0      		rjmp .L574
 8323               	.L547:
 8324               	.LM807:
 8325 2f62 80FD      		sbrc r24,0
 8326 2f64 00C0      		rjmp .L548
 8327 2f66 07E0      		ldi r16,lo8(7)
 8328 2f68 702E      		mov r7,r16
 8329               	.LVL672:
 8330 2f6a 00C0      		rjmp .L546
 8331               	.LVL673:
 8332               	.L548:
 8333               	.LM808:
 8334 2f6c EB81      		ldd r30,Y+3
 8335 2f6e FC81      		ldd r31,Y+4
 8336 2f70 2285      		ldd r18,Z+10
 8337 2f72 3385      		ldd r19,Z+11
 8338 2f74 4485      		ldd r20,Z+12
 8339 2f76 5585      		ldd r21,Z+13
 8340               	.LVL674:
 8341 2f78 8681      		ldd r24,Z+6
 8342 2f7a 9781      		ldd r25,Z+7
 8343 2f7c A085      		ldd r26,Z+8
 8344 2f7e B185      		ldd r27,Z+9
 8345 2f80 281B      		sub r18,r24
 8346 2f82 390B      		sbc r19,r25
 8347 2f84 4A0B      		sbc r20,r26
 8348 2f86 5B0B      		sbc r21,r27
 8349               	.LM809:
 8350 2f88 C401      		movw r24,r8
 8351 2f8a A0E0      		ldi r26,lo8(0)
 8352 2f8c B0E0      		ldi r27,hi8(0)
 8353               	.LVL675:
 8354 2f8e 2817      		cp r18,r24
 8355 2f90 3907      		cpc r19,r25
 8356 2f92 4A07      		cpc r20,r26
 8357 2f94 5B07      		cpc r21,r27
 8358 2f96 00F4      		brsh .L549
 8359               	.LVL676:
 8360 2f98 4901      		movw r8,r18
 8361               	.LVL677:
 8362               	.L549:
 8363               	.LM810:
 8364 2f9a 812F      		mov r24,r17
 8365               	.LVL678:
 8366 2f9c 902F      		mov r25,r16
 8367               	.LVL679:
 8368 2f9e 9C01      		movw r18,r24
 8369               	.LVL680:
 8370 2fa0 2901      		movw r4,r18
 8371               	.LVL681:
 8372               	.LBB614:
 8373               	.LBB615:
 8374               	.LM811:
 8375 2fa2 10E2      		ldi r17,lo8(32)
 8376 2fa4 212E      		mov r2,r17
 8377 2fa6 312C      		mov r3,__zero_reg__
 8378               	.LVL682:
 8379 2fa8 6B81      		ldd r22,Y+3
 8380 2faa 7C81      		ldd r23,Y+4
 8381 2fac 260E      		add r2,r22
 8382 2fae 371E      		adc r3,r23
 8383 2fb0 00C0      		rjmp .L550
 8384               	.LVL683:
 8385               	.L572:
 8386               	.LBE615:
 8387               	.LBE614:
 8388               	.LM812:
 8389 2fb2 AB81      		ldd r26,Y+3
 8390 2fb4 BC81      		ldd r27,Y+4
 8391               	.LVL684:
 8392 2fb6 1696      		adiw r26,6
 8393 2fb8 2D91      		ld r18,X+
 8394 2fba 3D91      		ld r19,X+
 8395 2fbc 4D91      		ld r20,X+
 8396 2fbe 5C91      		ld r21,X
 8397 2fc0 1997      		sbiw r26,6+3
 8398 2fc2 DA01      		movw r26,r20
 8399 2fc4 C901      		movw r24,r18
 8400 2fc6 9170      		andi r25,hi8(511)
 8401 2fc8 A070      		andi r26,hlo8(511)
 8402 2fca B070      		andi r27,hhi8(511)
 8403 2fcc 0097      		sbiw r24,0
 8404 2fce A105      		cpc r26,__zero_reg__
 8405 2fd0 B105      		cpc r27,__zero_reg__
 8406 2fd2 01F0      		breq .+2
 8407 2fd4 00C0      		rjmp .L551
 8408               	.LM813:
 8409 2fd6 AB81      		ldd r26,Y+3
 8410 2fd8 BC81      		ldd r27,Y+4
 8411 2fda ED91      		ld r30,X+
 8412 2fdc FC91      		ld r31,X
 8413 2fde 1197      		sbiw r26,1
 8414 2fe0 1596      		adiw r26,5
 8415 2fe2 9C91      		ld r25,X
 8416 2fe4 1597      		sbiw r26,5
 8417               	.LVL685:
 8418 2fe6 8281      		ldd r24,Z+2
 8419 2fe8 9817      		cp r25,r24
 8420 2fea 00F0      		brlo .L552
 8421               	.LM814:
 8422 2fec 2115      		cp r18,__zero_reg__
 8423 2fee 3105      		cpc r19,__zero_reg__
 8424 2ff0 4105      		cpc r20,__zero_reg__
 8425 2ff2 5105      		cpc r21,__zero_reg__
 8426 2ff4 01F4      		brne .L553
 8427 2ff6 1E96      		adiw r26,14
 8428 2ff8 6D91      		ld r22,X+
 8429 2ffa 7D91      		ld r23,X+
 8430 2ffc 8D91      		ld r24,X+
 8431 2ffe 9C91      		ld r25,X
 8432 3000 5197      		sbiw r26,14+3
 8433               	.LVL686:
 8434 3002 00C0      		rjmp .L554
 8435               	.LVL687:
 8436               	.L553:
 8437 3004 AB81      		ldd r26,Y+3
 8438 3006 BC81      		ldd r27,Y+4
 8439 3008 5296      		adiw r26,18
 8440 300a 4D91      		ld r20,X+
 8441 300c 5D91      		ld r21,X+
 8442 300e 6D91      		ld r22,X+
 8443 3010 7C91      		ld r23,X
 8444 3012 5597      		sbiw r26,18+3
 8445 3014 CF01      		movw r24,r30
 8446 3016 0E94 0000 		call get_fat
 8447               	.LVL688:
 8448               	.L554:
 8449               	.LM815:
 8450 301a 6230      		cpi r22,lo8(2)
 8451 301c 7105      		cpc r23,__zero_reg__
 8452 301e 8105      		cpc r24,__zero_reg__
 8453 3020 9105      		cpc r25,__zero_reg__
 8454 3022 00F4      		brsh .L555
 8455 3024 EB81      		ldd r30,Y+3
 8456 3026 FC81      		ldd r31,Y+4
 8457 3028 8481      		ldd r24,Z+4
 8458 302a 8068      		ori r24,lo8(-128)
 8459 302c 8483      		std Z+4,r24
 8460               	.LVL689:
 8461               	.L574:
 8462 302e B2E0      		ldi r27,lo8(2)
 8463 3030 7B2E      		mov r7,r27
 8464 3032 00C0      		rjmp .L546
 8465               	.LVL690:
 8466               	.L555:
 8467               	.LM816:
 8468 3034 6F3F      		cpi r22,lo8(-1)
 8469 3036 FFEF      		ldi r31,hi8(-1)
 8470 3038 7F07      		cpc r23,r31
 8471 303a FFEF      		ldi r31,hlo8(-1)
 8472 303c 8F07      		cpc r24,r31
 8473 303e FFEF      		ldi r31,hhi8(-1)
 8474 3040 9F07      		cpc r25,r31
 8475 3042 01F4      		brne .+2
 8476 3044 00C0      		rjmp .L575
 8477               	.L556:
 8478               	.LM817:
 8479 3046 EB81      		ldd r30,Y+3
 8480 3048 FC81      		ldd r31,Y+4
 8481 304a 628B      		std Z+18,r22
 8482 304c 738B      		std Z+19,r23
 8483 304e 848B      		std Z+20,r24
 8484 3050 958B      		std Z+21,r25
 8485               	.LM818:
 8486 3052 1582      		std Z+5,__zero_reg__
 8487               	.LVL691:
 8488               	.L552:
 8489               	.LM819:
 8490 3054 AB81      		ldd r26,Y+3
 8491 3056 BC81      		ldd r27,Y+4
 8492 3058 0D91      		ld r16,X+
 8493 305a 1C91      		ld r17,X
 8494 305c 1197      		sbiw r26,1
 8495               	.LVL692:
 8496               	.LBB617:
 8497               	.LBB618:
 8498               	.LM820:
 8499 305e 5296      		adiw r26,18
 8500 3060 2D91      		ld r18,X+
 8501 3062 3D91      		ld r19,X+
 8502 3064 4D91      		ld r20,X+
 8503 3066 5C91      		ld r21,X
 8504 3068 5597      		sbiw r26,18+3
 8505               	.LVL693:
 8506 306a 2250      		subi r18,lo8(-(-2))
 8507 306c 3040      		sbci r19,hi8(-(-2))
 8508 306e 4040      		sbci r20,hlo8(-(-2))
 8509 3070 5040      		sbci r21,hhi8(-(-2))
 8510               	.LM821:
 8511 3072 F801      		movw r30,r16
 8512 3074 828D      		ldd r24,Z+26
 8513 3076 938D      		ldd r25,Z+27
 8514 3078 A48D      		ldd r26,Z+28
 8515 307a B58D      		ldd r27,Z+29
 8516 307c 0297      		sbiw r24,2
 8517 307e A109      		sbc r26,__zero_reg__
 8518 3080 B109      		sbc r27,__zero_reg__
 8519 3082 2817      		cp r18,r24
 8520 3084 3907      		cpc r19,r25
 8521 3086 4A07      		cpc r20,r26
 8522 3088 5B07      		cpc r21,r27
 8523 308a 00F4      		brsh .L557
 8524               	.LM822:
 8525 308c 6280      		ldd r6,Z+2
 8526 308e 662D      		mov r22,r6
 8527               	.LVL694:
 8528 3090 70E0      		ldi r23,lo8(0)
 8529 3092 80E0      		ldi r24,lo8(0)
 8530 3094 90E0      		ldi r25,hi8(0)
 8531 3096 0E94 0000 		call __mulsi3
 8532               	.LVL695:
 8533 309a 9B01      		movw r18,r22
 8534 309c AC01      		movw r20,r24
 8535               	.LVL696:
 8536 309e F801      		movw r30,r16
 8537 30a0 86A1      		ldd r24,Z+38
 8538 30a2 97A1      		ldd r25,Z+39
 8539 30a4 A0A5      		ldd r26,Z+40
 8540 30a6 B1A5      		ldd r27,Z+41
 8541 30a8 280F      		add r18,r24
 8542 30aa 391F      		adc r19,r25
 8543 30ac 4A1F      		adc r20,r26
 8544 30ae 5B1F      		adc r21,r27
 8545               	.LBE618:
 8546               	.LBE617:
 8547               	.LM823:
 8548 30b0 2115      		cp r18,__zero_reg__
 8549 30b2 3105      		cpc r19,__zero_reg__
 8550 30b4 4105      		cpc r20,__zero_reg__
 8551 30b6 5105      		cpc r21,__zero_reg__
 8552 30b8 01F4      		brne .L558
 8553               	.LVL697:
 8554               	.L557:
 8555 30ba AB81      		ldd r26,Y+3
 8556 30bc BC81      		ldd r27,Y+4
 8557 30be 1496      		adiw r26,4
 8558 30c0 8C91      		ld r24,X
 8559 30c2 1497      		sbiw r26,4
 8560 30c4 8068      		ori r24,lo8(-128)
 8561 30c6 1496      		adiw r26,4
 8562 30c8 8C93      		st X,r24
 8563 30ca 00C0      		rjmp .L574
 8564               	.LVL698:
 8565               	.L558:
 8566               	.LM824:
 8567 30cc EB81      		ldd r30,Y+3
 8568 30ce FC81      		ldd r31,Y+4
 8569 30d0 8581      		ldd r24,Z+5
 8570 30d2 5901      		movw r10,r18
 8571 30d4 6A01      		movw r12,r20
 8572 30d6 A80E      		add r10,r24
 8573 30d8 B11C      		adc r11,__zero_reg__
 8574 30da C11C      		adc r12,__zero_reg__
 8575 30dc D11C      		adc r13,__zero_reg__
 8576               	.LVL699:
 8577               	.LM825:
 8578 30de 7401      		movw r14,r8
 8579 30e0 EF2C      		mov r14,r15
 8580 30e2 FF24      		clr r15
 8581 30e4 E694      		lsr r14
 8582               	.LM826:
 8583 30e6 E114      		cp r14,__zero_reg__
 8584 30e8 F104      		cpc r15,__zero_reg__
 8585 30ea 01F4      		brne .+2
 8586 30ec 00C0      		rjmp .L559
 8587               	.LM827:
 8588 30ee 282F      		mov r18,r24
 8589 30f0 30E0      		ldi r19,lo8(0)
 8590 30f2 C701      		movw r24,r14
 8591 30f4 820F      		add r24,r18
 8592 30f6 931F      		adc r25,r19
 8593 30f8 662D      		mov r22,r6
 8594 30fa 70E0      		ldi r23,lo8(0)
 8595 30fc 6817      		cp r22,r24
 8596 30fe 7907      		cpc r23,r25
 8597 3100 00F4      		brsh .L560
 8598               	.LM828:
 8599 3102 7B01      		movw r14,r22
 8600 3104 E21A      		sub r14,r18
 8601 3106 F30A      		sbc r15,r19
 8602               	.L560:
 8603               	.LM829:
 8604 3108 D801      		movw r26,r16
 8605 310a 1196      		adiw r26,1
 8606 310c 8C91      		ld r24,X
 8607 310e B201      		movw r22,r4
 8608 3110 A601      		movw r20,r12
 8609 3112 9501      		movw r18,r10
 8610 3114 0E2D      		mov r16,r14
 8611 3116 0E94 0000 		call disk_read
 8612 311a EB81      		ldd r30,Y+3
 8613 311c FC81      		ldd r31,Y+4
 8614 311e 9481      		ldd r25,Z+4
 8615 3120 8823      		tst r24
 8616 3122 01F0      		breq .L561
 8617               	.LM830:
 8618 3124 9068      		ori r25,lo8(-128)
 8619 3126 9483      		std Z+4,r25
 8620 3128 00C0      		rjmp .L576
 8621               	.L561:
 8622               	.LM831:
 8623 312a 96FF      		sbrs r25,6
 8624 312c 00C0      		rjmp .L562
 8625 312e AB81      		ldd r26,Y+3
 8626 3130 BC81      		ldd r27,Y+4
 8627 3132 5696      		adiw r26,22
 8628 3134 2D91      		ld r18,X+
 8629 3136 3D91      		ld r19,X+
 8630 3138 4D91      		ld r20,X+
 8631 313a 5C91      		ld r21,X
 8632 313c 5997      		sbiw r26,22+3
 8633 313e 2A19      		sub r18,r10
 8634 3140 3B09      		sbc r19,r11
 8635 3142 4C09      		sbc r20,r12
 8636 3144 5D09      		sbc r21,r13
 8637 3146 C701      		movw r24,r14
 8638 3148 A0E0      		ldi r26,lo8(0)
 8639 314a B0E0      		ldi r27,hi8(0)
 8640               	.LVL700:
 8641 314c 2817      		cp r18,r24
 8642 314e 3907      		cpc r19,r25
 8643 3150 4A07      		cpc r20,r26
 8644 3152 5B07      		cpc r21,r27
 8645 3154 00F4      		brsh .L562
 8646               	.LVL701:
 8647               	.LBB619:
 8648               	.LBB616:
 8649               	.LM832:
 8650 3156 F9E0      		ldi r31,9
 8651 3158 220F      	1:	lsl r18
 8652 315a 331F      		rol r19
 8653 315c 441F      		rol r20
 8654 315e 551F      		rol r21
 8655 3160 FA95      		dec r31
 8656 3162 01F4      		brne 1b
 8657 3164 C201      		movw r24,r4
 8658               	.LVL702:
 8659 3166 820F      		add r24,r18
 8660 3168 931F      		adc r25,r19
 8661 316a D101      		movw r26,r2
 8662               	.LVL703:
 8663 316c FC01      		movw r30,r24
 8664               	.LM833:
 8665 316e 9C01      		movw r18,r24
 8666 3170 2050      		subi r18,lo8(-(512))
 8667 3172 3E4F      		sbci r19,hi8(-(512))
 8668 3174 00C0      		rjmp .L563
 8669               	.LVL704:
 8670               	.L564:
 8671 3176 8D91      		ld r24,X+
 8672 3178 8193      		st Z+,r24
 8673               	.LVL705:
 8674               	.L563:
 8675 317a E217      		cp r30,r18
 8676 317c F307      		cpc r31,r19
 8677 317e 01F4      		brne .L564
 8678               	.LVL706:
 8679               	.L562:
 8680               	.LBE616:
 8681               	.LBE619:
 8682               	.LM834:
 8683 3180 EB81      		ldd r30,Y+3
 8684 3182 FC81      		ldd r31,Y+4
 8685               	.LVL707:
 8686 3184 8581      		ldd r24,Z+5
 8687               	.LVL708:
 8688 3186 8E0D      		add r24,r14
 8689 3188 8583      		std Z+5,r24
 8690               	.LM835:
 8691 318a B701      		movw r22,r14
 8692               	.LVL709:
 8693 318c 762F      		mov r23,r22
 8694 318e 6627      		clr r22
 8695 3190 770F      		lsl r23
 8696 3192 00C0      		rjmp .L565
 8697               	.LVL710:
 8698               	.L559:
 8699               	.LM836:
 8700 3194 AB81      		ldd r26,Y+3
 8701 3196 BC81      		ldd r27,Y+4
 8702 3198 1496      		adiw r26,4
 8703 319a 8C91      		ld r24,X
 8704 319c 1497      		sbiw r26,4
 8705 319e 86FF      		sbrs r24,6
 8706 31a0 00C0      		rjmp .L566
 8707               	.LM837:
 8708 31a2 5696      		adiw r26,22
 8709 31a4 2D91      		ld r18,X+
 8710 31a6 3D91      		ld r19,X+
 8711 31a8 4D91      		ld r20,X+
 8712 31aa 5C91      		ld r21,X
 8713 31ac 5997      		sbiw r26,22+3
 8714 31ae F801      		movw r30,r16
 8715 31b0 8181      		ldd r24,Z+1
 8716 31b2 B101      		movw r22,r2
 8717 31b4 01E0      		ldi r16,lo8(1)
 8718 31b6 0E94 0000 		call disk_write
 8719 31ba AB81      		ldd r26,Y+3
 8720 31bc BC81      		ldd r27,Y+4
 8721 31be 1496      		adiw r26,4
 8722 31c0 9C91      		ld r25,X
 8723 31c2 1497      		sbiw r26,4
 8724 31c4 8823      		tst r24
 8725 31c6 01F0      		breq .L567
 8726               	.LM838:
 8727 31c8 9068      		ori r25,lo8(-128)
 8728 31ca 1496      		adiw r26,4
 8729 31cc 9C93      		st X,r25
 8730 31ce 00C0      		rjmp .L576
 8731               	.L567:
 8732               	.LM839:
 8733 31d0 9F7B      		andi r25,lo8(-65)
 8734 31d2 EB81      		ldd r30,Y+3
 8735 31d4 FC81      		ldd r31,Y+4
 8736 31d6 9483      		std Z+4,r25
 8737               	.L566:
 8738               	.LM840:
 8739 31d8 EB81      		ldd r30,Y+3
 8740 31da FC81      		ldd r31,Y+4
 8741 31dc 8689      		ldd r24,Z+22
 8742 31de 9789      		ldd r25,Z+23
 8743 31e0 A08D      		ldd r26,Z+24
 8744 31e2 B18D      		ldd r27,Z+25
 8745 31e4 8A15      		cp r24,r10
 8746 31e6 9B05      		cpc r25,r11
 8747 31e8 AC05      		cpc r26,r12
 8748 31ea BD05      		cpc r27,r13
 8749 31ec 01F0      		breq .L568
 8750               	.LM841:
 8751 31ee 0190      		ld __tmp_reg__,Z+
 8752 31f0 F081      		ld r31,Z
 8753 31f2 E02D      		mov r30,__tmp_reg__
 8754 31f4 8181      		ldd r24,Z+1
 8755 31f6 B101      		movw r22,r2
 8756 31f8 A601      		movw r20,r12
 8757 31fa 9501      		movw r18,r10
 8758 31fc 01E0      		ldi r16,lo8(1)
 8759 31fe 0E94 0000 		call disk_read
 8760 3202 8823      		tst r24
 8761 3204 01F0      		breq .L568
 8762               	.LVL711:
 8763               	.L575:
 8764               	.LM842:
 8765 3206 AB81      		ldd r26,Y+3
 8766 3208 BC81      		ldd r27,Y+4
 8767 320a 1496      		adiw r26,4
 8768 320c 8C91      		ld r24,X
 8769 320e 1497      		sbiw r26,4
 8770 3210 8068      		ori r24,lo8(-128)
 8771 3212 1496      		adiw r26,4
 8772 3214 8C93      		st X,r24
 8773               	.L576:
 8774 3216 7724      		clr r7
 8775 3218 7394      		inc r7
 8776 321a 00C0      		rjmp .L546
 8777               	.LVL712:
 8778               	.L568:
 8779               	.LM843:
 8780 321c EB81      		ldd r30,Y+3
 8781 321e FC81      		ldd r31,Y+4
 8782 3220 A68A      		std Z+22,r10
 8783 3222 B78A      		std Z+23,r11
 8784 3224 C08E      		std Z+24,r12
 8785 3226 D18E      		std Z+25,r13
 8786               	.LM844:
 8787 3228 8581      		ldd r24,Z+5
 8788 322a 8F5F      		subi r24,lo8(-(1))
 8789 322c 8583      		std Z+5,r24
 8790               	.LVL713:
 8791               	.L551:
 8792               	.LM845:
 8793 322e AB81      		ldd r26,Y+3
 8794 3230 BC81      		ldd r27,Y+4
 8795 3232 1696      		adiw r26,6
 8796 3234 2D91      		ld r18,X+
 8797 3236 3D91      		ld r19,X+
 8798 3238 4D91      		ld r20,X+
 8799 323a 5C91      		ld r21,X
 8800 323c 1997      		sbiw r26,6+3
 8801 323e C901      		movw r24,r18
 8802 3240 9170      		andi r25,hi8(511)
 8803 3242 E0E0      		ldi r30,lo8(512)
 8804 3244 F2E0      		ldi r31,hi8(512)
 8805 3246 E81B      		sub r30,r24
 8806 3248 F90B      		sbc r31,r25
 8807 324a B401      		movw r22,r8
 8808 324c E815      		cp r30,r8
 8809 324e F905      		cpc r31,r9
 8810 3250 00F4      		brsh .L569
 8811               	.LVL714:
 8812 3252 BF01      		movw r22,r30
 8813               	.L569:
 8814               	.LM846:
 8815 3254 8B01      		movw r16,r22
 8816               	.LVL715:
 8817               	.LBB620:
 8818               	.LBB621:
 8819               	.LM847:
 8820 3256 F901      		movw r30,r18
 8821               	.LVL716:
 8822 3258 F170      		andi r31,hi8(511)
 8823 325a B096      		adiw r30,32
 8824 325c 8B81      		ldd r24,Y+3
 8825 325e 9C81      		ldd r25,Y+4
 8826 3260 E80F      		add r30,r24
 8827 3262 F91F      		adc r31,r25
 8828 3264 9201      		movw r18,r4
 8829 3266 00C0      		rjmp .L570
 8830               	.LVL717:
 8831               	.L571:
 8832               	.LM848:
 8833 3268 8191      		ld r24,Z+
 8834 326a D901      		movw r26,r18
 8835 326c 8D93      		st X+,r24
 8836 326e 9D01      		movw r18,r26
 8837               	.LVL718:
 8838               	.L570:
 8839 3270 0150      		subi r16,lo8(-(-1))
 8840 3272 1040      		sbci r17,hi8(-(-1))
 8841 3274 BFEF      		ldi r27,hi8(-1)
 8842 3276 0F3F      		cpi r16,lo8(-1)
 8843 3278 1B07      		cpc r17,r27
 8844 327a 01F4      		brne .L571
 8845               	.LVL719:
 8846               	.L565:
 8847               	.LBE621:
 8848               	.LBE620:
 8849               	.LM849:
 8850 327c 460E      		add r4,r22
 8851 327e 571E      		adc r5,r23
 8852 3280 CB01      		movw r24,r22
 8853 3282 A0E0      		ldi r26,lo8(0)
 8854 3284 B0E0      		ldi r27,hi8(0)
 8855               	.LVL720:
 8856 3286 EB81      		ldd r30,Y+3
 8857 3288 FC81      		ldd r31,Y+4
 8858               	.LVL721:
 8859 328a 2681      		ldd r18,Z+6
 8860 328c 3781      		ldd r19,Z+7
 8861 328e 4085      		ldd r20,Z+8
 8862 3290 5185      		ldd r21,Z+9
 8863 3292 280F      		add r18,r24
 8864 3294 391F      		adc r19,r25
 8865 3296 4A1F      		adc r20,r26
 8866 3298 5B1F      		adc r21,r27
 8867 329a 2683      		std Z+6,r18
 8868 329c 3783      		std Z+7,r19
 8869 329e 4087      		std Z+8,r20
 8870 32a0 5187      		std Z+9,r21
 8871 32a2 E981      		ldd r30,Y+1
 8872 32a4 FA81      		ldd r31,Y+2
 8873 32a6 8081      		ld r24,Z
 8874 32a8 9181      		ldd r25,Z+1
 8875 32aa 860F      		add r24,r22
 8876 32ac 971F      		adc r25,r23
 8877 32ae 8083      		st Z,r24
 8878 32b0 9183      		std Z+1,r25
 8879 32b2 861A      		sub r8,r22
 8880 32b4 970A      		sbc r9,r23
 8881               	.LVL722:
 8882               	.L550:
 8883               	.LM850:
 8884 32b6 8114      		cp r8,__zero_reg__
 8885 32b8 9104      		cpc r9,__zero_reg__
 8886 32ba 01F0      		breq .+2
 8887 32bc 00C0      		rjmp .L572
 8888               	.LVL723:
 8889               	.L546:
 8890               	.LM851:
 8891 32be 872D      		mov r24,r7
 8892               	/* epilogue start */
 8893 32c0 2496      		adiw r28,4
 8894 32c2 CDBF      		out __SP_L__,r28
 8895 32c4 DEBF      		out __SP_H__,r29
 8896 32c6 CF91      		pop r28
 8897 32c8 DF91      		pop r29
 8898 32ca 1F91      		pop r17
 8899               	.LVL724:
 8900 32cc 0F91      		pop r16
 8901               	.LVL725:
 8902 32ce FF90      		pop r15
 8903 32d0 EF90      		pop r14
 8904               	.LVL726:
 8905 32d2 DF90      		pop r13
 8906 32d4 CF90      		pop r12
 8907 32d6 BF90      		pop r11
 8908 32d8 AF90      		pop r10
 8909               	.LVL727:
 8910 32da 9F90      		pop r9
 8911 32dc 8F90      		pop r8
 8912               	.LVL728:
 8913 32de 7F90      		pop r7
 8914               	.LVL729:
 8915 32e0 6F90      		pop r6
 8916 32e2 5F90      		pop r5
 8917 32e4 4F90      		pop r4
 8918               	.LVL730:
 8919 32e6 3F90      		pop r3
 8920 32e8 2F90      		pop r2
 8921               	.LVL731:
 8922 32ea 0895      		ret
 8923               	.LFE68:
 8925               	.global	f_write
 8927               	f_write:
 8928               	.LFB69:
 8929               	.LM852:
 8930               	.LVL732:
 8931 32ec 2F92      		push r2
 8932 32ee 3F92      		push r3
 8933 32f0 4F92      		push r4
 8934 32f2 5F92      		push r5
 8935 32f4 6F92      		push r6
 8936 32f6 7F92      		push r7
 8937 32f8 8F92      		push r8
 8938 32fa 9F92      		push r9
 8939 32fc AF92      		push r10
 8940 32fe BF92      		push r11
 8941 3300 CF92      		push r12
 8942 3302 DF92      		push r13
 8943 3304 EF92      		push r14
 8944 3306 FF92      		push r15
 8945 3308 0F93      		push r16
 8946 330a 1F93      		push r17
 8947 330c DF93      		push r29
 8948 330e CF93      		push r28
 8949 3310 00D0      		rcall .
 8950 3312 0F92      		push __tmp_reg__
 8951 3314 CDB7      		in r28,__SP_L__
 8952 3316 DEB7      		in r29,__SP_H__
 8953               	/* prologue: function */
 8954               	/* frame size = 4 */
 8955 3318 8B83      		std Y+3,r24
 8956 331a 9C83      		std Y+4,r25
 8957 331c 162F      		mov r17,r22
 8958 331e 072F      		mov r16,r23
 8959               	.LVL733:
 8960 3320 4A01      		movw r8,r20
 8961 3322 2983      		std Y+1,r18
 8962 3324 3A83      		std Y+2,r19
 8963               	.LM853:
 8964 3326 D901      		movw r26,r18
 8965 3328 1D92      		st X+,__zero_reg__
 8966 332a 1C92      		st X,__zero_reg__
 8967               	.LM854:
 8968 332c FC01      		movw r30,r24
 8969 332e 6281      		ldd r22,Z+2
 8970 3330 7381      		ldd r23,Z+3
 8971               	.LVL734:
 8972 3332 8081      		ld r24,Z
 8973 3334 9181      		ldd r25,Z+1
 8974               	.LVL735:
 8975 3336 0E94 0000 		call validate
 8976               	.LVL736:
 8977 333a 682E      		mov r6,r24
 8978               	.LVL737:
 8979               	.LM855:
 8980 333c 8823      		tst r24
 8981 333e 01F0      		breq .+2
 8982 3340 00C0      		rjmp .L578
 8983               	.LVL738:
 8984               	.LM856:
 8985 3342 AB81      		ldd r26,Y+3
 8986 3344 BC81      		ldd r27,Y+4
 8987 3346 1496      		adiw r26,4
 8988 3348 8C91      		ld r24,X
 8989               	.LVL739:
 8990 334a 87FD      		sbrc r24,7
 8991 334c 00C0      		rjmp .L609
 8992               	.L579:
 8993               	.LM857:
 8994 334e 81FD      		sbrc r24,1
 8995 3350 00C0      		rjmp .L580
 8996 3352 57E0      		ldi r21,lo8(7)
 8997 3354 652E      		mov r6,r21
 8998 3356 00C0      		rjmp .L578
 8999               	.L580:
 9000               	.LM858:
 9001 3358 EB81      		ldd r30,Y+3
 9002 335a FC81      		ldd r31,Y+4
 9003 335c 2285      		ldd r18,Z+10
 9004 335e 3385      		ldd r19,Z+11
 9005 3360 4485      		ldd r20,Z+12
 9006 3362 5585      		ldd r21,Z+13
 9007 3364 C401      		movw r24,r8
 9008 3366 A0E0      		ldi r26,lo8(0)
 9009 3368 B0E0      		ldi r27,hi8(0)
 9010               	.LVL740:
 9011 336a 820F      		add r24,r18
 9012 336c 931F      		adc r25,r19
 9013 336e A41F      		adc r26,r20
 9014 3370 B51F      		adc r27,r21
 9015               	.LVL741:
 9016 3372 8217      		cp r24,r18
 9017 3374 9307      		cpc r25,r19
 9018 3376 A407      		cpc r26,r20
 9019 3378 B507      		cpc r27,r21
 9020 337a 00F4      		brsh .L581
 9021 337c 8824      		clr r8
 9022 337e 9924      		clr r9
 9023               	.LVL742:
 9024               	.L581:
 9025               	.LM859:
 9026 3380 812F      		mov r24,r17
 9027               	.LVL743:
 9028 3382 902F      		mov r25,r16
 9029               	.LVL744:
 9030 3384 9C01      		movw r18,r24
 9031               	.LVL745:
 9032 3386 2901      		movw r4,r18
 9033               	.LVL746:
 9034               	.LM860:
 9035 3388 40E2      		ldi r20,lo8(32)
 9036 338a 242E      		mov r2,r20
 9037 338c 312C      		mov r3,__zero_reg__
 9038               	.LVL747:
 9039 338e 6B81      		ldd r22,Y+3
 9040 3390 7C81      		ldd r23,Y+4
 9041 3392 260E      		add r2,r22
 9042 3394 371E      		adc r3,r23
 9043 3396 00C0      		rjmp .L582
 9044               	.LVL748:
 9045               	.L606:
 9046               	.LM861:
 9047 3398 AB81      		ldd r26,Y+3
 9048 339a BC81      		ldd r27,Y+4
 9049               	.LVL749:
 9050 339c 1696      		adiw r26,6
 9051 339e 2D91      		ld r18,X+
 9052 33a0 3D91      		ld r19,X+
 9053 33a2 4D91      		ld r20,X+
 9054 33a4 5C91      		ld r21,X
 9055 33a6 1997      		sbiw r26,6+3
 9056 33a8 DA01      		movw r26,r20
 9057 33aa C901      		movw r24,r18
 9058 33ac 9170      		andi r25,hi8(511)
 9059 33ae A070      		andi r26,hlo8(511)
 9060 33b0 B070      		andi r27,hhi8(511)
 9061 33b2 0097      		sbiw r24,0
 9062 33b4 A105      		cpc r26,__zero_reg__
 9063 33b6 B105      		cpc r27,__zero_reg__
 9064 33b8 01F0      		breq .+2
 9065 33ba 00C0      		rjmp .L583
 9066               	.LM862:
 9067 33bc AB81      		ldd r26,Y+3
 9068 33be BC81      		ldd r27,Y+4
 9069 33c0 ED91      		ld r30,X+
 9070 33c2 FC91      		ld r31,X
 9071 33c4 1197      		sbiw r26,1
 9072 33c6 1596      		adiw r26,5
 9073 33c8 9C91      		ld r25,X
 9074 33ca 1597      		sbiw r26,5
 9075               	.LVL750:
 9076 33cc 8281      		ldd r24,Z+2
 9077 33ce 9817      		cp r25,r24
 9078 33d0 00F4      		brsh .+2
 9079 33d2 00C0      		rjmp .L584
 9080               	.LM863:
 9081 33d4 2115      		cp r18,__zero_reg__
 9082 33d6 3105      		cpc r19,__zero_reg__
 9083 33d8 4105      		cpc r20,__zero_reg__
 9084 33da 5105      		cpc r21,__zero_reg__
 9085 33dc 01F4      		brne .L585
 9086               	.LM864:
 9087 33de 1E96      		adiw r26,14
 9088 33e0 6D91      		ld r22,X+
 9089 33e2 7D91      		ld r23,X+
 9090 33e4 8D91      		ld r24,X+
 9091 33e6 9C91      		ld r25,X
 9092 33e8 5197      		sbiw r26,14+3
 9093               	.LVL751:
 9094               	.LM865:
 9095 33ea 6115      		cp r22,__zero_reg__
 9096 33ec 7105      		cpc r23,__zero_reg__
 9097 33ee 8105      		cpc r24,__zero_reg__
 9098 33f0 9105      		cpc r25,__zero_reg__
 9099 33f2 01F4      		brne .L586
 9100               	.LM866:
 9101 33f4 CF01      		movw r24,r30
 9102 33f6 40E0      		ldi r20,lo8(0)
 9103 33f8 50E0      		ldi r21,hi8(0)
 9104 33fa 60E0      		ldi r22,hlo8(0)
 9105 33fc 70E0      		ldi r23,hhi8(0)
 9106 33fe 0E94 0000 		call create_chain
 9107               	.LVL752:
 9108 3402 EB81      		ldd r30,Y+3
 9109 3404 FC81      		ldd r31,Y+4
 9110 3406 6687      		std Z+14,r22
 9111 3408 7787      		std Z+15,r23
 9112 340a 808B      		std Z+16,r24
 9113 340c 918B      		std Z+17,r25
 9114               	.LVL753:
 9115 340e 00C0      		rjmp .L587
 9116               	.LVL754:
 9117               	.L585:
 9118               	.LM867:
 9119 3410 AB81      		ldd r26,Y+3
 9120 3412 BC81      		ldd r27,Y+4
 9121 3414 5296      		adiw r26,18
 9122 3416 4D91      		ld r20,X+
 9123 3418 5D91      		ld r21,X+
 9124 341a 6D91      		ld r22,X+
 9125 341c 7C91      		ld r23,X
 9126 341e 5597      		sbiw r26,18+3
 9127 3420 CF01      		movw r24,r30
 9128 3422 0E94 0000 		call create_chain
 9129               	.LVL755:
 9130               	.L587:
 9131               	.LM868:
 9132 3426 6115      		cp r22,__zero_reg__
 9133 3428 7105      		cpc r23,__zero_reg__
 9134 342a 8105      		cpc r24,__zero_reg__
 9135 342c 9105      		cpc r25,__zero_reg__
 9136 342e 01F4      		brne .+2
 9137 3430 00C0      		rjmp .L588
 9138               	.L586:
 9139               	.LM869:
 9140 3432 6130      		cpi r22,lo8(1)
 9141 3434 7105      		cpc r23,__zero_reg__
 9142 3436 8105      		cpc r24,__zero_reg__
 9143 3438 9105      		cpc r25,__zero_reg__
 9144 343a 01F4      		brne .L589
 9145 343c EB81      		ldd r30,Y+3
 9146 343e FC81      		ldd r31,Y+4
 9147 3440 8481      		ldd r24,Z+4
 9148 3442 8068      		ori r24,lo8(-128)
 9149 3444 8483      		std Z+4,r24
 9150               	.LVL756:
 9151               	.L609:
 9152 3446 32E0      		ldi r19,lo8(2)
 9153 3448 632E      		mov r6,r19
 9154 344a 00C0      		rjmp .L578
 9155               	.LVL757:
 9156               	.L589:
 9157               	.LM870:
 9158 344c 6F3F      		cpi r22,lo8(-1)
 9159 344e FFEF      		ldi r31,hi8(-1)
 9160 3450 7F07      		cpc r23,r31
 9161 3452 FFEF      		ldi r31,hlo8(-1)
 9162 3454 8F07      		cpc r24,r31
 9163 3456 FFEF      		ldi r31,hhi8(-1)
 9164 3458 9F07      		cpc r25,r31
 9165 345a 01F4      		brne .L590
 9166 345c AB81      		ldd r26,Y+3
 9167 345e BC81      		ldd r27,Y+4
 9168 3460 1496      		adiw r26,4
 9169 3462 8C91      		ld r24,X
 9170 3464 1497      		sbiw r26,4
 9171 3466 8068      		ori r24,lo8(-128)
 9172 3468 1496      		adiw r26,4
 9173 346a 8C93      		st X,r24
 9174 346c 00C0      		rjmp .L610
 9175               	.L590:
 9176               	.LM871:
 9177 346e EB81      		ldd r30,Y+3
 9178 3470 FC81      		ldd r31,Y+4
 9179 3472 628B      		std Z+18,r22
 9180 3474 738B      		std Z+19,r23
 9181 3476 848B      		std Z+20,r24
 9182 3478 958B      		std Z+21,r25
 9183               	.LM872:
 9184 347a 1582      		std Z+5,__zero_reg__
 9185               	.LVL758:
 9186               	.L584:
 9187               	.LM873:
 9188 347c AB81      		ldd r26,Y+3
 9189 347e BC81      		ldd r27,Y+4
 9190 3480 1496      		adiw r26,4
 9191 3482 8C91      		ld r24,X
 9192 3484 1497      		sbiw r26,4
 9193 3486 86FF      		sbrs r24,6
 9194 3488 00C0      		rjmp .L591
 9195               	.LM874:
 9196 348a ED91      		ld r30,X+
 9197 348c FC91      		ld r31,X
 9198 348e 1197      		sbiw r26,1
 9199 3490 5696      		adiw r26,22
 9200 3492 2D91      		ld r18,X+
 9201 3494 3D91      		ld r19,X+
 9202 3496 4D91      		ld r20,X+
 9203 3498 5C91      		ld r21,X
 9204 349a 5997      		sbiw r26,22+3
 9205 349c 8181      		ldd r24,Z+1
 9206 349e B101      		movw r22,r2
 9207               	.LVL759:
 9208 34a0 01E0      		ldi r16,lo8(1)
 9209               	.LVL760:
 9210 34a2 0E94 0000 		call disk_write
 9211 34a6 EB81      		ldd r30,Y+3
 9212 34a8 FC81      		ldd r31,Y+4
 9213 34aa 9481      		ldd r25,Z+4
 9214 34ac 8823      		tst r24
 9215 34ae 01F0      		breq .L592
 9216               	.LM875:
 9217 34b0 9068      		ori r25,lo8(-128)
 9218 34b2 9483      		std Z+4,r25
 9219 34b4 00C0      		rjmp .L610
 9220               	.L592:
 9221               	.LM876:
 9222 34b6 9F7B      		andi r25,lo8(-65)
 9223 34b8 AB81      		ldd r26,Y+3
 9224 34ba BC81      		ldd r27,Y+4
 9225 34bc 1496      		adiw r26,4
 9226 34be 9C93      		st X,r25
 9227               	.LVL761:
 9228               	.L591:
 9229               	.LM877:
 9230 34c0 EB81      		ldd r30,Y+3
 9231 34c2 FC81      		ldd r31,Y+4
 9232 34c4 0081      		ld r16,Z
 9233 34c6 1181      		ldd r17,Z+1
 9234               	.LVL762:
 9235               	.LBB622:
 9236               	.LBB623:
 9237               	.LM878:
 9238 34c8 2289      		ldd r18,Z+18
 9239 34ca 3389      		ldd r19,Z+19
 9240 34cc 4489      		ldd r20,Z+20
 9241 34ce 5589      		ldd r21,Z+21
 9242               	.LVL763:
 9243 34d0 2250      		subi r18,lo8(-(-2))
 9244 34d2 3040      		sbci r19,hi8(-(-2))
 9245 34d4 4040      		sbci r20,hlo8(-(-2))
 9246 34d6 5040      		sbci r21,hhi8(-(-2))
 9247               	.LM879:
 9248 34d8 F801      		movw r30,r16
 9249 34da 828D      		ldd r24,Z+26
 9250 34dc 938D      		ldd r25,Z+27
 9251 34de A48D      		ldd r26,Z+28
 9252 34e0 B58D      		ldd r27,Z+29
 9253 34e2 0297      		sbiw r24,2
 9254 34e4 A109      		sbc r26,__zero_reg__
 9255 34e6 B109      		sbc r27,__zero_reg__
 9256 34e8 2817      		cp r18,r24
 9257 34ea 3907      		cpc r19,r25
 9258 34ec 4A07      		cpc r20,r26
 9259 34ee 5B07      		cpc r21,r27
 9260 34f0 00F4      		brsh .L593
 9261               	.LM880:
 9262 34f2 7280      		ldd r7,Z+2
 9263 34f4 672D      		mov r22,r7
 9264               	.LVL764:
 9265 34f6 70E0      		ldi r23,lo8(0)
 9266 34f8 80E0      		ldi r24,lo8(0)
 9267 34fa 90E0      		ldi r25,hi8(0)
 9268 34fc 0E94 0000 		call __mulsi3
 9269               	.LVL765:
 9270 3500 9B01      		movw r18,r22
 9271 3502 AC01      		movw r20,r24
 9272               	.LVL766:
 9273 3504 F801      		movw r30,r16
 9274 3506 86A1      		ldd r24,Z+38
 9275 3508 97A1      		ldd r25,Z+39
 9276 350a A0A5      		ldd r26,Z+40
 9277 350c B1A5      		ldd r27,Z+41
 9278 350e 280F      		add r18,r24
 9279 3510 391F      		adc r19,r25
 9280 3512 4A1F      		adc r20,r26
 9281 3514 5B1F      		adc r21,r27
 9282               	.LBE623:
 9283               	.LBE622:
 9284               	.LM881:
 9285 3516 2115      		cp r18,__zero_reg__
 9286 3518 3105      		cpc r19,__zero_reg__
 9287 351a 4105      		cpc r20,__zero_reg__
 9288 351c 5105      		cpc r21,__zero_reg__
 9289 351e 01F4      		brne .L594
 9290               	.LVL767:
 9291               	.L593:
 9292 3520 AB81      		ldd r26,Y+3
 9293 3522 BC81      		ldd r27,Y+4
 9294 3524 1496      		adiw r26,4
 9295 3526 8C91      		ld r24,X
 9296 3528 1497      		sbiw r26,4
 9297 352a 8068      		ori r24,lo8(-128)
 9298 352c 1496      		adiw r26,4
 9299 352e 8C93      		st X,r24
 9300 3530 00C0      		rjmp .L609
 9301               	.LVL768:
 9302               	.L594:
 9303               	.LM882:
 9304 3532 EB81      		ldd r30,Y+3
 9305 3534 FC81      		ldd r31,Y+4
 9306 3536 8581      		ldd r24,Z+5
 9307 3538 6901      		movw r12,r18
 9308 353a 7A01      		movw r14,r20
 9309 353c C80E      		add r12,r24
 9310 353e D11C      		adc r13,__zero_reg__
 9311 3540 E11C      		adc r14,__zero_reg__
 9312 3542 F11C      		adc r15,__zero_reg__
 9313               	.LVL769:
 9314               	.LM883:
 9315 3544 5401      		movw r10,r8
 9316 3546 AB2C      		mov r10,r11
 9317 3548 BB24      		clr r11
 9318 354a A694      		lsr r10
 9319               	.LM884:
 9320 354c A114      		cp r10,__zero_reg__
 9321 354e B104      		cpc r11,__zero_reg__
 9322 3550 01F4      		brne .+2
 9323 3552 00C0      		rjmp .L595
 9324               	.LM885:
 9325 3554 282F      		mov r18,r24
 9326 3556 30E0      		ldi r19,lo8(0)
 9327 3558 C501      		movw r24,r10
 9328 355a 820F      		add r24,r18
 9329 355c 931F      		adc r25,r19
 9330 355e 672D      		mov r22,r7
 9331 3560 70E0      		ldi r23,lo8(0)
 9332 3562 6817      		cp r22,r24
 9333 3564 7907      		cpc r23,r25
 9334 3566 00F4      		brsh .L596
 9335               	.LM886:
 9336 3568 5B01      		movw r10,r22
 9337 356a A21A      		sub r10,r18
 9338 356c B30A      		sbc r11,r19
 9339               	.L596:
 9340               	.LM887:
 9341 356e D801      		movw r26,r16
 9342 3570 1196      		adiw r26,1
 9343 3572 8C91      		ld r24,X
 9344 3574 B201      		movw r22,r4
 9345 3576 A701      		movw r20,r14
 9346 3578 9601      		movw r18,r12
 9347 357a 0A2D      		mov r16,r10
 9348 357c 0E94 0000 		call disk_write
 9349 3580 8823      		tst r24
 9350 3582 01F0      		breq .+2
 9351 3584 00C0      		rjmp .L611
 9352               	.L597:
 9353               	.LM888:
 9354 3586 AB81      		ldd r26,Y+3
 9355 3588 BC81      		ldd r27,Y+4
 9356 358a 5696      		adiw r26,22
 9357 358c 2D91      		ld r18,X+
 9358 358e 3D91      		ld r19,X+
 9359 3590 4D91      		ld r20,X+
 9360 3592 5C91      		ld r21,X
 9361 3594 5997      		sbiw r26,22+3
 9362 3596 2C19      		sub r18,r12
 9363 3598 3D09      		sbc r19,r13
 9364 359a 4E09      		sbc r20,r14
 9365 359c 5F09      		sbc r21,r15
 9366 359e C501      		movw r24,r10
 9367 35a0 A0E0      		ldi r26,lo8(0)
 9368 35a2 B0E0      		ldi r27,hi8(0)
 9369               	.LVL770:
 9370 35a4 2817      		cp r18,r24
 9371 35a6 3907      		cpc r19,r25
 9372 35a8 4A07      		cpc r20,r26
 9373 35aa 5B07      		cpc r21,r27
 9374 35ac 00F4      		brsh .L598
 9375               	.LVL771:
 9376               	.LBB624:
 9377               	.LBB625:
 9378               	.LM889:
 9379 35ae 99E0      		ldi r25,9
 9380 35b0 220F      	1:	lsl r18
 9381 35b2 331F      		rol r19
 9382 35b4 441F      		rol r20
 9383 35b6 551F      		rol r21
 9384 35b8 9A95      		dec r25
 9385 35ba 01F4      		brne 1b
 9386 35bc F201      		movw r30,r4
 9387               	.LVL772:
 9388 35be E20F      		add r30,r18
 9389 35c0 F31F      		adc r31,r19
 9390 35c2 D101      		movw r26,r2
 9391               	.LVL773:
 9392               	.LM890:
 9393 35c4 9F01      		movw r18,r30
 9394 35c6 2050      		subi r18,lo8(-(512))
 9395 35c8 3E4F      		sbci r19,hi8(-(512))
 9396 35ca 00C0      		rjmp .L599
 9397               	.LVL774:
 9398               	.L600:
 9399 35cc 8191      		ld r24,Z+
 9400               	.LVL775:
 9401 35ce 8D93      		st X+,r24
 9402               	.LVL776:
 9403               	.L599:
 9404 35d0 E217      		cp r30,r18
 9405 35d2 F307      		cpc r31,r19
 9406 35d4 01F4      		brne .L600
 9407               	.LVL777:
 9408               	.LBE625:
 9409               	.LBE624:
 9410               	.LM891:
 9411 35d6 EB81      		ldd r30,Y+3
 9412 35d8 FC81      		ldd r31,Y+4
 9413               	.LVL778:
 9414 35da 8481      		ldd r24,Z+4
 9415               	.LVL779:
 9416 35dc 8F7B      		andi r24,lo8(-65)
 9417 35de 8483      		std Z+4,r24
 9418               	.LVL780:
 9419               	.L598:
 9420               	.LM892:
 9421 35e0 AB81      		ldd r26,Y+3
 9422 35e2 BC81      		ldd r27,Y+4
 9423               	.LVL781:
 9424 35e4 1596      		adiw r26,5
 9425 35e6 8C91      		ld r24,X
 9426 35e8 1597      		sbiw r26,5
 9427 35ea 8A0D      		add r24,r10
 9428 35ec 1596      		adiw r26,5
 9429 35ee 8C93      		st X,r24
 9430               	.LM893:
 9431 35f0 B501      		movw r22,r10
 9432               	.LVL782:
 9433 35f2 762F      		mov r23,r22
 9434 35f4 6627      		clr r22
 9435 35f6 770F      		lsl r23
 9436 35f8 00C0      		rjmp .L601
 9437               	.LVL783:
 9438               	.L595:
 9439               	.LM894:
 9440 35fa EB81      		ldd r30,Y+3
 9441 35fc FC81      		ldd r31,Y+4
 9442 35fe 8689      		ldd r24,Z+22
 9443 3600 9789      		ldd r25,Z+23
 9444 3602 A08D      		ldd r26,Z+24
 9445 3604 B18D      		ldd r27,Z+25
 9446 3606 8C15      		cp r24,r12
 9447 3608 9D05      		cpc r25,r13
 9448 360a AE05      		cpc r26,r14
 9449 360c BF05      		cpc r27,r15
 9450 360e 01F0      		breq .L602
 9451               	.LM895:
 9452 3610 2681      		ldd r18,Z+6
 9453 3612 3781      		ldd r19,Z+7
 9454 3614 4085      		ldd r20,Z+8
 9455 3616 5185      		ldd r21,Z+9
 9456 3618 8285      		ldd r24,Z+10
 9457 361a 9385      		ldd r25,Z+11
 9458 361c A485      		ldd r26,Z+12
 9459 361e B585      		ldd r27,Z+13
 9460 3620 2817      		cp r18,r24
 9461 3622 3907      		cpc r19,r25
 9462 3624 4A07      		cpc r20,r26
 9463 3626 5B07      		cpc r21,r27
 9464 3628 00F4      		brsh .L602
 9465 362a D801      		movw r26,r16
 9466 362c 1196      		adiw r26,1
 9467 362e 8C91      		ld r24,X
 9468 3630 B101      		movw r22,r2
 9469 3632 A701      		movw r20,r14
 9470 3634 9601      		movw r18,r12
 9471 3636 01E0      		ldi r16,lo8(1)
 9472 3638 0E94 0000 		call disk_read
 9473 363c 8823      		tst r24
 9474 363e 01F0      		breq .L602
 9475               	.L611:
 9476               	.LM896:
 9477 3640 EB81      		ldd r30,Y+3
 9478 3642 FC81      		ldd r31,Y+4
 9479 3644 8481      		ldd r24,Z+4
 9480 3646 8068      		ori r24,lo8(-128)
 9481 3648 8483      		std Z+4,r24
 9482               	.LVL784:
 9483               	.L610:
 9484 364a 6624      		clr r6
 9485 364c 6394      		inc r6
 9486 364e 00C0      		rjmp .L578
 9487               	.LVL785:
 9488               	.L602:
 9489               	.LM897:
 9490 3650 AB81      		ldd r26,Y+3
 9491 3652 BC81      		ldd r27,Y+4
 9492 3654 5696      		adiw r26,22
 9493 3656 CD92      		st X+,r12
 9494 3658 DD92      		st X+,r13
 9495 365a ED92      		st X+,r14
 9496 365c FC92      		st X,r15
 9497 365e 5997      		sbiw r26,22+3
 9498               	.LM898:
 9499 3660 1596      		adiw r26,5
 9500 3662 8C91      		ld r24,X
 9501 3664 1597      		sbiw r26,5
 9502 3666 8F5F      		subi r24,lo8(-(1))
 9503 3668 1596      		adiw r26,5
 9504 366a 8C93      		st X,r24
 9505               	.LVL786:
 9506               	.L583:
 9507               	.LM899:
 9508 366c EB81      		ldd r30,Y+3
 9509 366e FC81      		ldd r31,Y+4
 9510 3670 2681      		ldd r18,Z+6
 9511 3672 3781      		ldd r19,Z+7
 9512 3674 4085      		ldd r20,Z+8
 9513 3676 5185      		ldd r21,Z+9
 9514 3678 C901      		movw r24,r18
 9515 367a 9170      		andi r25,hi8(511)
 9516 367c 60E0      		ldi r22,lo8(512)
 9517 367e 72E0      		ldi r23,hi8(512)
 9518               	.LVL787:
 9519 3680 681B      		sub r22,r24
 9520 3682 790B      		sbc r23,r25
 9521 3684 CB01      		movw r24,r22
 9522               	.LVL788:
 9523 3686 B401      		movw r22,r8
 9524               	.LVL789:
 9525 3688 8815      		cp r24,r8
 9526 368a 9905      		cpc r25,r9
 9527 368c 00F4      		brsh .L603
 9528               	.LVL790:
 9529 368e BC01      		movw r22,r24
 9530               	.L603:
 9531               	.LM900:
 9532 3690 8B01      		movw r16,r22
 9533               	.LVL791:
 9534               	.LBB626:
 9535               	.LBB627:
 9536               	.LM901:
 9537 3692 F901      		movw r30,r18
 9538               	.LVL792:
 9539 3694 F170      		andi r31,hi8(511)
 9540 3696 B096      		adiw r30,32
 9541 3698 8B81      		ldd r24,Y+3
 9542 369a 9C81      		ldd r25,Y+4
 9543               	.LVL793:
 9544 369c E80F      		add r30,r24
 9545 369e F91F      		adc r31,r25
 9546 36a0 9201      		movw r18,r4
 9547 36a2 00C0      		rjmp .L604
 9548               	.LVL794:
 9549               	.L605:
 9550               	.LM902:
 9551 36a4 D901      		movw r26,r18
 9552 36a6 8D91      		ld r24,X+
 9553 36a8 9D01      		movw r18,r26
 9554 36aa 8193      		st Z+,r24
 9555               	.LVL795:
 9556               	.L604:
 9557 36ac 0150      		subi r16,lo8(-(-1))
 9558 36ae 1040      		sbci r17,hi8(-(-1))
 9559 36b0 BFEF      		ldi r27,hi8(-1)
 9560 36b2 0F3F      		cpi r16,lo8(-1)
 9561 36b4 1B07      		cpc r17,r27
 9562 36b6 01F4      		brne .L605
 9563               	.LBE627:
 9564               	.LBE626:
 9565               	.LM903:
 9566 36b8 EB81      		ldd r30,Y+3
 9567 36ba FC81      		ldd r31,Y+4
 9568               	.LVL796:
 9569 36bc 8481      		ldd r24,Z+4
 9570 36be 8064      		ori r24,lo8(64)
 9571 36c0 8483      		std Z+4,r24
 9572               	.LVL797:
 9573               	.L601:
 9574               	.LM904:
 9575 36c2 460E      		add r4,r22
 9576 36c4 571E      		adc r5,r23
 9577 36c6 CB01      		movw r24,r22
 9578 36c8 A0E0      		ldi r26,lo8(0)
 9579 36ca B0E0      		ldi r27,hi8(0)
 9580               	.LVL798:
 9581 36cc EB81      		ldd r30,Y+3
 9582 36ce FC81      		ldd r31,Y+4
 9583 36d0 2681      		ldd r18,Z+6
 9584 36d2 3781      		ldd r19,Z+7
 9585 36d4 4085      		ldd r20,Z+8
 9586 36d6 5185      		ldd r21,Z+9
 9587 36d8 280F      		add r18,r24
 9588 36da 391F      		adc r19,r25
 9589 36dc 4A1F      		adc r20,r26
 9590 36de 5B1F      		adc r21,r27
 9591 36e0 2683      		std Z+6,r18
 9592 36e2 3783      		std Z+7,r19
 9593 36e4 4087      		std Z+8,r20
 9594 36e6 5187      		std Z+9,r21
 9595 36e8 E981      		ldd r30,Y+1
 9596 36ea FA81      		ldd r31,Y+2
 9597 36ec 8081      		ld r24,Z
 9598 36ee 9181      		ldd r25,Z+1
 9599 36f0 860F      		add r24,r22
 9600 36f2 971F      		adc r25,r23
 9601 36f4 8083      		st Z,r24
 9602 36f6 9183      		std Z+1,r25
 9603 36f8 861A      		sub r8,r22
 9604 36fa 970A      		sbc r9,r23
 9605               	.LVL799:
 9606               	.L582:
 9607               	.LM905:
 9608 36fc 8114      		cp r8,__zero_reg__
 9609 36fe 9104      		cpc r9,__zero_reg__
 9610 3700 01F0      		breq .+2
 9611 3702 00C0      		rjmp .L606
 9612               	.LVL800:
 9613               	.L588:
 9614               	.LM906:
 9615 3704 AB81      		ldd r26,Y+3
 9616 3706 BC81      		ldd r27,Y+4
 9617               	.LVL801:
 9618 3708 1696      		adiw r26,6
 9619 370a 2D91      		ld r18,X+
 9620 370c 3D91      		ld r19,X+
 9621 370e 4D91      		ld r20,X+
 9622 3710 5C91      		ld r21,X
 9623 3712 1997      		sbiw r26,6+3
 9624 3714 1A96      		adiw r26,10
 9625 3716 8D91      		ld r24,X+
 9626 3718 9D91      		ld r25,X+
 9627 371a 0D90      		ld __tmp_reg__,X+
 9628 371c BC91      		ld r27,X
 9629 371e A02D      		mov r26,__tmp_reg__
 9630 3720 8217      		cp r24,r18
 9631 3722 9307      		cpc r25,r19
 9632 3724 A407      		cpc r26,r20
 9633 3726 B507      		cpc r27,r21
 9634 3728 00F4      		brsh .L607
 9635 372a EB81      		ldd r30,Y+3
 9636 372c FC81      		ldd r31,Y+4
 9637 372e 2287      		std Z+10,r18
 9638 3730 3387      		std Z+11,r19
 9639 3732 4487      		std Z+12,r20
 9640 3734 5587      		std Z+13,r21
 9641               	.L607:
 9642               	.LM907:
 9643 3736 AB81      		ldd r26,Y+3
 9644 3738 BC81      		ldd r27,Y+4
 9645 373a 1496      		adiw r26,4
 9646 373c 8C91      		ld r24,X
 9647 373e 1497      		sbiw r26,4
 9648 3740 8062      		ori r24,lo8(32)
 9649 3742 1496      		adiw r26,4
 9650 3744 8C93      		st X,r24
 9651               	.LVL802:
 9652               	.L578:
 9653               	.LM908:
 9654 3746 862D      		mov r24,r6
 9655               	/* epilogue start */
 9656 3748 2496      		adiw r28,4
 9657 374a CDBF      		out __SP_L__,r28
 9658 374c DEBF      		out __SP_H__,r29
 9659 374e CF91      		pop r28
 9660 3750 DF91      		pop r29
 9661 3752 1F91      		pop r17
 9662               	.LVL803:
 9663 3754 0F91      		pop r16
 9664               	.LVL804:
 9665 3756 FF90      		pop r15
 9666 3758 EF90      		pop r14
 9667 375a DF90      		pop r13
 9668 375c CF90      		pop r12
 9669               	.LVL805:
 9670 375e BF90      		pop r11
 9671 3760 AF90      		pop r10
 9672               	.LVL806:
 9673 3762 9F90      		pop r9
 9674 3764 8F90      		pop r8
 9675               	.LVL807:
 9676 3766 7F90      		pop r7
 9677 3768 6F90      		pop r6
 9678               	.LVL808:
 9679 376a 5F90      		pop r5
 9680 376c 4F90      		pop r4
 9681               	.LVL809:
 9682 376e 3F90      		pop r3
 9683 3770 2F90      		pop r2
 9684               	.LVL810:
 9685 3772 0895      		ret
 9686               	.LFE69:
 9688               	.global	f_sync
 9690               	f_sync:
 9691               	.LFB70:
 9692               	.LM909:
 9693               	.LVL811:
 9694 3774 0F93      		push r16
 9695 3776 1F93      		push r17
 9696 3778 CF93      		push r28
 9697 377a DF93      		push r29
 9698               	/* prologue: function */
 9699               	/* frame size = 0 */
 9700 377c EC01      		movw r28,r24
 9701               	.LM910:
 9702 377e 6A81      		ldd r22,Y+2
 9703 3780 7B81      		ldd r23,Y+3
 9704 3782 8881      		ld r24,Y
 9705 3784 9981      		ldd r25,Y+1
 9706               	.LVL812:
 9707 3786 0E94 0000 		call validate
 9708 378a 982F      		mov r25,r24
 9709               	.LVL813:
 9710               	.LM911:
 9711 378c 8823      		tst r24
 9712 378e 01F0      		breq .+2
 9713 3790 00C0      		rjmp .L613
 9714               	.LVL814:
 9715               	.LM912:
 9716 3792 8C81      		ldd r24,Y+4
 9717               	.LVL815:
 9718 3794 85FF      		sbrs r24,5
 9719 3796 00C0      		rjmp .L613
 9720               	.LM913:
 9721 3798 86FF      		sbrs r24,6
 9722 379a 00C0      		rjmp .L614
 9723               	.LM914:
 9724 379c E881      		ld r30,Y
 9725 379e F981      		ldd r31,Y+1
 9726 37a0 BE01      		movw r22,r28
 9727 37a2 605E      		subi r22,lo8(-(32))
 9728 37a4 7F4F      		sbci r23,hi8(-(32))
 9729 37a6 2E89      		ldd r18,Y+22
 9730 37a8 3F89      		ldd r19,Y+23
 9731 37aa 488D      		ldd r20,Y+24
 9732 37ac 598D      		ldd r21,Y+25
 9733 37ae 8181      		ldd r24,Z+1
 9734 37b0 01E0      		ldi r16,lo8(1)
 9735 37b2 0E94 0000 		call disk_write
 9736               	.LVL816:
 9737 37b6 8823      		tst r24
 9738 37b8 01F0      		breq .L615
 9739 37ba 91E0      		ldi r25,lo8(1)
 9740               	.LVL817:
 9741 37bc 00C0      		rjmp .L613
 9742               	.LVL818:
 9743               	.L615:
 9744               	.LM915:
 9745 37be 8C81      		ldd r24,Y+4
 9746 37c0 8F7B      		andi r24,lo8(-65)
 9747 37c2 8C83      		std Y+4,r24
 9748               	.LVL819:
 9749               	.L614:
 9750               	.LM916:
 9751 37c4 4A8D      		ldd r20,Y+26
 9752 37c6 5B8D      		ldd r21,Y+27
 9753 37c8 6C8D      		ldd r22,Y+28
 9754 37ca 7D8D      		ldd r23,Y+29
 9755 37cc 8881      		ld r24,Y
 9756 37ce 9981      		ldd r25,Y+1
 9757 37d0 0E94 0000 		call move_window
 9758               	.LVL820:
 9759 37d4 982F      		mov r25,r24
 9760               	.LVL821:
 9761               	.LM917:
 9762 37d6 8823      		tst r24
 9763 37d8 01F0      		breq .+2
 9764 37da 00C0      		rjmp .L613
 9765               	.LVL822:
 9766               	.LM918:
 9767 37dc 0E8D      		ldd r16,Y+30
 9768 37de 1F8D      		ldd r17,Y+31
 9769               	.LVL823:
 9770               	.LM919:
 9771 37e0 F801      		movw r30,r16
 9772 37e2 8385      		ldd r24,Z+11
 9773               	.LVL824:
 9774 37e4 8062      		ori r24,lo8(32)
 9775 37e6 8387      		std Z+11,r24
 9776               	.LM920:
 9777 37e8 8A85      		ldd r24,Y+10
 9778 37ea 848F      		std Z+28,r24
 9779 37ec 8B85      		ldd r24,Y+11
 9780 37ee 858F      		std Z+29,r24
 9781 37f0 8A85      		ldd r24,Y+10
 9782 37f2 9B85      		ldd r25,Y+11
 9783 37f4 AC85      		ldd r26,Y+12
 9784 37f6 BD85      		ldd r27,Y+13
 9785 37f8 CD01      		movw r24,r26
 9786 37fa AA27      		clr r26
 9787 37fc BB27      		clr r27
 9788 37fe 868F      		std Z+30,r24
 9789 3800 8A85      		ldd r24,Y+10
 9790 3802 9B85      		ldd r25,Y+11
 9791 3804 AC85      		ldd r26,Y+12
 9792 3806 BD85      		ldd r27,Y+13
 9793 3808 8B2F      		mov r24,r27
 9794 380a 9927      		clr r25
 9795 380c AA27      		clr r26
 9796 380e BB27      		clr r27
 9797 3810 878F      		std Z+31,r24
 9798               	.LM921:
 9799 3812 8E85      		ldd r24,Y+14
 9800 3814 828F      		std Z+26,r24
 9801 3816 8F85      		ldd r24,Y+15
 9802 3818 838F      		std Z+27,r24
 9803               	.LM922:
 9804 381a 8E85      		ldd r24,Y+14
 9805 381c 9F85      		ldd r25,Y+15
 9806 381e A889      		ldd r26,Y+16
 9807 3820 B989      		ldd r27,Y+17
 9808 3822 CD01      		movw r24,r26
 9809 3824 AA27      		clr r26
 9810 3826 BB27      		clr r27
 9811 3828 848B      		std Z+20,r24
 9812 382a 8E85      		ldd r24,Y+14
 9813 382c 9F85      		ldd r25,Y+15
 9814 382e A889      		ldd r26,Y+16
 9815 3830 B989      		ldd r27,Y+17
 9816 3832 CD01      		movw r24,r26
 9817 3834 AA27      		clr r26
 9818 3836 BB27      		clr r27
 9819 3838 892F      		mov r24,r25
 9820 383a 9927      		clr r25
 9821 383c 858B      		std Z+21,r24
 9822               	.LM923:
 9823 383e 0E94 0000 		call get_fattime
 9824               	.LVL825:
 9825               	.LM924:
 9826 3842 F801      		movw r30,r16
 9827 3844 668B      		std Z+22,r22
 9828               	.LVL826:
 9829 3846 272F      		mov r18,r23
 9830 3848 3327      		clr r19
 9831 384a 278B      		std Z+23,r18
 9832 384c 9C01      		movw r18,r24
 9833 384e 4427      		clr r20
 9834 3850 5527      		clr r21
 9835 3852 208F      		std Z+24,r18
 9836 3854 692F      		mov r22,r25
 9837 3856 7727      		clr r23
 9838 3858 8827      		clr r24
 9839 385a 9927      		clr r25
 9840               	.LVL827:
 9841 385c 618F      		std Z+25,r22
 9842               	.LM925:
 9843 385e 8C81      		ldd r24,Y+4
 9844 3860 8F7D      		andi r24,lo8(-33)
 9845 3862 8C83      		std Y+4,r24
 9846               	.LM926:
 9847 3864 E881      		ld r30,Y
 9848 3866 F981      		ldd r31,Y+1
 9849 3868 81E0      		ldi r24,lo8(1)
 9850 386a 8483      		std Z+4,r24
 9851               	.LM927:
 9852 386c 8881      		ld r24,Y
 9853 386e 9981      		ldd r25,Y+1
 9854 3870 0E94 0000 		call sync
 9855 3874 982F      		mov r25,r24
 9856               	.LVL828:
 9857               	.L613:
 9858               	.LM928:
 9859 3876 892F      		mov r24,r25
 9860               	/* epilogue start */
 9861 3878 DF91      		pop r29
 9862 387a CF91      		pop r28
 9863               	.LVL829:
 9864 387c 1F91      		pop r17
 9865 387e 0F91      		pop r16
 9866               	.LVL830:
 9867 3880 0895      		ret
 9868               	.LFE70:
 9870               	.global	f_close
 9872               	f_close:
 9873               	.LFB71:
 9874               	.LM929:
 9875               	.LVL831:
 9876 3882 CF93      		push r28
 9877 3884 DF93      		push r29
 9878               	/* prologue: function */
 9879               	/* frame size = 0 */
 9880 3886 EC01      		movw r28,r24
 9881               	.LM930:
 9882 3888 0E94 0000 		call f_sync
 9883               	.LVL832:
 9884               	.LM931:
 9885 388c 8823      		tst r24
 9886               	.LVL833:
 9887 388e 01F4      		brne .L618
 9888 3890 1882      		st Y,__zero_reg__
 9889 3892 1982      		std Y+1,__zero_reg__
 9890               	.L618:
 9891               	.LVL834:
 9892               	/* epilogue start */
 9893               	.LM932:
 9894 3894 DF91      		pop r29
 9895 3896 CF91      		pop r28
 9896               	.LVL835:
 9897 3898 0895      		ret
 9898               	.LFE71:
 9900               	.global	f_lseek
 9902               	f_lseek:
 9903               	.LFB72:
 9904               	.LM933:
 9905               	.LVL836:
 9906 389a 2F92      		push r2
 9907 389c 3F92      		push r3
 9908 389e 4F92      		push r4
 9909 38a0 5F92      		push r5
 9910 38a2 6F92      		push r6
 9911 38a4 7F92      		push r7
 9912 38a6 8F92      		push r8
 9913 38a8 9F92      		push r9
 9914 38aa AF92      		push r10
 9915 38ac BF92      		push r11
 9916 38ae CF92      		push r12
 9917 38b0 DF92      		push r13
 9918 38b2 0F93      		push r16
 9919 38b4 1F93      		push r17
 9920 38b6 DF93      		push r29
 9921 38b8 CF93      		push r28
 9922 38ba CDB7      		in r28,__SP_L__
 9923 38bc DEB7      		in r29,__SP_H__
 9924 38be 2897      		sbiw r28,8
 9925 38c0 CDBF      		out __SP_L__,r28
 9926 38c2 DEBF      		out __SP_H__,r29
 9927               	/* prologue: function */
 9928               	/* frame size = 8 */
 9929 38c4 8F83      		std Y+7,r24
 9930 38c6 9887      		std Y+8,r25
 9931 38c8 3A01      		movw r6,r20
 9932 38ca 4B01      		movw r8,r22
 9933               	.LM934:
 9934 38cc DC01      		movw r26,r24
 9935 38ce 1296      		adiw r26,2
 9936 38d0 6D91      		ld r22,X+
 9937 38d2 7C91      		ld r23,X
 9938 38d4 1397      		sbiw r26,2+1
 9939 38d6 8D91      		ld r24,X+
 9940 38d8 9C91      		ld r25,X
 9941               	.LVL837:
 9942 38da 0E94 0000 		call validate
 9943               	.LVL838:
 9944 38de 182F      		mov r17,r24
 9945               	.LVL839:
 9946               	.LM935:
 9947 38e0 8823      		tst r24
 9948 38e2 01F0      		breq .+2
 9949 38e4 00C0      		rjmp .L621
 9950               	.LVL840:
 9951               	.LM936:
 9952 38e6 EF81      		ldd r30,Y+7
 9953 38e8 F885      		ldd r31,Y+8
 9954 38ea 8481      		ldd r24,Z+4
 9955               	.LVL841:
 9956 38ec 87FD      		sbrc r24,7
 9957 38ee 00C0      		rjmp .L648
 9958               	.L622:
 9959               	.LM937:
 9960 38f0 AF81      		ldd r26,Y+7
 9961 38f2 B885      		ldd r27,Y+8
 9962 38f4 1A96      		adiw r26,10
 9963 38f6 AD90      		ld r10,X+
 9964 38f8 BD90      		ld r11,X+
 9965 38fa CD90      		ld r12,X+
 9966 38fc DC90      		ld r13,X
 9967 38fe 1D97      		sbiw r26,10+3
 9968               	.LVL842:
 9969 3900 A614      		cp r10,r6
 9970 3902 B704      		cpc r11,r7
 9971 3904 C804      		cpc r12,r8
 9972 3906 D904      		cpc r13,r9
 9973 3908 00F4      		brsh .L623
 9974 390a 81FF      		sbrs r24,1
 9975 390c 00C0      		rjmp .L624
 9976               	.L623:
 9977 390e 6401      		movw r12,r8
 9978 3910 5301      		movw r10,r6
 9979               	.L624:
 9980               	.LM938:
 9981 3912 EF81      		ldd r30,Y+7
 9982 3914 F885      		ldd r31,Y+8
 9983 3916 2681      		ldd r18,Z+6
 9984 3918 3781      		ldd r19,Z+7
 9985 391a 4085      		ldd r20,Z+8
 9986 391c 5185      		ldd r21,Z+9
 9987               	.LVL843:
 9988               	.LM939:
 9989 391e 1682      		std Z+6,__zero_reg__
 9990 3920 1782      		std Z+7,__zero_reg__
 9991 3922 1086      		std Z+8,__zero_reg__
 9992 3924 1186      		std Z+9,__zero_reg__
 9993 3926 8FEF      		ldi r24,lo8(-1)
 9994 3928 8583      		std Z+5,r24
 9995               	.LM940:
 9996 392a A114      		cp r10,__zero_reg__
 9997 392c B104      		cpc r11,__zero_reg__
 9998 392e C104      		cpc r12,__zero_reg__
 9999 3930 D104      		cpc r13,__zero_reg__
 10000 3932 01F4      		brne .+2
 10001 3934 00C0      		rjmp .L625
 10002               	.LM941:
 10003 3936 0190      		ld __tmp_reg__,Z+
 10004 3938 F081      		ld r31,Z
 10005 393a E02D      		mov r30,__tmp_reg__
 10006 393c E983      		std Y+1,r30
 10007 393e FA83      		std Y+2,r31
 10008 3940 8281      		ldd r24,Z+2
 10009 3942 682E      		mov r6,r24
 10010               	.LVL844:
 10011 3944 7724      		clr r7
 10012               	.LVL845:
 10013 3946 8824      		clr r8
 10014 3948 9924      		clr r9
 10015               	.LVL846:
 10016 394a 89E0      		ldi r24,9
 10017 394c 660C      	1:	lsl r6
 10018 394e 771C      		rol r7
 10019 3950 881C      		rol r8
 10020 3952 991C      		rol r9
 10021 3954 8A95      		dec r24
 10022 3956 01F4      		brne 1b
 10023               	.LVL847:
 10024               	.LM942:
 10025 3958 2115      		cp r18,__zero_reg__
 10026 395a 3105      		cpc r19,__zero_reg__
 10027 395c 4105      		cpc r20,__zero_reg__
 10028 395e 5105      		cpc r21,__zero_reg__
 10029 3960 01F0      		breq .L626
 10030 3962 1901      		movw r2,r18
 10031 3964 2A01      		movw r4,r20
 10032 3966 0894      		sec
 10033 3968 2108      		sbc r2,__zero_reg__
 10034 396a 3108      		sbc r3,__zero_reg__
 10035 396c 4108      		sbc r4,__zero_reg__
 10036 396e 5108      		sbc r5,__zero_reg__
 10037 3970 C601      		movw r24,r12
 10038 3972 B501      		movw r22,r10
 10039 3974 6150      		subi r22,lo8(-(-1))
 10040 3976 7040      		sbci r23,hi8(-(-1))
 10041 3978 8040      		sbci r24,hlo8(-(-1))
 10042 397a 9040      		sbci r25,hhi8(-(-1))
 10043 397c A401      		movw r20,r8
 10044 397e 9301      		movw r18,r6
 10045               	.LVL848:
 10046 3980 0E94 0000 		call __udivmodsi4
 10047 3984 2B83      		std Y+3,r18
 10048 3986 3C83      		std Y+4,r19
 10049 3988 4D83      		std Y+5,r20
 10050 398a 5E83      		std Y+6,r21
 10051 398c C201      		movw r24,r4
 10052 398e B101      		movw r22,r2
 10053 3990 A401      		movw r20,r8
 10054 3992 9301      		movw r18,r6
 10055 3994 0E94 0000 		call __udivmodsi4
 10056 3998 8B81      		ldd r24,Y+3
 10057 399a 9C81      		ldd r25,Y+4
 10058 399c AD81      		ldd r26,Y+5
 10059 399e BE81      		ldd r27,Y+6
 10060 39a0 8217      		cp r24,r18
 10061 39a2 9307      		cpc r25,r19
 10062 39a4 A407      		cpc r26,r20
 10063 39a6 B507      		cpc r27,r21
 10064 39a8 00F0      		brlo .L626
 10065               	.LM943:
 10066 39aa 8827      		clr r24
 10067 39ac 9927      		clr r25
 10068 39ae DC01      		movw r26,r24
 10069 39b0 8619      		sub r24,r6
 10070 39b2 9709      		sbc r25,r7
 10071 39b4 A809      		sbc r26,r8
 10072 39b6 B909      		sbc r27,r9
 10073 39b8 8221      		and r24,r2
 10074 39ba 9321      		and r25,r3
 10075 39bc A421      		and r26,r4
 10076 39be B521      		and r27,r5
 10077 39c0 EF81      		ldd r30,Y+7
 10078 39c2 F885      		ldd r31,Y+8
 10079 39c4 8683      		std Z+6,r24
 10080 39c6 9783      		std Z+7,r25
 10081 39c8 A087      		std Z+8,r26
 10082 39ca B187      		std Z+9,r27
 10083               	.LM944:
 10084 39cc A81A      		sub r10,r24
 10085 39ce B90A      		sbc r11,r25
 10086 39d0 CA0A      		sbc r12,r26
 10087 39d2 DB0A      		sbc r13,r27
 10088               	.LM945:
 10089 39d4 4289      		ldd r20,Z+18
 10090 39d6 5389      		ldd r21,Z+19
 10091 39d8 6489      		ldd r22,Z+20
 10092 39da 7589      		ldd r23,Z+21
 10093               	.LVL849:
 10094 39dc 00C0      		rjmp .L627
 10095               	.LVL850:
 10096               	.L626:
 10097               	.LM946:
 10098 39de AF81      		ldd r26,Y+7
 10099 39e0 B885      		ldd r27,Y+8
 10100 39e2 1E96      		adiw r26,14
 10101 39e4 4D91      		ld r20,X+
 10102 39e6 5D91      		ld r21,X+
 10103 39e8 6D91      		ld r22,X+
 10104 39ea 7C91      		ld r23,X
 10105 39ec 5197      		sbiw r26,14+3
 10106               	.LVL851:
 10107               	.LM947:
 10108 39ee 4115      		cp r20,__zero_reg__
 10109 39f0 5105      		cpc r21,__zero_reg__
 10110 39f2 6105      		cpc r22,__zero_reg__
 10111 39f4 7105      		cpc r23,__zero_reg__
 10112 39f6 01F4      		brne .L628
 10113               	.LM948:
 10114 39f8 8981      		ldd r24,Y+1
 10115 39fa 9A81      		ldd r25,Y+2
 10116 39fc 40E0      		ldi r20,lo8(0)
 10117 39fe 50E0      		ldi r21,hi8(0)
 10118 3a00 60E0      		ldi r22,hlo8(0)
 10119 3a02 70E0      		ldi r23,hhi8(0)
 10120               	.LVL852:
 10121 3a04 0E94 0000 		call create_chain
 10122               	.LVL853:
 10123 3a08 AB01      		movw r20,r22
 10124 3a0a BC01      		movw r22,r24
 10125               	.LVL854:
 10126               	.LM949:
 10127 3a0c 4130      		cpi r20,lo8(1)
 10128 3a0e 5105      		cpc r21,__zero_reg__
 10129 3a10 6105      		cpc r22,__zero_reg__
 10130 3a12 7105      		cpc r23,__zero_reg__
 10131 3a14 01F4      		brne .L629
 10132               	.L650:
 10133 3a16 EF81      		ldd r30,Y+7
 10134 3a18 F885      		ldd r31,Y+8
 10135 3a1a 8481      		ldd r24,Z+4
 10136 3a1c 8068      		ori r24,lo8(-128)
 10137 3a1e 8483      		std Z+4,r24
 10138               	.LVL855:
 10139               	.L648:
 10140 3a20 12E0      		ldi r17,lo8(2)
 10141 3a22 00C0      		rjmp .L621
 10142               	.LVL856:
 10143               	.L629:
 10144               	.LM950:
 10145 3a24 4F3F      		cpi r20,lo8(-1)
 10146 3a26 FFEF      		ldi r31,hi8(-1)
 10147 3a28 5F07      		cpc r21,r31
 10148 3a2a FFEF      		ldi r31,hlo8(-1)
 10149 3a2c 6F07      		cpc r22,r31
 10150 3a2e FFEF      		ldi r31,hhi8(-1)
 10151 3a30 7F07      		cpc r23,r31
 10152 3a32 01F0      		breq .L651
 10153               	.L630:
 10154               	.LM951:
 10155 3a34 EF81      		ldd r30,Y+7
 10156 3a36 F885      		ldd r31,Y+8
 10157 3a38 4687      		std Z+14,r20
 10158 3a3a 5787      		std Z+15,r21
 10159 3a3c 608B      		std Z+16,r22
 10160 3a3e 718B      		std Z+17,r23
 10161               	.LVL857:
 10162               	.L628:
 10163               	.LM952:
 10164 3a40 AF81      		ldd r26,Y+7
 10165 3a42 B885      		ldd r27,Y+8
 10166 3a44 5296      		adiw r26,18
 10167 3a46 4D93      		st X+,r20
 10168 3a48 5D93      		st X+,r21
 10169 3a4a 6D93      		st X+,r22
 10170 3a4c 7C93      		st X,r23
 10171 3a4e 5597      		sbiw r26,18+3
 10172               	.L627:
 10173               	.LM953:
 10174 3a50 4115      		cp r20,__zero_reg__
 10175 3a52 5105      		cpc r21,__zero_reg__
 10176 3a54 6105      		cpc r22,__zero_reg__
 10177 3a56 7105      		cpc r23,__zero_reg__
 10178 3a58 01F0      		breq .+2
 10179 3a5a 00C0      		rjmp .L647
 10180 3a5c 00C0      		rjmp .L625
 10181               	.L638:
 10182               	.LM954:
 10183 3a5e EF81      		ldd r30,Y+7
 10184 3a60 F885      		ldd r31,Y+8
 10185 3a62 8481      		ldd r24,Z+4
 10186 3a64 2081      		ld r18,Z
 10187 3a66 3181      		ldd r19,Z+1
 10188               	.LVL858:
 10189 3a68 81FF      		sbrs r24,1
 10190 3a6a 00C0      		rjmp .L632
 10191               	.LM955:
 10192 3a6c C901      		movw r24,r18
 10193 3a6e 0E94 0000 		call create_chain
 10194               	.LVL859:
 10195 3a72 AB01      		movw r20,r22
 10196 3a74 BC01      		movw r22,r24
 10197               	.LVL860:
 10198               	.LM956:
 10199 3a76 4115      		cp r20,__zero_reg__
 10200 3a78 5105      		cpc r21,__zero_reg__
 10201 3a7a 6105      		cpc r22,__zero_reg__
 10202 3a7c 7105      		cpc r23,__zero_reg__
 10203 3a7e 01F4      		brne .L633
 10204 3a80 6401      		movw r12,r8
 10205 3a82 5301      		movw r10,r6
 10206 3a84 00C0      		rjmp .L634
 10207               	.L632:
 10208               	.LM957:
 10209 3a86 C901      		movw r24,r18
 10210 3a88 0E94 0000 		call get_fat
 10211               	.LVL861:
 10212 3a8c AB01      		movw r20,r22
 10213 3a8e BC01      		movw r22,r24
 10214               	.LVL862:
 10215               	.L633:
 10216               	.LM958:
 10217 3a90 4F3F      		cpi r20,lo8(-1)
 10218 3a92 FFEF      		ldi r31,hi8(-1)
 10219 3a94 5F07      		cpc r21,r31
 10220 3a96 FFEF      		ldi r31,hlo8(-1)
 10221 3a98 6F07      		cpc r22,r31
 10222 3a9a FFEF      		ldi r31,hhi8(-1)
 10223 3a9c 7F07      		cpc r23,r31
 10224 3a9e 01F4      		brne .L635
 10225               	.L651:
 10226 3aa0 AF81      		ldd r26,Y+7
 10227 3aa2 B885      		ldd r27,Y+8
 10228 3aa4 1496      		adiw r26,4
 10229 3aa6 8C91      		ld r24,X
 10230 3aa8 1497      		sbiw r26,4
 10231 3aaa 8068      		ori r24,lo8(-128)
 10232 3aac 1496      		adiw r26,4
 10233 3aae 8C93      		st X,r24
 10234 3ab0 00C0      		rjmp .L649
 10235               	.L635:
 10236               	.LM959:
 10237 3ab2 4230      		cpi r20,lo8(2)
 10238 3ab4 5105      		cpc r21,__zero_reg__
 10239 3ab6 6105      		cpc r22,__zero_reg__
 10240 3ab8 7105      		cpc r23,__zero_reg__
 10241 3aba 00F4      		brsh .+2
 10242 3abc 00C0      		rjmp .L650
 10243 3abe AF81      		ldd r26,Y+7
 10244 3ac0 B885      		ldd r27,Y+8
 10245 3ac2 ED91      		ld r30,X+
 10246 3ac4 FC91      		ld r31,X
 10247 3ac6 828D      		ldd r24,Z+26
 10248 3ac8 938D      		ldd r25,Z+27
 10249 3aca A48D      		ldd r26,Z+28
 10250 3acc B58D      		ldd r27,Z+29
 10251 3ace 4817      		cp r20,r24
 10252 3ad0 5907      		cpc r21,r25
 10253 3ad2 6A07      		cpc r22,r26
 10254 3ad4 7B07      		cpc r23,r27
 10255 3ad6 00F0      		brlo .+2
 10256 3ad8 00C0      		rjmp .L650
 10257               	.L637:
 10258               	.LM960:
 10259 3ada AF81      		ldd r26,Y+7
 10260 3adc B885      		ldd r27,Y+8
 10261 3ade 5296      		adiw r26,18
 10262 3ae0 4D93      		st X+,r20
 10263 3ae2 5D93      		st X+,r21
 10264 3ae4 6D93      		st X+,r22
 10265 3ae6 7C93      		st X,r23
 10266 3ae8 5597      		sbiw r26,18+3
 10267               	.LM961:
 10268 3aea FD01      		movw r30,r26
 10269 3aec 8681      		ldd r24,Z+6
 10270 3aee 9781      		ldd r25,Z+7
 10271 3af0 A085      		ldd r26,Z+8
 10272 3af2 B185      		ldd r27,Z+9
 10273 3af4 860D      		add r24,r6
 10274 3af6 971D      		adc r25,r7
 10275 3af8 A81D      		adc r26,r8
 10276 3afa B91D      		adc r27,r9
 10277 3afc 8683      		std Z+6,r24
 10278 3afe 9783      		std Z+7,r25
 10279 3b00 A087      		std Z+8,r26
 10280 3b02 B187      		std Z+9,r27
 10281               	.LM962:
 10282 3b04 A618      		sub r10,r6
 10283 3b06 B708      		sbc r11,r7
 10284 3b08 C808      		sbc r12,r8
 10285 3b0a D908      		sbc r13,r9
 10286               	.LVL863:
 10287               	.L647:
 10288               	.LM963:
 10289 3b0c 6A14      		cp r6,r10
 10290 3b0e 7B04      		cpc r7,r11
 10291 3b10 8C04      		cpc r8,r12
 10292 3b12 9D04      		cpc r9,r13
 10293 3b14 00F4      		brsh .+2
 10294 3b16 00C0      		rjmp .L638
 10295               	.L634:
 10296               	.LM964:
 10297 3b18 EF81      		ldd r30,Y+7
 10298 3b1a F885      		ldd r31,Y+8
 10299 3b1c 8681      		ldd r24,Z+6
 10300 3b1e 9781      		ldd r25,Z+7
 10301 3b20 A085      		ldd r26,Z+8
 10302 3b22 B185      		ldd r27,Z+9
 10303 3b24 8A0D      		add r24,r10
 10304 3b26 9B1D      		adc r25,r11
 10305 3b28 AC1D      		adc r26,r12
 10306 3b2a BD1D      		adc r27,r13
 10307 3b2c 8683      		std Z+6,r24
 10308 3b2e 9783      		std Z+7,r25
 10309 3b30 A087      		std Z+8,r26
 10310 3b32 B187      		std Z+9,r27
 10311               	.LM965:
 10312 3b34 D601      		movw r26,r12
 10313 3b36 C501      		movw r24,r10
 10314 3b38 09E0      		ldi r16,9
 10315 3b3a B695      	1:	lsr r27
 10316 3b3c A795      		ror r26
 10317 3b3e 9795      		ror r25
 10318 3b40 8795      		ror r24
 10319 3b42 0A95      		dec r16
 10320 3b44 01F4      		brne 1b
 10321 3b46 082F      		mov r16,r24
 10322 3b48 8583      		std Z+5,r24
 10323               	.LM966:
 10324 3b4a 8FEF      		ldi r24,lo8(511)
 10325 3b4c 91E0      		ldi r25,hi8(511)
 10326 3b4e A0E0      		ldi r26,hlo8(511)
 10327 3b50 B0E0      		ldi r27,hhi8(511)
 10328 3b52 A822      		and r10,r24
 10329 3b54 B922      		and r11,r25
 10330 3b56 CA22      		and r12,r26
 10331 3b58 DB22      		and r13,r27
 10332 3b5a A114      		cp r10,__zero_reg__
 10333 3b5c B104      		cpc r11,__zero_reg__
 10334 3b5e C104      		cpc r12,__zero_reg__
 10335 3b60 D104      		cpc r13,__zero_reg__
 10336 3b62 01F4      		brne .+2
 10337 3b64 00C0      		rjmp .L625
 10338               	.LM967:
 10339 3b66 8080      		ld r8,Z
 10340 3b68 9180      		ldd r9,Z+1
 10341               	.LVL864:
 10342               	.LBB628:
 10343               	.LBB629:
 10344               	.LM968:
 10345 3b6a EEEF      		ldi r30,lo8(-2)
 10346 3b6c AE2E      		mov r10,r30
 10347 3b6e EFEF      		ldi r30,hi8(-2)
 10348 3b70 BE2E      		mov r11,r30
 10349 3b72 EFEF      		ldi r30,hlo8(-2)
 10350 3b74 CE2E      		mov r12,r30
 10351 3b76 EFEF      		ldi r30,hhi8(-2)
 10352 3b78 DE2E      		mov r13,r30
 10353               	.LVL865:
 10354 3b7a A40E      		add r10,r20
 10355 3b7c B51E      		adc r11,r21
 10356 3b7e C61E      		adc r12,r22
 10357 3b80 D71E      		adc r13,r23
 10358               	.LM969:
 10359 3b82 F401      		movw r30,r8
 10360 3b84 828D      		ldd r24,Z+26
 10361 3b86 938D      		ldd r25,Z+27
 10362 3b88 A48D      		ldd r26,Z+28
 10363 3b8a B58D      		ldd r27,Z+29
 10364 3b8c 0297      		sbiw r24,2
 10365 3b8e A109      		sbc r26,__zero_reg__
 10366 3b90 B109      		sbc r27,__zero_reg__
 10367 3b92 A816      		cp r10,r24
 10368 3b94 B906      		cpc r11,r25
 10369 3b96 CA06      		cpc r12,r26
 10370 3b98 DB06      		cpc r13,r27
 10371 3b9a 00F4      		brsh .L639
 10372               	.LM970:
 10373 3b9c 2281      		ldd r18,Z+2
 10374               	.LVL866:
 10375 3b9e 30E0      		ldi r19,lo8(0)
 10376 3ba0 40E0      		ldi r20,lo8(0)
 10377 3ba2 50E0      		ldi r21,hi8(0)
 10378               	.LVL867:
 10379 3ba4 C601      		movw r24,r12
 10380 3ba6 B501      		movw r22,r10
 10381 3ba8 0E94 0000 		call __mulsi3
 10382 3bac 9B01      		movw r18,r22
 10383 3bae AC01      		movw r20,r24
 10384               	.LVL868:
 10385 3bb0 F401      		movw r30,r8
 10386 3bb2 86A1      		ldd r24,Z+38
 10387 3bb4 97A1      		ldd r25,Z+39
 10388 3bb6 A0A5      		ldd r26,Z+40
 10389 3bb8 B1A5      		ldd r27,Z+41
 10390 3bba 280F      		add r18,r24
 10391 3bbc 391F      		adc r19,r25
 10392 3bbe 4A1F      		adc r20,r26
 10393 3bc0 5B1F      		adc r21,r27
 10394               	.LBE629:
 10395               	.LBE628:
 10396               	.LM971:
 10397 3bc2 2115      		cp r18,__zero_reg__
 10398 3bc4 3105      		cpc r19,__zero_reg__
 10399 3bc6 4105      		cpc r20,__zero_reg__
 10400 3bc8 5105      		cpc r21,__zero_reg__
 10401 3bca 01F4      		brne .L640
 10402               	.LVL869:
 10403               	.L639:
 10404 3bcc AF81      		ldd r26,Y+7
 10405 3bce B885      		ldd r27,Y+8
 10406 3bd0 1496      		adiw r26,4
 10407 3bd2 8C91      		ld r24,X
 10408 3bd4 1497      		sbiw r26,4
 10409 3bd6 8068      		ori r24,lo8(-128)
 10410 3bd8 1496      		adiw r26,4
 10411 3bda 8C93      		st X,r24
 10412 3bdc 00C0      		rjmp .L648
 10413               	.LVL870:
 10414               	.L640:
 10415               	.LM972:
 10416 3bde 5901      		movw r10,r18
 10417 3be0 6A01      		movw r12,r20
 10418               	.LVL871:
 10419 3be2 A00E      		add r10,r16
 10420 3be4 B11C      		adc r11,__zero_reg__
 10421 3be6 C11C      		adc r12,__zero_reg__
 10422 3be8 D11C      		adc r13,__zero_reg__
 10423               	.LVL872:
 10424               	.LM973:
 10425 3bea 0F5F      		subi r16,lo8(-(1))
 10426 3bec EF81      		ldd r30,Y+7
 10427 3bee F885      		ldd r31,Y+8
 10428 3bf0 0583      		std Z+5,r16
 10429 3bf2 00C0      		rjmp .L641
 10430               	.LVL873:
 10431               	.L625:
 10432 3bf4 AA24      		clr r10
 10433 3bf6 BB24      		clr r11
 10434 3bf8 6501      		movw r12,r10
 10435               	.LVL874:
 10436               	.L641:
 10437               	.LM974:
 10438 3bfa EF81      		ldd r30,Y+7
 10439 3bfc F885      		ldd r31,Y+8
 10440 3bfe 8681      		ldd r24,Z+6
 10441 3c00 9781      		ldd r25,Z+7
 10442 3c02 A085      		ldd r26,Z+8
 10443 3c04 B185      		ldd r27,Z+9
 10444 3c06 9170      		andi r25,hi8(511)
 10445 3c08 A070      		andi r26,hlo8(511)
 10446 3c0a B070      		andi r27,hhi8(511)
 10447 3c0c 0097      		sbiw r24,0
 10448 3c0e A105      		cpc r26,__zero_reg__
 10449 3c10 B105      		cpc r27,__zero_reg__
 10450 3c12 01F4      		brne .+2
 10451 3c14 00C0      		rjmp .L642
 10452 3c16 2689      		ldd r18,Z+22
 10453 3c18 3789      		ldd r19,Z+23
 10454 3c1a 408D      		ldd r20,Z+24
 10455 3c1c 518D      		ldd r21,Z+25
 10456               	.LVL875:
 10457 3c1e A216      		cp r10,r18
 10458 3c20 B306      		cpc r11,r19
 10459 3c22 C406      		cpc r12,r20
 10460 3c24 D506      		cpc r13,r21
 10461 3c26 01F0      		breq .L642
 10462               	.LM975:
 10463 3c28 8481      		ldd r24,Z+4
 10464 3c2a 86FF      		sbrs r24,6
 10465 3c2c 00C0      		rjmp .L643
 10466               	.LM976:
 10467 3c2e 0190      		ld __tmp_reg__,Z+
 10468 3c30 F081      		ld r31,Z
 10469 3c32 E02D      		mov r30,__tmp_reg__
 10470 3c34 6F81      		ldd r22,Y+7
 10471 3c36 7885      		ldd r23,Y+8
 10472 3c38 605E      		subi r22,lo8(-(32))
 10473 3c3a 7F4F      		sbci r23,hi8(-(32))
 10474 3c3c 8181      		ldd r24,Z+1
 10475 3c3e 01E0      		ldi r16,lo8(1)
 10476 3c40 0E94 0000 		call disk_write
 10477               	.LVL876:
 10478 3c44 AF81      		ldd r26,Y+7
 10479 3c46 B885      		ldd r27,Y+8
 10480 3c48 1496      		adiw r26,4
 10481 3c4a 9C91      		ld r25,X
 10482 3c4c 1497      		sbiw r26,4
 10483 3c4e 8823      		tst r24
 10484 3c50 01F0      		breq .L644
 10485               	.LM977:
 10486 3c52 9068      		ori r25,lo8(-128)
 10487 3c54 1496      		adiw r26,4
 10488 3c56 9C93      		st X,r25
 10489 3c58 00C0      		rjmp .L649
 10490               	.L644:
 10491               	.LM978:
 10492 3c5a 9F7B      		andi r25,lo8(-65)
 10493 3c5c EF81      		ldd r30,Y+7
 10494 3c5e F885      		ldd r31,Y+8
 10495 3c60 9483      		std Z+4,r25
 10496               	.LVL877:
 10497               	.L643:
 10498               	.LM979:
 10499 3c62 AF81      		ldd r26,Y+7
 10500 3c64 B885      		ldd r27,Y+8
 10501 3c66 ED91      		ld r30,X+
 10502 3c68 FC91      		ld r31,X
 10503 3c6a 1197      		sbiw r26,1
 10504 3c6c BD01      		movw r22,r26
 10505 3c6e 605E      		subi r22,lo8(-(32))
 10506 3c70 7F4F      		sbci r23,hi8(-(32))
 10507 3c72 8181      		ldd r24,Z+1
 10508 3c74 A601      		movw r20,r12
 10509 3c76 9501      		movw r18,r10
 10510 3c78 01E0      		ldi r16,lo8(1)
 10511 3c7a 0E94 0000 		call disk_read
 10512               	.LVL878:
 10513 3c7e 8823      		tst r24
 10514 3c80 01F0      		breq .L645
 10515               	.LM980:
 10516 3c82 EF81      		ldd r30,Y+7
 10517 3c84 F885      		ldd r31,Y+8
 10518 3c86 8481      		ldd r24,Z+4
 10519 3c88 8068      		ori r24,lo8(-128)
 10520 3c8a 8483      		std Z+4,r24
 10521               	.LVL879:
 10522               	.L649:
 10523 3c8c 11E0      		ldi r17,lo8(1)
 10524 3c8e 00C0      		rjmp .L621
 10525               	.LVL880:
 10526               	.L645:
 10527               	.LM981:
 10528 3c90 AF81      		ldd r26,Y+7
 10529 3c92 B885      		ldd r27,Y+8
 10530 3c94 5696      		adiw r26,22
 10531 3c96 AD92      		st X+,r10
 10532 3c98 BD92      		st X+,r11
 10533 3c9a CD92      		st X+,r12
 10534 3c9c DC92      		st X,r13
 10535 3c9e 5997      		sbiw r26,22+3
 10536               	.LVL881:
 10537               	.L642:
 10538               	.LM982:
 10539 3ca0 EF81      		ldd r30,Y+7
 10540 3ca2 F885      		ldd r31,Y+8
 10541 3ca4 2681      		ldd r18,Z+6
 10542 3ca6 3781      		ldd r19,Z+7
 10543 3ca8 4085      		ldd r20,Z+8
 10544 3caa 5185      		ldd r21,Z+9
 10545               	.LVL882:
 10546 3cac 8285      		ldd r24,Z+10
 10547 3cae 9385      		ldd r25,Z+11
 10548 3cb0 A485      		ldd r26,Z+12
 10549 3cb2 B585      		ldd r27,Z+13
 10550 3cb4 8217      		cp r24,r18
 10551 3cb6 9307      		cpc r25,r19
 10552 3cb8 A407      		cpc r26,r20
 10553 3cba B507      		cpc r27,r21
 10554 3cbc 00F4      		brsh .L621
 10555               	.LM983:
 10556 3cbe 2287      		std Z+10,r18
 10557 3cc0 3387      		std Z+11,r19
 10558 3cc2 4487      		std Z+12,r20
 10559 3cc4 5587      		std Z+13,r21
 10560               	.LM984:
 10561 3cc6 8481      		ldd r24,Z+4
 10562 3cc8 8062      		ori r24,lo8(32)
 10563 3cca 8483      		std Z+4,r24
 10564               	.LVL883:
 10565               	.L621:
 10566               	.LM985:
 10567 3ccc 812F      		mov r24,r17
 10568               	/* epilogue start */
 10569 3cce 2896      		adiw r28,8
 10570 3cd0 CDBF      		out __SP_L__,r28
 10571 3cd2 DEBF      		out __SP_H__,r29
 10572 3cd4 CF91      		pop r28
 10573 3cd6 DF91      		pop r29
 10574 3cd8 1F91      		pop r17
 10575               	.LVL884:
 10576 3cda 0F91      		pop r16
 10577 3cdc DF90      		pop r13
 10578 3cde CF90      		pop r12
 10579 3ce0 BF90      		pop r11
 10580 3ce2 AF90      		pop r10
 10581               	.LVL885:
 10582 3ce4 9F90      		pop r9
 10583 3ce6 8F90      		pop r8
 10584               	.LVL886:
 10585 3ce8 7F90      		pop r7
 10586               	.LVL887:
 10587 3cea 6F90      		pop r6
 10588               	.LVL888:
 10589 3cec 5F90      		pop r5
 10590 3cee 4F90      		pop r4
 10591 3cf0 3F90      		pop r3
 10592 3cf2 2F90      		pop r2
 10593 3cf4 0895      		ret
 10594               	.LFE72:
 10596               	.global	f_opendir
 10598               	f_opendir:
 10599               	.LFB73:
 10600               	.LM986:
 10601               	.LVL889:
 10602 3cf6 0F93      		push r16
 10603 3cf8 1F93      		push r17
 10604 3cfa DF93      		push r29
 10605 3cfc CF93      		push r28
 10606 3cfe CDB7      		in r28,__SP_L__
 10607 3d00 DEB7      		in r29,__SP_H__
 10608 3d02 2E97      		sbiw r28,14
 10609 3d04 CDBF      		out __SP_L__,r28
 10610 3d06 DEBF      		out __SP_H__,r29
 10611               	/* prologue: function */
 10612               	/* frame size = 14 */
 10613 3d08 8C01      		movw r16,r24
 10614 3d0a 6D87      		std Y+13,r22
 10615 3d0c 7E87      		std Y+14,r23
 10616               	.LM987:
 10617 3d0e CE01      		movw r24,r28
 10618               	.LVL890:
 10619 3d10 0D96      		adiw r24,13
 10620 3d12 B801      		movw r22,r16
 10621               	.LVL891:
 10622 3d14 40E0      		ldi r20,lo8(0)
 10623 3d16 0E94 0000 		call chk_mounted
 10624               	.LM988:
 10625 3d1a 8823      		tst r24
 10626               	.LVL892:
 10627 3d1c 01F0      		breq .+2
 10628 3d1e 00C0      		rjmp .L653
 10629               	.LM989:
 10630 3d20 CE01      		movw r24,r28
 10631               	.LVL893:
 10632 3d22 0196      		adiw r24,1
 10633 3d24 D801      		movw r26,r16
 10634 3d26 5496      		adiw r26,20
 10635 3d28 8D93      		st X+,r24
 10636 3d2a 9C93      		st X,r25
 10637 3d2c 5597      		sbiw r26,20+1
 10638               	.LM990:
 10639 3d2e 6D85      		ldd r22,Y+13
 10640 3d30 7E85      		ldd r23,Y+14
 10641 3d32 C801      		movw r24,r16
 10642 3d34 0E94 0000 		call follow_path
 10643               	.LM991:
 10644 3d38 8823      		tst r24
 10645               	.LVL894:
 10646 3d3a 01F4      		brne .L654
 10647               	.LM992:
 10648 3d3c D801      		movw r26,r16
 10649 3d3e 5296      		adiw r26,18
 10650 3d40 ED91      		ld r30,X+
 10651 3d42 FC91      		ld r31,X
 10652 3d44 5397      		sbiw r26,18+1
 10653               	.LVL895:
 10654               	.LM993:
 10655 3d46 3097      		sbiw r30,0
 10656 3d48 01F0      		breq .L655
 10657               	.LM994:
 10658 3d4a 8385      		ldd r24,Z+11
 10659               	.LVL896:
 10660 3d4c 84FF      		sbrs r24,4
 10661 3d4e 00C0      		rjmp .L658
 10662               	.L656:
 10663               	.LM995:
 10664 3d50 3589      		ldd r19,Z+21
 10665 3d52 20E0      		ldi r18,lo8(0)
 10666 3d54 8489      		ldd r24,Z+20
 10667 3d56 90E0      		ldi r25,lo8(0)
 10668 3d58 282B      		or r18,r24
 10669 3d5a 392B      		or r19,r25
 10670 3d5c 40E0      		ldi r20,lo8(0)
 10671 3d5e 50E0      		ldi r21,hi8(0)
 10672 3d60 A901      		movw r20,r18
 10673 3d62 3327      		clr r19
 10674 3d64 2227      		clr r18
 10675 3d66 938D      		ldd r25,Z+27
 10676 3d68 80E0      		ldi r24,lo8(0)
 10677 3d6a 628D      		ldd r22,Z+26
 10678 3d6c 70E0      		ldi r23,lo8(0)
 10679 3d6e 862B      		or r24,r22
 10680 3d70 972B      		or r25,r23
 10681 3d72 A0E0      		ldi r26,lo8(0)
 10682 3d74 B0E0      		ldi r27,hi8(0)
 10683 3d76 282B      		or r18,r24
 10684 3d78 392B      		or r19,r25
 10685 3d7a 4A2B      		or r20,r26
 10686 3d7c 5B2B      		or r21,r27
 10687 3d7e F801      		movw r30,r16
 10688               	.LVL897:
 10689 3d80 2683      		std Z+6,r18
 10690 3d82 3783      		std Z+7,r19
 10691 3d84 4087      		std Z+8,r20
 10692 3d86 5187      		std Z+9,r21
 10693               	.LVL898:
 10694               	.L655:
 10695               	.LM996:
 10696 3d88 D801      		movw r26,r16
 10697 3d8a ED91      		ld r30,X+
 10698 3d8c FC91      		ld r31,X
 10699 3d8e 1197      		sbiw r26,1
 10700               	.LVL899:
 10701 3d90 8681      		ldd r24,Z+6
 10702 3d92 9781      		ldd r25,Z+7
 10703               	.LVL900:
 10704 3d94 1296      		adiw r26,2
 10705 3d96 8D93      		st X+,r24
 10706 3d98 9C93      		st X,r25
 10707 3d9a 1397      		sbiw r26,2+1
 10708               	.LM997:
 10709 3d9c C801      		movw r24,r16
 10710 3d9e 60E0      		ldi r22,lo8(0)
 10711 3da0 70E0      		ldi r23,hi8(0)
 10712 3da2 0E94 0000 		call dir_seek
 10713               	.LVL901:
 10714               	.L654:
 10715               	.LM998:
 10716 3da6 8430      		cpi r24,lo8(4)
 10717 3da8 01F4      		brne .L653
 10718               	.LVL902:
 10719               	.L658:
 10720 3daa 85E0      		ldi r24,lo8(5)
 10721               	.L653:
 10722               	.LVL903:
 10723               	/* epilogue start */
 10724               	.LM999:
 10725 3dac 2E96      		adiw r28,14
 10726 3dae CDBF      		out __SP_L__,r28
 10727 3db0 DEBF      		out __SP_H__,r29
 10728 3db2 CF91      		pop r28
 10729 3db4 DF91      		pop r29
 10730 3db6 1F91      		pop r17
 10731 3db8 0F91      		pop r16
 10732               	.LVL904:
 10733 3dba 0895      		ret
 10734               	.LFE73:
 10736               	.global	f_readdir
 10738               	f_readdir:
 10739               	.LFB74:
 10740               	.LM1000:
 10741               	.LVL905:
 10742 3dbc EF92      		push r14
 10743 3dbe FF92      		push r15
 10744 3dc0 0F93      		push r16
 10745 3dc2 1F93      		push r17
 10746 3dc4 DF93      		push r29
 10747 3dc6 CF93      		push r28
 10748 3dc8 CDB7      		in r28,__SP_L__
 10749 3dca DEB7      		in r29,__SP_H__
 10750 3dcc 2C97      		sbiw r28,12
 10751 3dce CDBF      		out __SP_L__,r28
 10752 3dd0 DEBF      		out __SP_H__,r29
 10753               	/* prologue: function */
 10754               	/* frame size = 12 */
 10755 3dd2 8C01      		movw r16,r24
 10756 3dd4 7B01      		movw r14,r22
 10757               	.LM1001:
 10758 3dd6 FC01      		movw r30,r24
 10759 3dd8 6281      		ldd r22,Z+2
 10760 3dda 7381      		ldd r23,Z+3
 10761               	.LVL906:
 10762 3ddc 8081      		ld r24,Z
 10763 3dde 9181      		ldd r25,Z+1
 10764               	.LVL907:
 10765 3de0 0E94 0000 		call validate
 10766               	.LM1002:
 10767 3de4 8823      		tst r24
 10768               	.LVL908:
 10769 3de6 01F4      		brne .L661
 10770               	.LM1003:
 10771 3de8 CE01      		movw r24,r28
 10772               	.LVL909:
 10773 3dea 0196      		adiw r24,1
 10774 3dec F801      		movw r30,r16
 10775 3dee 848B      		std Z+20,r24
 10776 3df0 958B      		std Z+21,r25
 10777               	.LM1004:
 10778 3df2 E114      		cp r14,__zero_reg__
 10779 3df4 F104      		cpc r15,__zero_reg__
 10780 3df6 01F4      		brne .L662
 10781               	.LM1005:
 10782 3df8 C801      		movw r24,r16
 10783 3dfa 60E0      		ldi r22,lo8(0)
 10784 3dfc 70E0      		ldi r23,hi8(0)
 10785 3dfe 0E94 0000 		call dir_seek
 10786 3e02 00C0      		rjmp .L661
 10787               	.L662:
 10788               	.LM1006:
 10789 3e04 C801      		movw r24,r16
 10790 3e06 0E94 0000 		call dir_read
 10791               	.LM1007:
 10792 3e0a 8430      		cpi r24,lo8(4)
 10793               	.LVL910:
 10794 3e0c 01F4      		brne .L663
 10795               	.LM1008:
 10796 3e0e F801      		movw r30,r16
 10797 3e10 1686      		std Z+14,__zero_reg__
 10798 3e12 1786      		std Z+15,__zero_reg__
 10799 3e14 108A      		std Z+16,__zero_reg__
 10800 3e16 118A      		std Z+17,__zero_reg__
 10801 3e18 00C0      		rjmp .L664
 10802               	.L663:
 10803               	.LM1009:
 10804 3e1a 8823      		tst r24
 10805 3e1c 01F4      		brne .L661
 10806               	.L664:
 10807               	.LM1010:
 10808 3e1e C801      		movw r24,r16
 10809               	.LVL911:
 10810 3e20 B701      		movw r22,r14
 10811 3e22 0E94 0000 		call get_fileinfo
 10812               	.LM1011:
 10813 3e26 C801      		movw r24,r16
 10814 3e28 60E0      		ldi r22,lo8(0)
 10815 3e2a 0E94 0000 		call dir_next
 10816               	.LM1012:
 10817 3e2e 8430      		cpi r24,lo8(4)
 10818               	.LVL912:
 10819 3e30 01F4      		brne .L661
 10820               	.LM1013:
 10821 3e32 F801      		movw r30,r16
 10822 3e34 1686      		std Z+14,__zero_reg__
 10823 3e36 1786      		std Z+15,__zero_reg__
 10824 3e38 108A      		std Z+16,__zero_reg__
 10825 3e3a 118A      		std Z+17,__zero_reg__
 10826 3e3c 80E0      		ldi r24,lo8(0)
 10827               	.L661:
 10828               	.LVL913:
 10829               	/* epilogue start */
 10830               	.LM1014:
 10831 3e3e 2C96      		adiw r28,12
 10832 3e40 CDBF      		out __SP_L__,r28
 10833 3e42 DEBF      		out __SP_H__,r29
 10834 3e44 CF91      		pop r28
 10835 3e46 DF91      		pop r29
 10836 3e48 1F91      		pop r17
 10837 3e4a 0F91      		pop r16
 10838               	.LVL914:
 10839 3e4c FF90      		pop r15
 10840 3e4e EF90      		pop r14
 10841               	.LVL915:
 10842 3e50 0895      		ret
 10843               	.LFE74:
 10845               	.global	f_stat
 10847               	f_stat:
 10848               	.LFB75:
 10849               	.LM1015:
 10850               	.LVL916:
 10851 3e52 CF92      		push r12
 10852 3e54 DF92      		push r13
 10853 3e56 EF92      		push r14
 10854 3e58 FF92      		push r15
 10855 3e5a 1F93      		push r17
 10856 3e5c DF93      		push r29
 10857 3e5e CF93      		push r28
 10858 3e60 CDB7      		in r28,__SP_L__
 10859 3e62 DEB7      		in r29,__SP_H__
 10860 3e64 A497      		sbiw r28,36
 10861 3e66 CDBF      		out __SP_L__,r28
 10862 3e68 DEBF      		out __SP_H__,r29
 10863               	/* prologue: function */
 10864               	/* frame size = 36 */
 10865 3e6a 8BA3      		std Y+35,r24
 10866 3e6c 9CA3      		std Y+36,r25
 10867 3e6e 6B01      		movw r12,r22
 10868               	.LM1016:
 10869 3e70 2DE0      		ldi r18,lo8(13)
 10870 3e72 E22E      		mov r14,r18
 10871 3e74 F12C      		mov r15,__zero_reg__
 10872 3e76 EC0E      		add r14,r28
 10873 3e78 FD1E      		adc r15,r29
 10874 3e7a CE01      		movw r24,r28
 10875               	.LVL917:
 10876 3e7c 8396      		adiw r24,35
 10877 3e7e B701      		movw r22,r14
 10878               	.LVL918:
 10879 3e80 40E0      		ldi r20,lo8(0)
 10880 3e82 0E94 0000 		call chk_mounted
 10881 3e86 182F      		mov r17,r24
 10882               	.LVL919:
 10883               	.LM1017:
 10884 3e88 8823      		tst r24
 10885 3e8a 01F4      		brne .L667
 10886               	.LVL920:
 10887               	.LM1018:
 10888 3e8c CE01      		movw r24,r28
 10889               	.LVL921:
 10890 3e8e 0196      		adiw r24,1
 10891 3e90 89A3      		std Y+33,r24
 10892 3e92 9AA3      		std Y+34,r25
 10893               	.LM1019:
 10894 3e94 6BA1      		ldd r22,Y+35
 10895 3e96 7CA1      		ldd r23,Y+36
 10896 3e98 C701      		movw r24,r14
 10897 3e9a 0E94 0000 		call follow_path
 10898 3e9e 182F      		mov r17,r24
 10899               	.LM1020:
 10900 3ea0 8823      		tst r24
 10901 3ea2 01F4      		brne .L667
 10902               	.LVL922:
 10903               	.LM1021:
 10904 3ea4 8F8D      		ldd r24,Y+31
 10905 3ea6 98A1      		ldd r25,Y+32
 10906               	.LVL923:
 10907 3ea8 892B      		or r24,r25
 10908 3eaa 01F4      		brne .L668
 10909 3eac 16E0      		ldi r17,lo8(6)
 10910 3eae 00C0      		rjmp .L667
 10911               	.L668:
 10912               	.LM1022:
 10913 3eb0 C701      		movw r24,r14
 10914 3eb2 B601      		movw r22,r12
 10915 3eb4 0E94 0000 		call get_fileinfo
 10916               	.LVL924:
 10917               	.L667:
 10918               	.LM1023:
 10919 3eb8 812F      		mov r24,r17
 10920               	/* epilogue start */
 10921 3eba A496      		adiw r28,36
 10922 3ebc CDBF      		out __SP_L__,r28
 10923 3ebe DEBF      		out __SP_H__,r29
 10924 3ec0 CF91      		pop r28
 10925 3ec2 DF91      		pop r29
 10926 3ec4 1F91      		pop r17
 10927               	.LVL925:
 10928 3ec6 FF90      		pop r15
 10929 3ec8 EF90      		pop r14
 10930 3eca DF90      		pop r13
 10931 3ecc CF90      		pop r12
 10932               	.LVL926:
 10933 3ece 0895      		ret
 10934               	.LFE75:
 10936               	.global	f_getfree
 10938               	f_getfree:
 10939               	.LFB76:
 10940               	.LM1024:
 10941               	.LVL927:
 10942 3ed0 2F92      		push r2
 10943 3ed2 3F92      		push r3
 10944 3ed4 4F92      		push r4
 10945 3ed6 5F92      		push r5
 10946 3ed8 6F92      		push r6
 10947 3eda 7F92      		push r7
 10948 3edc 8F92      		push r8
 10949 3ede 9F92      		push r9
 10950 3ee0 AF92      		push r10
 10951 3ee2 BF92      		push r11
 10952 3ee4 CF92      		push r12
 10953 3ee6 DF92      		push r13
 10954 3ee8 EF92      		push r14
 10955 3eea FF92      		push r15
 10956 3eec 0F93      		push r16
 10957 3eee 1F93      		push r17
 10958 3ef0 DF93      		push r29
 10959 3ef2 CF93      		push r28
 10960 3ef4 CDB7      		in r28,__SP_L__
 10961 3ef6 DEB7      		in r29,__SP_H__
 10962 3ef8 2997      		sbiw r28,9
 10963 3efa CDBF      		out __SP_L__,r28
 10964 3efc DEBF      		out __SP_H__,r29
 10965               	/* prologue: function */
 10966               	/* frame size = 9 */
 10967 3efe 8983      		std Y+1,r24
 10968 3f00 9A83      		std Y+2,r25
 10969 3f02 6C83      		std Y+4,r22
 10970 3f04 7D83      		std Y+5,r23
 10971 3f06 2A01      		movw r4,r20
 10972               	.LM1025:
 10973 3f08 CE01      		movw r24,r28
 10974               	.LVL928:
 10975 3f0a 0196      		adiw r24,1
 10976 3f0c BA01      		movw r22,r20
 10977               	.LVL929:
 10978 3f0e 40E0      		ldi r20,lo8(0)
 10979               	.LVL930:
 10980 3f10 0E94 0000 		call chk_mounted
 10981               	.LM1026:
 10982 3f14 8823      		tst r24
 10983               	.LVL931:
 10984 3f16 01F0      		breq .+2
 10985 3f18 00C0      		rjmp .L672
 10986               	.LM1027:
 10987 3f1a D201      		movw r26,r4
 10988 3f1c ED91      		ld r30,X+
 10989 3f1e FC91      		ld r31,X
 10990 3f20 2685      		ldd r18,Z+14
 10991 3f22 3785      		ldd r19,Z+15
 10992 3f24 4089      		ldd r20,Z+16
 10993 3f26 5189      		ldd r21,Z+17
 10994 3f28 E28C      		ldd r14,Z+26
 10995 3f2a F38C      		ldd r15,Z+27
 10996 3f2c 048D      		ldd r16,Z+28
 10997 3f2e 158D      		ldd r17,Z+29
 10998               	.LVL932:
 10999 3f30 D801      		movw r26,r16
 11000 3f32 C701      		movw r24,r14
 11001               	.LVL933:
 11002 3f34 0297      		sbiw r24,2
 11003 3f36 A109      		sbc r26,__zero_reg__
 11004 3f38 B109      		sbc r27,__zero_reg__
 11005 3f3a 8217      		cp r24,r18
 11006 3f3c 9307      		cpc r25,r19
 11007 3f3e A407      		cpc r26,r20
 11008 3f40 B507      		cpc r27,r21
 11009 3f42 00F0      		brlo .L673
 11010               	.LM1028:
 11011 3f44 EC81      		ldd r30,Y+4
 11012 3f46 FD81      		ldd r31,Y+5
 11013 3f48 2083      		st Z,r18
 11014 3f4a 3183      		std Z+1,r19
 11015 3f4c 4283      		std Z+2,r20
 11016 3f4e 5383      		std Z+3,r21
 11017 3f50 00C0      		rjmp .L690
 11018               	.L673:
 11019               	.LM1029:
 11020 3f52 3080      		ld r3,Z
 11021 3f54 3B82      		std Y+3,r3
 11022               	.LVL934:
 11023               	.LM1030:
 11024 3f56 232D      		mov r18,r3
 11025 3f58 2130      		cpi r18,lo8(1)
 11026 3f5a 01F4      		brne .L674
 11027 3f5c AA24      		clr r10
 11028 3f5e BB24      		clr r11
 11029 3f60 6501      		movw r12,r10
 11030               	.LVL935:
 11031 3f62 92E0      		ldi r25,lo8(2)
 11032 3f64 E92E      		mov r14,r25
 11033 3f66 F12C      		mov r15,__zero_reg__
 11034 3f68 012D      		mov r16,__zero_reg__
 11035 3f6a 112D      		mov r17,__zero_reg__
 11036               	.LVL936:
 11037               	.L678:
 11038               	.LM1031:
 11039 3f6c D201      		movw r26,r4
 11040 3f6e 8D91      		ld r24,X+
 11041 3f70 9C91      		ld r25,X
 11042 3f72 B801      		movw r22,r16
 11043 3f74 A701      		movw r20,r14
 11044 3f76 0E94 0000 		call get_fat
 11045               	.LVL937:
 11046               	.LM1032:
 11047 3f7a 6F3F      		cpi r22,lo8(-1)
 11048 3f7c BFEF      		ldi r27,hi8(-1)
 11049 3f7e 7B07      		cpc r23,r27
 11050 3f80 BFEF      		ldi r27,hlo8(-1)
 11051 3f82 8B07      		cpc r24,r27
 11052 3f84 BFEF      		ldi r27,hhi8(-1)
 11053 3f86 9B07      		cpc r25,r27
 11054               	.LVL938:
 11055 3f88 01F4      		brne .L675
 11056 3f8a 81E0      		ldi r24,lo8(1)
 11057               	.LVL939:
 11058 3f8c 00C0      		rjmp .L672
 11059               	.LVL940:
 11060               	.L675:
 11061               	.LM1033:
 11062 3f8e 6130      		cpi r22,lo8(1)
 11063 3f90 7105      		cpc r23,__zero_reg__
 11064 3f92 8105      		cpc r24,__zero_reg__
 11065 3f94 9105      		cpc r25,__zero_reg__
 11066 3f96 01F4      		brne .L676
 11067 3f98 82E0      		ldi r24,lo8(2)
 11068               	.LVL941:
 11069 3f9a 00C0      		rjmp .L672
 11070               	.LVL942:
 11071               	.L676:
 11072               	.LM1034:
 11073 3f9c 6115      		cp r22,__zero_reg__
 11074 3f9e 7105      		cpc r23,__zero_reg__
 11075 3fa0 8105      		cpc r24,__zero_reg__
 11076 3fa2 9105      		cpc r25,__zero_reg__
 11077 3fa4 01F4      		brne .L677
 11078 3fa6 0894      		sec
 11079 3fa8 A11C      		adc r10,__zero_reg__
 11080 3faa B11C      		adc r11,__zero_reg__
 11081 3fac C11C      		adc r12,__zero_reg__
 11082 3fae D11C      		adc r13,__zero_reg__
 11083               	.L677:
 11084               	.LM1035:
 11085 3fb0 0894      		sec
 11086 3fb2 E11C      		adc r14,__zero_reg__
 11087 3fb4 F11C      		adc r15,__zero_reg__
 11088 3fb6 011D      		adc r16,__zero_reg__
 11089 3fb8 111D      		adc r17,__zero_reg__
 11090 3fba D201      		movw r26,r4
 11091 3fbc ED91      		ld r30,X+
 11092 3fbe FC91      		ld r31,X
 11093 3fc0 828D      		ldd r24,Z+26
 11094 3fc2 938D      		ldd r25,Z+27
 11095 3fc4 A48D      		ldd r26,Z+28
 11096 3fc6 B58D      		ldd r27,Z+29
 11097 3fc8 E816      		cp r14,r24
 11098 3fca F906      		cpc r15,r25
 11099 3fcc 0A07      		cpc r16,r26
 11100 3fce 1B07      		cpc r17,r27
 11101 3fd0 00F0      		brlo .L678
 11102 3fd2 00C0      		rjmp .L679
 11103               	.LVL943:
 11104               	.L674:
 11105               	.LM1036:
 11106 3fd4 668C      		ldd r6,Z+30
 11107 3fd6 778C      		ldd r7,Z+31
 11108 3fd8 80A0      		ldd r8,Z+32
 11109 3fda 91A0      		ldd r9,Z+33
 11110               	.LVL944:
 11111 3fdc AA24      		clr r10
 11112 3fde BB24      		clr r11
 11113 3fe0 6501      		movw r12,r10
 11114               	.LVL945:
 11115 3fe2 60E0      		ldi r22,lo8(0)
 11116 3fe4 70E0      		ldi r23,hi8(0)
 11117               	.LVL946:
 11118 3fe6 E0E0      		ldi r30,lo8(0)
 11119 3fe8 F0E0      		ldi r31,hi8(0)
 11120               	.LVL947:
 11121               	.L685:
 11122               	.LM1037:
 11123 3fea 6115      		cp r22,__zero_reg__
 11124 3fec 7105      		cpc r23,__zero_reg__
 11125 3fee 01F4      		brne .L680
 11126               	.LM1038:
 11127 3ff0 F201      		movw r30,r4
 11128               	.LVL948:
 11129 3ff2 8081      		ld r24,Z
 11130 3ff4 9181      		ldd r25,Z+1
 11131 3ff6 B401      		movw r22,r8
 11132 3ff8 A301      		movw r20,r6
 11133 3ffa 0E94 0000 		call move_window
 11134               	.LVL949:
 11135               	.LM1039:
 11136 3ffe 8823      		tst r24
 11137               	.LVL950:
 11138 4000 01F0      		breq .+2
 11139 4002 00C0      		rjmp .L672
 11140               	.LM1040:
 11141 4004 0894      		sec
 11142 4006 611C      		adc r6,__zero_reg__
 11143 4008 711C      		adc r7,__zero_reg__
 11144 400a 811C      		adc r8,__zero_reg__
 11145 400c 911C      		adc r9,__zero_reg__
 11146               	.LM1041:
 11147 400e D201      		movw r26,r4
 11148 4010 ED91      		ld r30,X+
 11149 4012 FC91      		ld r31,X
 11150               	.LVL951:
 11151 4014 BE96      		adiw r30,46
 11152 4016 60E0      		ldi r22,lo8(512)
 11153 4018 72E0      		ldi r23,hi8(512)
 11154               	.LVL952:
 11155               	.L680:
 11156 401a B181      		ldd r27,Z+1
 11157 401c B887      		std Y+8,r27
 11158 401e 2081      		ld r18,Z
 11159 4020 2987      		std Y+9,r18
 11160               	.LM1042:
 11161 4022 3B81      		ldd r19,Y+3
 11162 4024 3230      		cpi r19,lo8(2)
 11163 4026 01F4      		brne .L681
 11164               	.LM1043:
 11165 4028 BF83      		std Y+7,r27
 11166 402a 1E82      		std Y+6,__zero_reg__
 11167 402c 822F      		mov r24,r18
 11168               	.LVL953:
 11169 402e 90E0      		ldi r25,lo8(0)
 11170 4030 AE81      		ldd r26,Y+6
 11171 4032 BF81      		ldd r27,Y+7
 11172 4034 8A2B      		or r24,r26
 11173 4036 9B2B      		or r25,r27
 11174 4038 892B      		or r24,r25
 11175 403a 01F4      		brne .L682
 11176 403c 0894      		sec
 11177 403e A11C      		adc r10,__zero_reg__
 11178 4040 B11C      		adc r11,__zero_reg__
 11179 4042 C11C      		adc r12,__zero_reg__
 11180 4044 D11C      		adc r13,__zero_reg__
 11181               	.L682:
 11182               	.LM1044:
 11183 4046 3296      		adiw r30,2
 11184 4048 6250      		subi r22,lo8(-(-2))
 11185 404a 7040      		sbci r23,hi8(-(-2))
 11186 404c 00C0      		rjmp .L683
 11187               	.LVL954:
 11188               	.L681:
 11189               	.LM1045:
 11190 404e 2381      		ldd r18,Z+3
 11191 4050 30E0      		ldi r19,lo8(0)
 11192 4052 40E0      		ldi r20,lo8(0)
 11193 4054 50E0      		ldi r21,hi8(0)
 11194 4056 522F      		mov r21,r18
 11195 4058 4427      		clr r20
 11196 405a 3327      		clr r19
 11197 405c 2227      		clr r18
 11198               	.LVL955:
 11199 405e 8281      		ldd r24,Z+2
 11200 4060 90E0      		ldi r25,lo8(0)
 11201 4062 A0E0      		ldi r26,lo8(0)
 11202 4064 B0E0      		ldi r27,hi8(0)
 11203 4066 DC01      		movw r26,r24
 11204 4068 9927      		clr r25
 11205 406a 8827      		clr r24
 11206 406c 282B      		or r18,r24
 11207 406e 392B      		or r19,r25
 11208 4070 4A2B      		or r20,r26
 11209 4072 5B2B      		or r21,r27
 11210 4074 3984      		ldd r3,Y+9
 11211 4076 832D      		mov r24,r3
 11212 4078 90E0      		ldi r25,lo8(0)
 11213 407a A0E0      		ldi r26,lo8(0)
 11214 407c B0E0      		ldi r27,hi8(0)
 11215 407e 282B      		or r18,r24
 11216 4080 392B      		or r19,r25
 11217 4082 4A2B      		or r20,r26
 11218 4084 5B2B      		or r21,r27
 11219 4086 3884      		ldd r3,Y+8
 11220 4088 2224      		clr r2
 11221 408a C101      		movw r24,r2
 11222 408c A0E0      		ldi r26,lo8(0)
 11223 408e B0E0      		ldi r27,hi8(0)
 11224 4090 282B      		or r18,r24
 11225 4092 392B      		or r19,r25
 11226 4094 4A2B      		or r20,r26
 11227 4096 5B2B      		or r21,r27
 11228 4098 5F70      		andi r21,hhi8(268435455)
 11229 409a 2115      		cp r18,__zero_reg__
 11230 409c 3105      		cpc r19,__zero_reg__
 11231 409e 4105      		cpc r20,__zero_reg__
 11232 40a0 5105      		cpc r21,__zero_reg__
 11233 40a2 01F4      		brne .L684
 11234 40a4 0894      		sec
 11235 40a6 A11C      		adc r10,__zero_reg__
 11236 40a8 B11C      		adc r11,__zero_reg__
 11237 40aa C11C      		adc r12,__zero_reg__
 11238 40ac D11C      		adc r13,__zero_reg__
 11239               	.L684:
 11240               	.LM1046:
 11241 40ae 3496      		adiw r30,4
 11242 40b0 6450      		subi r22,lo8(-(-4))
 11243 40b2 7040      		sbci r23,hi8(-(-4))
 11244               	.L683:
 11245               	.LM1047:
 11246 40b4 0894      		sec
 11247 40b6 E108      		sbc r14,__zero_reg__
 11248 40b8 F108      		sbc r15,__zero_reg__
 11249 40ba 0109      		sbc r16,__zero_reg__
 11250 40bc 1109      		sbc r17,__zero_reg__
 11251 40be E114      		cp r14,__zero_reg__
 11252 40c0 F104      		cpc r15,__zero_reg__
 11253 40c2 0105      		cpc r16,__zero_reg__
 11254 40c4 1105      		cpc r17,__zero_reg__
 11255 40c6 01F0      		breq .+2
 11256 40c8 00C0      		rjmp .L685
 11257               	.LVL956:
 11258               	.L679:
 11259               	.LM1048:
 11260 40ca D201      		movw r26,r4
 11261 40cc ED91      		ld r30,X+
 11262 40ce FC91      		ld r31,X
 11263               	.LVL957:
 11264 40d0 A686      		std Z+14,r10
 11265 40d2 B786      		std Z+15,r11
 11266 40d4 C08A      		std Z+16,r12
 11267 40d6 D18A      		std Z+17,r13
 11268               	.LM1049:
 11269 40d8 BB81      		ldd r27,Y+3
 11270 40da B330      		cpi r27,lo8(3)
 11271 40dc 01F4      		brne .L686
 11272 40de 81E0      		ldi r24,lo8(1)
 11273 40e0 8583      		std Z+5,r24
 11274               	.L686:
 11275               	.LM1050:
 11276 40e2 EC81      		ldd r30,Y+4
 11277 40e4 FD81      		ldd r31,Y+5
 11278 40e6 A082      		st Z,r10
 11279 40e8 B182      		std Z+1,r11
 11280 40ea C282      		std Z+2,r12
 11281 40ec D382      		std Z+3,r13
 11282               	.L690:
 11283 40ee 80E0      		ldi r24,lo8(0)
 11284               	.LVL958:
 11285               	.L672:
 11286               	.LVL959:
 11287               	/* epilogue start */
 11288               	.LM1051:
 11289 40f0 2996      		adiw r28,9
 11290 40f2 CDBF      		out __SP_L__,r28
 11291 40f4 DEBF      		out __SP_H__,r29
 11292 40f6 CF91      		pop r28
 11293 40f8 DF91      		pop r29
 11294 40fa 1F91      		pop r17
 11295 40fc 0F91      		pop r16
 11296 40fe FF90      		pop r15
 11297 4100 EF90      		pop r14
 11298               	.LVL960:
 11299 4102 DF90      		pop r13
 11300 4104 CF90      		pop r12
 11301 4106 BF90      		pop r11
 11302 4108 AF90      		pop r10
 11303               	.LVL961:
 11304 410a 9F90      		pop r9
 11305 410c 8F90      		pop r8
 11306 410e 7F90      		pop r7
 11307 4110 6F90      		pop r6
 11308               	.LVL962:
 11309 4112 5F90      		pop r5
 11310 4114 4F90      		pop r4
 11311               	.LVL963:
 11312 4116 3F90      		pop r3
 11313 4118 2F90      		pop r2
 11314 411a 0895      		ret
 11315               	.LFE76:
 11317               	.global	f_truncate
 11319               	f_truncate:
 11320               	.LFB77:
 11321               	.LM1052:
 11322               	.LVL964:
 11323 411c CF92      		push r12
 11324 411e DF92      		push r13
 11325 4120 EF92      		push r14
 11326 4122 FF92      		push r15
 11327 4124 0F93      		push r16
 11328 4126 1F93      		push r17
 11329 4128 CF93      		push r28
 11330 412a DF93      		push r29
 11331               	/* prologue: function */
 11332               	/* frame size = 0 */
 11333 412c EC01      		movw r28,r24
 11334               	.LM1053:
 11335 412e 6A81      		ldd r22,Y+2
 11336 4130 7B81      		ldd r23,Y+3
 11337 4132 8881      		ld r24,Y
 11338 4134 9981      		ldd r25,Y+1
 11339               	.LVL965:
 11340 4136 0E94 0000 		call validate
 11341 413a 182F      		mov r17,r24
 11342               	.LVL966:
 11343               	.LM1054:
 11344 413c 8823      		tst r24
 11345 413e 01F0      		breq .+2
 11346 4140 00C0      		rjmp .L692
 11347               	.LVL967:
 11348               	.LM1055:
 11349 4142 6C81      		ldd r22,Y+4
 11350 4144 67FF      		sbrs r22,7
 11351 4146 00C0      		rjmp .L693
 11352 4148 12E0      		ldi r17,lo8(2)
 11353               	.LVL968:
 11354 414a 00C0      		rjmp .L692
 11355               	.LVL969:
 11356               	.L693:
 11357               	.LM1056:
 11358 414c 61FD      		sbrc r22,1
 11359 414e 00C0      		rjmp .L694
 11360 4150 17E0      		ldi r17,lo8(7)
 11361               	.LVL970:
 11362 4152 00C0      		rjmp .L692
 11363               	.LVL971:
 11364               	.L694:
 11365               	.LM1057:
 11366 4154 2E81      		ldd r18,Y+6
 11367 4156 3F81      		ldd r19,Y+7
 11368 4158 4885      		ldd r20,Y+8
 11369 415a 5985      		ldd r21,Y+9
 11370 415c 8A85      		ldd r24,Y+10
 11371 415e 9B85      		ldd r25,Y+11
 11372 4160 AC85      		ldd r26,Y+12
 11373 4162 BD85      		ldd r27,Y+13
 11374               	.LVL972:
 11375 4164 2817      		cp r18,r24
 11376 4166 3907      		cpc r19,r25
 11377 4168 4A07      		cpc r20,r26
 11378 416a 5B07      		cpc r21,r27
 11379 416c 00F0      		brlo .+2
 11380 416e 00C0      		rjmp .L692
 11381               	.LM1058:
 11382 4170 2A87      		std Y+10,r18
 11383 4172 3B87      		std Y+11,r19
 11384 4174 4C87      		std Y+12,r20
 11385 4176 5D87      		std Y+13,r21
 11386               	.LM1059:
 11387 4178 6062      		ori r22,lo8(32)
 11388 417a 6C83      		std Y+4,r22
 11389 417c 8881      		ld r24,Y
 11390 417e 9981      		ldd r25,Y+1
 11391               	.LM1060:
 11392 4180 2115      		cp r18,__zero_reg__
 11393 4182 3105      		cpc r19,__zero_reg__
 11394 4184 4105      		cpc r20,__zero_reg__
 11395 4186 5105      		cpc r21,__zero_reg__
 11396 4188 01F4      		brne .L695
 11397               	.LM1061:
 11398 418a 4E85      		ldd r20,Y+14
 11399 418c 5F85      		ldd r21,Y+15
 11400 418e 6889      		ldd r22,Y+16
 11401 4190 7989      		ldd r23,Y+17
 11402 4192 0E94 0000 		call remove_chain
 11403 4196 182F      		mov r17,r24
 11404               	.LM1062:
 11405 4198 1E86      		std Y+14,__zero_reg__
 11406 419a 1F86      		std Y+15,__zero_reg__
 11407 419c 188A      		std Y+16,__zero_reg__
 11408 419e 198A      		std Y+17,__zero_reg__
 11409 41a0 00C0      		rjmp .L696
 11410               	.L695:
 11411               	.LM1063:
 11412 41a2 4A89      		ldd r20,Y+18
 11413 41a4 5B89      		ldd r21,Y+19
 11414 41a6 6C89      		ldd r22,Y+20
 11415 41a8 7D89      		ldd r23,Y+21
 11416 41aa 0E94 0000 		call get_fat
 11417 41ae 6B01      		movw r12,r22
 11418 41b0 7C01      		movw r14,r24
 11419               	.LVL973:
 11420               	.LM1064:
 11421 41b2 8FEF      		ldi r24,lo8(-1)
 11422 41b4 C816      		cp r12,r24
 11423 41b6 8FEF      		ldi r24,hi8(-1)
 11424 41b8 D806      		cpc r13,r24
 11425 41ba 8FEF      		ldi r24,hlo8(-1)
 11426 41bc E806      		cpc r14,r24
 11427 41be 8FEF      		ldi r24,hhi8(-1)
 11428 41c0 F806      		cpc r15,r24
 11429 41c2 01F0      		breq .L697
 11430               	.LM1065:
 11431 41c4 81E0      		ldi r24,lo8(1)
 11432 41c6 C816      		cp r12,r24
 11433 41c8 D104      		cpc r13,__zero_reg__
 11434 41ca E104      		cpc r14,__zero_reg__
 11435 41cc F104      		cpc r15,__zero_reg__
 11436 41ce 01F4      		brne .L698
 11437 41d0 12E0      		ldi r17,lo8(2)
 11438 41d2 00C0      		rjmp .L699
 11439               	.L698:
 11440               	.LM1066:
 11441 41d4 E881      		ld r30,Y
 11442 41d6 F981      		ldd r31,Y+1
 11443 41d8 828D      		ldd r24,Z+26
 11444 41da 938D      		ldd r25,Z+27
 11445 41dc A48D      		ldd r26,Z+28
 11446 41de B58D      		ldd r27,Z+29
 11447 41e0 C816      		cp r12,r24
 11448 41e2 D906      		cpc r13,r25
 11449 41e4 EA06      		cpc r14,r26
 11450 41e6 FB06      		cpc r15,r27
 11451 41e8 00F4      		brsh .L692
 11452               	.LM1067:
 11453 41ea 4A89      		ldd r20,Y+18
 11454 41ec 5B89      		ldd r21,Y+19
 11455 41ee 6C89      		ldd r22,Y+20
 11456 41f0 7D89      		ldd r23,Y+21
 11457 41f2 CF01      		movw r24,r30
 11458 41f4 0FEF      		ldi r16,lo8(268435455)
 11459 41f6 1FEF      		ldi r17,hi8(268435455)
 11460 41f8 2FEF      		ldi r18,hlo8(268435455)
 11461 41fa 3FE0      		ldi r19,hhi8(268435455)
 11462 41fc 0E94 0000 		call put_fat
 11463 4200 182F      		mov r17,r24
 11464               	.LM1068:
 11465 4202 8823      		tst r24
 11466 4204 01F4      		brne .L699
 11467               	.LVL974:
 11468 4206 8881      		ld r24,Y
 11469 4208 9981      		ldd r25,Y+1
 11470               	.LVL975:
 11471 420a B701      		movw r22,r14
 11472 420c A601      		movw r20,r12
 11473 420e 0E94 0000 		call remove_chain
 11474 4212 182F      		mov r17,r24
 11475               	.L696:
 11476               	.LM1069:
 11477 4214 1123      		tst r17
 11478 4216 01F0      		breq .L692
 11479               	.LVL976:
 11480               	.L699:
 11481 4218 8C81      		ldd r24,Y+4
 11482 421a 8068      		ori r24,lo8(-128)
 11483 421c 8C83      		std Y+4,r24
 11484               	.LVL977:
 11485               	.L692:
 11486               	.LM1070:
 11487 421e 812F      		mov r24,r17
 11488               	/* epilogue start */
 11489 4220 DF91      		pop r29
 11490 4222 CF91      		pop r28
 11491               	.LVL978:
 11492 4224 1F91      		pop r17
 11493               	.LVL979:
 11494 4226 0F91      		pop r16
 11495 4228 FF90      		pop r15
 11496 422a EF90      		pop r14
 11497 422c DF90      		pop r13
 11498 422e CF90      		pop r12
 11499               	.LVL980:
 11500 4230 0895      		ret
 11501               	.LVL981:
 11502               	.L697:
 11503               	.LM1071:
 11504 4232 11E0      		ldi r17,lo8(1)
 11505 4234 00C0      		rjmp .L699
 11506               	.LFE77:
 11508               	.global	f_unlink
 11510               	f_unlink:
 11511               	.LFB78:
 11512               	.LM1072:
 11513               	.LVL982:
 11514 4236 CF92      		push r12
 11515 4238 DF92      		push r13
 11516 423a EF92      		push r14
 11517 423c FF92      		push r15
 11518 423e 0F93      		push r16
 11519 4240 1F93      		push r17
 11520 4242 DF93      		push r29
 11521 4244 CF93      		push r28
 11522 4246 CDB7      		in r28,__SP_L__
 11523 4248 DEB7      		in r29,__SP_H__
 11524 424a EA97      		sbiw r28,58
 11525 424c CDBF      		out __SP_L__,r28
 11526 424e DEBF      		out __SP_H__,r29
 11527               	/* prologue: function */
 11528               	/* frame size = 58 */
 11529 4250 89AF      		std Y+57,r24
 11530 4252 9AAF      		std Y+58,r25
 11531               	.LM1073:
 11532 4254 4DE0      		ldi r20,lo8(13)
 11533 4256 C42E      		mov r12,r20
 11534 4258 D12C      		mov r13,__zero_reg__
 11535 425a CC0E      		add r12,r28
 11536 425c DD1E      		adc r13,r29
 11537 425e CE01      		movw r24,r28
 11538               	.LVL983:
 11539 4260 C996      		adiw r24,57
 11540 4262 B601      		movw r22,r12
 11541 4264 41E0      		ldi r20,lo8(1)
 11542 4266 0E94 0000 		call chk_mounted
 11543               	.LM1074:
 11544 426a 8823      		tst r24
 11545               	.LVL984:
 11546 426c 01F0      		breq .+2
 11547 426e 00C0      		rjmp .L702
 11548               	.LM1075:
 11549 4270 CE01      		movw r24,r28
 11550               	.LVL985:
 11551 4272 0196      		adiw r24,1
 11552 4274 89A3      		std Y+33,r24
 11553 4276 9AA3      		std Y+34,r25
 11554               	.LM1076:
 11555 4278 69AD      		ldd r22,Y+57
 11556 427a 7AAD      		ldd r23,Y+58
 11557 427c C601      		movw r24,r12
 11558 427e 0E94 0000 		call follow_path
 11559               	.LM1077:
 11560 4282 8823      		tst r24
 11561               	.LVL986:
 11562 4284 01F0      		breq .+2
 11563 4286 00C0      		rjmp .L702
 11564               	.LM1078:
 11565 4288 EF8D      		ldd r30,Y+31
 11566 428a F8A1      		ldd r31,Y+32
 11567               	.LVL987:
 11568               	.LM1079:
 11569 428c 3097      		sbiw r30,0
 11570 428e 01F4      		brne .L703
 11571 4290 86E0      		ldi r24,lo8(6)
 11572 4292 00C0      		rjmp .L702
 11573               	.L703:
 11574               	.LM1080:
 11575 4294 8385      		ldd r24,Z+11
 11576               	.LVL988:
 11577 4296 482F      		mov r20,r24
 11578 4298 80FD      		sbrc r24,0
 11579 429a 00C0      		rjmp .L704
 11580               	.LM1081:
 11581 429c 9589      		ldd r25,Z+21
 11582 429e 80E0      		ldi r24,lo8(0)
 11583 42a0 2489      		ldd r18,Z+20
 11584 42a2 30E0      		ldi r19,lo8(0)
 11585 42a4 822B      		or r24,r18
 11586 42a6 932B      		or r25,r19
 11587 42a8 A0E0      		ldi r26,lo8(0)
 11588 42aa B0E0      		ldi r27,hi8(0)
 11589 42ac 8C01      		movw r16,r24
 11590 42ae FF24      		clr r15
 11591 42b0 EE24      		clr r14
 11592               	.LVL989:
 11593 42b2 938D      		ldd r25,Z+27
 11594 42b4 80E0      		ldi r24,lo8(0)
 11595 42b6 228D      		ldd r18,Z+26
 11596 42b8 30E0      		ldi r19,lo8(0)
 11597 42ba 822B      		or r24,r18
 11598 42bc 932B      		or r25,r19
 11599 42be A0E0      		ldi r26,lo8(0)
 11600 42c0 B0E0      		ldi r27,hi8(0)
 11601 42c2 E82A      		or r14,r24
 11602 42c4 F92A      		or r15,r25
 11603 42c6 0A2B      		or r16,r26
 11604 42c8 1B2B      		or r17,r27
 11605               	.LM1082:
 11606 42ca 44FF      		sbrs r20,4
 11607 42cc 00C0      		rjmp .L705
 11608               	.LM1083:
 11609 42ce 82E0      		ldi r24,lo8(2)
 11610 42d0 E816      		cp r14,r24
 11611 42d2 F104      		cpc r15,__zero_reg__
 11612 42d4 0105      		cpc r16,__zero_reg__
 11613 42d6 1105      		cpc r17,__zero_reg__
 11614 42d8 00F4      		brsh .L706
 11615 42da 82E0      		ldi r24,lo8(2)
 11616               	.LVL990:
 11617 42dc 00C0      		rjmp .L702
 11618               	.LVL991:
 11619               	.L706:
 11620               	.LBB630:
 11621               	.LBB631:
 11622               	.LM1084:
 11623 42de DE01      		movw r26,r28
 11624               	.LVL992:
 11625 42e0 9396      		adiw r26,35
 11626               	.LM1085:
 11627 42e2 F601      		movw r30,r12
 11628               	.LVL993:
 11629               	.LM1086:
 11630 42e4 9D01      		movw r18,r26
 11631 42e6 00C0      		rjmp .L707
 11632               	.L708:
 11633 42e8 8191      		ld r24,Z+
 11634 42ea 8D93      		st X+,r24
 11635               	.L707:
 11636 42ec E217      		cp r30,r18
 11637 42ee F307      		cpc r31,r19
 11638 42f0 01F4      		brne .L708
 11639               	.LBE631:
 11640               	.LBE630:
 11641               	.LM1087:
 11642 42f2 E9A6      		std Y+41,r14
 11643 42f4 FAA6      		std Y+42,r15
 11644 42f6 0BA7      		std Y+43,r16
 11645 42f8 1CA7      		std Y+44,r17
 11646               	.LM1088:
 11647 42fa 23E2      		ldi r18,lo8(35)
 11648 42fc C22E      		mov r12,r18
 11649 42fe D12C      		mov r13,__zero_reg__
 11650 4300 CC0E      		add r12,r28
 11651 4302 DD1E      		adc r13,r29
 11652 4304 C601      		movw r24,r12
 11653 4306 62E0      		ldi r22,lo8(2)
 11654 4308 70E0      		ldi r23,hi8(2)
 11655 430a 0E94 0000 		call dir_seek
 11656               	.LVL994:
 11657               	.LM1089:
 11658 430e 8823      		tst r24
 11659               	.LVL995:
 11660 4310 01F4      		brne .L702
 11661               	.LM1090:
 11662 4312 C601      		movw r24,r12
 11663               	.LVL996:
 11664 4314 0E94 0000 		call dir_read
 11665               	.LM1091:
 11666 4318 8823      		tst r24
 11667               	.LVL997:
 11668 431a 01F0      		breq .L704
 11669               	.LM1092:
 11670 431c 8430      		cpi r24,lo8(4)
 11671 431e 01F4      		brne .L702
 11672               	.LVL998:
 11673               	.L705:
 11674               	.LM1093:
 11675 4320 CE01      		movw r24,r28
 11676               	.LVL999:
 11677 4322 0D96      		adiw r24,13
 11678 4324 0E94 0000 		call dir_remove
 11679               	.LVL1000:
 11680               	.LM1094:
 11681 4328 8823      		tst r24
 11682               	.LVL1001:
 11683 432a 01F4      		brne .L702
 11684               	.LM1095:
 11685 432c E114      		cp r14,__zero_reg__
 11686 432e F104      		cpc r15,__zero_reg__
 11687 4330 0105      		cpc r16,__zero_reg__
 11688 4332 1105      		cpc r17,__zero_reg__
 11689 4334 01F0      		breq .L709
 11690               	.LM1096:
 11691 4336 8D85      		ldd r24,Y+13
 11692 4338 9E85      		ldd r25,Y+14
 11693               	.LVL1002:
 11694 433a B801      		movw r22,r16
 11695 433c A701      		movw r20,r14
 11696 433e 0E94 0000 		call remove_chain
 11697               	.LM1097:
 11698 4342 8823      		tst r24
 11699               	.LVL1003:
 11700 4344 01F4      		brne .L702
 11701               	.L709:
 11702 4346 8D85      		ldd r24,Y+13
 11703 4348 9E85      		ldd r25,Y+14
 11704               	.LVL1004:
 11705 434a 0E94 0000 		call sync
 11706 434e 00C0      		rjmp .L702
 11707               	.LVL1005:
 11708               	.L704:
 11709 4350 87E0      		ldi r24,lo8(7)
 11710               	.L702:
 11711               	.LVL1006:
 11712               	/* epilogue start */
 11713               	.LM1098:
 11714 4352 EA96      		adiw r28,58
 11715 4354 CDBF      		out __SP_L__,r28
 11716 4356 DEBF      		out __SP_H__,r29
 11717 4358 CF91      		pop r28
 11718 435a DF91      		pop r29
 11719 435c 1F91      		pop r17
 11720 435e 0F91      		pop r16
 11721 4360 FF90      		pop r15
 11722 4362 EF90      		pop r14
 11723               	.LVL1007:
 11724 4364 DF90      		pop r13
 11725 4366 CF90      		pop r12
 11726 4368 0895      		ret
 11727               	.LFE78:
 11729               	.global	f_mkdir
 11731               	f_mkdir:
 11732               	.LFB79:
 11733               	.LM1099:
 11734               	.LVL1008:
 11735 436a 2F92      		push r2
 11736 436c 3F92      		push r3
 11737 436e 4F92      		push r4
 11738 4370 5F92      		push r5
 11739 4372 6F92      		push r6
 11740 4374 7F92      		push r7
 11741 4376 8F92      		push r8
 11742 4378 9F92      		push r9
 11743 437a AF92      		push r10
 11744 437c BF92      		push r11
 11745 437e CF92      		push r12
 11746 4380 DF92      		push r13
 11747 4382 EF92      		push r14
 11748 4384 FF92      		push r15
 11749 4386 0F93      		push r16
 11750 4388 1F93      		push r17
 11751 438a DF93      		push r29
 11752 438c CF93      		push r28
 11753 438e CDB7      		in r28,__SP_L__
 11754 4390 DEB7      		in r29,__SP_H__
 11755 4392 AC97      		sbiw r28,44
 11756 4394 CDBF      		out __SP_L__,r28
 11757 4396 DEBF      		out __SP_H__,r29
 11758               	/* prologue: function */
 11759               	/* frame size = 44 */
 11760 4398 8BA3      		std Y+35,r24
 11761 439a 9CA3      		std Y+36,r25
 11762               	.LM1100:
 11763 439c 7DE0      		ldi r23,lo8(13)
 11764 439e E72E      		mov r14,r23
 11765 43a0 F12C      		mov r15,__zero_reg__
 11766 43a2 EC0E      		add r14,r28
 11767 43a4 FD1E      		adc r15,r29
 11768 43a6 CE01      		movw r24,r28
 11769               	.LVL1009:
 11770 43a8 8396      		adiw r24,35
 11771 43aa B701      		movw r22,r14
 11772 43ac 41E0      		ldi r20,lo8(1)
 11773 43ae 0E94 0000 		call chk_mounted
 11774 43b2 182F      		mov r17,r24
 11775               	.LVL1010:
 11776               	.LM1101:
 11777 43b4 8823      		tst r24
 11778 43b6 01F0      		breq .+2
 11779 43b8 00C0      		rjmp .L712
 11780               	.LVL1011:
 11781               	.LM1102:
 11782 43ba CE01      		movw r24,r28
 11783               	.LVL1012:
 11784 43bc 0196      		adiw r24,1
 11785 43be 89A3      		std Y+33,r24
 11786 43c0 9AA3      		std Y+34,r25
 11787               	.LM1103:
 11788 43c2 6BA1      		ldd r22,Y+35
 11789 43c4 7CA1      		ldd r23,Y+36
 11790 43c6 C701      		movw r24,r14
 11791 43c8 0E94 0000 		call follow_path
 11792 43cc 182F      		mov r17,r24
 11793               	.LM1104:
 11794 43ce 8823      		tst r24
 11795 43d0 01F4      		brne .L713
 11796               	.LVL1013:
 11797 43d2 18E0      		ldi r17,lo8(8)
 11798               	.LVL1014:
 11799 43d4 00C0      		rjmp .L712
 11800               	.LVL1015:
 11801               	.L713:
 11802               	.LM1105:
 11803 43d6 8430      		cpi r24,lo8(4)
 11804 43d8 01F0      		breq .+2
 11805 43da 00C0      		rjmp .L712
 11806               	.LM1106:
 11807 43dc 8D85      		ldd r24,Y+13
 11808 43de 9E85      		ldd r25,Y+14
 11809               	.LVL1016:
 11810 43e0 40E0      		ldi r20,lo8(0)
 11811 43e2 50E0      		ldi r21,hi8(0)
 11812 43e4 60E0      		ldi r22,hlo8(0)
 11813 43e6 70E0      		ldi r23,hhi8(0)
 11814 43e8 0E94 0000 		call create_chain
 11815 43ec 4B01      		movw r8,r22
 11816 43ee 5C01      		movw r10,r24
 11817               	.LVL1017:
 11818               	.LM1107:
 11819 43f0 6115      		cp r22,__zero_reg__
 11820 43f2 7105      		cpc r23,__zero_reg__
 11821 43f4 8105      		cpc r24,__zero_reg__
 11822 43f6 9105      		cpc r25,__zero_reg__
 11823 43f8 01F4      		brne .L714
 11824               	.LVL1018:
 11825 43fa 17E0      		ldi r17,lo8(7)
 11826 43fc 00C0      		rjmp .L712
 11827               	.L714:
 11828               	.LM1108:
 11829 43fe 6130      		cpi r22,lo8(1)
 11830 4400 7105      		cpc r23,__zero_reg__
 11831 4402 8105      		cpc r24,__zero_reg__
 11832 4404 9105      		cpc r25,__zero_reg__
 11833 4406 01F4      		brne .L715
 11834 4408 12E0      		ldi r17,lo8(2)
 11835 440a 00C0      		rjmp .L712
 11836               	.L715:
 11837               	.LM1109:
 11838 440c 6F3F      		cpi r22,lo8(-1)
 11839 440e 3FEF      		ldi r19,hi8(-1)
 11840 4410 7307      		cpc r23,r19
 11841 4412 3FEF      		ldi r19,hlo8(-1)
 11842 4414 8307      		cpc r24,r19
 11843 4416 3FEF      		ldi r19,hhi8(-1)
 11844 4418 9307      		cpc r25,r19
 11845 441a 01F4      		brne .+2
 11846 441c 00C0      		rjmp .L716
 11847               	.LM1110:
 11848 441e 8D85      		ldd r24,Y+13
 11849 4420 9E85      		ldd r25,Y+14
 11850 4422 40E0      		ldi r20,lo8(0)
 11851 4424 50E0      		ldi r21,hi8(0)
 11852 4426 60E0      		ldi r22,hlo8(0)
 11853 4428 70E0      		ldi r23,hhi8(0)
 11854 442a 0E94 0000 		call move_window
 11855               	.LVL1019:
 11856 442e 182F      		mov r17,r24
 11857               	.LM1111:
 11858 4430 8823      		tst r24
 11859 4432 01F0      		breq .+2
 11860 4434 00C0      		rjmp .L712
 11861               	.LVL1020:
 11862               	.LM1112:
 11863 4436 0D85      		ldd r16,Y+13
 11864 4438 1E85      		ldd r17,Y+14
 11865               	.LBB632:
 11866               	.LBB633:
 11867               	.LM1113:
 11868 443a 6EEF      		ldi r22,lo8(-2)
 11869 443c C62E      		mov r12,r22
 11870 443e 6FEF      		ldi r22,hi8(-2)
 11871 4440 D62E      		mov r13,r22
 11872 4442 6FEF      		ldi r22,hlo8(-2)
 11873 4444 E62E      		mov r14,r22
 11874 4446 6FEF      		ldi r22,hhi8(-2)
 11875 4448 F62E      		mov r15,r22
 11876               	.LVL1021:
 11877 444a C80C      		add r12,r8
 11878 444c D91C      		adc r13,r9
 11879 444e EA1C      		adc r14,r10
 11880 4450 FB1C      		adc r15,r11
 11881               	.LM1114:
 11882 4452 F801      		movw r30,r16
 11883 4454 828D      		ldd r24,Z+26
 11884 4456 938D      		ldd r25,Z+27
 11885 4458 A48D      		ldd r26,Z+28
 11886 445a B58D      		ldd r27,Z+29
 11887               	.LVL1022:
 11888 445c 0297      		sbiw r24,2
 11889 445e A109      		sbc r26,__zero_reg__
 11890 4460 B109      		sbc r27,__zero_reg__
 11891 4462 C816      		cp r12,r24
 11892 4464 D906      		cpc r13,r25
 11893 4466 EA06      		cpc r14,r26
 11894 4468 FB06      		cpc r15,r27
 11895 446a 00F0      		brlo .L717
 11896 446c 4424      		clr r4
 11897 446e 5524      		clr r5
 11898 4470 3201      		movw r6,r4
 11899               	.LVL1023:
 11900 4472 00C0      		rjmp .L718
 11901               	.LVL1024:
 11902               	.L717:
 11903               	.LM1115:
 11904 4474 F801      		movw r30,r16
 11905 4476 2281      		ldd r18,Z+2
 11906 4478 30E0      		ldi r19,lo8(0)
 11907 447a 40E0      		ldi r20,lo8(0)
 11908 447c 50E0      		ldi r21,hi8(0)
 11909 447e C701      		movw r24,r14
 11910 4480 B601      		movw r22,r12
 11911 4482 0E94 0000 		call __mulsi3
 11912 4486 2B01      		movw r4,r22
 11913 4488 3C01      		movw r6,r24
 11914               	.LVL1025:
 11915 448a F801      		movw r30,r16
 11916 448c 86A1      		ldd r24,Z+38
 11917 448e 97A1      		ldd r25,Z+39
 11918 4490 A0A5      		ldd r26,Z+40
 11919 4492 B1A5      		ldd r27,Z+41
 11920 4494 480E      		add r4,r24
 11921 4496 591E      		adc r5,r25
 11922 4498 6A1E      		adc r6,r26
 11923 449a 7B1E      		adc r7,r27
 11924               	.L718:
 11925               	.LBE633:
 11926               	.LBE632:
 11927               	.LM1116:
 11928 449c 5EE2      		ldi r21,lo8(46)
 11929 449e 252E      		mov r2,r21
 11930 44a0 312C      		mov r3,__zero_reg__
 11931               	.LVL1026:
 11932 44a2 200E      		add r2,r16
 11933 44a4 311E      		adc r3,r17
 11934 44a6 F101      		movw r30,r2
 11935 44a8 80E0      		ldi r24,lo8(512)
 11936 44aa 92E0      		ldi r25,hi8(512)
 11937               	.LVL1027:
 11938 44ac 00C0      		rjmp .L719
 11939               	.LVL1028:
 11940               	.L720:
 11941               	.LBB634:
 11942               	.LBB635:
 11943               	.LM1117:
 11944 44ae 1192      		st Z+,__zero_reg__
 11945               	.L719:
 11946 44b0 0197      		sbiw r24,1
 11947 44b2 2FEF      		ldi r18,hi8(-1)
 11948 44b4 8F3F      		cpi r24,lo8(-1)
 11949 44b6 9207      		cpc r25,r18
 11950 44b8 01F4      		brne .L720
 11951 44ba F101      		movw r30,r2
 11952 44bc 8BE0      		ldi r24,lo8(11)
 11953 44be 90E0      		ldi r25,hi8(11)
 11954               	.LVL1029:
 11955               	.LBE635:
 11956               	.LBE634:
 11957               	.LBB636:
 11958               	.LBB637:
 11959 44c0 20E2      		ldi r18,lo8(32)
 11960 44c2 00C0      		rjmp .L721
 11961               	.L722:
 11962 44c4 2193      		st Z+,r18
 11963               	.L721:
 11964 44c6 0197      		sbiw r24,1
 11965 44c8 3FEF      		ldi r19,hi8(-1)
 11966 44ca 8F3F      		cpi r24,lo8(-1)
 11967 44cc 9307      		cpc r25,r19
 11968 44ce 01F4      		brne .L722
 11969               	.LBE637:
 11970               	.LBE636:
 11971               	.LM1118:
 11972 44d0 8EE2      		ldi r24,lo8(46)
 11973               	.LVL1030:
 11974 44d2 F801      		movw r30,r16
 11975               	.LVL1031:
 11976 44d4 86A7      		std Z+46,r24
 11977               	.LM1119:
 11978 44d6 80E1      		ldi r24,lo8(16)
 11979 44d8 81AF      		std Z+57,r24
 11980               	.LM1120:
 11981 44da 0E94 0000 		call get_fattime
 11982               	.LM1121:
 11983 44de 6CA7      		std Y+44,r22
 11984               	.LVL1032:
 11985 44e0 0C5B      		subi r16,lo8(-(68))
 11986 44e2 1F4F      		sbci r17,hi8(-(68))
 11987 44e4 F801      		movw r30,r16
 11988 44e6 6193      		st Z+,r22
 11989 44e8 272F      		mov r18,r23
 11990 44ea 3327      		clr r19
 11991 44ec 2BA7      		std Y+43,r18
 11992 44ee 2193      		st Z+,r18
 11993 44f0 9C01      		movw r18,r24
 11994 44f2 4427      		clr r20
 11995 44f4 5527      		clr r21
 11996 44f6 2AA7      		std Y+42,r18
 11997 44f8 2193      		st Z+,r18
 11998 44fa 692F      		mov r22,r25
 11999 44fc 7727      		clr r23
 12000 44fe 8827      		clr r24
 12001 4500 9927      		clr r25
 12002               	.LVL1033:
 12003 4502 69A7      		std Y+41,r22
 12004 4504 6193      		st Z+,r22
 12005               	.LM1122:
 12006 4506 88A6      		std Y+40,r8
 12007 4508 8192      		st Z+,r8
 12008 450a 8F01      		movw r16,r30
 12009 450c 892D      		mov r24,r9
 12010 450e 9927      		clr r25
 12011 4510 8FA3      		std Y+39,r24
 12012 4512 8083      		st Z,r24
 12013               	.LM1123:
 12014 4514 C501      		movw r24,r10
 12015 4516 AA27      		clr r26
 12016 4518 BB27      		clr r27
 12017 451a 8EA3      		std Y+38,r24
 12018 451c 0750      		subi r16,lo8(-(-7))
 12019 451e 1040      		sbci r17,hi8(-(-7))
 12020 4520 F801      		movw r30,r16
 12021 4522 8193      		st Z+,r24
 12022 4524 8F01      		movw r16,r30
 12023 4526 892F      		mov r24,r25
 12024 4528 9927      		clr r25
 12025 452a 8DA3      		std Y+37,r24
 12026 452c 8083      		st Z,r24
 12027 452e 0354      		subi r16,lo8(-(-67))
 12028 4530 1040      		sbci r17,hi8(-(-67))
 12029 4532 F101      		movw r30,r2
 12030               	.LVL1034:
 12031 4534 20E2      		ldi r18,lo8(32)
 12032 4536 30E0      		ldi r19,hi8(32)
 12033               	.LVL1035:
 12034 4538 00C0      		rjmp .L723
 12035               	.L724:
 12036               	.LBB638:
 12037               	.LBB639:
 12038               	.LM1124:
 12039 453a 8081      		ld r24,Z
 12040 453c 80A3      		std Z+32,r24
 12041 453e 3196      		adiw r30,1
 12042               	.L723:
 12043 4540 2150      		subi r18,lo8(-(-1))
 12044 4542 3040      		sbci r19,hi8(-(-1))
 12045 4544 8FEF      		ldi r24,hi8(-1)
 12046 4546 2F3F      		cpi r18,lo8(-1)
 12047 4548 3807      		cpc r19,r24
 12048 454a 01F4      		brne .L724
 12049               	.LBE639:
 12050               	.LBE638:
 12051               	.LM1125:
 12052 454c 015B      		subi r16,lo8(-(79))
 12053 454e 1F4F      		sbci r17,hi8(-(79))
 12054 4550 8EE2      		ldi r24,lo8(46)
 12055 4552 F801      		movw r30,r16
 12056               	.LVL1036:
 12057 4554 8083      		st Z,r24
 12058 4556 0F54      		subi r16,lo8(-(-79))
 12059 4558 1040      		sbci r17,hi8(-(-79))
 12060               	.LM1126:
 12061 455a 2B89      		ldd r18,Y+19
 12062 455c 3C89      		ldd r19,Y+20
 12063 455e 4D89      		ldd r20,Y+21
 12064 4560 5E89      		ldd r21,Y+22
 12065               	.LVL1037:
 12066               	.LM1127:
 12067 4562 ED85      		ldd r30,Y+13
 12068 4564 FE85      		ldd r31,Y+14
 12069 4566 8081      		ld r24,Z
 12070 4568 8330      		cpi r24,lo8(3)
 12071 456a 01F4      		brne .L725
 12072 456c 82A1      		ldd r24,Z+34
 12073 456e 93A1      		ldd r25,Z+35
 12074 4570 A4A1      		ldd r26,Z+36
 12075 4572 B5A1      		ldd r27,Z+37
 12076 4574 2817      		cp r18,r24
 12077 4576 3907      		cpc r19,r25
 12078 4578 4A07      		cpc r20,r26
 12079 457a 5B07      		cpc r21,r27
 12080 457c 01F4      		brne .L725
 12081 457e 20E0      		ldi r18,lo8(0)
 12082 4580 30E0      		ldi r19,hi8(0)
 12083 4582 40E0      		ldi r20,hlo8(0)
 12084 4584 50E0      		ldi r21,hhi8(0)
 12085               	.L725:
 12086               	.LM1128:
 12087 4586 0859      		subi r16,lo8(-(104))
 12088 4588 1F4F      		sbci r17,hi8(-(104))
 12089 458a F801      		movw r30,r16
 12090 458c 2193      		st Z+,r18
 12091 458e 8F01      		movw r16,r30
 12092 4590 832F      		mov r24,r19
 12093 4592 9927      		clr r25
 12094 4594 8083      		st Z,r24
 12095               	.LM1129:
 12096 4596 CA01      		movw r24,r20
 12097 4598 AA27      		clr r26
 12098 459a BB27      		clr r27
 12099 459c 0750      		subi r16,lo8(-(-7))
 12100 459e 1040      		sbci r17,hi8(-(-7))
 12101 45a0 F801      		movw r30,r16
 12102 45a2 8193      		st Z+,r24
 12103 45a4 892F      		mov r24,r25
 12104 45a6 9927      		clr r25
 12105 45a8 8083      		st Z,r24
 12106 45aa 7301      		movw r14,r6
 12107 45ac 6201      		movw r12,r4
 12108               	.LVL1038:
 12109               	.LM1130:
 12110 45ae 01E0      		ldi r16,lo8(1)
 12111 45b0 00C0      		rjmp .L726
 12112               	.LVL1039:
 12113               	.L729:
 12114               	.LM1131:
 12115 45b2 C2A6      		std Z+42,r12
 12116 45b4 D3A6      		std Z+43,r13
 12117 45b6 E4A6      		std Z+44,r14
 12118 45b8 F5A6      		std Z+45,r15
 12119               	.LM1132:
 12120 45ba 0483      		std Z+4,r16
 12121               	.LM1133:
 12122 45bc CF01      		movw r24,r30
 12123 45be 40E0      		ldi r20,lo8(0)
 12124 45c0 50E0      		ldi r21,hi8(0)
 12125 45c2 60E0      		ldi r22,hlo8(0)
 12126 45c4 70E0      		ldi r23,hhi8(0)
 12127 45c6 0E94 0000 		call move_window
 12128               	.LVL1040:
 12129 45ca 182F      		mov r17,r24
 12130               	.LM1134:
 12131 45cc 8823      		tst r24
 12132 45ce 01F0      		breq .+2
 12133 45d0 00C0      		rjmp .L712
 12134               	.LVL1041:
 12135 45d2 F101      		movw r30,r2
 12136 45d4 80E0      		ldi r24,lo8(512)
 12137 45d6 92E0      		ldi r25,hi8(512)
 12138               	.LVL1042:
 12139 45d8 00C0      		rjmp .L727
 12140               	.LVL1043:
 12141               	.L728:
 12142               	.LBB640:
 12143               	.LBB641:
 12144               	.LM1135:
 12145 45da 1192      		st Z+,__zero_reg__
 12146               	.L727:
 12147 45dc 0197      		sbiw r24,1
 12148 45de 2FEF      		ldi r18,hi8(-1)
 12149 45e0 8F3F      		cpi r24,lo8(-1)
 12150 45e2 9207      		cpc r25,r18
 12151 45e4 01F4      		brne .L728
 12152               	.LBE641:
 12153               	.LBE640:
 12154               	.LM1136:
 12155 45e6 0894      		sec
 12156 45e8 C11C      		adc r12,__zero_reg__
 12157 45ea D11C      		adc r13,__zero_reg__
 12158 45ec E11C      		adc r14,__zero_reg__
 12159 45ee F11C      		adc r15,__zero_reg__
 12160               	.LVL1044:
 12161               	.L726:
 12162               	.LM1137:
 12163 45f0 ED85      		ldd r30,Y+13
 12164 45f2 FE85      		ldd r31,Y+14
 12165 45f4 9C2D      		mov r25,r12
 12166               	.LVL1045:
 12167 45f6 9419      		sub r25,r4
 12168 45f8 8281      		ldd r24,Z+2
 12169               	.LVL1046:
 12170 45fa 9817      		cp r25,r24
 12171 45fc 00F0      		brlo .L729
 12172               	.LM1138:
 12173 45fe CE01      		movw r24,r28
 12174 4600 0D96      		adiw r24,13
 12175 4602 0E94 0000 		call dir_register
 12176               	.LVL1047:
 12177 4606 182F      		mov r17,r24
 12178               	.LM1139:
 12179 4608 8823      		tst r24
 12180 460a 01F0      		breq .L730
 12181               	.LVL1048:
 12182               	.LM1140:
 12183 460c 8D85      		ldd r24,Y+13
 12184 460e 9E85      		ldd r25,Y+14
 12185               	.LVL1049:
 12186 4610 B501      		movw r22,r10
 12187 4612 A401      		movw r20,r8
 12188 4614 0E94 0000 		call remove_chain
 12189 4618 00C0      		rjmp .L712
 12190               	.LVL1050:
 12191               	.L730:
 12192               	.LM1141:
 12193 461a EF8D      		ldd r30,Y+31
 12194 461c F8A1      		ldd r31,Y+32
 12195               	.LVL1051:
 12196               	.LM1142:
 12197 461e 80E1      		ldi r24,lo8(16)
 12198               	.LVL1052:
 12199 4620 8387      		std Z+11,r24
 12200               	.LM1143:
 12201 4622 3CA5      		ldd r19,Y+44
 12202 4624 368B      		std Z+22,r19
 12203 4626 8BA5      		ldd r24,Y+43
 12204 4628 878B      		std Z+23,r24
 12205 462a 2AA5      		ldd r18,Y+42
 12206 462c 208F      		std Z+24,r18
 12207 462e 39A5      		ldd r19,Y+41
 12208 4630 318F      		std Z+25,r19
 12209               	.LM1144:
 12210 4632 88A5      		ldd r24,Y+40
 12211 4634 828F      		std Z+26,r24
 12212 4636 2FA1      		ldd r18,Y+39
 12213 4638 238F      		std Z+27,r18
 12214               	.LM1145:
 12215 463a 3EA1      		ldd r19,Y+38
 12216 463c 348B      		std Z+20,r19
 12217 463e 8DA1      		ldd r24,Y+37
 12218 4640 858B      		std Z+21,r24
 12219               	.LM1146:
 12220 4642 ED85      		ldd r30,Y+13
 12221 4644 FE85      		ldd r31,Y+14
 12222               	.LVL1053:
 12223 4646 81E0      		ldi r24,lo8(1)
 12224 4648 8483      		std Z+4,r24
 12225               	.LM1147:
 12226 464a CF01      		movw r24,r30
 12227 464c 0E94 0000 		call sync
 12228 4650 182F      		mov r17,r24
 12229               	.LVL1054:
 12230               	.L712:
 12231               	.LM1148:
 12232 4652 812F      		mov r24,r17
 12233               	/* epilogue start */
 12234 4654 AC96      		adiw r28,44
 12235 4656 CDBF      		out __SP_L__,r28
 12236 4658 DEBF      		out __SP_H__,r29
 12237 465a CF91      		pop r28
 12238 465c DF91      		pop r29
 12239 465e 1F91      		pop r17
 12240               	.LVL1055:
 12241 4660 0F91      		pop r16
 12242 4662 FF90      		pop r15
 12243 4664 EF90      		pop r14
 12244 4666 DF90      		pop r13
 12245 4668 CF90      		pop r12
 12246 466a BF90      		pop r11
 12247 466c AF90      		pop r10
 12248 466e 9F90      		pop r9
 12249 4670 8F90      		pop r8
 12250               	.LVL1056:
 12251 4672 7F90      		pop r7
 12252 4674 6F90      		pop r6
 12253 4676 5F90      		pop r5
 12254 4678 4F90      		pop r4
 12255               	.LVL1057:
 12256 467a 3F90      		pop r3
 12257 467c 2F90      		pop r2
 12258               	.LVL1058:
 12259 467e 0895      		ret
 12260               	.LVL1059:
 12261               	.L716:
 12262               	.LM1149:
 12263 4680 11E0      		ldi r17,lo8(1)
 12264 4682 00C0      		rjmp .L712
 12265               	.LFE79:
 12267               	.global	f_chmod
 12269               	f_chmod:
 12270               	.LFB80:
 12271               	.LM1150:
 12272               	.LVL1060:
 12273 4684 EF92      		push r14
 12274 4686 FF92      		push r15
 12275 4688 0F93      		push r16
 12276 468a 1F93      		push r17
 12277 468c DF93      		push r29
 12278 468e CF93      		push r28
 12279 4690 CDB7      		in r28,__SP_L__
 12280 4692 DEB7      		in r29,__SP_H__
 12281 4694 A497      		sbiw r28,36
 12282 4696 CDBF      		out __SP_L__,r28
 12283 4698 DEBF      		out __SP_H__,r29
 12284               	/* prologue: function */
 12285               	/* frame size = 36 */
 12286 469a 8BA3      		std Y+35,r24
 12287 469c 9CA3      		std Y+36,r25
 12288 469e E62E      		mov r14,r22
 12289 46a0 F42E      		mov r15,r20
 12290               	.LM1151:
 12291 46a2 8E01      		movw r16,r28
 12292 46a4 035F      		subi r16,lo8(-(13))
 12293 46a6 1F4F      		sbci r17,hi8(-(13))
 12294 46a8 CE01      		movw r24,r28
 12295               	.LVL1061:
 12296 46aa 8396      		adiw r24,35
 12297 46ac B801      		movw r22,r16
 12298               	.LVL1062:
 12299 46ae 41E0      		ldi r20,lo8(1)
 12300               	.LVL1063:
 12301 46b0 0E94 0000 		call chk_mounted
 12302               	.LM1152:
 12303 46b4 8823      		tst r24
 12304               	.LVL1064:
 12305 46b6 01F4      		brne .L733
 12306               	.LM1153:
 12307 46b8 CE01      		movw r24,r28
 12308               	.LVL1065:
 12309 46ba 0196      		adiw r24,1
 12310 46bc 89A3      		std Y+33,r24
 12311 46be 9AA3      		std Y+34,r25
 12312               	.LM1154:
 12313 46c0 6BA1      		ldd r22,Y+35
 12314 46c2 7CA1      		ldd r23,Y+36
 12315 46c4 C801      		movw r24,r16
 12316 46c6 0E94 0000 		call follow_path
 12317               	.LM1155:
 12318 46ca 8823      		tst r24
 12319               	.LVL1066:
 12320 46cc 01F4      		brne .L733
 12321               	.LM1156:
 12322 46ce EF8D      		ldd r30,Y+31
 12323 46d0 F8A1      		ldd r31,Y+32
 12324               	.LVL1067:
 12325               	.LM1157:
 12326 46d2 3097      		sbiw r30,0
 12327 46d4 01F4      		brne .L734
 12328 46d6 86E0      		ldi r24,lo8(6)
 12329 46d8 00C0      		rjmp .L733
 12330               	.L734:
 12331               	.LM1158:
 12332 46da 9F2D      		mov r25,r15
 12333 46dc 9772      		andi r25,lo8(39)
 12334               	.LVL1068:
 12335               	.LM1159:
 12336 46de 892F      		mov r24,r25
 12337               	.LVL1069:
 12338 46e0 8095      		com r24
 12339 46e2 2385      		ldd r18,Z+11
 12340 46e4 8223      		and r24,r18
 12341 46e6 9E21      		and r25,r14
 12342 46e8 892B      		or r24,r25
 12343 46ea 8387      		std Z+11,r24
 12344               	.LM1160:
 12345 46ec ED85      		ldd r30,Y+13
 12346 46ee FE85      		ldd r31,Y+14
 12347               	.LVL1070:
 12348 46f0 81E0      		ldi r24,lo8(1)
 12349 46f2 8483      		std Z+4,r24
 12350               	.LM1161:
 12351 46f4 CF01      		movw r24,r30
 12352 46f6 0E94 0000 		call sync
 12353               	.LVL1071:
 12354               	.L733:
 12355               	.LVL1072:
 12356               	/* epilogue start */
 12357               	.LM1162:
 12358 46fa A496      		adiw r28,36
 12359 46fc CDBF      		out __SP_L__,r28
 12360 46fe DEBF      		out __SP_H__,r29
 12361 4700 CF91      		pop r28
 12362 4702 DF91      		pop r29
 12363 4704 1F91      		pop r17
 12364 4706 0F91      		pop r16
 12365 4708 FF90      		pop r15
 12366               	.LVL1073:
 12367 470a EF90      		pop r14
 12368               	.LVL1074:
 12369 470c 0895      		ret
 12370               	.LFE80:
 12372               	.global	f_utime
 12374               	f_utime:
 12375               	.LFB81:
 12376               	.LM1163:
 12377               	.LVL1075:
 12378 470e EF92      		push r14
 12379 4710 FF92      		push r15
 12380 4712 0F93      		push r16
 12381 4714 1F93      		push r17
 12382 4716 DF93      		push r29
 12383 4718 CF93      		push r28
 12384 471a CDB7      		in r28,__SP_L__
 12385 471c DEB7      		in r29,__SP_H__
 12386 471e A497      		sbiw r28,36
 12387 4720 CDBF      		out __SP_L__,r28
 12388 4722 DEBF      		out __SP_H__,r29
 12389               	/* prologue: function */
 12390               	/* frame size = 36 */
 12391 4724 8BA3      		std Y+35,r24
 12392 4726 9CA3      		std Y+36,r25
 12393 4728 8B01      		movw r16,r22
 12394               	.LM1164:
 12395 472a EDE0      		ldi r30,lo8(13)
 12396 472c EE2E      		mov r14,r30
 12397 472e F12C      		mov r15,__zero_reg__
 12398 4730 EC0E      		add r14,r28
 12399 4732 FD1E      		adc r15,r29
 12400 4734 CE01      		movw r24,r28
 12401               	.LVL1076:
 12402 4736 8396      		adiw r24,35
 12403 4738 B701      		movw r22,r14
 12404               	.LVL1077:
 12405 473a 41E0      		ldi r20,lo8(1)
 12406 473c 0E94 0000 		call chk_mounted
 12407               	.LM1165:
 12408 4740 8823      		tst r24
 12409               	.LVL1078:
 12410 4742 01F4      		brne .L737
 12411               	.LM1166:
 12412 4744 CE01      		movw r24,r28
 12413               	.LVL1079:
 12414 4746 0196      		adiw r24,1
 12415 4748 89A3      		std Y+33,r24
 12416 474a 9AA3      		std Y+34,r25
 12417               	.LM1167:
 12418 474c 6BA1      		ldd r22,Y+35
 12419 474e 7CA1      		ldd r23,Y+36
 12420 4750 C701      		movw r24,r14
 12421 4752 0E94 0000 		call follow_path
 12422               	.LM1168:
 12423 4756 8823      		tst r24
 12424               	.LVL1080:
 12425 4758 01F4      		brne .L737
 12426               	.LM1169:
 12427 475a EF8D      		ldd r30,Y+31
 12428 475c F8A1      		ldd r31,Y+32
 12429               	.LVL1081:
 12430               	.LM1170:
 12431 475e 3097      		sbiw r30,0
 12432 4760 01F4      		brne .L738
 12433 4762 86E0      		ldi r24,lo8(6)
 12434 4764 00C0      		rjmp .L737
 12435               	.L738:
 12436               	.LM1171:
 12437 4766 D801      		movw r26,r16
 12438 4768 1696      		adiw r26,6
 12439 476a 8C91      		ld r24,X
 12440 476c 1697      		sbiw r26,6
 12441               	.LVL1082:
 12442 476e 868B      		std Z+22,r24
 12443 4770 1796      		adiw r26,7
 12444 4772 8C91      		ld r24,X
 12445 4774 1797      		sbiw r26,7
 12446 4776 878B      		std Z+23,r24
 12447               	.LM1172:
 12448 4778 1496      		adiw r26,4
 12449 477a 8C91      		ld r24,X
 12450 477c 1497      		sbiw r26,4
 12451 477e 808F      		std Z+24,r24
 12452 4780 1596      		adiw r26,5
 12453 4782 8C91      		ld r24,X
 12454 4784 818F      		std Z+25,r24
 12455               	.LM1173:
 12456 4786 ED85      		ldd r30,Y+13
 12457 4788 FE85      		ldd r31,Y+14
 12458               	.LVL1083:
 12459 478a 81E0      		ldi r24,lo8(1)
 12460 478c 8483      		std Z+4,r24
 12461               	.LM1174:
 12462 478e CF01      		movw r24,r30
 12463 4790 0E94 0000 		call sync
 12464               	.LVL1084:
 12465               	.L737:
 12466               	.LVL1085:
 12467               	/* epilogue start */
 12468               	.LM1175:
 12469 4794 A496      		adiw r28,36
 12470 4796 CDBF      		out __SP_L__,r28
 12471 4798 DEBF      		out __SP_H__,r29
 12472 479a CF91      		pop r28
 12473 479c DF91      		pop r29
 12474 479e 1F91      		pop r17
 12475 47a0 0F91      		pop r16
 12476               	.LVL1086:
 12477 47a2 FF90      		pop r15
 12478 47a4 EF90      		pop r14
 12479 47a6 0895      		ret
 12480               	.LFE81:
 12482               	.global	f_rename
 12484               	f_rename:
 12485               	.LFB82:
 12486               	.LM1176:
 12487               	.LVL1087:
 12488 47a8 CF92      		push r12
 12489 47aa DF92      		push r13
 12490 47ac EF92      		push r14
 12491 47ae FF92      		push r15
 12492 47b0 0F93      		push r16
 12493 47b2 1F93      		push r17
 12494 47b4 DF93      		push r29
 12495 47b6 CF93      		push r28
 12496 47b8 CDB7      		in r28,__SP_L__
 12497 47ba DEB7      		in r29,__SP_H__
 12498 47bc CF54      		subi r28,lo8(-(-79))
 12499 47be D040      		sbci r29,hi8(-(-79))
 12500 47c0 CDBF      		out __SP_L__,r28
 12501 47c2 DEBF      		out __SP_H__,r29
 12502               	/* prologue: function */
 12503               	/* frame size = 79 */
 12504 47c4 8E01      		movw r16,r28
 12505 47c6 025B      		subi r16,lo8(-(78))
 12506 47c8 1F4F      		sbci r17,hi8(-(78))
 12507 47ca D801      		movw r26,r16
 12508 47cc 8D93      		st X+,r24
 12509 47ce 9C93      		st X,r25
 12510 47d0 6B01      		movw r12,r22
 12511               	.LM1177:
 12512 47d2 CE01      		movw r24,r28
 12513               	.LVL1088:
 12514 47d4 0196      		adiw r24,1
 12515 47d6 8EAB      		std Y+54,r24
 12516 47d8 9FAB      		std Y+55,r25
 12517               	.LM1178:
 12518 47da 82E2      		ldi r24,lo8(34)
 12519 47dc E82E      		mov r14,r24
 12520 47de F12C      		mov r15,__zero_reg__
 12521 47e0 EC0E      		add r14,r28
 12522 47e2 FD1E      		adc r15,r29
 12523 47e4 C801      		movw r24,r16
 12524 47e6 B701      		movw r22,r14
 12525               	.LVL1089:
 12526 47e8 41E0      		ldi r20,lo8(1)
 12527 47ea 0E94 0000 		call chk_mounted
 12528               	.LM1179:
 12529 47ee 8823      		tst r24
 12530               	.LVL1090:
 12531 47f0 01F0      		breq .+2
 12532 47f2 00C0      		rjmp .L741
 12533               	.LM1180:
 12534 47f4 8AA1      		ldd r24,Y+34
 12535 47f6 9BA1      		ldd r25,Y+35
 12536               	.LVL1091:
 12537 47f8 88AF      		std Y+56,r24
 12538 47fa 99AF      		std Y+57,r25
 12539               	.LM1181:
 12540 47fc F801      		movw r30,r16
 12541 47fe 6081      		ld r22,Z
 12542 4800 7181      		ldd r23,Z+1
 12543 4802 C701      		movw r24,r14
 12544 4804 0E94 0000 		call follow_path
 12545               	.LM1182:
 12546 4808 8823      		tst r24
 12547               	.LVL1092:
 12548 480a 01F0      		breq .+2
 12549 480c 00C0      		rjmp .L741
 12550               	.LVL1093:
 12551               	.LM1183:
 12552 480e 8CA9      		ldd r24,Y+52
 12553 4810 9DA9      		ldd r25,Y+53
 12554               	.LVL1094:
 12555 4812 0097      		sbiw r24,0
 12556 4814 01F4      		brne .L742
 12557 4816 84E0      		ldi r24,lo8(4)
 12558               	.LVL1095:
 12559 4818 00C0      		rjmp .L741
 12560               	.LVL1096:
 12561               	.L742:
 12562 481a DC01      		movw r26,r24
 12563 481c FE01      		movw r30,r28
 12564               	.LVL1097:
 12565 481e 3D96      		adiw r30,13
 12566 4820 00C0      		rjmp .L743
 12567               	.L744:
 12568               	.LBB642:
 12569               	.LBB643:
 12570               	.LM1184:
 12571 4822 1A96      		adiw r26,10
 12572 4824 8C91      		ld r24,X
 12573 4826 1A97      		sbiw r26,10
 12574 4828 8193      		st Z+,r24
 12575               	.L743:
 12576 482a 1196      		adiw r26,1
 12577 482c EE15      		cp r30,r14
 12578 482e FF05      		cpc r31,r15
 12579 4830 01F4      		brne .L744
 12580               	.LBE643:
 12581               	.LBE642:
 12582               	.LBB644:
 12583               	.LBB645:
 12584               	.LM1185:
 12585 4832 DE01      		movw r26,r28
 12586               	.LVL1098:
 12587 4834 D896      		adiw r26,56
 12588               	.LM1186:
 12589 4836 F701      		movw r30,r14
 12590               	.LVL1099:
 12591               	.LM1187:
 12592 4838 9D01      		movw r18,r26
 12593 483a 00C0      		rjmp .L745
 12594               	.L746:
 12595 483c 8191      		ld r24,Z+
 12596 483e 8D93      		st X+,r24
 12597               	.L745:
 12598 4840 E217      		cp r30,r18
 12599 4842 F307      		cpc r31,r19
 12600 4844 01F4      		brne .L746
 12601               	.LBE645:
 12602               	.LBE644:
 12603               	.LM1188:
 12604 4846 8E01      		movw r16,r28
 12605 4848 085C      		subi r16,lo8(-(56))
 12606 484a 1F4F      		sbci r17,hi8(-(56))
 12607 484c C801      		movw r24,r16
 12608 484e B601      		movw r22,r12
 12609 4850 0E94 0000 		call follow_path
 12610               	.LVL1100:
 12611               	.LM1189:
 12612 4854 8823      		tst r24
 12613               	.LVL1101:
 12614 4856 01F4      		brne .L747
 12615 4858 88E0      		ldi r24,lo8(8)
 12616 485a 00C0      		rjmp .L741
 12617               	.L747:
 12618               	.LM1190:
 12619 485c 8430      		cpi r24,lo8(4)
 12620 485e 01F0      		breq .+2
 12621 4860 00C0      		rjmp .L741
 12622               	.LM1191:
 12623 4862 C801      		movw r24,r16
 12624               	.LVL1102:
 12625 4864 0E94 0000 		call dir_register
 12626               	.LM1192:
 12627 4868 8823      		tst r24
 12628               	.LVL1103:
 12629 486a 01F0      		breq .+2
 12630 486c 00C0      		rjmp .L741
 12631               	.LM1193:
 12632 486e FE01      		movw r30,r28
 12633 4870 E65B      		subi r30,lo8(-(74))
 12634 4872 FF4F      		sbci r31,hi8(-(74))
 12635 4874 4081      		ld r20,Z
 12636 4876 5181      		ldd r21,Z+1
 12637               	.LVL1104:
 12638 4878 DA01      		movw r26,r20
 12639 487a FE01      		movw r30,r28
 12640               	.LVL1105:
 12641 487c 3F96      		adiw r30,15
 12642 487e 00C0      		rjmp .L748
 12643               	.L749:
 12644               	.LBB646:
 12645               	.LBB647:
 12646               	.LM1194:
 12647 4880 8191      		ld r24,Z+
 12648               	.LVL1106:
 12649 4882 1C96      		adiw r26,12
 12650 4884 8C93      		st X,r24
 12651 4886 1C97      		sbiw r26,12
 12652               	.LVL1107:
 12653               	.L748:
 12654 4888 1196      		adiw r26,1
 12655 488a EE15      		cp r30,r14
 12656 488c FF05      		cpc r31,r15
 12657 488e 01F4      		brne .L749
 12658               	.LBE647:
 12659               	.LBE646:
 12660               	.LM1195:
 12661 4890 8D85      		ldd r24,Y+13
 12662               	.LVL1108:
 12663 4892 8062      		ori r24,lo8(32)
 12664 4894 DA01      		movw r26,r20
 12665 4896 1B96      		adiw r26,11
 12666 4898 8C93      		st X,r24
 12667 489a 1B97      		sbiw r26,11
 12668               	.LM1196:
 12669 489c EAA1      		ldd r30,Y+34
 12670 489e FBA1      		ldd r31,Y+35
 12671               	.LVL1109:
 12672 48a0 81E0      		ldi r24,lo8(1)
 12673 48a2 8483      		std Z+4,r24
 12674               	.LM1197:
 12675 48a4 1B96      		adiw r26,11
 12676 48a6 8C91      		ld r24,X
 12677 48a8 1B97      		sbiw r26,11
 12678 48aa 84FF      		sbrs r24,4
 12679 48ac 00C0      		rjmp .L750
 12680               	.LM1198:
 12681 48ae C8AC      		ldd r12,Y+56
 12682 48b0 D9AC      		ldd r13,Y+57
 12683               	.LVL1110:
 12684               	.LBB648:
 12685               	.LBB649:
 12686               	.LM1199:
 12687 48b2 5A96      		adiw r26,26
 12688 48b4 2C91      		ld r18,X
 12689 48b6 5A97      		sbiw r26,26
 12690 48b8 30E0      		ldi r19,lo8(0)
 12691 48ba 5496      		adiw r26,20
 12692 48bc 8C91      		ld r24,X
 12693 48be 5497      		sbiw r26,20
 12694 48c0 90E0      		ldi r25,lo8(0)
 12695 48c2 282B      		or r18,r24
 12696 48c4 392B      		or r19,r25
 12697 48c6 5596      		adiw r26,21
 12698 48c8 9C91      		ld r25,X
 12699 48ca 5597      		sbiw r26,21
 12700 48cc 80E0      		ldi r24,lo8(0)
 12701 48ce 282B      		or r18,r24
 12702 48d0 392B      		or r19,r25
 12703 48d2 5B96      		adiw r26,27
 12704 48d4 9C91      		ld r25,X
 12705 48d6 80E0      		ldi r24,lo8(0)
 12706 48d8 282B      		or r18,r24
 12707 48da 392B      		or r19,r25
 12708 48dc 7901      		movw r14,r18
 12709               	.LVL1111:
 12710 48de 00E0      		ldi r16,lo8(0)
 12711 48e0 10E0      		ldi r17,hi8(0)
 12712               	.LVL1112:
 12713 48e2 8EEF      		ldi r24,lo8(-2)
 12714 48e4 9FEF      		ldi r25,hi8(-2)
 12715 48e6 AFEF      		ldi r26,hlo8(-2)
 12716 48e8 BFEF      		ldi r27,hhi8(-2)
 12717 48ea E80E      		add r14,r24
 12718 48ec F91E      		adc r15,r25
 12719 48ee 0A1F      		adc r16,r26
 12720 48f0 1B1F      		adc r17,r27
 12721               	.LVL1113:
 12722               	.LM1200:
 12723 48f2 F601      		movw r30,r12
 12724 48f4 828D      		ldd r24,Z+26
 12725 48f6 938D      		ldd r25,Z+27
 12726 48f8 A48D      		ldd r26,Z+28
 12727 48fa B58D      		ldd r27,Z+29
 12728 48fc 0297      		sbiw r24,2
 12729 48fe A109      		sbc r26,__zero_reg__
 12730 4900 B109      		sbc r27,__zero_reg__
 12731 4902 E816      		cp r14,r24
 12732 4904 F906      		cpc r15,r25
 12733 4906 0A07      		cpc r16,r26
 12734 4908 1B07      		cpc r17,r27
 12735 490a 00F0      		brlo .+2
 12736 490c 00C0      		rjmp .L751
 12737               	.LM1201:
 12738 490e 2281      		ldd r18,Z+2
 12739 4910 30E0      		ldi r19,lo8(0)
 12740 4912 40E0      		ldi r20,lo8(0)
 12741 4914 50E0      		ldi r21,hi8(0)
 12742               	.LVL1114:
 12743 4916 C801      		movw r24,r16
 12744 4918 B701      		movw r22,r14
 12745 491a 0E94 0000 		call __mulsi3
 12746 491e AB01      		movw r20,r22
 12747 4920 BC01      		movw r22,r24
 12748               	.LVL1115:
 12749 4922 F601      		movw r30,r12
 12750 4924 86A1      		ldd r24,Z+38
 12751 4926 97A1      		ldd r25,Z+39
 12752 4928 A0A5      		ldd r26,Z+40
 12753 492a B1A5      		ldd r27,Z+41
 12754 492c 480F      		add r20,r24
 12755 492e 591F      		adc r21,r25
 12756 4930 6A1F      		adc r22,r26
 12757 4932 7B1F      		adc r23,r27
 12758               	.LBE649:
 12759               	.LBE648:
 12760               	.LM1202:
 12761 4934 4115      		cp r20,__zero_reg__
 12762 4936 5105      		cpc r21,__zero_reg__
 12763 4938 6105      		cpc r22,__zero_reg__
 12764 493a 7105      		cpc r23,__zero_reg__
 12765 493c 01F4      		brne .+2
 12766 493e 00C0      		rjmp .L751
 12767               	.LM1203:
 12768 4940 C601      		movw r24,r12
 12769 4942 0E94 0000 		call move_window
 12770               	.LVL1116:
 12771               	.LM1204:
 12772 4946 A8AD      		ldd r26,Y+56
 12773 4948 B9AD      		ldd r27,Y+57
 12774               	.LM1205:
 12775 494a 8823      		tst r24
 12776               	.LVL1117:
 12777 494c 01F0      		breq .+2
 12778 494e 00C0      		rjmp .L741
 12779               	.LM1206:
 12780 4950 BD01      		movw r22,r26
 12781               	.LVL1118:
 12782 4952 625B      		subi r22,lo8(-(78))
 12783 4954 7F4F      		sbci r23,hi8(-(78))
 12784               	.LM1207:
 12785 4956 FB01      		movw r30,r22
 12786 4958 8181      		ldd r24,Z+1
 12787               	.LVL1119:
 12788 495a 8E32      		cpi r24,lo8(46)
 12789 495c 01F4      		brne .L750
 12790               	.LM1208:
 12791 495e 8C91      		ld r24,X
 12792 4960 8330      		cpi r24,lo8(3)
 12793 4962 01F4      		brne .L752
 12794 4964 FE01      		movw r30,r28
 12795 4966 FE96      		adiw r30,62
 12796 4968 2081      		ld r18,Z
 12797 496a 3181      		ldd r19,Z+1
 12798 496c 4281      		ldd r20,Z+2
 12799 496e 5381      		ldd r21,Z+3
 12800 4970 9296      		adiw r26,34
 12801 4972 8D91      		ld r24,X+
 12802 4974 9D91      		ld r25,X+
 12803 4976 0D90      		ld __tmp_reg__,X+
 12804 4978 BC91      		ld r27,X
 12805 497a A02D      		mov r26,__tmp_reg__
 12806 497c 2817      		cp r18,r24
 12807 497e 3907      		cpc r19,r25
 12808 4980 4A07      		cpc r20,r26
 12809 4982 5B07      		cpc r21,r27
 12810 4984 01F4      		brne .L752
 12811 4986 20E0      		ldi r18,lo8(0)
 12812 4988 30E0      		ldi r19,hi8(0)
 12813 498a 40E0      		ldi r20,hlo8(0)
 12814 498c 50E0      		ldi r21,hhi8(0)
 12815               	.LVL1120:
 12816 498e 00C0      		rjmp .L753
 12817               	.LVL1121:
 12818               	.L752:
 12819 4990 FE01      		movw r30,r28
 12820 4992 FE96      		adiw r30,62
 12821 4994 2081      		ld r18,Z
 12822 4996 3181      		ldd r19,Z+1
 12823 4998 4281      		ldd r20,Z+2
 12824 499a 5381      		ldd r21,Z+3
 12825               	.LVL1122:
 12826               	.L753:
 12827               	.LM1209:
 12828 499c DB01      		movw r26,r22
 12829 499e 5A96      		adiw r26,26
 12830 49a0 2C93      		st X,r18
 12831 49a2 5A97      		sbiw r26,26
 12832 49a4 832F      		mov r24,r19
 12833 49a6 9927      		clr r25
 12834 49a8 5B96      		adiw r26,27
 12835 49aa 8C93      		st X,r24
 12836               	.LM1210:
 12837 49ac CA01      		movw r24,r20
 12838 49ae AA27      		clr r26
 12839 49b0 BB27      		clr r27
 12840 49b2 FB01      		movw r30,r22
 12841 49b4 848B      		std Z+20,r24
 12842 49b6 892F      		mov r24,r25
 12843 49b8 9927      		clr r25
 12844 49ba 858B      		std Z+21,r24
 12845               	.LM1211:
 12846 49bc E8AD      		ldd r30,Y+56
 12847 49be F9AD      		ldd r31,Y+57
 12848 49c0 81E0      		ldi r24,lo8(1)
 12849 49c2 8483      		std Z+4,r24
 12850               	.LVL1123:
 12851               	.L750:
 12852               	.LM1212:
 12853 49c4 CE01      		movw r24,r28
 12854 49c6 8296      		adiw r24,34
 12855 49c8 0E94 0000 		call dir_remove
 12856               	.LVL1124:
 12857               	.LM1213:
 12858 49cc 8823      		tst r24
 12859               	.LVL1125:
 12860 49ce 01F4      		brne .L741
 12861               	.LM1214:
 12862 49d0 8AA1      		ldd r24,Y+34
 12863 49d2 9BA1      		ldd r25,Y+35
 12864               	.LVL1126:
 12865 49d4 0E94 0000 		call sync
 12866 49d8 00C0      		rjmp .L741
 12867               	.LVL1127:
 12868               	.L751:
 12869 49da 82E0      		ldi r24,lo8(2)
 12870               	.LVL1128:
 12871               	.L741:
 12872               	.LVL1129:
 12873               	/* epilogue start */
 12874               	.LM1215:
 12875 49dc C15B      		subi r28,lo8(-(79))
 12876 49de DF4F      		sbci r29,hi8(-(79))
 12877 49e0 CDBF      		out __SP_L__,r28
 12878 49e2 DEBF      		out __SP_H__,r29
 12879 49e4 CF91      		pop r28
 12880 49e6 DF91      		pop r29
 12881 49e8 1F91      		pop r17
 12882 49ea 0F91      		pop r16
 12883               	.LVL1130:
 12884 49ec FF90      		pop r15
 12885 49ee EF90      		pop r14
 12886               	.LVL1131:
 12887 49f0 DF90      		pop r13
 12888 49f2 CF90      		pop r12
 12889               	.LVL1132:
 12890 49f4 0895      		ret
 12891               	.LFE82:
 12893               		.data
 12894               	.LC1:
 12895 000b 4E4F 204E 		.string	"NO NAME    FAT     "
 12895      414D 4520 
 12895      2020 2046 
 12895      4154 2020 
 12895      2020 2000 
 12896               	.LC2:
 12897 001f 4E4F 204E 		.string	"NO NAME    FAT32   "
 12897      414D 4520 
 12897      2020 2046 
 12897      4154 3332 
 12897      2020 2000 
 12898               		.text
 12899               	.global	f_mkfs
 12901               	f_mkfs:
 12902               	.LFB83:
 12903               	.LM1216:
 12904               	.LVL1133:
 12905 49f6 2F92      		push r2
 12906 49f8 3F92      		push r3
 12907 49fa 4F92      		push r4
 12908 49fc 5F92      		push r5
 12909 49fe 6F92      		push r6
 12910 4a00 7F92      		push r7
 12911 4a02 8F92      		push r8
 12912 4a04 9F92      		push r9
 12913 4a06 AF92      		push r10
 12914 4a08 BF92      		push r11
 12915 4a0a CF92      		push r12
 12916 4a0c DF92      		push r13
 12917 4a0e EF92      		push r14
 12918 4a10 FF92      		push r15
 12919 4a12 0F93      		push r16
 12920 4a14 1F93      		push r17
 12921 4a16 DF93      		push r29
 12922 4a18 CF93      		push r28
 12923 4a1a CDB7      		in r28,__SP_L__
 12924 4a1c DEB7      		in r29,__SP_H__
 12925 4a1e AE97      		sbiw r28,46
 12926 4a20 CDBF      		out __SP_L__,r28
 12927 4a22 DEBF      		out __SP_H__,r29
 12928               	/* prologue: function */
 12929               	/* frame size = 46 */
 12930 4a24 362E      		mov r3,r22
 12931 4a26 3A01      		movw r6,r20
 12932               	.LM1217:
 12933 4a28 8230      		cpi r24,lo8(2)
 12934 4a2a 00F0      		brlo .L756
 12935               	.LVL1134:
 12936 4a2c 8BE0      		ldi r24,lo8(11)
 12937               	.LVL1135:
 12938 4a2e 00C0      		rjmp .L757
 12939               	.LVL1136:
 12940               	.L756:
 12941               	.LM1218:
 12942 4a30 21E0      		ldi r18,lo8(1)
 12943 4a32 2617      		cp r18,r22
 12944 4a34 00F4      		brsh .+2
 12945 4a36 00C0      		rjmp .L758
 12946               	.LVL1137:
 12947               	.LM1219:
 12948 4a38 A82F      		mov r26,r24
 12949 4a3a B0E0      		ldi r27,lo8(0)
 12950 4a3c AA0F      		lsl r26
 12951 4a3e BB1F      		rol r27
 12952 4a40 FD01      		movw r30,r26
 12953 4a42 E050      		subi r30,lo8(-(FatFs))
 12954 4a44 F040      		sbci r31,hi8(-(FatFs))
 12955 4a46 C080      		ld r12,Z
 12956 4a48 D180      		ldd r13,Z+1
 12957               	.LVL1138:
 12958               	.LM1220:
 12959 4a4a C114      		cp r12,__zero_reg__
 12960 4a4c D104      		cpc r13,__zero_reg__
 12961 4a4e 01F4      		brne .L759
 12962 4a50 8CE0      		ldi r24,lo8(12)
 12963               	.LVL1139:
 12964 4a52 00C0      		rjmp .L757
 12965               	.LVL1140:
 12966               	.L759:
 12967               	.LM1221:
 12968 4a54 F601      		movw r30,r12
 12969 4a56 1082      		st Z,__zero_reg__
 12970               	.LM1222:
 12971 4a58 A050      		subi r26,lo8(-(Drives))
 12972 4a5a B040      		sbci r27,hi8(-(Drives))
 12973 4a5c FC91      		ld r31,X
 12974 4a5e FB8B      		std Y+19,r31
 12975               	.LVL1141:
 12976               	.LM1223:
 12977 4a60 8F2F      		mov r24,r31
 12978 4a62 0E94 0000 		call disk_initialize
 12979               	.LVL1142:
 12980               	.LM1224:
 12981 4a66 80FF      		sbrs r24,0
 12982 4a68 00C0      		rjmp .L760
 12983 4a6a 83E0      		ldi r24,lo8(3)
 12984 4a6c 00C0      		rjmp .L757
 12985               	.L760:
 12986               	.LM1225:
 12987 4a6e 82FF      		sbrs r24,2
 12988 4a70 00C0      		rjmp .L761
 12989 4a72 8AE0      		ldi r24,lo8(10)
 12990 4a74 00C0      		rjmp .L757
 12991               	.L761:
 12992               	.LM1226:
 12993 4a76 8B89      		ldd r24,Y+19
 12994 4a78 61E0      		ldi r22,lo8(1)
 12995 4a7a AE01      		movw r20,r28
 12996 4a7c 4F5F      		subi r20,lo8(-(1))
 12997 4a7e 5F4F      		sbci r21,hi8(-(1))
 12998 4a80 0E94 0000 		call disk_ioctl
 12999 4a84 8823      		tst r24
 13000 4a86 01F0      		breq .+2
 13001 4a88 00C0      		rjmp .L758
 13002 4a8a 8981      		ldd r24,Y+1
 13003 4a8c 9A81      		ldd r25,Y+2
 13004 4a8e AB81      		ldd r26,Y+3
 13005 4a90 BC81      		ldd r27,Y+4
 13006               	.LVL1143:
 13007 4a92 803D      		cpi r24,lo8(2000)
 13008 4a94 27E0      		ldi r18,hi8(2000)
 13009 4a96 9207      		cpc r25,r18
 13010 4a98 20E0      		ldi r18,hlo8(2000)
 13011 4a9a A207      		cpc r26,r18
 13012 4a9c 20E0      		ldi r18,hhi8(2000)
 13013 4a9e B207      		cpc r27,r18
 13014 4aa0 00F4      		brsh .+2
 13015 4aa2 00C0      		rjmp .L758
 13016               	.LM1227:
 13017 4aa4 8150      		subi r24,lo8(131072001)
 13018 4aa6 9040      		sbci r25,hi8(131072001)
 13019 4aa8 A04D      		sbci r26,hlo8(131072001)
 13020 4aaa B740      		sbci r27,hhi8(131072001)
 13021 4aac 00F0      		brlo .L762
 13022 4aae 80E0      		ldi r24,lo8(131072000)
 13023 4ab0 90E0      		ldi r25,hi8(131072000)
 13024 4ab2 A0ED      		ldi r26,hlo8(131072000)
 13025 4ab4 B7E0      		ldi r27,hhi8(131072000)
 13026 4ab6 8983      		std Y+1,r24
 13027 4ab8 9A83      		std Y+2,r25
 13028 4aba AB83      		std Y+3,r26
 13029 4abc BC83      		std Y+4,r27
 13030               	.LVL1144:
 13031               	.L762:
 13032               	.LM1228:
 13033 4abe 3320      		tst r3
 13034 4ac0 01F0      		breq .L763
 13035 4ac2 1D8E      		std Y+29,__zero_reg__
 13036 4ac4 1E8E      		std Y+30,__zero_reg__
 13037 4ac6 1F8E      		std Y+31,__zero_reg__
 13038 4ac8 18A2      		std Y+32,__zero_reg__
 13039               	.LVL1145:
 13040 4aca 00C0      		rjmp .L764
 13041               	.LVL1146:
 13042               	.L763:
 13043 4acc 8FE3      		ldi r24,lo8(63)
 13044 4ace 90E0      		ldi r25,hi8(63)
 13045 4ad0 A0E0      		ldi r26,hlo8(63)
 13046 4ad2 B0E0      		ldi r27,hhi8(63)
 13047 4ad4 8D8F      		std Y+29,r24
 13048 4ad6 9E8F      		std Y+30,r25
 13049 4ad8 AF8F      		std Y+31,r26
 13050 4ada B8A3      		std Y+32,r27
 13051               	.LVL1147:
 13052               	.L764:
 13053               	.LM1229:
 13054 4adc 8980      		ldd r8,Y+1
 13055 4ade 9A80      		ldd r9,Y+2
 13056 4ae0 AB80      		ldd r10,Y+3
 13057 4ae2 BC80      		ldd r11,Y+4
 13058 4ae4 2D8D      		ldd r18,Y+29
 13059 4ae6 3E8D      		ldd r19,Y+30
 13060 4ae8 4F8D      		ldd r20,Y+31
 13061 4aea 58A1      		ldd r21,Y+32
 13062 4aec 821A      		sub r8,r18
 13063 4aee 930A      		sbc r9,r19
 13064 4af0 A40A      		sbc r10,r20
 13065 4af2 B50A      		sbc r11,r21
 13066               	.LVL1148:
 13067 4af4 8982      		std Y+1,r8
 13068 4af6 9A82      		std Y+2,r9
 13069 4af8 AB82      		std Y+3,r10
 13070 4afa BC82      		std Y+4,r11
 13071 4afc 80E0      		ldi r24,lo8(512)
 13072 4afe 92E0      		ldi r25,hi8(512)
 13073 4b00 A0E0      		ldi r26,hlo8(512)
 13074 4b02 B0E0      		ldi r27,hhi8(512)
 13075               	.LVL1149:
 13076 4b04 20E0      		ldi r18,lo8(0)
 13077 4b06 30E0      		ldi r19,hi8(0)
 13078               	.LM1230:
 13079 4b08 7301      		movw r14,r6
 13080 4b0a 00E0      		ldi r16,lo8(0)
 13081 4b0c 10E0      		ldi r17,hi8(0)
 13082 4b0e 00C0      		rjmp .L765
 13083               	.LVL1150:
 13084               	.L767:
 13085 4b10 880F      		lsl r24
 13086 4b12 991F      		rol r25
 13087 4b14 AA1F      		rol r26
 13088 4b16 BB1F      		rol r27
 13089 4b18 2F5F      		subi r18,lo8(-(1))
 13090 4b1a 3F4F      		sbci r19,hi8(-(1))
 13091 4b1c 2730      		cpi r18,7
 13092 4b1e 3105      		cpc r19,__zero_reg__
 13093 4b20 01F0      		breq .L766
 13094               	.L765:
 13095 4b22 8E15      		cp r24,r14
 13096 4b24 9F05      		cpc r25,r15
 13097 4b26 A007      		cpc r26,r16
 13098 4b28 B107      		cpc r27,r17
 13099 4b2a 01F4      		brne .L767
 13100 4b2c 00C0      		rjmp .L768
 13101               	.L766:
 13102               	.LM1231:
 13103 4b2e 8E15      		cp r24,r14
 13104 4b30 9F05      		cpc r25,r15
 13105 4b32 A007      		cpc r26,r16
 13106 4b34 B107      		cpc r27,r17
 13107 4b36 01F4      		brne .L769
 13108               	.L768:
 13109               	.LM1232:
 13110 4b38 6114      		cp r6,__zero_reg__
 13111 4b3a 7104      		cpc r7,__zero_reg__
 13112 4b3c 01F4      		brne .L770
 13113               	.L769:
 13114               	.LM1233:
 13115 4b3e E0E0      		ldi r30,lo8(sstbl.6341)
 13116 4b40 F0E0      		ldi r31,hi8(sstbl.6341)
 13117 4b42 20E0      		ldi r18,lo8(0)
 13118 4b44 30E0      		ldi r19,hi8(0)
 13119 4b46 40E0      		ldi r20,hlo8(0)
 13120 4b48 50E0      		ldi r21,hhi8(0)
 13121               	.L771:
 13122 4b4a 8191      		ld r24,Z+
 13123 4b4c 9191      		ld r25,Z+
 13124 4b4e A191      		ld r26,Z+
 13125 4b50 B191      		ld r27,Z+
 13126               	.LVL1151:
 13127 4b52 B901      		movw r22,r18
 13128 4b54 142F      		mov r17,r20
 13129 4b56 052F      		mov r16,r21
 13130 4b58 2F5F      		subi r18,lo8(-(1))
 13131 4b5a 3F4F      		sbci r19,hi8(-(1))
 13132 4b5c 4F4F      		sbci r20,hlo8(-(1))
 13133 4b5e 5F4F      		sbci r21,hhi8(-(1))
 13134 4b60 8816      		cp r8,r24
 13135 4b62 9906      		cpc r9,r25
 13136 4b64 AA06      		cpc r10,r26
 13137 4b66 BB06      		cpc r11,r27
 13138 4b68 00F0      		brlo .L771
 13139               	.LVL1152:
 13140 4b6a CB01      		movw r24,r22
 13141 4b6c 6D83      		std Y+5,r22
 13142               	.LVL1153:
 13143 4b6e 9E83      		std Y+6,r25
 13144               	.LVL1154:
 13145 4b70 1F83      		std Y+7,r17
 13146               	.LVL1155:
 13147 4b72 0887      		std Y+8,r16
 13148               	.LVL1156:
 13149               	.LM1234:
 13150 4b74 FB01      		movw r30,r22
 13151 4b76 EE0F      		lsl r30
 13152 4b78 FF1F      		rol r31
 13153 4b7a E050      		subi r30,lo8(-(cstbl.6342))
 13154 4b7c F040      		sbci r31,hi8(-(cstbl.6342))
 13155 4b7e 6080      		ld r6,Z
 13156 4b80 7180      		ldd r7,Z+1
 13157               	.LVL1157:
 13158               	.L770:
 13159               	.LM1235:
 13160 4b82 30E0      		ldi r19,lo8(512)
 13161 4b84 6316      		cp r6,r19
 13162 4b86 32E0      		ldi r19,hi8(512)
 13163 4b88 7306      		cpc r7,r19
 13164 4b8a 00F4      		brsh .L772
 13165 4b8c 612C      		mov r6,__zero_reg__
 13166 4b8e 22E0      		ldi r18,hi8(512)
 13167 4b90 722E      		mov r7,r18
 13168               	.L772:
 13169               	.LM1236:
 13170 4b92 A301      		movw r20,r6
 13171 4b94 452F      		mov r20,r21
 13172 4b96 5527      		clr r21
 13173 4b98 4695      		lsr r20
 13174 4b9a 498B      		std Y+17,r20
 13175 4b9c 5A8B      		std Y+18,r21
 13176               	.LVL1158:
 13177               	.LM1237:
 13178 4b9e CA01      		movw r24,r20
 13179               	.LVL1159:
 13180 4ba0 A0E0      		ldi r26,lo8(0)
 13181 4ba2 B0E0      		ldi r27,hi8(0)
 13182 4ba4 8D87      		std Y+13,r24
 13183 4ba6 9E87      		std Y+14,r25
 13184 4ba8 AF87      		std Y+15,r26
 13185 4baa B88B      		std Y+16,r27
 13186 4bac C501      		movw r24,r10
 13187 4bae B401      		movw r22,r8
 13188 4bb0 2D85      		ldd r18,Y+13
 13189 4bb2 3E85      		ldd r19,Y+14
 13190 4bb4 4F85      		ldd r20,Y+15
 13191 4bb6 5889      		ldd r21,Y+16
 13192 4bb8 0E94 0000 		call __udivmodsi4
 13193 4bbc C901      		movw r24,r18
 13194 4bbe DA01      		movw r26,r20
 13195               	.LM1238:
 13196 4bc0 853F      		cpi r24,lo8(4085)
 13197 4bc2 EFE0      		ldi r30,hi8(4085)
 13198 4bc4 9E07      		cpc r25,r30
 13199 4bc6 E0E0      		ldi r30,hlo8(4085)
 13200 4bc8 AE07      		cpc r26,r30
 13201 4bca E0E0      		ldi r30,hhi8(4085)
 13202 4bcc BE07      		cpc r27,r30
 13203               	.LVL1160:
 13204 4bce 00F4      		brsh .+2
 13205 4bd0 00C0      		rjmp .L773
 13206               	.LVL1161:
 13207 4bd2 232D      		mov r18,r3
 13208 4bd4 30E0      		ldi r19,lo8(0)
 13209               	.LVL1162:
 13210               	.LM1239:
 13211 4bd6 853F      		cpi r24,lo8(65525)
 13212 4bd8 FFEF      		ldi r31,hi8(65525)
 13213 4bda 9F07      		cpc r25,r31
 13214 4bdc F0E0      		ldi r31,hlo8(65525)
 13215 4bde AF07      		cpc r26,r31
 13216 4be0 F0E0      		ldi r31,hhi8(65525)
 13217 4be2 BF07      		cpc r27,r31
 13218 4be4 00F4      		brsh .L774
 13219               	.LVL1163:
 13220               	.LM1240:
 13221 4be6 7C01      		movw r14,r24
 13222 4be8 8D01      		movw r16,r26
 13223               	.LVL1164:
 13224 4bea EE0C      		lsl r14
 13225 4bec FF1C      		rol r15
 13226 4bee 001F      		rol r16
 13227 4bf0 111F      		rol r17
 13228               	.LVL1165:
 13229 4bf2 83E0      		ldi r24,lo8(515)
 13230 4bf4 92E0      		ldi r25,hi8(515)
 13231 4bf6 A0E0      		ldi r26,hlo8(515)
 13232 4bf8 B0E0      		ldi r27,hhi8(515)
 13233 4bfa E80E      		add r14,r24
 13234 4bfc F91E      		adc r15,r25
 13235 4bfe 0A1F      		adc r16,r26
 13236 4c00 1B1F      		adc r17,r27
 13237 4c02 B9E0      		ldi r27,9
 13238 4c04 1695      	1:	lsr r17
 13239 4c06 0795      		ror r16
 13240 4c08 F794      		ror r15
 13241 4c0a E794      		ror r14
 13242 4c0c BA95      		dec r27
 13243 4c0e 01F4      		brne 1b
 13244               	.LM1241:
 13245 4c10 2F5F      		subi r18,lo8(-(1))
 13246 4c12 3F4F      		sbci r19,hi8(-(1))
 13247               	.LVL1166:
 13248 4c14 C901      		movw r24,r18
 13249 4c16 AA27      		clr r26
 13250 4c18 97FD      		sbrc r25,7
 13251 4c1a A095      		com r26
 13252 4c1c BA2F      		mov r27,r26
 13253 4c1e 898F      		std Y+25,r24
 13254 4c20 9A8F      		std Y+26,r25
 13255 4c22 AB8F      		std Y+27,r26
 13256 4c24 BC8F      		std Y+28,r27
 13257               	.LVL1167:
 13258 4c26 20E2      		ldi r18,lo8(32)
 13259 4c28 30E0      		ldi r19,hi8(32)
 13260 4c2a 40E0      		ldi r20,hlo8(32)
 13261 4c2c 50E0      		ldi r21,hhi8(32)
 13262               	.LVL1168:
 13263 4c2e 2D8B      		std Y+21,r18
 13264 4c30 3E8B      		std Y+22,r19
 13265 4c32 4F8B      		std Y+23,r20
 13266 4c34 588F      		std Y+24,r21
 13267               	.LVL1169:
 13268 4c36 32E0      		ldi r19,lo8(2)
 13269               	.LVL1170:
 13270 4c38 00C0      		rjmp .L817
 13271               	.LVL1171:
 13272               	.L774:
 13273               	.LM1242:
 13274 4c3a 7C01      		movw r14,r24
 13275 4c3c 8D01      		movw r16,r26
 13276               	.LVL1172:
 13277 4c3e A2E0      		ldi r26,2
 13278 4c40 EE0C      	1:	lsl r14
 13279 4c42 FF1C      		rol r15
 13280 4c44 001F      		rol r16
 13281 4c46 111F      		rol r17
 13282 4c48 AA95      		dec r26
 13283 4c4a 01F4      		brne 1b
 13284 4c4c 87E0      		ldi r24,lo8(519)
 13285 4c4e 92E0      		ldi r25,hi8(519)
 13286 4c50 A0E0      		ldi r26,hlo8(519)
 13287 4c52 B0E0      		ldi r27,hhi8(519)
 13288               	.LVL1173:
 13289 4c54 E80E      		add r14,r24
 13290 4c56 F91E      		adc r15,r25
 13291 4c58 0A1F      		adc r16,r26
 13292 4c5a 1B1F      		adc r17,r27
 13293 4c5c F9E0      		ldi r31,9
 13294 4c5e 1695      	1:	lsr r17
 13295 4c60 0795      		ror r16
 13296 4c62 F794      		ror r15
 13297 4c64 E794      		ror r14
 13298 4c66 FA95      		dec r31
 13299 4c68 01F4      		brne 1b
 13300               	.LM1243:
 13301 4c6a 81E2      		ldi r24,lo8(33)
 13302 4c6c 90E0      		ldi r25,hi8(33)
 13303 4c6e 821B      		sub r24,r18
 13304 4c70 930B      		sbc r25,r19
 13305 4c72 9C01      		movw r18,r24
 13306 4c74 4427      		clr r20
 13307 4c76 37FD      		sbrc r19,7
 13308 4c78 4095      		com r20
 13309 4c7a 542F      		mov r21,r20
 13310               	.LVL1174:
 13311 4c7c 298F      		std Y+25,r18
 13312 4c7e 3A8F      		std Y+26,r19
 13313 4c80 4B8F      		std Y+27,r20
 13314 4c82 5C8F      		std Y+28,r21
 13315               	.LVL1175:
 13316 4c84 1D8A      		std Y+21,__zero_reg__
 13317 4c86 1E8A      		std Y+22,__zero_reg__
 13318 4c88 1F8A      		std Y+23,__zero_reg__
 13319 4c8a 188E      		std Y+24,__zero_reg__
 13320               	.LVL1176:
 13321 4c8c 33E0      		ldi r19,lo8(3)
 13322               	.LVL1177:
 13323               	.L817:
 13324 4c8e 3AA3      		std Y+34,r19
 13325               	.LVL1178:
 13326               	.L775:
 13327               	.LM1244:
 13328 4c90 8B89      		ldd r24,Y+19
 13329 4c92 63E0      		ldi r22,lo8(3)
 13330 4c94 AE01      		movw r20,r28
 13331 4c96 4B5F      		subi r20,lo8(-(5))
 13332 4c98 5F4F      		sbci r21,hi8(-(5))
 13333 4c9a 0E94 0000 		call disk_ioctl
 13334 4c9e 8823      		tst r24
 13335 4ca0 01F0      		breq .+2
 13336 4ca2 00C0      		rjmp .L758
 13337               	.LM1245:
 13338 4ca4 898D      		ldd r24,Y+25
 13339 4ca6 9A8D      		ldd r25,Y+26
 13340 4ca8 AB8D      		ldd r26,Y+27
 13341 4caa BC8D      		ldd r27,Y+28
 13342 4cac 2D8D      		ldd r18,Y+29
 13343 4cae 3E8D      		ldd r19,Y+30
 13344 4cb0 4F8D      		ldd r20,Y+31
 13345 4cb2 58A1      		ldd r21,Y+32
 13346 4cb4 820F      		add r24,r18
 13347 4cb6 931F      		adc r25,r19
 13348 4cb8 A41F      		adc r26,r20
 13349 4cba B51F      		adc r27,r21
 13350 4cbc 8987      		std Y+9,r24
 13351 4cbe 9A87      		std Y+10,r25
 13352 4cc0 AB87      		std Y+11,r26
 13353 4cc2 BC87      		std Y+12,r27
 13354               	.LVL1179:
 13355               	.LM1246:
 13356 4cc4 2D89      		ldd r18,Y+21
 13357 4cc6 3E89      		ldd r19,Y+22
 13358 4cc8 4F89      		ldd r20,Y+23
 13359 4cca 588D      		ldd r21,Y+24
 13360               	.LVL1180:
 13361 4ccc 2E0D      		add r18,r14
 13362 4cce 3F1D      		adc r19,r15
 13363 4cd0 401F      		adc r20,r16
 13364 4cd2 511F      		adc r21,r17
 13365 4cd4 280F      		add r18,r24
 13366 4cd6 391F      		adc r19,r25
 13367 4cd8 4A1F      		adc r20,r26
 13368 4cda 5B1F      		adc r21,r27
 13369               	.LM1247:
 13370 4cdc 8D81      		ldd r24,Y+5
 13371 4cde 9E81      		ldd r25,Y+6
 13372 4ce0 AF81      		ldd r26,Y+7
 13373 4ce2 B885      		ldd r27,Y+8
 13374 4ce4 4C01      		movw r8,r24
 13375 4ce6 5D01      		movw r10,r26
 13376               	.LVL1181:
 13377 4ce8 0894      		sec
 13378 4cea 8108      		sbc r8,__zero_reg__
 13379 4cec 9108      		sbc r9,__zero_reg__
 13380 4cee A108      		sbc r10,__zero_reg__
 13381 4cf0 B108      		sbc r11,__zero_reg__
 13382 4cf2 820E      		add r8,r18
 13383 4cf4 931E      		adc r9,r19
 13384 4cf6 A41E      		adc r10,r20
 13385 4cf8 B51E      		adc r11,r21
 13386 4cfa B095      		com r27
 13387 4cfc A095      		com r26
 13388 4cfe 9095      		com r25
 13389 4d00 8195      		neg r24
 13390 4d02 9F4F      		sbci r25,lo8(-1)
 13391 4d04 AF4F      		sbci r26,lo8(-1)
 13392 4d06 BF4F      		sbci r27,lo8(-1)
 13393 4d08 8822      		and r8,r24
 13394 4d0a 9922      		and r9,r25
 13395 4d0c AA22      		and r10,r26
 13396 4d0e BB22      		and r11,r27
 13397               	.LM1248:
 13398 4d10 2701      		movw r4,r14
 13399 4d12 3801      		movw r6,r16
 13400 4d14 421A      		sub r4,r18
 13401 4d16 530A      		sbc r5,r19
 13402 4d18 640A      		sbc r6,r20
 13403 4d1a 750A      		sbc r7,r21
 13404               	.LVL1182:
 13405 4d1c 480C      		add r4,r8
 13406 4d1e 591C      		adc r5,r9
 13407 4d20 6A1C      		adc r6,r10
 13408 4d22 7B1C      		adc r7,r11
 13409               	.LM1249:
 13410 4d24 E980      		ldd r14,Y+1
 13411 4d26 FA80      		ldd r15,Y+2
 13412 4d28 0B81      		ldd r16,Y+3
 13413 4d2a 1C81      		ldd r17,Y+4
 13414 4d2c C801      		movw r24,r16
 13415 4d2e B701      		movw r22,r14
 13416 4d30 298D      		ldd r18,Y+25
 13417 4d32 3A8D      		ldd r19,Y+26
 13418 4d34 4B8D      		ldd r20,Y+27
 13419 4d36 5C8D      		ldd r21,Y+28
 13420               	.LVL1183:
 13421 4d38 621B      		sub r22,r18
 13422 4d3a 730B      		sbc r23,r19
 13423 4d3c 840B      		sbc r24,r20
 13424 4d3e 950B      		sbc r25,r21
 13425 4d40 6419      		sub r22,r4
 13426 4d42 7509      		sbc r23,r5
 13427 4d44 8609      		sbc r24,r6
 13428 4d46 9709      		sbc r25,r7
 13429 4d48 2D89      		ldd r18,Y+21
 13430 4d4a 3E89      		ldd r19,Y+22
 13431 4d4c 4F89      		ldd r20,Y+23
 13432 4d4e 588D      		ldd r21,Y+24
 13433 4d50 621B      		sub r22,r18
 13434 4d52 730B      		sbc r23,r19
 13435 4d54 840B      		sbc r24,r20
 13436 4d56 950B      		sbc r25,r21
 13437 4d58 2D85      		ldd r18,Y+13
 13438 4d5a 3E85      		ldd r19,Y+14
 13439 4d5c 4F85      		ldd r20,Y+15
 13440 4d5e 5889      		ldd r21,Y+16
 13441 4d60 0E94 0000 		call __udivmodsi4
 13442 4d64 2BA3      		std Y+35,r18
 13443 4d66 3CA3      		std Y+36,r19
 13444 4d68 4DA3      		std Y+37,r20
 13445 4d6a 5EA3      		std Y+38,r21
 13446               	.LM1250:
 13447 4d6c 3AA1      		ldd r19,Y+34
 13448 4d6e 3230      		cpi r19,lo8(2)
 13449 4d70 01F4      		brne .L776
 13450 4d72 8BA1      		ldd r24,Y+35
 13451 4d74 9CA1      		ldd r25,Y+36
 13452 4d76 ADA1      		ldd r26,Y+37
 13453 4d78 BEA1      		ldd r27,Y+38
 13454 4d7a 855F      		subi r24,lo8(4085)
 13455 4d7c 9F40      		sbci r25,hi8(4085)
 13456 4d7e A040      		sbci r26,hlo8(4085)
 13457 4d80 B040      		sbci r27,hhi8(4085)
 13458 4d82 00F4      		brsh .L777
 13459 4d84 00C0      		rjmp .L758
 13460               	.L776:
 13461 4d86 FAA1      		ldd r31,Y+34
 13462 4d88 F330      		cpi r31,lo8(3)
 13463 4d8a 01F4      		brne .L777
 13464 4d8c 2BA1      		ldd r18,Y+35
 13465 4d8e 3CA1      		ldd r19,Y+36
 13466 4d90 4DA1      		ldd r20,Y+37
 13467 4d92 5EA1      		ldd r21,Y+38
 13468 4d94 255F      		subi r18,lo8(65525)
 13469 4d96 3F4F      		sbci r19,hi8(65525)
 13470 4d98 4040      		sbci r20,hlo8(65525)
 13471 4d9a 5040      		sbci r21,hhi8(65525)
 13472 4d9c 00F4      		brsh .+2
 13473 4d9e 00C0      		rjmp .L758
 13474               	.L777:
 13475               	.LM1251:
 13476 4da0 8D82      		std Y+5,r8
 13477 4da2 9E82      		std Y+6,r9
 13478 4da4 AF82      		std Y+7,r10
 13479 4da6 B886      		std Y+8,r11
 13480               	.LM1252:
 13481 4da8 3320      		tst r3
 13482 4daa 01F0      		breq .L778
 13483               	.LVL1184:
 13484 4dac 80EF      		ldi r24,lo8(-16)
 13485 4dae 8C8B      		std Y+20,r24
 13486               	.LVL1185:
 13487 4db0 00C0      		rjmp .L779
 13488               	.LVL1186:
 13489               	.L778:
 13490               	.LBB650:
 13491               	.LM1253:
 13492 4db2 4D8D      		ldd r20,Y+29
 13493 4db4 5E8D      		ldd r21,Y+30
 13494 4db6 6F8D      		ldd r22,Y+31
 13495 4db8 78A1      		ldd r23,Y+32
 13496               	.LVL1187:
 13497 4dba 4E0D      		add r20,r14
 13498 4dbc 5F1D      		adc r21,r15
 13499 4dbe 601F      		adc r22,r16
 13500 4dc0 711F      		adc r23,r17
 13501               	.LBB651:
 13502               	.LBB652:
 13503               	.LM1254:
 13504 4dc2 EEE2      		ldi r30,lo8(46)
 13505 4dc4 EE2E      		mov r14,r30
 13506 4dc6 F12C      		mov r15,__zero_reg__
 13507               	.LVL1188:
 13508 4dc8 EC0C      		add r14,r12
 13509 4dca FD1C      		adc r15,r13
 13510 4dcc F701      		movw r30,r14
 13511 4dce 20E0      		ldi r18,lo8(512)
 13512 4dd0 32E0      		ldi r19,hi8(512)
 13513               	.LVL1189:
 13514 4dd2 00C0      		rjmp .L780
 13515               	.LVL1190:
 13516               	.L781:
 13517               	.LM1255:
 13518 4dd4 1192      		st Z+,__zero_reg__
 13519               	.L780:
 13520 4dd6 2150      		subi r18,lo8(-(-1))
 13521 4dd8 3040      		sbci r19,hi8(-(-1))
 13522 4dda 9FEF      		ldi r25,hi8(-1)
 13523 4ddc 2F3F      		cpi r18,lo8(-1)
 13524 4dde 3907      		cpc r19,r25
 13525 4de0 01F4      		brne .L781
 13526               	.LBE652:
 13527               	.LBE651:
 13528               	.LM1256:
 13529 4de2 8601      		movw r16,r12
 13530               	.LVL1191:
 13531 4de4 0451      		subi r16,lo8(-(492))
 13532 4de6 1E4F      		sbci r17,hi8(-(492))
 13533               	.LM1257:
 13534 4de8 80E8      		ldi r24,lo8(-128)
 13535 4dea D801      		movw r26,r16
 13536 4dec 8C93      		st X,r24
 13537 4dee 81E0      		ldi r24,lo8(1)
 13538 4df0 1196      		adiw r26,1
 13539 4df2 8C93      		st X,r24
 13540 4df4 1197      		sbiw r26,1
 13541 4df6 1296      		adiw r26,2
 13542 4df8 8C93      		st X,r24
 13543 4dfa 1297      		sbiw r26,2
 13544 4dfc 1396      		adiw r26,3
 13545 4dfe 1C92      		st X,__zero_reg__
 13546               	.LM1258:
 13547 4e00 4030      		cpi r20,lo8(16450560)
 13548 4e02 B4E0      		ldi r27,hi8(16450560)
 13549 4e04 5B07      		cpc r21,r27
 13550 4e06 BBEF      		ldi r27,hlo8(16450560)
 13551 4e08 6B07      		cpc r22,r27
 13552 4e0a B0E0      		ldi r27,hhi8(16450560)
 13553 4e0c 7B07      		cpc r23,r27
 13554 4e0e 00F4      		brsh .L782
 13555               	.LM1259:
 13556 4e10 CB01      		movw r24,r22
 13557 4e12 BA01      		movw r22,r20
 13558 4e14 21EC      		ldi r18,lo8(16065)
 13559 4e16 3EE3      		ldi r19,hi8(16065)
 13560 4e18 40E0      		ldi r20,hlo8(16065)
 13561 4e1a 50E0      		ldi r21,hhi8(16065)
 13562               	.LVL1192:
 13563 4e1c 0E94 0000 		call __udivmodsi4
 13564               	.LVL1193:
 13565 4e20 C901      		movw r24,r18
 13566 4e22 DA01      		movw r26,r20
 13567               	.LVL1194:
 13568               	.LM1260:
 13569 4e24 F801      		movw r30,r16
 13570 4e26 2783      		std Z+7,r18
 13571               	.LVL1195:
 13572               	.LM1261:
 13573 4e28 72E0      		ldi r23,2
 13574 4e2a B695      	1:	lsr r27
 13575 4e2c A795      		ror r26
 13576 4e2e 9795      		ror r25
 13577 4e30 8795      		ror r24
 13578 4e32 7A95      		dec r23
 13579 4e34 01F4      		brne 1b
 13580               	.LVL1196:
 13581 4e36 8F63      		ori r24,lo8(63)
 13582               	.LVL1197:
 13583 4e38 8683      		std Z+6,r24
 13584 4e3a 00C0      		rjmp .L783
 13585               	.LVL1198:
 13586               	.L782:
 13587               	.LM1262:
 13588 4e3c 8FEF      		ldi r24,lo8(-1)
 13589 4e3e D801      		movw r26,r16
 13590 4e40 1696      		adiw r26,6
 13591 4e42 8C93      		st X,r24
 13592 4e44 1697      		sbiw r26,6
 13593 4e46 1796      		adiw r26,7
 13594 4e48 8C93      		st X,r24
 13595               	.LVL1199:
 13596               	.L783:
 13597               	.LM1263:
 13598 4e4a 8EEF      		ldi r24,lo8(-2)
 13599 4e4c F801      		movw r30,r16
 13600 4e4e 8583      		std Z+5,r24
 13601               	.LM1264:
 13602 4e50 FAA1      		ldd r31,Y+34
 13603 4e52 F330      		cpi r31,lo8(3)
 13604 4e54 01F0      		breq .L784
 13605               	.LM1265:
 13606 4e56 8981      		ldd r24,Y+1
 13607 4e58 9A81      		ldd r25,Y+2
 13608 4e5a AB81      		ldd r26,Y+3
 13609 4e5c BC81      		ldd r27,Y+4
 13610 4e5e 8050      		subi r24,lo8(65536)
 13611 4e60 9040      		sbci r25,hi8(65536)
 13612 4e62 A140      		sbci r26,hlo8(65536)
 13613 4e64 B040      		sbci r27,hhi8(65536)
 13614               	.LVL1200:
 13615 4e66 00F0      		brlo .L785
 13616               	.LVL1201:
 13617 4e68 86E0      		ldi r24,lo8(6)
 13618               	.LVL1202:
 13619 4e6a 00C0      		rjmp .L786
 13620               	.LVL1203:
 13621               	.L785:
 13622 4e6c 84E0      		ldi r24,lo8(4)
 13623               	.LVL1204:
 13624               	.L786:
 13625 4e6e D801      		movw r26,r16
 13626 4e70 1496      		adiw r26,4
 13627 4e72 8C93      		st X,r24
 13628 4e74 00C0      		rjmp .L787
 13629               	.LVL1205:
 13630               	.L784:
 13631               	.LM1266:
 13632 4e76 8CE0      		ldi r24,lo8(12)
 13633 4e78 F801      		movw r30,r16
 13634 4e7a 8483      		std Z+4,r24
 13635               	.L787:
 13636               	.LM1267:
 13637 4e7c 8FE3      		ldi r24,lo8(63)
 13638 4e7e D801      		movw r26,r16
 13639 4e80 1896      		adiw r26,8
 13640 4e82 8C93      		st X,r24
 13641 4e84 1897      		sbiw r26,8
 13642 4e86 1996      		adiw r26,9
 13643 4e88 1C92      		st X,__zero_reg__
 13644 4e8a 1997      		sbiw r26,9
 13645 4e8c 1A96      		adiw r26,10
 13646 4e8e 1C92      		st X,__zero_reg__
 13647 4e90 1A97      		sbiw r26,10
 13648 4e92 1B96      		adiw r26,11
 13649 4e94 1C92      		st X,__zero_reg__
 13650 4e96 1B97      		sbiw r26,11
 13651               	.LM1268:
 13652 4e98 8981      		ldd r24,Y+1
 13653 4e9a 1C96      		adiw r26,12
 13654 4e9c 8C93      		st X,r24
 13655 4e9e 1C97      		sbiw r26,12
 13656 4ea0 8A81      		ldd r24,Y+2
 13657               	.LVL1206:
 13658 4ea2 1D96      		adiw r26,13
 13659 4ea4 8C93      		st X,r24
 13660 4ea6 8981      		ldd r24,Y+1
 13661 4ea8 9A81      		ldd r25,Y+2
 13662 4eaa AB81      		ldd r26,Y+3
 13663 4eac BC81      		ldd r27,Y+4
 13664 4eae CD01      		movw r24,r26
 13665 4eb0 AA27      		clr r26
 13666 4eb2 BB27      		clr r27
 13667 4eb4 F801      		movw r30,r16
 13668 4eb6 8687      		std Z+14,r24
 13669 4eb8 8981      		ldd r24,Y+1
 13670 4eba 9A81      		ldd r25,Y+2
 13671 4ebc AB81      		ldd r26,Y+3
 13672 4ebe BC81      		ldd r27,Y+4
 13673 4ec0 8B2F      		mov r24,r27
 13674 4ec2 9927      		clr r25
 13675 4ec4 AA27      		clr r26
 13676 4ec6 BB27      		clr r27
 13677 4ec8 8787      		std Z+15,r24
 13678               	.LM1269:
 13679 4eca 005C      		subi r16,lo8(-(64))
 13680 4ecc 1F4F      		sbci r17,hi8(-(64))
 13681 4ece 85E5      		ldi r24,lo8(85)
 13682 4ed0 D801      		movw r26,r16
 13683 4ed2 8D93      		st X+,r24
 13684 4ed4 FD01      		movw r30,r26
 13685 4ed6 8AEA      		ldi r24,lo8(-86)
 13686 4ed8 8083      		st Z,r24
 13687               	.LM1270:
 13688 4eda 8B89      		ldd r24,Y+19
 13689 4edc B701      		movw r22,r14
 13690 4ede 20E0      		ldi r18,lo8(0)
 13691 4ee0 30E0      		ldi r19,hi8(0)
 13692 4ee2 40E0      		ldi r20,hlo8(0)
 13693 4ee4 50E0      		ldi r21,hhi8(0)
 13694               	.LVL1207:
 13695 4ee6 01E0      		ldi r16,lo8(1)
 13696               	.LVL1208:
 13697 4ee8 0E94 0000 		call disk_write
 13698               	.LVL1209:
 13699 4eec 8823      		tst r24
 13700 4eee 01F0      		breq .+2
 13701 4ef0 00C0      		rjmp .L788
 13702 4ef2 B8EF      		ldi r27,lo8(-8)
 13703 4ef4 BC8B      		std Y+20,r27
 13704               	.LVL1210:
 13705               	.L779:
 13706               	.LBE650:
 13707               	.LM1271:
 13708 4ef6 4EE2      		ldi r20,lo8(46)
 13709 4ef8 242E      		mov r2,r20
 13710 4efa 312C      		mov r3,__zero_reg__
 13711               	.LVL1211:
 13712 4efc 2C0C      		add r2,r12
 13713 4efe 3D1C      		adc r3,r13
 13714 4f00 F101      		movw r30,r2
 13715 4f02 80E0      		ldi r24,lo8(512)
 13716 4f04 92E0      		ldi r25,hi8(512)
 13717               	.LVL1212:
 13718 4f06 00C0      		rjmp .L789
 13719               	.LVL1213:
 13720               	.L790:
 13721               	.LBB653:
 13722               	.LBB654:
 13723               	.LM1272:
 13724 4f08 1192      		st Z+,__zero_reg__
 13725               	.L789:
 13726 4f0a 0197      		sbiw r24,1
 13727 4f0c 2FEF      		ldi r18,hi8(-1)
 13728 4f0e 8F3F      		cpi r24,lo8(-1)
 13729 4f10 9207      		cpc r25,r18
 13730 4f12 01F4      		brne .L790
 13731               	.LBE654:
 13732               	.LBE653:
 13733               	.LM1273:
 13734 4f14 8BEE      		ldi r24,lo8(-21)
 13735               	.LVL1214:
 13736 4f16 D601      		movw r26,r12
 13737 4f18 9E96      		adiw r26,46
 13738 4f1a 8C93      		st X,r24
 13739 4f1c 9E97      		sbiw r26,46
 13740 4f1e 8EEF      		ldi r24,lo8(-2)
 13741 4f20 9F96      		adiw r26,47
 13742 4f22 8C93      		st X,r24
 13743 4f24 9F97      		sbiw r26,47
 13744 4f26 80E9      		ldi r24,lo8(-112)
 13745 4f28 D096      		adiw r26,48
 13746 4f2a 8C93      		st X,r24
 13747 4f2c D097      		sbiw r26,48
 13748 4f2e D196      		adiw r26,49
 13749 4f30 1C92      		st X,__zero_reg__
 13750 4f32 D197      		sbiw r26,49
 13751               	.LM1274:
 13752 4f34 D996      		adiw r26,57
 13753 4f36 1C92      		st X,__zero_reg__
 13754 4f38 D997      		sbiw r26,57
 13755 4f3a 82E0      		ldi r24,lo8(2)
 13756 4f3c DA96      		adiw r26,58
 13757 4f3e 8C93      		st X,r24
 13758               	.LM1275:
 13759 4f40 B989      		ldd r27,Y+17
 13760 4f42 B9A3      		std Y+33,r27
 13761               	.LVL1215:
 13762 4f44 F601      		movw r30,r12
 13763               	.LVL1216:
 13764 4f46 B3AF      		std Z+59,r27
 13765               	.LM1276:
 13766 4f48 398D      		ldd r19,Y+25
 13767 4f4a 34AF      		std Z+60,r19
 13768 4f4c 15AE      		std Z+61,__zero_reg__
 13769               	.LM1277:
 13770 4f4e 81E0      		ldi r24,lo8(1)
 13771 4f50 86AF      		std Z+62,r24
 13772               	.LM1278:
 13773 4f52 8D89      		ldd r24,Y+21
 13774 4f54 9E89      		ldd r25,Y+22
 13775 4f56 AF89      		ldd r26,Y+23
 13776 4f58 B88D      		ldd r27,Y+24
 13777 4f5a 34E0      		ldi r19,4
 13778 4f5c 880F      	1:	lsl r24
 13779 4f5e 991F      		rol r25
 13780 4f60 AA1F      		rol r26
 13781 4f62 BB1F      		rol r27
 13782 4f64 3A95      		dec r19
 13783 4f66 01F4      		brne 1b
 13784 4f68 87AF      		std Z+63,r24
 13785 4f6a 40E4      		ldi r20,lo8(64)
 13786 4f6c 50E0      		ldi r21,hi8(64)
 13787 4f6e C40E      		add r12,r20
 13788 4f70 D51E      		adc r13,r21
 13789 4f72 892F      		mov r24,r25
 13790 4f74 9927      		clr r25
 13791 4f76 D601      		movw r26,r12
 13792 4f78 8C93      		st X,r24
 13793 4f7a E0EC      		ldi r30,lo8(-64)
 13794 4f7c FFEF      		ldi r31,hi8(-64)
 13795 4f7e CE0E      		add r12,r30
 13796 4f80 DF1E      		adc r13,r31
 13797               	.LM1279:
 13798 4f82 8981      		ldd r24,Y+1
 13799 4f84 9A81      		ldd r25,Y+2
 13800 4f86 AB81      		ldd r26,Y+3
 13801 4f88 BC81      		ldd r27,Y+4
 13802 4f8a 8030      		cpi r24,lo8(65536)
 13803 4f8c F0E0      		ldi r31,hi8(65536)
 13804 4f8e 9F07      		cpc r25,r31
 13805 4f90 F1E0      		ldi r31,hlo8(65536)
 13806 4f92 AF07      		cpc r26,r31
 13807 4f94 F0E0      		ldi r31,hhi8(65536)
 13808 4f96 BF07      		cpc r27,r31
 13809 4f98 00F4      		brsh .L791
 13810               	.LVL1217:
 13811               	.LM1280:
 13812 4f9a 21E4      		ldi r18,lo8(65)
 13813 4f9c 30E0      		ldi r19,hi8(65)
 13814 4f9e C20E      		add r12,r18
 13815 4fa0 D31E      		adc r13,r19
 13816 4fa2 F601      		movw r30,r12
 13817 4fa4 8193      		st Z+,r24
 13818 4fa6 6F01      		movw r12,r30
 13819 4fa8 8A81      		ldd r24,Y+2
 13820 4faa 8083      		st Z,r24
 13821 4fac 2EEB      		ldi r18,lo8(-66)
 13822 4fae 3FEF      		ldi r19,hi8(-66)
 13823 4fb0 00C0      		rjmp .L818
 13824               	.L791:
 13825               	.LM1281:
 13826 4fb2 4EE4      		ldi r20,lo8(78)
 13827 4fb4 50E0      		ldi r21,hi8(78)
 13828 4fb6 C40E      		add r12,r20
 13829 4fb8 D51E      		adc r13,r21
 13830 4fba F601      		movw r30,r12
 13831 4fbc 8193      		st Z+,r24
 13832 4fbe 8A81      		ldd r24,Y+2
 13833 4fc0 DF01      		movw r26,r30
 13834 4fc2 8D93      		st X+,r24
 13835 4fc4 6D01      		movw r12,r26
 13836 4fc6 8981      		ldd r24,Y+1
 13837 4fc8 9A81      		ldd r25,Y+2
 13838 4fca AB81      		ldd r26,Y+3
 13839 4fcc BC81      		ldd r27,Y+4
 13840 4fce CD01      		movw r24,r26
 13841 4fd0 AA27      		clr r26
 13842 4fd2 BB27      		clr r27
 13843 4fd4 F601      		movw r30,r12
 13844 4fd6 8193      		st Z+,r24
 13845 4fd8 6F01      		movw r12,r30
 13846 4fda 8981      		ldd r24,Y+1
 13847 4fdc 9A81      		ldd r25,Y+2
 13848 4fde AB81      		ldd r26,Y+3
 13849 4fe0 BC81      		ldd r27,Y+4
 13850 4fe2 8B2F      		mov r24,r27
 13851 4fe4 9927      		clr r25
 13852 4fe6 AA27      		clr r26
 13853 4fe8 BB27      		clr r27
 13854 4fea 8083      		st Z,r24
 13855 4fec 2FEA      		ldi r18,lo8(-81)
 13856 4fee 3FEF      		ldi r19,hi8(-81)
 13857               	.L818:
 13858 4ff0 C20E      		add r12,r18
 13859 4ff2 D31E      		adc r13,r19
 13860               	.LM1282:
 13861 4ff4 43E4      		ldi r20,lo8(67)
 13862 4ff6 50E0      		ldi r21,hi8(67)
 13863 4ff8 C40E      		add r12,r20
 13864 4ffa D51E      		adc r13,r21
 13865 4ffc EC89      		ldd r30,Y+20
 13866 4ffe D601      		movw r26,r12
 13867 5000 EC93      		st X,r30
 13868               	.LM1283:
 13869 5002 23E0      		ldi r18,lo8(3)
 13870 5004 30E0      		ldi r19,hi8(3)
 13871 5006 C20E      		add r12,r18
 13872 5008 D31E      		adc r13,r19
 13873 500a 8FE3      		ldi r24,lo8(63)
 13874 500c D601      		movw r26,r12
 13875 500e 8D93      		st X+,r24
 13876 5010 FD01      		movw r30,r26
 13877 5012 1192      		st Z+,__zero_reg__
 13878               	.LM1284:
 13879 5014 8FEF      		ldi r24,lo8(-1)
 13880 5016 DF01      		movw r26,r30
 13881 5018 8D93      		st X+,r24
 13882 501a FD01      		movw r30,r26
 13883 501c 1192      		st Z+,__zero_reg__
 13884               	.LM1285:
 13885 501e DF01      		movw r26,r30
 13886 5020 ED8D      		ldd r30,Y+29
 13887 5022 ED93      		st X+,r30
 13888 5024 1D92      		st X+,__zero_reg__
 13889 5026 FD01      		movw r30,r26
 13890 5028 1192      		st Z+,__zero_reg__
 13891 502a 6F01      		movw r12,r30
 13892 502c 1082      		st Z,__zero_reg__
 13893 502e 23EB      		ldi r18,lo8(-77)
 13894 5030 3FEF      		ldi r19,hi8(-77)
 13895 5032 C20E      		add r12,r18
 13896 5034 D31E      		adc r13,r19
 13897               	.LM1286:
 13898 5036 0E94 0000 		call get_fattime
 13899 503a 6D83      		std Y+5,r22
 13900 503c 7E83      		std Y+6,r23
 13901 503e 8F83      		std Y+7,r24
 13902 5040 9887      		std Y+8,r25
 13903 5042 E5E5      		ldi r30,lo8(85)
 13904 5044 8E2E      		mov r8,r30
 13905 5046 912C      		mov r9,__zero_reg__
 13906 5048 8C0C      		add r8,r12
 13907 504a 9D1C      		adc r9,r13
 13908 504c 472F      		mov r20,r23
 13909 504e 5527      		clr r21
 13910 5050 49A7      		std Y+41,r20
 13911 5052 5AA7      		std Y+42,r21
 13912 5054 9C01      		movw r18,r24
 13913 5056 4427      		clr r20
 13914 5058 5527      		clr r21
 13915 505a 2BA7      		std Y+43,r18
 13916 505c 3CA7      		std Y+44,r19
 13917 505e 4DA7      		std Y+45,r20
 13918 5060 5EA7      		std Y+46,r21
 13919 5062 E92E      		mov r14,r25
 13920 5064 FF24      		clr r15
 13921 5066 0027      		clr r16
 13922 5068 1127      		clr r17
 13923               	.LVL1218:
 13924 506a A52D      		mov r26,r5
 13925 506c BB27      		clr r27
 13926 506e 92E5      		ldi r25,lo8(82)
 13927 5070 A92E      		mov r10,r25
 13928 5072 B12C      		mov r11,__zero_reg__
 13929 5074 AC0C      		add r10,r12
 13930 5076 BD1C      		adc r11,r13
 13931 5078 A601      		movw r20,r12
 13932 507a 4C5A      		subi r20,lo8(-(84))
 13933 507c 5F4F      		sbci r21,hi8(-(84))
 13934 507e 4FA3      		std Y+39,r20
 13935 5080 58A7      		std Y+40,r21
 13936               	.LM1287:
 13937 5082 5AA1      		ldd r21,Y+34
 13938 5084 5330      		cpi r21,lo8(3)
 13939 5086 01F0      		breq .L793
 13940               	.LVL1219:
 13941               	.LM1288:
 13942 5088 F401      		movw r30,r8
 13943 508a 6083      		st Z,r22
 13944 508c 26E5      		ldi r18,lo8(86)
 13945 508e 30E0      		ldi r19,hi8(86)
 13946 5090 C20E      		add r12,r18
 13947 5092 D31E      		adc r13,r19
 13948 5094 F601      		movw r30,r12
 13949 5096 29A5      		ldd r18,Y+41
 13950 5098 2193      		st Z+,r18
 13951 509a 2BA5      		ldd r18,Y+43
 13952 509c 2193      		st Z+,r18
 13953 509e 6F01      		movw r12,r30
 13954 50a0 E082      		st Z,r14
 13955               	.LM1289:
 13956 50a2 4CEE      		ldi r20,lo8(-20)
 13957 50a4 5FEF      		ldi r21,hi8(-20)
 13958 50a6 C40E      		add r12,r20
 13959 50a8 D51E      		adc r13,r21
 13960 50aa F601      		movw r30,r12
 13961 50ac 4192      		st Z+,r4
 13962 50ae 6F01      		movw r12,r30
 13963 50b0 A083      		st Z,r26
 13964 50b2 2BEB      		ldi r18,lo8(-69)
 13965 50b4 3FEF      		ldi r19,hi8(-69)
 13966 50b6 C20E      		add r12,r18
 13967 50b8 D31E      		adc r13,r19
 13968               	.LM1290:
 13969 50ba 80E8      		ldi r24,lo8(-128)
 13970 50bc D501      		movw r26,r10
 13971 50be 8C93      		st X,r24
 13972               	.LM1291:
 13973 50c0 89E2      		ldi r24,lo8(41)
 13974 50c2 EFA1      		ldd r30,Y+39
 13975 50c4 F8A5      		ldd r31,Y+40
 13976 50c6 8083      		st Z,r24
 13977               	.LBB655:
 13978               	.LBB656:
 13979               	.LM1292:
 13980 50c8 D101      		movw r26,r2
 13981               	.LVL1220:
 13982 50ca 9B96      		adiw r26,43
 13983 50cc E0E0      		ldi r30,lo8(.LC1)
 13984 50ce F0E0      		ldi r31,hi8(.LC1)
 13985               	.LVL1221:
 13986 50d0 00C0      		rjmp .L794
 13987               	.L795:
 13988               	.LM1293:
 13989 50d2 8191      		ld r24,Z+
 13990 50d4 8D93      		st X+,r24
 13991               	.L794:
 13992 50d6 20E0      		ldi r18,hi8(.LC1+19)
 13993 50d8 E030      		cpi r30,lo8(.LC1+19)
 13994 50da F207      		cpc r31,r18
 13995 50dc 01F4      		brne .L795
 13996 50de 00C0      		rjmp .L796
 13997               	.LVL1222:
 13998               	.L793:
 13999               	.LBE656:
 14000               	.LBE655:
 14001               	.LM1294:
 14002 50e0 41E7      		ldi r20,lo8(113)
 14003 50e2 50E0      		ldi r21,hi8(113)
 14004 50e4 C40E      		add r12,r20
 14005 50e6 D51E      		adc r13,r21
 14006 50e8 F601      		movw r30,r12
 14007 50ea 6193      		st Z+,r22
 14008 50ec 29A5      		ldd r18,Y+41
 14009 50ee 2193      		st Z+,r18
 14010 50f0 2BA5      		ldd r18,Y+43
 14011 50f2 2193      		st Z+,r18
 14012 50f4 6F01      		movw r12,r30
 14013 50f6 E082      		st Z,r14
 14014               	.LM1295:
 14015 50f8 F501      		movw r30,r10
 14016 50fa 4082      		st Z,r4
 14017 50fc 2FED      		ldi r18,lo8(-33)
 14018 50fe 3FEF      		ldi r19,hi8(-33)
 14019 5100 C20E      		add r12,r18
 14020 5102 D31E      		adc r13,r19
 14021 5104 F601      		movw r30,r12
 14022 5106 A083      		st Z,r26
 14023 5108 C301      		movw r24,r6
 14024 510a AA27      		clr r26
 14025 510c BB27      		clr r27
 14026 510e EFA1      		ldd r30,Y+39
 14027 5110 F8A5      		ldd r31,Y+40
 14028 5112 8083      		st Z,r24
 14029 5114 872D      		mov r24,r7
 14030 5116 9927      		clr r25
 14031 5118 AA27      		clr r26
 14032 511a BB27      		clr r27
 14033 511c F401      		movw r30,r8
 14034 511e 8083      		st Z,r24
 14035               	.LM1296:
 14036 5120 27E0      		ldi r18,lo8(7)
 14037 5122 30E0      		ldi r19,hi8(7)
 14038 5124 C20E      		add r12,r18
 14039 5126 D31E      		adc r13,r19
 14040 5128 82E0      		ldi r24,lo8(2)
 14041 512a D601      		movw r26,r12
 14042 512c 8D93      		st X+,r24
 14043 512e FD01      		movw r30,r26
 14044 5130 1192      		st Z+,__zero_reg__
 14045 5132 DF01      		movw r26,r30
 14046 5134 1D92      		st X+,__zero_reg__
 14047 5136 FD01      		movw r30,r26
 14048 5138 1192      		st Z+,__zero_reg__
 14049               	.LM1297:
 14050 513a 81E0      		ldi r24,lo8(1)
 14051 513c DF01      		movw r26,r30
 14052 513e 8D93      		st X+,r24
 14053 5140 FD01      		movw r30,r26
 14054 5142 1192      		st Z+,__zero_reg__
 14055               	.LM1298:
 14056 5144 86E0      		ldi r24,lo8(6)
 14057 5146 DF01      		movw r26,r30
 14058 5148 8D93      		st X+,r24
 14059 514a 6D01      		movw r12,r26
 14060 514c 1C92      		st X,__zero_reg__
 14061               	.LM1299:
 14062 514e EDE0      		ldi r30,lo8(13)
 14063 5150 F0E0      		ldi r31,hi8(13)
 14064 5152 CE0E      		add r12,r30
 14065 5154 DF1E      		adc r13,r31
 14066 5156 80E8      		ldi r24,lo8(-128)
 14067 5158 D601      		movw r26,r12
 14068 515a 8C93      		st X,r24
 14069               	.LM1300:
 14070 515c E2E0      		ldi r30,lo8(2)
 14071 515e F0E0      		ldi r31,hi8(2)
 14072 5160 CE0E      		add r12,r30
 14073 5162 DF1E      		adc r13,r31
 14074 5164 89E2      		ldi r24,lo8(41)
 14075 5166 D601      		movw r26,r12
 14076 5168 8C93      		st X,r24
 14077 516a E0E9      		ldi r30,lo8(-112)
 14078 516c FFEF      		ldi r31,hi8(-112)
 14079 516e CE0E      		add r12,r30
 14080 5170 DF1E      		adc r13,r31
 14081               	.LBB657:
 14082               	.LBB658:
 14083               	.LM1301:
 14084 5172 D101      		movw r26,r2
 14085               	.LVL1223:
 14086 5174 A95B      		subi r26,lo8(-(71))
 14087 5176 BF4F      		sbci r27,hi8(-(71))
 14088 5178 E0E0      		ldi r30,lo8(.LC2)
 14089 517a F0E0      		ldi r31,hi8(.LC2)
 14090               	.LVL1224:
 14091 517c 00C0      		rjmp .L797
 14092               	.L798:
 14093               	.LM1302:
 14094 517e 8191      		ld r24,Z+
 14095 5180 8D93      		st X+,r24
 14096               	.L797:
 14097 5182 20E0      		ldi r18,hi8(.LC2+19)
 14098 5184 E030      		cpi r30,lo8(.LC2+19)
 14099 5186 F207      		cpc r31,r18
 14100 5188 01F4      		brne .L798
 14101               	.LVL1225:
 14102               	.L796:
 14103               	.LBE658:
 14104               	.LBE657:
 14105               	.LM1303:
 14106 518a 4CE2      		ldi r20,lo8(556)
 14107 518c 52E0      		ldi r21,hi8(556)
 14108 518e C40E      		add r12,r20
 14109 5190 D51E      		adc r13,r21
 14110 5192 85E5      		ldi r24,lo8(85)
 14111 5194 D601      		movw r26,r12
 14112               	.LVL1226:
 14113 5196 8D93      		st X+,r24
 14114 5198 6D01      		movw r12,r26
 14115 519a 8AEA      		ldi r24,lo8(-86)
 14116 519c 8C93      		st X,r24
 14117 519e E3ED      		ldi r30,lo8(-557)
 14118 51a0 FDEF      		ldi r31,hi8(-557)
 14119               	.LVL1227:
 14120 51a2 CE0E      		add r12,r30
 14121 51a4 DF1E      		adc r13,r31
 14122               	.LM1304:
 14123 51a6 8B89      		ldd r24,Y+19
 14124 51a8 B101      		movw r22,r2
 14125               	.LVL1228:
 14126 51aa 2D8D      		ldd r18,Y+29
 14127 51ac 3E8D      		ldd r19,Y+30
 14128 51ae 4F8D      		ldd r20,Y+31
 14129 51b0 58A1      		ldd r21,Y+32
 14130 51b2 01E0      		ldi r16,lo8(1)
 14131 51b4 0E94 0000 		call disk_write
 14132 51b8 8823      		tst r24
 14133 51ba 01F0      		breq .+2
 14134 51bc 00C0      		rjmp .L788
 14135               	.LVL1229:
 14136               	.LM1305:
 14137 51be FAA1      		ldd r31,Y+34
 14138 51c0 F330      		cpi r31,lo8(3)
 14139 51c2 01F4      		brne .L799
 14140               	.LM1306:
 14141 51c4 2D8D      		ldd r18,Y+29
 14142 51c6 3E8D      		ldd r19,Y+30
 14143 51c8 4F8D      		ldd r20,Y+31
 14144 51ca 58A1      		ldd r21,Y+32
 14145 51cc 2A5F      		subi r18,lo8(-(6))
 14146 51ce 3F4F      		sbci r19,hi8(-(6))
 14147 51d0 4F4F      		sbci r20,hlo8(-(6))
 14148 51d2 5F4F      		sbci r21,hhi8(-(6))
 14149 51d4 8B89      		ldd r24,Y+19
 14150 51d6 B101      		movw r22,r2
 14151 51d8 0E94 0000 		call disk_write
 14152               	.L799:
 14153 51dc F101      		movw r30,r2
 14154 51de 80E0      		ldi r24,lo8(512)
 14155 51e0 92E0      		ldi r25,hi8(512)
 14156               	.LVL1230:
 14157 51e2 00C0      		rjmp .L800
 14158               	.LVL1231:
 14159               	.L801:
 14160               	.LBB659:
 14161               	.LBB660:
 14162               	.LM1307:
 14163 51e4 1192      		st Z+,__zero_reg__
 14164               	.L800:
 14165 51e6 0197      		sbiw r24,1
 14166 51e8 2FEF      		ldi r18,hi8(-1)
 14167 51ea 8F3F      		cpi r24,lo8(-1)
 14168 51ec 9207      		cpc r25,r18
 14169 51ee 01F4      		brne .L801
 14170               	.LBE660:
 14171               	.LBE659:
 14172               	.LM1308:
 14173 51f0 3AA1      		ldd r19,Y+34
 14174 51f2 3330      		cpi r19,lo8(3)
 14175 51f4 01F0      		breq .L802
 14176               	.LM1309:
 14177 51f6 3130      		cpi r19,lo8(1)
 14178 51f8 01F0      		breq .L803
 14179 51fa 20E0      		ldi r18,lo8(-256)
 14180 51fc 3FEF      		ldi r19,hi8(-256)
 14181 51fe 4FEF      		ldi r20,hlo8(-256)
 14182 5200 5FEF      		ldi r21,hhi8(-256)
 14183               	.LVL1232:
 14184 5202 00C0      		rjmp .L804
 14185               	.LVL1233:
 14186               	.L803:
 14187 5204 20E0      		ldi r18,lo8(16776960)
 14188 5206 3FEF      		ldi r19,hi8(16776960)
 14189 5208 4FEF      		ldi r20,hlo8(16776960)
 14190 520a 50E0      		ldi r21,hhi8(16776960)
 14191               	.LVL1234:
 14192               	.L804:
 14193               	.LM1310:
 14194 520c 6C89      		ldd r22,Y+20
 14195 520e 862F      		mov r24,r22
 14196               	.LVL1235:
 14197 5210 90E0      		ldi r25,lo8(0)
 14198               	.LVL1236:
 14199 5212 A0E0      		ldi r26,lo8(0)
 14200 5214 B0E0      		ldi r27,hi8(0)
 14201               	.LVL1237:
 14202 5216 822B      		or r24,r18
 14203 5218 932B      		or r25,r19
 14204 521a A42B      		or r26,r20
 14205 521c B52B      		or r27,r21
 14206               	.LVL1238:
 14207 521e 8D83      		std Y+5,r24
 14208 5220 9E83      		std Y+6,r25
 14209 5222 AF83      		std Y+7,r26
 14210 5224 B887      		std Y+8,r27
 14211               	.LM1311:
 14212 5226 F601      		movw r30,r12
 14213               	.LVL1239:
 14214 5228 86A7      		std Z+46,r24
 14215 522a 292F      		mov r18,r25
 14216 522c 3327      		clr r19
 14217 522e 27A7      		std Z+47,r18
 14218 5230 9D01      		movw r18,r26
 14219 5232 4427      		clr r20
 14220 5234 5527      		clr r21
 14221 5236 20AB      		std Z+48,r18
 14222 5238 8B2F      		mov r24,r27
 14223 523a 9927      		clr r25
 14224 523c AA27      		clr r26
 14225 523e BB27      		clr r27
 14226               	.LVL1240:
 14227 5240 81AB      		std Z+49,r24
 14228 5242 00C0      		rjmp .L805
 14229               	.LVL1241:
 14230               	.L802:
 14231               	.LM1312:
 14232 5244 88EF      		ldi r24,lo8(-8)
 14233               	.LVL1242:
 14234 5246 D601      		movw r26,r12
 14235 5248 9E96      		adiw r26,46
 14236 524a 8C93      		st X,r24
 14237 524c 9E97      		sbiw r26,46
 14238 524e 8FEF      		ldi r24,lo8(-1)
 14239 5250 9F96      		adiw r26,47
 14240 5252 8C93      		st X,r24
 14241 5254 9F97      		sbiw r26,47
 14242 5256 D096      		adiw r26,48
 14243 5258 8C93      		st X,r24
 14244 525a D097      		sbiw r26,48
 14245 525c D196      		adiw r26,49
 14246 525e 8C93      		st X,r24
 14247 5260 D197      		sbiw r26,49
 14248               	.LM1313:
 14249 5262 D296      		adiw r26,50
 14250 5264 8C93      		st X,r24
 14251 5266 D297      		sbiw r26,50
 14252 5268 D396      		adiw r26,51
 14253 526a 8C93      		st X,r24
 14254 526c D397      		sbiw r26,51
 14255 526e D496      		adiw r26,52
 14256 5270 8C93      		st X,r24
 14257 5272 D497      		sbiw r26,52
 14258 5274 D596      		adiw r26,53
 14259 5276 8C93      		st X,r24
 14260 5278 D597      		sbiw r26,53
 14261               	.LM1314:
 14262 527a D696      		adiw r26,54
 14263 527c 8C93      		st X,r24
 14264 527e D697      		sbiw r26,54
 14265 5280 D796      		adiw r26,55
 14266 5282 8C93      		st X,r24
 14267 5284 D797      		sbiw r26,55
 14268 5286 D896      		adiw r26,56
 14269 5288 8C93      		st X,r24
 14270 528a D897      		sbiw r26,56
 14271 528c 8FE0      		ldi r24,lo8(15)
 14272 528e D996      		adiw r26,57
 14273 5290 8C93      		st X,r24
 14274               	.LVL1243:
 14275               	.L805:
 14276               	.LM1315:
 14277 5292 8B89      		ldd r24,Y+19
 14278 5294 B101      		movw r22,r2
 14279 5296 2985      		ldd r18,Y+9
 14280 5298 3A85      		ldd r19,Y+10
 14281 529a 4B85      		ldd r20,Y+11
 14282 529c 5C85      		ldd r21,Y+12
 14283 529e 01E0      		ldi r16,lo8(1)
 14284 52a0 0E94 0000 		call disk_write
 14285 52a4 8823      		tst r24
 14286 52a6 01F0      		breq .+2
 14287 52a8 00C0      		rjmp .L788
 14288 52aa F101      		movw r30,r2
 14289 52ac 80E0      		ldi r24,lo8(512)
 14290 52ae 92E0      		ldi r25,hi8(512)
 14291               	.LVL1244:
 14292 52b0 00C0      		rjmp .L806
 14293               	.LVL1245:
 14294               	.L807:
 14295               	.LBB661:
 14296               	.LBB662:
 14297               	.LM1316:
 14298 52b2 1192      		st Z+,__zero_reg__
 14299               	.L806:
 14300 52b4 0197      		sbiw r24,1
 14301 52b6 BFEF      		ldi r27,hi8(-1)
 14302 52b8 8F3F      		cpi r24,lo8(-1)
 14303 52ba 9B07      		cpc r25,r27
 14304 52bc 01F4      		brne .L807
 14305               	.LBE662:
 14306               	.LBE661:
 14307               	.LM1317:
 14308 52be 8984      		ldd r8,Y+9
 14309 52c0 9A84      		ldd r9,Y+10
 14310 52c2 AB84      		ldd r10,Y+11
 14311 52c4 BC84      		ldd r11,Y+12
 14312 52c6 0894      		sec
 14313 52c8 811C      		adc r8,__zero_reg__
 14314 52ca 911C      		adc r9,__zero_reg__
 14315 52cc A11C      		adc r10,__zero_reg__
 14316 52ce B11C      		adc r11,__zero_reg__
 14317               	.LVL1246:
 14318               	.LM1318:
 14319 52d0 81E0      		ldi r24,lo8(1)
 14320 52d2 90E0      		ldi r25,hi8(1)
 14321 52d4 A0E0      		ldi r26,hlo8(1)
 14322 52d6 B0E0      		ldi r27,hhi8(1)
 14323               	.LVL1247:
 14324 52d8 00C0      		rjmp .L819
 14325               	.LVL1248:
 14326               	.L809:
 14327               	.LM1319:
 14328 52da 8B89      		ldd r24,Y+19
 14329               	.LVL1249:
 14330 52dc B101      		movw r22,r2
 14331 52de A501      		movw r20,r10
 14332 52e0 9401      		movw r18,r8
 14333 52e2 01E0      		ldi r16,lo8(1)
 14334 52e4 0E94 0000 		call disk_write
 14335               	.LVL1250:
 14336 52e8 8823      		tst r24
 14337 52ea 01F0      		breq .+2
 14338 52ec 00C0      		rjmp .L788
 14339 52ee 0894      		sec
 14340 52f0 811C      		adc r8,__zero_reg__
 14341 52f2 911C      		adc r9,__zero_reg__
 14342 52f4 A11C      		adc r10,__zero_reg__
 14343 52f6 B11C      		adc r11,__zero_reg__
 14344               	.LM1320:
 14345 52f8 8D81      		ldd r24,Y+5
 14346 52fa 9E81      		ldd r25,Y+6
 14347 52fc AF81      		ldd r26,Y+7
 14348 52fe B885      		ldd r27,Y+8
 14349 5300 0196      		adiw r24,1
 14350 5302 A11D      		adc r26,__zero_reg__
 14351 5304 B11D      		adc r27,__zero_reg__
 14352               	.LVL1251:
 14353               	.L819:
 14354 5306 8D83      		std Y+5,r24
 14355 5308 9E83      		std Y+6,r25
 14356 530a AF83      		std Y+7,r26
 14357 530c B887      		std Y+8,r27
 14358 530e 8D81      		ldd r24,Y+5
 14359 5310 9E81      		ldd r25,Y+6
 14360 5312 AF81      		ldd r26,Y+7
 14361 5314 B885      		ldd r27,Y+8
 14362 5316 8415      		cp r24,r4
 14363 5318 9505      		cpc r25,r5
 14364 531a A605      		cpc r26,r6
 14365 531c B705      		cpc r27,r7
 14366 531e 00F0      		brlo .L809
 14367               	.LVL1252:
 14368               	.LM1321:
 14369 5320 EAA1      		ldd r30,Y+34
 14370               	.LVL1253:
 14371 5322 E330      		cpi r30,lo8(3)
 14372 5324 01F0      		breq .L816
 14373 5326 FD89      		ldd r31,Y+21
 14374 5328 F9A3      		std Y+33,r31
 14375               	.LVL1254:
 14376               	.L816:
 14377               	.LM1322:
 14378 532a 2401      		movw r4,r8
 14379 532c 3501      		movw r6,r10
 14380               	.LVL1255:
 14381 532e 0894      		sec
 14382 5330 411C      		adc r4,__zero_reg__
 14383 5332 511C      		adc r5,__zero_reg__
 14384 5334 611C      		adc r6,__zero_reg__
 14385 5336 711C      		adc r7,__zero_reg__
 14386               	.LVL1256:
 14387 5338 8B89      		ldd r24,Y+19
 14388 533a B101      		movw r22,r2
 14389 533c A501      		movw r20,r10
 14390 533e 9401      		movw r18,r8
 14391 5340 01E0      		ldi r16,lo8(1)
 14392 5342 0E94 0000 		call disk_write
 14393 5346 8823      		tst r24
 14394 5348 01F0      		breq .+2
 14395 534a 00C0      		rjmp .L788
 14396               	.LVL1257:
 14397               	.LM1323:
 14398 534c 29A1      		ldd r18,Y+33
 14399 534e 2150      		subi r18,lo8(-(-1))
 14400 5350 29A3      		std Y+33,r18
 14401               	.LVL1258:
 14402 5352 2223      		tst r18
 14403 5354 01F0      		breq .L811
 14404 5356 5301      		movw r10,r6
 14405 5358 4201      		movw r8,r4
 14406 535a 00C0      		rjmp .L816
 14407               	.L811:
 14408               	.LM1324:
 14409 535c 3AA1      		ldd r19,Y+34
 14410 535e 3330      		cpi r19,lo8(3)
 14411 5360 01F0      		breq .+2
 14412 5362 00C0      		rjmp .L812
 14413               	.LM1325:
 14414 5364 4CE2      		ldi r20,lo8(556)
 14415 5366 52E0      		ldi r21,hi8(556)
 14416 5368 C40E      		add r12,r20
 14417 536a D51E      		adc r13,r21
 14418 536c 85E5      		ldi r24,lo8(85)
 14419 536e D601      		movw r26,r12
 14420 5370 8D93      		st X+,r24
 14421 5372 6D01      		movw r12,r26
 14422 5374 8AEA      		ldi r24,lo8(-86)
 14423 5376 8C93      		st X,r24
 14424 5378 E3ED      		ldi r30,lo8(-557)
 14425 537a FDEF      		ldi r31,hi8(-557)
 14426 537c CE0E      		add r12,r30
 14427 537e DF1E      		adc r13,r31
 14428               	.LM1326:
 14429 5380 82E5      		ldi r24,lo8(82)
 14430 5382 D601      		movw r26,r12
 14431 5384 9E96      		adiw r26,46
 14432 5386 8C93      		st X,r24
 14433 5388 9E97      		sbiw r26,46
 14434 538a 9F96      		adiw r26,47
 14435 538c 8C93      		st X,r24
 14436 538e 9F97      		sbiw r26,47
 14437 5390 21E6      		ldi r18,lo8(97)
 14438 5392 D096      		adiw r26,48
 14439 5394 2C93      		st X,r18
 14440 5396 D097      		sbiw r26,48
 14441 5398 91E4      		ldi r25,lo8(65)
 14442 539a D196      		adiw r26,49
 14443 539c 9C93      		st X,r25
 14444               	.LM1327:
 14445 539e E2E1      		ldi r30,lo8(530)
 14446 53a0 F2E0      		ldi r31,hi8(530)
 14447 53a2 CE0E      		add r12,r30
 14448 53a4 DF1E      		adc r13,r31
 14449 53a6 82E7      		ldi r24,lo8(114)
 14450 53a8 D601      		movw r26,r12
 14451 53aa 8D93      		st X+,r24
 14452 53ac FD01      		movw r30,r26
 14453 53ae 8193      		st Z+,r24
 14454 53b0 DF01      		movw r26,r30
 14455 53b2 9D93      		st X+,r25
 14456 53b4 FD01      		movw r30,r26
 14457 53b6 2193      		st Z+,r18
 14458               	.LM1328:
 14459 53b8 8BA1      		ldd r24,Y+35
 14460 53ba 8150      		subi r24,lo8(-(-1))
 14461 53bc DF01      		movw r26,r30
 14462 53be 8D93      		st X+,r24
 14463 53c0 8BA1      		ldd r24,Y+35
 14464 53c2 9CA1      		ldd r25,Y+36
 14465 53c4 0197      		sbiw r24,1
 14466 53c6 FD01      		movw r30,r26
 14467 53c8 9193      		st Z+,r25
 14468 53ca 8BA1      		ldd r24,Y+35
 14469 53cc 9CA1      		ldd r25,Y+36
 14470 53ce ADA1      		ldd r26,Y+37
 14471 53d0 BEA1      		ldd r27,Y+38
 14472 53d2 0197      		sbiw r24,1
 14473 53d4 A109      		sbc r26,__zero_reg__
 14474 53d6 B109      		sbc r27,__zero_reg__
 14475 53d8 9D01      		movw r18,r26
 14476 53da 4427      		clr r20
 14477 53dc 5527      		clr r21
 14478 53de 2193      		st Z+,r18
 14479 53e0 8B2F      		mov r24,r27
 14480 53e2 9927      		clr r25
 14481 53e4 AA27      		clr r26
 14482 53e6 BB27      		clr r27
 14483 53e8 8193      		st Z+,r24
 14484               	.LM1329:
 14485 53ea 8FEF      		ldi r24,lo8(-1)
 14486 53ec DF01      		movw r26,r30
 14487 53ee 8D93      		st X+,r24
 14488 53f0 FD01      		movw r30,r26
 14489 53f2 8193      		st Z+,r24
 14490 53f4 DF01      		movw r26,r30
 14491 53f6 8D93      		st X+,r24
 14492 53f8 FD01      		movw r30,r26
 14493 53fa 8083      		st Z,r24
 14494               	.LM1330:
 14495 53fc 2D8D      		ldd r18,Y+29
 14496 53fe 3E8D      		ldd r19,Y+30
 14497 5400 4F8D      		ldd r20,Y+31
 14498 5402 58A1      		ldd r21,Y+32
 14499 5404 2F5F      		subi r18,lo8(-(1))
 14500 5406 3F4F      		sbci r19,hi8(-(1))
 14501 5408 4F4F      		sbci r20,hlo8(-(1))
 14502 540a 5F4F      		sbci r21,hhi8(-(1))
 14503 540c 2D8F      		std Y+29,r18
 14504 540e 3E8F      		std Y+30,r19
 14505 5410 4F8F      		std Y+31,r20
 14506 5412 58A3      		std Y+32,r21
 14507               	.LVL1259:
 14508 5414 8B89      		ldd r24,Y+19
 14509 5416 B101      		movw r22,r2
 14510 5418 01E0      		ldi r16,lo8(1)
 14511 541a 0E94 0000 		call disk_write
 14512               	.LM1331:
 14513 541e 8D8D      		ldd r24,Y+29
 14514 5420 9E8D      		ldd r25,Y+30
 14515 5422 AF8D      		ldd r26,Y+31
 14516 5424 B8A1      		ldd r27,Y+32
 14517 5426 0696      		adiw r24,6
 14518 5428 A11D      		adc r26,__zero_reg__
 14519 542a B11D      		adc r27,__zero_reg__
 14520 542c 8D8F      		std Y+29,r24
 14521 542e 9E8F      		std Y+30,r25
 14522 5430 AF8F      		std Y+31,r26
 14523 5432 B8A3      		std Y+32,r27
 14524               	.LVL1260:
 14525 5434 8B89      		ldd r24,Y+19
 14526 5436 B101      		movw r22,r2
 14527 5438 2D8D      		ldd r18,Y+29
 14528 543a 3E8D      		ldd r19,Y+30
 14529 543c 4F8D      		ldd r20,Y+31
 14530 543e 58A1      		ldd r21,Y+32
 14531 5440 0E94 0000 		call disk_write
 14532               	.LVL1261:
 14533               	.L812:
 14534               	.LM1332:
 14535 5444 8B89      		ldd r24,Y+19
 14536 5446 60E0      		ldi r22,lo8(0)
 14537 5448 40E0      		ldi r20,lo8(0)
 14538 544a 50E0      		ldi r21,hi8(0)
 14539 544c 0E94 0000 		call disk_ioctl
 14540 5450 8823      		tst r24
 14541 5452 01F0      		breq .L757
 14542 5454 00C0      		rjmp .L788
 14543               	.LVL1262:
 14544               	.L758:
 14545 5456 8EE0      		ldi r24,lo8(14)
 14546 5458 00C0      		rjmp .L757
 14547               	.LVL1263:
 14548               	.L788:
 14549 545a 81E0      		ldi r24,lo8(1)
 14550               	.LVL1264:
 14551               	.L757:
 14552               	/* epilogue start */
 14553               	.LM1333:
 14554 545c AE96      		adiw r28,46
 14555 545e CDBF      		out __SP_L__,r28
 14556 5460 DEBF      		out __SP_H__,r29
 14557 5462 CF91      		pop r28
 14558 5464 DF91      		pop r29
 14559 5466 1F91      		pop r17
 14560 5468 0F91      		pop r16
 14561 546a FF90      		pop r15
 14562 546c EF90      		pop r14
 14563               	.LVL1265:
 14564 546e DF90      		pop r13
 14565 5470 CF90      		pop r12
 14566               	.LVL1266:
 14567 5472 BF90      		pop r11
 14568 5474 AF90      		pop r10
 14569 5476 9F90      		pop r9
 14570 5478 8F90      		pop r8
 14571               	.LVL1267:
 14572 547a 7F90      		pop r7
 14573 547c 6F90      		pop r6
 14574               	.LVL1268:
 14575 547e 5F90      		pop r5
 14576 5480 4F90      		pop r4
 14577               	.LVL1269:
 14578 5482 3F90      		pop r3
 14579               	.LVL1270:
 14580 5484 2F90      		pop r2
 14581               	.LVL1271:
 14582 5486 0895      		ret
 14583               	.LVL1272:
 14584               	.L773:
 14585               	.LM1334:
 14586 5488 7C01      		movw r14,r24
 14587 548a 8D01      		movw r16,r26
 14588               	.LVL1273:
 14589 548c EE0C      		lsl r14
 14590 548e FF1C      		rol r15
 14591 5490 001F      		rol r16
 14592 5492 111F      		rol r17
 14593 5494 E80E      		add r14,r24
 14594 5496 F91E      		adc r15,r25
 14595 5498 0A1F      		adc r16,r26
 14596 549a 1B1F      		adc r17,r27
 14597 549c 0894      		sec
 14598 549e E11C      		adc r14,__zero_reg__
 14599 54a0 F11C      		adc r15,__zero_reg__
 14600 54a2 011D      		adc r16,__zero_reg__
 14601 54a4 111D      		adc r17,__zero_reg__
 14602 54a6 1695      		lsr r17
 14603 54a8 0795      		ror r16
 14604 54aa F794      		ror r15
 14605 54ac E794      		ror r14
 14606 54ae 22E0      		ldi r18,lo8(514)
 14607 54b0 32E0      		ldi r19,hi8(514)
 14608 54b2 40E0      		ldi r20,hlo8(514)
 14609 54b4 50E0      		ldi r21,hhi8(514)
 14610 54b6 E20E      		add r14,r18
 14611 54b8 F31E      		adc r15,r19
 14612 54ba 041F      		adc r16,r20
 14613 54bc 151F      		adc r17,r21
 14614 54be 99E0      		ldi r25,9
 14615 54c0 1695      	1:	lsr r17
 14616 54c2 0795      		ror r16
 14617 54c4 F794      		ror r15
 14618 54c6 E794      		ror r14
 14619 54c8 9A95      		dec r25
 14620 54ca 01F4      		brne 1b
 14621               	.LM1335:
 14622 54cc 832D      		mov r24,r3
 14623               	.LVL1274:
 14624 54ce 90E0      		ldi r25,lo8(0)
 14625               	.LVL1275:
 14626 54d0 0196      		adiw r24,1
 14627               	.LVL1276:
 14628 54d2 9C01      		movw r18,r24
 14629 54d4 4427      		clr r20
 14630 54d6 37FD      		sbrc r19,7
 14631 54d8 4095      		com r20
 14632 54da 542F      		mov r21,r20
 14633 54dc 298F      		std Y+25,r18
 14634 54de 3A8F      		std Y+26,r19
 14635 54e0 4B8F      		std Y+27,r20
 14636 54e2 5C8F      		std Y+28,r21
 14637               	.LVL1277:
 14638 54e4 80E2      		ldi r24,lo8(32)
 14639 54e6 90E0      		ldi r25,hi8(32)
 14640 54e8 A0E0      		ldi r26,hlo8(32)
 14641 54ea B0E0      		ldi r27,hhi8(32)
 14642               	.LVL1278:
 14643 54ec 8D8B      		std Y+21,r24
 14644 54ee 9E8B      		std Y+22,r25
 14645 54f0 AF8B      		std Y+23,r26
 14646 54f2 B88F      		std Y+24,r27
 14647               	.LVL1279:
 14648 54f4 91E0      		ldi r25,lo8(1)
 14649               	.LVL1280:
 14650 54f6 9AA3      		std Y+34,r25
 14651               	.LVL1281:
 14652 54f8 00C0      		rjmp .L775
 14653               	.LFE83:
 14655               	.global	f_gets
 14657               	f_gets:
 14658               	.LFB84:
 14659               	.LM1336:
 14660               	.LVL1282:
 14661 54fa 6F92      		push r6
 14662 54fc 7F92      		push r7
 14663 54fe 8F92      		push r8
 14664 5500 9F92      		push r9
 14665 5502 AF92      		push r10
 14666 5504 BF92      		push r11
 14667 5506 CF92      		push r12
 14668 5508 DF92      		push r13
 14669 550a EF92      		push r14
 14670 550c FF92      		push r15
 14671 550e 0F93      		push r16
 14672 5510 1F93      		push r17
 14673 5512 DF93      		push r29
 14674 5514 CF93      		push r28
 14675 5516 0F92      		push __tmp_reg__
 14676 5518 0F92      		push __tmp_reg__
 14677 551a CDB7      		in r28,__SP_L__
 14678 551c DEB7      		in r29,__SP_H__
 14679               	/* prologue: function */
 14680               	/* frame size = 2 */
 14681 551e 5C01      		movw r10,r24
 14682 5520 6B01      		movw r12,r22
 14683 5522 4A01      		movw r8,r20
 14684               	.LM1337:
 14685 5524 8C01      		movw r16,r24
 14686               	.LVL1283:
 14687 5526 EE24      		clr r14
 14688 5528 FF24      		clr r15
 14689               	.LVL1284:
 14690               	.LM1338:
 14691 552a 0894      		sec
 14692 552c C108      		sbc r12,__zero_reg__
 14693 552e D108      		sbc r13,__zero_reg__
 14694               	.LM1339:
 14695 5530 3E01      		movw r6,r28
 14696 5532 0894      		sec
 14697 5534 611C      		adc r6,__zero_reg__
 14698 5536 711C      		adc r7,__zero_reg__
 14699 5538 00C0      		rjmp .L821
 14700               	.LVL1285:
 14701               	.L823:
 14702 553a C401      		movw r24,r8
 14703 553c B801      		movw r22,r16
 14704               	.LVL1286:
 14705 553e 41E0      		ldi r20,lo8(1)
 14706 5540 50E0      		ldi r21,hi8(1)
 14707 5542 9301      		movw r18,r6
 14708 5544 0E94 0000 		call f_read
 14709               	.LM1340:
 14710 5548 8981      		ldd r24,Y+1
 14711 554a 9A81      		ldd r25,Y+2
 14712 554c 0197      		sbiw r24,1
 14713 554e 01F4      		brne .L822
 14714               	.LVL1287:
 14715               	.LM1341:
 14716 5550 0894      		sec
 14717 5552 E11C      		adc r14,__zero_reg__
 14718 5554 F11C      		adc r15,__zero_reg__
 14719               	.LM1342:
 14720 5556 F801      		movw r30,r16
 14721 5558 8191      		ld r24,Z+
 14722               	.LVL1288:
 14723 555a 8F01      		movw r16,r30
 14724 555c 8A30      		cpi r24,lo8(10)
 14725 555e 01F0      		breq .L822
 14726               	.LVL1289:
 14727               	.L821:
 14728               	.LM1343:
 14729 5560 EC14      		cp r14,r12
 14730 5562 FD04      		cpc r15,r13
 14731 5564 04F0      		brlt .L823
 14732               	.LVL1290:
 14733               	.L822:
 14734               	.LM1344:
 14735 5566 F801      		movw r30,r16
 14736 5568 1082      		st Z,__zero_reg__
 14737               	.LM1345:
 14738 556a EF28      		or r14,r15
 14739 556c 01F4      		brne .L824
 14740 556e AA24      		clr r10
 14741 5570 BB24      		clr r11
 14742               	.LVL1291:
 14743               	.L824:
 14744               	.LM1346:
 14745 5572 C501      		movw r24,r10
 14746               	.LVL1292:
 14747               	/* epilogue start */
 14748 5574 0F90      		pop __tmp_reg__
 14749 5576 0F90      		pop __tmp_reg__
 14750 5578 CF91      		pop r28
 14751 557a DF91      		pop r29
 14752 557c 1F91      		pop r17
 14753 557e 0F91      		pop r16
 14754               	.LVL1293:
 14755 5580 FF90      		pop r15
 14756 5582 EF90      		pop r14
 14757               	.LVL1294:
 14758 5584 DF90      		pop r13
 14759 5586 CF90      		pop r12
 14760 5588 BF90      		pop r11
 14761 558a AF90      		pop r10
 14762 558c 9F90      		pop r9
 14763 558e 8F90      		pop r8
 14764               	.LVL1295:
 14765 5590 7F90      		pop r7
 14766 5592 6F90      		pop r6
 14767 5594 0895      		ret
 14768               	.LFE84:
 14770               	.global	f_putc
 14772               	f_putc:
 14773               	.LFB85:
 14774               	.LM1347:
 14775               	.LVL1296:
 14776 5596 0F93      		push r16
 14777 5598 1F93      		push r17
 14778 559a DF93      		push r29
 14779 559c CF93      		push r28
 14780 559e 00D0      		rcall .
 14781 55a0 CDB7      		in r28,__SP_L__
 14782 55a2 DEB7      		in r29,__SP_H__
 14783               	/* prologue: function */
 14784               	/* frame size = 3 */
 14785 55a4 8C01      		movw r16,r24
 14786               	.LM1348:
 14787 55a6 6115      		cp r22,__zero_reg__
 14788 55a8 7105      		cpc r23,__zero_reg__
 14789 55aa 01F0      		breq .L827
 14790               	.LVL1297:
 14791               	.LM1349:
 14792 55ac 8983      		std Y+1,r24
 14793               	.LVL1298:
 14794               	.LM1350:
 14795 55ae CB01      		movw r24,r22
 14796 55b0 BE01      		movw r22,r28
 14797               	.LVL1299:
 14798 55b2 6F5F      		subi r22,lo8(-(1))
 14799 55b4 7F4F      		sbci r23,hi8(-(1))
 14800 55b6 41E0      		ldi r20,lo8(1)
 14801 55b8 50E0      		ldi r21,hi8(1)
 14802 55ba 9E01      		movw r18,r28
 14803 55bc 2E5F      		subi r18,lo8(-(2))
 14804 55be 3F4F      		sbci r19,hi8(-(2))
 14805 55c0 0E94 0000 		call f_write
 14806               	.LM1351:
 14807 55c4 8A81      		ldd r24,Y+2
 14808 55c6 9B81      		ldd r25,Y+3
 14809               	.LVL1300:
 14810 55c8 892B      		or r24,r25
 14811 55ca 01F4      		brne .L827
 14812               	.LVL1301:
 14813 55cc 0FEF      		ldi r16,lo8(-1)
 14814 55ce 1FEF      		ldi r17,hi8(-1)
 14815               	.LVL1302:
 14816               	.L827:
 14817               	.LM1352:
 14818 55d0 C801      		movw r24,r16
 14819               	.LVL1303:
 14820               	/* epilogue start */
 14821 55d2 2396      		adiw r28,3
 14822 55d4 CDBF      		out __SP_L__,r28
 14823 55d6 DEBF      		out __SP_H__,r29
 14824 55d8 CF91      		pop r28
 14825 55da DF91      		pop r29
 14826 55dc 1F91      		pop r17
 14827 55de 0F91      		pop r16
 14828 55e0 0895      		ret
 14829               	.LFE85:
 14831               	.global	f_puts
 14833               	f_puts:
 14834               	.LFB86:
 14835               	.LM1353:
 14836               	.LVL1304:
 14837 55e2 EF92      		push r14
 14838 55e4 FF92      		push r15
 14839 55e6 0F93      		push r16
 14840 55e8 1F93      		push r17
 14841 55ea CF93      		push r28
 14842 55ec DF93      		push r29
 14843               	/* prologue: function */
 14844               	/* frame size = 0 */
 14845 55ee 8C01      		movw r16,r24
 14846 55f0 7B01      		movw r14,r22
 14847               	.LM1354:
 14848 55f2 C0E0      		ldi r28,lo8(0)
 14849 55f4 D0E0      		ldi r29,hi8(0)
 14850               	.LVL1305:
 14851 55f6 00C0      		rjmp .L830
 14852               	.LVL1306:
 14853               	.L833:
 14854               	.LM1355:
 14855 55f8 90E0      		ldi r25,lo8(0)
 14856 55fa B701      		movw r22,r14
 14857 55fc 0E94 0000 		call f_putc
 14858 5600 8F5F      		subi r24,lo8(-1)
 14859 5602 9F4F      		sbci r25,hi8(-1)
 14860 5604 01F4      		brne .L831
 14861 5606 CFEF      		ldi r28,lo8(-1)
 14862 5608 DFEF      		ldi r29,hi8(-1)
 14863 560a 00C0      		rjmp .L832
 14864               	.L831:
 14865               	.LM1356:
 14866 560c 0F5F      		subi r16,lo8(-(1))
 14867 560e 1F4F      		sbci r17,hi8(-(1))
 14868 5610 2196      		adiw r28,1
 14869               	.LVL1307:
 14870               	.L830:
 14871 5612 F801      		movw r30,r16
 14872 5614 8081      		ld r24,Z
 14873 5616 8823      		tst r24
 14874 5618 01F4      		brne .L833
 14875               	.L832:
 14876               	.LM1357:
 14877 561a CE01      		movw r24,r28
 14878               	.LVL1308:
 14879               	/* epilogue start */
 14880 561c DF91      		pop r29
 14881 561e CF91      		pop r28
 14882 5620 1F91      		pop r17
 14883 5622 0F91      		pop r16
 14884               	.LVL1309:
 14885 5624 FF90      		pop r15
 14886 5626 EF90      		pop r14
 14887               	.LVL1310:
 14888 5628 0895      		ret
 14889               	.LFE86:
 14891               	.global	SD_Close
 14893               	SD_Close:
 14894               	.LFB90:
 14895               	.LM1358:
 14896               	/* prologue: function */
 14897               	/* frame size = 0 */
 14898               	.LM1359:
 14899 562a 80E0      		ldi r24,lo8(Log_File)
 14900 562c 90E0      		ldi r25,hi8(Log_File)
 14901 562e 0E94 0000 		call f_close
 14902               	/* epilogue start */
 14903               	.LM1360:
 14904 5632 0895      		ret
 14905               	.LFE90:
 14907               	.global	SD_Inserted
 14909               	SD_Inserted:
 14910               	.LFB91:
 14911               	.LM1361:
 14912               	/* prologue: function */
 14913               	/* frame size = 0 */
 14914               	.LM1362:
 14915 5634 8091 0000 		lds r24,sdValid
 14916               	/* epilogue start */
 14917               	.LM1363:
 14918 5638 0895      		ret
 14919               	.LFE91:
 14921               	.global	SD_WriteBuffer
 14923               	SD_WriteBuffer:
 14924               	.LFB96:
 14925               	.LM1364:
 14926               	.LVL1311:
 14927 563a AF92      		push r10
 14928 563c BF92      		push r11
 14929 563e CF92      		push r12
 14930 5640 DF92      		push r13
 14931 5642 EF92      		push r14
 14932 5644 FF92      		push r15
 14933 5646 0F93      		push r16
 14934 5648 1F93      		push r17
 14935 564a DF93      		push r29
 14936 564c CF93      		push r28
 14937 564e 0F92      		push __tmp_reg__
 14938 5650 0F92      		push __tmp_reg__
 14939 5652 CDB7      		in r28,__SP_L__
 14940 5654 DEB7      		in r29,__SP_H__
 14941               	/* prologue: function */
 14942               	/* frame size = 2 */
 14943 5656 5C01      		movw r10,r24
 14944 5658 6B01      		movw r12,r22
 14945               	.LM1365:
 14946 565a 80E0      		ldi r24,lo8(Log_File)
 14947 565c 90E0      		ldi r25,hi8(Log_File)
 14948               	.LVL1312:
 14949 565e B501      		movw r22,r10
 14950               	.LVL1313:
 14951 5660 A601      		movw r20,r12
 14952 5662 9E01      		movw r18,r28
 14953 5664 2F5F      		subi r18,lo8(-(1))
 14954 5666 3F4F      		sbci r19,hi8(-(1))
 14955 5668 0E94 0000 		call f_write
 14956 566c 60E0      		ldi r22,lo8(0)
 14957 566e 70E0      		ldi r23,hi8(0)
 14958               	.LVL1314:
 14959 5670 00C0      		rjmp .L840
 14960               	.L841:
 14961               	.LBB663:
 14962               	.LM1366:
 14963 5672 E090 0000 		lds r14,CRC
 14964 5676 F090 0000 		lds r15,(CRC)+1
 14965 567a 0091 0000 		lds r16,(CRC)+2
 14966 567e 1091 0000 		lds r17,(CRC)+3
 14967 5682 2091 0000 		lds r18,CRC
 14968 5686 3091 0000 		lds r19,(CRC)+1
 14969 568a 4091 0000 		lds r20,(CRC)+2
 14970 568e 5091 0000 		lds r21,(CRC)+3
 14971 5692 3070      		andi r19,hi8(255)
 14972 5694 4070      		andi r20,hlo8(255)
 14973 5696 5070      		andi r21,hhi8(255)
 14974 5698 F501      		movw r30,r10
 14975 569a E60F      		add r30,r22
 14976 569c F71F      		adc r31,r23
 14977 569e 8081      		ld r24,Z
 14978 56a0 90E0      		ldi r25,lo8(0)
 14979 56a2 A0E0      		ldi r26,lo8(0)
 14980 56a4 B0E0      		ldi r27,hi8(0)
 14981 56a6 2827      		eor r18,r24
 14982 56a8 3927      		eor r19,r25
 14983 56aa 4A27      		eor r20,r26
 14984 56ac 5B27      		eor r21,r27
 14985 56ae 220F      		lsl r18
 14986 56b0 331F      		rol r19
 14987 56b2 220F      		lsl r18
 14988 56b4 331F      		rol r19
 14989 56b6 2050      		subi r18,lo8(-(crc_table))
 14990 56b8 3040      		sbci r19,hi8(-(crc_table))
 14991 56ba EF2C      		mov r14,r15
 14992 56bc F02E      		mov r15,r16
 14993 56be 012F      		mov r16,r17
 14994 56c0 1127      		clr r17
 14995 56c2 F901      		movw r30,r18
 14996 56c4 8081      		ld r24,Z
 14997 56c6 9181      		ldd r25,Z+1
 14998 56c8 A281      		ldd r26,Z+2
 14999 56ca B381      		ldd r27,Z+3
 15000 56cc E826      		eor r14,r24
 15001 56ce F926      		eor r15,r25
 15002 56d0 0A27      		eor r16,r26
 15003 56d2 1B27      		eor r17,r27
 15004 56d4 E092 0000 		sts CRC,r14
 15005 56d8 F092 0000 		sts (CRC)+1,r15
 15006 56dc 0093 0000 		sts (CRC)+2,r16
 15007 56e0 1093 0000 		sts (CRC)+3,r17
 15008               	.LM1367:
 15009 56e4 6F5F      		subi r22,lo8(-(1))
 15010 56e6 7F4F      		sbci r23,hi8(-(1))
 15011               	.L840:
 15012 56e8 6C15      		cp r22,r12
 15013 56ea 7D05      		cpc r23,r13
 15014 56ec 00F0      		brlo .L841
 15015               	/* epilogue start */
 15016               	.LBE663:
 15017               	.LM1368:
 15018 56ee 0F90      		pop __tmp_reg__
 15019 56f0 0F90      		pop __tmp_reg__
 15020 56f2 CF91      		pop r28
 15021 56f4 DF91      		pop r29
 15022 56f6 1F91      		pop r17
 15023 56f8 0F91      		pop r16
 15024 56fa FF90      		pop r15
 15025 56fc EF90      		pop r14
 15026 56fe DF90      		pop r13
 15027 5700 CF90      		pop r12
 15028               	.LVL1315:
 15029 5702 BF90      		pop r11
 15030 5704 AF90      		pop r10
 15031               	.LVL1316:
 15032 5706 0895      		ret
 15033               	.LFE96:
 15035               	.global	SD_Write32
 15037               	SD_Write32:
 15038               	.LFB94:
 15039               	.LM1369:
 15040               	.LVL1317:
 15041               	/* prologue: function */
 15042               	/* frame size = 0 */
 15043               	.LM1370:
 15044 5708 6093 0000 		sts tmp32,r22
 15045               	.LM1371:
 15046 570c 272F      		mov r18,r23
 15047 570e 382F      		mov r19,r24
 15048 5710 492F      		mov r20,r25
 15049 5712 5527      		clr r21
 15050 5714 2093 0000 		sts tmp32+1,r18
 15051               	.LM1372:
 15052 5718 9C01      		movw r18,r24
 15053 571a 4427      		clr r20
 15054 571c 5527      		clr r21
 15055 571e 2093 0000 		sts tmp32+2,r18
 15056               	.LM1373:
 15057 5722 692F      		mov r22,r25
 15058 5724 7727      		clr r23
 15059 5726 8827      		clr r24
 15060 5728 9927      		clr r25
 15061               	.LVL1318:
 15062 572a 6093 0000 		sts tmp32+3,r22
 15063               	.LM1374:
 15064 572e 80E0      		ldi r24,lo8(tmp32)
 15065 5730 90E0      		ldi r25,hi8(tmp32)
 15066 5732 64E0      		ldi r22,lo8(4)
 15067 5734 70E0      		ldi r23,hi8(4)
 15068 5736 0E94 0000 		call SD_WriteBuffer
 15069               	/* epilogue start */
 15070               	.LM1375:
 15071 573a 0895      		ret
 15072               	.LFE94:
 15074               	.global	SD_Write16
 15076               	SD_Write16:
 15077               	.LFB93:
 15078               	.LM1376:
 15079               	.LVL1319:
 15080               	/* prologue: function */
 15081               	/* frame size = 0 */
 15082               	.LM1377:
 15083 573c 8093 0000 		sts tmp16,r24
 15084               	.LM1378:
 15085 5740 9093 0000 		sts tmp16+1,r25
 15086               	.LVL1320:
 15087               	.LM1379:
 15088 5744 80E0      		ldi r24,lo8(tmp16)
 15089 5746 90E0      		ldi r25,hi8(tmp16)
 15090               	.LVL1321:
 15091 5748 62E0      		ldi r22,lo8(2)
 15092 574a 70E0      		ldi r23,hi8(2)
 15093 574c 0E94 0000 		call SD_WriteBuffer
 15094               	.LVL1322:
 15095               	/* epilogue start */
 15096               	.LM1380:
 15097 5750 0895      		ret
 15098               	.LFE93:
 15100               	.global	SD_Write8
 15102               	SD_Write8:
 15103               	.LFB92:
 15104               	.LM1381:
 15105               	.LVL1323:
 15106               	/* prologue: function */
 15107               	/* frame size = 0 */
 15108               	.LM1382:
 15109 5752 8093 0000 		sts tmp8,r24
 15110               	.LM1383:
 15111 5756 80E0      		ldi r24,lo8(tmp8)
 15112 5758 90E0      		ldi r25,hi8(tmp8)
 15113               	.LVL1324:
 15114 575a 61E0      		ldi r22,lo8(1)
 15115 575c 70E0      		ldi r23,hi8(1)
 15116 575e 0E94 0000 		call SD_WriteBuffer
 15117               	/* epilogue start */
 15118               	.LM1384:
 15119 5762 0895      		ret
 15120               	.LFE92:
 15122               	.global	SD_ClearCRC
 15124               	SD_ClearCRC:
 15125               	.LFB97:
 15126               	.LM1385:
 15127               	/* prologue: function */
 15128               	/* frame size = 0 */
 15129               	.LM1386:
 15130 5764 8FEF      		ldi r24,lo8(-1)
 15131 5766 9FEF      		ldi r25,hi8(-1)
 15132 5768 AFEF      		ldi r26,hlo8(-1)
 15133 576a BFEF      		ldi r27,hhi8(-1)
 15134 576c 8093 0000 		sts CRC,r24
 15135 5770 9093 0000 		sts (CRC)+1,r25
 15136 5774 A093 0000 		sts (CRC)+2,r26
 15137 5778 B093 0000 		sts (CRC)+3,r27
 15138               	/* epilogue start */
 15139               	.LM1387:
 15140 577c 0895      		ret
 15141               	.LFE97:
 15143               	.global	SD_WriteCRC
 15145               	SD_WriteCRC:
 15146               	.LFB98:
 15147               	.LM1388:
 15148               	/* prologue: function */
 15149               	/* frame size = 0 */
 15150               	.LM1389:
 15151 577e 6091 0000 		lds r22,CRC
 15152 5782 7091 0000 		lds r23,(CRC)+1
 15153 5786 8091 0000 		lds r24,(CRC)+2
 15154 578a 9091 0000 		lds r25,(CRC)+3
 15155 578e 6095      		com r22
 15156 5790 7095      		com r23
 15157 5792 8095      		com r24
 15158 5794 9095      		com r25
 15159 5796 0E94 0000 		call SD_Write32
 15160               	/* epilogue start */
 15161               	.LM1390:
 15162 579a 0895      		ret
 15163               	.LFE98:
 15165               		.data
 15166               	.LC3:
 15167 0033 303A 00   		.string	"0:"
 15168               		.text
 15169               	.global	SD_GetSpaceRemaining
 15171               	SD_GetSpaceRemaining:
 15172               	.LFB101:
 15173               	.LM1391:
 15174 579c EF92      		push r14
 15175 579e FF92      		push r15
 15176 57a0 0F93      		push r16
 15177 57a2 1F93      		push r17
 15178 57a4 DF93      		push r29
 15179 57a6 CF93      		push r28
 15180 57a8 00D0      		rcall .
 15181 57aa 0F92      		push __tmp_reg__
 15182 57ac CDB7      		in r28,__SP_L__
 15183 57ae DEB7      		in r29,__SP_H__
 15184               	/* prologue: function */
 15185               	/* frame size = 4 */
 15186               	.LM1392:
 15187 57b0 80E0      		ldi r24,lo8(.LC3)
 15188 57b2 90E0      		ldi r25,hi8(.LC3)
 15189 57b4 BE01      		movw r22,r28
 15190 57b6 6F5F      		subi r22,lo8(-(1))
 15191 57b8 7F4F      		sbci r23,hi8(-(1))
 15192 57ba 40E0      		ldi r20,lo8(fs)
 15193 57bc 50E0      		ldi r21,hi8(fs)
 15194 57be 0E94 0000 		call f_getfree
 15195               	.LM1393:
 15196 57c2 E091 0000 		lds r30,fs
 15197 57c6 F091 0000 		lds r31,(fs)+1
 15198 57ca E28C      		ldd r14,Z+26
 15199 57cc F38C      		ldd r15,Z+27
 15200 57ce 048D      		ldd r16,Z+28
 15201 57d0 158D      		ldd r17,Z+29
 15202               	.LVL1325:
 15203               	.LM1394:
 15204 57d2 8981      		ldd r24,Y+1
 15205 57d4 9A81      		ldd r25,Y+2
 15206 57d6 AB81      		ldd r26,Y+3
 15207 57d8 BC81      		ldd r27,Y+4
 15208               	.LVL1326:
 15209 57da A801      		movw r20,r16
 15210 57dc 9701      		movw r18,r14
 15211 57de 281B      		sub r18,r24
 15212 57e0 390B      		sbc r19,r25
 15213 57e2 4A0B      		sbc r20,r26
 15214 57e4 5B0B      		sbc r21,r27
 15215 57e6 CA01      		movw r24,r20
 15216 57e8 B901      		movw r22,r18
 15217               	.LVL1327:
 15218               	.LM1395:
 15219 57ea 28EE      		ldi r18,lo8(1000)
 15220 57ec 33E0      		ldi r19,hi8(1000)
 15221 57ee 40E0      		ldi r20,hlo8(1000)
 15222 57f0 50E0      		ldi r21,hhi8(1000)
 15223 57f2 0E94 0000 		call __mulsi3
 15224               	.LVL1328:
 15225 57f6 A801      		movw r20,r16
 15226 57f8 9701      		movw r18,r14
 15227 57fa 0E94 0000 		call __udivmodsi4
 15228 57fe CA01      		movw r24,r20
 15229               	.LM1396:
 15230 5800 B901      		movw r22,r18
 15231               	/* epilogue start */
 15232 5802 2496      		adiw r28,4
 15233 5804 CDBF      		out __SP_L__,r28
 15234 5806 DEBF      		out __SP_H__,r29
 15235 5808 CF91      		pop r28
 15236 580a DF91      		pop r29
 15237 580c 1F91      		pop r17
 15238 580e 0F91      		pop r16
 15239 5810 FF90      		pop r15
 15240 5812 EF90      		pop r14
 15241               	.LVL1329:
 15242 5814 0895      		ret
 15243               	.LFE101:
 15245               	.global	SD_Timer_Init
 15247               	SD_Timer_Init:
 15248               	.LFB102:
 15249               	.LM1397:
 15250               	/* prologue: function */
 15251               	/* frame size = 0 */
 15252               	.LM1398:
 15253 5816 E0E0      		ldi r30,lo8(2560)
 15254 5818 FAE0      		ldi r31,hi8(2560)
 15255 581a 80E4      		ldi r24,lo8(576)
 15256 581c 92E0      		ldi r25,hi8(576)
 15257 581e 86A3      		std Z+38,r24
 15258 5820 97A3      		std Z+39,r25
 15259               	.LM1399:
 15260 5822 8081      		ld r24,Z
 15261 5824 807F      		andi r24,lo8(-16)
 15262 5826 8660      		ori r24,lo8(6)
 15263 5828 8083      		st Z,r24
 15264               	.LM1400:
 15265 582a 8681      		ldd r24,Z+6
 15266 582c 8C7F      		andi r24,lo8(-4)
 15267 582e 8260      		ori r24,lo8(2)
 15268 5830 8683      		std Z+6,r24
 15269               	/* epilogue start */
 15270               	.LM1401:
 15271 5832 0895      		ret
 15272               	.LFE102:
 15274               	.global	SD_Init
 15276               	SD_Init:
 15277               	.LFB88:
 15278               	.LM1402:
 15279 5834 1F93      		push r17
 15280               	/* prologue: function */
 15281               	/* frame size = 0 */
 15282               	.LM1403:
 15283 5836 80E1      		ldi r24,lo8(16)
 15284 5838 E0EA      		ldi r30,lo8(1696)
 15285 583a F6E0      		ldi r31,hi8(1696)
 15286 583c 8283      		std Z+2,r24
 15287               	.LM1404:
 15288 583e 0E94 0000 		call SD_Timer_Init
 15289               	.LM1405:
 15290 5842 80E0      		ldi r24,lo8(0)
 15291 5844 0E94 0000 		call disk_initialize
 15292 5848 182F      		mov r17,r24
 15293               	.LVL1330:
 15294               	.LM1406:
 15295 584a 80E0      		ldi r24,lo8(0)
 15296 584c 60E0      		ldi r22,lo8(fso0)
 15297 584e 70E0      		ldi r23,hi8(fso0)
 15298 5850 0E94 0000 		call f_mount
 15299               	.LM1407:
 15300 5854 81E0      		ldi r24,lo8(1)
 15301 5856 60E0      		ldi r22,lo8(fso1)
 15302 5858 70E0      		ldi r23,hi8(fso1)
 15303 585a 0E94 0000 		call f_mount
 15304               	.LM1408:
 15305 585e 1123      		tst r17
 15306 5860 01F4      		brne .L858
 15307               	.LM1409:
 15308 5862 81E0      		ldi r24,lo8(1)
 15309 5864 8093 0000 		sts sdValid,r24
 15310 5868 00C0      		rjmp .L859
 15311               	.L858:
 15312               	.LM1410:
 15313 586a 1092 0000 		sts sdValid,__zero_reg__
 15314               	.L859:
 15315               	.LM1411:
 15316 586e 80E3      		ldi r24,lo8(48)
 15317 5870 E0EA      		ldi r30,lo8(1696)
 15318 5872 F6E0      		ldi r31,hi8(1696)
 15319 5874 848B      		std Z+20,r24
 15320               	.LM1412:
 15321 5876 812F      		mov r24,r17
 15322               	/* epilogue start */
 15323 5878 1F91      		pop r17
 15324               	.LVL1331:
 15325 587a 0895      		ret
 15326               	.LFE88:
 15328               	.global	__vector_47
 15330               	__vector_47:
 15331               	.LFB103:
 15332               	.LM1413:
 15333 587c 1F92      		push __zero_reg__
 15334 587e 0F92      		push r0
 15335 5880 0FB6      		in r0,__SREG__
 15336 5882 0F92      		push r0
 15337 5884 0BB6      		in r0,59-0
 15338 5886 0F92      		push r0
 15339 5888 1124      		clr __zero_reg__
 15340 588a 2F93      		push r18
 15341 588c 3F93      		push r19
 15342 588e 4F93      		push r20
 15343 5890 5F93      		push r21
 15344 5892 6F93      		push r22
 15345 5894 7F93      		push r23
 15346 5896 8F93      		push r24
 15347 5898 9F93      		push r25
 15348 589a AF93      		push r26
 15349 589c BF93      		push r27
 15350 589e EF93      		push r30
 15351 58a0 FF93      		push r31
 15352               	/* prologue: Signal */
 15353               	/* frame size = 0 */
 15354               	.LM1414:
 15355 58a2 0E94 0000 		call disk_timerproc
 15356               	.LM1415:
 15357 58a6 8091 0000 		lds r24,sdValid
 15358 58aa 8823      		tst r24
 15359 58ac 01F4      		brne .L863
 15360               	.LM1416:
 15361 58ae 8091 A806 		lds r24,1704
 15362 58b2 84FD      		sbrc r24,4
 15363 58b4 00C0      		rjmp .L863
 15364               	.LM1417:
 15365 58b6 0E94 0000 		call SD_Init
 15366               	.L863:
 15367               	/* epilogue start */
 15368               	.LM1418:
 15369 58ba FF91      		pop r31
 15370 58bc EF91      		pop r30
 15371 58be BF91      		pop r27
 15372 58c0 AF91      		pop r26
 15373 58c2 9F91      		pop r25
 15374 58c4 8F91      		pop r24
 15375 58c6 7F91      		pop r23
 15376 58c8 6F91      		pop r22
 15377 58ca 5F91      		pop r21
 15378 58cc 4F91      		pop r20
 15379 58ce 3F91      		pop r19
 15380 58d0 2F91      		pop r18
 15381 58d2 0F90      		pop r0
 15382 58d4 0BBE      		out 59-0,r0
 15383 58d6 0F90      		pop r0
 15384 58d8 0FBE      		out __SREG__,r0
 15385 58da 0F90      		pop r0
 15386 58dc 1F90      		pop __zero_reg__
 15387 58de 1895      		reti
 15388               	.LFE103:
 15390               	.global	Button_Init
 15392               	Button_Init:
 15393               	.LFB104:
 15394               	.LM1419:
 15395               	.LVL1332:
 15396 58e0 0F93      		push r16
 15397               	.LVL1333:
 15398               	/* prologue: function */
 15399               	/* frame size = 0 */
 15400               	.LM1420:
 15401 58e2 E1E0      		ldi r30,lo8(1)
 15402 58e4 F0E0      		ldi r31,hi8(1)
 15403 58e6 00C0      		rjmp 2f
 15404 58e8 EE0F      	1:	lsl r30
 15405 58ea FF1F      		rol r31
 15406 58ec 8A95      	2:	dec r24
 15407 58ee 02F4      		brpl 1b
 15408 58f0 A0EA      		ldi r26,lo8(1696)
 15409 58f2 B6E0      		ldi r27,hi8(1696)
 15410 58f4 1296      		adiw r26,2
 15411 58f6 EC93      		st X,r30
 15412 58f8 1297      		sbiw r26,2
 15413               	.LM1421:
 15414 58fa E093 B000 		sts 176,r30
 15415               	.LM1422:
 15416 58fe 4863      		ori r20,lo8(56)
 15417               	.LVL1334:
 15418 5900 5096      		adiw r26,16
 15419 5902 4C93      		st X,r20
 15420 5904 5097      		sbiw r26,16
 15421               	.LM1423:
 15422 5906 6623      		tst r22
 15423 5908 01F0      		breq .L867
 15424               	.LM1424:
 15425 590a 2223      		tst r18
 15426 590c 01F4      		brne .L866
 15427               	.LM1425:
 15428 590e 1A96      		adiw r26,10
 15429 5910 EC93      		st X,r30
 15430 5912 1A97      		sbiw r26,10
 15431               	.LM1426:
 15432 5914 8091 A906 		lds r24,1705
 15433               	.LVL1335:
 15434 5918 00C0      		rjmp .L868
 15435               	.LVL1336:
 15436               	.L866:
 15437               	.LM1427:
 15438 591a 2130      		cpi r18,lo8(1)
 15439 591c 01F4      		brne .L867
 15440               	.LM1428:
 15441 591e 1B96      		adiw r26,11
 15442 5920 EC93      		st X,r30
 15443 5922 1B97      		sbiw r26,11
 15444               	.LM1429:
 15445 5924 8091 A906 		lds r24,1705
 15446               	.LVL1337:
 15447 5928 000F      		lsl r16
 15448 592a 000F      		lsl r16
 15449               	.LVL1338:
 15450               	.L868:
 15451 592c 802B      		or r24,r16
 15452 592e 1996      		adiw r26,9
 15453 5930 8C93      		st X,r24
 15454               	.LVL1339:
 15455               	.L867:
 15456               	/* epilogue start */
 15457               	.LM1430:
 15458 5932 0F91      		pop r16
 15459               	.LVL1340:
 15460 5934 0895      		ret
 15461               	.LFE104:
 15463               	.global	Button_Pressed
 15465               	Button_Pressed:
 15466               	.LFB105:
 15467               	.LM1431:
 15468               	.LVL1341:
 15469               	/* prologue: function */
 15470               	/* frame size = 0 */
 15471               	.LM1432:
 15472 5936 4091 A806 		lds r20,1704
 15473 593a 90E0      		ldi r25,lo8(0)
 15474 593c 21E0      		ldi r18,lo8(1)
 15475 593e 30E0      		ldi r19,hi8(1)
 15476 5940 00C0      		rjmp 2f
 15477 5942 220F      	1:	lsl r18
 15478 5944 331F      		rol r19
 15479 5946 8A95      	2:	dec r24
 15480 5948 02F4      		brpl 1b
 15481 594a 50E0      		ldi r21,lo8(0)
 15482 594c 2423      		and r18,r20
 15483 594e 3523      		and r19,r21
 15484 5950 1216      		cp __zero_reg__,r18
 15485 5952 1306      		cpc __zero_reg__,r19
 15486 5954 04F0      		brlt .L870
 15487 5956 91E0      		ldi r25,lo8(1)
 15488               	.L870:
 15489               	.LM1433:
 15490 5958 892F      		mov r24,r25
 15491               	.LVL1342:
 15492               	/* epilogue start */
 15493 595a 0895      		ret
 15494               	.LFE105:
 15496               	.global	Accel_Write_Byte
 15498               	Accel_Write_Byte:
 15499               	.LFB107:
 15500               	.LM1434:
 15501               	.LVL1343:
 15502               	/* prologue: function */
 15503               	/* frame size = 0 */
 15504               	.LM1435:
 15505 595c E0EC      		ldi r30,lo8(2240)
 15506 595e F8E0      		ldi r31,hi8(2240)
 15507 5960 8383      		std Z+3,r24
 15508               	.L873:
 15509               	.LM1436:
 15510 5962 8091 C208 		lds r24,2242
 15511               	.LVL1344:
 15512 5966 87FF      		sbrs r24,7
 15513 5968 00C0      		rjmp .L873
 15514               	/* epilogue start */
 15515               	.LM1437:
 15516 596a 0895      		ret
 15517               	.LFE107:
 15519               	.global	Accel_Read_Byte
 15521               	Accel_Read_Byte:
 15522               	.LFB108:
 15523               	.LM1438:
 15524               	/* prologue: function */
 15525               	/* frame size = 0 */
 15526               	.LBB664:
 15527               	.LBB665:
 15528               	.LM1439:
 15529 596c E0EC      		ldi r30,lo8(2240)
 15530 596e F8E0      		ldi r31,hi8(2240)
 15531 5970 1382      		std Z+3,__zero_reg__
 15532               	.L877:
 15533               	.LM1440:
 15534 5972 8091 C208 		lds r24,2242
 15535 5976 87FF      		sbrs r24,7
 15536 5978 00C0      		rjmp .L877
 15537               	.LBE665:
 15538               	.LBE664:
 15539               	.LM1441:
 15540 597a 8091 C308 		lds r24,2243
 15541               	/* epilogue start */
 15542               	.LM1442:
 15543 597e 0895      		ret
 15544               	.LFE108:
 15546               	.global	Accel_WriteToAddress
 15548               	Accel_WriteToAddress:
 15549               	.LFB109:
 15550               	.LM1443:
 15551               	.LVL1345:
 15552               	/* prologue: function */
 15553               	/* frame size = 0 */
 15554               	.LM1444:
 15555 5980 90E1      		ldi r25,lo8(16)
 15556 5982 E0E4      		ldi r30,lo8(1600)
 15557 5984 F6E0      		ldi r31,hi8(1600)
 15558 5986 9683      		std Z+6,r25
 15559               	.LM1445:
 15560 5988 8F73      		andi r24,lo8(63)
 15561               	.LVL1346:
 15562               	.LBB666:
 15563               	.LBB667:
 15564               	.LM1446:
 15565 598a E0EC      		ldi r30,lo8(2240)
 15566 598c F8E0      		ldi r31,hi8(2240)
 15567 598e 8383      		std Z+3,r24
 15568               	.L881:
 15569               	.LM1447:
 15570 5990 8091 C208 		lds r24,2242
 15571 5994 87FF      		sbrs r24,7
 15572 5996 00C0      		rjmp .L881
 15573               	.LBE667:
 15574               	.LBE666:
 15575               	.LBB668:
 15576               	.LBB669:
 15577               	.LM1448:
 15578 5998 E0EC      		ldi r30,lo8(2240)
 15579 599a F8E0      		ldi r31,hi8(2240)
 15580 599c 6383      		std Z+3,r22
 15581               	.L882:
 15582               	.LM1449:
 15583 599e 8091 C208 		lds r24,2242
 15584 59a2 87FF      		sbrs r24,7
 15585 59a4 00C0      		rjmp .L882
 15586               	.LBE669:
 15587               	.LBE668:
 15588               	.LM1450:
 15589 59a6 80E1      		ldi r24,lo8(16)
 15590 59a8 E0E4      		ldi r30,lo8(1600)
 15591 59aa F6E0      		ldi r31,hi8(1600)
 15592 59ac 8583      		std Z+5,r24
 15593               	/* epilogue start */
 15594               	.LM1451:
 15595 59ae 0895      		ret
 15596               	.LFE109:
 15598               	.global	Accel_ReadFromAddress
 15600               	Accel_ReadFromAddress:
 15601               	.LFB110:
 15602               	.LM1452:
 15603               	.LVL1347:
 15604               	/* prologue: function */
 15605               	/* frame size = 0 */
 15606               	.LM1453:
 15607 59b0 90E1      		ldi r25,lo8(16)
 15608 59b2 E0E4      		ldi r30,lo8(1600)
 15609 59b4 F6E0      		ldi r31,hi8(1600)
 15610 59b6 9683      		std Z+6,r25
 15611               	.LM1454:
 15612 59b8 8068      		ori r24,lo8(-128)
 15613               	.LVL1348:
 15614               	.LBB670:
 15615               	.LBB671:
 15616               	.LM1455:
 15617 59ba E0EC      		ldi r30,lo8(2240)
 15618 59bc F8E0      		ldi r31,hi8(2240)
 15619 59be 8383      		std Z+3,r24
 15620               	.L887:
 15621               	.LM1456:
 15622 59c0 8091 C208 		lds r24,2242
 15623 59c4 87FF      		sbrs r24,7
 15624 59c6 00C0      		rjmp .L887
 15625               	.LBE671:
 15626               	.LBE670:
 15627               	.LBB672:
 15628               	.LBB673:
 15629               	.LBB674:
 15630               	.LBB675:
 15631               	.LM1457:
 15632 59c8 E0EC      		ldi r30,lo8(2240)
 15633 59ca F8E0      		ldi r31,hi8(2240)
 15634 59cc 1382      		std Z+3,__zero_reg__
 15635               	.L888:
 15636               	.LM1458:
 15637 59ce 8091 C208 		lds r24,2242
 15638 59d2 87FF      		sbrs r24,7
 15639 59d4 00C0      		rjmp .L888
 15640               	.LBE675:
 15641               	.LBE674:
 15642               	.LM1459:
 15643 59d6 8091 C308 		lds r24,2243
 15644               	.LVL1349:
 15645               	.LBE673:
 15646               	.LBE672:
 15647               	.LM1460:
 15648 59da 90E1      		ldi r25,lo8(16)
 15649 59dc E0E4      		ldi r30,lo8(1600)
 15650 59de F6E0      		ldi r31,hi8(1600)
 15651 59e0 9583      		std Z+5,r25
 15652               	.LVL1350:
 15653               	/* epilogue start */
 15654               	.LM1461:
 15655 59e2 0895      		ret
 15656               	.LFE110:
 15658               	.global	Accel_ReadResults
 15660               	Accel_ReadResults:
 15661               	.LFB111:
 15662               	.LM1462:
 15663               	.LVL1351:
 15664 59e4 CF93      		push r28
 15665 59e6 DF93      		push r29
 15666               	/* prologue: function */
 15667               	/* frame size = 0 */
 15668 59e8 9C01      		movw r18,r24
 15669 59ea DA01      		movw r26,r20
 15670               	.LM1463:
 15671 59ec 80E1      		ldi r24,lo8(16)
 15672               	.LVL1352:
 15673 59ee E0E4      		ldi r30,lo8(1600)
 15674 59f0 F6E0      		ldi r31,hi8(1600)
 15675 59f2 8683      		std Z+6,r24
 15676               	.LBB676:
 15677               	.LBB677:
 15678               	.LM1464:
 15679 59f4 82EF      		ldi r24,lo8(-14)
 15680 59f6 E0EC      		ldi r30,lo8(2240)
 15681 59f8 F8E0      		ldi r31,hi8(2240)
 15682 59fa 8383      		std Z+3,r24
 15683               	.LVL1353:
 15684               	.L893:
 15685               	.LM1465:
 15686 59fc 8091 C208 		lds r24,2242
 15687 5a00 87FF      		sbrs r24,7
 15688 5a02 00C0      		rjmp .L893
 15689               	.LBE677:
 15690               	.LBE676:
 15691               	.LM1466:
 15692 5a04 E62F      		mov r30,r22
 15693 5a06 F0E0      		ldi r31,lo8(0)
 15694               	.LVL1354:
 15695 5a08 EE0F      		lsl r30
 15696 5a0a FF1F      		rol r31
 15697               	.LVL1355:
 15698 5a0c E20F      		add r30,r18
 15699 5a0e F31F      		adc r31,r19
 15700               	.LVL1356:
 15701 5a10 C081      		ld r28,Z
 15702 5a12 D181      		ldd r29,Z+1
 15703               	.LBB678:
 15704               	.LBB679:
 15705               	.LBB680:
 15706               	.LBB681:
 15707               	.LM1467:
 15708 5a14 E0EC      		ldi r30,lo8(2240)
 15709 5a16 F8E0      		ldi r31,hi8(2240)
 15710               	.LVL1357:
 15711 5a18 1382      		std Z+3,__zero_reg__
 15712               	.L894:
 15713               	.LM1468:
 15714 5a1a 8091 C208 		lds r24,2242
 15715 5a1e 87FF      		sbrs r24,7
 15716 5a20 00C0      		rjmp .L894
 15717               	.LBE681:
 15718               	.LBE680:
 15719               	.LM1469:
 15720 5a22 2091 C308 		lds r18,2243
 15721               	.LVL1358:
 15722               	.LBE679:
 15723               	.LBE678:
 15724               	.LBB682:
 15725               	.LBB683:
 15726               	.LBB684:
 15727               	.LBB685:
 15728               	.LM1470:
 15729 5a26 E0EC      		ldi r30,lo8(2240)
 15730 5a28 F8E0      		ldi r31,hi8(2240)
 15731 5a2a 1382      		std Z+3,__zero_reg__
 15732               	.L895:
 15733               	.LM1471:
 15734 5a2c 8091 C208 		lds r24,2242
 15735 5a30 87FF      		sbrs r24,7
 15736 5a32 00C0      		rjmp .L895
 15737               	.LBE685:
 15738               	.LBE684:
 15739               	.LM1472:
 15740 5a34 4091 C308 		lds r20,2243
 15741               	.LBE683:
 15742               	.LBE682:
 15743               	.LM1473:
 15744 5a38 FD01      		movw r30,r26
 15745 5a3a EE0F      		lsl r30
 15746 5a3c FF1F      		rol r31
 15747 5a3e EC0F      		add r30,r28
 15748 5a40 FD1F      		adc r31,r29
 15749 5a42 30E0      		ldi r19,lo8(0)
 15750 5a44 2050      		subi r18,lo8(-(1024))
 15751 5a46 3C4F      		sbci r19,hi8(-(1024))
 15752 5a48 942F      		mov r25,r20
 15753 5a4a 80E0      		ldi r24,lo8(0)
 15754 5a4c 280F      		add r18,r24
 15755 5a4e 391F      		adc r19,r25
 15756 5a50 2083      		st Z,r18
 15757 5a52 3183      		std Z+1,r19
 15758               	.LBB686:
 15759               	.LBB687:
 15760               	.LBB688:
 15761               	.LBB689:
 15762               	.LM1474:
 15763 5a54 E0EC      		ldi r30,lo8(2240)
 15764 5a56 F8E0      		ldi r31,hi8(2240)
 15765 5a58 1382      		std Z+3,__zero_reg__
 15766               	.L896:
 15767               	.LM1475:
 15768 5a5a 8091 C208 		lds r24,2242
 15769 5a5e 87FF      		sbrs r24,7
 15770 5a60 00C0      		rjmp .L896
 15771               	.LBE689:
 15772               	.LBE688:
 15773               	.LM1476:
 15774 5a62 2091 C308 		lds r18,2243
 15775               	.LBE687:
 15776               	.LBE686:
 15777               	.LBB690:
 15778               	.LBB691:
 15779               	.LBB692:
 15780               	.LBB693:
 15781               	.LM1477:
 15782 5a66 E0EC      		ldi r30,lo8(2240)
 15783 5a68 F8E0      		ldi r31,hi8(2240)
 15784 5a6a 1382      		std Z+3,__zero_reg__
 15785               	.L897:
 15786               	.LM1478:
 15787 5a6c 8091 C208 		lds r24,2242
 15788 5a70 87FF      		sbrs r24,7
 15789 5a72 00C0      		rjmp .L897
 15790               	.LBE693:
 15791               	.LBE692:
 15792               	.LM1479:
 15793 5a74 4091 C308 		lds r20,2243
 15794               	.LBE691:
 15795               	.LBE690:
 15796               	.LM1480:
 15797 5a78 FD01      		movw r30,r26
 15798 5a7a 3196      		adiw r30,1
 15799 5a7c EE0F      		lsl r30
 15800 5a7e FF1F      		rol r31
 15801 5a80 EC0F      		add r30,r28
 15802 5a82 FD1F      		adc r31,r29
 15803 5a84 30E0      		ldi r19,lo8(0)
 15804 5a86 2050      		subi r18,lo8(-(1024))
 15805 5a88 3C4F      		sbci r19,hi8(-(1024))
 15806 5a8a 942F      		mov r25,r20
 15807 5a8c 80E0      		ldi r24,lo8(0)
 15808 5a8e 280F      		add r18,r24
 15809 5a90 391F      		adc r19,r25
 15810 5a92 2083      		st Z,r18
 15811 5a94 3183      		std Z+1,r19
 15812               	.LBB694:
 15813               	.LBB695:
 15814               	.LBB696:
 15815               	.LBB697:
 15816               	.LM1481:
 15817 5a96 E0EC      		ldi r30,lo8(2240)
 15818 5a98 F8E0      		ldi r31,hi8(2240)
 15819 5a9a 1382      		std Z+3,__zero_reg__
 15820               	.L898:
 15821               	.LM1482:
 15822 5a9c 8091 C208 		lds r24,2242
 15823 5aa0 87FF      		sbrs r24,7
 15824 5aa2 00C0      		rjmp .L898
 15825               	.LBE697:
 15826               	.LBE696:
 15827               	.LM1483:
 15828 5aa4 2091 C308 		lds r18,2243
 15829               	.LBE695:
 15830               	.LBE694:
 15831               	.LBB698:
 15832               	.LBB699:
 15833               	.LBB700:
 15834               	.LBB701:
 15835               	.LM1484:
 15836 5aa8 E0EC      		ldi r30,lo8(2240)
 15837 5aaa F8E0      		ldi r31,hi8(2240)
 15838 5aac 1382      		std Z+3,__zero_reg__
 15839               	.L899:
 15840               	.LM1485:
 15841 5aae 8091 C208 		lds r24,2242
 15842 5ab2 87FF      		sbrs r24,7
 15843 5ab4 00C0      		rjmp .L899
 15844               	.LBE701:
 15845               	.LBE700:
 15846               	.LM1486:
 15847 5ab6 4091 C308 		lds r20,2243
 15848               	.LBE699:
 15849               	.LBE698:
 15850               	.LM1487:
 15851 5aba 1296      		adiw r26,2
 15852 5abc AA0F      		lsl r26
 15853 5abe BB1F      		rol r27
 15854 5ac0 CA0F      		add r28,r26
 15855 5ac2 DB1F      		adc r29,r27
 15856 5ac4 30E0      		ldi r19,lo8(0)
 15857 5ac6 2050      		subi r18,lo8(-(1024))
 15858 5ac8 3C4F      		sbci r19,hi8(-(1024))
 15859 5aca 942F      		mov r25,r20
 15860 5acc 80E0      		ldi r24,lo8(0)
 15861 5ace 280F      		add r18,r24
 15862 5ad0 391F      		adc r19,r25
 15863 5ad2 2883      		st Y,r18
 15864 5ad4 3983      		std Y+1,r19
 15865               	.LM1488:
 15866 5ad6 80E1      		ldi r24,lo8(16)
 15867 5ad8 E0E4      		ldi r30,lo8(1600)
 15868 5ada F6E0      		ldi r31,hi8(1600)
 15869 5adc 8583      		std Z+5,r24
 15870               	/* epilogue start */
 15871               	.LM1489:
 15872 5ade DF91      		pop r29
 15873 5ae0 CF91      		pop r28
 15874 5ae2 0895      		ret
 15875               	.LFE111:
 15877               	.global	Sensors_ResetAccelBuffers
 15879               	Sensors_ResetAccelBuffers:
 15880               	.LFB112:
 15881               	.LM1490:
 15882               	/* prologue: function */
 15883               	/* frame size = 0 */
 15884               	.LM1491:
 15885 5ae4 1092 0000 		sts accelBufferCounter,__zero_reg__
 15886 5ae8 1092 0000 		sts (accelBufferCounter)+1,__zero_reg__
 15887               	.LM1492:
 15888 5aec 1092 0000 		sts accelBufferToWriteTo,__zero_reg__
 15889               	.LBB702:
 15890               	.LM1493:
 15891 5af0 1092 0000 		sts okToSendAccelBuffer,__zero_reg__
 15892 5af4 1092 0000 		sts okToSendAccelBuffer+1,__zero_reg__
 15893               	/* epilogue start */
 15894               	.LBE702:
 15895               	.LM1494:
 15896 5af8 0895      		ret
 15897               	.LFE112:
 15899               	.global	Accel_Init
 15901               	Accel_Init:
 15902               	.LFB106:
 15903               	.LM1495:
 15904               	/* prologue: function */
 15905               	/* frame size = 0 */
 15906               	.LM1496:
 15907 5afa E0E4      		ldi r30,lo8(1600)
 15908 5afc F6E0      		ldi r31,hi8(1600)
 15909 5afe 80EB      		ldi r24,lo8(-80)
 15910 5b00 8183      		std Z+1,r24
 15911               	.LM1497:
 15912 5b02 88E3      		ldi r24,lo8(56)
 15913 5b04 848B      		std Z+20,r24
 15914               	.LM1498:
 15915 5b06 80E1      		ldi r24,lo8(16)
 15916 5b08 8583      		std Z+5,r24
 15917               	.LM1499:
 15918 5b0a E0EC      		ldi r30,lo8(2240)
 15919 5b0c F8E0      		ldi r31,hi8(2240)
 15920 5b0e 8081      		ld r24,Z
 15921 5b10 8C65      		ori r24,lo8(92)
 15922 5b12 8083      		st Z,r24
 15923               	.LM1500:
 15924 5b14 8CE0      		ldi r24,lo8(12)
 15925 5b16 E0EA      		ldi r30,lo8(1696)
 15926 5b18 F6E0      		ldi r31,hi8(1696)
 15927 5b1a 8283      		std Z+2,r24
 15928               	.LM1501:
 15929 5b1c 81E3      		ldi r24,lo8(49)
 15930 5b1e 69E0      		ldi r22,lo8(9)
 15931 5b20 0E94 0000 		call Accel_WriteToAddress
 15932               	.LM1502:
 15933 5b24 8CE2      		ldi r24,lo8(44)
 15934 5b26 6CE0      		ldi r22,lo8(12)
 15935 5b28 0E94 0000 		call Accel_WriteToAddress
 15936               	.LM1503:
 15937 5b2c 8DE2      		ldi r24,lo8(45)
 15938 5b2e 68E0      		ldi r22,lo8(8)
 15939 5b30 0E94 0000 		call Accel_WriteToAddress
 15940               	.LM1504:
 15941 5b34 E0E0      		ldi r30,lo8(2816)
 15942 5b36 FBE0      		ldi r31,hi8(2816)
 15943 5b38 8FE7      		ldi r24,lo8(5759)
 15944 5b3a 96E1      		ldi r25,hi8(5759)
 15945 5b3c 86A3      		std Z+38,r24
 15946 5b3e 97A3      		std Z+39,r25
 15947               	.LM1505:
 15948 5b40 8081      		ld r24,Z
 15949 5b42 807F      		andi r24,lo8(-16)
 15950 5b44 8460      		ori r24,lo8(4)
 15951 5b46 8083      		st Z,r24
 15952               	.LM1506:
 15953 5b48 8681      		ldd r24,Z+6
 15954 5b4a 8360      		ori r24,lo8(3)
 15955 5b4c 8683      		std Z+6,r24
 15956               	.LM1507:
 15957 5b4e 0E94 0000 		call Sensors_ResetAccelBuffers
 15958               	/* epilogue start */
 15959               	.LM1508:
 15960 5b52 0895      		ret
 15961               	.LFE106:
 15963               	.global	__vector_108
 15965               	__vector_108:
 15966               	.LFB113:
 15967               	.LM1509:
 15968 5b54 1F92      		push __zero_reg__
 15969 5b56 0F92      		push r0
 15970 5b58 0FB6      		in r0,__SREG__
 15971 5b5a 0F92      		push r0
 15972 5b5c 0BB6      		in r0,59-0
 15973 5b5e 0F92      		push r0
 15974 5b60 1124      		clr __zero_reg__
 15975 5b62 2F93      		push r18
 15976 5b64 3F93      		push r19
 15977 5b66 4F93      		push r20
 15978 5b68 5F93      		push r21
 15979 5b6a 6F93      		push r22
 15980 5b6c 7F93      		push r23
 15981 5b6e 8F93      		push r24
 15982 5b70 9F93      		push r25
 15983 5b72 AF93      		push r26
 15984 5b74 BF93      		push r27
 15985 5b76 CF93      		push r28
 15986 5b78 DF93      		push r29
 15987 5b7a EF93      		push r30
 15988 5b7c FF93      		push r31
 15989               	/* prologue: Signal */
 15990               	/* frame size = 0 */
 15991               	.LM1510:
 15992 5b7e 8091 0000 		lds r24,recording
 15993 5b82 8823      		tst r24
 15994 5b84 01F4      		brne .+2
 15995 5b86 00C0      		rjmp .L915
 15996 5b88 8091 0000 		lds r24,wantToRecordFast
 15997 5b8c 8823      		tst r24
 15998 5b8e 01F0      		breq .L915
 15999 5b90 8091 0000 		lds r24,accelBufferToWriteTo
 16000 5b94 C82F      		mov r28,r24
 16001 5b96 D0E0      		ldi r29,lo8(0)
 16002 5b98 FE01      		movw r30,r28
 16003 5b9a E050      		subi r30,lo8(-(okToSendAccelBuffer))
 16004 5b9c F040      		sbci r31,hi8(-(okToSendAccelBuffer))
 16005 5b9e 8081      		ld r24,Z
 16006 5ba0 8823      		tst r24
 16007 5ba2 01F4      		brne .L915
 16008               	.LM1511:
 16009 5ba4 8091 0000 		lds r24,accelBufferCounter
 16010 5ba8 9091 0000 		lds r25,(accelBufferCounter)+1
 16011 5bac 892B      		or r24,r25
 16012 5bae 01F4      		brne .L914
 16013               	.LM1512:
 16014 5bb0 0E94 0000 		call Time_Get32BitTimer
 16015 5bb4 CC0F      		lsl r28
 16016 5bb6 DD1F      		rol r29
 16017 5bb8 CC0F      		lsl r28
 16018 5bba DD1F      		rol r29
 16019 5bbc C050      		subi r28,lo8(-(accelSampleStartTime))
 16020 5bbe D040      		sbci r29,hi8(-(accelSampleStartTime))
 16021 5bc0 6883      		st Y,r22
 16022 5bc2 7983      		std Y+1,r23
 16023 5bc4 8A83      		std Y+2,r24
 16024 5bc6 9B83      		std Y+3,r25
 16025               	.L914:
 16026               	.LM1513:
 16027 5bc8 8091 0000 		lds r24,accelBufferCounter
 16028 5bcc 9091 0000 		lds r25,(accelBufferCounter)+1
 16029 5bd0 0396      		adiw r24,3
 16030 5bd2 8093 0000 		sts accelBufferCounter,r24
 16031 5bd6 9093 0000 		sts (accelBufferCounter)+1,r25
 16032               	.LM1514:
 16033 5bda 8458      		subi r24,lo8(900)
 16034 5bdc 9340      		sbci r25,hi8(900)
 16035 5bde 01F4      		brne .L915
 16036               	.LM1515:
 16037 5be0 1092 0000 		sts accelBufferCounter,__zero_reg__
 16038 5be4 1092 0000 		sts (accelBufferCounter)+1,__zero_reg__
 16039               	.LM1516:
 16040 5be8 8091 0000 		lds r24,accelBufferToWriteTo
 16041 5bec E82F      		mov r30,r24
 16042 5bee F0E0      		ldi r31,lo8(0)
 16043 5bf0 E050      		subi r30,lo8(-(okToSendAccelBuffer))
 16044 5bf2 F040      		sbci r31,hi8(-(okToSendAccelBuffer))
 16045 5bf4 91E0      		ldi r25,lo8(1)
 16046 5bf6 9083      		st Z,r25
 16047               	.LM1517:
 16048 5bf8 8F5F      		subi r24,lo8(-(1))
 16049 5bfa 8093 0000 		sts accelBufferToWriteTo,r24
 16050               	.LM1518:
 16051 5bfe 8230      		cpi r24,lo8(2)
 16052 5c00 01F4      		brne .L915
 16053               	.LM1519:
 16054 5c02 1092 0000 		sts accelBufferToWriteTo,__zero_reg__
 16055               	.L915:
 16056               	/* epilogue start */
 16057               	.LM1520:
 16058 5c06 FF91      		pop r31
 16059 5c08 EF91      		pop r30
 16060 5c0a DF91      		pop r29
 16061 5c0c CF91      		pop r28
 16062 5c0e BF91      		pop r27
 16063 5c10 AF91      		pop r26
 16064 5c12 9F91      		pop r25
 16065 5c14 8F91      		pop r24
 16066 5c16 7F91      		pop r23
 16067 5c18 6F91      		pop r22
 16068 5c1a 5F91      		pop r21
 16069 5c1c 4F91      		pop r20
 16070 5c1e 3F91      		pop r19
 16071 5c20 2F91      		pop r18
 16072 5c22 0F90      		pop r0
 16073 5c24 0BBE      		out 59-0,r0
 16074 5c26 0F90      		pop r0
 16075 5c28 0FBE      		out __SREG__,r0
 16076 5c2a 0F90      		pop r0
 16077 5c2c 1F90      		pop __zero_reg__
 16078 5c2e 1895      		reti
 16079               	.LFE113:
 16081               	.global	Sensors_ReadTemperature
 16083               	Sensors_ReadTemperature:
 16084               	.LFB115:
 16085               	.LM1521:
 16086               	/* prologue: function */
 16087               	/* frame size = 0 */
 16088               	.LM1522:
 16089 5c30 E0E0      		ldi r30,lo8(512)
 16090 5c32 F2E0      		ldi r31,hi8(512)
 16091 5c34 2289      		ldd r18,Z+18
 16092 5c36 3389      		ldd r19,Z+19
 16093               	.LM1523:
 16094 5c38 C901      		movw r24,r18
 16095               	/* epilogue start */
 16096 5c3a 0895      		ret
 16097               	.LFE115:
 16099               	.global	Sensors_ReadRespiration
 16101               	Sensors_ReadRespiration:
 16102               	.LFB116:
 16103               	.LM1524:
 16104               	/* prologue: function */
 16105               	/* frame size = 0 */
 16106               	.LM1525:
 16107 5c3c E0E4      		ldi r30,lo8(576)
 16108 5c3e F2E0      		ldi r31,hi8(576)
 16109 5c40 2089      		ldd r18,Z+16
 16110 5c42 3189      		ldd r19,Z+17
 16111               	.LM1526:
 16112 5c44 C901      		movw r24,r18
 16113               	/* epilogue start */
 16114 5c46 0895      		ret
 16115               	.LFE116:
 16117               	.global	Sensors_ReadEKG
 16119               	Sensors_ReadEKG:
 16120               	.LFB117:
 16121               	.LM1527:
 16122               	/* prologue: function */
 16123               	/* frame size = 0 */
 16124               	.LM1528:
 16125 5c48 E0E0      		ldi r30,lo8(512)
 16126 5c4a F2E0      		ldi r31,hi8(512)
 16127 5c4c 2089      		ldd r18,Z+16
 16128 5c4e 3189      		ldd r19,Z+17
 16129               	.LM1529:
 16130 5c50 C901      		movw r24,r18
 16131               	/* epilogue start */
 16132 5c52 0895      		ret
 16133               	.LFE117:
 16135               	.global	Sensors_ReadHumidity
 16137               	Sensors_ReadHumidity:
 16138               	.LFB118:
 16139               	.LM1530:
 16140 5c54 0F93      		push r16
 16141 5c56 1F93      		push r17
 16142               	/* prologue: function */
 16143               	/* frame size = 0 */
 16144               	.LM1531:
 16145 5c58 E0E0      		ldi r30,lo8(512)
 16146 5c5a F2E0      		ldi r31,hi8(512)
 16147 5c5c 6489      		ldd r22,Z+20
 16148 5c5e 7589      		ldd r23,Z+21
 16149 5c60 0091 0000 		lds r16,zeroOffsetA
 16150 5c64 1091 0000 		lds r17,(zeroOffsetA)+1
 16151 5c68 601B      		sub r22,r16
 16152 5c6a 710B      		sbc r23,r17
 16153 5c6c 80E0      		ldi r24,lo8(0)
 16154 5c6e 90E0      		ldi r25,hi8(0)
 16155               	.LVL1359:
 16156               	.LM1532:
 16157 5c70 22E6      		ldi r18,lo8(19554)
 16158 5c72 3CE4      		ldi r19,hi8(19554)
 16159 5c74 40E0      		ldi r20,hlo8(19554)
 16160 5c76 50E0      		ldi r21,hhi8(19554)
 16161 5c78 0E94 0000 		call __mulsi3
 16162 5c7c 9B01      		movw r18,r22
 16163 5c7e AC01      		movw r20,r24
 16164               	.LVL1360:
 16165               	.LM1533:
 16166 5c80 8EE4      		ldi r24,lo8(2382)
 16167 5c82 99E0      		ldi r25,hi8(2382)
 16168               	.LVL1361:
 16169 5c84 089F      		mul r16,r24
 16170 5c86 B001      		movw r22,r0
 16171 5c88 099F      		mul r16,r25
 16172 5c8a 700D      		add r23,r0
 16173 5c8c 189F      		mul r17,r24
 16174 5c8e 700D      		add r23,r0
 16175 5c90 1124      		clr r1
 16176 5c92 80E0      		ldi r24,lo8(0)
 16177 5c94 90E0      		ldi r25,hi8(0)
 16178 5c96 6050      		subi r22,lo8(-(-9756672))
 16179 5c98 704E      		sbci r23,hi8(-(-9756672))
 16180 5c9a 8449      		sbci r24,hlo8(-(-9756672))
 16181 5c9c 9040      		sbci r25,hhi8(-(-9756672))
 16182 5c9e 620F      		add r22,r18
 16183 5ca0 731F      		adc r23,r19
 16184 5ca2 841F      		adc r24,r20
 16185 5ca4 951F      		adc r25,r21
 16186 5ca6 20E0      		ldi r18,lo8(4096)
 16187 5ca8 30E1      		ldi r19,hi8(4096)
 16188               	.LVL1362:
 16189 5caa 201B      		sub r18,r16
 16190 5cac 310B      		sbc r19,r17
 16191 5cae 40E0      		ldi r20,lo8(0)
 16192 5cb0 50E0      		ldi r21,hi8(0)
 16193 5cb2 0E94 0000 		call __udivmodsi4
 16194 5cb6 CA01      		movw r24,r20
 16195 5cb8 B901      		movw r22,r18
 16196 5cba 2AE0      		ldi r18,lo8(10)
 16197 5cbc 30E0      		ldi r19,hi8(10)
 16198 5cbe 40E0      		ldi r20,hlo8(10)
 16199 5cc0 50E0      		ldi r21,hhi8(10)
 16200 5cc2 0E94 0000 		call __udivmodsi4
 16201 5cc6 C901      		movw r24,r18
 16202               	/* epilogue start */
 16203               	.LM1534:
 16204 5cc8 1F91      		pop r17
 16205 5cca 0F91      		pop r16
 16206 5ccc 0895      		ret
 16207               	.LFE118:
 16209               	.global	Sensors_ResetTemperatureBuffers
 16211               	Sensors_ResetTemperatureBuffers:
 16212               	.LFB119:
 16213               	.LM1535:
 16214               	/* prologue: function */
 16215               	/* frame size = 0 */
 16216               	.LM1536:
 16217 5cce 1092 0000 		sts temperatureBufferCounter,__zero_reg__
 16218 5cd2 1092 0000 		sts (temperatureBufferCounter)+1,__zero_reg__
 16219               	.LM1537:
 16220 5cd6 1092 0000 		sts temperatureBufferToWriteTo,__zero_reg__
 16221               	.LBB703:
 16222               	.LM1538:
 16223 5cda 1092 0000 		sts okToSendTemperatureBuffer,__zero_reg__
 16224 5cde 1092 0000 		sts okToSendTemperatureBuffer+1,__zero_reg__
 16225               	/* epilogue start */
 16226               	.LBE703:
 16227               	.LM1539:
 16228 5ce2 0895      		ret
 16229               	.LFE119:
 16231               	.global	Sensors_ResetRespirationBuffers
 16233               	Sensors_ResetRespirationBuffers:
 16234               	.LFB120:
 16235               	.LM1540:
 16236               	/* prologue: function */
 16237               	/* frame size = 0 */
 16238               	.LM1541:
 16239 5ce4 1092 0000 		sts respirationBufferCounter,__zero_reg__
 16240 5ce8 1092 0000 		sts (respirationBufferCounter)+1,__zero_reg__
 16241               	.LM1542:
 16242 5cec 1092 0000 		sts respirationBufferToWriteTo,__zero_reg__
 16243               	.LBB704:
 16244               	.LM1543:
 16245 5cf0 1092 0000 		sts okToSendRespirationBuffer,__zero_reg__
 16246 5cf4 1092 0000 		sts okToSendRespirationBuffer+1,__zero_reg__
 16247 5cf8 1092 0000 		sts okToSendRespirationBuffer+2,__zero_reg__
 16248               	/* epilogue start */
 16249               	.LBE704:
 16250               	.LM1544:
 16251 5cfc 0895      		ret
 16252               	.LFE120:
 16254               	.global	Sensors_ResetEKGBuffers
 16256               	Sensors_ResetEKGBuffers:
 16257               	.LFB121:
 16258               	.LM1545:
 16259               	/* prologue: function */
 16260               	/* frame size = 0 */
 16261               	.LM1546:
 16262 5cfe 1092 0000 		sts EKGBufferCounter,__zero_reg__
 16263 5d02 1092 0000 		sts (EKGBufferCounter)+1,__zero_reg__
 16264               	.LM1547:
 16265 5d06 1092 0000 		sts EKGBufferToWriteTo,__zero_reg__
 16266               	.LBB705:
 16267               	.LM1548:
 16268 5d0a 1092 0000 		sts okToSendEKGBuffer,__zero_reg__
 16269 5d0e 1092 0000 		sts okToSendEKGBuffer+1,__zero_reg__
 16270 5d12 1092 0000 		sts okToSendEKGBuffer+2,__zero_reg__
 16271               	/* epilogue start */
 16272               	.LBE705:
 16273               	.LM1549:
 16274 5d16 0895      		ret
 16275               	.LFE121:
 16277               	.global	Sensors_ResetHumidityBuffers
 16279               	Sensors_ResetHumidityBuffers:
 16280               	.LFB122:
 16281               	.LM1550:
 16282               	/* prologue: function */
 16283               	/* frame size = 0 */
 16284               	.LM1551:
 16285 5d18 1092 0000 		sts humidityBufferCounter,__zero_reg__
 16286 5d1c 1092 0000 		sts (humidityBufferCounter)+1,__zero_reg__
 16287               	.LM1552:
 16288 5d20 1092 0000 		sts humidityBufferToWriteTo,__zero_reg__
 16289               	.LBB706:
 16290               	.LM1553:
 16291 5d24 1092 0000 		sts okToSendHumidityBuffer,__zero_reg__
 16292 5d28 1092 0000 		sts okToSendHumidityBuffer+1,__zero_reg__
 16293               	/* epilogue start */
 16294               	.LBE706:
 16295               	.LM1554:
 16296 5d2c 0895      		ret
 16297               	.LFE122:
 16299               	.global	Sensors_Init
 16301               	Sensors_Init:
 16302               	.LFB114:
 16303               	.LM1555:
 16304 5d2e CF93      		push r28
 16305 5d30 DF93      		push r29
 16306               	/* prologue: function */
 16307               	/* frame size = 0 */
 16308               	.LBB707:
 16309               	.LBB708:
 16310               	.LM1556:
 16311 5d32 8AEC      		ldi r24,lo8(458)
 16312 5d34 91E0      		ldi r25,hi8(458)
 16313 5d36 42E0      		ldi r20,lo8(2)
 16314 5d38 DC01      		movw r26,r24
 16315 5d3a 4C93      		st X,r20
 16316               	.LBB709:
 16317               	.LM1557:
 16318 5d3c E0E2      		ldi r30,lo8(32)
 16319 5d3e F0E0      		ldi r31,hi8(32)
 16320               	/* #APP */
 16321               	 ;  264 "sensorsCS.c" 1
 16322 5d40 E491      		lpm r30, Z
 16323               		
 16324               	 ;  0 "" 2
 16325               	.LVL1363:
 16326               	/* #NOAPP */
 16327               	.LBE709:
 16328               	.LM1558:
 16329 5d42 1C92      		st X,__zero_reg__
 16330               	.LBE708:
 16331               	.LBE707:
 16332               	.LM1559:
 16333 5d44 A0E0      		ldi r26,lo8(512)
 16334 5d46 B2E0      		ldi r27,hi8(512)
 16335 5d48 1C96      		adiw r26,12
 16336 5d4a EC93      		st X,r30
 16337 5d4c 1C97      		sbiw r26,12
 16338               	.LBB710:
 16339               	.LBB711:
 16340               	.LM1560:
 16341 5d4e EC01      		movw r28,r24
 16342 5d50 4883      		st Y,r20
 16343               	.LBB712:
 16344               	.LM1561:
 16345 5d52 E1E2      		ldi r30,lo8(33)
 16346 5d54 F0E0      		ldi r31,hi8(33)
 16347               	.LVL1364:
 16348               	/* #APP */
 16349               	 ;  264 "sensorsCS.c" 1
 16350 5d56 E491      		lpm r30, Z
 16351               		
 16352               	 ;  0 "" 2
 16353               	.LVL1365:
 16354               	/* #NOAPP */
 16355               	.LBE712:
 16356               	.LM1562:
 16357 5d58 1882      		st Y,__zero_reg__
 16358               	.LBE711:
 16359               	.LBE710:
 16360               	.LM1563:
 16361 5d5a 1D96      		adiw r26,13
 16362 5d5c EC93      		st X,r30
 16363 5d5e 1D97      		sbiw r26,13
 16364               	.LBB713:
 16365               	.LBB714:
 16366               	.LM1564:
 16367 5d60 4883      		st Y,r20
 16368               	.LBB715:
 16369               	.LM1565:
 16370 5d62 E4E2      		ldi r30,lo8(36)
 16371 5d64 F0E0      		ldi r31,hi8(36)
 16372               	.LVL1366:
 16373               	/* #APP */
 16374               	 ;  264 "sensorsCS.c" 1
 16375 5d66 E491      		lpm r30, Z
 16376               		
 16377               	 ;  0 "" 2
 16378               	.LVL1367:
 16379               	/* #NOAPP */
 16380               	.LBE715:
 16381               	.LM1566:
 16382 5d68 1882      		st Y,__zero_reg__
 16383               	.LBE714:
 16384               	.LBE713:
 16385               	.LM1567:
 16386 5d6a 20E4      		ldi r18,lo8(576)
 16387 5d6c 32E0      		ldi r19,hi8(576)
 16388 5d6e E901      		movw r28,r18
 16389 5d70 EC87      		std Y+12,r30
 16390               	.LBB716:
 16391               	.LBB717:
 16392               	.LM1568:
 16393 5d72 FC01      		movw r30,r24
 16394               	.LVL1368:
 16395 5d74 4083      		st Z,r20
 16396               	.LBB718:
 16397               	.LM1569:
 16398 5d76 E5E2      		ldi r30,lo8(37)
 16399 5d78 F0E0      		ldi r31,hi8(37)
 16400               	/* #APP */
 16401               	 ;  264 "sensorsCS.c" 1
 16402 5d7a E491      		lpm r30, Z
 16403               		
 16404               	 ;  0 "" 2
 16405               	.LVL1369:
 16406               	/* #NOAPP */
 16407               	.LBE718:
 16408               	.LM1570:
 16409 5d7c EC01      		movw r28,r24
 16410 5d7e 1882      		st Y,__zero_reg__
 16411               	.LBE717:
 16412               	.LBE716:
 16413               	.LM1571:
 16414 5d80 E901      		movw r28,r18
 16415 5d82 ED87      		std Y+13,r30
 16416               	.LM1572:
 16417 5d84 61E0      		ldi r22,lo8(1)
 16418 5d86 9096      		adiw r26,32
 16419 5d88 6C93      		st X,r22
 16420 5d8a 9097      		sbiw r26,32
 16421               	.LM1573:
 16422 5d8c 70E2      		ldi r23,lo8(32)
 16423 5d8e 9196      		adiw r26,33
 16424 5d90 7C93      		st X,r23
 16425 5d92 9197      		sbiw r26,33
 16426               	.LM1574:
 16427 5d94 9896      		adiw r26,40
 16428 5d96 6C93      		st X,r22
 16429 5d98 9897      		sbiw r26,40
 16430               	.LM1575:
 16431 5d9a 88E2      		ldi r24,lo8(40)
 16432 5d9c 9996      		adiw r26,41
 16433 5d9e 8C93      		st X,r24
 16434 5da0 9997      		sbiw r26,41
 16435               	.LM1576:
 16436 5da2 D096      		adiw r26,48
 16437 5da4 6C93      		st X,r22
 16438 5da6 D097      		sbiw r26,48
 16439               	.LM1577:
 16440 5da8 80E3      		ldi r24,lo8(48)
 16441 5daa D196      		adiw r26,49
 16442 5dac 8C93      		st X,r24
 16443 5dae D197      		sbiw r26,49
 16444               	.LM1578:
 16445 5db0 D896      		adiw r26,56
 16446 5db2 6C93      		st X,r22
 16447 5db4 D897      		sbiw r26,56
 16448               	.LM1579:
 16449 5db6 88E0      		ldi r24,lo8(8)
 16450 5db8 D996      		adiw r26,57
 16451 5dba 8C93      		st X,r24
 16452 5dbc D997      		sbiw r26,57
 16453               	.LM1580:
 16454 5dbe 1496      		adiw r26,4
 16455 5dc0 8C91      		ld r24,X
 16456 5dc2 1497      		sbiw r26,4
 16457 5dc4 887F      		andi r24,lo8(-8)
 16458 5dc6 8460      		ori r24,lo8(4)
 16459 5dc8 1496      		adiw r26,4
 16460 5dca 8C93      		st X,r24
 16461 5dcc 1497      		sbiw r26,4
 16462               	.LM1581:
 16463 5dce 1296      		adiw r26,2
 16464 5dd0 7C93      		st X,r23
 16465 5dd2 1297      		sbiw r26,2
 16466               	.LM1582:
 16467 5dd4 1396      		adiw r26,3
 16468 5dd6 8C91      		ld r24,X
 16469 5dd8 1397      		sbiw r26,3
 16470 5dda 806C      		ori r24,lo8(-64)
 16471 5ddc 1396      		adiw r26,3
 16472 5dde 8C93      		st X,r24
 16473 5de0 1397      		sbiw r26,3
 16474               	.LM1583:
 16475 5de2 1196      		adiw r26,1
 16476 5de4 8C91      		ld r24,X
 16477 5de6 1197      		sbiw r26,1
 16478 5de8 8860      		ori r24,lo8(8)
 16479 5dea 1196      		adiw r26,1
 16480 5dec 8C93      		st X,r24
 16481 5dee 1197      		sbiw r26,1
 16482               	.LM1584:
 16483 5df0 9896      		adiw r26,40
 16484 5df2 8C91      		ld r24,X
 16485 5df4 9897      		sbiw r26,40
 16486 5df6 8068      		ori r24,lo8(-128)
 16487 5df8 9896      		adiw r26,40
 16488 5dfa 8C93      		st X,r24
 16489 5dfc 9897      		sbiw r26,40
 16490               	.LM1585:
 16491 5dfe D096      		adiw r26,48
 16492 5e00 8C91      		ld r24,X
 16493 5e02 D097      		sbiw r26,48
 16494 5e04 8068      		ori r24,lo8(-128)
 16495 5e06 D096      		adiw r26,48
 16496 5e08 8C93      		st X,r24
 16497 5e0a D097      		sbiw r26,48
 16498               	.LM1586:
 16499 5e0c 9096      		adiw r26,32
 16500 5e0e 8C91      		ld r24,X
 16501 5e10 9097      		sbiw r26,32
 16502 5e12 8068      		ori r24,lo8(-128)
 16503 5e14 9096      		adiw r26,32
 16504 5e16 8C93      		st X,r24
 16505 5e18 9097      		sbiw r26,32
 16506               	.LM1587:
 16507 5e1a D896      		adiw r26,56
 16508 5e1c 8C91      		ld r24,X
 16509 5e1e D897      		sbiw r26,56
 16510 5e20 8068      		ori r24,lo8(-128)
 16511 5e22 D896      		adiw r26,56
 16512 5e24 8C93      		st X,r24
 16513 5e26 D897      		sbiw r26,56
 16514               	.LM1588:
 16515 5e28 6C93      		st X,r22
 16516               	.LBB719:
 16517               	.LBB720:
 16518               	.LBB721:
 16519               	.LBB722:
 16520               	.LM1589:
 16521 5e2a 40E0      		ldi r20,lo8(-28672)
 16522 5e2c 50E9      		ldi r21,hi8(-28672)
 16523 5e2e CA01      		movw r24,r20
 16524               	.LVL1370:
 16525               	/* #APP */
 16526               	 ;  105 "/usr/local/CrossPack-AVR-20100115/lib/gcc/avr/4.3.3/../../../../avr/include/util/delay_bas
 16527 5e30 0197      		1: sbiw r24,1
 16528 5e32 01F4      		brne 1b
 16529               	 ;  0 "" 2
 16530               	/* #NOAPP */
 16531               	.LBE722:
 16532               	.LBE721:
 16533               	.LBE720:
 16534               	.LBE719:
 16535               	.LM1590:
 16536 5e34 5696      		adiw r26,22
 16537 5e36 8D91      		ld r24,X+
 16538 5e38 9C91      		ld r25,X
 16539 5e3a 5797      		sbiw r26,22+1
 16540               	.LVL1371:
 16541 5e3c 8093 0000 		sts zeroOffsetA,r24
 16542 5e40 9093 0000 		sts (zeroOffsetA)+1,r25
 16543               	.LM1591:
 16544 5e44 8FE0      		ldi r24,lo8(15)
 16545 5e46 F901      		movw r30,r18
 16546               	.LVL1372:
 16547 5e48 80A3      		std Z+32,r24
 16548               	.LM1592:
 16549 5e4a 8CE0      		ldi r24,lo8(12)
 16550 5e4c 81A3      		std Z+33,r24
 16551               	.LM1593:
 16552 5e4e 8481      		ldd r24,Z+4
 16553 5e50 887F      		andi r24,lo8(-8)
 16554 5e52 8460      		ori r24,lo8(4)
 16555 5e54 8483      		std Z+4,r24
 16556               	.LM1594:
 16557 5e56 7283      		std Z+2,r23
 16558               	.LM1595:
 16559 5e58 8381      		ldd r24,Z+3
 16560 5e5a 806C      		ori r24,lo8(-64)
 16561 5e5c 8383      		std Z+3,r24
 16562               	.LM1596:
 16563 5e5e 8181      		ldd r24,Z+1
 16564 5e60 8861      		ori r24,lo8(24)
 16565 5e62 8183      		std Z+1,r24
 16566               	.LM1597:
 16567 5e64 80A1      		ldd r24,Z+32
 16568 5e66 8068      		ori r24,lo8(-128)
 16569 5e68 80A3      		std Z+32,r24
 16570               	.LM1598:
 16571 5e6a 6083      		st Z,r22
 16572               	.LBB723:
 16573               	.LBB724:
 16574               	.LBB725:
 16575               	.LBB726:
 16576               	.LM1599:
 16577 5e6c CA01      		movw r24,r20
 16578               	.LVL1373:
 16579               	/* #APP */
 16580               	 ;  105 "/usr/local/CrossPack-AVR-20100115/lib/gcc/avr/4.3.3/../../../../avr/include/util/delay_bas
 16581 5e6e 0197      		1: sbiw r24,1
 16582 5e70 01F4      		brne 1b
 16583               	 ;  0 "" 2
 16584               	/* #NOAPP */
 16585               	.LBE726:
 16586               	.LBE725:
 16587               	.LBE724:
 16588               	.LBE723:
 16589               	.LM1600:
 16590 5e72 D901      		movw r26,r18
 16591 5e74 5696      		adiw r26,22
 16592 5e76 8D91      		ld r24,X+
 16593 5e78 9C91      		ld r25,X
 16594 5e7a 5797      		sbiw r26,22+1
 16595               	.LVL1374:
 16596 5e7c 8093 0000 		sts zeroOffsetB,r24
 16597 5e80 9093 0000 		sts (zeroOffsetB)+1,r25
 16598               	.LM1601:
 16599 5e84 E0E2      		ldi r30,lo8(1568)
 16600 5e86 F6E0      		ldi r31,hi8(1568)
 16601 5e88 84E0      		ldi r24,lo8(4)
 16602 5e8a 8183      		std Z+1,r24
 16603               	.LM1602:
 16604 5e8c 8583      		std Z+5,r24
 16605               	.LM1603:
 16606 5e8e E0E4      		ldi r30,lo8(2368)
 16607 5e90 F9E0      		ldi r31,hi8(2368)
 16608 5e92 8FEF      		ldi r24,lo8(767)
 16609 5e94 92E0      		ldi r25,hi8(767)
 16610 5e96 86A3      		std Z+38,r24
 16611 5e98 97A3      		std Z+39,r25
 16612               	.LM1604:
 16613 5e9a 8081      		ld r24,Z
 16614 5e9c 807F      		andi r24,lo8(-16)
 16615 5e9e 8560      		ori r24,lo8(5)
 16616 5ea0 8083      		st Z,r24
 16617               	.LM1605:
 16618 5ea2 8681      		ldd r24,Z+6
 16619 5ea4 8360      		ori r24,lo8(3)
 16620 5ea6 8683      		std Z+6,r24
 16621               	.LM1606:
 16622 5ea8 0E94 0000 		call Sensors_ResetTemperatureBuffers
 16623               	.LM1607:
 16624 5eac 0E94 0000 		call Sensors_ResetRespirationBuffers
 16625               	.LM1608:
 16626 5eb0 0E94 0000 		call Sensors_ResetEKGBuffers
 16627               	.LM1609:
 16628 5eb4 0E94 0000 		call Sensors_ResetHumidityBuffers
 16629               	/* epilogue start */
 16630               	.LM1610:
 16631 5eb8 DF91      		pop r29
 16632 5eba CF91      		pop r28
 16633 5ebc 0895      		ret
 16634               	.LFE114:
 16636               	.global	__vector_83
 16638               	__vector_83:
 16639               	.LFB123:
 16640               	.LM1611:
 16641 5ebe 1F92      		push __zero_reg__
 16642 5ec0 0F92      		push r0
 16643 5ec2 0FB6      		in r0,__SREG__
 16644 5ec4 0F92      		push r0
 16645 5ec6 0BB6      		in r0,59-0
 16646 5ec8 0F92      		push r0
 16647 5eca 1124      		clr __zero_reg__
 16648 5ecc EF92      		push r14
 16649 5ece FF92      		push r15
 16650 5ed0 1F93      		push r17
 16651 5ed2 2F93      		push r18
 16652 5ed4 3F93      		push r19
 16653 5ed6 4F93      		push r20
 16654 5ed8 5F93      		push r21
 16655 5eda 6F93      		push r22
 16656 5edc 7F93      		push r23
 16657 5ede 8F93      		push r24
 16658 5ee0 9F93      		push r25
 16659 5ee2 AF93      		push r26
 16660 5ee4 BF93      		push r27
 16661 5ee6 CF93      		push r28
 16662 5ee8 DF93      		push r29
 16663 5eea EF93      		push r30
 16664 5eec FF93      		push r31
 16665               	/* prologue: Signal */
 16666               	/* frame size = 0 */
 16667               	.LM1612:
 16668 5eee 8091 0000 		lds r24,recording
 16669 5ef2 8823      		tst r24
 16670 5ef4 01F4      		brne .+2
 16671 5ef6 00C0      		rjmp .L935
 16672               	.LM1613:
 16673 5ef8 8091 0000 		lds r24,wantToRecordEKG
 16674 5efc 8823      		tst r24
 16675 5efe 01F4      		brne .+2
 16676 5f00 00C0      		rjmp .L936
 16677 5f02 8091 0000 		lds r24,EKGBufferToWriteTo
 16678 5f06 C82F      		mov r28,r24
 16679 5f08 D0E0      		ldi r29,lo8(0)
 16680 5f0a FE01      		movw r30,r28
 16681 5f0c E050      		subi r30,lo8(-(okToSendEKGBuffer))
 16682 5f0e F040      		sbci r31,hi8(-(okToSendEKGBuffer))
 16683 5f10 8081      		ld r24,Z
 16684 5f12 8823      		tst r24
 16685 5f14 01F0      		breq .+2
 16686 5f16 00C0      		rjmp .L936
 16687               	.LM1614:
 16688 5f18 8091 0000 		lds r24,EKGBufferCounter
 16689 5f1c 9091 0000 		lds r25,(EKGBufferCounter)+1
 16690 5f20 892B      		or r24,r25
 16691 5f22 01F4      		brne .L937
 16692               	.LM1615:
 16693 5f24 0E94 0000 		call Time_Get32BitTimer
 16694 5f28 CC0F      		lsl r28
 16695 5f2a DD1F      		rol r29
 16696 5f2c CC0F      		lsl r28
 16697 5f2e DD1F      		rol r29
 16698 5f30 C050      		subi r28,lo8(-(EKGSampleStartTime))
 16699 5f32 D040      		sbci r29,hi8(-(EKGSampleStartTime))
 16700 5f34 6883      		st Y,r22
 16701 5f36 7983      		std Y+1,r23
 16702 5f38 8A83      		std Y+2,r24
 16703 5f3a 9B83      		std Y+3,r25
 16704               	.L937:
 16705               	.LM1616:
 16706 5f3c 6091 0000 		lds r22,EKGBufferToWriteTo
 16707 5f40 A62F      		mov r26,r22
 16708 5f42 B0E0      		ldi r27,lo8(0)
 16709 5f44 2091 0000 		lds r18,EKGBufferCounter
 16710 5f48 3091 0000 		lds r19,(EKGBufferCounter)+1
 16711               	.LBB727:
 16712               	.LBB728:
 16713               	.LM1617:
 16714 5f4c 4091 1002 		lds r20,528
 16715 5f50 5091 1102 		lds r21,(528)+1
 16716               	.LBE728:
 16717               	.LBE727:
 16718               	.LM1618:
 16719 5f54 8CE2      		ldi r24,lo8(300)
 16720 5f56 91E0      		ldi r25,hi8(300)
 16721 5f58 A89F      		mul r26,r24
 16722 5f5a F001      		movw r30,r0
 16723 5f5c A99F      		mul r26,r25
 16724 5f5e F00D      		add r31,r0
 16725 5f60 B89F      		mul r27,r24
 16726 5f62 F00D      		add r31,r0
 16727 5f64 1124      		clr r1
 16728 5f66 E20F      		add r30,r18
 16729 5f68 F31F      		adc r31,r19
 16730 5f6a EE0F      		lsl r30
 16731 5f6c FF1F      		rol r31
 16732 5f6e E050      		subi r30,lo8(-(EKGBuffer))
 16733 5f70 F040      		sbci r31,hi8(-(EKGBuffer))
 16734 5f72 4083      		st Z,r20
 16735 5f74 5183      		std Z+1,r21
 16736               	.LM1619:
 16737 5f76 2F5F      		subi r18,lo8(-(1))
 16738 5f78 3F4F      		sbci r19,hi8(-(1))
 16739 5f7a 2093 0000 		sts EKGBufferCounter,r18
 16740 5f7e 3093 0000 		sts (EKGBufferCounter)+1,r19
 16741               	.LM1620:
 16742 5f82 2C52      		subi r18,lo8(300)
 16743 5f84 3140      		sbci r19,hi8(300)
 16744 5f86 01F4      		brne .L936
 16745               	.LM1621:
 16746 5f88 1092 0000 		sts EKGBufferCounter,__zero_reg__
 16747 5f8c 1092 0000 		sts (EKGBufferCounter)+1,__zero_reg__
 16748               	.LM1622:
 16749 5f90 A050      		subi r26,lo8(-(okToSendEKGBuffer))
 16750 5f92 B040      		sbci r27,hi8(-(okToSendEKGBuffer))
 16751 5f94 81E0      		ldi r24,lo8(1)
 16752 5f96 8C93      		st X,r24
 16753               	.LM1623:
 16754 5f98 862F      		mov r24,r22
 16755 5f9a 8F5F      		subi r24,lo8(-(1))
 16756 5f9c 8093 0000 		sts EKGBufferToWriteTo,r24
 16757               	.LM1624:
 16758 5fa0 8330      		cpi r24,lo8(3)
 16759 5fa2 01F4      		brne .L936
 16760               	.LM1625:
 16761 5fa4 1092 0000 		sts EKGBufferToWriteTo,__zero_reg__
 16762               	.L936:
 16763               	.LM1626:
 16764 5fa8 8091 0000 		lds r24,HZ_RefeshCounter2
 16765 5fac 9091 0000 		lds r25,(HZ_RefeshCounter2)+1
 16766 5fb0 0196      		adiw r24,1
 16767 5fb2 8093 0000 		sts HZ_RefeshCounter2,r24
 16768 5fb6 9093 0000 		sts (HZ_RefeshCounter2)+1,r25
 16769               	.LM1627:
 16770 5fba 8091 0000 		lds r24,HZ_RefeshCounter2
 16771 5fbe 9091 0000 		lds r25,(HZ_RefeshCounter2)+1
 16772 5fc2 0697      		sbiw r24,6
 16773 5fc4 01F0      		breq .+2
 16774 5fc6 00C0      		rjmp .L935
 16775               	.LM1628:
 16776 5fc8 1092 0000 		sts HZ_RefeshCounter2,__zero_reg__
 16777 5fcc 1092 0000 		sts (HZ_RefeshCounter2)+1,__zero_reg__
 16778               	.LM1629:
 16779 5fd0 8091 0000 		lds r24,wantToRecordRespiration
 16780 5fd4 8823      		tst r24
 16781 5fd6 01F4      		brne .+2
 16782 5fd8 00C0      		rjmp .L935
 16783 5fda 8091 0000 		lds r24,respirationBufferToWriteTo
 16784 5fde C82F      		mov r28,r24
 16785 5fe0 D0E0      		ldi r29,lo8(0)
 16786 5fe2 FE01      		movw r30,r28
 16787 5fe4 E050      		subi r30,lo8(-(okToSendRespirationBuffer))
 16788 5fe6 F040      		sbci r31,hi8(-(okToSendRespirationBuffer))
 16789 5fe8 8081      		ld r24,Z
 16790 5fea 8823      		tst r24
 16791 5fec 01F0      		breq .+2
 16792 5fee 00C0      		rjmp .L935
 16793               	.LM1630:
 16794 5ff0 8091 0000 		lds r24,respirationBufferCounter
 16795 5ff4 9091 0000 		lds r25,(respirationBufferCounter)+1
 16796 5ff8 892B      		or r24,r25
 16797 5ffa 01F4      		brne .L938
 16798               	.LM1631:
 16799 5ffc 0E94 0000 		call Time_Get32BitTimer
 16800 6000 CC0F      		lsl r28
 16801 6002 DD1F      		rol r29
 16802 6004 CC0F      		lsl r28
 16803 6006 DD1F      		rol r29
 16804 6008 C050      		subi r28,lo8(-(respirationSampleStartTime))
 16805 600a D040      		sbci r29,hi8(-(respirationSampleStartTime))
 16806 600c 6883      		st Y,r22
 16807 600e 7983      		std Y+1,r23
 16808 6010 8A83      		std Y+2,r24
 16809 6012 9B83      		std Y+3,r25
 16810               	.L938:
 16811               	.LM1632:
 16812 6014 6091 0000 		lds r22,respirationBufferToWriteTo
 16813 6018 A62F      		mov r26,r22
 16814 601a B0E0      		ldi r27,lo8(0)
 16815 601c 2091 0000 		lds r18,respirationBufferCounter
 16816 6020 3091 0000 		lds r19,(respirationBufferCounter)+1
 16817               	.LBB729:
 16818               	.LBB730:
 16819               	.LM1633:
 16820 6024 4091 5002 		lds r20,592
 16821 6028 5091 5102 		lds r21,(592)+1
 16822               	.LBE730:
 16823               	.LBE729:
 16824               	.LM1634:
 16825 602c 82E3      		ldi r24,lo8(50)
 16826 602e 90E0      		ldi r25,hi8(50)
 16827 6030 A89F      		mul r26,r24
 16828 6032 F001      		movw r30,r0
 16829 6034 A99F      		mul r26,r25
 16830 6036 F00D      		add r31,r0
 16831 6038 B89F      		mul r27,r24
 16832 603a F00D      		add r31,r0
 16833 603c 1124      		clr r1
 16834 603e E20F      		add r30,r18
 16835 6040 F31F      		adc r31,r19
 16836 6042 EE0F      		lsl r30
 16837 6044 FF1F      		rol r31
 16838 6046 E050      		subi r30,lo8(-(respirationBuffer))
 16839 6048 F040      		sbci r31,hi8(-(respirationBuffer))
 16840 604a 4083      		st Z,r20
 16841 604c 5183      		std Z+1,r21
 16842               	.LM1635:
 16843 604e 2F5F      		subi r18,lo8(-(1))
 16844 6050 3F4F      		sbci r19,hi8(-(1))
 16845 6052 2093 0000 		sts respirationBufferCounter,r18
 16846 6056 3093 0000 		sts (respirationBufferCounter)+1,r19
 16847               	.LM1636:
 16848 605a 2233      		cpi r18,50
 16849 605c 3105      		cpc r19,__zero_reg__
 16850 605e 01F4      		brne .L935
 16851               	.LM1637:
 16852 6060 1092 0000 		sts respirationBufferCounter,__zero_reg__
 16853 6064 1092 0000 		sts (respirationBufferCounter)+1,__zero_reg__
 16854               	.LM1638:
 16855 6068 A050      		subi r26,lo8(-(okToSendRespirationBuffer))
 16856 606a B040      		sbci r27,hi8(-(okToSendRespirationBuffer))
 16857 606c 81E0      		ldi r24,lo8(1)
 16858 606e 8C93      		st X,r24
 16859               	.LM1639:
 16860 6070 862F      		mov r24,r22
 16861 6072 8F5F      		subi r24,lo8(-(1))
 16862 6074 8093 0000 		sts respirationBufferToWriteTo,r24
 16863               	.LM1640:
 16864 6078 8330      		cpi r24,lo8(3)
 16865 607a 01F4      		brne .L935
 16866               	.LM1641:
 16867 607c 1092 0000 		sts respirationBufferToWriteTo,__zero_reg__
 16868               	.L935:
 16869               	.LM1642:
 16870 6080 8091 0000 		lds r24,HZ_RefeshCounter
 16871 6084 9091 0000 		lds r25,(HZ_RefeshCounter)+1
 16872 6088 0196      		adiw r24,1
 16873 608a 8093 0000 		sts HZ_RefeshCounter,r24
 16874 608e 9093 0000 		sts (HZ_RefeshCounter)+1,r25
 16875               	.LM1643:
 16876 6092 8091 0000 		lds r24,HZ_RefeshCounter
 16877 6096 9091 0000 		lds r25,(HZ_RefeshCounter)+1
 16878 609a 8C52      		subi r24,lo8(300)
 16879 609c 9140      		sbci r25,hi8(300)
 16880 609e 01F0      		breq .+2
 16881 60a0 00C0      		rjmp .L944
 16882               	.LM1644:
 16883 60a2 1092 0000 		sts HZ_RefeshCounter,__zero_reg__
 16884 60a6 1092 0000 		sts (HZ_RefeshCounter)+1,__zero_reg__
 16885               	.LM1645:
 16886 60aa 8091 0000 		lds r24,UNIX_Time
 16887 60ae 9091 0000 		lds r25,(UNIX_Time)+1
 16888 60b2 A091 0000 		lds r26,(UNIX_Time)+2
 16889 60b6 B091 0000 		lds r27,(UNIX_Time)+3
 16890 60ba 0196      		adiw r24,1
 16891 60bc A11D      		adc r26,__zero_reg__
 16892 60be B11D      		adc r27,__zero_reg__
 16893 60c0 8093 0000 		sts UNIX_Time,r24
 16894 60c4 9093 0000 		sts (UNIX_Time)+1,r25
 16895 60c8 A093 0000 		sts (UNIX_Time)+2,r26
 16896 60cc B093 0000 		sts (UNIX_Time)+3,r27
 16897               	.LM1646:
 16898 60d0 8091 0000 		lds r24,rtcBlockCounter
 16899 60d4 8F5F      		subi r24,lo8(-(1))
 16900 60d6 8093 0000 		sts rtcBlockCounter,r24
 16901               	.LM1647:
 16902 60da 8823      		tst r24
 16903 60dc 01F4      		brne .L940
 16904               	.LM1648:
 16905 60de 81E0      		ldi r24,lo8(1)
 16906 60e0 8093 0000 		sts okToSendRTCBlock,r24
 16907               	.L940:
 16908               	.LM1649:
 16909 60e4 8091 0000 		lds r24,recording
 16910 60e8 8823      		tst r24
 16911 60ea 01F4      		brne .+2
 16912 60ec 00C0      		rjmp .L944
 16913               	.LM1650:
 16914 60ee 8091 0000 		lds r24,wantToRecordTemperature
 16915 60f2 8823      		tst r24
 16916 60f4 01F4      		brne .+2
 16917 60f6 00C0      		rjmp .L941
 16918 60f8 8091 0000 		lds r24,temperatureBufferToWriteTo
 16919 60fc C82F      		mov r28,r24
 16920 60fe D0E0      		ldi r29,lo8(0)
 16921 6100 FE01      		movw r30,r28
 16922 6102 E050      		subi r30,lo8(-(okToSendTemperatureBuffer))
 16923 6104 F040      		sbci r31,hi8(-(okToSendTemperatureBuffer))
 16924 6106 8081      		ld r24,Z
 16925 6108 8823      		tst r24
 16926 610a 01F0      		breq .+2
 16927 610c 00C0      		rjmp .L941
 16928               	.LM1651:
 16929 610e 8091 0000 		lds r24,temperatureBufferCounter
 16930 6112 9091 0000 		lds r25,(temperatureBufferCounter)+1
 16931 6116 892B      		or r24,r25
 16932 6118 01F4      		brne .L942
 16933               	.LM1652:
 16934 611a 0E94 0000 		call Time_Get32BitTimer
 16935 611e CC0F      		lsl r28
 16936 6120 DD1F      		rol r29
 16937 6122 CC0F      		lsl r28
 16938 6124 DD1F      		rol r29
 16939 6126 C050      		subi r28,lo8(-(temperatureSampleStartTime))
 16940 6128 D040      		sbci r29,hi8(-(temperatureSampleStartTime))
 16941 612a 6883      		st Y,r22
 16942 612c 7983      		std Y+1,r23
 16943 612e 8A83      		std Y+2,r24
 16944 6130 9B83      		std Y+3,r25
 16945               	.L942:
 16946               	.LM1653:
 16947 6132 6091 0000 		lds r22,temperatureBufferToWriteTo
 16948 6136 A62F      		mov r26,r22
 16949 6138 B0E0      		ldi r27,lo8(0)
 16950 613a 2091 0000 		lds r18,temperatureBufferCounter
 16951 613e 3091 0000 		lds r19,(temperatureBufferCounter)+1
 16952               	.LBB731:
 16953               	.LBB732:
 16954               	.LM1654:
 16955 6142 4091 1202 		lds r20,530
 16956 6146 5091 1302 		lds r21,(530)+1
 16957               	.LBE732:
 16958               	.LBE731:
 16959               	.LM1655:
 16960 614a FD01      		movw r30,r26
 16961 614c EE0F      		lsl r30
 16962 614e FF1F      		rol r31
 16963 6150 CD01      		movw r24,r26
 16964 6152 13E0      		ldi r17,3
 16965 6154 880F      	1:	lsl r24
 16966 6156 991F      		rol r25
 16967 6158 1A95      		dec r17
 16968 615a 01F4      		brne 1b
 16969 615c E80F      		add r30,r24
 16970 615e F91F      		adc r31,r25
 16971 6160 E20F      		add r30,r18
 16972 6162 F31F      		adc r31,r19
 16973 6164 EE0F      		lsl r30
 16974 6166 FF1F      		rol r31
 16975 6168 E050      		subi r30,lo8(-(temperatureBuffer))
 16976 616a F040      		sbci r31,hi8(-(temperatureBuffer))
 16977 616c 4083      		st Z,r20
 16978 616e 5183      		std Z+1,r21
 16979               	.LM1656:
 16980 6170 2F5F      		subi r18,lo8(-(1))
 16981 6172 3F4F      		sbci r19,hi8(-(1))
 16982 6174 2093 0000 		sts temperatureBufferCounter,r18
 16983 6178 3093 0000 		sts (temperatureBufferCounter)+1,r19
 16984               	.LM1657:
 16985 617c 2A30      		cpi r18,10
 16986 617e 3105      		cpc r19,__zero_reg__
 16987 6180 01F4      		brne .L941
 16988               	.LM1658:
 16989 6182 1092 0000 		sts temperatureBufferCounter,__zero_reg__
 16990 6186 1092 0000 		sts (temperatureBufferCounter)+1,__zero_reg__
 16991               	.LM1659:
 16992 618a A050      		subi r26,lo8(-(okToSendTemperatureBuffer))
 16993 618c B040      		sbci r27,hi8(-(okToSendTemperatureBuffer))
 16994 618e 81E0      		ldi r24,lo8(1)
 16995 6190 8C93      		st X,r24
 16996               	.LM1660:
 16997 6192 862F      		mov r24,r22
 16998 6194 8F5F      		subi r24,lo8(-(1))
 16999 6196 8093 0000 		sts temperatureBufferToWriteTo,r24
 17000               	.LM1661:
 17001 619a 8230      		cpi r24,lo8(2)
 17002 619c 01F4      		brne .L941
 17003               	.LM1662:
 17004 619e 1092 0000 		sts temperatureBufferToWriteTo,__zero_reg__
 17005               	.L941:
 17006               	.LM1663:
 17007 61a2 8091 0000 		lds r24,wantToRecordHumidity
 17008 61a6 8823      		tst r24
 17009 61a8 01F4      		brne .+2
 17010 61aa 00C0      		rjmp .L944
 17011 61ac 8091 0000 		lds r24,humidityBufferToWriteTo
 17012 61b0 C82F      		mov r28,r24
 17013 61b2 D0E0      		ldi r29,lo8(0)
 17014 61b4 FE01      		movw r30,r28
 17015 61b6 E050      		subi r30,lo8(-(okToSendHumidityBuffer))
 17016 61b8 F040      		sbci r31,hi8(-(okToSendHumidityBuffer))
 17017 61ba 8081      		ld r24,Z
 17018 61bc 8823      		tst r24
 17019 61be 01F0      		breq .+2
 17020 61c0 00C0      		rjmp .L944
 17021               	.LM1664:
 17022 61c2 8091 0000 		lds r24,humidityBufferCounter
 17023 61c6 9091 0000 		lds r25,(humidityBufferCounter)+1
 17024 61ca 892B      		or r24,r25
 17025 61cc 01F4      		brne .L943
 17026               	.LM1665:
 17027 61ce 0E94 0000 		call Time_Get32BitTimer
 17028 61d2 CC0F      		lsl r28
 17029 61d4 DD1F      		rol r29
 17030 61d6 CC0F      		lsl r28
 17031 61d8 DD1F      		rol r29
 17032 61da C050      		subi r28,lo8(-(humiditySampleStartTime))
 17033 61dc D040      		sbci r29,hi8(-(humiditySampleStartTime))
 17034 61de 6883      		st Y,r22
 17035 61e0 7983      		std Y+1,r23
 17036 61e2 8A83      		std Y+2,r24
 17037 61e4 9B83      		std Y+3,r25
 17038               	.L943:
 17039               	.LM1666:
 17040 61e6 1091 0000 		lds r17,humidityBufferToWriteTo
 17041 61ea E090 0000 		lds r14,humidityBufferCounter
 17042 61ee F090 0000 		lds r15,(humidityBufferCounter)+1
 17043 61f2 0E94 0000 		call Sensors_ReadHumidity
 17044 61f6 212F      		mov r18,r17
 17045 61f8 30E0      		ldi r19,lo8(0)
 17046 61fa F901      		movw r30,r18
 17047 61fc 13E0      		ldi r17,3
 17048 61fe EE0F      	1:	lsl r30
 17049 6200 FF1F      		rol r31
 17050 6202 1A95      		dec r17
 17051 6204 01F4      		brne 1b
 17052 6206 220F      		lsl r18
 17053 6208 331F      		rol r19
 17054 620a E20F      		add r30,r18
 17055 620c F31F      		adc r31,r19
 17056 620e EE0D      		add r30,r14
 17057 6210 FF1D      		adc r31,r15
 17058 6212 EE0F      		lsl r30
 17059 6214 FF1F      		rol r31
 17060 6216 E050      		subi r30,lo8(-(humidityBuffer))
 17061 6218 F040      		sbci r31,hi8(-(humidityBuffer))
 17062 621a 8083      		st Z,r24
 17063 621c 9183      		std Z+1,r25
 17064               	.LM1667:
 17065 621e 8091 0000 		lds r24,humidityBufferCounter
 17066 6222 9091 0000 		lds r25,(humidityBufferCounter)+1
 17067 6226 0196      		adiw r24,1
 17068 6228 8093 0000 		sts humidityBufferCounter,r24
 17069 622c 9093 0000 		sts (humidityBufferCounter)+1,r25
 17070               	.LM1668:
 17071 6230 0A97      		sbiw r24,10
 17072 6232 01F4      		brne .L944
 17073               	.LM1669:
 17074 6234 1092 0000 		sts humidityBufferCounter,__zero_reg__
 17075 6238 1092 0000 		sts (humidityBufferCounter)+1,__zero_reg__
 17076               	.LM1670:
 17077 623c 8091 0000 		lds r24,humidityBufferToWriteTo
 17078 6240 E82F      		mov r30,r24
 17079 6242 F0E0      		ldi r31,lo8(0)
 17080 6244 E050      		subi r30,lo8(-(okToSendHumidityBuffer))
 17081 6246 F040      		sbci r31,hi8(-(okToSendHumidityBuffer))
 17082 6248 91E0      		ldi r25,lo8(1)
 17083 624a 9083      		st Z,r25
 17084               	.LM1671:
 17085 624c 8F5F      		subi r24,lo8(-(1))
 17086 624e 8093 0000 		sts humidityBufferToWriteTo,r24
 17087               	.LM1672:
 17088 6252 8230      		cpi r24,lo8(2)
 17089 6254 01F4      		brne .L944
 17090               	.LM1673:
 17091 6256 1092 0000 		sts humidityBufferToWriteTo,__zero_reg__
 17092               	.L944:
 17093               	/* epilogue start */
 17094               	.LM1674:
 17095 625a FF91      		pop r31
 17096 625c EF91      		pop r30
 17097 625e DF91      		pop r29
 17098 6260 CF91      		pop r28
 17099 6262 BF91      		pop r27
 17100 6264 AF91      		pop r26
 17101 6266 9F91      		pop r25
 17102 6268 8F91      		pop r24
 17103 626a 7F91      		pop r23
 17104 626c 6F91      		pop r22
 17105 626e 5F91      		pop r21
 17106 6270 4F91      		pop r20
 17107 6272 3F91      		pop r19
 17108 6274 2F91      		pop r18
 17109 6276 1F91      		pop r17
 17110 6278 FF90      		pop r15
 17111 627a EF90      		pop r14
 17112 627c 0F90      		pop r0
 17113 627e 0BBE      		out 59-0,r0
 17114 6280 0F90      		pop r0
 17115 6282 0FBE      		out __SREG__,r0
 17116 6284 0F90      		pop r0
 17117 6286 1F90      		pop __zero_reg__
 17118 6288 1895      		reti
 17119               	.LFE123:
 17121               	.global	SP_ReadCalibrationByte
 17123               	SP_ReadCalibrationByte:
 17124               	.LFB124:
 17125               	.LM1675:
 17126               	.LVL1375:
 17127               	/* prologue: function */
 17128               	/* frame size = 0 */
 17129               	.LM1676:
 17130 628a AAEC      		ldi r26,lo8(458)
 17131 628c B1E0      		ldi r27,hi8(458)
 17132 628e 92E0      		ldi r25,lo8(2)
 17133 6290 9C93      		st X,r25
 17134               	.LBB733:
 17135               	.LM1677:
 17136 6292 E82F      		mov r30,r24
 17137 6294 F0E0      		ldi r31,lo8(0)
 17138               	.LVL1376:
 17139               	/* #APP */
 17140               	 ;  264 "sensorsCS.c" 1
 17141 6296 E491      		lpm r30, Z
 17142               		
 17143               	 ;  0 "" 2
 17144               	.LVL1377:
 17145               	/* #NOAPP */
 17146               	.LBE733:
 17147               	.LM1678:
 17148 6298 1C92      		st X,__zero_reg__
 17149               	.LM1679:
 17150 629a 8E2F      		mov r24,r30
 17151               	.LVL1378:
 17152               	/* epilogue start */
 17153 629c 0895      		ret
 17154               	.LFE124:
 17156               	.global	Uploader_getTime
 17158               	Uploader_getTime:
 17159               	.LFB127:
 17160               	.LM1680:
 17161 629e 0F93      		push r16
 17162 62a0 1F93      		push r17
 17163 62a2 CF93      		push r28
 17164 62a4 DF93      		push r29
 17165               	/* prologue: function */
 17166               	/* frame size = 0 */
 17167               	.LM1681:
 17168 62a6 84E5      		ldi r24,lo8(84)
 17169 62a8 0E94 0000 		call Debug_SendByte
 17170 62ac 8823      		tst r24
 17171 62ae 01F4      		brne .+2
 17172 62b0 00C0      		rjmp .L948
 17173 62b2 00E0      		ldi r16,lo8(0)
 17174               	.LVL1379:
 17175 62b4 10E0      		ldi r17,lo8(0)
 17176               	.LVL1380:
 17177               	.LBB734:
 17178               	.LBB735:
 17179               	.LBB736:
 17180               	.LBB737:
 17181               	.LM1682:
 17182 62b6 C6E6      		ldi r28,lo8(3686)
 17183 62b8 DEE0      		ldi r29,hi8(3686)
 17184               	.LVL1381:
 17185               	.L952:
 17186               	.LBE737:
 17187               	.LBE736:
 17188               	.LBE735:
 17189               	.LBE734:
 17190               	.LBB741:
 17191               	.LBB742:
 17192               	.LM1683:
 17193 62ba 2091 0000 		lds r18,Debug_writeLocation
 17194 62be 3091 0000 		lds r19,(Debug_writeLocation)+1
 17195 62c2 8091 0000 		lds r24,Debug_readLocation
 17196 62c6 9091 0000 		lds r25,(Debug_readLocation)+1
 17197               	.LVL1382:
 17198 62ca 2817      		cp r18,r24
 17199 62cc 3907      		cpc r19,r25
 17200 62ce 01F4      		brne .L956
 17201 62d0 00C0      		rjmp .L949
 17202               	.LVL1383:
 17203               	.L957:
 17204               	.LBE742:
 17205               	.LBE741:
 17206               	.LM1684:
 17207 62d2 1F5F      		subi r17,lo8(-(1))
 17208               	.LVL1384:
 17209               	.LM1685:
 17210 62d4 1430      		cpi r17,lo8(4)
 17211 62d6 01F4      		brne .L949
 17212               	.LM1686:
 17213 62d8 6091 0000 		lds r22,command+1
 17214 62dc 70E0      		ldi r23,lo8(0)
 17215               	.LVL1385:
 17216 62de 80E0      		ldi r24,lo8(0)
 17217 62e0 90E0      		ldi r25,hi8(0)
 17218               	.LVL1386:
 17219               	.LM1687:
 17220 62e2 982F      		mov r25,r24
 17221 62e4 872F      		mov r24,r23
 17222 62e6 762F      		mov r23,r22
 17223 62e8 6627      		clr r22
 17224               	.LVL1387:
 17225               	.LM1688:
 17226 62ea 2091 0000 		lds r18,command+2
 17227 62ee 620F      		add r22,r18
 17228 62f0 711D      		adc r23,__zero_reg__
 17229 62f2 811D      		adc r24,__zero_reg__
 17230 62f4 911D      		adc r25,__zero_reg__
 17231               	.LM1689:
 17232 62f6 982F      		mov r25,r24
 17233 62f8 872F      		mov r24,r23
 17234 62fa 762F      		mov r23,r22
 17235 62fc 6627      		clr r22
 17236               	.LVL1388:
 17237               	.LM1690:
 17238 62fe 2091 0000 		lds r18,command+3
 17239 6302 620F      		add r22,r18
 17240 6304 711D      		adc r23,__zero_reg__
 17241 6306 811D      		adc r24,__zero_reg__
 17242 6308 911D      		adc r25,__zero_reg__
 17243               	.LM1691:
 17244 630a 982F      		mov r25,r24
 17245 630c 872F      		mov r24,r23
 17246 630e 762F      		mov r23,r22
 17247 6310 6627      		clr r22
 17248               	.LVL1389:
 17249               	.LM1692:
 17250 6312 2091 0000 		lds r18,command+4
 17251 6316 620F      		add r22,r18
 17252 6318 711D      		adc r23,__zero_reg__
 17253 631a 811D      		adc r24,__zero_reg__
 17254 631c 911D      		adc r25,__zero_reg__
 17255 631e 0E94 0000 		call Time_Set
 17256               	.LVL1390:
 17257 6322 81E0      		ldi r24,lo8(1)
 17258 6324 00C0      		rjmp .L951
 17259               	.L949:
 17260               	.LBB743:
 17261               	.LBB740:
 17262               	.LBB739:
 17263               	.LBB738:
 17264               	.LM1693:
 17265 6326 CE01      		movw r24,r28
 17266               	.LVL1391:
 17267               	/* #APP */
 17268               	 ;  105 "/usr/local/CrossPack-AVR-20100115/lib/gcc/avr/4.3.3/../../../../avr/include/util/delay_bas
 17269 6328 0197      		1: sbiw r24,1
 17270 632a 01F4      		brne 1b
 17271               	 ;  0 "" 2
 17272               	/* #NOAPP */
 17273               	.LBE738:
 17274               	.LBE739:
 17275               	.LBE740:
 17276               	.LBE743:
 17277               	.LM1694:
 17278 632c 0F5F      		subi r16,lo8(-(1))
 17279               	.LM1695:
 17280 632e 0536      		cpi r16,lo8(101)
 17281 6330 01F4      		brne .L952
 17282               	.L948:
 17283 6332 80E0      		ldi r24,lo8(0)
 17284               	.LVL1392:
 17285               	.L951:
 17286               	/* epilogue start */
 17287               	.LM1696:
 17288 6334 DF91      		pop r29
 17289 6336 CF91      		pop r28
 17290 6338 1F91      		pop r17
 17291               	.LVL1393:
 17292 633a 0F91      		pop r16
 17293               	.LVL1394:
 17294 633c 0895      		ret
 17295               	.LVL1395:
 17296               	.L956:
 17297               	.LM1697:
 17298 633e 80E0      		ldi r24,lo8(0)
 17299 6340 0E94 0000 		call Debug_GetByte
 17300 6344 E12F      		mov r30,r17
 17301 6346 F0E0      		ldi r31,lo8(0)
 17302               	.LVL1396:
 17303 6348 E050      		subi r30,lo8(-(command))
 17304 634a F040      		sbci r31,hi8(-(command))
 17305               	.LVL1397:
 17306 634c 8183      		std Z+1,r24
 17307               	.LM1698:
 17308 634e 0E94 0000 		call Debug_SendByte
 17309               	.LVL1398:
 17310 6352 8823      		tst r24
 17311 6354 01F0      		breq .+2
 17312 6356 00C0      		rjmp .L957
 17313 6358 00C0      		rjmp .L948
 17314               	.LFE127:
 17316               	.global	Uploader_eraseFile
 17318               	Uploader_eraseFile:
 17319               	.LFB135:
 17320               	.LM1699:
 17321 635a FF92      		push r15
 17322 635c 0F93      		push r16
 17323 635e 1F93      		push r17
 17324 6360 CF93      		push r28
 17325 6362 DF93      		push r29
 17326               	/* prologue: function */
 17327               	/* frame size = 0 */
 17328               	.LM1700:
 17329 6364 85E4      		ldi r24,lo8(69)
 17330 6366 0E94 0000 		call Debug_SendByte
 17331 636a 8823      		tst r24
 17332 636c 01F4      		brne .+2
 17333 636e 00C0      		rjmp .L959
 17334 6370 00E0      		ldi r16,lo8(0)
 17335               	.LVL1399:
 17336 6372 FF24      		clr r15
 17337               	.LVL1400:
 17338 6374 10E0      		ldi r17,lo8(0)
 17339               	.LVL1401:
 17340               	.LBB744:
 17341               	.LBB745:
 17342               	.LBB746:
 17343               	.LBB747:
 17344               	.LM1701:
 17345 6376 C6E6      		ldi r28,lo8(3686)
 17346 6378 DEE0      		ldi r29,hi8(3686)
 17347               	.LVL1402:
 17348               	.L968:
 17349               	.LBE747:
 17350               	.LBE746:
 17351               	.LBE745:
 17352               	.LBE744:
 17353               	.LBB751:
 17354               	.LBB752:
 17355               	.LM1702:
 17356 637a 2091 0000 		lds r18,Debug_writeLocation
 17357 637e 3091 0000 		lds r19,(Debug_writeLocation)+1
 17358 6382 8091 0000 		lds r24,Debug_readLocation
 17359 6386 9091 0000 		lds r25,(Debug_readLocation)+1
 17360 638a 2817      		cp r18,r24
 17361 638c 3907      		cpc r19,r25
 17362 638e 01F0      		breq .+2
 17363 6390 00C0      		rjmp .L974
 17364 6392 00C0      		rjmp .L960
 17365               	.L969:
 17366               	.LBE752:
 17367               	.LBE751:
 17368               	.LM1703:
 17369 6394 80E0      		ldi r24,lo8(0)
 17370 6396 0E94 0000 		call Debug_GetByte
 17371               	.LVL1403:
 17372 639a 082F      		mov r16,r24
 17373               	.LM1704:
 17374 639c 0E94 0000 		call Debug_SendByte
 17375 63a0 8823      		tst r24
 17376 63a2 01F4      		brne .L975
 17377 63a4 00C0      		rjmp .L959
 17378               	.LVL1404:
 17379               	.L979:
 17380               	.LM1705:
 17381 63a6 80E0      		ldi r24,lo8(0)
 17382 63a8 0E94 0000 		call Debug_GetByte
 17383               	.LVL1405:
 17384 63ac E12F      		mov r30,r17
 17385 63ae F0E0      		ldi r31,lo8(0)
 17386               	.LVL1406:
 17387 63b0 E050      		subi r30,lo8(-(fileToErase-1))
 17388 63b2 F040      		sbci r31,hi8(-(fileToErase-1))
 17389               	.LVL1407:
 17390 63b4 8083      		st Z,r24
 17391               	.LM1706:
 17392 63b6 0E94 0000 		call Debug_SendByte
 17393               	.LVL1408:
 17394 63ba 8823      		tst r24
 17395 63bc 01F0      		breq .L959
 17396               	.LM1707:
 17397 63be 1F5F      		subi r17,lo8(-(1))
 17398               	.LVL1409:
 17399               	.LM1708:
 17400 63c0 802F      		mov r24,r16
 17401 63c2 90E0      		ldi r25,lo8(0)
 17402               	.LVL1410:
 17403 63c4 0196      		adiw r24,1
 17404               	.LVL1411:
 17405 63c6 E12F      		mov r30,r17
 17406 63c8 F0E0      		ldi r31,lo8(0)
 17407               	.LVL1412:
 17408 63ca E817      		cp r30,r24
 17409 63cc F907      		cpc r31,r25
 17410 63ce 01F4      		brne .L960
 17411               	.LVL1413:
 17412               	.LM1709:
 17413 63d0 E050      		subi r30,lo8(-(fileToErase))
 17414 63d2 F040      		sbci r31,hi8(-(fileToErase))
 17415               	.LVL1414:
 17416 63d4 1082      		st Z,__zero_reg__
 17417               	.LM1710:
 17418 63d6 81E0      		ldi r24,lo8(1)
 17419               	.LVL1415:
 17420 63d8 8093 0000 		sts okToEraseFile,r24
 17421               	.L963:
 17422               	.LM1711:
 17423 63dc 8091 0000 		lds r24,okToEraseFile
 17424 63e0 8823      		tst r24
 17425 63e2 01F4      		brne .L963
 17426               	.LM1712:
 17427 63e4 8091 0000 		lds r24,eraseFileReturn
 17428 63e8 8823      		tst r24
 17429 63ea 01F4      		brne .L964
 17430               	.LM1713:
 17431 63ec 84E5      		ldi r24,lo8(84)
 17432 63ee 00C0      		rjmp .L978
 17433               	.L964:
 17434               	.LM1714:
 17435 63f0 86E4      		ldi r24,lo8(70)
 17436               	.L978:
 17437 63f2 0E94 0000 		call Debug_SendByte
 17438               	.LVL1416:
 17439 63f6 8823      		tst r24
 17440 63f8 01F0      		breq .L966
 17441 63fa 81E0      		ldi r24,lo8(1)
 17442 63fc 00C0      		rjmp .L966
 17443               	.LVL1417:
 17444               	.L975:
 17445 63fe 11E0      		ldi r17,lo8(1)
 17446               	.LVL1418:
 17447               	.L960:
 17448               	.LBB753:
 17449               	.LBB750:
 17450               	.LBB749:
 17451               	.LBB748:
 17452               	.LM1715:
 17453 6400 CE01      		movw r24,r28
 17454               	.LVL1419:
 17455               	/* #APP */
 17456               	 ;  105 "/usr/local/CrossPack-AVR-20100115/lib/gcc/avr/4.3.3/../../../../avr/include/util/delay_bas
 17457 6402 0197      		1: sbiw r24,1
 17458 6404 01F4      		brne 1b
 17459               	 ;  0 "" 2
 17460               	/* #NOAPP */
 17461               	.LBE748:
 17462               	.LBE749:
 17463               	.LBE750:
 17464               	.LBE753:
 17465               	.LM1716:
 17466 6406 F394      		inc r15
 17467               	.LM1717:
 17468 6408 85E6      		ldi r24,lo8(101)
 17469               	.LVL1420:
 17470 640a F816      		cp r15,r24
 17471 640c 01F0      		breq .+2
 17472 640e 00C0      		rjmp .L968
 17473               	.L959:
 17474 6410 80E0      		ldi r24,lo8(0)
 17475               	.L966:
 17476               	/* epilogue start */
 17477               	.LM1718:
 17478 6412 DF91      		pop r29
 17479 6414 CF91      		pop r28
 17480 6416 1F91      		pop r17
 17481               	.LVL1421:
 17482 6418 0F91      		pop r16
 17483               	.LVL1422:
 17484 641a FF90      		pop r15
 17485               	.LVL1423:
 17486 641c 0895      		ret
 17487               	.LVL1424:
 17488               	.L974:
 17489               	.LM1719:
 17490 641e 1123      		tst r17
 17491 6420 01F4      		brne .+2
 17492 6422 00C0      		rjmp .L969
 17493 6424 00C0      		rjmp .L979
 17494               	.LFE135:
 17496               	.global	Uploader_ClearCRC
 17498               	Uploader_ClearCRC:
 17499               	.LFB138:
 17500               	.LM1720:
 17501               	/* prologue: function */
 17502               	/* frame size = 0 */
 17503               	.LM1721:
 17504 6426 8FEF      		ldi r24,lo8(-1)
 17505 6428 9FEF      		ldi r25,hi8(-1)
 17506 642a AFEF      		ldi r26,hlo8(-1)
 17507 642c BFEF      		ldi r27,hhi8(-1)
 17508 642e 8093 0000 		sts uploadCRC,r24
 17509 6432 9093 0000 		sts (uploadCRC)+1,r25
 17510 6436 A093 0000 		sts (uploadCRC)+2,r26
 17511 643a B093 0000 		sts (uploadCRC)+3,r27
 17512               	/* epilogue start */
 17513               	.LM1722:
 17514 643e 0895      		ret
 17515               	.LFE138:
 17517               	.global	Uploader_WriteCRC
 17519               	Uploader_WriteCRC:
 17520               	.LFB139:
 17521               	.LM1723:
 17522 6440 EF92      		push r14
 17523 6442 FF92      		push r15
 17524 6444 0F93      		push r16
 17525 6446 1F93      		push r17
 17526               	/* prologue: function */
 17527               	/* frame size = 0 */
 17528               	.LM1724:
 17529 6448 E090 0000 		lds r14,uploadCRC
 17530 644c F090 0000 		lds r15,(uploadCRC)+1
 17531 6450 0091 0000 		lds r16,(uploadCRC)+2
 17532 6454 1091 0000 		lds r17,(uploadCRC)+3
 17533               	.LVL1425:
 17534 6458 E094      		com r14
 17535 645a F094      		com r15
 17536 645c 0095      		com r16
 17537 645e 1095      		com r17
 17538               	.LM1725:
 17539 6460 812F      		mov r24,r17
 17540 6462 9927      		clr r25
 17541 6464 AA27      		clr r26
 17542 6466 BB27      		clr r27
 17543 6468 0E94 0000 		call Debug_SendByte
 17544 646c 8823      		tst r24
 17545 646e 01F0      		breq .L983
 17546               	.LM1726:
 17547 6470 C801      		movw r24,r16
 17548 6472 AA27      		clr r26
 17549 6474 BB27      		clr r27
 17550 6476 0E94 0000 		call Debug_SendByte
 17551 647a 8823      		tst r24
 17552 647c 01F0      		breq .L983
 17553               	.LM1727:
 17554 647e BB27      		clr r27
 17555 6480 A12F      		mov r26,r17
 17556 6482 902F      		mov r25,r16
 17557 6484 8F2D      		mov r24,r15
 17558 6486 0E94 0000 		call Debug_SendByte
 17559 648a 8823      		tst r24
 17560 648c 01F0      		breq .L983
 17561               	.LM1728:
 17562 648e 8E2D      		mov r24,r14
 17563 6490 0E94 0000 		call Debug_SendByte
 17564 6494 8823      		tst r24
 17565 6496 01F0      		breq .L985
 17566 6498 81E0      		ldi r24,lo8(1)
 17567 649a 00C0      		rjmp .L985
 17568               	.L983:
 17569 649c 80E0      		ldi r24,lo8(0)
 17570               	.L985:
 17571               	/* epilogue start */
 17572               	.LM1729:
 17573 649e 1F91      		pop r17
 17574 64a0 0F91      		pop r16
 17575 64a2 FF90      		pop r15
 17576 64a4 EF90      		pop r14
 17577               	.LVL1426:
 17578 64a6 0895      		ret
 17579               	.LFE139:
 17581               	.global	Uploader_uploadFile
 17583               	Uploader_uploadFile:
 17584               	.LFB134:
 17585               	.LM1730:
 17586 64a8 5F92      		push r5
 17587 64aa 6F92      		push r6
 17588 64ac 7F92      		push r7
 17589 64ae 8F92      		push r8
 17590 64b0 9F92      		push r9
 17591 64b2 AF92      		push r10
 17592 64b4 BF92      		push r11
 17593 64b6 CF92      		push r12
 17594 64b8 DF92      		push r13
 17595 64ba EF92      		push r14
 17596 64bc FF92      		push r15
 17597 64be 0F93      		push r16
 17598 64c0 1F93      		push r17
 17599 64c2 CF93      		push r28
 17600 64c4 DF93      		push r29
 17601               	/* prologue: function */
 17602               	/* frame size = 0 */
 17603               	.LM1731:
 17604 64c6 81E0      		ldi r24,lo8(1)
 17605 64c8 8093 0000 		sts uploading,r24
 17606 64cc 88EE      		ldi r24,lo8(1000)
 17607 64ce 93E0      		ldi r25,hi8(1000)
 17608               	.LVL1427:
 17609               	.LBB754:
 17610               	.LBB755:
 17611               	.LBB756:
 17612               	.LBB757:
 17613               	.LM1732:
 17614 64d0 20E7      		ldi r18,lo8(368)
 17615 64d2 31E0      		ldi r19,hi8(368)
 17616               	.L988:
 17617 64d4 F901      		movw r30,r18
 17618               	.LVL1428:
 17619               	/* #APP */
 17620               	 ;  105 "/usr/local/CrossPack-AVR-20100115/lib/gcc/avr/4.3.3/../../../../avr/include/util/delay_bas
 17621 64d6 3197      		1: sbiw r30,1
 17622 64d8 01F4      		brne 1b
 17623               	 ;  0 "" 2
 17624               	/* #NOAPP */
 17625               	.LBE757:
 17626               	.LBE756:
 17627               	.LM1733:
 17628 64da 0197      		sbiw r24,1
 17629               	.LM1734:
 17630 64dc 01F4      		brne .L988
 17631               	.LBE755:
 17632               	.LBE754:
 17633               	.LM1735:
 17634 64de 84E4      		ldi r24,lo8(68)
 17635               	.LVL1429:
 17636 64e0 0E94 0000 		call Debug_SendByte
 17637               	.LVL1430:
 17638 64e4 8823      		tst r24
 17639 64e6 01F4      		brne .+2
 17640 64e8 00C0      		rjmp .L989
 17641 64ea FF24      		clr r15
 17642               	.LVL1431:
 17643 64ec 10E0      		ldi r17,lo8(0)
 17644               	.LVL1432:
 17645 64ee 00E0      		ldi r16,lo8(0)
 17646               	.LVL1433:
 17647               	.LBB758:
 17648               	.LBB759:
 17649               	.LBB760:
 17650               	.LBB761:
 17651               	.LM1736:
 17652 64f0 C6E6      		ldi r28,lo8(3686)
 17653 64f2 DEE0      		ldi r29,hi8(3686)
 17654               	.LVL1434:
 17655               	.L993:
 17656               	.LBE761:
 17657               	.LBE760:
 17658               	.LBE759:
 17659               	.LBE758:
 17660               	.LBB765:
 17661               	.LBB766:
 17662               	.LM1737:
 17663 64f4 2091 0000 		lds r18,Debug_writeLocation
 17664 64f8 3091 0000 		lds r19,(Debug_writeLocation)+1
 17665               	.LVL1435:
 17666 64fc 8091 0000 		lds r24,Debug_readLocation
 17667 6500 9091 0000 		lds r25,(Debug_readLocation)+1
 17668 6504 2817      		cp r18,r24
 17669 6506 3907      		cpc r19,r25
 17670 6508 01F0      		breq .+2
 17671 650a 00C0      		rjmp .L1019
 17672 650c 00C0      		rjmp .L990
 17673               	.L1007:
 17674               	.LBE766:
 17675               	.LBE765:
 17676               	.LM1738:
 17677 650e 80E0      		ldi r24,lo8(0)
 17678 6510 0E94 0000 		call Debug_GetByte
 17679               	.LVL1436:
 17680 6514 082F      		mov r16,r24
 17681               	.LM1739:
 17682 6516 0E94 0000 		call Debug_SendByte
 17683 651a 8823      		tst r24
 17684 651c 01F4      		brne .+2
 17685 651e 00C0      		rjmp .L989
 17686 6520 11E0      		ldi r17,lo8(1)
 17687 6522 00C0      		rjmp .L990
 17688               	.LVL1437:
 17689               	.L1022:
 17690               	.LM1740:
 17691 6524 80E0      		ldi r24,lo8(0)
 17692 6526 0E94 0000 		call Debug_GetByte
 17693               	.LVL1438:
 17694 652a E12F      		mov r30,r17
 17695 652c F0E0      		ldi r31,lo8(0)
 17696               	.LVL1439:
 17697 652e E050      		subi r30,lo8(-(fileToUpload-1))
 17698 6530 F040      		sbci r31,hi8(-(fileToUpload-1))
 17699               	.LVL1440:
 17700 6532 8083      		st Z,r24
 17701               	.LM1741:
 17702 6534 0E94 0000 		call Debug_SendByte
 17703               	.LVL1441:
 17704 6538 8823      		tst r24
 17705 653a 01F4      		brne .+2
 17706 653c 00C0      		rjmp .L989
 17707               	.LM1742:
 17708 653e 1F5F      		subi r17,lo8(-(1))
 17709               	.LVL1442:
 17710               	.LM1743:
 17711 6540 E12F      		mov r30,r17
 17712 6542 F0E0      		ldi r31,lo8(0)
 17713 6544 802F      		mov r24,r16
 17714 6546 90E0      		ldi r25,lo8(0)
 17715               	.LVL1443:
 17716 6548 0196      		adiw r24,1
 17717               	.LVL1444:
 17718 654a E817      		cp r30,r24
 17719 654c F907      		cpc r31,r25
 17720 654e 01F4      		brne .L990
 17721               	.LM1744:
 17722 6550 E050      		subi r30,lo8(-(fileToUpload))
 17723 6552 F040      		sbci r31,hi8(-(fileToUpload))
 17724 6554 1082      		st Z,__zero_reg__
 17725 6556 21E0      		ldi r18,lo8(1)
 17726               	.LVL1445:
 17727 6558 00C0      		rjmp .L992
 17728               	.LVL1446:
 17729               	.L990:
 17730 655a 20E0      		ldi r18,lo8(0)
 17731               	.LVL1447:
 17732               	.L992:
 17733               	.LBB767:
 17734               	.LBB764:
 17735               	.LBB763:
 17736               	.LBB762:
 17737               	.LM1745:
 17738 655c CE01      		movw r24,r28
 17739               	.LVL1448:
 17740               	/* #APP */
 17741               	 ;  105 "/usr/local/CrossPack-AVR-20100115/lib/gcc/avr/4.3.3/../../../../avr/include/util/delay_bas
 17742 655e 0197      		1: sbiw r24,1
 17743 6560 01F4      		brne 1b
 17744               	 ;  0 "" 2
 17745               	/* #NOAPP */
 17746               	.LBE762:
 17747               	.LBE763:
 17748               	.LBE764:
 17749               	.LBE767:
 17750               	.LM1746:
 17751 6562 F394      		inc r15
 17752               	.LM1747:
 17753 6564 85E6      		ldi r24,lo8(101)
 17754               	.LVL1449:
 17755 6566 F816      		cp r15,r24
 17756 6568 01F4      		brne .+2
 17757 656a 00C0      		rjmp .L989
 17758               	.LM1748:
 17759 656c 2223      		tst r18
 17760 656e 01F4      		brne .+2
 17761 6570 00C0      		rjmp .L993
 17762               	.LM1749:
 17763 6572 81E0      		ldi r24,lo8(1)
 17764 6574 8093 0000 		sts okToOpenFileToUpload,r24
 17765               	.L994:
 17766               	.LM1750:
 17767 6578 8091 0000 		lds r24,uploadFileOpened
 17768 657c 8823      		tst r24
 17769 657e 01F0      		breq .L994
 17770 6580 80E1      		ldi r24,lo8(10000)
 17771 6582 97E2      		ldi r25,hi8(10000)
 17772               	.LVL1450:
 17773               	.LBB768:
 17774               	.LBB769:
 17775               	.LBB770:
 17776               	.LBB771:
 17777               	.LM1751:
 17778 6584 20E7      		ldi r18,lo8(368)
 17779 6586 31E0      		ldi r19,hi8(368)
 17780               	.LVL1451:
 17781               	.L995:
 17782 6588 F901      		movw r30,r18
 17783               	.LVL1452:
 17784               	/* #APP */
 17785               	 ;  105 "/usr/local/CrossPack-AVR-20100115/lib/gcc/avr/4.3.3/../../../../avr/include/util/delay_bas
 17786 658a 3197      		1: sbiw r30,1
 17787 658c 01F4      		brne 1b
 17788               	 ;  0 "" 2
 17789               	/* #NOAPP */
 17790               	.LBE771:
 17791               	.LBE770:
 17792               	.LM1752:
 17793 658e 0197      		sbiw r24,1
 17794               	.LM1753:
 17795 6590 01F4      		brne .L995
 17796               	.LBE769:
 17797               	.LBE768:
 17798               	.LM1754:
 17799 6592 8091 0000 		lds r24,fileExists
 17800               	.LVL1453:
 17801 6596 8823      		tst r24
 17802 6598 01F4      		brne .L996
 17803               	.LM1755:
 17804 659a 0E94 0000 		call Debug_SendByte
 17805               	.LVL1454:
 17806 659e 8823      		tst r24
 17807 65a0 01F4      		brne .+2
 17808 65a2 00C0      		rjmp .L989
 17809               	.LM1756:
 17810 65a4 80E0      		ldi r24,lo8(0)
 17811 65a6 0E94 0000 		call Debug_SendByte
 17812 65aa 8823      		tst r24
 17813 65ac 01F4      		brne .+2
 17814 65ae 00C0      		rjmp .L989
 17815               	.LM1757:
 17816 65b0 80E0      		ldi r24,lo8(0)
 17817 65b2 0E94 0000 		call Debug_SendByte
 17818 65b6 8823      		tst r24
 17819 65b8 01F4      		brne .+2
 17820 65ba 00C0      		rjmp .L989
 17821               	.LM1758:
 17822 65bc 80E0      		ldi r24,lo8(0)
 17823 65be 0E94 0000 		call Debug_SendByte
 17824 65c2 8823      		tst r24
 17825 65c4 01F4      		brne .+2
 17826 65c6 00C0      		rjmp .L989
 17827               	.LM1759:
 17828 65c8 81E0      		ldi r24,lo8(1)
 17829 65ca 8093 0000 		sts okToCloseUploadFile,r24
 17830               	.L997:
 17831               	.LM1760:
 17832 65ce 8091 0000 		lds r24,okToCloseUploadFile
 17833 65d2 8823      		tst r24
 17834 65d4 01F4      		brne .L997
 17835               	.LM1761:
 17836 65d6 1092 0000 		sts uploading,__zero_reg__
 17837               	.LM1762:
 17838 65da 1092 0000 		sts okToUpload,__zero_reg__
 17839 65de 00C0      		rjmp .L1021
 17840               	.LVL1455:
 17841               	.L996:
 17842               	.LBB772:
 17843               	.LBB773:
 17844               	.LM1763:
 17845 65e0 8FEF      		ldi r24,lo8(-1)
 17846 65e2 9FEF      		ldi r25,hi8(-1)
 17847 65e4 AFEF      		ldi r26,hlo8(-1)
 17848 65e6 BFEF      		ldi r27,hhi8(-1)
 17849 65e8 8093 0000 		sts uploadCRC,r24
 17850 65ec 9093 0000 		sts (uploadCRC)+1,r25
 17851 65f0 A093 0000 		sts (uploadCRC)+2,r26
 17852 65f4 B093 0000 		sts (uploadCRC)+3,r27
 17853               	.LBE773:
 17854               	.LBE772:
 17855               	.LM1764:
 17856 65f8 E090 0000 		lds r14,uploadFileSize
 17857 65fc F090 0000 		lds r15,(uploadFileSize)+1
 17858 6600 0091 0000 		lds r16,(uploadFileSize)+2
 17859 6604 1091 0000 		lds r17,(uploadFileSize)+3
 17860               	.LVL1456:
 17861 6608 84E0      		ldi r24,lo8(4)
 17862 660a 90E0      		ldi r25,hi8(4)
 17863 660c A0E0      		ldi r26,hlo8(4)
 17864 660e B0E0      		ldi r27,hhi8(4)
 17865 6610 E80E      		add r14,r24
 17866 6612 F91E      		adc r15,r25
 17867 6614 0A1F      		adc r16,r26
 17868 6616 1B1F      		adc r17,r27
 17869               	.LM1765:
 17870 6618 812F      		mov r24,r17
 17871 661a 9927      		clr r25
 17872 661c AA27      		clr r26
 17873 661e BB27      		clr r27
 17874 6620 0E94 0000 		call Debug_SendByte
 17875               	.LVL1457:
 17876 6624 8823      		tst r24
 17877 6626 01F4      		brne .+2
 17878 6628 00C0      		rjmp .L989
 17879               	.LM1766:
 17880 662a C801      		movw r24,r16
 17881 662c AA27      		clr r26
 17882 662e BB27      		clr r27
 17883 6630 0E94 0000 		call Debug_SendByte
 17884 6634 8823      		tst r24
 17885 6636 01F4      		brne .+2
 17886 6638 00C0      		rjmp .L989
 17887               	.LM1767:
 17888 663a BB27      		clr r27
 17889 663c A12F      		mov r26,r17
 17890 663e 902F      		mov r25,r16
 17891 6640 8F2D      		mov r24,r15
 17892 6642 0E94 0000 		call Debug_SendByte
 17893 6646 8823      		tst r24
 17894 6648 01F4      		brne .+2
 17895 664a 00C0      		rjmp .L989
 17896               	.LM1768:
 17897 664c 8E2D      		mov r24,r14
 17898 664e 0E94 0000 		call Debug_SendByte
 17899 6652 8823      		tst r24
 17900 6654 01F4      		brne .+2
 17901 6656 00C0      		rjmp .L989
 17902               	.LM1769:
 17903 6658 6091 0000 		lds r22,uploadFileSize
 17904 665c 7091 0000 		lds r23,(uploadFileSize)+1
 17905 6660 8091 0000 		lds r24,(uploadFileSize)+2
 17906 6664 9091 0000 		lds r25,(uploadFileSize)+3
 17907 6668 28EE      		ldi r18,lo8(1000)
 17908 666a 33E0      		ldi r19,hi8(1000)
 17909 666c 40E0      		ldi r20,hlo8(1000)
 17910 666e 50E0      		ldi r21,hhi8(1000)
 17911 6670 0E94 0000 		call __udivmodsi4
 17912 6674 C901      		movw r24,r18
 17913 6676 DA01      		movw r26,r20
 17914 6678 8093 0000 		sts numberOfPacketsToUpload,r24
 17915 667c 9093 0000 		sts (numberOfPacketsToUpload)+1,r25
 17916 6680 A093 0000 		sts (numberOfPacketsToUpload)+2,r26
 17917 6684 B093 0000 		sts (numberOfPacketsToUpload)+3,r27
 17918               	.LM1770:
 17919 6688 6091 0000 		lds r22,uploadFileSize
 17920 668c 7091 0000 		lds r23,(uploadFileSize)+1
 17921 6690 8091 0000 		lds r24,(uploadFileSize)+2
 17922 6694 9091 0000 		lds r25,(uploadFileSize)+3
 17923 6698 28EE      		ldi r18,lo8(1000)
 17924 669a 33E0      		ldi r19,hi8(1000)
 17925 669c 40E0      		ldi r20,hlo8(1000)
 17926 669e 50E0      		ldi r21,hhi8(1000)
 17927 66a0 0E94 0000 		call __udivmodsi4
 17928 66a4 9B01      		movw r18,r22
 17929 66a6 AC01      		movw r20,r24
 17930 66a8 2093 0000 		sts leftOverBytesToUpload,r18
 17931 66ac 3093 0000 		sts (leftOverBytesToUpload)+1,r19
 17932 66b0 4093 0000 		sts (leftOverBytesToUpload)+2,r20
 17933 66b4 5093 0000 		sts (leftOverBytesToUpload)+3,r21
 17934 66b8 6624      		clr r6
 17935 66ba 7724      		clr r7
 17936 66bc 4301      		movw r8,r6
 17937               	.LVL1458:
 17938 66be AA24      		clr r10
 17939 66c0 BB24      		clr r11
 17940 66c2 6501      		movw r12,r10
 17941               	.LBB774:
 17942               	.LM1771:
 17943 66c4 5524      		clr r5
 17944 66c6 5394      		inc r5
 17945 66c8 00C0      		rjmp .L999
 17946               	.L1002:
 17947               	.LM1772:
 17948 66ca 1092 0000 		sts uploadFileBufferFull,__zero_reg__
 17949               	.LM1773:
 17950 66ce 5092 0000 		sts okToFillUploadFileBuffer,r5
 17951               	.LM1774:
 17952 66d2 2091 0000 		lds r18,numberOfPacketsToUpload
 17953 66d6 3091 0000 		lds r19,(numberOfPacketsToUpload)+1
 17954 66da 4091 0000 		lds r20,(numberOfPacketsToUpload)+2
 17955 66de 5091 0000 		lds r21,(numberOfPacketsToUpload)+3
 17956 66e2 C601      		movw r24,r12
 17957 66e4 B501      		movw r22,r10
 17958 66e6 0E94 0000 		call __udivmodsi4
 17959 66ea 2093 0000 		sts uploadPercentBS,r18
 17960               	.L1000:
 17961               	.LM1775:
 17962 66ee 8091 0000 		lds r24,uploadFileBufferFull
 17963 66f2 8823      		tst r24
 17964 66f4 01F0      		breq .L1000
 17965 66f6 C0E0      		ldi r28,lo8(uploadFileBuffer)
 17966 66f8 D0E0      		ldi r29,hi8(uploadFileBuffer)
 17967               	.L1001:
 17968               	.LBB775:
 17969               	.LM1776:
 17970 66fa 8881      		ld r24,Y
 17971 66fc 0E94 0000 		call Debug_SendByte
 17972 6700 8823      		tst r24
 17973 6702 01F4      		brne .+2
 17974 6704 00C0      		rjmp .L989
 17975               	.LBB776:
 17976               	.LBB777:
 17977               	.LM1777:
 17978 6706 E090 0000 		lds r14,uploadCRC
 17979 670a F090 0000 		lds r15,(uploadCRC)+1
 17980 670e 0091 0000 		lds r16,(uploadCRC)+2
 17981 6712 1091 0000 		lds r17,(uploadCRC)+3
 17982               	.LVL1459:
 17983 6716 8091 0000 		lds r24,uploadCRC
 17984 671a 9091 0000 		lds r25,(uploadCRC)+1
 17985 671e A091 0000 		lds r26,(uploadCRC)+2
 17986 6722 B091 0000 		lds r27,(uploadCRC)+3
 17987 6726 9070      		andi r25,hi8(255)
 17988 6728 A070      		andi r26,hlo8(255)
 17989 672a B070      		andi r27,hhi8(255)
 17990 672c 2991      		ld r18,Y+
 17991 672e 30E0      		ldi r19,lo8(0)
 17992 6730 40E0      		ldi r20,lo8(0)
 17993 6732 50E0      		ldi r21,hi8(0)
 17994 6734 8227      		eor r24,r18
 17995 6736 9327      		eor r25,r19
 17996 6738 A427      		eor r26,r20
 17997 673a B527      		eor r27,r21
 17998 673c 880F      		lsl r24
 17999 673e 991F      		rol r25
 18000 6740 880F      		lsl r24
 18001 6742 991F      		rol r25
 18002 6744 8050      		subi r24,lo8(-(crc_table))
 18003 6746 9040      		sbci r25,hi8(-(crc_table))
 18004 6748 EF2C      		mov r14,r15
 18005 674a F02E      		mov r15,r16
 18006 674c 012F      		mov r16,r17
 18007 674e 1127      		clr r17
 18008 6750 FC01      		movw r30,r24
 18009 6752 8081      		ld r24,Z
 18010 6754 9181      		ldd r25,Z+1
 18011 6756 A281      		ldd r26,Z+2
 18012 6758 B381      		ldd r27,Z+3
 18013 675a E826      		eor r14,r24
 18014 675c F926      		eor r15,r25
 18015 675e 0A27      		eor r16,r26
 18016 6760 1B27      		eor r17,r27
 18017 6762 E092 0000 		sts uploadCRC,r14
 18018 6766 F092 0000 		sts (uploadCRC)+1,r15
 18019 676a 0093 0000 		sts (uploadCRC)+2,r16
 18020 676e 1093 0000 		sts (uploadCRC)+3,r17
 18021               	.LBE777:
 18022               	.LBE776:
 18023               	.LM1778:
 18024 6772 F0E0      		ldi r31,hi8(uploadFileBuffer+1000)
 18025 6774 C030      		cpi r28,lo8(uploadFileBuffer+1000)
 18026 6776 DF07      		cpc r29,r31
 18027 6778 01F0      		breq .+2
 18028 677a 00C0      		rjmp .L1001
 18029               	.LBE775:
 18030               	.LM1779:
 18031 677c 0894      		sec
 18032 677e 611C      		adc r6,__zero_reg__
 18033 6780 711C      		adc r7,__zero_reg__
 18034 6782 811C      		adc r8,__zero_reg__
 18035 6784 911C      		adc r9,__zero_reg__
 18036 6786 84E6      		ldi r24,lo8(100)
 18037 6788 90E0      		ldi r25,hi8(100)
 18038 678a A0E0      		ldi r26,hlo8(100)
 18039 678c B0E0      		ldi r27,hhi8(100)
 18040 678e A80E      		add r10,r24
 18041 6790 B91E      		adc r11,r25
 18042 6792 CA1E      		adc r12,r26
 18043 6794 DB1E      		adc r13,r27
 18044               	.LVL1460:
 18045               	.L999:
 18046 6796 8091 0000 		lds r24,numberOfPacketsToUpload
 18047 679a 9091 0000 		lds r25,(numberOfPacketsToUpload)+1
 18048 679e A091 0000 		lds r26,(numberOfPacketsToUpload)+2
 18049 67a2 B091 0000 		lds r27,(numberOfPacketsToUpload)+3
 18050 67a6 6816      		cp r6,r24
 18051 67a8 7906      		cpc r7,r25
 18052 67aa 8A06      		cpc r8,r26
 18053 67ac 9B06      		cpc r9,r27
 18054 67ae 00F4      		brsh .+2
 18055 67b0 00C0      		rjmp .L1002
 18056               	.LBE774:
 18057               	.LM1780:
 18058 67b2 1092 0000 		sts uploadFileBufferFull,__zero_reg__
 18059               	.LM1781:
 18060 67b6 81E0      		ldi r24,lo8(1)
 18061 67b8 8093 0000 		sts okToFillUploadFileBuffer,r24
 18062               	.L1003:
 18063               	.LM1782:
 18064 67bc 8091 0000 		lds r24,uploadFileBufferFull
 18065 67c0 8823      		tst r24
 18066 67c2 01F0      		breq .L1003
 18067 67c4 C0E0      		ldi r28,lo8(uploadFileBuffer)
 18068 67c6 D0E0      		ldi r29,hi8(uploadFileBuffer)
 18069 67c8 AA24      		clr r10
 18070 67ca BB24      		clr r11
 18071 67cc 6501      		movw r12,r10
 18072 67ce 00C0      		rjmp .L1004
 18073               	.L1005:
 18074               	.LBB778:
 18075               	.LM1783:
 18076 67d0 8881      		ld r24,Y
 18077 67d2 0E94 0000 		call Debug_SendByte
 18078 67d6 0894      		sec
 18079 67d8 A11C      		adc r10,__zero_reg__
 18080 67da B11C      		adc r11,__zero_reg__
 18081 67dc C11C      		adc r12,__zero_reg__
 18082 67de D11C      		adc r13,__zero_reg__
 18083 67e0 8823      		tst r24
 18084 67e2 01F4      		brne .+2
 18085 67e4 00C0      		rjmp .L989
 18086               	.LBB779:
 18087               	.LBB780:
 18088               	.LM1784:
 18089 67e6 E090 0000 		lds r14,uploadCRC
 18090 67ea F090 0000 		lds r15,(uploadCRC)+1
 18091 67ee 0091 0000 		lds r16,(uploadCRC)+2
 18092 67f2 1091 0000 		lds r17,(uploadCRC)+3
 18093               	.LVL1461:
 18094 67f6 8091 0000 		lds r24,uploadCRC
 18095 67fa 9091 0000 		lds r25,(uploadCRC)+1
 18096 67fe A091 0000 		lds r26,(uploadCRC)+2
 18097 6802 B091 0000 		lds r27,(uploadCRC)+3
 18098 6806 9070      		andi r25,hi8(255)
 18099 6808 A070      		andi r26,hlo8(255)
 18100 680a B070      		andi r27,hhi8(255)
 18101 680c 2991      		ld r18,Y+
 18102 680e 30E0      		ldi r19,lo8(0)
 18103 6810 40E0      		ldi r20,lo8(0)
 18104 6812 50E0      		ldi r21,hi8(0)
 18105 6814 8227      		eor r24,r18
 18106 6816 9327      		eor r25,r19
 18107 6818 A427      		eor r26,r20
 18108 681a B527      		eor r27,r21
 18109 681c 880F      		lsl r24
 18110 681e 991F      		rol r25
 18111 6820 880F      		lsl r24
 18112 6822 991F      		rol r25
 18113 6824 8050      		subi r24,lo8(-(crc_table))
 18114 6826 9040      		sbci r25,hi8(-(crc_table))
 18115 6828 EF2C      		mov r14,r15
 18116 682a F02E      		mov r15,r16
 18117 682c 012F      		mov r16,r17
 18118 682e 1127      		clr r17
 18119 6830 FC01      		movw r30,r24
 18120 6832 8081      		ld r24,Z
 18121 6834 9181      		ldd r25,Z+1
 18122 6836 A281      		ldd r26,Z+2
 18123 6838 B381      		ldd r27,Z+3
 18124 683a E826      		eor r14,r24
 18125 683c F926      		eor r15,r25
 18126 683e 0A27      		eor r16,r26
 18127 6840 1B27      		eor r17,r27
 18128 6842 E092 0000 		sts uploadCRC,r14
 18129 6846 F092 0000 		sts (uploadCRC)+1,r15
 18130 684a 0093 0000 		sts (uploadCRC)+2,r16
 18131 684e 1093 0000 		sts (uploadCRC)+3,r17
 18132               	.LVL1462:
 18133               	.L1004:
 18134               	.LBE780:
 18135               	.LBE779:
 18136               	.LM1785:
 18137 6852 8091 0000 		lds r24,leftOverBytesToUpload
 18138 6856 9091 0000 		lds r25,(leftOverBytesToUpload)+1
 18139 685a A091 0000 		lds r26,(leftOverBytesToUpload)+2
 18140 685e B091 0000 		lds r27,(leftOverBytesToUpload)+3
 18141 6862 A816      		cp r10,r24
 18142 6864 B906      		cpc r11,r25
 18143 6866 CA06      		cpc r12,r26
 18144 6868 DB06      		cpc r13,r27
 18145 686a 00F4      		brsh .+2
 18146 686c 00C0      		rjmp .L1005
 18147               	.LBE778:
 18148               	.LM1786:
 18149 686e 0E94 0000 		call Uploader_WriteCRC
 18150               	.LM1787:
 18151 6872 81E0      		ldi r24,lo8(1)
 18152 6874 8093 0000 		sts okToCloseUploadFile,r24
 18153               	.L1006:
 18154               	.LM1788:
 18155 6878 8091 0000 		lds r24,okToCloseUploadFile
 18156 687c 8823      		tst r24
 18157 687e 01F4      		brne .L1006
 18158               	.LM1789:
 18159 6880 1092 0000 		sts uploading,__zero_reg__
 18160               	.LM1790:
 18161 6884 1092 0000 		sts okToUpload,__zero_reg__
 18162               	.LM1791:
 18163 6888 84E6      		ldi r24,lo8(100)
 18164 688a 8093 0000 		sts uploadPercentBS,r24
 18165               	.L1021:
 18166 688e 81E0      		ldi r24,lo8(1)
 18167 6890 00C0      		rjmp .L998
 18168               	.LVL1463:
 18169               	.L989:
 18170               	.LM1792:
 18171 6892 80E0      		ldi r24,lo8(0)
 18172               	.L998:
 18173               	/* epilogue start */
 18174               	.LM1793:
 18175 6894 DF91      		pop r29
 18176 6896 CF91      		pop r28
 18177 6898 1F91      		pop r17
 18178               	.LVL1464:
 18179 689a 0F91      		pop r16
 18180               	.LVL1465:
 18181 689c FF90      		pop r15
 18182               	.LVL1466:
 18183 689e EF90      		pop r14
 18184               	.LVL1467:
 18185 68a0 DF90      		pop r13
 18186 68a2 CF90      		pop r12
 18187 68a4 BF90      		pop r11
 18188 68a6 AF90      		pop r10
 18189 68a8 9F90      		pop r9
 18190 68aa 8F90      		pop r8
 18191 68ac 7F90      		pop r7
 18192 68ae 6F90      		pop r6
 18193               	.LVL1468:
 18194 68b0 5F90      		pop r5
 18195 68b2 0895      		ret
 18196               	.LVL1469:
 18197               	.L1019:
 18198               	.LM1794:
 18199 68b4 1123      		tst r17
 18200 68b6 01F4      		brne .+2
 18201 68b8 00C0      		rjmp .L1007
 18202 68ba 00C0      		rjmp .L1022
 18203               	.LFE134:
 18205               	.global	Uploader_UpdateCRC
 18207               	Uploader_UpdateCRC:
 18208               	.LFB140:
 18209               	.LM1795:
 18210               	.LVL1470:
 18211 68bc EF92      		push r14
 18212 68be FF92      		push r15
 18213 68c0 0F93      		push r16
 18214 68c2 1F93      		push r17
 18215               	/* prologue: function */
 18216               	/* frame size = 0 */
 18217               	.LM1796:
 18218 68c4 E090 0000 		lds r14,uploadCRC
 18219 68c8 F090 0000 		lds r15,(uploadCRC)+1
 18220 68cc 0091 0000 		lds r16,(uploadCRC)+2
 18221 68d0 1091 0000 		lds r17,(uploadCRC)+3
 18222 68d4 2091 0000 		lds r18,uploadCRC
 18223 68d8 3091 0000 		lds r19,(uploadCRC)+1
 18224 68dc 4091 0000 		lds r20,(uploadCRC)+2
 18225 68e0 5091 0000 		lds r21,(uploadCRC)+3
 18226 68e4 90E0      		ldi r25,lo8(0)
 18227               	.LVL1471:
 18228 68e6 A0E0      		ldi r26,lo8(0)
 18229 68e8 B0E0      		ldi r27,hi8(0)
 18230               	.LVL1472:
 18231 68ea 3070      		andi r19,hi8(255)
 18232 68ec 4070      		andi r20,hlo8(255)
 18233 68ee 5070      		andi r21,hhi8(255)
 18234 68f0 8227      		eor r24,r18
 18235 68f2 9327      		eor r25,r19
 18236 68f4 A427      		eor r26,r20
 18237 68f6 B527      		eor r27,r21
 18238               	.LVL1473:
 18239 68f8 880F      		lsl r24
 18240 68fa 991F      		rol r25
 18241 68fc 880F      		lsl r24
 18242 68fe 991F      		rol r25
 18243               	.LVL1474:
 18244 6900 8050      		subi r24,lo8(-(crc_table))
 18245 6902 9040      		sbci r25,hi8(-(crc_table))
 18246 6904 EF2C      		mov r14,r15
 18247 6906 F02E      		mov r15,r16
 18248 6908 012F      		mov r16,r17
 18249 690a 1127      		clr r17
 18250 690c FC01      		movw r30,r24
 18251 690e 8081      		ld r24,Z
 18252 6910 9181      		ldd r25,Z+1
 18253 6912 A281      		ldd r26,Z+2
 18254 6914 B381      		ldd r27,Z+3
 18255 6916 E826      		eor r14,r24
 18256 6918 F926      		eor r15,r25
 18257 691a 0A27      		eor r16,r26
 18258 691c 1B27      		eor r17,r27
 18259 691e E092 0000 		sts uploadCRC,r14
 18260 6922 F092 0000 		sts (uploadCRC)+1,r15
 18261 6926 0093 0000 		sts (uploadCRC)+2,r16
 18262 692a 1093 0000 		sts (uploadCRC)+3,r17
 18263               	/* epilogue start */
 18264               	.LM1797:
 18265 692e 1F91      		pop r17
 18266 6930 0F91      		pop r16
 18267 6932 FF90      		pop r15
 18268 6934 EF90      		pop r14
 18269 6936 0895      		ret
 18270               	.LFE140:
 18272               	.global	Clock_Init
 18274               	Clock_Init:
 18275               	.LFB142:
 18276               	.LM1798:
 18277 6938 0F93      		push r16
 18278 693a DF93      		push r29
 18279 693c CF93      		push r28
 18280 693e 0F92      		push __tmp_reg__
 18281 6940 CDB7      		in r28,__SP_L__
 18282 6942 DEB7      		in r29,__SP_H__
 18283               	/* prologue: function */
 18284               	/* frame size = 1 */
 18285               	.LM1799:
 18286 6944 80EC      		ldi r24,lo8(-64)
 18287 6946 E0E5      		ldi r30,lo8(80)
 18288 6948 F0E0      		ldi r31,hi8(80)
 18289 694a 8283      		std Z+2,r24
 18290               	.LM1800:
 18291 694c 8091 5000 		lds r24,80
 18292 6950 8860      		ori r24,lo8(8)
 18293 6952 8093 5000 		sts 80,r24
 18294               	.L1026:
 18295               	.LM1801:
 18296 6956 8091 5100 		lds r24,81
 18297 695a 83FF      		sbrs r24,3
 18298 695c 00C0      		rjmp .L1026
 18299               	.LM1802:
 18300 695e 2091 4000 		lds r18,64
 18301               	.LBB781:
 18302               	.LBB782:
 18303               	.LM1803:
 18304 6962 8FB7      		in r24,__SREG__
 18305 6964 8983      		std Y+1,r24
 18306               	.LVL1475:
 18307               	.LM1804:
 18308               	/* #APP */
 18309               	 ;  78 "mainChestStrap.h" 1
 18310 6966 F894      		cli
 18311               	 ;  0 "" 2
 18312               	.LM1805:
 18313               	/* #NOAPP */
 18314 6968 1BBE      		out 59-0,__zero_reg__
 18315               	.LM1806:
 18316 696a 287F      		andi r18,lo8(-8)
 18317 696c 2360      		ori r18,lo8(3)
 18318 696e 80E4      		ldi r24,lo8(64)
 18319 6970 90E0      		ldi r25,hi8(64)
 18320               	/* #APP */
 18321               	 ;  100 "mainChestStrap.h" 1
 18322 6972 FC01      		movw r30,  r24
 18323 6974 08ED      		ldi  r16,  216
 18324 6976 04BF      		out   52, r16
 18325 6978 2083      		st     Z,  r18
 18326               		
 18327               	 ;  0 "" 2
 18328               	.LM1807:
 18329               	/* #NOAPP */
 18330 697a 8981      		ldd r24,Y+1
 18331 697c 8FBF      		out __SREG__,r24
 18332               	.LBE782:
 18333               	.LBE781:
 18334               	.LM1808:
 18335 697e 8091 5000 		lds r24,80
 18336 6982 8E7F      		andi r24,lo8(-2)
 18337 6984 8093 5000 		sts 80,r24
 18338               	/* epilogue start */
 18339               	.LM1809:
 18340 6988 0F90      		pop __tmp_reg__
 18341 698a CF91      		pop r28
 18342 698c DF91      		pop r29
 18343 698e 0F91      		pop r16
 18344 6990 0895      		ret
 18345               	.LFE142:
 18347               	.global	Disable_JTAG
 18349               	Disable_JTAG:
 18350               	.LFB143:
 18351               	.LM1810:
 18352 6992 0F93      		push r16
 18353 6994 DF93      		push r29
 18354 6996 CF93      		push r28
 18355 6998 0F92      		push __tmp_reg__
 18356 699a CDB7      		in r28,__SP_L__
 18357 699c DEB7      		in r29,__SP_H__
 18358               	/* prologue: function */
 18359               	/* frame size = 1 */
 18360               	.LBB783:
 18361               	.LBB784:
 18362               	.LM1811:
 18363 699e 8FB7      		in r24,__SREG__
 18364 69a0 8983      		std Y+1,r24
 18365               	.LVL1476:
 18366               	.LM1812:
 18367               	/* #APP */
 18368               	 ;  78 "mainChestStrap.h" 1
 18369 69a2 F894      		cli
 18370               	 ;  0 "" 2
 18371               	.LM1813:
 18372               	/* #NOAPP */
 18373 69a4 1BBE      		out 59-0,__zero_reg__
 18374               	.LM1814:
 18375 69a6 21E0      		ldi r18,lo8(1)
 18376 69a8 86E9      		ldi r24,lo8(150)
 18377 69aa 90E0      		ldi r25,hi8(150)
 18378               	/* #APP */
 18379               	 ;  100 "mainChestStrap.h" 1
 18380 69ac FC01      		movw r30,  r24
 18381 69ae 08ED      		ldi  r16,  216
 18382 69b0 04BF      		out   52, r16
 18383 69b2 2083      		st     Z,  r18
 18384               		
 18385               	 ;  0 "" 2
 18386               	.LM1815:
 18387               	/* #NOAPP */
 18388 69b4 8981      		ldd r24,Y+1
 18389 69b6 8FBF      		out __SREG__,r24
 18390               	/* epilogue start */
 18391               	.LBE784:
 18392               	.LBE783:
 18393               	.LM1816:
 18394 69b8 0F90      		pop __tmp_reg__
 18395 69ba CF91      		pop r28
 18396 69bc DF91      		pop r29
 18397 69be 0F91      		pop r16
 18398 69c0 0895      		ret
 18399               	.LFE143:
 18401               	.global	Interrupt_Init
 18403               	Interrupt_Init:
 18404               	.LFB144:
 18405               	.LM1817:
 18406               	/* prologue: function */
 18407               	/* frame size = 0 */
 18408               	.LM1818:
 18409 69c2 E0EA      		ldi r30,lo8(160)
 18410 69c4 F0E0      		ldi r31,hi8(160)
 18411 69c6 8281      		ldd r24,Z+2
 18412 69c8 8760      		ori r24,lo8(7)
 18413 69ca 8283      		std Z+2,r24
 18414               	.LM1819:
 18415               	/* #APP */
 18416               	 ;  179 "mainChestStrap.c" 1
 18417 69cc 7894      		sei
 18418               	 ;  0 "" 2
 18419               	/* epilogue start */
 18420               	.LM1820:
 18421               	/* #NOAPP */
 18422 69ce 0895      		ret
 18423               	.LFE144:
 18425               	.global	__vector_104
 18427               	__vector_104:
 18428               	.LFB145:
 18429               	.LM1821:
 18430 69d0 1F92      		push __zero_reg__
 18431 69d2 0F92      		push r0
 18432 69d4 0FB6      		in r0,__SREG__
 18433 69d6 0F92      		push r0
 18434 69d8 0BB6      		in r0,59-0
 18435 69da 0F92      		push r0
 18436 69dc 1124      		clr __zero_reg__
 18437 69de 2F93      		push r18
 18438 69e0 3F93      		push r19
 18439 69e2 4F93      		push r20
 18440 69e4 5F93      		push r21
 18441 69e6 6F93      		push r22
 18442 69e8 7F93      		push r23
 18443 69ea 8F93      		push r24
 18444 69ec 9F93      		push r25
 18445 69ee AF93      		push r26
 18446 69f0 BF93      		push r27
 18447 69f2 EF93      		push r30
 18448 69f4 FF93      		push r31
 18449               	/* prologue: Signal */
 18450               	/* frame size = 0 */
 18451               	.LM1822:
 18452 69f6 8091 0000 		lds r24,recording
 18453 69fa 8823      		tst r24
 18454 69fc 01F4      		brne .L1034
 18455 69fe 8091 0000 		lds r24,timeIsValid
 18456 6a02 8823      		tst r24
 18457 6a04 01F0      		breq .L1034
 18458               	.LBB785:
 18459               	.LBB786:
 18460               	.LM1823:
 18461 6a06 8091 0000 		lds r24,sdValid
 18462               	.LBE786:
 18463               	.LBE785:
 18464               	.LM1824:
 18465 6a0a 8823      		tst r24
 18466 6a0c 01F0      		breq .L1034
 18467 6a0e 8091 0000 		lds r24,debounceEnabled
 18468 6a12 8823      		tst r24
 18469 6a14 01F4      		brne .L1034
 18470               	.LM1825:
 18471 6a16 8091 0000 		lds r24,percentDiskUsed
 18472 6a1a 9091 0000 		lds r25,(percentDiskUsed)+1
 18473 6a1e A091 0000 		lds r26,(percentDiskUsed)+2
 18474 6a22 B091 0000 		lds r27,(percentDiskUsed)+3
 18475 6a26 865B      		subi r24,lo8(950)
 18476 6a28 9340      		sbci r25,hi8(950)
 18477 6a2a A040      		sbci r26,hlo8(950)
 18478 6a2c B040      		sbci r27,hhi8(950)
 18479 6a2e 00F4      		brsh .L1036
 18480               	.LM1826:
 18481 6a30 81E0      		ldi r24,lo8(1)
 18482 6a32 8093 0000 		sts debounceEnabled,r24
 18483               	.LM1827:
 18484 6a36 8093 0000 		sts okToOpenLogFile,r24
 18485 6a3a 00C0      		rjmp .L1036
 18486               	.L1034:
 18487               	.LM1828:
 18488 6a3c 8091 0000 		lds r24,recording
 18489 6a40 8823      		tst r24
 18490 6a42 01F0      		breq .L1036
 18491 6a44 8091 0000 		lds r24,debounceEnabled
 18492 6a48 8823      		tst r24
 18493 6a4a 01F4      		brne .L1036
 18494               	.LM1829:
 18495 6a4c 1092 0000 		sts recording,__zero_reg__
 18496               	.LM1830:
 18497 6a50 0E94 0000 		call Sensors_ResetHumidityBuffers
 18498               	.LM1831:
 18499 6a54 0E94 0000 		call Sensors_ResetTemperatureBuffers
 18500               	.LM1832:
 18501 6a58 0E94 0000 		call Sensors_ResetRespirationBuffers
 18502               	.LM1833:
 18503 6a5c 0E94 0000 		call Sensors_ResetEKGBuffers
 18504               	.LM1834:
 18505 6a60 0E94 0000 		call Sensors_ResetAccelBuffers
 18506               	.LM1835:
 18507 6a64 81E0      		ldi r24,lo8(1)
 18508 6a66 8093 0000 		sts okToCloseLogFile,r24
 18509               	.LM1836:
 18510 6a6a 8093 0000 		sts debounceEnabled,r24
 18511               	.L1036:
 18512               	/* epilogue start */
 18513               	.LM1837:
 18514 6a6e FF91      		pop r31
 18515 6a70 EF91      		pop r30
 18516 6a72 BF91      		pop r27
 18517 6a74 AF91      		pop r26
 18518 6a76 9F91      		pop r25
 18519 6a78 8F91      		pop r24
 18520 6a7a 7F91      		pop r23
 18521 6a7c 6F91      		pop r22
 18522 6a7e 5F91      		pop r21
 18523 6a80 4F91      		pop r20
 18524 6a82 3F91      		pop r19
 18525 6a84 2F91      		pop r18
 18526 6a86 0F90      		pop r0
 18527 6a88 0BBE      		out 59-0,r0
 18528 6a8a 0F90      		pop r0
 18529 6a8c 0FBE      		out __SREG__,r0
 18530 6a8e 0F90      		pop r0
 18531 6a90 1F90      		pop __zero_reg__
 18532 6a92 1895      		reti
 18533               	.LFE145:
 18535               	.global	Charger_Init
 18537               	Charger_Init:
 18538               	.LFB146:
 18539               	.LM1838:
 18540               	/* prologue: function */
 18541               	/* frame size = 0 */
 18542               	.LM1839:
 18543 6a94 E0E6      		ldi r30,lo8(1632)
 18544 6a96 F6E0      		ldi r31,hi8(1632)
 18545 6a98 88E0      		ldi r24,lo8(8)
 18546 6a9a 8283      		std Z+2,r24
 18547               	.LM1840:
 18548 6a9c 88E3      		ldi r24,lo8(56)
 18549 6a9e 838B      		std Z+19,r24
 18550               	/* epilogue start */
 18551               	.LM1841:
 18552 6aa0 0895      		ret
 18553               	.LFE146:
 18555               	.global	Charged
 18557               	Charged:
 18558               	.LFB147:
 18559               	.LM1842:
 18560               	/* prologue: function */
 18561               	/* frame size = 0 */
 18562               	.LM1843:
 18563 6aa2 E0EA      		ldi r30,lo8(1696)
 18564 6aa4 F6E0      		ldi r31,hi8(1696)
 18565 6aa6 8085      		ldd r24,Z+8
 18566 6aa8 90E0      		ldi r25,lo8(0)
 18567 6aaa E3E0      		ldi r30,3
 18568 6aac 9695      	1:	lsr r25
 18569 6aae 8795      		ror r24
 18570 6ab0 EA95      		dec r30
 18571 6ab2 01F4      		brne 1b
 18572               	.LM1844:
 18573 6ab4 8170      		andi r24,lo8(1)
 18574               	/* epilogue start */
 18575 6ab6 0895      		ret
 18576               	.LFE147:
 18578               	.global	GUI_Init
 18580               	GUI_Init:
 18581               	.LFB148:
 18582               	.LM1845:
 18583               	/* prologue: function */
 18584               	/* frame size = 0 */
 18585               	.LM1846:
 18586 6ab8 E0E0      		ldi r30,lo8(2304)
 18587 6aba F9E0      		ldi r31,hi8(2304)
 18588 6abc 80EA      		ldi r24,lo8(1440)
 18589 6abe 95E0      		ldi r25,hi8(1440)
 18590 6ac0 86A3      		std Z+38,r24
 18591 6ac2 97A3      		std Z+39,r25
 18592               	.LM1847:
 18593 6ac4 8081      		ld r24,Z
 18594 6ac6 807F      		andi r24,lo8(-16)
 18595 6ac8 8760      		ori r24,lo8(7)
 18596 6aca 8083      		st Z,r24
 18597               	.LM1848:
 18598 6acc 8681      		ldd r24,Z+6
 18599 6ace 8C7F      		andi r24,lo8(-4)
 18600 6ad0 8160      		ori r24,lo8(1)
 18601 6ad2 8683      		std Z+6,r24
 18602               	/* epilogue start */
 18603               	.LM1849:
 18604 6ad4 0895      		ret
 18605               	.LFE148:
 18607               	.global	__vector_77
 18609               	__vector_77:
 18610               	.LFB149:
 18611               	.LM1850:
 18612 6ad6 1F92      		push __zero_reg__
 18613 6ad8 0F92      		push r0
 18614 6ada 0FB6      		in r0,__SREG__
 18615 6adc 0F92      		push r0
 18616 6ade 0BB6      		in r0,59-0
 18617 6ae0 0F92      		push r0
 18618 6ae2 1124      		clr __zero_reg__
 18619 6ae4 2F93      		push r18
 18620 6ae6 3F93      		push r19
 18621 6ae8 4F93      		push r20
 18622 6aea 5F93      		push r21
 18623 6aec 6F93      		push r22
 18624 6aee 7F93      		push r23
 18625 6af0 8F93      		push r24
 18626 6af2 9F93      		push r25
 18627 6af4 AF93      		push r26
 18628 6af6 BF93      		push r27
 18629 6af8 CF93      		push r28
 18630 6afa DF93      		push r29
 18631 6afc EF93      		push r30
 18632 6afe FF93      		push r31
 18633               	/* prologue: Signal */
 18634               	/* frame size = 0 */
 18635               	.LM1851:
 18636 6b00 8091 0000 		lds r24,recording
 18637 6b04 8823      		tst r24
 18638 6b06 01F0      		breq .L1044
 18639               	.LM1852:
 18640 6b08 8091 0000 		lds r24,lengthOfCurrentFile
 18641 6b0c 9091 0000 		lds r25,(lengthOfCurrentFile)+1
 18642 6b10 0196      		adiw r24,1
 18643 6b12 8093 0000 		sts lengthOfCurrentFile,r24
 18644 6b16 9093 0000 		sts (lengthOfCurrentFile)+1,r25
 18645               	.LM1853:
 18646 6b1a 8091 0000 		lds r24,lengthOfCurrentFile
 18647 6b1e 9091 0000 		lds r25,(lengthOfCurrentFile)+1
 18648 6b22 8952      		subi r24,lo8(9001)
 18649 6b24 9342      		sbci r25,hi8(9001)
 18650 6b26 00F0      		brlo .L1044
 18651               	.LM1854:
 18652 6b28 81E0      		ldi r24,lo8(1)
 18653 6b2a 8093 0000 		sts restartingFile,r24
 18654               	.LM1855:
 18655 6b2e 1092 0000 		sts recording,__zero_reg__
 18656               	.LM1856:
 18657 6b32 8093 0000 		sts okToCloseLogFile,r24
 18658               	.L1045:
 18659               	.LM1857:
 18660 6b36 8091 0000 		lds r24,okToCloseLogFile
 18661 6b3a 8823      		tst r24
 18662 6b3c 01F4      		brne .L1045
 18663               	.LM1858:
 18664 6b3e 8091 0000 		lds r24,percentDiskUsed
 18665 6b42 9091 0000 		lds r25,(percentDiskUsed)+1
 18666 6b46 A091 0000 		lds r26,(percentDiskUsed)+2
 18667 6b4a B091 0000 		lds r27,(percentDiskUsed)+3
 18668 6b4e 865B      		subi r24,lo8(950)
 18669 6b50 9340      		sbci r25,hi8(950)
 18670 6b52 A040      		sbci r26,hlo8(950)
 18671 6b54 B040      		sbci r27,hhi8(950)
 18672 6b56 00F4      		brsh .L1046
 18673               	.LM1859:
 18674 6b58 81E0      		ldi r24,lo8(1)
 18675 6b5a 8093 0000 		sts okToOpenLogFile,r24
 18676               	.L1047:
 18677               	.LM1860:
 18678 6b5e 8091 0000 		lds r24,recording
 18679 6b62 8823      		tst r24
 18680 6b64 01F0      		breq .L1047
 18681               	.L1046:
 18682               	.LM1861:
 18683 6b66 1092 0000 		sts restartingFile,__zero_reg__
 18684               	.L1044:
 18685               	.LM1862:
 18686 6b6a 8091 0000 		lds r24,timeIsValid
 18687 6b6e 8823      		tst r24
 18688 6b70 01F0      		breq .L1048
 18689 6b72 8091 0000 		lds r24,okToSendRTCBlock
 18690 6b76 8823      		tst r24
 18691 6b78 01F4      		brne .L1048
 18692               	.LM1863:
 18693 6b7a 8091 0000 		lds r24,syncCounter
 18694 6b7e 9091 0000 		lds r25,(syncCounter)+1
 18695 6b82 0196      		adiw r24,1
 18696 6b84 8093 0000 		sts syncCounter,r24
 18697 6b88 9093 0000 		sts (syncCounter)+1,r25
 18698               	.LM1864:
 18699 6b8c 8091 0000 		lds r24,syncCounter
 18700 6b90 9091 0000 		lds r25,(syncCounter)+1
 18701 6b94 8157      		subi r24,lo8(6001)
 18702 6b96 9741      		sbci r25,hi8(6001)
 18703 6b98 00F0      		brlo .L1048
 18704               	.LM1865:
 18705 6b9a 1092 0000 		sts syncCounter,__zero_reg__
 18706 6b9e 1092 0000 		sts (syncCounter)+1,__zero_reg__
 18707               	.LBB787:
 18708               	.LBB788:
 18709               	.LM1866:
 18710 6ba2 8091 2104 		lds r24,1057
 18711 6ba6 8061      		ori r24,lo8(16)
 18712 6ba8 E0E2      		ldi r30,lo8(1056)
 18713 6baa F4E0      		ldi r31,hi8(1056)
 18714 6bac 8183      		std Z+1,r24
 18715               	.L1049:
 18716               	.LM1867:
 18717 6bae 8091 2104 		lds r24,1057
 18718 6bb2 84FD      		sbrc r24,4
 18719 6bb4 00C0      		rjmp .L1049
 18720               	.LM1868:
 18721 6bb6 8091 2404 		lds r24,1060
 18722 6bba 9091 2504 		lds r25,(1060)+1
 18723 6bbe A091 2604 		lds r26,(1060)+2
 18724 6bc2 B091 2704 		lds r27,(1060)+3
 18725               	.LBE788:
 18726               	.LBE787:
 18727               	.LM1869:
 18728 6bc6 8093 0000 		sts UNIX_Time,r24
 18729 6bca 9093 0000 		sts (UNIX_Time)+1,r25
 18730 6bce A093 0000 		sts (UNIX_Time)+2,r26
 18731 6bd2 B093 0000 		sts (UNIX_Time)+3,r27
 18732               	.L1048:
 18733               	.LM1870:
 18734 6bd6 8091 0000 		lds r24,debounceEnabled
 18735 6bda 8823      		tst r24
 18736 6bdc 01F0      		breq .L1050
 18737               	.LM1871:
 18738 6bde 8091 0000 		lds r24,debounceTimer
 18739 6be2 8F5F      		subi r24,lo8(-(1))
 18740 6be4 8093 0000 		sts debounceTimer,r24
 18741               	.LM1872:
 18742 6be8 8091 0000 		lds r24,debounceTimer
 18743 6bec 8B30      		cpi r24,lo8(11)
 18744 6bee 00F0      		brlo .L1050
 18745               	.LM1873:
 18746 6bf0 1092 0000 		sts debounceTimer,__zero_reg__
 18747               	.LM1874:
 18748 6bf4 1092 0000 		sts debounceEnabled,__zero_reg__
 18749               	.L1050:
 18750               	.LBB789:
 18751               	.LBB790:
 18752               	.LM1875:
 18753 6bf8 8091 0000 		lds r24,sdValid
 18754               	.LBE790:
 18755               	.LBE789:
 18756               	.LM1876:
 18757 6bfc 8823      		tst r24
 18758 6bfe 01F4      		brne .L1051
 18759 6c00 8091 0000 		lds r24,recording
 18760 6c04 8823      		tst r24
 18761 6c06 01F0      		breq .L1051
 18762               	.LM1877:
 18763 6c08 1092 0000 		sts recording,__zero_reg__
 18764               	.LM1878:
 18765 6c0c 0E94 0000 		call Sensors_ResetHumidityBuffers
 18766               	.LM1879:
 18767 6c10 0E94 0000 		call Sensors_ResetTemperatureBuffers
 18768               	.LM1880:
 18769 6c14 0E94 0000 		call Sensors_ResetRespirationBuffers
 18770               	.LM1881:
 18771 6c18 0E94 0000 		call Sensors_ResetEKGBuffers
 18772               	.LM1882:
 18773 6c1c 0E94 0000 		call Sensors_ResetAccelBuffers
 18774               	.LM1883:
 18775 6c20 81E0      		ldi r24,lo8(1)
 18776 6c22 8093 0000 		sts okToCloseLogFile,r24
 18777               	.LM1884:
 18778 6c26 8093 0000 		sts debounceEnabled,r24
 18779               	.L1051:
 18780               	.LBB791:
 18781               	.LBB792:
 18782               	.LM1885:
 18783 6c2a 8091 0000 		lds r24,sdValid
 18784               	.LBE792:
 18785               	.LBE791:
 18786               	.LM1886:
 18787 6c2e 8823      		tst r24
 18788 6c30 01F4      		brne .L1052
 18789               	.LBB793:
 18790               	.LBB794:
 18791               	.LM1887:
 18792 6c32 81E0      		ldi r24,lo8(1)
 18793 6c34 00C0      		rjmp .L1072
 18794               	.L1052:
 18795               	.LBE794:
 18796               	.LBE793:
 18797               	.LM1888:
 18798 6c36 8091 0000 		lds r24,timeIsValid
 18799 6c3a 8823      		tst r24
 18800 6c3c 01F4      		brne .L1054
 18801               	.LBB795:
 18802               	.LBB796:
 18803               	.LM1889:
 18804 6c3e 82E0      		ldi r24,lo8(2)
 18805               	.L1072:
 18806 6c40 8093 0000 		sts ledState,r24
 18807 6c44 00C0      		rjmp .L1053
 18808               	.L1054:
 18809               	.LBE796:
 18810               	.LBE795:
 18811               	.LM1890:
 18812 6c46 8091 0000 		lds r24,batteryVoltageOk
 18813 6c4a 8823      		tst r24
 18814 6c4c 01F4      		brne .L1055
 18815               	.LBB797:
 18816               	.LBB798:
 18817               	.LM1891:
 18818 6c4e 83E0      		ldi r24,lo8(3)
 18819 6c50 00C0      		rjmp .L1072
 18820               	.L1055:
 18821               	.LBE798:
 18822               	.LBE797:
 18823               	.LBB799:
 18824               	.LBB800:
 18825 6c52 1092 0000 		sts ledState,__zero_reg__
 18826               	.L1053:
 18827               	.LBE800:
 18828               	.LBE799:
 18829               	.LM1892:
 18830 6c56 8091 0000 		lds r24,recording
 18831 6c5a 8823      		tst r24
 18832 6c5c 01F0      		breq .L1056
 18833               	.LBB801:
 18834               	.LBB802:
 18835               	.LM1893:
 18836 6c5e 81E0      		ldi r24,lo8(1)
 18837 6c60 00C0      		rjmp .L1073
 18838               	.L1056:
 18839               	.LBE802:
 18840               	.LBE801:
 18841               	.LM1894:
 18842 6c62 8091 0000 		lds r24,connected
 18843 6c66 8823      		tst r24
 18844 6c68 01F0      		breq .L1058
 18845               	.LBB803:
 18846               	.LBB804:
 18847               	.LM1895:
 18848 6c6a 8091 A806 		lds r24,1704
 18849 6c6e 83FF      		sbrs r24,3
 18850 6c70 00C0      		rjmp .L1059
 18851               	.L1058:
 18852               	.LBE804:
 18853               	.LBE803:
 18854               	.LBB805:
 18855               	.LBB806:
 18856 6c72 8091 A806 		lds r24,1704
 18857 6c76 83FF      		sbrs r24,3
 18858 6c78 00C0      		rjmp .L1060
 18859               	.LBE806:
 18860               	.LBE805:
 18861               	.LBB807:
 18862               	.LBB808:
 18863               	.LM1896:
 18864 6c7a 83E0      		ldi r24,lo8(3)
 18865               	.L1073:
 18866 6c7c 8093 0000 		sts ledState+1,r24
 18867               	.L1057:
 18868 6c80 20E0      		ldi r18,lo8(0)
 18869 6c82 30E0      		ldi r19,hi8(0)
 18870               	.LBE808:
 18871               	.LBE807:
 18872               	.LBB809:
 18873               	.LBB810:
 18874               	.LBB811:
 18875               	.LM1897:
 18876 6c84 41E0      		ldi r20,lo8(1)
 18877 6c86 50E0      		ldi r21,hi8(1)
 18878 6c88 C0EA      		ldi r28,lo8(1696)
 18879 6c8a D6E0      		ldi r29,hi8(1696)
 18880               	.L1065:
 18881               	.LBE811:
 18882               	.LBE810:
 18883               	.LM1898:
 18884 6c8c D901      		movw r26,r18
 18885 6c8e A050      		subi r26,lo8(-(ledCounter))
 18886 6c90 B040      		sbci r27,hi8(-(ledCounter))
 18887 6c92 8C91      		ld r24,X
 18888 6c94 8F5F      		subi r24,lo8(-(1))
 18889 6c96 8C93      		st X,r24
 18890               	.LM1899:
 18891 6c98 F901      		movw r30,r18
 18892 6c9a E050      		subi r30,lo8(-(ledState))
 18893 6c9c F040      		sbci r31,hi8(-(ledState))
 18894 6c9e 8081      		ld r24,Z
 18895 6ca0 8130      		cpi r24,lo8(1)
 18896 6ca2 01F4      		brne .L1061
 18897               	.LBB813:
 18898               	.LBB814:
 18899               	.LM1900:
 18900 6ca4 CA01      		movw r24,r20
 18901 6ca6 022E      		mov r0,r18
 18902 6ca8 00C0      		rjmp 2f
 18903 6caa 880F      	1:	lsl r24
 18904 6cac 991F      		rol r25
 18905 6cae 0A94      	2:	dec r0
 18906 6cb0 02F4      		brpl 1b
 18907 6cb2 8D83      		std Y+5,r24
 18908 6cb4 00C0      		rjmp .L1062
 18909               	.L1061:
 18910               	.LBE814:
 18911               	.LBE813:
 18912               	.LM1901:
 18913 6cb6 8081      		ld r24,Z
 18914 6cb8 8230      		cpi r24,lo8(2)
 18915 6cba 01F4      		brne .L1063
 18916               	.LM1902:
 18917 6cbc 8C91      		ld r24,X
 18918 6cbe 8B30      		cpi r24,lo8(11)
 18919 6cc0 00F0      		brlo .L1062
 18920 6cc2 00C0      		rjmp .L1074
 18921               	.L1063:
 18922               	.LM1903:
 18923 6cc4 8081      		ld r24,Z
 18924 6cc6 8330      		cpi r24,lo8(3)
 18925 6cc8 01F4      		brne .L1064
 18926               	.LM1904:
 18927 6cca 8C91      		ld r24,X
 18928 6ccc 8330      		cpi r24,lo8(3)
 18929 6cce 00F0      		brlo .L1062
 18930               	.L1074:
 18931               	.LBB815:
 18932               	.LBB816:
 18933               	.LM1905:
 18934 6cd0 CA01      		movw r24,r20
 18935 6cd2 022E      		mov r0,r18
 18936 6cd4 00C0      		rjmp 2f
 18937 6cd6 880F      	1:	lsl r24
 18938 6cd8 991F      		rol r25
 18939 6cda 0A94      	2:	dec r0
 18940 6cdc 02F4      		brpl 1b
 18941 6cde 8F83      		std Y+7,r24
 18942               	.LBE816:
 18943               	.LBE815:
 18944               	.LM1906:
 18945 6ce0 1C92      		st X,__zero_reg__
 18946 6ce2 00C0      		rjmp .L1062
 18947               	.L1064:
 18948               	.LBB817:
 18949               	.LBB812:
 18950               	.LM1907:
 18951 6ce4 CA01      		movw r24,r20
 18952 6ce6 022E      		mov r0,r18
 18953 6ce8 00C0      		rjmp 2f
 18954 6cea 880F      	1:	lsl r24
 18955 6cec 991F      		rol r25
 18956 6cee 0A94      	2:	dec r0
 18957 6cf0 02F4      		brpl 1b
 18958 6cf2 8E83      		std Y+6,r24
 18959               	.L1062:
 18960 6cf4 2F5F      		subi r18,lo8(-(1))
 18961 6cf6 3F4F      		sbci r19,hi8(-(1))
 18962               	.LBE812:
 18963               	.LBE817:
 18964               	.LM1908:
 18965 6cf8 2230      		cpi r18,2
 18966 6cfa 3105      		cpc r19,__zero_reg__
 18967 6cfc 01F4      		brne .L1065
 18968 6cfe 00C0      		rjmp .L1075
 18969               	.L1059:
 18970               	.LBE809:
 18971               	.LBB818:
 18972               	.LBB819:
 18973               	.LM1909:
 18974 6d00 82E0      		ldi r24,lo8(2)
 18975 6d02 00C0      		rjmp .L1073
 18976               	.L1060:
 18977               	.LBE819:
 18978               	.LBE818:
 18979               	.LBB820:
 18980               	.LBB821:
 18981               	.LM1910:
 18982 6d04 1092 0000 		sts ledState+1,__zero_reg__
 18983 6d08 00C0      		rjmp .L1057
 18984               	.L1075:
 18985               	/* epilogue start */
 18986               	.LBE821:
 18987               	.LBE820:
 18988               	.LM1911:
 18989 6d0a FF91      		pop r31
 18990 6d0c EF91      		pop r30
 18991 6d0e DF91      		pop r29
 18992 6d10 CF91      		pop r28
 18993 6d12 BF91      		pop r27
 18994 6d14 AF91      		pop r26
 18995 6d16 9F91      		pop r25
 18996 6d18 8F91      		pop r24
 18997 6d1a 7F91      		pop r23
 18998 6d1c 6F91      		pop r22
 18999 6d1e 5F91      		pop r21
 19000 6d20 4F91      		pop r20
 19001 6d22 3F91      		pop r19
 19002 6d24 2F91      		pop r18
 19003 6d26 0F90      		pop r0
 19004 6d28 0BBE      		out 59-0,r0
 19005 6d2a 0F90      		pop r0
 19006 6d2c 0FBE      		out __SREG__,r0
 19007 6d2e 0F90      		pop r0
 19008 6d30 1F90      		pop __zero_reg__
 19009 6d32 1895      		reti
 19010               	.LFE149:
 19012               	.global	SD_BackroundWriter_Init
 19014               	SD_BackroundWriter_Init:
 19015               	.LFB150:
 19016               	.LM1912:
 19017               	/* prologue: function */
 19018               	/* frame size = 0 */
 19019               	.LM1913:
 19020 6d34 E0E4      		ldi r30,lo8(2624)
 19021 6d36 FAE0      		ldi r31,hi8(2624)
 19022 6d38 80E0      		ldi r24,lo8(2304)
 19023 6d3a 99E0      		ldi r25,hi8(2304)
 19024 6d3c 86A3      		std Z+38,r24
 19025 6d3e 97A3      		std Z+39,r25
 19026               	.LM1914:
 19027 6d40 8081      		ld r24,Z
 19028 6d42 807F      		andi r24,lo8(-16)
 19029 6d44 8560      		ori r24,lo8(5)
 19030 6d46 8083      		st Z,r24
 19031               	.LM1915:
 19032 6d48 8681      		ldd r24,Z+6
 19033 6d4a 8C7F      		andi r24,lo8(-4)
 19034 6d4c 8260      		ori r24,lo8(2)
 19035 6d4e 8683      		std Z+6,r24
 19036               	/* epilogue start */
 19037               	.LM1916:
 19038 6d50 0895      		ret
 19039               	.LFE150:
 19041               	.global	SD_WriteRTCBlock
 19043               	SD_WriteRTCBlock:
 19044               	.LFB153:
 19045               	.LM1917:
 19046               	.LVL1477:
 19047 6d52 AF92      		push r10
 19048 6d54 BF92      		push r11
 19049 6d56 CF92      		push r12
 19050 6d58 DF92      		push r13
 19051 6d5a EF92      		push r14
 19052 6d5c FF92      		push r15
 19053 6d5e 0F93      		push r16
 19054 6d60 1F93      		push r17
 19055               	/* prologue: function */
 19056               	/* frame size = 0 */
 19057 6d62 7B01      		movw r14,r22
 19058 6d64 8C01      		movw r16,r24
 19059 6d66 5901      		movw r10,r18
 19060 6d68 6A01      		movw r12,r20
 19061               	.LBB822:
 19062               	.LBB823:
 19063               	.LM1918:
 19064 6d6a 8FEF      		ldi r24,lo8(-1)
 19065 6d6c 9FEF      		ldi r25,hi8(-1)
 19066 6d6e AFEF      		ldi r26,hlo8(-1)
 19067 6d70 BFEF      		ldi r27,hhi8(-1)
 19068 6d72 8093 0000 		sts CRC,r24
 19069 6d76 9093 0000 		sts (CRC)+1,r25
 19070 6d7a A093 0000 		sts (CRC)+2,r26
 19071 6d7e B093 0000 		sts (CRC)+3,r27
 19072               	.LBE823:
 19073               	.LBE822:
 19074               	.LM1919:
 19075 6d82 6CE4      		ldi r22,lo8(-1327598516)
 19076 6d84 74E7      		ldi r23,hi8(-1327598516)
 19077 6d86 8EED      		ldi r24,hlo8(-1327598516)
 19078 6d88 90EB      		ldi r25,hhi8(-1327598516)
 19079               	.LVL1478:
 19080 6d8a 0E94 0000 		call SD_Write32
 19081               	.LVL1479:
 19082               	.LM1920:
 19083 6d8e 6BE1      		ldi r22,lo8(27)
 19084 6d90 70E0      		ldi r23,hi8(27)
 19085 6d92 80E0      		ldi r24,hlo8(27)
 19086 6d94 90E0      		ldi r25,hhi8(27)
 19087 6d96 0E94 0000 		call SD_Write32
 19088               	.LM1921:
 19089 6d9a 82E0      		ldi r24,lo8(2)
 19090 6d9c 90E0      		ldi r25,hi8(2)
 19091 6d9e 0E94 0000 		call SD_Write16
 19092               	.LM1922:
 19093 6da2 C801      		movw r24,r16
 19094 6da4 B701      		movw r22,r14
 19095 6da6 0E94 0000 		call SD_Write32
 19096               	.LM1923:
 19097 6daa C601      		movw r24,r12
 19098 6dac B501      		movw r22,r10
 19099 6dae 0E94 0000 		call SD_Write32
 19100               	.LM1924:
 19101 6db2 80E0      		ldi r24,lo8(0)
 19102 6db4 0E94 0000 		call SD_Write8
 19103               	.LM1925:
 19104 6db8 60E0      		ldi r22,lo8(0)
 19105 6dba 70E0      		ldi r23,hi8(0)
 19106 6dbc 80E0      		ldi r24,hlo8(0)
 19107 6dbe 90E0      		ldi r25,hhi8(0)
 19108 6dc0 0E94 0000 		call SD_Write32
 19109               	.LM1926:
 19110 6dc4 0E94 0000 		call SD_WriteCRC
 19111               	.LM1927:
 19112 6dc8 80E0      		ldi r24,lo8(Log_File)
 19113 6dca 90E0      		ldi r25,hi8(Log_File)
 19114 6dcc 0E94 0000 		call f_sync
 19115               	/* epilogue start */
 19116               	.LM1928:
 19117 6dd0 1F91      		pop r17
 19118 6dd2 0F91      		pop r16
 19119 6dd4 FF90      		pop r15
 19120 6dd6 EF90      		pop r14
 19121               	.LVL1480:
 19122 6dd8 DF90      		pop r13
 19123 6dda CF90      		pop r12
 19124 6ddc BF90      		pop r11
 19125 6dde AF90      		pop r10
 19126               	.LVL1481:
 19127 6de0 0895      		ret
 19128               	.LFE153:
 19130               	.global	getDeviceID
 19132               	getDeviceID:
 19133               	.LFB159:
 19134               	.LM1929:
 19135 6de2 BF92      		push r11
 19136 6de4 CF92      		push r12
 19137 6de6 DF92      		push r13
 19138 6de8 EF92      		push r14
 19139 6dea FF92      		push r15
 19140 6dec 0F93      		push r16
 19141 6dee 1F93      		push r17
 19142 6df0 DF93      		push r29
 19143 6df2 CF93      		push r28
 19144 6df4 CDB7      		in r28,__SP_L__
 19145 6df6 DEB7      		in r29,__SP_H__
 19146 6df8 2597      		sbiw r28,5
 19147 6dfa CDBF      		out __SP_L__,r28
 19148 6dfc DEBF      		out __SP_H__,r29
 19149               	/* prologue: function */
 19150               	/* frame size = 5 */
 19151               	.LBB824:
 19152               	.LBB825:
 19153               	.LM1930:
 19154 6dfe 0AEC      		ldi r16,lo8(458)
 19155 6e00 11E0      		ldi r17,hi8(458)
 19156 6e02 A2E0      		ldi r26,lo8(2)
 19157 6e04 BA2E      		mov r11,r26
 19158 6e06 D801      		movw r26,r16
 19159 6e08 BC92      		st X,r11
 19160               	.LBB826:
 19161               	.LM1931:
 19162 6e0a E8E0      		ldi r30,lo8(8)
 19163 6e0c F0E0      		ldi r31,hi8(8)
 19164               	/* #APP */
 19165               	 ;  264 "sensorsCS.c" 1
 19166 6e0e E491      		lpm r30, Z
 19167               		
 19168               	 ;  0 "" 2
 19169               	.LVL1482:
 19170               	/* #NOAPP */
 19171               	.LBE826:
 19172               	.LM1932:
 19173 6e10 1C92      		st X,__zero_reg__
 19174               	.LBE825:
 19175               	.LBE824:
 19176               	.LM1933:
 19177 6e12 8E2F      		mov r24,r30
 19178 6e14 90E0      		ldi r25,lo8(0)
 19179 6e16 6E01      		movw r12,r28
 19180 6e18 0894      		sec
 19181 6e1a C11C      		adc r12,__zero_reg__
 19182 6e1c D11C      		adc r13,__zero_reg__
 19183 6e1e B601      		movw r22,r12
 19184 6e20 40E1      		ldi r20,lo8(16)
 19185 6e22 50E0      		ldi r21,hi8(16)
 19186 6e24 0E94 0000 		call itoa
 19187               	.LVL1483:
 19188 6e28 BC01      		movw r22,r24
 19189 6e2a F0E0      		ldi r31,lo8(deviceID)
 19190 6e2c EF2E      		mov r14,r31
 19191 6e2e F0E0      		ldi r31,hi8(deviceID)
 19192 6e30 FF2E      		mov r15,r31
 19193 6e32 C701      		movw r24,r14
 19194 6e34 0E94 0000 		call strcpy
 19195               	.LBB827:
 19196               	.LBB828:
 19197               	.LM1934:
 19198 6e38 F801      		movw r30,r16
 19199 6e3a B082      		st Z,r11
 19200               	.LBB829:
 19201               	.LM1935:
 19202 6e3c E9E0      		ldi r30,lo8(9)
 19203 6e3e F0E0      		ldi r31,hi8(9)
 19204               	/* #APP */
 19205               	 ;  264 "sensorsCS.c" 1
 19206 6e40 E491      		lpm r30, Z
 19207               		
 19208               	 ;  0 "" 2
 19209               	.LVL1484:
 19210               	/* #NOAPP */
 19211               	.LBE829:
 19212               	.LM1936:
 19213 6e42 D801      		movw r26,r16
 19214 6e44 1C92      		st X,__zero_reg__
 19215               	.LBE828:
 19216               	.LBE827:
 19217               	.LM1937:
 19218 6e46 8E2F      		mov r24,r30
 19219 6e48 90E0      		ldi r25,lo8(0)
 19220 6e4a B601      		movw r22,r12
 19221 6e4c 40E1      		ldi r20,lo8(16)
 19222 6e4e 50E0      		ldi r21,hi8(16)
 19223 6e50 0E94 0000 		call itoa
 19224               	.LVL1485:
 19225 6e54 BC01      		movw r22,r24
 19226 6e56 C701      		movw r24,r14
 19227 6e58 0E94 0000 		call strcat
 19228               	.LBB830:
 19229               	.LBB831:
 19230               	.LM1938:
 19231 6e5c F801      		movw r30,r16
 19232 6e5e B082      		st Z,r11
 19233               	.LBB832:
 19234               	.LM1939:
 19235 6e60 EAE0      		ldi r30,lo8(10)
 19236 6e62 F0E0      		ldi r31,hi8(10)
 19237               	/* #APP */
 19238               	 ;  264 "sensorsCS.c" 1
 19239 6e64 E491      		lpm r30, Z
 19240               		
 19241               	 ;  0 "" 2
 19242               	.LVL1486:
 19243               	/* #NOAPP */
 19244               	.LBE832:
 19245               	.LM1940:
 19246 6e66 D801      		movw r26,r16
 19247 6e68 1C92      		st X,__zero_reg__
 19248               	.LBE831:
 19249               	.LBE830:
 19250               	.LM1941:
 19251 6e6a 8E2F      		mov r24,r30
 19252 6e6c 90E0      		ldi r25,lo8(0)
 19253 6e6e B601      		movw r22,r12
 19254 6e70 40E1      		ldi r20,lo8(16)
 19255 6e72 50E0      		ldi r21,hi8(16)
 19256 6e74 0E94 0000 		call itoa
 19257               	.LVL1487:
 19258 6e78 BC01      		movw r22,r24
 19259 6e7a C701      		movw r24,r14
 19260 6e7c 0E94 0000 		call strcat
 19261               	.LBB833:
 19262               	.LBB834:
 19263               	.LM1942:
 19264 6e80 F801      		movw r30,r16
 19265 6e82 B082      		st Z,r11
 19266               	.LBB835:
 19267               	.LM1943:
 19268 6e84 EBE0      		ldi r30,lo8(11)
 19269 6e86 F0E0      		ldi r31,hi8(11)
 19270               	/* #APP */
 19271               	 ;  264 "sensorsCS.c" 1
 19272 6e88 E491      		lpm r30, Z
 19273               		
 19274               	 ;  0 "" 2
 19275               	.LVL1488:
 19276               	/* #NOAPP */
 19277               	.LBE835:
 19278               	.LM1944:
 19279 6e8a D801      		movw r26,r16
 19280 6e8c 1C92      		st X,__zero_reg__
 19281               	.LBE834:
 19282               	.LBE833:
 19283               	.LM1945:
 19284 6e8e 8E2F      		mov r24,r30
 19285 6e90 90E0      		ldi r25,lo8(0)
 19286 6e92 B601      		movw r22,r12
 19287 6e94 40E1      		ldi r20,lo8(16)
 19288 6e96 50E0      		ldi r21,hi8(16)
 19289 6e98 0E94 0000 		call itoa
 19290               	.LVL1489:
 19291 6e9c BC01      		movw r22,r24
 19292 6e9e C701      		movw r24,r14
 19293 6ea0 0E94 0000 		call strcat
 19294               	.LBB836:
 19295               	.LBB837:
 19296               	.LM1946:
 19297 6ea4 F801      		movw r30,r16
 19298 6ea6 B082      		st Z,r11
 19299               	.LBB838:
 19300               	.LM1947:
 19301 6ea8 ECE0      		ldi r30,lo8(12)
 19302 6eaa F0E0      		ldi r31,hi8(12)
 19303               	/* #APP */
 19304               	 ;  264 "sensorsCS.c" 1
 19305 6eac E491      		lpm r30, Z
 19306               		
 19307               	 ;  0 "" 2
 19308               	.LVL1490:
 19309               	/* #NOAPP */
 19310               	.LBE838:
 19311               	.LM1948:
 19312 6eae D801      		movw r26,r16
 19313 6eb0 1C92      		st X,__zero_reg__
 19314               	.LBE837:
 19315               	.LBE836:
 19316               	.LM1949:
 19317 6eb2 8E2F      		mov r24,r30
 19318 6eb4 90E0      		ldi r25,lo8(0)
 19319 6eb6 B601      		movw r22,r12
 19320 6eb8 40E1      		ldi r20,lo8(16)
 19321 6eba 50E0      		ldi r21,hi8(16)
 19322 6ebc 0E94 0000 		call itoa
 19323               	.LVL1491:
 19324 6ec0 BC01      		movw r22,r24
 19325 6ec2 C701      		movw r24,r14
 19326 6ec4 0E94 0000 		call strcat
 19327               	.LBB839:
 19328               	.LBB840:
 19329               	.LM1950:
 19330 6ec8 F801      		movw r30,r16
 19331 6eca B082      		st Z,r11
 19332               	.LBB841:
 19333               	.LM1951:
 19334 6ecc EDE0      		ldi r30,lo8(13)
 19335 6ece F0E0      		ldi r31,hi8(13)
 19336               	/* #APP */
 19337               	 ;  264 "sensorsCS.c" 1
 19338 6ed0 E491      		lpm r30, Z
 19339               		
 19340               	 ;  0 "" 2
 19341               	.LVL1492:
 19342               	/* #NOAPP */
 19343               	.LBE841:
 19344               	.LM1952:
 19345 6ed2 D801      		movw r26,r16
 19346 6ed4 1C92      		st X,__zero_reg__
 19347               	.LBE840:
 19348               	.LBE839:
 19349               	.LM1953:
 19350 6ed6 8E2F      		mov r24,r30
 19351 6ed8 90E0      		ldi r25,lo8(0)
 19352 6eda B601      		movw r22,r12
 19353 6edc 40E1      		ldi r20,lo8(16)
 19354 6ede 50E0      		ldi r21,hi8(16)
 19355 6ee0 0E94 0000 		call itoa
 19356               	.LVL1493:
 19357 6ee4 BC01      		movw r22,r24
 19358 6ee6 C701      		movw r24,r14
 19359 6ee8 0E94 0000 		call strcat
 19360               	.LBB842:
 19361               	.LBB843:
 19362               	.LM1954:
 19363 6eec F801      		movw r30,r16
 19364 6eee B082      		st Z,r11
 19365               	.LBB844:
 19366               	.LM1955:
 19367 6ef0 E0E1      		ldi r30,lo8(16)
 19368 6ef2 F0E0      		ldi r31,hi8(16)
 19369               	/* #APP */
 19370               	 ;  264 "sensorsCS.c" 1
 19371 6ef4 E491      		lpm r30, Z
 19372               		
 19373               	 ;  0 "" 2
 19374               	.LVL1494:
 19375               	/* #NOAPP */
 19376               	.LBE844:
 19377               	.LM1956:
 19378 6ef6 D801      		movw r26,r16
 19379 6ef8 1C92      		st X,__zero_reg__
 19380               	.LBE843:
 19381               	.LBE842:
 19382               	.LM1957:
 19383 6efa 8E2F      		mov r24,r30
 19384 6efc 90E0      		ldi r25,lo8(0)
 19385 6efe B601      		movw r22,r12
 19386 6f00 40E1      		ldi r20,lo8(16)
 19387 6f02 50E0      		ldi r21,hi8(16)
 19388 6f04 0E94 0000 		call itoa
 19389               	.LVL1495:
 19390 6f08 BC01      		movw r22,r24
 19391 6f0a C701      		movw r24,r14
 19392 6f0c 0E94 0000 		call strcat
 19393               	.LBB845:
 19394               	.LBB846:
 19395               	.LM1958:
 19396 6f10 F801      		movw r30,r16
 19397 6f12 B082      		st Z,r11
 19398               	.LBB847:
 19399               	.LM1959:
 19400 6f14 E2E1      		ldi r30,lo8(18)
 19401 6f16 F0E0      		ldi r31,hi8(18)
 19402               	/* #APP */
 19403               	 ;  264 "sensorsCS.c" 1
 19404 6f18 E491      		lpm r30, Z
 19405               		
 19406               	 ;  0 "" 2
 19407               	.LVL1496:
 19408               	/* #NOAPP */
 19409               	.LBE847:
 19410               	.LM1960:
 19411 6f1a D801      		movw r26,r16
 19412 6f1c 1C92      		st X,__zero_reg__
 19413               	.LBE846:
 19414               	.LBE845:
 19415               	.LM1961:
 19416 6f1e 8E2F      		mov r24,r30
 19417 6f20 90E0      		ldi r25,lo8(0)
 19418 6f22 B601      		movw r22,r12
 19419 6f24 40E1      		ldi r20,lo8(16)
 19420 6f26 50E0      		ldi r21,hi8(16)
 19421 6f28 0E94 0000 		call itoa
 19422               	.LVL1497:
 19423 6f2c BC01      		movw r22,r24
 19424 6f2e C701      		movw r24,r14
 19425 6f30 0E94 0000 		call strcat
 19426               	.LBB848:
 19427               	.LBB849:
 19428               	.LM1962:
 19429 6f34 F801      		movw r30,r16
 19430 6f36 B082      		st Z,r11
 19431               	.LBB850:
 19432               	.LM1963:
 19433 6f38 E3E1      		ldi r30,lo8(19)
 19434 6f3a F0E0      		ldi r31,hi8(19)
 19435               	/* #APP */
 19436               	 ;  264 "sensorsCS.c" 1
 19437 6f3c E491      		lpm r30, Z
 19438               		
 19439               	 ;  0 "" 2
 19440               	.LVL1498:
 19441               	/* #NOAPP */
 19442               	.LBE850:
 19443               	.LM1964:
 19444 6f3e D801      		movw r26,r16
 19445 6f40 1C92      		st X,__zero_reg__
 19446               	.LBE849:
 19447               	.LBE848:
 19448               	.LM1965:
 19449 6f42 8E2F      		mov r24,r30
 19450 6f44 90E0      		ldi r25,lo8(0)
 19451 6f46 B601      		movw r22,r12
 19452 6f48 40E1      		ldi r20,lo8(16)
 19453 6f4a 50E0      		ldi r21,hi8(16)
 19454 6f4c 0E94 0000 		call itoa
 19455               	.LVL1499:
 19456 6f50 BC01      		movw r22,r24
 19457 6f52 C701      		movw r24,r14
 19458 6f54 0E94 0000 		call strcat
 19459               	.LBB851:
 19460               	.LBB852:
 19461               	.LM1966:
 19462 6f58 F801      		movw r30,r16
 19463 6f5a B082      		st Z,r11
 19464               	.LBB853:
 19465               	.LM1967:
 19466 6f5c E4E1      		ldi r30,lo8(20)
 19467 6f5e F0E0      		ldi r31,hi8(20)
 19468               	/* #APP */
 19469               	 ;  264 "sensorsCS.c" 1
 19470 6f60 E491      		lpm r30, Z
 19471               		
 19472               	 ;  0 "" 2
 19473               	.LVL1500:
 19474               	/* #NOAPP */
 19475               	.LBE853:
 19476               	.LM1968:
 19477 6f62 D801      		movw r26,r16
 19478 6f64 1C92      		st X,__zero_reg__
 19479               	.LBE852:
 19480               	.LBE851:
 19481               	.LM1969:
 19482 6f66 8E2F      		mov r24,r30
 19483 6f68 90E0      		ldi r25,lo8(0)
 19484 6f6a B601      		movw r22,r12
 19485 6f6c 40E1      		ldi r20,lo8(16)
 19486 6f6e 50E0      		ldi r21,hi8(16)
 19487 6f70 0E94 0000 		call itoa
 19488               	.LVL1501:
 19489 6f74 BC01      		movw r22,r24
 19490 6f76 C701      		movw r24,r14
 19491 6f78 0E94 0000 		call strcat
 19492               	.LBB854:
 19493               	.LBB855:
 19494               	.LM1970:
 19495 6f7c F801      		movw r30,r16
 19496 6f7e B082      		st Z,r11
 19497               	.LBB856:
 19498               	.LM1971:
 19499 6f80 E5E1      		ldi r30,lo8(21)
 19500 6f82 F0E0      		ldi r31,hi8(21)
 19501               	/* #APP */
 19502               	 ;  264 "sensorsCS.c" 1
 19503 6f84 E491      		lpm r30, Z
 19504               		
 19505               	 ;  0 "" 2
 19506               	.LVL1502:
 19507               	/* #NOAPP */
 19508               	.LBE856:
 19509               	.LM1972:
 19510 6f86 D801      		movw r26,r16
 19511 6f88 1C92      		st X,__zero_reg__
 19512               	.LBE855:
 19513               	.LBE854:
 19514               	.LM1973:
 19515 6f8a 8E2F      		mov r24,r30
 19516 6f8c 90E0      		ldi r25,lo8(0)
 19517 6f8e B601      		movw r22,r12
 19518 6f90 40E1      		ldi r20,lo8(16)
 19519 6f92 50E0      		ldi r21,hi8(16)
 19520 6f94 0E94 0000 		call itoa
 19521               	.LVL1503:
 19522 6f98 BC01      		movw r22,r24
 19523 6f9a C701      		movw r24,r14
 19524 6f9c 0E94 0000 		call strcat
 19525               	/* epilogue start */
 19526               	.LM1974:
 19527 6fa0 2596      		adiw r28,5
 19528 6fa2 CDBF      		out __SP_L__,r28
 19529 6fa4 DEBF      		out __SP_H__,r29
 19530 6fa6 CF91      		pop r28
 19531 6fa8 DF91      		pop r29
 19532 6faa 1F91      		pop r17
 19533 6fac 0F91      		pop r16
 19534 6fae FF90      		pop r15
 19535 6fb0 EF90      		pop r14
 19536 6fb2 DF90      		pop r13
 19537 6fb4 CF90      		pop r12
 19538 6fb6 BF90      		pop r11
 19539 6fb8 0895      		ret
 19540               	.LFE159:
 19542               	.global	SD_WriteString
 19544               	SD_WriteString:
 19545               	.LFB95:
 19546               	.LM1975:
 19547               	.LVL1504:
 19548 6fba EF92      		push r14
 19549 6fbc FF92      		push r15
 19550 6fbe 0F93      		push r16
 19551 6fc0 1F93      		push r17
 19552 6fc2 CF93      		push r28
 19553 6fc4 DF93      		push r29
 19554               	/* prologue: function */
 19555               	/* frame size = 0 */
 19556 6fc6 EC01      		movw r28,r24
 19557               	.LM1976:
 19558 6fc8 60E0      		ldi r22,lo8(Log_File)
 19559 6fca 70E0      		ldi r23,hi8(Log_File)
 19560 6fcc 0E94 0000 		call f_puts
 19561               	.LVL1505:
 19562 6fd0 60E0      		ldi r22,lo8(0)
 19563 6fd2 70E0      		ldi r23,hi8(0)
 19564               	.LVL1506:
 19565 6fd4 00C0      		rjmp .L1083
 19566               	.L1084:
 19567               	.LBB857:
 19568               	.LM1977:
 19569 6fd6 E090 0000 		lds r14,CRC
 19570 6fda F090 0000 		lds r15,(CRC)+1
 19571 6fde 0091 0000 		lds r16,(CRC)+2
 19572 6fe2 1091 0000 		lds r17,(CRC)+3
 19573 6fe6 2091 0000 		lds r18,CRC
 19574 6fea 3091 0000 		lds r19,(CRC)+1
 19575 6fee 4091 0000 		lds r20,(CRC)+2
 19576 6ff2 5091 0000 		lds r21,(CRC)+3
 19577 6ff6 3070      		andi r19,hi8(255)
 19578 6ff8 4070      		andi r20,hlo8(255)
 19579 6ffa 5070      		andi r21,hhi8(255)
 19580 6ffc FE01      		movw r30,r28
 19581 6ffe E60F      		add r30,r22
 19582 7000 F71F      		adc r31,r23
 19583 7002 8081      		ld r24,Z
 19584 7004 90E0      		ldi r25,lo8(0)
 19585 7006 A0E0      		ldi r26,lo8(0)
 19586 7008 B0E0      		ldi r27,hi8(0)
 19587 700a 2827      		eor r18,r24
 19588 700c 3927      		eor r19,r25
 19589 700e 4A27      		eor r20,r26
 19590 7010 5B27      		eor r21,r27
 19591 7012 220F      		lsl r18
 19592 7014 331F      		rol r19
 19593 7016 220F      		lsl r18
 19594 7018 331F      		rol r19
 19595 701a 2050      		subi r18,lo8(-(crc_table))
 19596 701c 3040      		sbci r19,hi8(-(crc_table))
 19597 701e EF2C      		mov r14,r15
 19598 7020 F02E      		mov r15,r16
 19599 7022 012F      		mov r16,r17
 19600 7024 1127      		clr r17
 19601 7026 F901      		movw r30,r18
 19602 7028 8081      		ld r24,Z
 19603 702a 9181      		ldd r25,Z+1
 19604 702c A281      		ldd r26,Z+2
 19605 702e B381      		ldd r27,Z+3
 19606 7030 E826      		eor r14,r24
 19607 7032 F926      		eor r15,r25
 19608 7034 0A27      		eor r16,r26
 19609 7036 1B27      		eor r17,r27
 19610 7038 E092 0000 		sts CRC,r14
 19611 703c F092 0000 		sts (CRC)+1,r15
 19612 7040 0093 0000 		sts (CRC)+2,r16
 19613 7044 1093 0000 		sts (CRC)+3,r17
 19614               	.LM1978:
 19615 7048 6F5F      		subi r22,lo8(-(1))
 19616 704a 7F4F      		sbci r23,hi8(-(1))
 19617               	.L1083:
 19618 704c FE01      		movw r30,r28
 19619 704e 0190      		ld __tmp_reg__,Z+
 19620 7050 0020      		tst __tmp_reg__
 19621 7052 01F4      		brne .-6
 19622 7054 3197      		sbiw r30,1
 19623 7056 EC1B      		sub r30,r28
 19624 7058 FD0B      		sbc r31,r29
 19625 705a 6E17      		cp r22,r30
 19626 705c 7F07      		cpc r23,r31
 19627 705e 00F4      		brsh .+2
 19628 7060 00C0      		rjmp .L1084
 19629               	/* epilogue start */
 19630               	.LBE857:
 19631               	.LM1979:
 19632 7062 DF91      		pop r29
 19633 7064 CF91      		pop r28
 19634               	.LVL1507:
 19635 7066 1F91      		pop r17
 19636 7068 0F91      		pop r16
 19637 706a FF90      		pop r15
 19638 706c EF90      		pop r14
 19639 706e 0895      		ret
 19640               	.LFE95:
 19642               		.data
 19643               	.LC4:
 19644 0036 4163 6365 		.string	"Accel_X"
 19644      6C5F 5800 
 19645               	.LC5:
 19646 003e 3136 00   		.string	"16"
 19647               	.LC6:
 19648 0041 4163 6365 		.string	"Accel_Y"
 19648      6C5F 5900 
 19649               	.LC7:
 19650 0049 4163 6365 		.string	"Accel_Z"
 19650      6C5F 5A00 
 19651               		.text
 19652               	.global	SD_WriteAccelBuffer
 19654               	SD_WriteAccelBuffer:
 19655               	.LFB158:
 19656               	.LM1980:
 19657               	.LVL1508:
 19658 7070 EF92      		push r14
 19659 7072 FF92      		push r15
 19660 7074 0F93      		push r16
 19661 7076 1F93      		push r17
 19662 7078 CF93      		push r28
 19663 707a DF93      		push r29
 19664               	/* prologue: function */
 19665               	/* frame size = 0 */
 19666 707c 082F      		mov r16,r24
 19667               	.LBB858:
 19668               	.LBB859:
 19669               	.LM1981:
 19670 707e 8FEF      		ldi r24,lo8(-1)
 19671 7080 9FEF      		ldi r25,hi8(-1)
 19672 7082 AFEF      		ldi r26,hlo8(-1)
 19673 7084 BFEF      		ldi r27,hhi8(-1)
 19674               	.LVL1509:
 19675 7086 8093 0000 		sts CRC,r24
 19676 708a 9093 0000 		sts (CRC)+1,r25
 19677 708e A093 0000 		sts (CRC)+2,r26
 19678 7092 B093 0000 		sts (CRC)+3,r27
 19679               	.LBE859:
 19680               	.LBE858:
 19681               	.LM1982:
 19682 7096 6CE4      		ldi r22,lo8(-1327598516)
 19683 7098 74E7      		ldi r23,hi8(-1327598516)
 19684 709a 8EED      		ldi r24,hlo8(-1327598516)
 19685 709c 90EB      		ldi r25,hhi8(-1327598516)
 19686 709e 0E94 0000 		call SD_Write32
 19687               	.LM1983:
 19688 70a2 64E4      		ldi r22,lo8(1860)
 19689 70a4 77E0      		ldi r23,hi8(1860)
 19690 70a6 80E0      		ldi r24,hlo8(1860)
 19691 70a8 90E0      		ldi r25,hhi8(1860)
 19692 70aa 0E94 0000 		call SD_Write32
 19693               	.LM1984:
 19694 70ae 83E0      		ldi r24,lo8(3)
 19695 70b0 90E0      		ldi r25,hi8(3)
 19696 70b2 0E94 0000 		call SD_Write16
 19697               	.LM1985:
 19698 70b6 10E0      		ldi r17,lo8(0)
 19699 70b8 F801      		movw r30,r16
 19700               	.LVL1510:
 19701 70ba EE0F      		lsl r30
 19702 70bc FF1F      		rol r31
 19703 70be EE0F      		lsl r30
 19704 70c0 FF1F      		rol r31
 19705 70c2 E050      		subi r30,lo8(-(accelSampleStartTime))
 19706 70c4 F040      		sbci r31,hi8(-(accelSampleStartTime))
 19707 70c6 6081      		ld r22,Z
 19708 70c8 7181      		ldd r23,Z+1
 19709 70ca 8281      		ldd r24,Z+2
 19710 70cc 9381      		ldd r25,Z+3
 19711 70ce 0E94 0000 		call SD_Write32
 19712               	.LM1986:
 19713 70d2 60E8      		ldi r22,lo8(5760)
 19714 70d4 76E1      		ldi r23,hi8(5760)
 19715 70d6 80E0      		ldi r24,hlo8(5760)
 19716 70d8 90E0      		ldi r25,hhi8(5760)
 19717 70da 0E94 0000 		call SD_Write32
 19718               	.LM1987:
 19719 70de 6CE2      		ldi r22,lo8(300)
 19720 70e0 71E0      		ldi r23,hi8(300)
 19721 70e2 80E0      		ldi r24,hlo8(300)
 19722 70e4 90E0      		ldi r25,hhi8(300)
 19723 70e6 0E94 0000 		call SD_Write32
 19724               	.LM1988:
 19725 70ea 80E0      		ldi r24,lo8(.LC4)
 19726 70ec 90E0      		ldi r25,hi8(.LC4)
 19727 70ee 0E94 0000 		call SD_WriteString
 19728               	.LM1989:
 19729 70f2 89E0      		ldi r24,lo8(9)
 19730 70f4 0E94 0000 		call SD_Write8
 19731               	.LM1990:
 19732 70f8 80E0      		ldi r24,lo8(.LC5)
 19733 70fa 90E0      		ldi r25,hi8(.LC5)
 19734 70fc 0E94 0000 		call SD_WriteString
 19735               	.LM1991:
 19736 7100 8AE0      		ldi r24,lo8(10)
 19737 7102 0E94 0000 		call SD_Write8
 19738               	.LM1992:
 19739 7106 80E0      		ldi r24,lo8(.LC6)
 19740 7108 90E0      		ldi r25,hi8(.LC6)
 19741 710a 0E94 0000 		call SD_WriteString
 19742               	.LM1993:
 19743 710e 89E0      		ldi r24,lo8(9)
 19744 7110 0E94 0000 		call SD_Write8
 19745               	.LM1994:
 19746 7114 80E0      		ldi r24,lo8(.LC5)
 19747 7116 90E0      		ldi r25,hi8(.LC5)
 19748 7118 0E94 0000 		call SD_WriteString
 19749               	.LM1995:
 19750 711c 8AE0      		ldi r24,lo8(10)
 19751 711e 0E94 0000 		call SD_Write8
 19752               	.LM1996:
 19753 7122 80E0      		ldi r24,lo8(.LC7)
 19754 7124 90E0      		ldi r25,hi8(.LC7)
 19755 7126 0E94 0000 		call SD_WriteString
 19756               	.LM1997:
 19757 712a 89E0      		ldi r24,lo8(9)
 19758 712c 0E94 0000 		call SD_Write8
 19759               	.LM1998:
 19760 7130 80E0      		ldi r24,lo8(.LC5)
 19761 7132 90E0      		ldi r25,hi8(.LC5)
 19762 7134 0E94 0000 		call SD_WriteString
 19763               	.LM1999:
 19764 7138 8AE0      		ldi r24,lo8(10)
 19765 713a 0E94 0000 		call SD_Write8
 19766               	.LM2000:
 19767 713e 80E0      		ldi r24,lo8(0)
 19768 7140 0E94 0000 		call SD_Write8
 19769 7144 88E0      		ldi r24,lo8(1800)
 19770 7146 97E0      		ldi r25,hi8(1800)
 19771 7148 089F      		mul r16,r24
 19772 714a 7001      		movw r14,r0
 19773 714c 099F      		mul r16,r25
 19774 714e F00C      		add r15,r0
 19775 7150 189F      		mul r17,r24
 19776 7152 F00C      		add r15,r0
 19777 7154 1124      		clr r1
 19778 7156 80E0      		ldi r24,lo8(accelBuffer)
 19779 7158 90E0      		ldi r25,hi8(accelBuffer)
 19780 715a E80E      		add r14,r24
 19781 715c F91E      		adc r15,r25
 19782 715e C0E0      		ldi r28,lo8(0)
 19783 7160 D0E0      		ldi r29,hi8(0)
 19784               	.LVL1511:
 19785               	.L1087:
 19786               	.LBB860:
 19787               	.LM2001:
 19788 7162 F701      		movw r30,r14
 19789 7164 8191      		ld r24,Z+
 19790 7166 9191      		ld r25,Z+
 19791 7168 7F01      		movw r14,r30
 19792 716a 0E94 0000 		call SD_Write16
 19793               	.LM2002:
 19794 716e 2196      		adiw r28,1
 19795 7170 F3E0      		ldi r31,hi8(900)
 19796 7172 C438      		cpi r28,lo8(900)
 19797 7174 DF07      		cpc r29,r31
 19798 7176 01F4      		brne .L1087
 19799               	.LBE860:
 19800               	.LM2003:
 19801 7178 0E94 0000 		call SD_WriteCRC
 19802               	.LM2004:
 19803 717c 80E0      		ldi r24,lo8(Log_File)
 19804 717e 90E0      		ldi r25,hi8(Log_File)
 19805 7180 0E94 0000 		call f_sync
 19806               	/* epilogue start */
 19807               	.LM2005:
 19808 7184 DF91      		pop r29
 19809 7186 CF91      		pop r28
 19810               	.LVL1512:
 19811 7188 1F91      		pop r17
 19812 718a 0F91      		pop r16
 19813 718c FF90      		pop r15
 19814 718e EF90      		pop r14
 19815 7190 0895      		ret
 19816               	.LFE158:
 19818               		.data
 19819               	.LC8:
 19820 0051 454B 4700 		.string	"EKG"
 19821               		.text
 19822               	.global	SD_WriteEKGBuffer
 19824               	SD_WriteEKGBuffer:
 19825               	.LFB157:
 19826               	.LM2006:
 19827               	.LVL1513:
 19828 7192 EF92      		push r14
 19829 7194 FF92      		push r15
 19830 7196 0F93      		push r16
 19831 7198 1F93      		push r17
 19832 719a CF93      		push r28
 19833 719c DF93      		push r29
 19834               	/* prologue: function */
 19835               	/* frame size = 0 */
 19836 719e 082F      		mov r16,r24
 19837               	.LBB861:
 19838               	.LBB862:
 19839               	.LM2007:
 19840 71a0 8FEF      		ldi r24,lo8(-1)
 19841 71a2 9FEF      		ldi r25,hi8(-1)
 19842 71a4 AFEF      		ldi r26,hlo8(-1)
 19843 71a6 BFEF      		ldi r27,hhi8(-1)
 19844               	.LVL1514:
 19845 71a8 8093 0000 		sts CRC,r24
 19846 71ac 9093 0000 		sts (CRC)+1,r25
 19847 71b0 A093 0000 		sts (CRC)+2,r26
 19848 71b4 B093 0000 		sts (CRC)+3,r27
 19849               	.LBE862:
 19850               	.LBE861:
 19851               	.LM2008:
 19852 71b8 6CE4      		ldi r22,lo8(-1327598516)
 19853 71ba 74E7      		ldi r23,hi8(-1327598516)
 19854 71bc 8EED      		ldi r24,hlo8(-1327598516)
 19855 71be 90EB      		ldi r25,hhi8(-1327598516)
 19856 71c0 0E94 0000 		call SD_Write32
 19857               	.LM2009:
 19858 71c4 6AE7      		ldi r22,lo8(634)
 19859 71c6 72E0      		ldi r23,hi8(634)
 19860 71c8 80E0      		ldi r24,hlo8(634)
 19861 71ca 90E0      		ldi r25,hhi8(634)
 19862 71cc 0E94 0000 		call SD_Write32
 19863               	.LM2010:
 19864 71d0 83E0      		ldi r24,lo8(3)
 19865 71d2 90E0      		ldi r25,hi8(3)
 19866 71d4 0E94 0000 		call SD_Write16
 19867               	.LM2011:
 19868 71d8 10E0      		ldi r17,lo8(0)
 19869 71da F801      		movw r30,r16
 19870               	.LVL1515:
 19871 71dc EE0F      		lsl r30
 19872 71de FF1F      		rol r31
 19873 71e0 EE0F      		lsl r30
 19874 71e2 FF1F      		rol r31
 19875 71e4 E050      		subi r30,lo8(-(EKGSampleStartTime))
 19876 71e6 F040      		sbci r31,hi8(-(EKGSampleStartTime))
 19877 71e8 6081      		ld r22,Z
 19878 71ea 7181      		ldd r23,Z+1
 19879 71ec 8281      		ldd r24,Z+2
 19880 71ee 9381      		ldd r25,Z+3
 19881 71f0 0E94 0000 		call SD_Write32
 19882               	.LM2012:
 19883 71f4 60E0      		ldi r22,lo8(6144)
 19884 71f6 78E1      		ldi r23,hi8(6144)
 19885 71f8 80E0      		ldi r24,hlo8(6144)
 19886 71fa 90E0      		ldi r25,hhi8(6144)
 19887 71fc 0E94 0000 		call SD_Write32
 19888               	.LM2013:
 19889 7200 6CE2      		ldi r22,lo8(300)
 19890 7202 71E0      		ldi r23,hi8(300)
 19891 7204 80E0      		ldi r24,hlo8(300)
 19892 7206 90E0      		ldi r25,hhi8(300)
 19893 7208 0E94 0000 		call SD_Write32
 19894               	.LM2014:
 19895 720c 80E0      		ldi r24,lo8(.LC8)
 19896 720e 90E0      		ldi r25,hi8(.LC8)
 19897 7210 0E94 0000 		call SD_WriteString
 19898               	.LM2015:
 19899 7214 89E0      		ldi r24,lo8(9)
 19900 7216 0E94 0000 		call SD_Write8
 19901               	.LM2016:
 19902 721a 80E0      		ldi r24,lo8(.LC5)
 19903 721c 90E0      		ldi r25,hi8(.LC5)
 19904 721e 0E94 0000 		call SD_WriteString
 19905               	.LM2017:
 19906 7222 8AE0      		ldi r24,lo8(10)
 19907 7224 0E94 0000 		call SD_Write8
 19908               	.LM2018:
 19909 7228 80E0      		ldi r24,lo8(0)
 19910 722a 0E94 0000 		call SD_Write8
 19911 722e 88E5      		ldi r24,lo8(600)
 19912 7230 92E0      		ldi r25,hi8(600)
 19913 7232 089F      		mul r16,r24
 19914 7234 7001      		movw r14,r0
 19915 7236 099F      		mul r16,r25
 19916 7238 F00C      		add r15,r0
 19917 723a 189F      		mul r17,r24
 19918 723c F00C      		add r15,r0
 19919 723e 1124      		clr r1
 19920 7240 80E0      		ldi r24,lo8(EKGBuffer)
 19921 7242 90E0      		ldi r25,hi8(EKGBuffer)
 19922 7244 E80E      		add r14,r24
 19923 7246 F91E      		adc r15,r25
 19924 7248 C0E0      		ldi r28,lo8(0)
 19925 724a D0E0      		ldi r29,hi8(0)
 19926               	.LVL1516:
 19927               	.L1091:
 19928               	.LBB863:
 19929               	.LM2019:
 19930 724c F701      		movw r30,r14
 19931 724e 8191      		ld r24,Z+
 19932 7250 9191      		ld r25,Z+
 19933 7252 7F01      		movw r14,r30
 19934 7254 0E94 0000 		call SD_Write16
 19935               	.LM2020:
 19936 7258 2196      		adiw r28,1
 19937 725a F1E0      		ldi r31,hi8(300)
 19938 725c CC32      		cpi r28,lo8(300)
 19939 725e DF07      		cpc r29,r31
 19940 7260 01F4      		brne .L1091
 19941               	.LBE863:
 19942               	.LM2021:
 19943 7262 0E94 0000 		call SD_WriteCRC
 19944               	.LM2022:
 19945 7266 80E0      		ldi r24,lo8(Log_File)
 19946 7268 90E0      		ldi r25,hi8(Log_File)
 19947 726a 0E94 0000 		call f_sync
 19948               	/* epilogue start */
 19949               	.LM2023:
 19950 726e DF91      		pop r29
 19951 7270 CF91      		pop r28
 19952               	.LVL1517:
 19953 7272 1F91      		pop r17
 19954 7274 0F91      		pop r16
 19955 7276 FF90      		pop r15
 19956 7278 EF90      		pop r14
 19957 727a 0895      		ret
 19958               	.LFE157:
 19960               		.data
 19961               	.LC9:
 19962 0055 5265 7370 		.string	"Respiration"
 19962      6972 6174 
 19962      696F 6E00 
 19963               		.text
 19964               	.global	SD_WriteRespirationBuffer
 19966               	SD_WriteRespirationBuffer:
 19967               	.LFB156:
 19968               	.LM2024:
 19969               	.LVL1518:
 19970 727c EF92      		push r14
 19971 727e FF92      		push r15
 19972 7280 0F93      		push r16
 19973 7282 1F93      		push r17
 19974 7284 CF93      		push r28
 19975 7286 DF93      		push r29
 19976               	/* prologue: function */
 19977               	/* frame size = 0 */
 19978 7288 082F      		mov r16,r24
 19979               	.LBB864:
 19980               	.LBB865:
 19981               	.LM2025:
 19982 728a 8FEF      		ldi r24,lo8(-1)
 19983 728c 9FEF      		ldi r25,hi8(-1)
 19984 728e AFEF      		ldi r26,hlo8(-1)
 19985 7290 BFEF      		ldi r27,hhi8(-1)
 19986               	.LVL1519:
 19987 7292 8093 0000 		sts CRC,r24
 19988 7296 9093 0000 		sts (CRC)+1,r25
 19989 729a A093 0000 		sts (CRC)+2,r26
 19990 729e B093 0000 		sts (CRC)+3,r27
 19991               	.LBE865:
 19992               	.LBE864:
 19993               	.LM2026:
 19994 72a2 6CE4      		ldi r22,lo8(-1327598516)
 19995 72a4 74E7      		ldi r23,hi8(-1327598516)
 19996 72a6 8EED      		ldi r24,hlo8(-1327598516)
 19997 72a8 90EB      		ldi r25,hhi8(-1327598516)
 19998 72aa 0E94 0000 		call SD_Write32
 19999               	.LM2027:
 20000 72ae 6EE8      		ldi r22,lo8(142)
 20001 72b0 70E0      		ldi r23,hi8(142)
 20002 72b2 80E0      		ldi r24,hlo8(142)
 20003 72b4 90E0      		ldi r25,hhi8(142)
 20004 72b6 0E94 0000 		call SD_Write32
 20005               	.LM2028:
 20006 72ba 83E0      		ldi r24,lo8(3)
 20007 72bc 90E0      		ldi r25,hi8(3)
 20008 72be 0E94 0000 		call SD_Write16
 20009               	.LM2029:
 20010 72c2 10E0      		ldi r17,lo8(0)
 20011 72c4 F801      		movw r30,r16
 20012               	.LVL1520:
 20013 72c6 EE0F      		lsl r30
 20014 72c8 FF1F      		rol r31
 20015 72ca EE0F      		lsl r30
 20016 72cc FF1F      		rol r31
 20017 72ce E050      		subi r30,lo8(-(respirationSampleStartTime))
 20018 72d0 F040      		sbci r31,hi8(-(respirationSampleStartTime))
 20019 72d2 6081      		ld r22,Z
 20020 72d4 7181      		ldd r23,Z+1
 20021 72d6 8281      		ldd r24,Z+2
 20022 72d8 9381      		ldd r25,Z+3
 20023 72da 0E94 0000 		call SD_Write32
 20024               	.LM2030:
 20025 72de 60E0      		ldi r22,lo8(36864)
 20026 72e0 70E9      		ldi r23,hi8(36864)
 20027 72e2 80E0      		ldi r24,hlo8(36864)
 20028 72e4 90E0      		ldi r25,hhi8(36864)
 20029 72e6 0E94 0000 		call SD_Write32
 20030               	.LM2031:
 20031 72ea 62E3      		ldi r22,lo8(50)
 20032 72ec 70E0      		ldi r23,hi8(50)
 20033 72ee 80E0      		ldi r24,hlo8(50)
 20034 72f0 90E0      		ldi r25,hhi8(50)
 20035 72f2 0E94 0000 		call SD_Write32
 20036               	.LM2032:
 20037 72f6 80E0      		ldi r24,lo8(.LC9)
 20038 72f8 90E0      		ldi r25,hi8(.LC9)
 20039 72fa 0E94 0000 		call SD_WriteString
 20040               	.LM2033:
 20041 72fe 89E0      		ldi r24,lo8(9)
 20042 7300 0E94 0000 		call SD_Write8
 20043               	.LM2034:
 20044 7304 80E0      		ldi r24,lo8(.LC5)
 20045 7306 90E0      		ldi r25,hi8(.LC5)
 20046 7308 0E94 0000 		call SD_WriteString
 20047               	.LM2035:
 20048 730c 8AE0      		ldi r24,lo8(10)
 20049 730e 0E94 0000 		call SD_Write8
 20050               	.LM2036:
 20051 7312 80E0      		ldi r24,lo8(0)
 20052 7314 0E94 0000 		call SD_Write8
 20053 7318 84E6      		ldi r24,lo8(100)
 20054 731a 90E0      		ldi r25,hi8(100)
 20055 731c 089F      		mul r16,r24
 20056 731e 7001      		movw r14,r0
 20057 7320 099F      		mul r16,r25
 20058 7322 F00C      		add r15,r0
 20059 7324 189F      		mul r17,r24
 20060 7326 F00C      		add r15,r0
 20061 7328 1124      		clr r1
 20062 732a 80E0      		ldi r24,lo8(respirationBuffer)
 20063 732c 90E0      		ldi r25,hi8(respirationBuffer)
 20064 732e E80E      		add r14,r24
 20065 7330 F91E      		adc r15,r25
 20066 7332 C0E0      		ldi r28,lo8(0)
 20067 7334 D0E0      		ldi r29,hi8(0)
 20068               	.LVL1521:
 20069               	.L1095:
 20070               	.LBB866:
 20071               	.LM2037:
 20072 7336 F701      		movw r30,r14
 20073 7338 8191      		ld r24,Z+
 20074 733a 9191      		ld r25,Z+
 20075 733c 7F01      		movw r14,r30
 20076 733e 0E94 0000 		call SD_Write16
 20077               	.LM2038:
 20078 7342 2196      		adiw r28,1
 20079 7344 C233      		cpi r28,50
 20080 7346 D105      		cpc r29,__zero_reg__
 20081 7348 01F4      		brne .L1095
 20082               	.LBE866:
 20083               	.LM2039:
 20084 734a 0E94 0000 		call SD_WriteCRC
 20085               	.LM2040:
 20086 734e 80E0      		ldi r24,lo8(Log_File)
 20087 7350 90E0      		ldi r25,hi8(Log_File)
 20088 7352 0E94 0000 		call f_sync
 20089               	/* epilogue start */
 20090               	.LM2041:
 20091 7356 DF91      		pop r29
 20092 7358 CF91      		pop r28
 20093               	.LVL1522:
 20094 735a 1F91      		pop r17
 20095 735c 0F91      		pop r16
 20096 735e FF90      		pop r15
 20097 7360 EF90      		pop r14
 20098 7362 0895      		ret
 20099               	.LFE156:
 20101               		.data
 20102               	.LC10:
 20103 0061 4875 6D69 		.string	"Humidity"
 20103      6469 7479 
 20103      00
 20104               		.text
 20105               	.global	SD_WriteHumidityBuffer
 20107               	SD_WriteHumidityBuffer:
 20108               	.LFB155:
 20109               	.LM2042:
 20110               	.LVL1523:
 20111 7364 0F93      		push r16
 20112 7366 1F93      		push r17
 20113 7368 CF93      		push r28
 20114 736a DF93      		push r29
 20115               	/* prologue: function */
 20116               	/* frame size = 0 */
 20117 736c 082F      		mov r16,r24
 20118               	.LBB867:
 20119               	.LBB868:
 20120               	.LM2043:
 20121 736e 8FEF      		ldi r24,lo8(-1)
 20122 7370 9FEF      		ldi r25,hi8(-1)
 20123 7372 AFEF      		ldi r26,hlo8(-1)
 20124 7374 BFEF      		ldi r27,hhi8(-1)
 20125               	.LVL1524:
 20126 7376 8093 0000 		sts CRC,r24
 20127 737a 9093 0000 		sts (CRC)+1,r25
 20128 737e A093 0000 		sts (CRC)+2,r26
 20129 7382 B093 0000 		sts (CRC)+3,r27
 20130               	.LBE868:
 20131               	.LBE867:
 20132               	.LM2044:
 20133 7386 6CE4      		ldi r22,lo8(-1327598516)
 20134 7388 74E7      		ldi r23,hi8(-1327598516)
 20135 738a 8EED      		ldi r24,hlo8(-1327598516)
 20136 738c 90EB      		ldi r25,hhi8(-1327598516)
 20137 738e 0E94 0000 		call SD_Write32
 20138               	.LM2045:
 20139 7392 6BE3      		ldi r22,lo8(59)
 20140 7394 70E0      		ldi r23,hi8(59)
 20141 7396 80E0      		ldi r24,hlo8(59)
 20142 7398 90E0      		ldi r25,hhi8(59)
 20143 739a 0E94 0000 		call SD_Write32
 20144               	.LM2046:
 20145 739e 83E0      		ldi r24,lo8(3)
 20146 73a0 90E0      		ldi r25,hi8(3)
 20147 73a2 0E94 0000 		call SD_Write16
 20148               	.LM2047:
 20149 73a6 10E0      		ldi r17,lo8(0)
 20150 73a8 F801      		movw r30,r16
 20151               	.LVL1525:
 20152 73aa EE0F      		lsl r30
 20153 73ac FF1F      		rol r31
 20154 73ae EE0F      		lsl r30
 20155 73b0 FF1F      		rol r31
 20156 73b2 E050      		subi r30,lo8(-(humiditySampleStartTime))
 20157 73b4 F040      		sbci r31,hi8(-(humiditySampleStartTime))
 20158 73b6 6081      		ld r22,Z
 20159 73b8 7181      		ldd r23,Z+1
 20160 73ba 8281      		ldd r24,Z+2
 20161 73bc 9381      		ldd r25,Z+3
 20162 73be 0E94 0000 		call SD_Write32
 20163               	.LM2048:
 20164 73c2 60E0      		ldi r22,lo8(1843200)
 20165 73c4 70E2      		ldi r23,hi8(1843200)
 20166 73c6 8CE1      		ldi r24,hlo8(1843200)
 20167 73c8 90E0      		ldi r25,hhi8(1843200)
 20168 73ca 0E94 0000 		call SD_Write32
 20169               	.LM2049:
 20170 73ce 6AE0      		ldi r22,lo8(10)
 20171 73d0 70E0      		ldi r23,hi8(10)
 20172 73d2 80E0      		ldi r24,hlo8(10)
 20173 73d4 90E0      		ldi r25,hhi8(10)
 20174 73d6 0E94 0000 		call SD_Write32
 20175               	.LM2050:
 20176 73da 80E0      		ldi r24,lo8(.LC10)
 20177 73dc 90E0      		ldi r25,hi8(.LC10)
 20178 73de 0E94 0000 		call SD_WriteString
 20179               	.LM2051:
 20180 73e2 89E0      		ldi r24,lo8(9)
 20181 73e4 0E94 0000 		call SD_Write8
 20182               	.LM2052:
 20183 73e8 80E0      		ldi r24,lo8(.LC5)
 20184 73ea 90E0      		ldi r25,hi8(.LC5)
 20185 73ec 0E94 0000 		call SD_WriteString
 20186               	.LM2053:
 20187 73f0 8AE0      		ldi r24,lo8(10)
 20188 73f2 0E94 0000 		call SD_Write8
 20189               	.LM2054:
 20190 73f6 80E0      		ldi r24,lo8(0)
 20191 73f8 0E94 0000 		call SD_Write8
 20192 73fc 84E1      		ldi r24,lo8(20)
 20193 73fe 90E0      		ldi r25,hi8(20)
 20194 7400 089F      		mul r16,r24
 20195 7402 E001      		movw r28,r0
 20196 7404 099F      		mul r16,r25
 20197 7406 D00D      		add r29,r0
 20198 7408 189F      		mul r17,r24
 20199 740a D00D      		add r29,r0
 20200 740c 1124      		clr r1
 20201 740e C050      		subi r28,lo8(-(humidityBuffer))
 20202 7410 D040      		sbci r29,hi8(-(humidityBuffer))
 20203 7412 00E0      		ldi r16,lo8(0)
 20204               	.LVL1526:
 20205               	.L1099:
 20206               	.LBB869:
 20207               	.LM2055:
 20208 7414 8991      		ld r24,Y+
 20209 7416 9991      		ld r25,Y+
 20210 7418 0E94 0000 		call SD_Write16
 20211               	.LM2056:
 20212 741c 0F5F      		subi r16,lo8(-(1))
 20213 741e 0A30      		cpi r16,lo8(10)
 20214 7420 01F4      		brne .L1099
 20215               	.LBE869:
 20216               	.LM2057:
 20217 7422 0E94 0000 		call SD_WriteCRC
 20218               	.LM2058:
 20219 7426 80E0      		ldi r24,lo8(Log_File)
 20220 7428 90E0      		ldi r25,hi8(Log_File)
 20221 742a 0E94 0000 		call f_sync
 20222               	/* epilogue start */
 20223               	.LM2059:
 20224 742e DF91      		pop r29
 20225 7430 CF91      		pop r28
 20226 7432 1F91      		pop r17
 20227 7434 0F91      		pop r16
 20228               	.LVL1527:
 20229 7436 0895      		ret
 20230               	.LFE155:
 20232               		.data
 20233               	.LC11:
 20234 006a 5465 6D70 		.string	"Temperature"
 20234      6572 6174 
 20234      7572 6500 
 20235               		.text
 20236               	.global	SD_WriteTemperatureBuffer
 20238               	SD_WriteTemperatureBuffer:
 20239               	.LFB154:
 20240               	.LM2060:
 20241               	.LVL1528:
 20242 7438 0F93      		push r16
 20243 743a 1F93      		push r17
 20244 743c CF93      		push r28
 20245 743e DF93      		push r29
 20246               	/* prologue: function */
 20247               	/* frame size = 0 */
 20248 7440 082F      		mov r16,r24
 20249               	.LBB870:
 20250               	.LBB871:
 20251               	.LM2061:
 20252 7442 8FEF      		ldi r24,lo8(-1)
 20253 7444 9FEF      		ldi r25,hi8(-1)
 20254 7446 AFEF      		ldi r26,hlo8(-1)
 20255 7448 BFEF      		ldi r27,hhi8(-1)
 20256               	.LVL1529:
 20257 744a 8093 0000 		sts CRC,r24
 20258 744e 9093 0000 		sts (CRC)+1,r25
 20259 7452 A093 0000 		sts (CRC)+2,r26
 20260 7456 B093 0000 		sts (CRC)+3,r27
 20261               	.LBE871:
 20262               	.LBE870:
 20263               	.LM2062:
 20264 745a 6CE4      		ldi r22,lo8(-1327598516)
 20265 745c 74E7      		ldi r23,hi8(-1327598516)
 20266 745e 8EED      		ldi r24,hlo8(-1327598516)
 20267 7460 90EB      		ldi r25,hhi8(-1327598516)
 20268 7462 0E94 0000 		call SD_Write32
 20269               	.LM2063:
 20270 7466 6EE3      		ldi r22,lo8(62)
 20271 7468 70E0      		ldi r23,hi8(62)
 20272 746a 80E0      		ldi r24,hlo8(62)
 20273 746c 90E0      		ldi r25,hhi8(62)
 20274 746e 0E94 0000 		call SD_Write32
 20275               	.LM2064:
 20276 7472 83E0      		ldi r24,lo8(3)
 20277 7474 90E0      		ldi r25,hi8(3)
 20278 7476 0E94 0000 		call SD_Write16
 20279               	.LM2065:
 20280 747a 10E0      		ldi r17,lo8(0)
 20281 747c F801      		movw r30,r16
 20282               	.LVL1530:
 20283 747e EE0F      		lsl r30
 20284 7480 FF1F      		rol r31
 20285 7482 EE0F      		lsl r30
 20286 7484 FF1F      		rol r31
 20287 7486 E050      		subi r30,lo8(-(temperatureSampleStartTime))
 20288 7488 F040      		sbci r31,hi8(-(temperatureSampleStartTime))
 20289 748a 6081      		ld r22,Z
 20290 748c 7181      		ldd r23,Z+1
 20291 748e 8281      		ldd r24,Z+2
 20292 7490 9381      		ldd r25,Z+3
 20293 7492 0E94 0000 		call SD_Write32
 20294               	.LM2066:
 20295 7496 60E0      		ldi r22,lo8(1843200)
 20296 7498 70E2      		ldi r23,hi8(1843200)
 20297 749a 8CE1      		ldi r24,hlo8(1843200)
 20298 749c 90E0      		ldi r25,hhi8(1843200)
 20299 749e 0E94 0000 		call SD_Write32
 20300               	.LM2067:
 20301 74a2 6AE0      		ldi r22,lo8(10)
 20302 74a4 70E0      		ldi r23,hi8(10)
 20303 74a6 80E0      		ldi r24,hlo8(10)
 20304 74a8 90E0      		ldi r25,hhi8(10)
 20305 74aa 0E94 0000 		call SD_Write32
 20306               	.LM2068:
 20307 74ae 80E0      		ldi r24,lo8(.LC11)
 20308 74b0 90E0      		ldi r25,hi8(.LC11)
 20309 74b2 0E94 0000 		call SD_WriteString
 20310               	.LM2069:
 20311 74b6 89E0      		ldi r24,lo8(9)
 20312 74b8 0E94 0000 		call SD_Write8
 20313               	.LM2070:
 20314 74bc 80E0      		ldi r24,lo8(.LC5)
 20315 74be 90E0      		ldi r25,hi8(.LC5)
 20316 74c0 0E94 0000 		call SD_WriteString
 20317               	.LM2071:
 20318 74c4 8AE0      		ldi r24,lo8(10)
 20319 74c6 0E94 0000 		call SD_Write8
 20320               	.LM2072:
 20321 74ca 80E0      		ldi r24,lo8(0)
 20322 74cc 0E94 0000 		call SD_Write8
 20323 74d0 84E1      		ldi r24,lo8(20)
 20324 74d2 90E0      		ldi r25,hi8(20)
 20325 74d4 089F      		mul r16,r24
 20326 74d6 E001      		movw r28,r0
 20327 74d8 099F      		mul r16,r25
 20328 74da D00D      		add r29,r0
 20329 74dc 189F      		mul r17,r24
 20330 74de D00D      		add r29,r0
 20331 74e0 1124      		clr r1
 20332 74e2 C050      		subi r28,lo8(-(temperatureBuffer))
 20333 74e4 D040      		sbci r29,hi8(-(temperatureBuffer))
 20334 74e6 00E0      		ldi r16,lo8(0)
 20335               	.LVL1531:
 20336               	.L1103:
 20337               	.LBB872:
 20338               	.LM2073:
 20339 74e8 8991      		ld r24,Y+
 20340 74ea 9991      		ld r25,Y+
 20341 74ec 0E94 0000 		call SD_Write16
 20342               	.LM2074:
 20343 74f0 0F5F      		subi r16,lo8(-(1))
 20344 74f2 0A30      		cpi r16,lo8(10)
 20345 74f4 01F4      		brne .L1103
 20346               	.LBE872:
 20347               	.LM2075:
 20348 74f6 0E94 0000 		call SD_WriteCRC
 20349               	.LM2076:
 20350 74fa 80E0      		ldi r24,lo8(Log_File)
 20351 74fc 90E0      		ldi r25,hi8(Log_File)
 20352 74fe 0E94 0000 		call f_sync
 20353               	/* epilogue start */
 20354               	.LM2077:
 20355 7502 DF91      		pop r29
 20356 7504 CF91      		pop r28
 20357 7506 1F91      		pop r17
 20358 7508 0F91      		pop r16
 20359               	.LVL1532:
 20360 750a 0895      		ret
 20361               	.LFE154:
 20363               	.global	Debug_SendString
 20365               	Debug_SendString:
 20366               	.LFB13:
 20367               	.LM2078:
 20368               	.LVL1533:
 20369 750c EF92      		push r14
 20370 750e FF92      		push r15
 20371 7510 0F93      		push r16
 20372 7512 1F93      		push r17
 20373 7514 CF93      		push r28
 20374 7516 DF93      		push r29
 20375               	/* prologue: function */
 20376               	/* frame size = 0 */
 20377 7518 8C01      		movw r16,r24
 20378 751a E62E      		mov r14,r22
 20379               	.LM2079:
 20380 751c FF24      		clr r15
 20381               	.LVL1534:
 20382 751e 00C0      		rjmp .L1107
 20383               	.LVL1535:
 20384               	.L1109:
 20385               	.LBB873:
 20386               	.LM2080:
 20387 7520 C00F      		add r28,r16
 20388 7522 D11F      		adc r29,r17
 20389 7524 8881      		ld r24,Y
 20390 7526 0E94 0000 		call Debug_SendByte
 20391 752a 8823      		tst r24
 20392 752c 01F0      		breq .L1108
 20393               	.LM2081:
 20394 752e F394      		inc r15
 20395               	.LVL1536:
 20396               	.L1107:
 20397 7530 CF2D      		mov r28,r15
 20398 7532 D0E0      		ldi r29,lo8(0)
 20399 7534 F801      		movw r30,r16
 20400 7536 0190      		ld __tmp_reg__,Z+
 20401 7538 0020      		tst __tmp_reg__
 20402 753a 01F4      		brne .-6
 20403 753c 3197      		sbiw r30,1
 20404 753e E01B      		sub r30,r16
 20405 7540 F10B      		sbc r31,r17
 20406 7542 CE17      		cp r28,r30
 20407 7544 DF07      		cpc r29,r31
 20408 7546 00F0      		brlo .L1109
 20409               	.LBE873:
 20410               	.LM2082:
 20411 7548 EE20      		tst r14
 20412 754a 01F0      		breq .L1114
 20413               	.L1110:
 20414               	.LM2083:
 20415 754c 8DE0      		ldi r24,lo8(13)
 20416 754e 0E94 0000 		call Debug_SendByte
 20417 7552 8823      		tst r24
 20418 7554 01F0      		breq .L1108
 20419               	.LM2084:
 20420 7556 8AE0      		ldi r24,lo8(10)
 20421 7558 0E94 0000 		call Debug_SendByte
 20422 755c 8823      		tst r24
 20423 755e 01F0      		breq .L1111
 20424               	.LVL1537:
 20425               	.L1114:
 20426 7560 81E0      		ldi r24,lo8(1)
 20427 7562 00C0      		rjmp .L1111
 20428               	.LVL1538:
 20429               	.L1108:
 20430 7564 80E0      		ldi r24,lo8(0)
 20431               	.LVL1539:
 20432               	.L1111:
 20433               	/* epilogue start */
 20434               	.LM2085:
 20435 7566 DF91      		pop r29
 20436 7568 CF91      		pop r28
 20437 756a 1F91      		pop r17
 20438 756c 0F91      		pop r16
 20439               	.LVL1540:
 20440 756e FF90      		pop r15
 20441               	.LVL1541:
 20442 7570 EF90      		pop r14
 20443               	.LVL1542:
 20444 7572 0895      		ret
 20445               	.LFE13:
 20447               		.data
 20448               	.LC12:
 20449 0076 4253 00   		.string	"BS"
 20450               	.LC13:
 20451 0079 4254 00   		.string	"BT"
 20452               		.text
 20453               	.global	Uploader_connectToComputer
 20455               	Uploader_connectToComputer:
 20456               	.LFB126:
 20457               	.LM2086:
 20458 7574 DF92      		push r13
 20459 7576 EF92      		push r14
 20460 7578 FF92      		push r15
 20461 757a 0F93      		push r16
 20462 757c 1F93      		push r17
 20463 757e CF93      		push r28
 20464 7580 DF93      		push r29
 20465               	/* prologue: function */
 20466               	/* frame size = 0 */
 20467               	.LM2087:
 20468 7582 1092 0000 		sts connected,__zero_reg__
 20469               	.LBB874:
 20470               	.LBB875:
 20471               	.LBB876:
 20472               	.LBB877:
 20473               	.LM2088:
 20474 7586 2091 0000 		lds r18,Debug_writeLocation
 20475 758a 3091 0000 		lds r19,(Debug_writeLocation)+1
 20476 758e 8091 0000 		lds r24,Debug_readLocation
 20477 7592 9091 0000 		lds r25,(Debug_readLocation)+1
 20478 7596 2817      		cp r18,r24
 20479 7598 3907      		cpc r19,r25
 20480 759a 01F0      		breq .+2
 20481 759c 00C0      		rjmp .L1132
 20482 759e 00C0      		rjmp .L1128
 20483               	.LVL1543:
 20484               	.L1123:
 20485               	.LBE877:
 20486               	.LBE876:
 20487               	.LBE875:
 20488               	.LBE874:
 20489               	.LM2089:
 20490 75a0 80E0      		ldi r24,lo8(.LC12)
 20491 75a2 90E0      		ldi r25,hi8(.LC12)
 20492 75a4 60E0      		ldi r22,lo8(0)
 20493 75a6 0E94 0000 		call Debug_SendString
 20494 75aa 8823      		tst r24
 20495 75ac 01F4      		brne .+2
 20496 75ae 00C0      		rjmp .L1118
 20497 75b0 CEEE      		ldi r28,lo8(750)
 20498 75b2 D2E0      		ldi r29,hi8(750)
 20499               	.LVL1544:
 20500               	.L1122:
 20501               	.LBB879:
 20502               	.LBB880:
 20503               	.LM2090:
 20504 75b4 2091 0000 		lds r18,Debug_writeLocation
 20505 75b8 3091 0000 		lds r19,(Debug_writeLocation)+1
 20506 75bc 8091 0000 		lds r24,Debug_readLocation
 20507 75c0 9091 0000 		lds r25,(Debug_readLocation)+1
 20508               	.LVL1545:
 20509 75c4 2817      		cp r18,r24
 20510 75c6 3907      		cpc r19,r25
 20511 75c8 01F0      		breq .+2
 20512 75ca 00C0      		rjmp .L1133
 20513 75cc 00C0      		rjmp .L1119
 20514               	.L1135:
 20515               	.LBE880:
 20516               	.LBE879:
 20517               	.LBB881:
 20518               	.LBB882:
 20519               	.LBB883:
 20520               	.LBB884:
 20521               	.LM2091:
 20522 75ce C701      		movw r24,r14
 20523               	.LVL1546:
 20524               	/* #APP */
 20525               	 ;  105 "/usr/local/CrossPack-AVR-20100115/lib/gcc/avr/4.3.3/../../../../avr/include/util/delay_bas
 20526 75d0 0197      		1: sbiw r24,1
 20527 75d2 01F4      		brne 1b
 20528               	 ;  0 "" 2
 20529               	/* #NOAPP */
 20530               	.LBE884:
 20531               	.LBE883:
 20532               	.LBE882:
 20533               	.LBE881:
 20534               	.LM2092:
 20535 75d4 80E0      		ldi r24,lo8(0)
 20536               	.LVL1547:
 20537 75d6 0E94 0000 		call Debug_GetByte
 20538               	.LM2093:
 20539 75da 8435      		cpi r24,lo8(84)
 20540 75dc 01F4      		brne .L1119
 20541               	.LM2094:
 20542 75de 80E0      		ldi r24,lo8(.LC13)
 20543 75e0 90E0      		ldi r25,hi8(.LC13)
 20544 75e2 60E0      		ldi r22,lo8(0)
 20545 75e4 0E94 0000 		call Debug_SendString
 20546 75e8 8823      		tst r24
 20547 75ea 01F0      		breq .L1118
 20548               	.LM2095:
 20549 75ec D092 0000 		sts connected,r13
 20550               	.LM2096:
 20551 75f0 1092 0000 		sts timeOutCounter,__zero_reg__
 20552 75f4 1092 0000 		sts (timeOutCounter)+1,__zero_reg__
 20553               	.LBB888:
 20554               	.LBB889:
 20555               	.LBB890:
 20556               	.LBB891:
 20557               	.LM2097:
 20558 75f8 2091 0000 		lds r18,Debug_writeLocation
 20559 75fc 3091 0000 		lds r19,(Debug_writeLocation)+1
 20560 7600 8091 0000 		lds r24,Debug_readLocation
 20561 7604 9091 0000 		lds r25,(Debug_readLocation)+1
 20562 7608 2817      		cp r18,r24
 20563 760a 3907      		cpc r19,r25
 20564 760c 01F4      		brne .L1134
 20565 760e 00C0      		rjmp .L1131
 20566               	.L1119:
 20567               	.LBE891:
 20568               	.LBE890:
 20569               	.LBE889:
 20570               	.LBE888:
 20571               	.LBB893:
 20572               	.LBB894:
 20573               	.LBB895:
 20574               	.LBB896:
 20575               	.LM2098:
 20576 7610 C801      		movw r24,r16
 20577               	.LVL1548:
 20578               	/* #APP */
 20579               	 ;  105 "/usr/local/CrossPack-AVR-20100115/lib/gcc/avr/4.3.3/../../../../avr/include/util/delay_bas
 20580 7612 0197      		1: sbiw r24,1
 20581 7614 01F4      		brne 1b
 20582               	 ;  0 "" 2
 20583               	/* #NOAPP */
 20584               	.LBE896:
 20585               	.LBE895:
 20586               	.LBE894:
 20587               	.LBE893:
 20588               	.LM2099:
 20589 7616 2197      		sbiw r28,1
 20590               	.LM2100:
 20591 7618 01F4      		brne .L1122
 20592 761a 00C0      		rjmp .L1131
 20593               	.LVL1549:
 20594               	.L1128:
 20595               	.LBB900:
 20596               	.LBB887:
 20597               	.LBB886:
 20598               	.LBB885:
 20599               	.LM2101:
 20600 761c E12C      		mov r14,__zero_reg__
 20601 761e 68E4      		ldi r22,hi8(18432)
 20602 7620 F62E      		mov r15,r22
 20603               	.LBE885:
 20604               	.LBE886:
 20605               	.LBE887:
 20606               	.LBE900:
 20607               	.LBB901:
 20608               	.LBB899:
 20609               	.LBB898:
 20610               	.LBB897:
 20611 7622 06E6      		ldi r16,lo8(3686)
 20612 7624 1EE0      		ldi r17,hi8(3686)
 20613               	.LBE897:
 20614               	.LBE898:
 20615               	.LBE899:
 20616               	.LBE901:
 20617               	.LM2102:
 20618 7626 DD24      		clr r13
 20619 7628 D394      		inc r13
 20620               	.LVL1550:
 20621               	.L1131:
 20622               	.LM2103:
 20623 762a 8091 0000 		lds r24,connected
 20624               	.LVL1551:
 20625 762e 8823      		tst r24
 20626 7630 01F4      		brne .+2
 20627 7632 00C0      		rjmp .L1123
 20628 7634 81E0      		ldi r24,lo8(1)
 20629 7636 00C0      		rjmp .L1124
 20630               	.L1118:
 20631 7638 80E0      		ldi r24,lo8(0)
 20632               	.L1124:
 20633               	/* epilogue start */
 20634               	.LM2104:
 20635 763a DF91      		pop r29
 20636 763c CF91      		pop r28
 20637               	.LVL1552:
 20638 763e 1F91      		pop r17
 20639 7640 0F91      		pop r16
 20640 7642 FF90      		pop r15
 20641 7644 EF90      		pop r14
 20642 7646 DF90      		pop r13
 20643 7648 0895      		ret
 20644               	.L1132:
 20645               	.LBB902:
 20646               	.LBB878:
 20647               	.LM2105:
 20648 764a 8091 0000 		lds r24,Debug_writeLocation
 20649 764e 9091 0000 		lds r25,(Debug_writeLocation)+1
 20650 7652 8093 0000 		sts Debug_readLocation,r24
 20651 7656 9093 0000 		sts (Debug_readLocation)+1,r25
 20652 765a 00C0      		rjmp .L1128
 20653               	.LVL1553:
 20654               	.L1133:
 20655               	.LBE878:
 20656               	.LBE902:
 20657               	.LM2106:
 20658 765c 80E0      		ldi r24,lo8(0)
 20659 765e 0E94 0000 		call Debug_GetByte
 20660               	.LM2107:
 20661 7662 8234      		cpi r24,lo8(66)
 20662 7664 01F4      		brne .L1119
 20663 7666 00C0      		rjmp .L1135
 20664               	.L1134:
 20665               	.LBB903:
 20666               	.LBB892:
 20667               	.LM2108:
 20668 7668 8091 0000 		lds r24,Debug_writeLocation
 20669 766c 9091 0000 		lds r25,(Debug_writeLocation)+1
 20670 7670 8093 0000 		sts Debug_readLocation,r24
 20671 7674 9093 0000 		sts (Debug_readLocation)+1,r25
 20672 7678 00C0      		rjmp .L1131
 20673               	.LBE892:
 20674               	.LBE903:
 20675               	.LFE126:
 20677               	.global	Uploader_sendPort
 20679               	Uploader_sendPort:
 20680               	.LFB137:
 20681               	.LM2109:
 20682 767a CF93      		push r28
 20683 767c DF93      		push r29
 20684               	/* prologue: function */
 20685               	/* frame size = 0 */
 20686               	.LM2110:
 20687 767e 8FE4      		ldi r24,lo8(79)
 20688 7680 0E94 0000 		call Debug_SendByte
 20689 7684 8823      		tst r24
 20690 7686 01F0      		breq .L1137
 20691               	.LM2111:
 20692 7688 E0E0      		ldi r30,lo8(port)
 20693 768a F0E0      		ldi r31,hi8(port)
 20694 768c 0190      		ld __tmp_reg__,Z+
 20695 768e 0020      		tst __tmp_reg__
 20696 7690 01F4      		brne .-6
 20697 7692 3297      		sbiw r30,2
 20698 7694 8081      		ld r24,Z
 20699 7696 8032      		cpi r24,lo8(32)
 20700 7698 00F4      		brsh .L1138
 20701               	.LM2112:
 20702 769a 1082      		st Z,__zero_reg__
 20703               	.L1138:
 20704               	.LM2113:
 20705 769c C0E0      		ldi r28,lo8(port)
 20706 769e D0E0      		ldi r29,hi8(port)
 20707 76a0 FE01      		movw r30,r28
 20708 76a2 0190      		ld __tmp_reg__,Z+
 20709 76a4 0020      		tst __tmp_reg__
 20710 76a6 01F4      		brne .-6
 20711 76a8 3197      		sbiw r30,1
 20712 76aa EC1B      		sub r30,r28
 20713 76ac FD0B      		sbc r31,r29
 20714 76ae 8E2F      		mov r24,r30
 20715 76b0 8E5F      		subi r24,lo8(-(2))
 20716 76b2 0E94 0000 		call Debug_SendByte
 20717 76b6 8823      		tst r24
 20718 76b8 01F0      		breq .L1137
 20719               	.LM2114:
 20720 76ba CE01      		movw r24,r28
 20721 76bc 61E0      		ldi r22,lo8(1)
 20722 76be 0E94 0000 		call Debug_SendString
 20723 76c2 8823      		tst r24
 20724 76c4 01F0      		breq .L1140
 20725 76c6 81E0      		ldi r24,lo8(1)
 20726 76c8 00C0      		rjmp .L1140
 20727               	.L1137:
 20728 76ca 80E0      		ldi r24,lo8(0)
 20729               	.L1140:
 20730               	/* epilogue start */
 20731               	.LM2115:
 20732 76cc DF91      		pop r29
 20733 76ce CF91      		pop r28
 20734 76d0 0895      		ret
 20735               	.LFE137:
 20737               	.global	Uploader_sendServer
 20739               	Uploader_sendServer:
 20740               	.LFB136:
 20741               	.LM2116:
 20742 76d2 CF93      		push r28
 20743 76d4 DF93      		push r29
 20744               	/* prologue: function */
 20745               	/* frame size = 0 */
 20746               	.LM2117:
 20747 76d6 86E5      		ldi r24,lo8(86)
 20748 76d8 0E94 0000 		call Debug_SendByte
 20749 76dc 8823      		tst r24
 20750 76de 01F0      		breq .L1143
 20751               	.LM2118:
 20752 76e0 E0E0      		ldi r30,lo8(server)
 20753 76e2 F0E0      		ldi r31,hi8(server)
 20754 76e4 0190      		ld __tmp_reg__,Z+
 20755 76e6 0020      		tst __tmp_reg__
 20756 76e8 01F4      		brne .-6
 20757 76ea 3297      		sbiw r30,2
 20758 76ec 8081      		ld r24,Z
 20759 76ee 8032      		cpi r24,lo8(32)
 20760 76f0 00F4      		brsh .L1144
 20761               	.LM2119:
 20762 76f2 1082      		st Z,__zero_reg__
 20763               	.L1144:
 20764               	.LM2120:
 20765 76f4 C0E0      		ldi r28,lo8(server)
 20766 76f6 D0E0      		ldi r29,hi8(server)
 20767 76f8 FE01      		movw r30,r28
 20768 76fa 0190      		ld __tmp_reg__,Z+
 20769 76fc 0020      		tst __tmp_reg__
 20770 76fe 01F4      		brne .-6
 20771 7700 3197      		sbiw r30,1
 20772 7702 EC1B      		sub r30,r28
 20773 7704 FD0B      		sbc r31,r29
 20774 7706 8E2F      		mov r24,r30
 20775 7708 8E5F      		subi r24,lo8(-(2))
 20776 770a 0E94 0000 		call Debug_SendByte
 20777 770e 8823      		tst r24
 20778 7710 01F0      		breq .L1143
 20779               	.LM2121:
 20780 7712 CE01      		movw r24,r28
 20781 7714 61E0      		ldi r22,lo8(1)
 20782 7716 0E94 0000 		call Debug_SendString
 20783 771a 8823      		tst r24
 20784 771c 01F0      		breq .L1146
 20785 771e 81E0      		ldi r24,lo8(1)
 20786 7720 00C0      		rjmp .L1146
 20787               	.L1143:
 20788 7722 80E0      		ldi r24,lo8(0)
 20789               	.L1146:
 20790               	/* epilogue start */
 20791               	.LM2122:
 20792 7724 DF91      		pop r29
 20793 7726 CF91      		pop r28
 20794 7728 0895      		ret
 20795               	.LFE136:
 20797               	.global	Uploader_sendNickname
 20799               	Uploader_sendNickname:
 20800               	.LFB132:
 20801               	.LM2123:
 20802 772a CF93      		push r28
 20803 772c DF93      		push r29
 20804               	/* prologue: function */
 20805               	/* frame size = 0 */
 20806               	.LM2124:
 20807 772e 8EE4      		ldi r24,lo8(78)
 20808 7730 0E94 0000 		call Debug_SendByte
 20809 7734 8823      		tst r24
 20810 7736 01F0      		breq .L1149
 20811               	.LM2125:
 20812 7738 E0E0      		ldi r30,lo8(nickname)
 20813 773a F0E0      		ldi r31,hi8(nickname)
 20814 773c 0190      		ld __tmp_reg__,Z+
 20815 773e 0020      		tst __tmp_reg__
 20816 7740 01F4      		brne .-6
 20817 7742 3297      		sbiw r30,2
 20818 7744 8081      		ld r24,Z
 20819 7746 8032      		cpi r24,lo8(32)
 20820 7748 00F4      		brsh .L1150
 20821               	.LM2126:
 20822 774a 1082      		st Z,__zero_reg__
 20823               	.L1150:
 20824               	.LM2127:
 20825 774c C0E0      		ldi r28,lo8(nickname)
 20826 774e D0E0      		ldi r29,hi8(nickname)
 20827 7750 FE01      		movw r30,r28
 20828 7752 0190      		ld __tmp_reg__,Z+
 20829 7754 0020      		tst __tmp_reg__
 20830 7756 01F4      		brne .-6
 20831 7758 3197      		sbiw r30,1
 20832 775a EC1B      		sub r30,r28
 20833 775c FD0B      		sbc r31,r29
 20834 775e 8E2F      		mov r24,r30
 20835 7760 8E5F      		subi r24,lo8(-(2))
 20836 7762 0E94 0000 		call Debug_SendByte
 20837 7766 8823      		tst r24
 20838 7768 01F0      		breq .L1149
 20839               	.LM2128:
 20840 776a CE01      		movw r24,r28
 20841 776c 61E0      		ldi r22,lo8(1)
 20842 776e 0E94 0000 		call Debug_SendString
 20843 7772 8823      		tst r24
 20844 7774 01F0      		breq .L1152
 20845 7776 81E0      		ldi r24,lo8(1)
 20846 7778 00C0      		rjmp .L1152
 20847               	.L1149:
 20848 777a 80E0      		ldi r24,lo8(0)
 20849               	.L1152:
 20850               	/* epilogue start */
 20851               	.LM2129:
 20852 777c DF91      		pop r29
 20853 777e CF91      		pop r28
 20854 7780 0895      		ret
 20855               	.LFE132:
 20857               	.global	Uploader_sendUser
 20859               	Uploader_sendUser:
 20860               	.LFB131:
 20861               	.LM2130:
 20862 7782 CF93      		push r28
 20863 7784 DF93      		push r29
 20864               	/* prologue: function */
 20865               	/* frame size = 0 */
 20866               	.LM2131:
 20867 7786 85E5      		ldi r24,lo8(85)
 20868 7788 0E94 0000 		call Debug_SendByte
 20869 778c 8823      		tst r24
 20870 778e 01F0      		breq .L1155
 20871               	.LM2132:
 20872 7790 E0E0      		ldi r30,lo8(user)
 20873 7792 F0E0      		ldi r31,hi8(user)
 20874 7794 0190      		ld __tmp_reg__,Z+
 20875 7796 0020      		tst __tmp_reg__
 20876 7798 01F4      		brne .-6
 20877 779a 3297      		sbiw r30,2
 20878 779c 8081      		ld r24,Z
 20879 779e 8032      		cpi r24,lo8(32)
 20880 77a0 00F4      		brsh .L1156
 20881               	.LM2133:
 20882 77a2 1082      		st Z,__zero_reg__
 20883               	.L1156:
 20884               	.LM2134:
 20885 77a4 C0E0      		ldi r28,lo8(user)
 20886 77a6 D0E0      		ldi r29,hi8(user)
 20887 77a8 FE01      		movw r30,r28
 20888 77aa 0190      		ld __tmp_reg__,Z+
 20889 77ac 0020      		tst __tmp_reg__
 20890 77ae 01F4      		brne .-6
 20891 77b0 3197      		sbiw r30,1
 20892 77b2 EC1B      		sub r30,r28
 20893 77b4 FD0B      		sbc r31,r29
 20894 77b6 8E2F      		mov r24,r30
 20895 77b8 8E5F      		subi r24,lo8(-(2))
 20896 77ba 0E94 0000 		call Debug_SendByte
 20897 77be 8823      		tst r24
 20898 77c0 01F0      		breq .L1155
 20899               	.LM2135:
 20900 77c2 CE01      		movw r24,r28
 20901 77c4 61E0      		ldi r22,lo8(1)
 20902 77c6 0E94 0000 		call Debug_SendString
 20903 77ca 8823      		tst r24
 20904 77cc 01F0      		breq .L1158
 20905 77ce 81E0      		ldi r24,lo8(1)
 20906 77d0 00C0      		rjmp .L1158
 20907               	.L1155:
 20908 77d2 80E0      		ldi r24,lo8(0)
 20909               	.L1158:
 20910               	/* epilogue start */
 20911               	.LM2136:
 20912 77d4 DF91      		pop r29
 20913 77d6 CF91      		pop r28
 20914 77d8 0895      		ret
 20915               	.LFE131:
 20917               		.data
 20918               	.LC14:
 20919 007c 00        		.string	""
 20920               		.text
 20921               	.global	Uploader_sendKey
 20923               	Uploader_sendKey:
 20924               	.LFB130:
 20925               	.LM2137:
 20926 77da CF93      		push r28
 20927 77dc DF93      		push r29
 20928               	/* prologue: function */
 20929               	/* frame size = 0 */
 20930               	.LM2138:
 20931 77de 8091 0000 		lds r24,phraseRead
 20932 77e2 8823      		tst r24
 20933 77e4 01F0      		breq .L1161
 20934               	.LM2139:
 20935 77e6 E0E0      		ldi r30,lo8(phrase)
 20936 77e8 F0E0      		ldi r31,hi8(phrase)
 20937 77ea 0190      		ld __tmp_reg__,Z+
 20938 77ec 0020      		tst __tmp_reg__
 20939 77ee 01F4      		brne .-6
 20940 77f0 3297      		sbiw r30,2
 20941 77f2 8081      		ld r24,Z
 20942 77f4 8032      		cpi r24,lo8(32)
 20943 77f6 00F4      		brsh .L1162
 20944               	.LM2140:
 20945 77f8 1082      		st Z,__zero_reg__
 20946               	.L1162:
 20947               	.LM2141:
 20948 77fa 8BE4      		ldi r24,lo8(75)
 20949 77fc 0E94 0000 		call Debug_SendByte
 20950 7800 8823      		tst r24
 20951 7802 01F0      		breq .L1163
 20952               	.LM2142:
 20953 7804 C0E0      		ldi r28,lo8(phrase)
 20954 7806 D0E0      		ldi r29,hi8(phrase)
 20955 7808 00C0      		rjmp .L1176
 20956               	.L1161:
 20957               	.LM2143:
 20958 780a 8091 0000 		lds r24,keyRead
 20959 780e 8823      		tst r24
 20960 7810 01F0      		breq .L1166
 20961               	.LM2144:
 20962 7812 E0E0      		ldi r30,lo8(key)
 20963 7814 F0E0      		ldi r31,hi8(key)
 20964 7816 0190      		ld __tmp_reg__,Z+
 20965 7818 0020      		tst __tmp_reg__
 20966 781a 01F4      		brne .-6
 20967 781c 3297      		sbiw r30,2
 20968 781e 8081      		ld r24,Z
 20969 7820 8032      		cpi r24,lo8(32)
 20970 7822 00F4      		brsh .L1167
 20971               	.LM2145:
 20972 7824 1082      		st Z,__zero_reg__
 20973               	.L1167:
 20974               	.LM2146:
 20975 7826 8BE4      		ldi r24,lo8(75)
 20976 7828 0E94 0000 		call Debug_SendByte
 20977 782c 8823      		tst r24
 20978 782e 01F0      		breq .L1163
 20979               	.LM2147:
 20980 7830 C0E0      		ldi r28,lo8(key)
 20981 7832 D0E0      		ldi r29,hi8(key)
 20982               	.L1176:
 20983 7834 FE01      		movw r30,r28
 20984 7836 0190      		ld __tmp_reg__,Z+
 20985 7838 0020      		tst __tmp_reg__
 20986 783a 01F4      		brne .-6
 20987 783c 3197      		sbiw r30,1
 20988 783e EC1B      		sub r30,r28
 20989 7840 FD0B      		sbc r31,r29
 20990 7842 8E2F      		mov r24,r30
 20991 7844 8E5F      		subi r24,lo8(-(2))
 20992 7846 0E94 0000 		call Debug_SendByte
 20993 784a 8823      		tst r24
 20994 784c 01F0      		breq .L1163
 20995               	.LM2148:
 20996 784e CE01      		movw r24,r28
 20997 7850 00C0      		rjmp .L1173
 20998               	.L1166:
 20999               	.LM2149:
 21000 7852 8BE4      		ldi r24,lo8(75)
 21001 7854 0E94 0000 		call Debug_SendByte
 21002 7858 8823      		tst r24
 21003 785a 01F0      		breq .L1163
 21004               	.LM2150:
 21005 785c 80E0      		ldi r24,lo8(0)
 21006 785e 0E94 0000 		call Debug_SendByte
 21007 7862 8823      		tst r24
 21008 7864 01F0      		breq .L1163
 21009               	.LM2151:
 21010 7866 80E0      		ldi r24,lo8(.LC14)
 21011 7868 90E0      		ldi r25,hi8(.LC14)
 21012               	.L1173:
 21013 786a 61E0      		ldi r22,lo8(1)
 21014 786c 0E94 0000 		call Debug_SendString
 21015 7870 8823      		tst r24
 21016 7872 01F0      		breq .L1165
 21017 7874 81E0      		ldi r24,lo8(1)
 21018 7876 00C0      		rjmp .L1165
 21019               	.L1163:
 21020 7878 80E0      		ldi r24,lo8(0)
 21021               	.L1165:
 21022               	/* epilogue start */
 21023               	.LM2152:
 21024 787a DF91      		pop r29
 21025 787c CF91      		pop r28
 21026 787e 0895      		ret
 21027               	.LFE130:
 21029               	.global	Uploader_sendAuthType
 21031               	Uploader_sendAuthType:
 21032               	.LFB129:
 21033               	.LM2153:
 21034 7880 CF93      		push r28
 21035 7882 DF93      		push r29
 21036               	/* prologue: function */
 21037               	/* frame size = 0 */
 21038               	.LM2154:
 21039 7884 8091 0000 		lds r24,authRead
 21040 7888 8823      		tst r24
 21041 788a 01F0      		breq .L1178
 21042               	.LM2155:
 21043 788c E0E0      		ldi r30,lo8(auth)
 21044 788e F0E0      		ldi r31,hi8(auth)
 21045 7890 0190      		ld __tmp_reg__,Z+
 21046 7892 0020      		tst __tmp_reg__
 21047 7894 01F4      		brne .-6
 21048 7896 3297      		sbiw r30,2
 21049 7898 8081      		ld r24,Z
 21050 789a 8032      		cpi r24,lo8(32)
 21051 789c 00F4      		brsh .L1179
 21052               	.LM2156:
 21053 789e 1082      		st Z,__zero_reg__
 21054               	.L1179:
 21055               	.LM2157:
 21056 78a0 81E4      		ldi r24,lo8(65)
 21057 78a2 0E94 0000 		call Debug_SendByte
 21058 78a6 8823      		tst r24
 21059 78a8 01F0      		breq .L1180
 21060               	.LM2158:
 21061 78aa C0E0      		ldi r28,lo8(auth)
 21062 78ac D0E0      		ldi r29,hi8(auth)
 21063 78ae FE01      		movw r30,r28
 21064 78b0 0190      		ld __tmp_reg__,Z+
 21065 78b2 0020      		tst __tmp_reg__
 21066 78b4 01F4      		brne .-6
 21067 78b6 3197      		sbiw r30,1
 21068 78b8 EC1B      		sub r30,r28
 21069 78ba FD0B      		sbc r31,r29
 21070 78bc 8E2F      		mov r24,r30
 21071 78be 8E5F      		subi r24,lo8(-(2))
 21072 78c0 0E94 0000 		call Debug_SendByte
 21073 78c4 8823      		tst r24
 21074 78c6 01F0      		breq .L1180
 21075               	.LM2159:
 21076 78c8 CE01      		movw r24,r28
 21077 78ca 00C0      		rjmp .L1186
 21078               	.L1178:
 21079               	.LM2160:
 21080 78cc 81E4      		ldi r24,lo8(65)
 21081 78ce 0E94 0000 		call Debug_SendByte
 21082 78d2 8823      		tst r24
 21083 78d4 01F0      		breq .L1180
 21084               	.LM2161:
 21085 78d6 80E0      		ldi r24,lo8(0)
 21086 78d8 0E94 0000 		call Debug_SendByte
 21087 78dc 8823      		tst r24
 21088 78de 01F0      		breq .L1180
 21089               	.LM2162:
 21090 78e0 80E0      		ldi r24,lo8(.LC14)
 21091 78e2 90E0      		ldi r25,hi8(.LC14)
 21092               	.L1186:
 21093 78e4 61E0      		ldi r22,lo8(1)
 21094 78e6 0E94 0000 		call Debug_SendString
 21095 78ea 8823      		tst r24
 21096 78ec 01F0      		breq .L1182
 21097 78ee 81E0      		ldi r24,lo8(1)
 21098 78f0 00C0      		rjmp .L1182
 21099               	.L1180:
 21100 78f2 80E0      		ldi r24,lo8(0)
 21101               	.L1182:
 21102               	/* epilogue start */
 21103               	.LM2163:
 21104 78f4 DF91      		pop r29
 21105 78f6 CF91      		pop r28
 21106 78f8 0895      		ret
 21107               	.LFE129:
 21109               	.global	Uploader_sendSSID
 21111               	Uploader_sendSSID:
 21112               	.LFB128:
 21113               	.LM2164:
 21114 78fa CF93      		push r28
 21115 78fc DF93      		push r29
 21116               	/* prologue: function */
 21117               	/* frame size = 0 */
 21118               	.LM2165:
 21119 78fe 8091 0000 		lds r24,ssidRead
 21120 7902 8823      		tst r24
 21121 7904 01F0      		breq .L1188
 21122               	.LM2166:
 21123 7906 E0E0      		ldi r30,lo8(ssid)
 21124 7908 F0E0      		ldi r31,hi8(ssid)
 21125 790a 0190      		ld __tmp_reg__,Z+
 21126 790c 0020      		tst __tmp_reg__
 21127 790e 01F4      		brne .-6
 21128 7910 3297      		sbiw r30,2
 21129 7912 8081      		ld r24,Z
 21130 7914 8032      		cpi r24,lo8(32)
 21131 7916 00F4      		brsh .L1189
 21132               	.LM2167:
 21133 7918 1082      		st Z,__zero_reg__
 21134               	.L1189:
 21135               	.LM2168:
 21136 791a 83E5      		ldi r24,lo8(83)
 21137 791c 0E94 0000 		call Debug_SendByte
 21138 7920 8823      		tst r24
 21139 7922 01F0      		breq .L1190
 21140               	.LM2169:
 21141 7924 C0E0      		ldi r28,lo8(ssid)
 21142 7926 D0E0      		ldi r29,hi8(ssid)
 21143 7928 FE01      		movw r30,r28
 21144 792a 0190      		ld __tmp_reg__,Z+
 21145 792c 0020      		tst __tmp_reg__
 21146 792e 01F4      		brne .-6
 21147 7930 3197      		sbiw r30,1
 21148 7932 EC1B      		sub r30,r28
 21149 7934 FD0B      		sbc r31,r29
 21150 7936 8E2F      		mov r24,r30
 21151 7938 8E5F      		subi r24,lo8(-(2))
 21152 793a 0E94 0000 		call Debug_SendByte
 21153 793e 8823      		tst r24
 21154 7940 01F0      		breq .L1190
 21155               	.LM2170:
 21156 7942 CE01      		movw r24,r28
 21157 7944 00C0      		rjmp .L1196
 21158               	.L1188:
 21159               	.LM2171:
 21160 7946 83E5      		ldi r24,lo8(83)
 21161 7948 0E94 0000 		call Debug_SendByte
 21162 794c 8823      		tst r24
 21163 794e 01F0      		breq .L1190
 21164               	.LM2172:
 21165 7950 80E0      		ldi r24,lo8(0)
 21166 7952 0E94 0000 		call Debug_SendByte
 21167 7956 8823      		tst r24
 21168 7958 01F0      		breq .L1190
 21169               	.LM2173:
 21170 795a 80E0      		ldi r24,lo8(.LC14)
 21171 795c 90E0      		ldi r25,hi8(.LC14)
 21172               	.L1196:
 21173 795e 61E0      		ldi r22,lo8(1)
 21174 7960 0E94 0000 		call Debug_SendString
 21175 7964 8823      		tst r24
 21176 7966 01F0      		breq .L1192
 21177 7968 81E0      		ldi r24,lo8(1)
 21178 796a 00C0      		rjmp .L1192
 21179               	.L1190:
 21180 796c 80E0      		ldi r24,lo8(0)
 21181               	.L1192:
 21182               	/* epilogue start */
 21183               	.LM2174:
 21184 796e DF91      		pop r29
 21185 7970 CF91      		pop r28
 21186 7972 0895      		ret
 21187               	.LFE128:
 21189               		.data
 21190               	.LC15:
 21191 007d 2E42 5400 		.string	".BT"
 21192               		.text
 21193               	.global	Uploader_sendFilename
 21195               	Uploader_sendFilename:
 21196               	.LFB133:
 21197               	.LM2175:
 21198 7974 1F93      		push r17
 21199               	/* prologue: function */
 21200               	/* frame size = 0 */
 21201               	.LM2176:
 21202 7976 86E4      		ldi r24,lo8(70)
 21203 7978 0E94 0000 		call Debug_SendByte
 21204 797c 8823      		tst r24
 21205 797e 01F4      		brne .+2
 21206 7980 00C0      		rjmp .L1198
 21207               	.LM2177:
 21208 7982 81E0      		ldi r24,lo8(1)
 21209 7984 8093 0000 		sts okToOpenDirectory,r24
 21210               	.L1199:
 21211               	.LM2178:
 21212 7988 8091 0000 		lds r24,okToOpenDirectory
 21213 798c 8823      		tst r24
 21214 798e 01F4      		brne .L1199
 21215               	.LM2179:
 21216 7990 11E0      		ldi r17,lo8(1)
 21217               	.L1211:
 21218 7992 1093 0000 		sts okToGrabNextFileName,r17
 21219               	.L1200:
 21220               	.LM2180:
 21221 7996 8091 0000 		lds r24,okToGrabNextFileName
 21222 799a 8823      		tst r24
 21223 799c 01F4      		brne .L1200
 21224               	.LM2181:
 21225 799e 8091 0000 		lds r24,availableFileName
 21226 79a2 8823      		tst r24
 21227 79a4 01F4      		brne .L1201
 21228               	.LM2182:
 21229 79a6 80E0      		ldi r24,lo8(.LC14)
 21230 79a8 90E0      		ldi r25,hi8(.LC14)
 21231 79aa 61E0      		ldi r22,lo8(1)
 21232 79ac 0E94 0000 		call Debug_SendString
 21233 79b0 8823      		tst r24
 21234 79b2 01F0      		breq .L1203
 21235 79b4 81E0      		ldi r24,lo8(1)
 21236 79b6 00C0      		rjmp .L1203
 21237               	.L1201:
 21238               	.LM2183:
 21239 79b8 8091 0000 		lds r24,recording
 21240 79bc 8823      		tst r24
 21241 79be 01F0      		breq .L1204
 21242               	.LM2184:
 21243 79c0 80E0      		ldi r24,lo8(currentLogFile)
 21244 79c2 90E0      		ldi r25,hi8(currentLogFile)
 21245 79c4 60E0      		ldi r22,lo8(availableFileName)
 21246 79c6 70E0      		ldi r23,hi8(availableFileName)
 21247 79c8 0E94 0000 		call strcasecmp
 21248 79cc 892B      		or r24,r25
 21249 79ce 01F0      		breq .L1211
 21250               	.LM2185:
 21251 79d0 80E0      		ldi r24,lo8(availableFileName)
 21252 79d2 90E0      		ldi r25,hi8(availableFileName)
 21253 79d4 60E0      		ldi r22,lo8(.LC15)
 21254 79d6 70E0      		ldi r23,hi8(.LC15)
 21255 79d8 0E94 0000 		call strcasestr
 21256 79dc 00C0      		rjmp .L1216
 21257               	.L1204:
 21258               	.LM2186:
 21259 79de 80E0      		ldi r24,lo8(availableFileName)
 21260 79e0 90E0      		ldi r25,hi8(availableFileName)
 21261 79e2 60E0      		ldi r22,lo8(.LC15)
 21262 79e4 70E0      		ldi r23,hi8(.LC15)
 21263 79e6 0E94 0000 		call strcasestr
 21264               	.L1216:
 21265 79ea 892B      		or r24,r25
 21266 79ec 01F0      		breq .L1211
 21267               	.LM2187:
 21268 79ee 80E0      		ldi r24,lo8(availableFileName)
 21269 79f0 90E0      		ldi r25,hi8(availableFileName)
 21270 79f2 60E0      		ldi r22,lo8(0)
 21271 79f4 0E94 0000 		call Debug_SendString
 21272 79f8 8823      		tst r24
 21273 79fa 01F0      		breq .L1198
 21274               	.LM2188:
 21275 79fc 8CE2      		ldi r24,lo8(44)
 21276 79fe 0E94 0000 		call Debug_SendByte
 21277 7a02 8823      		tst r24
 21278 7a04 01F4      		brne .L1211
 21279               	.L1198:
 21280 7a06 80E0      		ldi r24,lo8(0)
 21281               	.L1203:
 21282               	/* epilogue start */
 21283               	.LM2189:
 21284 7a08 1F91      		pop r17
 21285 7a0a 0895      		ret
 21286               	.LFE133:
 21288               	.global	Uploader_Update
 21290               	Uploader_Update:
 21291               	.LFB125:
 21292               	.LM2190:
 21293               	/* prologue: function */
 21294               	/* frame size = 0 */
 21295               	.LBB904:
 21296               	.LBB905:
 21297               	.LM2191:
 21298 7a0c 2091 0000 		lds r18,Debug_writeLocation
 21299 7a10 3091 0000 		lds r19,(Debug_writeLocation)+1
 21300 7a14 8091 0000 		lds r24,Debug_readLocation
 21301 7a18 9091 0000 		lds r25,(Debug_readLocation)+1
 21302 7a1c 2817      		cp r18,r24
 21303 7a1e 3907      		cpc r19,r25
 21304 7a20 01F0      		breq .+2
 21305 7a22 00C0      		rjmp .L1239
 21306 7a24 00C0      		rjmp .L1218
 21307               	.L1257:
 21308               	.LBE905:
 21309               	.LBE904:
 21310               	.LM2192:
 21311 7a26 0E94 0000 		call Uploader_getTime
 21312 7a2a 8823      		tst r24
 21313 7a2c 01F0      		breq .L1220
 21314               	.LBB906:
 21315               	.LBB907:
 21316               	.LM2193:
 21317 7a2e 8091 2104 		lds r24,1057
 21318 7a32 8061      		ori r24,lo8(16)
 21319 7a34 E0E2      		ldi r30,lo8(1056)
 21320 7a36 F4E0      		ldi r31,hi8(1056)
 21321 7a38 8183      		std Z+1,r24
 21322               	.L1221:
 21323               	.LM2194:
 21324 7a3a 8091 2104 		lds r24,1057
 21325 7a3e 84FD      		sbrc r24,4
 21326 7a40 00C0      		rjmp .L1221
 21327               	.LM2195:
 21328 7a42 8091 2404 		lds r24,1060
 21329 7a46 9091 2504 		lds r25,(1060)+1
 21330 7a4a A091 2604 		lds r26,(1060)+2
 21331 7a4e B091 2704 		lds r27,(1060)+3
 21332               	.LBE907:
 21333               	.LBE906:
 21334               	.LM2196:
 21335 7a52 8093 0000 		sts UNIX_Time,r24
 21336 7a56 9093 0000 		sts (UNIX_Time)+1,r25
 21337 7a5a A093 0000 		sts (UNIX_Time)+2,r26
 21338 7a5e B093 0000 		sts (UNIX_Time)+3,r27
 21339               	.LM2197:
 21340 7a62 81E0      		ldi r24,lo8(1)
 21341 7a64 8093 0000 		sts timeIsValid,r24
 21342 7a68 00C0      		rjmp .L1218
 21343               	.L1220:
 21344               	.LM2198:
 21345 7a6a 1092 0000 		sts timeIsValid,__zero_reg__
 21346 7a6e 00C0      		rjmp .L1224
 21347               	.L1240:
 21348               	.LM2199:
 21349 7a70 8335      		cpi r24,lo8(83)
 21350 7a72 01F4      		brne .L1223
 21351               	.LM2200:
 21352 7a74 0E94 0000 		call Uploader_sendSSID
 21353 7a78 00C0      		rjmp .L1242
 21354               	.L1223:
 21355               	.LM2201:
 21356 7a7a 8134      		cpi r24,lo8(65)
 21357 7a7c 01F4      		brne .L1225
 21358               	.LM2202:
 21359 7a7e 0E94 0000 		call Uploader_sendAuthType
 21360 7a82 00C0      		rjmp .L1242
 21361               	.L1225:
 21362               	.LM2203:
 21363 7a84 8B34      		cpi r24,lo8(75)
 21364 7a86 01F4      		brne .L1226
 21365               	.LM2204:
 21366 7a88 0E94 0000 		call Uploader_sendKey
 21367 7a8c 00C0      		rjmp .L1242
 21368               	.L1226:
 21369               	.LM2205:
 21370 7a8e 8535      		cpi r24,lo8(85)
 21371 7a90 01F4      		brne .L1227
 21372               	.LM2206:
 21373 7a92 0E94 0000 		call Uploader_sendUser
 21374 7a96 00C0      		rjmp .L1242
 21375               	.L1227:
 21376               	.LM2207:
 21377 7a98 8E34      		cpi r24,lo8(78)
 21378 7a9a 01F4      		brne .L1228
 21379               	.LM2208:
 21380 7a9c 0E94 0000 		call Uploader_sendNickname
 21381 7aa0 00C0      		rjmp .L1242
 21382               	.L1228:
 21383               	.LM2209:
 21384 7aa2 8634      		cpi r24,lo8(70)
 21385 7aa4 01F4      		brne .L1229
 21386               	.LM2210:
 21387 7aa6 0E94 0000 		call Uploader_sendFilename
 21388 7aaa 00C0      		rjmp .L1242
 21389               	.L1229:
 21390               	.LM2211:
 21391 7aac 8434      		cpi r24,lo8(68)
 21392 7aae 01F4      		brne .L1230
 21393               	.LM2212:
 21394 7ab0 0E94 0000 		call Uploader_uploadFile
 21395 7ab4 00C0      		rjmp .L1242
 21396               	.L1230:
 21397               	.LM2213:
 21398 7ab6 8534      		cpi r24,lo8(69)
 21399 7ab8 01F4      		brne .L1231
 21400               	.LM2214:
 21401 7aba 0E94 0000 		call Uploader_eraseFile
 21402 7abe 00C0      		rjmp .L1242
 21403               	.L1231:
 21404               	.LM2215:
 21405 7ac0 8635      		cpi r24,lo8(86)
 21406 7ac2 01F4      		brne .L1232
 21407               	.LM2216:
 21408 7ac4 0E94 0000 		call Uploader_sendServer
 21409 7ac8 00C0      		rjmp .L1242
 21410               	.L1232:
 21411               	.LM2217:
 21412 7aca 8F34      		cpi r24,lo8(79)
 21413 7acc 01F4      		brne .L1233
 21414               	.LM2218:
 21415 7ace 0E94 0000 		call Uploader_sendPort
 21416               	.L1242:
 21417 7ad2 8823      		tst r24
 21418 7ad4 01F4      		brne .L1218
 21419 7ad6 00C0      		rjmp .L1224
 21420               	.L1233:
 21421               	.LM2219:
 21422 7ad8 8235      		cpi r24,lo8(82)
 21423 7ada 01F4      		brne .L1218
 21424               	.LBB908:
 21425               	.LBB909:
 21426               	.LBB910:
 21427               	.LBB911:
 21428               	.LM2220:
 21429 7adc 80E0      		ldi r24,lo8(18432)
 21430 7ade 98E4      		ldi r25,hi8(18432)
 21431               	.LVL1554:
 21432               	/* #APP */
 21433               	 ;  105 "/usr/local/CrossPack-AVR-20100115/lib/gcc/avr/4.3.3/../../../../avr/include/util/delay_bas
 21434 7ae0 0197      		1: sbiw r24,1
 21435 7ae2 01F4      		brne 1b
 21436               	 ;  0 "" 2
 21437               	/* #NOAPP */
 21438               	.LBE911:
 21439               	.LBE910:
 21440               	.LBE909:
 21441               	.LBE908:
 21442               	.LM2221:
 21443 7ae4 82E5      		ldi r24,lo8(82)
 21444               	.LVL1555:
 21445 7ae6 0E94 0000 		call Debug_SendByte
 21446 7aea 00C0      		rjmp .L1224
 21447               	.L1218:
 21448               	.LBB912:
 21449               	.LBB913:
 21450               	.LBB914:
 21451               	.LBB915:
 21452               	.LM2222:
 21453 7aec 86E6      		ldi r24,lo8(3686)
 21454 7aee 9EE0      		ldi r25,hi8(3686)
 21455               	.LVL1556:
 21456               	/* #APP */
 21457               	 ;  105 "/usr/local/CrossPack-AVR-20100115/lib/gcc/avr/4.3.3/../../../../avr/include/util/delay_bas
 21458 7af0 0197      		1: sbiw r24,1
 21459 7af2 01F4      		brne 1b
 21460               	 ;  0 "" 2
 21461               	/* #NOAPP */
 21462               	.LBE915:
 21463               	.LBE914:
 21464               	.LBE913:
 21465               	.LBE912:
 21466               	.LM2223:
 21467 7af4 8091 0000 		lds r24,timeOutCounter
 21468 7af8 9091 0000 		lds r25,(timeOutCounter)+1
 21469               	.LVL1557:
 21470 7afc 0196      		adiw r24,1
 21471 7afe 8093 0000 		sts timeOutCounter,r24
 21472 7b02 9093 0000 		sts (timeOutCounter)+1,r25
 21473               	.LM2224:
 21474 7b06 8091 0000 		lds r24,timeOutCounter
 21475 7b0a 9091 0000 		lds r25,(timeOutCounter)+1
 21476 7b0e 20E0      		ldi r18,lo8(0)
 21477 7b10 8153      		subi r24,lo8(30001)
 21478 7b12 9547      		sbci r25,hi8(30001)
 21479 7b14 00F4      		brsh .L1222
 21480 7b16 21E0      		ldi r18,lo8(1)
 21481 7b18 00C0      		rjmp .L1222
 21482               	.L1224:
 21483 7b1a 20E0      		ldi r18,lo8(0)
 21484               	.L1222:
 21485               	.LM2225:
 21486 7b1c 822F      		mov r24,r18
 21487               	/* epilogue start */
 21488 7b1e 0895      		ret
 21489               	.L1239:
 21490               	.LM2226:
 21491 7b20 1092 0000 		sts timeOutCounter,__zero_reg__
 21492 7b24 1092 0000 		sts (timeOutCounter)+1,__zero_reg__
 21493               	.LM2227:
 21494 7b28 80E0      		ldi r24,lo8(0)
 21495 7b2a 0E94 0000 		call Debug_GetByte
 21496 7b2e 8093 0000 		sts command,r24
 21497               	.LM2228:
 21498 7b32 8435      		cpi r24,lo8(84)
 21499 7b34 01F0      		breq .+2
 21500 7b36 00C0      		rjmp .L1240
 21501 7b38 00C0      		rjmp .L1257
 21502               	.LFE125:
 21504               		.data
 21505               	.LC16:
 21506 0081 2E62 7400 		.string	".bt"
 21507               		.text
 21508               	.global	SD_MakeFileName
 21510               	SD_MakeFileName:
 21511               	.LFB99:
 21512               	.LM2229:
 21513               	.LVL1558:
 21514 7b3a 0F93      		push r16
 21515 7b3c 1F93      		push r17
 21516               	/* prologue: function */
 21517               	/* frame size = 0 */
 21518               	.LM2230:
 21519 7b3e 00E0      		ldi r16,lo8(fileName)
 21520 7b40 10E0      		ldi r17,hi8(fileName)
 21521 7b42 2FE2      		ldi r18,lo8(47)
 21522 7b44 2093 0000 		sts fileName,r18
 21523               	.LM2231:
 21524 7b48 A801      		movw r20,r16
 21525 7b4a 4F5F      		subi r20,lo8(-(1))
 21526 7b4c 5F4F      		sbci r21,hi8(-(1))
 21527 7b4e 20E1      		ldi r18,lo8(16)
 21528 7b50 30E0      		ldi r19,hi8(16)
 21529 7b52 0E94 0000 		call ltoa
 21530               	.LVL1559:
 21531               	.LM2232:
 21532 7b56 C801      		movw r24,r16
 21533 7b58 60E0      		ldi r22,lo8(.LC16)
 21534 7b5a 70E0      		ldi r23,hi8(.LC16)
 21535 7b5c 0E94 0000 		call strcat
 21536               	/* epilogue start */
 21537               	.LM2233:
 21538 7b60 1F91      		pop r17
 21539 7b62 0F91      		pop r16
 21540 7b64 0895      		ret
 21541               	.LFE99:
 21543               	.global	SD_Open
 21545               	SD_Open:
 21546               	.LFB89:
 21547               	.LM2234:
 21548               	.LVL1560:
 21549 7b66 CF93      		push r28
 21550 7b68 DF93      		push r29
 21551               	/* prologue: function */
 21552               	/* frame size = 0 */
 21553 7b6a EC01      		movw r28,r24
 21554               	.LM2235:
 21555 7b6c 80E0      		ldi r24,lo8(currentLogFile)
 21556 7b6e 90E0      		ldi r25,hi8(currentLogFile)
 21557               	.LVL1561:
 21558 7b70 BE01      		movw r22,r28
 21559 7b72 0E94 0000 		call strcpy
 21560               	.LM2236:
 21561 7b76 80E0      		ldi r24,lo8(currentLogFile)
 21562 7b78 90E0      		ldi r25,hi8(currentLogFile)
 21563 7b7a 0E94 0000 		call strupr
 21564 7b7e 21E0      		ldi r18,lo8(1)
 21565               	.LVL1562:
 21566               	.LBB916:
 21567               	.LM2237:
 21568 7b80 A0E0      		ldi r26,lo8(currentLogFile)
 21569 7b82 B0E0      		ldi r27,hi8(currentLogFile)
 21570 7b84 00C0      		rjmp .L1261
 21571               	.LVL1563:
 21572               	.L1262:
 21573               	.LM2238:
 21574 7b86 FC01      		movw r30,r24
 21575 7b88 E050      		subi r30,lo8(-(currentLogFile))
 21576 7b8a F040      		sbci r31,hi8(-(currentLogFile))
 21577 7b8c 8081      		ld r24,Z
 21578               	.LVL1564:
 21579 7b8e 3197      		sbiw r30,1
 21580 7b90 8083      		st Z,r24
 21581               	.LM2239:
 21582 7b92 2F5F      		subi r18,lo8(-(1))
 21583               	.L1261:
 21584 7b94 FD01      		movw r30,r26
 21585 7b96 0190      		ld __tmp_reg__,Z+
 21586 7b98 0020      		tst __tmp_reg__
 21587 7b9a 01F4      		brne .-6
 21588 7b9c 3197      		sbiw r30,1
 21589 7b9e E050      		subi r30,lo8(currentLogFile)
 21590 7ba0 F040      		sbci r31,hi8(currentLogFile)
 21591 7ba2 822F      		mov r24,r18
 21592 7ba4 90E0      		ldi r25,lo8(0)
 21593 7ba6 8E17      		cp r24,r30
 21594 7ba8 9F07      		cpc r25,r31
 21595 7baa 00F0      		brlo .L1262
 21596               	.LVL1565:
 21597               	.LBE916:
 21598               	.LM2240:
 21599 7bac E050      		subi r30,lo8(-(currentLogFile-1))
 21600 7bae F040      		sbci r31,hi8(-(currentLogFile-1))
 21601 7bb0 1082      		st Z,__zero_reg__
 21602               	.LM2241:
 21603 7bb2 80E0      		ldi r24,lo8(Log_File)
 21604 7bb4 90E0      		ldi r25,hi8(Log_File)
 21605               	.LVL1566:
 21606 7bb6 BE01      		movw r22,r28
 21607 7bb8 43E1      		ldi r20,lo8(19)
 21608 7bba 0E94 0000 		call f_open
 21609               	.LVL1567:
 21610               	/* epilogue start */
 21611               	.LM2242:
 21612 7bbe DF91      		pop r29
 21613 7bc0 CF91      		pop r28
 21614               	.LVL1568:
 21615 7bc2 0895      		ret
 21616               	.LFE89:
 21618               		.data
 21619               	.LC17:
 21620 0085 6465 7669 		.string	"device_class"
 21620      6365 5F63 
 21620      6C61 7373 
 21620      00
 21621               	.LC18:
 21622 0092 4368 6573 		.string	"ChestStrap"
 21622      7453 7472 
 21622      6170 00
 21623               	.LC19:
 21624 009d 6465 7669 		.string	"device_id"
 21624      6365 5F69 
 21624      6400 
 21625               	.LC20:
 21626 00a7 6669 726D 		.string	"firmware_version"
 21626      7761 7265 
 21626      5F76 6572 
 21626      7369 6F6E 
 21626      00
 21627               	.LC21:
 21628 00b8 332E 3032 		.string	"3.02"
 21628      00
 21629               	.LC22:
 21630 00bd 6861 7264 		.string	"hardware_version"
 21630      7761 7265 
 21630      5F76 6572 
 21630      7369 6F6E 
 21630      00
 21631               	.LC23:
 21632 00ce 3300      		.string	"3"
 21633               	.LC24:
 21634 00d0 6368 616E 		.string	"channel_specs"
 21634      6E65 6C5F 
 21634      7370 6563 
 21634      7300 
 21635               	.LC25:
 21636 00de 7B22 5465 		.string	"{\"Temperature\":{\"units\": \"bits\", \"scale\": 1},"
 21636      6D70 6572 
 21636      6174 7572 
 21636      6522 3A7B 
 21636      2275 6E69 
 21637               	.LC26:
 21638 010c 2252 6573 		.string	"\"Respiration\":{\"units\": \"bits\", \"scale\": 1},"
 21638      7069 7261 
 21638      7469 6F6E 
 21638      223A 7B22 
 21638      756E 6974 
 21639               	.LC27:
 21640 0139 2245 4B47 		.string	"\"EKG\":{\"units\": \"bits\", \"scale\": -1},"
 21640      223A 7B22 
 21640      756E 6974 
 21640      7322 3A20 
 21640      2262 6974 
 21641               	.LC28:
 21642 015f 2248 756D 		.string	"\"Humidity\":{\"units\": \"%RH\", \"scale\": 0.1},"
 21642      6964 6974 
 21642      7922 3A7B 
 21642      2275 6E69 
 21642      7473 223A 
 21643               	.LC29:
 21644 018a 2241 6363 		.string	"\"Accel_X\":{\"units\": \"bits\", \"offset\": -1024, \"scale\": 0.004},"
 21644      656C 5F58 
 21644      223A 7B22 
 21644      756E 6974 
 21644      7322 3A20 
 21645               	.LC30:
 21646 01c8 2241 6363 		.string	"\"Accel_Y\":{\"units\": \"bits\", \"offset\": -1024, \"scale\": 0.004},"
 21646      656C 5F59 
 21646      223A 7B22 
 21646      756E 6974 
 21646      7322 3A20 
 21647               	.LC31:
 21648 0206 2241 6363 		.string	"\"Accel_Z\":{\"units\": \"bits\", \"offset\": -1024, \"scale\": 0.004}}"
 21648      656C 5F5A 
 21648      223A 7B22 
 21648      756E 6974 
 21648      7322 3A20 
 21649               		.text
 21650               	.global	SD_StartLogFile
 21652               	SD_StartLogFile:
 21653               	.LFB152:
 21654               	.LM2243:
 21655               	.LVL1569:
 21656 7bc4 FF92      		push r15
 21657 7bc6 0F93      		push r16
 21658 7bc8 1F93      		push r17
 21659 7bca CF93      		push r28
 21660 7bcc DF93      		push r29
 21661               	/* prologue: function */
 21662               	/* frame size = 0 */
 21663               	.LM2244:
 21664 7bce 00E0      		ldi r16,lo8(deviceID)
 21665 7bd0 10E0      		ldi r17,hi8(deviceID)
 21666 7bd2 E801      		movw r28,r16
 21667 7bd4 0990      		ld __tmp_reg__,Y+
 21668 7bd6 0020      		tst __tmp_reg__
 21669 7bd8 01F4      		brne .-6
 21670 7bda 2197      		sbiw r28,1
 21671 7bdc C01B      		sub r28,r16
 21672 7bde D10B      		sbc r29,r17
 21673               	.LM2245:
 21674 7be0 0E94 0000 		call SD_MakeFileName
 21675               	.LVL1570:
 21676               	.LM2246:
 21677 7be4 80E0      		ldi r24,lo8(fileName)
 21678 7be6 90E0      		ldi r25,hi8(fileName)
 21679 7be8 0E94 0000 		call SD_Open
 21680 7bec F82E      		mov r15,r24
 21681               	.LVL1571:
 21682               	.LM2247:
 21683 7bee 8823      		tst r24
 21684 7bf0 01F0      		breq .+2
 21685 7bf2 00C0      		rjmp .L1265
 21686               	.LVL1572:
 21687               	.LBB917:
 21688               	.LBB918:
 21689               	.LM2248:
 21690 7bf4 8FEF      		ldi r24,lo8(-1)
 21691 7bf6 9FEF      		ldi r25,hi8(-1)
 21692 7bf8 AFEF      		ldi r26,hlo8(-1)
 21693 7bfa BFEF      		ldi r27,hhi8(-1)
 21694               	.LVL1573:
 21695 7bfc 8093 0000 		sts CRC,r24
 21696 7c00 9093 0000 		sts (CRC)+1,r25
 21697 7c04 A093 0000 		sts (CRC)+2,r26
 21698 7c08 B093 0000 		sts (CRC)+3,r27
 21699               	.LBE918:
 21700               	.LBE917:
 21701               	.LM2249:
 21702 7c0c 6CE4      		ldi r22,lo8(-1327598516)
 21703 7c0e 74E7      		ldi r23,hi8(-1327598516)
 21704 7c10 8EED      		ldi r24,hlo8(-1327598516)
 21705 7c12 90EB      		ldi r25,hhi8(-1327598516)
 21706 7c14 0E94 0000 		call SD_Write32
 21707               	.LM2250:
 21708 7c18 BE01      		movw r22,r28
 21709 7c1a 6A52      		subi r22,lo8(-(470))
 21710 7c1c 7E4F      		sbci r23,hi8(-(470))
 21711 7c1e 80E0      		ldi r24,lo8(0)
 21712 7c20 90E0      		ldi r25,hi8(0)
 21713 7c22 0E94 0000 		call SD_Write32
 21714               	.LM2251:
 21715 7c26 81E0      		ldi r24,lo8(1)
 21716 7c28 90E0      		ldi r25,hi8(1)
 21717 7c2a 0E94 0000 		call SD_Write16
 21718               	.LM2252:
 21719 7c2e 80E0      		ldi r24,lo8(256)
 21720 7c30 91E0      		ldi r25,hi8(256)
 21721 7c32 0E94 0000 		call SD_Write16
 21722               	.LM2253:
 21723 7c36 82E0      		ldi r24,lo8(2)
 21724 7c38 0E94 0000 		call SD_Write8
 21725               	.LM2254:
 21726 7c3c 0E94 0000 		call Time_Get32BitTimer
 21727 7c40 0E94 0000 		call SD_Write32
 21728               	.LM2255:
 21729 7c44 67E4      		ldi r22,lo8(542535)
 21730 7c46 77E4      		ldi r23,hi8(542535)
 21731 7c48 88E0      		ldi r24,hlo8(542535)
 21732 7c4a 90E0      		ldi r25,hhi8(542535)
 21733 7c4c 0E94 0000 		call SD_Write32
 21734               	.LM2256:
 21735 7c50 80E0      		ldi r24,lo8(0)
 21736 7c52 90E0      		ldi r25,hi8(0)
 21737 7c54 0E94 0000 		call SD_Write16
 21738               	.LM2257:
 21739 7c58 80E0      		ldi r24,lo8(.LC17)
 21740 7c5a 90E0      		ldi r25,hi8(.LC17)
 21741 7c5c 0E94 0000 		call SD_WriteString
 21742               	.LM2258:
 21743 7c60 89E0      		ldi r24,lo8(9)
 21744 7c62 0E94 0000 		call SD_Write8
 21745               	.LM2259:
 21746 7c66 80E0      		ldi r24,lo8(.LC18)
 21747 7c68 90E0      		ldi r25,hi8(.LC18)
 21748 7c6a 0E94 0000 		call SD_WriteString
 21749               	.LM2260:
 21750 7c6e 8AE0      		ldi r24,lo8(10)
 21751 7c70 0E94 0000 		call SD_Write8
 21752               	.LM2261:
 21753 7c74 80E0      		ldi r24,lo8(.LC19)
 21754 7c76 90E0      		ldi r25,hi8(.LC19)
 21755 7c78 0E94 0000 		call SD_WriteString
 21756               	.LM2262:
 21757 7c7c 89E0      		ldi r24,lo8(9)
 21758 7c7e 0E94 0000 		call SD_Write8
 21759               	.LM2263:
 21760 7c82 C801      		movw r24,r16
 21761 7c84 0E94 0000 		call SD_WriteString
 21762               	.LM2264:
 21763 7c88 8AE0      		ldi r24,lo8(10)
 21764 7c8a 0E94 0000 		call SD_Write8
 21765               	.LM2265:
 21766 7c8e 80E0      		ldi r24,lo8(.LC20)
 21767 7c90 90E0      		ldi r25,hi8(.LC20)
 21768 7c92 0E94 0000 		call SD_WriteString
 21769               	.LM2266:
 21770 7c96 89E0      		ldi r24,lo8(9)
 21771 7c98 0E94 0000 		call SD_Write8
 21772               	.LM2267:
 21773 7c9c 80E0      		ldi r24,lo8(.LC21)
 21774 7c9e 90E0      		ldi r25,hi8(.LC21)
 21775 7ca0 0E94 0000 		call SD_WriteString
 21776               	.LM2268:
 21777 7ca4 8AE0      		ldi r24,lo8(10)
 21778 7ca6 0E94 0000 		call SD_Write8
 21779               	.LM2269:
 21780 7caa 80E0      		ldi r24,lo8(.LC22)
 21781 7cac 90E0      		ldi r25,hi8(.LC22)
 21782 7cae 0E94 0000 		call SD_WriteString
 21783               	.LM2270:
 21784 7cb2 89E0      		ldi r24,lo8(9)
 21785 7cb4 0E94 0000 		call SD_Write8
 21786               	.LM2271:
 21787 7cb8 80E0      		ldi r24,lo8(.LC23)
 21788 7cba 90E0      		ldi r25,hi8(.LC23)
 21789 7cbc 0E94 0000 		call SD_WriteString
 21790               	.LM2272:
 21791 7cc0 8AE0      		ldi r24,lo8(10)
 21792 7cc2 0E94 0000 		call SD_Write8
 21793               	.LM2273:
 21794 7cc6 80E0      		ldi r24,lo8(.LC24)
 21795 7cc8 90E0      		ldi r25,hi8(.LC24)
 21796 7cca 0E94 0000 		call SD_WriteString
 21797               	.LM2274:
 21798 7cce 89E0      		ldi r24,lo8(9)
 21799 7cd0 0E94 0000 		call SD_Write8
 21800               	.LM2275:
 21801 7cd4 80E0      		ldi r24,lo8(.LC25)
 21802 7cd6 90E0      		ldi r25,hi8(.LC25)
 21803 7cd8 0E94 0000 		call SD_WriteString
 21804               	.LM2276:
 21805 7cdc 80E0      		ldi r24,lo8(.LC26)
 21806 7cde 90E0      		ldi r25,hi8(.LC26)
 21807 7ce0 0E94 0000 		call SD_WriteString
 21808               	.LM2277:
 21809 7ce4 80E0      		ldi r24,lo8(.LC27)
 21810 7ce6 90E0      		ldi r25,hi8(.LC27)
 21811 7ce8 0E94 0000 		call SD_WriteString
 21812               	.LM2278:
 21813 7cec 80E0      		ldi r24,lo8(.LC28)
 21814 7cee 90E0      		ldi r25,hi8(.LC28)
 21815 7cf0 0E94 0000 		call SD_WriteString
 21816               	.LM2279:
 21817 7cf4 80E0      		ldi r24,lo8(.LC29)
 21818 7cf6 90E0      		ldi r25,hi8(.LC29)
 21819 7cf8 0E94 0000 		call SD_WriteString
 21820               	.LM2280:
 21821 7cfc 80E0      		ldi r24,lo8(.LC30)
 21822 7cfe 90E0      		ldi r25,hi8(.LC30)
 21823 7d00 0E94 0000 		call SD_WriteString
 21824               	.LM2281:
 21825 7d04 80E0      		ldi r24,lo8(.LC31)
 21826 7d06 90E0      		ldi r25,hi8(.LC31)
 21827 7d08 0E94 0000 		call SD_WriteString
 21828               	.LM2282:
 21829 7d0c 8AE0      		ldi r24,lo8(10)
 21830 7d0e 0E94 0000 		call SD_Write8
 21831               	.LM2283:
 21832 7d12 80E0      		ldi r24,lo8(0)
 21833 7d14 0E94 0000 		call SD_Write8
 21834               	.LM2284:
 21835 7d18 0E94 0000 		call SD_WriteCRC
 21836               	.LM2285:
 21837 7d1c 80E0      		ldi r24,lo8(Log_File)
 21838 7d1e 90E0      		ldi r25,hi8(Log_File)
 21839 7d20 0E94 0000 		call f_sync
 21840               	.LVL1574:
 21841               	.L1265:
 21842               	.LM2286:
 21843 7d24 8F2D      		mov r24,r15
 21844               	/* epilogue start */
 21845 7d26 DF91      		pop r29
 21846 7d28 CF91      		pop r28
 21847 7d2a 1F91      		pop r17
 21848 7d2c 0F91      		pop r16
 21849 7d2e FF90      		pop r15
 21850               	.LVL1575:
 21851 7d30 0895      		ret
 21852               	.LFE152:
 21854               		.data
 21855               	.LC32:
 21856 0244 2F00      		.string	"/"
 21857               		.text
 21858               	.global	__vector_53
 21860               	__vector_53:
 21861               	.LFB151:
 21862               	.LM2287:
 21863 7d32 1F92      		push __zero_reg__
 21864 7d34 0F92      		push r0
 21865 7d36 0FB6      		in r0,__SREG__
 21866 7d38 0F92      		push r0
 21867 7d3a 0BB6      		in r0,59-0
 21868 7d3c 0F92      		push r0
 21869 7d3e 1124      		clr __zero_reg__
 21870 7d40 EF92      		push r14
 21871 7d42 FF92      		push r15
 21872 7d44 0F93      		push r16
 21873 7d46 1F93      		push r17
 21874 7d48 2F93      		push r18
 21875 7d4a 3F93      		push r19
 21876 7d4c 4F93      		push r20
 21877 7d4e 5F93      		push r21
 21878 7d50 6F93      		push r22
 21879 7d52 7F93      		push r23
 21880 7d54 8F93      		push r24
 21881 7d56 9F93      		push r25
 21882 7d58 AF93      		push r26
 21883 7d5a BF93      		push r27
 21884 7d5c EF93      		push r30
 21885 7d5e FF93      		push r31
 21886 7d60 DF93      		push r29
 21887 7d62 CF93      		push r28
 21888 7d64 0F92      		push __tmp_reg__
 21889 7d66 0F92      		push __tmp_reg__
 21890 7d68 CDB7      		in r28,__SP_L__
 21891 7d6a DEB7      		in r29,__SP_H__
 21892               	/* prologue: Signal */
 21893               	/* frame size = 2 */
 21894               	.LM2288:
 21895 7d6c 8091 0000 		lds r24,recording
 21896 7d70 8823      		tst r24
 21897 7d72 01F4      		brne .+2
 21898 7d74 00C0      		rjmp .L1268
 21899               	.LBB919:
 21900               	.LM2289:
 21901 7d76 8091 0000 		lds r24,okToSendAccelBuffer
 21902 7d7a 8823      		tst r24
 21903 7d7c 01F0      		breq .L1269
 21904               	.LM2290:
 21905 7d7e 80E0      		ldi r24,lo8(0)
 21906 7d80 0E94 0000 		call SD_WriteAccelBuffer
 21907               	.LM2291:
 21908 7d84 1092 0000 		sts okToSendAccelBuffer,__zero_reg__
 21909               	.L1269:
 21910               	.LM2292:
 21911 7d88 8091 0000 		lds r24,okToSendAccelBuffer+1
 21912 7d8c 8823      		tst r24
 21913 7d8e 01F0      		breq .L1270
 21914               	.LM2293:
 21915 7d90 81E0      		ldi r24,lo8(1)
 21916 7d92 0E94 0000 		call SD_WriteAccelBuffer
 21917               	.LM2294:
 21918 7d96 1092 0000 		sts okToSendAccelBuffer+1,__zero_reg__
 21919               	.L1270:
 21920               	.LBE919:
 21921               	.LBB920:
 21922               	.LM2295:
 21923 7d9a 8091 0000 		lds r24,okToSendEKGBuffer
 21924 7d9e 8823      		tst r24
 21925 7da0 01F0      		breq .L1271
 21926               	.LM2296:
 21927 7da2 80E0      		ldi r24,lo8(0)
 21928 7da4 0E94 0000 		call SD_WriteEKGBuffer
 21929               	.LM2297:
 21930 7da8 1092 0000 		sts okToSendEKGBuffer,__zero_reg__
 21931               	.L1271:
 21932               	.LM2298:
 21933 7dac 8091 0000 		lds r24,okToSendEKGBuffer+1
 21934 7db0 8823      		tst r24
 21935 7db2 01F0      		breq .L1272
 21936               	.LM2299:
 21937 7db4 81E0      		ldi r24,lo8(1)
 21938 7db6 0E94 0000 		call SD_WriteEKGBuffer
 21939               	.LM2300:
 21940 7dba 1092 0000 		sts okToSendEKGBuffer+1,__zero_reg__
 21941               	.L1272:
 21942               	.LM2301:
 21943 7dbe 8091 0000 		lds r24,okToSendEKGBuffer+2
 21944 7dc2 8823      		tst r24
 21945 7dc4 01F0      		breq .L1273
 21946               	.LM2302:
 21947 7dc6 82E0      		ldi r24,lo8(2)
 21948 7dc8 0E94 0000 		call SD_WriteEKGBuffer
 21949               	.LM2303:
 21950 7dcc 1092 0000 		sts okToSendEKGBuffer+2,__zero_reg__
 21951               	.L1273:
 21952               	.LBE920:
 21953               	.LBB921:
 21954               	.LM2304:
 21955 7dd0 8091 0000 		lds r24,okToSendRespirationBuffer
 21956 7dd4 8823      		tst r24
 21957 7dd6 01F0      		breq .L1274
 21958               	.LM2305:
 21959 7dd8 80E0      		ldi r24,lo8(0)
 21960 7dda 0E94 0000 		call SD_WriteRespirationBuffer
 21961               	.LM2306:
 21962 7dde 1092 0000 		sts okToSendRespirationBuffer,__zero_reg__
 21963               	.L1274:
 21964               	.LM2307:
 21965 7de2 8091 0000 		lds r24,okToSendRespirationBuffer+1
 21966 7de6 8823      		tst r24
 21967 7de8 01F0      		breq .L1275
 21968               	.LM2308:
 21969 7dea 81E0      		ldi r24,lo8(1)
 21970 7dec 0E94 0000 		call SD_WriteRespirationBuffer
 21971               	.LM2309:
 21972 7df0 1092 0000 		sts okToSendRespirationBuffer+1,__zero_reg__
 21973               	.L1275:
 21974               	.LM2310:
 21975 7df4 8091 0000 		lds r24,okToSendRespirationBuffer+2
 21976 7df8 8823      		tst r24
 21977 7dfa 01F0      		breq .L1276
 21978               	.LM2311:
 21979 7dfc 82E0      		ldi r24,lo8(2)
 21980 7dfe 0E94 0000 		call SD_WriteRespirationBuffer
 21981               	.LM2312:
 21982 7e02 1092 0000 		sts okToSendRespirationBuffer+2,__zero_reg__
 21983               	.L1276:
 21984               	.LBE921:
 21985               	.LBB922:
 21986               	.LM2313:
 21987 7e06 8091 0000 		lds r24,okToSendTemperatureBuffer
 21988 7e0a 8823      		tst r24
 21989 7e0c 01F0      		breq .L1277
 21990               	.LM2314:
 21991 7e0e 80E0      		ldi r24,lo8(0)
 21992 7e10 0E94 0000 		call SD_WriteTemperatureBuffer
 21993               	.LM2315:
 21994 7e14 1092 0000 		sts okToSendTemperatureBuffer,__zero_reg__
 21995               	.L1277:
 21996               	.LM2316:
 21997 7e18 8091 0000 		lds r24,okToSendTemperatureBuffer+1
 21998 7e1c 8823      		tst r24
 21999 7e1e 01F0      		breq .L1278
 22000               	.LM2317:
 22001 7e20 81E0      		ldi r24,lo8(1)
 22002 7e22 0E94 0000 		call SD_WriteTemperatureBuffer
 22003               	.LM2318:
 22004 7e26 1092 0000 		sts okToSendTemperatureBuffer+1,__zero_reg__
 22005               	.L1278:
 22006               	.LBE922:
 22007               	.LBB923:
 22008               	.LM2319:
 22009 7e2a 8091 0000 		lds r24,okToSendHumidityBuffer
 22010 7e2e 8823      		tst r24
 22011 7e30 01F0      		breq .L1279
 22012               	.LM2320:
 22013 7e32 80E0      		ldi r24,lo8(0)
 22014 7e34 0E94 0000 		call SD_WriteHumidityBuffer
 22015               	.LM2321:
 22016 7e38 1092 0000 		sts okToSendHumidityBuffer,__zero_reg__
 22017               	.L1279:
 22018               	.LM2322:
 22019 7e3c 8091 0000 		lds r24,okToSendHumidityBuffer+1
 22020 7e40 8823      		tst r24
 22021 7e42 01F0      		breq .L1280
 22022               	.LM2323:
 22023 7e44 81E0      		ldi r24,lo8(1)
 22024 7e46 0E94 0000 		call SD_WriteHumidityBuffer
 22025               	.LM2324:
 22026 7e4a 1092 0000 		sts okToSendHumidityBuffer+1,__zero_reg__
 22027               	.L1280:
 22028               	.LBE923:
 22029               	.LM2325:
 22030 7e4e 8091 0000 		lds r24,okToSendRTCBlock
 22031 7e52 8823      		tst r24
 22032 7e54 01F0      		breq .L1268
 22033               	.LBB924:
 22034               	.LBB925:
 22035               	.LM2326:
 22036 7e56 8091 2104 		lds r24,1057
 22037 7e5a 8061      		ori r24,lo8(16)
 22038 7e5c E0E2      		ldi r30,lo8(1056)
 22039 7e5e F4E0      		ldi r31,hi8(1056)
 22040 7e60 8183      		std Z+1,r24
 22041               	.L1281:
 22042               	.LM2327:
 22043 7e62 8091 2104 		lds r24,1057
 22044 7e66 84FD      		sbrc r24,4
 22045 7e68 00C0      		rjmp .L1281
 22046               	.LM2328:
 22047 7e6a 8091 2404 		lds r24,1060
 22048 7e6e 9091 2504 		lds r25,(1060)+1
 22049 7e72 A091 2604 		lds r26,(1060)+2
 22050 7e76 B091 2704 		lds r27,(1060)+3
 22051               	.LBE925:
 22052               	.LBE924:
 22053               	.LM2329:
 22054 7e7a 8093 0000 		sts UNIX_Time,r24
 22055 7e7e 9093 0000 		sts (UNIX_Time)+1,r25
 22056 7e82 A093 0000 		sts (UNIX_Time)+2,r26
 22057 7e86 B093 0000 		sts (UNIX_Time)+3,r27
 22058               	.LM2330:
 22059 7e8a 0E94 0000 		call Time_Get32BitTimer
 22060 7e8e 2091 0000 		lds r18,UNIX_Time
 22061 7e92 3091 0000 		lds r19,(UNIX_Time)+1
 22062 7e96 4091 0000 		lds r20,(UNIX_Time)+2
 22063 7e9a 5091 0000 		lds r21,(UNIX_Time)+3
 22064 7e9e 0E94 0000 		call SD_WriteRTCBlock
 22065               	.LM2331:
 22066 7ea2 1092 0000 		sts okToSendRTCBlock,__zero_reg__
 22067               	.L1268:
 22068               	.LM2332:
 22069 7ea6 8091 0000 		lds r24,okToOpenLogFile
 22070 7eaa 8823      		tst r24
 22071 7eac 01F4      		brne .+2
 22072 7eae 00C0      		rjmp .L1282
 22073 7eb0 8091 0000 		lds r24,percentDiskUsed
 22074 7eb4 9091 0000 		lds r25,(percentDiskUsed)+1
 22075 7eb8 A091 0000 		lds r26,(percentDiskUsed)+2
 22076 7ebc B091 0000 		lds r27,(percentDiskUsed)+3
 22077 7ec0 865B      		subi r24,lo8(950)
 22078 7ec2 9340      		sbci r25,hi8(950)
 22079 7ec4 A040      		sbci r26,hlo8(950)
 22080 7ec6 B040      		sbci r27,hhi8(950)
 22081 7ec8 00F0      		brlo .+2
 22082 7eca 00C0      		rjmp .L1282
 22083               	.LM2333:
 22084 7ecc 6091 0000 		lds r22,UNIX_Time
 22085 7ed0 7091 0000 		lds r23,(UNIX_Time)+1
 22086 7ed4 8091 0000 		lds r24,(UNIX_Time)+2
 22087 7ed8 9091 0000 		lds r25,(UNIX_Time)+3
 22088 7edc 0E94 0000 		call SD_StartLogFile
 22089 7ee0 8823      		tst r24
 22090 7ee2 01F4      		brne .L1283
 22091 7ee4 88EE      		ldi r24,lo8(1000)
 22092 7ee6 93E0      		ldi r25,hi8(1000)
 22093               	.LVL1576:
 22094               	.LBB926:
 22095               	.LBB927:
 22096               	.LBB928:
 22097               	.LBB929:
 22098               	.LM2334:
 22099 7ee8 20E7      		ldi r18,lo8(368)
 22100 7eea 31E0      		ldi r19,hi8(368)
 22101               	.L1284:
 22102 7eec F901      		movw r30,r18
 22103               	.LVL1577:
 22104               	/* #APP */
 22105               	 ;  105 "/usr/local/CrossPack-AVR-20100115/lib/gcc/avr/4.3.3/../../../../avr/include/util/delay_bas
 22106 7eee 3197      		1: sbiw r30,1
 22107 7ef0 01F4      		brne 1b
 22108               	 ;  0 "" 2
 22109               	/* #NOAPP */
 22110               	.LBE929:
 22111               	.LBE928:
 22112               	.LM2335:
 22113 7ef2 0197      		sbiw r24,1
 22114               	.LM2336:
 22115 7ef4 01F4      		brne .L1284
 22116               	.LBE927:
 22117               	.LBE926:
 22118               	.LM2337:
 22119 7ef6 1092 0000 		sts lengthOfCurrentFile,__zero_reg__
 22120 7efa 1092 0000 		sts (lengthOfCurrentFile)+1,__zero_reg__
 22121               	.LM2338:
 22122 7efe 8091 0000 		lds r24,UNIX_Time
 22123 7f02 9091 0000 		lds r25,(UNIX_Time)+1
 22124 7f06 A091 0000 		lds r26,(UNIX_Time)+2
 22125 7f0a B091 0000 		lds r27,(UNIX_Time)+3
 22126               	.LVL1578:
 22127 7f0e 8093 0000 		sts timeRecordingStarted,r24
 22128 7f12 9093 0000 		sts (timeRecordingStarted)+1,r25
 22129 7f16 A093 0000 		sts (timeRecordingStarted)+2,r26
 22130 7f1a B093 0000 		sts (timeRecordingStarted)+3,r27
 22131               	.LM2339:
 22132 7f1e 0E94 0000 		call Time_Get32BitTimer
 22133               	.LVL1579:
 22134 7f22 2091 0000 		lds r18,UNIX_Time
 22135 7f26 3091 0000 		lds r19,(UNIX_Time)+1
 22136 7f2a 4091 0000 		lds r20,(UNIX_Time)+2
 22137 7f2e 5091 0000 		lds r21,(UNIX_Time)+3
 22138 7f32 0E94 0000 		call SD_WriteRTCBlock
 22139               	.LM2340:
 22140 7f36 81E0      		ldi r24,lo8(1)
 22141 7f38 8093 0000 		sts recording,r24
 22142               	.LM2341:
 22143 7f3c 1092 0000 		sts okToOpenLogFile,__zero_reg__
 22144 7f40 00C0      		rjmp .L1282
 22145               	.L1283:
 22146               	.LM2342:
 22147 7f42 0E94 0000 		call SD_Init
 22148               	.L1282:
 22149               	.LM2343:
 22150 7f46 8091 0000 		lds r24,okToCloseLogFile
 22151 7f4a 8823      		tst r24
 22152 7f4c 01F0      		breq .L1285
 22153               	.LM2344:
 22154 7f4e 0E94 0000 		call SD_Close
 22155               	.LM2345:
 22156 7f52 1092 0000 		sts okToCloseLogFile,__zero_reg__
 22157               	.L1285:
 22158               	.LM2346:
 22159 7f56 8091 0000 		lds r24,okToOpenDirectory
 22160 7f5a 8823      		tst r24
 22161 7f5c 01F0      		breq .L1286
 22162               	.LM2347:
 22163 7f5e 80E0      		ldi r24,lo8(dir)
 22164 7f60 90E0      		ldi r25,hi8(dir)
 22165 7f62 60E0      		ldi r22,lo8(.LC32)
 22166 7f64 70E0      		ldi r23,hi8(.LC32)
 22167 7f66 0E94 0000 		call f_opendir
 22168               	.LM2348:
 22169 7f6a 1092 0000 		sts okToOpenDirectory,__zero_reg__
 22170               	.L1286:
 22171               	.LM2349:
 22172 7f6e 8091 0000 		lds r24,okToGrabNextFileName
 22173 7f72 8823      		tst r24
 22174 7f74 01F0      		breq .L1287
 22175               	.LM2350:
 22176 7f76 1092 0000 		sts availableFileName,__zero_reg__
 22177               	.LM2351:
 22178 7f7a 80E0      		ldi r24,lo8(dir)
 22179 7f7c 90E0      		ldi r25,hi8(dir)
 22180 7f7e 60E0      		ldi r22,lo8(fno)
 22181 7f80 70E0      		ldi r23,hi8(fno)
 22182 7f82 0E94 0000 		call f_readdir
 22183 7f86 8823      		tst r24
 22184 7f88 01F4      		brne .L1288
 22185               	.LM2352:
 22186 7f8a 8091 0000 		lds r24,fno+9
 22187 7f8e 8823      		tst r24
 22188 7f90 01F0      		breq .L1289
 22189               	.LM2353:
 22190 7f92 80E0      		ldi r24,lo8(availableFileName)
 22191 7f94 90E0      		ldi r25,hi8(availableFileName)
 22192 7f96 60E0      		ldi r22,lo8(fno+9)
 22193 7f98 70E0      		ldi r23,hi8(fno+9)
 22194 7f9a 0E94 0000 		call strcpy
 22195               	.L1289:
 22196               	.LM2354:
 22197 7f9e 1092 0000 		sts okToGrabNextFileName,__zero_reg__
 22198 7fa2 00C0      		rjmp .L1287
 22199               	.L1288:
 22200               	.LBB930:
 22201               	.LBB931:
 22202               	.LM2355:
 22203 7fa4 8091 0000 		lds r24,sdValid
 22204               	.LBE931:
 22205               	.LBE930:
 22206               	.LM2356:
 22207 7fa8 8823      		tst r24
 22208 7faa 01F0      		breq .L1287
 22209               	.LM2357:
 22210 7fac 0E94 0000 		call SD_Init
 22211               	.LM2358:
 22212 7fb0 80E0      		ldi r24,lo8(dir)
 22213 7fb2 90E0      		ldi r25,hi8(dir)
 22214 7fb4 60E0      		ldi r22,lo8(.LC32)
 22215 7fb6 70E0      		ldi r23,hi8(.LC32)
 22216 7fb8 0E94 0000 		call f_opendir
 22217               	.L1287:
 22218               	.LM2359:
 22219 7fbc 8091 0000 		lds r24,okToOpenFileToUpload
 22220 7fc0 8823      		tst r24
 22221 7fc2 01F0      		breq .L1290
 22222               	.LM2360:
 22223 7fc4 80E0      		ldi r24,lo8(fileToUpload)
 22224 7fc6 90E0      		ldi r25,hi8(fileToUpload)
 22225 7fc8 60E0      		ldi r22,lo8(fno)
 22226 7fca 70E0      		ldi r23,hi8(fno)
 22227 7fcc 0E94 0000 		call f_stat
 22228               	.LM2361:
 22229 7fd0 8091 0000 		lds r24,fno
 22230 7fd4 9091 0000 		lds r25,(fno)+1
 22231 7fd8 A091 0000 		lds r26,(fno)+2
 22232 7fdc B091 0000 		lds r27,(fno)+3
 22233 7fe0 8093 0000 		sts uploadFileSize,r24
 22234 7fe4 9093 0000 		sts (uploadFileSize)+1,r25
 22235 7fe8 A093 0000 		sts (uploadFileSize)+2,r26
 22236 7fec B093 0000 		sts (uploadFileSize)+3,r27
 22237               	.LM2362:
 22238 7ff0 80E0      		ldi r24,lo8(Upload_File)
 22239 7ff2 90E0      		ldi r25,hi8(Upload_File)
 22240 7ff4 60E0      		ldi r22,lo8(fileToUpload)
 22241 7ff6 70E0      		ldi r23,hi8(fileToUpload)
 22242 7ff8 43E0      		ldi r20,lo8(3)
 22243 7ffa 0E94 0000 		call f_open
 22244 7ffe 8823      		tst r24
 22245 8000 01F4      		brne .L1291
 22246               	.LM2363:
 22247 8002 81E0      		ldi r24,lo8(1)
 22248 8004 8093 0000 		sts fileExists,r24
 22249 8008 00C0      		rjmp .L1292
 22250               	.L1291:
 22251               	.LM2364:
 22252 800a 1092 0000 		sts fileExists,__zero_reg__
 22253               	.L1292:
 22254               	.LM2365:
 22255 800e 80E0      		ldi r24,lo8(Upload_File)
 22256 8010 90E0      		ldi r25,hi8(Upload_File)
 22257 8012 40E0      		ldi r20,lo8(0)
 22258 8014 50E0      		ldi r21,hi8(0)
 22259 8016 60E0      		ldi r22,hlo8(0)
 22260 8018 70E0      		ldi r23,hhi8(0)
 22261 801a 0E94 0000 		call f_lseek
 22262               	.LM2366:
 22263 801e 81E0      		ldi r24,lo8(1)
 22264 8020 8093 0000 		sts uploadFileOpened,r24
 22265               	.LM2367:
 22266 8024 1092 0000 		sts okToOpenFileToUpload,__zero_reg__
 22267               	.L1290:
 22268               	.LM2368:
 22269 8028 8091 0000 		lds r24,okToFillUploadFileBuffer
 22270 802c 8823      		tst r24
 22271 802e 01F0      		breq .L1293
 22272               	.LBB932:
 22273               	.LM2369:
 22274 8030 80E0      		ldi r24,lo8(Upload_File)
 22275 8032 90E0      		ldi r25,hi8(Upload_File)
 22276 8034 60E0      		ldi r22,lo8(uploadFileBuffer)
 22277 8036 70E0      		ldi r23,hi8(uploadFileBuffer)
 22278 8038 48EE      		ldi r20,lo8(1000)
 22279 803a 53E0      		ldi r21,hi8(1000)
 22280 803c 9E01      		movw r18,r28
 22281 803e 2F5F      		subi r18,lo8(-(1))
 22282 8040 3F4F      		sbci r19,hi8(-(1))
 22283 8042 0E94 0000 		call f_read
 22284               	.LM2370:
 22285 8046 1092 0000 		sts okToFillUploadFileBuffer,__zero_reg__
 22286               	.LM2371:
 22287 804a 81E0      		ldi r24,lo8(1)
 22288 804c 8093 0000 		sts uploadFileBufferFull,r24
 22289               	.L1293:
 22290               	.LBE932:
 22291               	.LM2372:
 22292 8050 8091 0000 		lds r24,okToCloseUploadFile
 22293 8054 8823      		tst r24
 22294 8056 01F0      		breq .L1294
 22295               	.LM2373:
 22296 8058 80E0      		ldi r24,lo8(Upload_File)
 22297 805a 90E0      		ldi r25,hi8(Upload_File)
 22298 805c 0E94 0000 		call f_sync
 22299               	.LM2374:
 22300 8060 80E0      		ldi r24,lo8(Upload_File)
 22301 8062 90E0      		ldi r25,hi8(Upload_File)
 22302 8064 0E94 0000 		call f_close
 22303               	.LM2375:
 22304 8068 80E0      		ldi r24,lo8(fileToUpload)
 22305 806a 90E0      		ldi r25,hi8(fileToUpload)
 22306 806c 60E0      		ldi r22,lo8(.LC14)
 22307 806e 70E0      		ldi r23,hi8(.LC14)
 22308 8070 0E94 0000 		call strcpy
 22309               	.LM2376:
 22310 8074 1092 0000 		sts okToCloseUploadFile,__zero_reg__
 22311               	.L1294:
 22312               	.LM2377:
 22313 8078 8091 0000 		lds r24,okToGetRemainingSpace
 22314 807c 8823      		tst r24
 22315 807e 01F4      		brne .+2
 22316 8080 00C0      		rjmp .L1295
 22317               	.LM2378:
 22318 8082 80E0      		ldi r24,lo8(.LC3)
 22319 8084 90E0      		ldi r25,hi8(.LC3)
 22320 8086 60E0      		ldi r22,lo8(spaceRemainingOnDisk)
 22321 8088 70E0      		ldi r23,hi8(spaceRemainingOnDisk)
 22322 808a 40E0      		ldi r20,lo8(fs)
 22323 808c 50E0      		ldi r21,hi8(fs)
 22324 808e 0E94 0000 		call f_getfree
 22325 8092 8823      		tst r24
 22326 8094 01F0      		breq .L1296
 22327               	.LM2379:
 22328 8096 1092 0000 		sts spaceRemainingOnDisk,__zero_reg__
 22329 809a 1092 0000 		sts (spaceRemainingOnDisk)+1,__zero_reg__
 22330 809e 1092 0000 		sts (spaceRemainingOnDisk)+2,__zero_reg__
 22331 80a2 1092 0000 		sts (spaceRemainingOnDisk)+3,__zero_reg__
 22332               	.L1296:
 22333               	.LM2380:
 22334 80a6 E091 0000 		lds r30,fs
 22335 80aa F091 0000 		lds r31,(fs)+1
 22336 80ae E28C      		ldd r14,Z+26
 22337 80b0 F38C      		ldd r15,Z+27
 22338 80b2 048D      		ldd r16,Z+28
 22339 80b4 158D      		ldd r17,Z+29
 22340 80b6 E092 0000 		sts totalDiskSpace,r14
 22341 80ba F092 0000 		sts (totalDiskSpace)+1,r15
 22342 80be 0093 0000 		sts (totalDiskSpace)+2,r16
 22343 80c2 1093 0000 		sts (totalDiskSpace)+3,r17
 22344               	.LM2381:
 22345 80c6 8091 0000 		lds r24,spaceRemainingOnDisk
 22346 80ca 9091 0000 		lds r25,(spaceRemainingOnDisk)+1
 22347 80ce A091 0000 		lds r26,(spaceRemainingOnDisk)+2
 22348 80d2 B091 0000 		lds r27,(spaceRemainingOnDisk)+3
 22349 80d6 A801      		movw r20,r16
 22350 80d8 9701      		movw r18,r14
 22351 80da 281B      		sub r18,r24
 22352 80dc 390B      		sbc r19,r25
 22353 80de 4A0B      		sbc r20,r26
 22354 80e0 5B0B      		sbc r21,r27
 22355 80e2 CA01      		movw r24,r20
 22356 80e4 B901      		movw r22,r18
 22357 80e6 28EE      		ldi r18,lo8(1000)
 22358 80e8 33E0      		ldi r19,hi8(1000)
 22359 80ea 40E0      		ldi r20,hlo8(1000)
 22360 80ec 50E0      		ldi r21,hhi8(1000)
 22361 80ee 0E94 0000 		call __mulsi3
 22362               	.LM2382:
 22363 80f2 A801      		movw r20,r16
 22364 80f4 9701      		movw r18,r14
 22365 80f6 0E94 0000 		call __udivmodsi4
 22366 80fa 2093 0000 		sts percentDiskUsed,r18
 22367 80fe 3093 0000 		sts (percentDiskUsed)+1,r19
 22368 8102 4093 0000 		sts (percentDiskUsed)+2,r20
 22369 8106 5093 0000 		sts (percentDiskUsed)+3,r21
 22370               	.LM2383:
 22371 810a 1092 0000 		sts okToGetRemainingSpace,__zero_reg__
 22372               	.L1295:
 22373               	.LM2384:
 22374 810e 8091 0000 		lds r24,okToEraseFile
 22375 8112 8823      		tst r24
 22376 8114 01F0      		breq .L1298
 22377               	.LM2385:
 22378 8116 80E0      		ldi r24,lo8(fileToErase)
 22379 8118 90E0      		ldi r25,hi8(fileToErase)
 22380 811a 0E94 0000 		call f_unlink
 22381 811e 8093 0000 		sts eraseFileReturn,r24
 22382               	.LM2386:
 22383 8122 80E0      		ldi r24,lo8(fileToUpload)
 22384 8124 90E0      		ldi r25,hi8(fileToUpload)
 22385 8126 60E0      		ldi r22,lo8(.LC14)
 22386 8128 70E0      		ldi r23,hi8(.LC14)
 22387 812a 0E94 0000 		call strcpy
 22388               	.LM2387:
 22389 812e 1092 0000 		sts okToEraseFile,__zero_reg__
 22390               	.L1298:
 22391               	/* epilogue start */
 22392               	.LM2388:
 22393 8132 0F90      		pop __tmp_reg__
 22394 8134 0F90      		pop __tmp_reg__
 22395 8136 CF91      		pop r28
 22396 8138 DF91      		pop r29
 22397 813a FF91      		pop r31
 22398 813c EF91      		pop r30
 22399 813e BF91      		pop r27
 22400 8140 AF91      		pop r26
 22401 8142 9F91      		pop r25
 22402 8144 8F91      		pop r24
 22403 8146 7F91      		pop r23
 22404 8148 6F91      		pop r22
 22405 814a 5F91      		pop r21
 22406 814c 4F91      		pop r20
 22407 814e 3F91      		pop r19
 22408 8150 2F91      		pop r18
 22409 8152 1F91      		pop r17
 22410 8154 0F91      		pop r16
 22411 8156 FF90      		pop r15
 22412 8158 EF90      		pop r14
 22413 815a 0F90      		pop r0
 22414 815c 0BBE      		out 59-0,r0
 22415 815e 0F90      		pop r0
 22416 8160 0FBE      		out __SREG__,r0
 22417 8162 0F90      		pop r0
 22418 8164 1F90      		pop __zero_reg__
 22419 8166 1895      		reti
 22420               	.LFE151:
 22422               		.data
 22423               	.LC33:
 22424 0246 2F63 6F6E 		.string	"/config.txt"
 22424      6669 672E 
 22424      7478 7400 
 22425               	.LC34:
 22426 0252 7373 6964 		.string	"ssid"
 22426      00
 22427               	.LC35:
 22428 0257 3D00      		.string	"="
 22429               	.LC36:
 22430 0259 7068 7261 		.string	"phrase"
 22430      7365 00
 22431               	.LC37:
 22432 0260 6B65 7900 		.string	"key"
 22433               	.LC38:
 22434 0264 706F 7274 		.string	"port"
 22434      00
 22435               	.LC39:
 22436 0269 6175 7468 		.string	"auth"
 22436      00
 22437               	.LC40:
 22438 026e 7573 6572 		.string	"user"
 22438      00
 22439               	.LC41:
 22440 0273 6E69 636B 		.string	"nickname"
 22440      6E61 6D65 
 22440      00
 22441               	.LC42:
 22442 027c 7365 7276 		.string	"server"
 22442      6572 00
 22443               	.LC43:
 22444 0283 6461 796C 		.string	"daylightTime"
 22444      6967 6874 
 22444      5469 6D65 
 22444      00
 22445               	.LC44:
 22446 0290 6465 6D6F 		.string	"demoMode"
 22446      4D6F 6465 
 22446      00
 22447               	.LC45:
 22448 0299 7265 636F 		.string	"recordFast"
 22448      7264 4661 
 22448      7374 00
 22449               	.LC46:
 22450 02a4 7A6F 6E65 		.string	"zone"
 22450      00
 22451               	.LC47:
 22452 02a9 4553 5400 		.string	"EST"
 22453               	.LC48:
 22454 02ad 4353 5400 		.string	"CST"
 22455               	.LC49:
 22456 02b1 4D53 5400 		.string	"MST"
 22457               	.LC50:
 22458 02b5 5053 5400 		.string	"PST"
 22459               	.LC51:
 22460 02b9 2000      		.string	" "
 22461               	.LC52:
 22462 02bb 7472 7565 		.string	"true"
 22462      00
 22463               		.text
 22464               	.global	SD_Read_config_file
 22466               	SD_Read_config_file:
 22467               	.LFB100:
 22468               	.LM2389:
 22469 8168 AF92      		push r10
 22470 816a BF92      		push r11
 22471 816c CF92      		push r12
 22472 816e DF92      		push r13
 22473 8170 EF92      		push r14
 22474 8172 FF92      		push r15
 22475 8174 0F93      		push r16
 22476 8176 1F93      		push r17
 22477 8178 DF93      		push r29
 22478 817a CF93      		push r28
 22479 817c CDB7      		in r28,__SP_L__
 22480 817e DEB7      		in r29,__SP_H__
 22481 8180 E297      		sbiw r28,50
 22482 8182 CDBF      		out __SP_L__,r28
 22483 8184 DEBF      		out __SP_H__,r29
 22484               	/* prologue: function */
 22485               	/* frame size = 50 */
 22486               	.LM2390:
 22487 8186 80E0      		ldi r24,lo8(.LC33)
 22488 8188 90E0      		ldi r25,hi8(.LC33)
 22489 818a 0E94 0000 		call SD_Open
 22490               	.LM2391:
 22491 818e 80E0      		ldi r24,lo8(Log_File)
 22492 8190 90E0      		ldi r25,hi8(Log_File)
 22493 8192 40E0      		ldi r20,lo8(0)
 22494 8194 50E0      		ldi r21,hi8(0)
 22495 8196 60E0      		ldi r22,hlo8(0)
 22496 8198 70E0      		ldi r23,hhi8(0)
 22497 819a 0E94 0000 		call f_lseek
 22498               	.LM2392:
 22499 819e 8E01      		movw r16,r28
 22500 81a0 0F5F      		subi r16,lo8(-(1))
 22501 81a2 1F4F      		sbci r17,hi8(-(1))
 22502               	.LM2393:
 22503 81a4 F0E0      		ldi r31,lo8(zone)
 22504 81a6 EF2E      		mov r14,r31
 22505 81a8 F0E0      		ldi r31,hi8(zone)
 22506 81aa FF2E      		mov r15,r31
 22507               	.LM2394:
 22508 81ac E0E0      		ldi r30,lo8(nickname)
 22509 81ae CE2E      		mov r12,r30
 22510 81b0 E0E0      		ldi r30,hi8(nickname)
 22511 81b2 DE2E      		mov r13,r30
 22512               	.LM2395:
 22513 81b4 70E0      		ldi r23,lo8(user)
 22514 81b6 A72E      		mov r10,r23
 22515 81b8 70E0      		ldi r23,hi8(user)
 22516 81ba B72E      		mov r11,r23
 22517               	.LVL1580:
 22518               	.L1334:
 22519               	.LM2396:
 22520 81bc C801      		movw r24,r16
 22521 81be 62E3      		ldi r22,lo8(50)
 22522 81c0 70E0      		ldi r23,hi8(50)
 22523 81c2 40E0      		ldi r20,lo8(Log_File)
 22524 81c4 50E0      		ldi r21,hi8(Log_File)
 22525 81c6 0E94 0000 		call f_gets
 22526               	.LVL1581:
 22527               	.LM2397:
 22528 81ca 8981      		ldd r24,Y+1
 22529 81cc 8823      		tst r24
 22530 81ce 01F4      		brne .+2
 22531 81d0 00C0      		rjmp .L1302
 22532               	.LM2398:
 22533 81d2 C801      		movw r24,r16
 22534 81d4 60E0      		ldi r22,lo8(.LC34)
 22535 81d6 70E0      		ldi r23,hi8(.LC34)
 22536 81d8 0E94 0000 		call strstr
 22537 81dc 0097      		sbiw r24,0
 22538 81de 01F0      		breq .L1303
 22539               	.LM2399:
 22540 81e0 C801      		movw r24,r16
 22541 81e2 60E0      		ldi r22,lo8(.LC35)
 22542 81e4 70E0      		ldi r23,hi8(.LC35)
 22543 81e6 0E94 0000 		call strtok
 22544               	.LM2400:
 22545 81ea 80E0      		ldi r24,lo8(0)
 22546 81ec 90E0      		ldi r25,hi8(0)
 22547 81ee 60E0      		ldi r22,lo8(.LC35)
 22548 81f0 70E0      		ldi r23,hi8(.LC35)
 22549 81f2 0E94 0000 		call strtok
 22550 81f6 BC01      		movw r22,r24
 22551 81f8 80E0      		ldi r24,lo8(ssid)
 22552 81fa 90E0      		ldi r25,hi8(ssid)
 22553 81fc 0E94 0000 		call strcpy
 22554               	.LM2401:
 22555 8200 81E0      		ldi r24,lo8(1)
 22556 8202 8093 0000 		sts ssidRead,r24
 22557 8206 00C0      		rjmp .L1334
 22558               	.L1303:
 22559               	.LM2402:
 22560 8208 C801      		movw r24,r16
 22561 820a 60E0      		ldi r22,lo8(.LC36)
 22562 820c 70E0      		ldi r23,hi8(.LC36)
 22563 820e 0E94 0000 		call strstr
 22564 8212 0097      		sbiw r24,0
 22565 8214 01F0      		breq .L1305
 22566               	.LM2403:
 22567 8216 C801      		movw r24,r16
 22568 8218 60E0      		ldi r22,lo8(.LC35)
 22569 821a 70E0      		ldi r23,hi8(.LC35)
 22570 821c 0E94 0000 		call strtok
 22571               	.LM2404:
 22572 8220 80E0      		ldi r24,lo8(0)
 22573 8222 90E0      		ldi r25,hi8(0)
 22574 8224 60E0      		ldi r22,lo8(.LC35)
 22575 8226 70E0      		ldi r23,hi8(.LC35)
 22576 8228 0E94 0000 		call strtok
 22577 822c BC01      		movw r22,r24
 22578 822e 80E0      		ldi r24,lo8(phrase)
 22579 8230 90E0      		ldi r25,hi8(phrase)
 22580 8232 0E94 0000 		call strcpy
 22581               	.LM2405:
 22582 8236 81E0      		ldi r24,lo8(1)
 22583 8238 8093 0000 		sts phraseRead,r24
 22584 823c 00C0      		rjmp .L1334
 22585               	.L1305:
 22586               	.LM2406:
 22587 823e C801      		movw r24,r16
 22588 8240 60E0      		ldi r22,lo8(.LC37)
 22589 8242 70E0      		ldi r23,hi8(.LC37)
 22590 8244 0E94 0000 		call strstr
 22591 8248 0097      		sbiw r24,0
 22592 824a 01F0      		breq .L1306
 22593               	.LM2407:
 22594 824c C801      		movw r24,r16
 22595 824e 60E0      		ldi r22,lo8(.LC35)
 22596 8250 70E0      		ldi r23,hi8(.LC35)
 22597 8252 0E94 0000 		call strtok
 22598               	.LM2408:
 22599 8256 80E0      		ldi r24,lo8(0)
 22600 8258 90E0      		ldi r25,hi8(0)
 22601 825a 60E0      		ldi r22,lo8(.LC35)
 22602 825c 70E0      		ldi r23,hi8(.LC35)
 22603 825e 0E94 0000 		call strtok
 22604 8262 BC01      		movw r22,r24
 22605 8264 80E0      		ldi r24,lo8(key)
 22606 8266 90E0      		ldi r25,hi8(key)
 22607 8268 0E94 0000 		call strcpy
 22608               	.LM2409:
 22609 826c 81E0      		ldi r24,lo8(1)
 22610 826e 8093 0000 		sts keyRead,r24
 22611 8272 00C0      		rjmp .L1334
 22612               	.L1306:
 22613               	.LM2410:
 22614 8274 C801      		movw r24,r16
 22615 8276 60E0      		ldi r22,lo8(.LC38)
 22616 8278 70E0      		ldi r23,hi8(.LC38)
 22617 827a 0E94 0000 		call strstr
 22618 827e 0097      		sbiw r24,0
 22619 8280 01F0      		breq .L1307
 22620               	.LM2411:
 22621 8282 C801      		movw r24,r16
 22622 8284 60E0      		ldi r22,lo8(.LC35)
 22623 8286 70E0      		ldi r23,hi8(.LC35)
 22624 8288 0E94 0000 		call strtok
 22625               	.LM2412:
 22626 828c 80E0      		ldi r24,lo8(0)
 22627 828e 90E0      		ldi r25,hi8(0)
 22628 8290 60E0      		ldi r22,lo8(.LC35)
 22629 8292 70E0      		ldi r23,hi8(.LC35)
 22630 8294 0E94 0000 		call strtok
 22631 8298 BC01      		movw r22,r24
 22632 829a 80E0      		ldi r24,lo8(port)
 22633 829c 90E0      		ldi r25,hi8(port)
 22634 829e 00C0      		rjmp .L1336
 22635               	.L1307:
 22636               	.LM2413:
 22637 82a0 C801      		movw r24,r16
 22638 82a2 60E0      		ldi r22,lo8(.LC39)
 22639 82a4 70E0      		ldi r23,hi8(.LC39)
 22640 82a6 0E94 0000 		call strstr
 22641 82aa 0097      		sbiw r24,0
 22642 82ac 01F0      		breq .L1308
 22643               	.LM2414:
 22644 82ae C801      		movw r24,r16
 22645 82b0 60E0      		ldi r22,lo8(.LC35)
 22646 82b2 70E0      		ldi r23,hi8(.LC35)
 22647 82b4 0E94 0000 		call strtok
 22648               	.LM2415:
 22649 82b8 80E0      		ldi r24,lo8(0)
 22650 82ba 90E0      		ldi r25,hi8(0)
 22651 82bc 60E0      		ldi r22,lo8(.LC35)
 22652 82be 70E0      		ldi r23,hi8(.LC35)
 22653 82c0 0E94 0000 		call strtok
 22654 82c4 BC01      		movw r22,r24
 22655 82c6 80E0      		ldi r24,lo8(auth)
 22656 82c8 90E0      		ldi r25,hi8(auth)
 22657 82ca 0E94 0000 		call strcpy
 22658               	.LM2416:
 22659 82ce 81E0      		ldi r24,lo8(1)
 22660 82d0 8093 0000 		sts authRead,r24
 22661 82d4 00C0      		rjmp .L1334
 22662               	.L1308:
 22663               	.LM2417:
 22664 82d6 C801      		movw r24,r16
 22665 82d8 60E0      		ldi r22,lo8(.LC40)
 22666 82da 70E0      		ldi r23,hi8(.LC40)
 22667 82dc 0E94 0000 		call strstr
 22668 82e0 0097      		sbiw r24,0
 22669 82e2 01F0      		breq .L1309
 22670               	.LM2418:
 22671 82e4 C801      		movw r24,r16
 22672 82e6 60E0      		ldi r22,lo8(.LC35)
 22673 82e8 70E0      		ldi r23,hi8(.LC35)
 22674 82ea 0E94 0000 		call strtok
 22675               	.LM2419:
 22676 82ee 80E0      		ldi r24,lo8(0)
 22677 82f0 90E0      		ldi r25,hi8(0)
 22678 82f2 60E0      		ldi r22,lo8(.LC35)
 22679 82f4 70E0      		ldi r23,hi8(.LC35)
 22680 82f6 0E94 0000 		call strtok
 22681 82fa BC01      		movw r22,r24
 22682 82fc 80E0      		ldi r24,lo8(user)
 22683 82fe 90E0      		ldi r25,hi8(user)
 22684 8300 0E94 0000 		call strcpy
 22685               	.LBB933:
 22686               	.LM2420:
 22687 8304 F501      		movw r30,r10
 22688 8306 0190      		ld __tmp_reg__,Z+
 22689 8308 0020      		tst __tmp_reg__
 22690 830a 01F4      		brne .-6
 22691 830c 3197      		sbiw r30,1
 22692 830e E050      		subi r30,lo8(user)
 22693 8310 F040      		sbci r31,hi8(user)
 22694 8312 20E0      		ldi r18,lo8(0)
 22695               	.LVL1582:
 22696 8314 00C0      		rjmp .L1310
 22697               	.LVL1583:
 22698               	.L1312:
 22699               	.LM2421:
 22700 8316 DC01      		movw r26,r24
 22701 8318 A050      		subi r26,lo8(-(user))
 22702 831a B040      		sbci r27,hi8(-(user))
 22703 831c 8C91      		ld r24,X
 22704               	.LVL1584:
 22705 831e 8032      		cpi r24,lo8(32)
 22706 8320 00F0      		brlo .L1337
 22707               	.L1311:
 22708               	.LM2422:
 22709 8322 2F5F      		subi r18,lo8(-(1))
 22710               	.L1310:
 22711 8324 822F      		mov r24,r18
 22712 8326 90E0      		ldi r25,lo8(0)
 22713 8328 8E17      		cp r24,r30
 22714 832a 9F07      		cpc r25,r31
 22715 832c 00F0      		brlo .L1312
 22716               	.LVL1585:
 22717 832e 00C0      		rjmp .L1334
 22718               	.LVL1586:
 22719               	.L1309:
 22720               	.LBE933:
 22721               	.LM2423:
 22722 8330 C801      		movw r24,r16
 22723 8332 60E0      		ldi r22,lo8(.LC41)
 22724 8334 70E0      		ldi r23,hi8(.LC41)
 22725 8336 0E94 0000 		call strstr
 22726 833a 0097      		sbiw r24,0
 22727 833c 01F0      		breq .L1313
 22728               	.LM2424:
 22729 833e C801      		movw r24,r16
 22730 8340 60E0      		ldi r22,lo8(.LC35)
 22731 8342 70E0      		ldi r23,hi8(.LC35)
 22732 8344 0E94 0000 		call strtok
 22733               	.LM2425:
 22734 8348 80E0      		ldi r24,lo8(0)
 22735 834a 90E0      		ldi r25,hi8(0)
 22736 834c 60E0      		ldi r22,lo8(.LC35)
 22737 834e 70E0      		ldi r23,hi8(.LC35)
 22738 8350 0E94 0000 		call strtok
 22739 8354 BC01      		movw r22,r24
 22740 8356 80E0      		ldi r24,lo8(nickname)
 22741 8358 90E0      		ldi r25,hi8(nickname)
 22742 835a 0E94 0000 		call strcpy
 22743               	.LBB934:
 22744               	.LM2426:
 22745 835e F601      		movw r30,r12
 22746 8360 0190      		ld __tmp_reg__,Z+
 22747 8362 0020      		tst __tmp_reg__
 22748 8364 01F4      		brne .-6
 22749 8366 3197      		sbiw r30,1
 22750 8368 E050      		subi r30,lo8(nickname)
 22751 836a F040      		sbci r31,hi8(nickname)
 22752 836c 20E0      		ldi r18,lo8(0)
 22753               	.LVL1587:
 22754 836e 00C0      		rjmp .L1314
 22755               	.LVL1588:
 22756               	.L1316:
 22757               	.LM2427:
 22758 8370 DC01      		movw r26,r24
 22759 8372 A050      		subi r26,lo8(-(nickname))
 22760 8374 B040      		sbci r27,hi8(-(nickname))
 22761 8376 8C91      		ld r24,X
 22762               	.LVL1589:
 22763 8378 8032      		cpi r24,lo8(32)
 22764 837a 00F4      		brsh .L1315
 22765               	.LVL1590:
 22766               	.L1337:
 22767               	.LM2428:
 22768 837c 1C92      		st X,__zero_reg__
 22769 837e 00C0      		rjmp .L1334
 22770               	.LVL1591:
 22771               	.L1315:
 22772               	.LM2429:
 22773 8380 2F5F      		subi r18,lo8(-(1))
 22774               	.L1314:
 22775 8382 822F      		mov r24,r18
 22776 8384 90E0      		ldi r25,lo8(0)
 22777 8386 8E17      		cp r24,r30
 22778 8388 9F07      		cpc r25,r31
 22779 838a 00F0      		brlo .L1316
 22780               	.LVL1592:
 22781 838c 00C0      		rjmp .L1334
 22782               	.LVL1593:
 22783               	.L1313:
 22784               	.LBE934:
 22785               	.LM2430:
 22786 838e C801      		movw r24,r16
 22787 8390 60E0      		ldi r22,lo8(.LC42)
 22788 8392 70E0      		ldi r23,hi8(.LC42)
 22789 8394 0E94 0000 		call strstr
 22790 8398 0097      		sbiw r24,0
 22791 839a 01F0      		breq .L1317
 22792               	.LM2431:
 22793 839c C801      		movw r24,r16
 22794 839e 60E0      		ldi r22,lo8(.LC35)
 22795 83a0 70E0      		ldi r23,hi8(.LC35)
 22796 83a2 0E94 0000 		call strtok
 22797               	.LM2432:
 22798 83a6 80E0      		ldi r24,lo8(0)
 22799 83a8 90E0      		ldi r25,hi8(0)
 22800 83aa 60E0      		ldi r22,lo8(.LC35)
 22801 83ac 70E0      		ldi r23,hi8(.LC35)
 22802 83ae 0E94 0000 		call strtok
 22803 83b2 BC01      		movw r22,r24
 22804 83b4 80E0      		ldi r24,lo8(server)
 22805 83b6 90E0      		ldi r25,hi8(server)
 22806               	.L1336:
 22807 83b8 0E94 0000 		call strcpy
 22808 83bc 00C0      		rjmp .L1334
 22809               	.L1317:
 22810               	.LM2433:
 22811 83be C801      		movw r24,r16
 22812 83c0 60E0      		ldi r22,lo8(.LC43)
 22813 83c2 70E0      		ldi r23,hi8(.LC43)
 22814 83c4 0E94 0000 		call strstr
 22815 83c8 0097      		sbiw r24,0
 22816 83ca 01F0      		breq .L1318
 22817               	.LM2434:
 22818 83cc C801      		movw r24,r16
 22819 83ce 60E0      		ldi r22,lo8(.LC35)
 22820 83d0 70E0      		ldi r23,hi8(.LC35)
 22821 83d2 0E94 0000 		call strtok
 22822               	.LM2435:
 22823 83d6 80E0      		ldi r24,lo8(0)
 22824 83d8 90E0      		ldi r25,hi8(0)
 22825 83da 60E0      		ldi r22,lo8(.LC35)
 22826 83dc 70E0      		ldi r23,hi8(.LC35)
 22827 83de 0E94 0000 		call strtok
 22828 83e2 BC01      		movw r22,r24
 22829 83e4 80E0      		ldi r24,lo8(daylightTime)
 22830 83e6 90E0      		ldi r25,hi8(daylightTime)
 22831 83e8 00C0      		rjmp .L1336
 22832               	.L1318:
 22833               	.LM2436:
 22834 83ea C801      		movw r24,r16
 22835 83ec 60E0      		ldi r22,lo8(.LC44)
 22836 83ee 70E0      		ldi r23,hi8(.LC44)
 22837 83f0 0E94 0000 		call strstr
 22838 83f4 0097      		sbiw r24,0
 22839 83f6 01F0      		breq .L1319
 22840               	.LM2437:
 22841 83f8 C801      		movw r24,r16
 22842 83fa 60E0      		ldi r22,lo8(.LC35)
 22843 83fc 70E0      		ldi r23,hi8(.LC35)
 22844 83fe 0E94 0000 		call strtok
 22845               	.LM2438:
 22846 8402 80E0      		ldi r24,lo8(0)
 22847 8404 90E0      		ldi r25,hi8(0)
 22848 8406 60E0      		ldi r22,lo8(.LC35)
 22849 8408 70E0      		ldi r23,hi8(.LC35)
 22850 840a 0E94 0000 		call strtok
 22851 840e BC01      		movw r22,r24
 22852 8410 80E0      		ldi r24,lo8(demoModeString)
 22853 8412 90E0      		ldi r25,hi8(demoModeString)
 22854 8414 00C0      		rjmp .L1336
 22855               	.L1319:
 22856               	.LM2439:
 22857 8416 C801      		movw r24,r16
 22858 8418 60E0      		ldi r22,lo8(.LC45)
 22859 841a 70E0      		ldi r23,hi8(.LC45)
 22860 841c 0E94 0000 		call strstr
 22861 8420 0097      		sbiw r24,0
 22862 8422 01F0      		breq .L1320
 22863               	.LM2440:
 22864 8424 C801      		movw r24,r16
 22865 8426 60E0      		ldi r22,lo8(.LC35)
 22866 8428 70E0      		ldi r23,hi8(.LC35)
 22867 842a 0E94 0000 		call strtok
 22868               	.LM2441:
 22869 842e 80E0      		ldi r24,lo8(0)
 22870 8430 90E0      		ldi r25,hi8(0)
 22871 8432 60E0      		ldi r22,lo8(.LC35)
 22872 8434 70E0      		ldi r23,hi8(.LC35)
 22873 8436 0E94 0000 		call strtok
 22874 843a BC01      		movw r22,r24
 22875 843c 80E0      		ldi r24,lo8(fastString)
 22876 843e 90E0      		ldi r25,hi8(fastString)
 22877 8440 00C0      		rjmp .L1336
 22878               	.L1320:
 22879               	.LM2442:
 22880 8442 C801      		movw r24,r16
 22881 8444 60E0      		ldi r22,lo8(.LC46)
 22882 8446 70E0      		ldi r23,hi8(.LC46)
 22883 8448 0E94 0000 		call strstr
 22884 844c 0097      		sbiw r24,0
 22885 844e 01F4      		brne .+2
 22886 8450 00C0      		rjmp .L1334
 22887               	.LM2443:
 22888 8452 C801      		movw r24,r16
 22889 8454 60E0      		ldi r22,lo8(.LC35)
 22890 8456 70E0      		ldi r23,hi8(.LC35)
 22891 8458 0E94 0000 		call strtok
 22892               	.LM2444:
 22893 845c 80E0      		ldi r24,lo8(0)
 22894 845e 90E0      		ldi r25,hi8(0)
 22895 8460 60E0      		ldi r22,lo8(.LC35)
 22896 8462 70E0      		ldi r23,hi8(.LC35)
 22897 8464 0E94 0000 		call strtok
 22898 8468 BC01      		movw r22,r24
 22899 846a 80E0      		ldi r24,lo8(zone)
 22900 846c 90E0      		ldi r25,hi8(zone)
 22901 846e 44E0      		ldi r20,lo8(4)
 22902 8470 50E0      		ldi r21,hi8(4)
 22903 8472 0E94 0000 		call memmove
 22904 8476 20E0      		ldi r18,lo8(0)
 22905               	.LVL1594:
 22906 8478 00C0      		rjmp .L1321
 22907               	.LVL1595:
 22908               	.L1323:
 22909               	.LBB935:
 22910               	.LM2445:
 22911 847a FC01      		movw r30,r24
 22912 847c E050      		subi r30,lo8(-(zone))
 22913 847e F040      		sbci r31,hi8(-(zone))
 22914 8480 8081      		ld r24,Z
 22915               	.LVL1596:
 22916 8482 8032      		cpi r24,lo8(32)
 22917 8484 00F4      		brsh .L1322
 22918               	.LM2446:
 22919 8486 1082      		st Z,__zero_reg__
 22920               	.L1322:
 22921               	.LM2447:
 22922 8488 2F5F      		subi r18,lo8(-(1))
 22923               	.L1321:
 22924 848a F701      		movw r30,r14
 22925 848c 0190      		ld __tmp_reg__,Z+
 22926 848e 0020      		tst __tmp_reg__
 22927 8490 01F4      		brne .-6
 22928 8492 3197      		sbiw r30,1
 22929 8494 E050      		subi r30,lo8(zone)
 22930 8496 F040      		sbci r31,hi8(zone)
 22931 8498 822F      		mov r24,r18
 22932 849a 90E0      		ldi r25,lo8(0)
 22933 849c 8E17      		cp r24,r30
 22934 849e 9F07      		cpc r25,r31
 22935 84a0 00F0      		brlo .L1323
 22936               	.LVL1597:
 22937               	.LBE935:
 22938               	.LM2448:
 22939 84a2 80E0      		ldi r24,lo8(zone)
 22940 84a4 90E0      		ldi r25,hi8(zone)
 22941               	.LVL1598:
 22942 84a6 60E0      		ldi r22,lo8(.LC47)
 22943 84a8 70E0      		ldi r23,hi8(.LC47)
 22944 84aa 0E94 0000 		call strcmp
 22945               	.LVL1599:
 22946 84ae 0097      		sbiw r24,0
 22947 84b0 01F4      		brne .L1324
 22948               	.LM2449:
 22949 84b2 85E0      		ldi r24,lo8(5)
 22950 84b4 00C0      		rjmp .L1335
 22951               	.L1324:
 22952               	.LM2450:
 22953 84b6 80E0      		ldi r24,lo8(zone)
 22954 84b8 90E0      		ldi r25,hi8(zone)
 22955 84ba 60E0      		ldi r22,lo8(.LC48)
 22956 84bc 70E0      		ldi r23,hi8(.LC48)
 22957 84be 0E94 0000 		call strcmp
 22958 84c2 0097      		sbiw r24,0
 22959 84c4 01F4      		brne .L1325
 22960               	.LM2451:
 22961 84c6 86E0      		ldi r24,lo8(6)
 22962 84c8 00C0      		rjmp .L1335
 22963               	.L1325:
 22964               	.LM2452:
 22965 84ca 80E0      		ldi r24,lo8(zone)
 22966 84cc 90E0      		ldi r25,hi8(zone)
 22967 84ce 60E0      		ldi r22,lo8(.LC49)
 22968 84d0 70E0      		ldi r23,hi8(.LC49)
 22969 84d2 0E94 0000 		call strcmp
 22970 84d6 0097      		sbiw r24,0
 22971 84d8 01F4      		brne .L1326
 22972               	.LM2453:
 22973 84da 87E0      		ldi r24,lo8(7)
 22974 84dc 00C0      		rjmp .L1335
 22975               	.L1326:
 22976               	.LM2454:
 22977 84de 80E0      		ldi r24,lo8(zone)
 22978 84e0 90E0      		ldi r25,hi8(zone)
 22979 84e2 60E0      		ldi r22,lo8(.LC50)
 22980 84e4 70E0      		ldi r23,hi8(.LC50)
 22981 84e6 0E94 0000 		call strcmp
 22982 84ea 0097      		sbiw r24,0
 22983 84ec 01F0      		breq .+2
 22984 84ee 00C0      		rjmp .L1334
 22985               	.LM2455:
 22986 84f0 88E0      		ldi r24,lo8(8)
 22987               	.L1335:
 22988 84f2 8093 0000 		sts timeZoneShift,r24
 22989               	.LM2456:
 22990 84f6 81E0      		ldi r24,lo8(1)
 22991 84f8 8093 0000 		sts zoneChanged,r24
 22992 84fc 00C0      		rjmp .L1334
 22993               	.L1302:
 22994               	.LM2457:
 22995 84fe E0E0      		ldi r30,lo8(server)
 22996 8500 F0E0      		ldi r31,hi8(server)
 22997 8502 0190      		ld __tmp_reg__,Z+
 22998 8504 0020      		tst __tmp_reg__
 22999 8506 01F4      		brne .-6
 23000 8508 3297      		sbiw r30,2
 23001 850a 8081      		ld r24,Z
 23002 850c 8032      		cpi r24,lo8(32)
 23003 850e 00F4      		brsh .L1327
 23004               	.LM2458:
 23005 8510 1082      		st Z,__zero_reg__
 23006               	.L1327:
 23007               	.LM2459:
 23008 8512 80E0      		ldi r24,lo8(serverOpenCommand)
 23009 8514 90E0      		ldi r25,hi8(serverOpenCommand)
 23010 8516 60E0      		ldi r22,lo8(server)
 23011 8518 70E0      		ldi r23,hi8(server)
 23012 851a 0E94 0000 		call strcat
 23013               	.LM2460:
 23014 851e 80E0      		ldi r24,lo8(serverOpenCommand)
 23015 8520 90E0      		ldi r25,hi8(serverOpenCommand)
 23016 8522 60E0      		ldi r22,lo8(.LC51)
 23017 8524 70E0      		ldi r23,hi8(.LC51)
 23018 8526 0E94 0000 		call strcat
 23019               	.LM2461:
 23020 852a 80E0      		ldi r24,lo8(serverOpenCommand)
 23021 852c 90E0      		ldi r25,hi8(serverOpenCommand)
 23022 852e 60E0      		ldi r22,lo8(port)
 23023 8530 70E0      		ldi r23,hi8(port)
 23024 8532 0E94 0000 		call strcat
 23025               	.LM2462:
 23026 8536 80E0      		ldi r24,lo8(daylightTime)
 23027 8538 90E0      		ldi r25,hi8(daylightTime)
 23028 853a 60E0      		ldi r22,lo8(.LC52)
 23029 853c 70E0      		ldi r23,hi8(.LC52)
 23030 853e 0E94 0000 		call strstr
 23031 8542 0097      		sbiw r24,0
 23032 8544 01F0      		breq .L1328
 23033 8546 8091 0000 		lds r24,zoneChanged
 23034 854a 8823      		tst r24
 23035 854c 01F0      		breq .L1328
 23036               	.LM2463:
 23037 854e 8091 0000 		lds r24,timeZoneShift
 23038 8552 8150      		subi r24,lo8(-(-1))
 23039 8554 8093 0000 		sts timeZoneShift,r24
 23040               	.L1328:
 23041               	.LM2464:
 23042 8558 80E0      		ldi r24,lo8(demoModeString)
 23043 855a 90E0      		ldi r25,hi8(demoModeString)
 23044 855c 60E0      		ldi r22,lo8(.LC52)
 23045 855e 70E0      		ldi r23,hi8(.LC52)
 23046 8560 0E94 0000 		call strstr
 23047 8564 0097      		sbiw r24,0
 23048 8566 01F0      		breq .L1329
 23049               	.LM2465:
 23050 8568 81E0      		ldi r24,lo8(1)
 23051 856a 8093 0000 		sts demoMode,r24
 23052               	.L1329:
 23053               	.LM2466:
 23054 856e 80E0      		ldi r24,lo8(fastString)
 23055 8570 90E0      		ldi r25,hi8(fastString)
 23056 8572 60E0      		ldi r22,lo8(.LC52)
 23057 8574 70E0      		ldi r23,hi8(.LC52)
 23058 8576 0E94 0000 		call strstr
 23059 857a 0097      		sbiw r24,0
 23060 857c 01F0      		breq .L1331
 23061               	.LM2467:
 23062 857e 81E0      		ldi r24,lo8(1)
 23063 8580 8093 0000 		sts wantToRecordFast,r24
 23064               	.L1331:
 23065               	/* epilogue start */
 23066               	.LM2468:
 23067 8584 E296      		adiw r28,50
 23068 8586 CDBF      		out __SP_L__,r28
 23069 8588 DEBF      		out __SP_H__,r29
 23070 858a CF91      		pop r28
 23071 858c DF91      		pop r29
 23072 858e 1F91      		pop r17
 23073 8590 0F91      		pop r16
 23074 8592 FF90      		pop r15
 23075 8594 EF90      		pop r14
 23076 8596 DF90      		pop r13
 23077 8598 CF90      		pop r12
 23078 859a BF90      		pop r11
 23079 859c AF90      		pop r10
 23080 859e 0895      		ret
 23081               	.LFE100:
 23083               	.global	main
 23085               	main:
 23086               	.LFB141:
 23087               	.LM2469:
 23088 85a0 FF92      		push r15
 23089 85a2 0F93      		push r16
 23090 85a4 1F93      		push r17
 23091 85a6 DF93      		push r29
 23092 85a8 CF93      		push r28
 23093 85aa 0F92      		push __tmp_reg__
 23094 85ac CDB7      		in r28,__SP_L__
 23095 85ae DEB7      		in r29,__SP_H__
 23096               	/* prologue: function */
 23097               	/* frame size = 1 */
 23098               	.LM2470:
 23099 85b0 0E94 0000 		call Clock_Init
 23100               	.LBB936:
 23101               	.LBB937:
 23102               	.LBB938:
 23103               	.LBB939:
 23104               	.LM2471:
 23105 85b4 8FB7      		in r24,__SREG__
 23106 85b6 8983      		std Y+1,r24
 23107               	.LVL1600:
 23108               	.LM2472:
 23109               	/* #APP */
 23110               	 ;  78 "mainChestStrap.h" 1
 23111 85b8 F894      		cli
 23112               	 ;  0 "" 2
 23113               	.LM2473:
 23114               	/* #NOAPP */
 23115 85ba 1BBE      		out 59-0,__zero_reg__
 23116               	.LM2474:
 23117 85bc 11E0      		ldi r17,lo8(1)
 23118 85be 86E9      		ldi r24,lo8(150)
 23119 85c0 90E0      		ldi r25,hi8(150)
 23120               	/* #APP */
 23121               	 ;  100 "mainChestStrap.h" 1
 23122 85c2 FC01      		movw r30,  r24
 23123 85c4 08ED      		ldi  r16,  216
 23124 85c6 04BF      		out   52, r16
 23125 85c8 1083      		st     Z,  r17
 23126               		
 23127               	 ;  0 "" 2
 23128               	.LM2475:
 23129               	/* #NOAPP */
 23130 85ca 8981      		ldd r24,Y+1
 23131 85cc 8FBF      		out __SREG__,r24
 23132               	.LBE939:
 23133               	.LBE938:
 23134               	.LBE937:
 23135               	.LBE936:
 23136               	.LM2476:
 23137 85ce 0E94 0000 		call getDeviceID
 23138               	.LM2477:
 23139 85d2 0E94 0000 		call Time_Init
 23140               	.LM2478:
 23141 85d6 0E94 0000 		call Sensors_Init
 23142               	.LM2479:
 23143 85da 60E0      		ldi r22,lo8(460800)
 23144 85dc 78E0      		ldi r23,hi8(460800)
 23145 85de 87E0      		ldi r24,hlo8(460800)
 23146 85e0 90E0      		ldi r25,hhi8(460800)
 23147 85e2 0E94 0000 		call Debug_Init
 23148               	.LM2480:
 23149 85e6 86E0      		ldi r24,lo8(6)
 23150 85e8 61E0      		ldi r22,lo8(1)
 23151 85ea 42E0      		ldi r20,lo8(2)
 23152 85ec 20E0      		ldi r18,lo8(0)
 23153 85ee 03E0      		ldi r16,lo8(3)
 23154 85f0 0E94 0000 		call Button_Init
 23155               	.LM2481:
 23156 85f4 0E94 0000 		call Accel_Init
 23157               	.LBB940:
 23158               	.LBB941:
 23159               	.LM2482:
 23160 85f8 E0EA      		ldi r30,lo8(1696)
 23161 85fa F6E0      		ldi r31,hi8(1696)
 23162 85fc 82E0      		ldi r24,lo8(2)
 23163 85fe 8183      		std Z+1,r24
 23164               	.LBB942:
 23165               	.LBB943:
 23166               	.LM2483:
 23167 8600 1092 0000 		sts ledState+1,__zero_reg__
 23168               	.LBE943:
 23169               	.LBE942:
 23170               	.LBE941:
 23171               	.LBE940:
 23172               	.LBB944:
 23173               	.LBB945:
 23174               	.LM2484:
 23175 8604 1183      		std Z+1,r17
 23176               	.LBB946:
 23177               	.LBB947:
 23178               	.LM2485:
 23179 8606 1092 0000 		sts ledState,__zero_reg__
 23180               	.LBE947:
 23181               	.LBE946:
 23182               	.LBE945:
 23183               	.LBE944:
 23184               	.LM2486:
 23185 860a 0E94 0000 		call GUI_Init
 23186               	.LM2487:
 23187 860e 0E94 0000 		call SD_BackroundWriter_Init
 23188               	.LM2488:
 23189 8612 0E94 0000 		call SD_Init
 23190               	.LBB948:
 23191               	.LBB949:
 23192               	.LM2489:
 23193 8616 8091 A200 		lds r24,162
 23194 861a 8760      		ori r24,lo8(7)
 23195 861c E0EA      		ldi r30,lo8(160)
 23196 861e F0E0      		ldi r31,hi8(160)
 23197 8620 8283      		std Z+2,r24
 23198               	.LM2490:
 23199               	/* #APP */
 23200               	 ;  179 "mainChestStrap.c" 1
 23201 8622 7894      		sei
 23202               	 ;  0 "" 2
 23203               	/* #NOAPP */
 23204               	.LBE949:
 23205               	.LBE948:
 23206               	.LM2491:
 23207 8624 0E94 0000 		call Time_CheckVBatSystem
 23208 8628 8823      		tst r24
 23209 862a 01F0      		breq .L1339
 23210               	.LBB950:
 23211               	.LBB951:
 23212               	.LM2492:
 23213 862c 8091 2104 		lds r24,1057
 23214 8630 8061      		ori r24,lo8(16)
 23215 8632 E0E2      		ldi r30,lo8(1056)
 23216 8634 F4E0      		ldi r31,hi8(1056)
 23217 8636 8183      		std Z+1,r24
 23218               	.L1340:
 23219               	.LM2493:
 23220 8638 E0E2      		ldi r30,lo8(1056)
 23221 863a F4E0      		ldi r31,hi8(1056)
 23222 863c 8091 2104 		lds r24,1057
 23223 8640 84FD      		sbrc r24,4
 23224 8642 00C0      		rjmp .L1340
 23225               	.LM2494:
 23226 8644 8091 2404 		lds r24,1060
 23227 8648 9091 2504 		lds r25,(1060)+1
 23228 864c A091 2604 		lds r26,(1060)+2
 23229 8650 B091 2704 		lds r27,(1060)+3
 23230               	.LBE951:
 23231               	.LBE950:
 23232               	.LM2495:
 23233 8654 8154      		subi r24,lo8(1000001)
 23234 8656 9244      		sbci r25,hi8(1000001)
 23235 8658 AF40      		sbci r26,hlo8(1000001)
 23236 865a B040      		sbci r27,hhi8(1000001)
 23237 865c 00F0      		brlo .L1339
 23238               	.LM2496:
 23239 865e 81E0      		ldi r24,lo8(1)
 23240 8660 8093 0000 		sts timeIsValid,r24
 23241               	.LM2497:
 23242 8664 8091 2204 		lds r24,1058
 23243 8668 837F      		andi r24,lo8(-13)
 23244 866a 8460      		ori r24,lo8(4)
 23245 866c 8283      		std Z+2,r24
 23246               	.LBB952:
 23247               	.LBB953:
 23248               	.LM2498:
 23249 866e 8091 2104 		lds r24,1057
 23250 8672 8061      		ori r24,lo8(16)
 23251 8674 8183      		std Z+1,r24
 23252               	.L1341:
 23253               	.LM2499:
 23254 8676 8091 2104 		lds r24,1057
 23255 867a 84FD      		sbrc r24,4
 23256 867c 00C0      		rjmp .L1341
 23257               	.LM2500:
 23258 867e 8091 2404 		lds r24,1060
 23259 8682 9091 2504 		lds r25,(1060)+1
 23260 8686 A091 2604 		lds r26,(1060)+2
 23261 868a B091 2704 		lds r27,(1060)+3
 23262               	.LBE953:
 23263               	.LBE952:
 23264               	.LM2501:
 23265 868e 8093 0000 		sts UNIX_Time,r24
 23266 8692 9093 0000 		sts (UNIX_Time)+1,r25
 23267 8696 A093 0000 		sts (UNIX_Time)+2,r26
 23268 869a B093 0000 		sts (UNIX_Time)+3,r27
 23269 869e 00C0      		rjmp .L1349
 23270               	.L1339:
 23271               	.LM2502:
 23272 86a0 82E0      		ldi r24,lo8(2)
 23273 86a2 8093 F000 		sts 240,r24
 23274               	.LBB954:
 23275               	.LBB955:
 23276               	.LM2503:
 23277 86a6 8FB7      		in r24,__SREG__
 23278 86a8 8983      		std Y+1,r24
 23279               	.LVL1601:
 23280               	.LM2504:
 23281               	/* #APP */
 23282               	 ;  78 "mainChestStrap.h" 1
 23283 86aa F894      		cli
 23284               	 ;  0 "" 2
 23285               	.LM2505:
 23286               	/* #NOAPP */
 23287 86ac 1BBE      		out 59-0,__zero_reg__
 23288               	.LM2506:
 23289 86ae 21E0      		ldi r18,lo8(1)
 23290 86b0 80EF      		ldi r24,lo8(240)
 23291 86b2 90E0      		ldi r25,hi8(240)
 23292               	/* #APP */
 23293               	 ;  100 "mainChestStrap.h" 1
 23294 86b4 FC01      		movw r30,  r24
 23295 86b6 08ED      		ldi  r16,  216
 23296 86b8 04BF      		out   52, r16
 23297 86ba 2083      		st     Z,  r18
 23298               		
 23299               	 ;  0 "" 2
 23300               	.LM2507:
 23301               	/* #NOAPP */
 23302 86bc 8981      		ldd r24,Y+1
 23303 86be 8FBF      		out __SREG__,r24
 23304               	.LBE955:
 23305               	.LBE954:
 23306               	.LM2508:
 23307 86c0 1092 2004 		sts 1056,__zero_reg__
 23308               	.LM2509:
 23309 86c4 E0E2      		ldi r30,lo8(1056)
 23310 86c6 F4E0      		ldi r31,hi8(1056)
 23311 86c8 1282      		std Z+2,__zero_reg__
 23312               	.L1349:
 23313               	.LBB956:
 23314               	.LBB957:
 23315               	.LM2510:
 23316 86ca 8091 0000 		lds r24,sdValid
 23317               	.LBE957:
 23318               	.LBE956:
 23319               	.LM2511:
 23320 86ce 8823      		tst r24
 23321 86d0 01F0      		breq .L1349
 23322 86d2 80E1      		ldi r24,lo8(10000)
 23323 86d4 97E2      		ldi r25,hi8(10000)
 23324               	.LVL1602:
 23325               	.LBB958:
 23326               	.LBB959:
 23327               	.LBB960:
 23328               	.LBB961:
 23329               	.LM2512:
 23330 86d6 20E7      		ldi r18,lo8(368)
 23331 86d8 31E0      		ldi r19,hi8(368)
 23332               	.L1343:
 23333 86da F901      		movw r30,r18
 23334               	.LVL1603:
 23335               	/* #APP */
 23336               	 ;  105 "/usr/local/CrossPack-AVR-20100115/lib/gcc/avr/4.3.3/../../../../avr/include/util/delay_bas
 23337 86dc 3197      		1: sbiw r30,1
 23338 86de 01F4      		brne 1b
 23339               	 ;  0 "" 2
 23340               	/* #NOAPP */
 23341               	.LBE961:
 23342               	.LBE960:
 23343               	.LM2513:
 23344 86e0 0197      		sbiw r24,1
 23345               	.LM2514:
 23346 86e2 01F4      		brne .L1343
 23347               	.LBE959:
 23348               	.LBE958:
 23349               	.LM2515:
 23350 86e4 0E94 0000 		call SD_Read_config_file
 23351               	.LVL1604:
 23352 86e8 28E8      		ldi r18,lo8(5000)
 23353 86ea 33E1      		ldi r19,hi8(5000)
 23354               	.LVL1605:
 23355               	.LM2516:
 23356 86ec FF24      		clr r15
 23357 86ee F394      		inc r15
 23358               	.LBB962:
 23359               	.LBB963:
 23360               	.LBB964:
 23361               	.LBB965:
 23362               	.LM2517:
 23363 86f0 00E7      		ldi r16,lo8(368)
 23364 86f2 11E0      		ldi r17,hi8(368)
 23365 86f4 00C0      		rjmp .L1356
 23366               	.LVL1606:
 23367               	.L1345:
 23368 86f6 C801      		movw r24,r16
 23369               	/* #APP */
 23370               	 ;  105 "/usr/local/CrossPack-AVR-20100115/lib/gcc/avr/4.3.3/../../../../avr/include/util/delay_bas
 23371 86f8 0197      		1: sbiw r24,1
 23372 86fa 01F4      		brne 1b
 23373               	 ;  0 "" 2
 23374               	/* #NOAPP */
 23375               	.LBE965:
 23376               	.LBE964:
 23377               	.LM2518:
 23378 86fc 2150      		subi r18,lo8(-(-1))
 23379 86fe 3040      		sbci r19,hi8(-(-1))
 23380               	.L1356:
 23381               	.LM2519:
 23382 8700 2115      		cp r18,__zero_reg__
 23383 8702 3105      		cpc r19,__zero_reg__
 23384 8704 01F4      		brne .L1345
 23385               	.LBE963:
 23386               	.LBE962:
 23387               	.LM2520:
 23388 8706 1092 0000 		sts connected,__zero_reg__
 23389               	.L1346:
 23390               	.LM2521:
 23391 870a 0E94 0000 		call Uploader_connectToComputer
 23392               	.LVL1607:
 23393 870e 8823      		tst r24
 23394 8710 01F0      		breq .L1346
 23395               	.LM2522:
 23396 8712 F092 0000 		sts connected,r15
 23397               	.L1347:
 23398               	.LM2523:
 23399 8716 0E94 0000 		call Uploader_Update
 23400 871a 8823      		tst r24
 23401 871c 01F4      		brne .L1347
 23402 871e 28E8      		ldi r18,lo8(5000)
 23403 8720 33E1      		ldi r19,hi8(5000)
 23404               	.LVL1608:
 23405 8722 00C0      		rjmp .L1345
 23406               	.LFE141:
 23408               	.global	f_printf
 23410               	f_printf:
 23411               	.LFB87:
 23412               	.LM2524:
 23413               	.LVL1609:
 23414 8724 2F92      		push r2
 23415 8726 3F92      		push r3
 23416 8728 4F92      		push r4
 23417 872a 5F92      		push r5
 23418 872c 6F92      		push r6
 23419 872e 7F92      		push r7
 23420 8730 8F92      		push r8
 23421 8732 9F92      		push r9
 23422 8734 AF92      		push r10
 23423 8736 BF92      		push r11
 23424 8738 CF92      		push r12
 23425 873a DF92      		push r13
 23426 873c EF92      		push r14
 23427 873e FF92      		push r15
 23428 8740 0F93      		push r16
 23429 8742 1F93      		push r17
 23430 8744 DF93      		push r29
 23431 8746 CF93      		push r28
 23432 8748 CDB7      		in r28,__SP_L__
 23433 874a DEB7      		in r29,__SP_H__
 23434 874c 6397      		sbiw r28,19
 23435 874e CDBF      		out __SP_L__,r28
 23436 8750 DEBF      		out __SP_H__,r29
 23437               	/* prologue: function */
 23438               	/* frame size = 19 */
 23439 8752 6BA4      		ldd r6,Y+43
 23440 8754 7CA4      		ldd r7,Y+44
 23441               	.LM2525:
 23442 8756 8E01      		movw r16,r28
 23443               	.LVL1610:
 23444 8758 035D      		subi r16,lo8(-(45))
 23445 875a 1F4F      		sbci r17,hi8(-(45))
 23446 875c 198A      		std Y+17,__zero_reg__
 23447 875e 1A8A      		std Y+18,__zero_reg__
 23448               	.LVL1611:
 23449 8760 20E0      		ldi r18,lo8(0)
 23450 8762 30E0      		ldi r19,hi8(0)
 23451               	.LVL1612:
 23452               	.LVL1613:
 23453               	.L1385:
 23454               	.LM2526:
 23455 8764 D301      		movw r26,r6
 23456 8766 8C91      		ld r24,X
 23457               	.LVL1614:
 23458               	.LM2527:
 23459 8768 8823      		tst r24
 23460 876a 01F4      		brne .+2
 23461 876c 00C0      		rjmp .L1358
 23462               	.LM2528:
 23463 876e 0894      		sec
 23464 8770 611C      		adc r6,__zero_reg__
 23465 8772 711C      		adc r7,__zero_reg__
 23466               	.LM2529:
 23467 8774 8532      		cpi r24,lo8(37)
 23468 8776 01F0      		breq .L1359
 23469               	.LM2530:
 23470 8778 90E0      		ldi r25,lo8(0)
 23471 877a 69A5      		ldd r22,Y+41
 23472 877c 7AA5      		ldd r23,Y+42
 23473 877e 0E94 0000 		call f_putc
 23474               	.LVL1615:
 23475 8782 9C01      		movw r18,r24
 23476               	.LVL1616:
 23477               	.LM2531:
 23478 8784 BFEF      		ldi r27,hi8(-1)
 23479 8786 8F3F      		cpi r24,lo8(-1)
 23480 8788 9B07      		cpc r25,r27
 23481 878a 01F4      		brne .L1360
 23482               	.LVL1617:
 23483 878c 4801      		movw r8,r16
 23484 878e 00C0      		rjmp .L1361
 23485               	.L1360:
 23486 8790 4801      		movw r8,r16
 23487 8792 00C0      		rjmp .L1388
 23488               	.LVL1618:
 23489               	.L1359:
 23490               	.LM2532:
 23491 8794 D301      		movw r26,r6
 23492 8796 ED91      		ld r30,X+
 23493               	.LVL1619:
 23494 8798 3D01      		movw r6,r26
 23495               	.LM2533:
 23496 879a E033      		cpi r30,lo8(48)
 23497 879c 01F0      		breq .L1362
 23498 879e 1B8A      		std Y+19,__zero_reg__
 23499               	.LVL1620:
 23500 87a0 00C0      		rjmp .L1363
 23501               	.L1362:
 23502               	.LM2534:
 23503 87a2 ED91      		ld r30,X+
 23504 87a4 3D01      		movw r6,r26
 23505 87a6 B1E0      		ldi r27,lo8(1)
 23506 87a8 BB8B      		std Y+19,r27
 23507               	.LVL1621:
 23508               	.L1363:
 23509 87aa AA24      		clr r10
 23510 87ac BB24      		clr r11
 23511 87ae 00C0      		rjmp .L1364
 23512               	.L1365:
 23513               	.LM2535:
 23514 87b0 C501      		movw r24,r10
 23515 87b2 53E0      		ldi r21,3
 23516 87b4 880F      	1:	lsl r24
 23517 87b6 991F      		rol r25
 23518 87b8 5A95      		dec r21
 23519 87ba 01F4      		brne 1b
 23520 87bc AA0C      		lsl r10
 23521 87be BB1C      		rol r11
 23522 87c0 A80E      		add r10,r24
 23523 87c2 B91E      		adc r11,r25
 23524 87c4 AE0E      		add r10,r30
 23525 87c6 B11C      		adc r11,__zero_reg__
 23526 87c8 E0ED      		ldi r30,lo8(-48)
 23527 87ca FFEF      		ldi r31,hi8(-48)
 23528               	.LVL1622:
 23529 87cc AE0E      		add r10,r30
 23530 87ce BF1E      		adc r11,r31
 23531               	.LM2536:
 23532 87d0 D301      		movw r26,r6
 23533 87d2 ED91      		ld r30,X+
 23534               	.LVL1623:
 23535 87d4 3D01      		movw r6,r26
 23536               	.L1364:
 23537               	.LM2537:
 23538 87d6 8E2F      		mov r24,r30
 23539 87d8 8053      		subi r24,lo8(-(-48))
 23540 87da 8A30      		cpi r24,lo8(10)
 23541 87dc 00F0      		brlo .L1365
 23542               	.LM2538:
 23543 87de EC36      		cpi r30,lo8(108)
 23544 87e0 01F4      		brne .L1366
 23545               	.LM2539:
 23546 87e2 BB89      		ldd r27,Y+19
 23547 87e4 B260      		ori r27,lo8(2)
 23548 87e6 BB8B      		std Y+19,r27
 23549               	.LVL1624:
 23550 87e8 D301      		movw r26,r6
 23551 87ea ED91      		ld r30,X+
 23552 87ec 3D01      		movw r6,r26
 23553               	.L1366:
 23554               	.LM2540:
 23555 87ee E337      		cpi r30,lo8(115)
 23556 87f0 01F4      		brne .L1367
 23557               	.LM2541:
 23558 87f2 92E0      		ldi r25,lo8(2)
 23559 87f4 892E      		mov r8,r25
 23560 87f6 912C      		mov r9,__zero_reg__
 23561               	.LVL1625:
 23562 87f8 800E      		add r8,r16
 23563 87fa 911E      		adc r9,r17
 23564 87fc F801      		movw r30,r16
 23565               	.LVL1626:
 23566 87fe 8081      		ld r24,Z
 23567 8800 9181      		ldd r25,Z+1
 23568 8802 00C0      		rjmp .L1389
 23569               	.LVL1627:
 23570               	.L1367:
 23571               	.LM2542:
 23572 8804 E336      		cpi r30,lo8(99)
 23573 8806 01F4      		brne .L1368
 23574               	.LM2543:
 23575 8808 82E0      		ldi r24,lo8(2)
 23576 880a 882E      		mov r8,r24
 23577 880c 912C      		mov r9,__zero_reg__
 23578               	.LVL1628:
 23579 880e 800E      		add r8,r16
 23580 8810 911E      		adc r9,r17
 23581 8812 D801      		movw r26,r16
 23582 8814 8D91      		ld r24,X+
 23583 8816 9C91      		ld r25,X
 23584 8818 69A5      		ldd r22,Y+41
 23585 881a 7AA5      		ldd r23,Y+42
 23586 881c 0E94 0000 		call f_putc
 23587               	.LVL1629:
 23588 8820 9C01      		movw r18,r24
 23589               	.LVL1630:
 23590               	.LM2544:
 23591 8822 BFEF      		ldi r27,hi8(-1)
 23592 8824 8F3F      		cpi r24,lo8(-1)
 23593 8826 9B07      		cpc r25,r27
 23594 8828 01F4      		brne .+2
 23595 882a 00C0      		rjmp .L1361
 23596               	.LVL1631:
 23597               	.L1388:
 23598 882c 21E0      		ldi r18,lo8(1)
 23599 882e 30E0      		ldi r19,hi8(1)
 23600               	.LVL1632:
 23601 8830 00C0      		rjmp .L1361
 23602               	.LVL1633:
 23603               	.L1368:
 23604               	.LM2545:
 23605 8832 E436      		cpi r30,lo8(100)
 23606 8834 01F0      		breq .L1369
 23607               	.LM2546:
 23608 8836 E537      		cpi r30,lo8(117)
 23609 8838 01F0      		breq .L1369
 23610               	.LM2547:
 23611 883a E835      		cpi r30,lo8(88)
 23612 883c 01F0      		breq .+2
 23613 883e 00C0      		rjmp .L1358
 23614 8840 20E1      		ldi r18,lo8(16)
 23615               	.LVL1634:
 23616 8842 00C0      		rjmp .L1370
 23617               	.LVL1635:
 23618               	.L1369:
 23619 8844 2AE0      		ldi r18,lo8(10)
 23620               	.LVL1636:
 23621               	.L1370:
 23622               	.LM2548:
 23623 8846 FB89      		ldd r31,Y+19
 23624 8848 F1FF      		sbrs r31,1
 23625 884a 00C0      		rjmp .L1371
 23626               	.LM2549:
 23627 884c B4E0      		ldi r27,lo8(4)
 23628 884e 8B2E      		mov r8,r27
 23629 8850 912C      		mov r9,__zero_reg__
 23630               	.LVL1637:
 23631 8852 800E      		add r8,r16
 23632 8854 911E      		adc r9,r17
 23633 8856 D801      		movw r26,r16
 23634 8858 ED90      		ld r14,X+
 23635 885a FD90      		ld r15,X+
 23636 885c 0D91      		ld r16,X+
 23637 885e 1C91      		ld r17,X
 23638               	.LM2550:
 23639 8860 E436      		cpi r30,lo8(100)
 23640 8862 01F4      		brne .L1373
 23641               	.LVL1638:
 23642 8864 00C0      		rjmp .L1372
 23643               	.L1371:
 23644 8866 C801      		movw r24,r16
 23645 8868 0296      		adiw r24,2
 23646               	.LVL1639:
 23647 886a D801      		movw r26,r16
 23648 886c 6D91      		ld r22,X+
 23649 886e 7C91      		ld r23,X
 23650               	.LM2551:
 23651 8870 E436      		cpi r30,lo8(100)
 23652 8872 01F4      		brne .L1374
 23653               	.LVL1640:
 23654 8874 4C01      		movw r8,r24
 23655 8876 7B01      		movw r14,r22
 23656 8878 0027      		clr r16
 23657 887a F7FC      		sbrc r15,7
 23658 887c 0095      		com r16
 23659 887e 102F      		mov r17,r16
 23660 8880 00C0      		rjmp .L1372
 23661               	.LVL1641:
 23662               	.L1374:
 23663 8882 4C01      		movw r8,r24
 23664 8884 7B01      		movw r14,r22
 23665               	.LVL1642:
 23666 8886 00E0      		ldi r16,lo8(0)
 23667 8888 10E0      		ldi r17,hi8(0)
 23668               	.LVL1643:
 23669 888a 00C0      		rjmp .L1373
 23670               	.LVL1644:
 23671               	.L1372:
 23672               	.LM2552:
 23673 888c 17FF      		sbrs r17,7
 23674 888e 00C0      		rjmp .L1373
 23675               	.LM2553:
 23676 8890 1095      		com r17
 23677 8892 0095      		com r16
 23678 8894 F094      		com r15
 23679 8896 E094      		com r14
 23680 8898 E11C      		adc r14,__zero_reg__
 23681 889a F11C      		adc r15,__zero_reg__
 23682 889c 011D      		adc r16,__zero_reg__
 23683 889e 111D      		adc r17,__zero_reg__
 23684               	.LM2554:
 23685 88a0 BB89      		ldd r27,Y+19
 23686 88a2 B460      		ori r27,lo8(4)
 23687 88a4 BB8B      		std Y+19,r27
 23688               	.LVL1645:
 23689               	.L1373:
 23690               	.LM2555:
 23691 88a6 188A      		std Y+16,__zero_reg__
 23692 88a8 AFE0      		ldi r26,lo8(15)
 23693 88aa CA2E      		mov r12,r26
 23694 88ac D12C      		mov r13,__zero_reg__
 23695               	.LM2556:
 23696 88ae 222E      		mov r2,r18
 23697 88b0 3324      		clr r3
 23698 88b2 4424      		clr r4
 23699 88b4 5524      		clr r5
 23700               	.LVL1646:
 23701               	.L1378:
 23702 88b6 C801      		movw r24,r16
 23703 88b8 B701      		movw r22,r14
 23704 88ba A201      		movw r20,r4
 23705 88bc 9101      		movw r18,r2
 23706               	.LVL1647:
 23707 88be 0E94 0000 		call __udivmodsi4
 23708               	.LVL1648:
 23709 88c2 862F      		mov r24,r22
 23710               	.LVL1649:
 23711 88c4 805D      		subi r24,lo8(-(48))
 23712               	.LM2557:
 23713 88c6 8A33      		cpi r24,lo8(58)
 23714 88c8 00F0      		brlo .L1375
 23715 88ca 895F      		subi r24,lo8(-(7))
 23716               	.L1375:
 23717               	.LM2558:
 23718 88cc 0894      		sec
 23719 88ce C108      		sbc r12,__zero_reg__
 23720 88d0 D108      		sbc r13,__zero_reg__
 23721 88d2 E1E0      		ldi r30,lo8(1)
 23722 88d4 F0E0      		ldi r31,hi8(1)
 23723 88d6 EC0F      		add r30,r28
 23724 88d8 FD1F      		adc r31,r29
 23725 88da EC0D      		add r30,r12
 23726 88dc FD1D      		adc r31,r13
 23727 88de 8083      		st Z,r24
 23728               	.LM2559:
 23729 88e0 C114      		cp r12,__zero_reg__
 23730 88e2 D104      		cpc r13,__zero_reg__
 23731 88e4 01F0      		breq .L1377
 23732               	.LM2560:
 23733 88e6 C801      		movw r24,r16
 23734 88e8 B701      		movw r22,r14
 23735 88ea A201      		movw r20,r4
 23736 88ec 9101      		movw r18,r2
 23737 88ee 0E94 0000 		call __udivmodsi4
 23738 88f2 C901      		movw r24,r18
 23739               	.LVL1650:
 23740 88f4 DA01      		movw r26,r20
 23741 88f6 7C01      		movw r14,r24
 23742 88f8 8D01      		movw r16,r26
 23743               	.LM2561:
 23744 88fa E114      		cp r14,__zero_reg__
 23745 88fc F104      		cpc r15,__zero_reg__
 23746 88fe 0105      		cpc r16,__zero_reg__
 23747 8900 1105      		cpc r17,__zero_reg__
 23748 8902 01F4      		brne .L1378
 23749               	.LM2562:
 23750 8904 EB89      		ldd r30,Y+19
 23751 8906 E2FF      		sbrs r30,2
 23752 8908 00C0      		rjmp .L1377
 23753 890a 0894      		sec
 23754 890c C108      		sbc r12,__zero_reg__
 23755 890e D108      		sbc r13,__zero_reg__
 23756 8910 E1E0      		ldi r30,lo8(1)
 23757 8912 F0E0      		ldi r31,hi8(1)
 23758 8914 EC0F      		add r30,r28
 23759 8916 FD1F      		adc r31,r29
 23760 8918 EC0D      		add r30,r12
 23761 891a FD1D      		adc r31,r13
 23762 891c 4DE2      		ldi r20,lo8(45)
 23763 891e 4083      		st Z,r20
 23764               	.LVL1651:
 23765               	.L1377:
 23766               	.LM2563:
 23767 8920 8FE0      		ldi r24,lo8(15)
 23768 8922 90E0      		ldi r25,hi8(15)
 23769               	.LVL1652:
 23770 8924 8A19      		sub r24,r10
 23771 8926 9B09      		sbc r25,r11
 23772 8928 0894      		sec
 23773 892a C108      		sbc r12,__zero_reg__
 23774 892c D108      		sbc r13,__zero_reg__
 23775 892e E1E0      		ldi r30,lo8(1)
 23776 8930 F0E0      		ldi r31,hi8(1)
 23777 8932 EC0F      		add r30,r28
 23778 8934 FD1F      		adc r31,r29
 23779 8936 EC0D      		add r30,r12
 23780 8938 FD1D      		adc r31,r13
 23781 893a 0894      		sec
 23782 893c C11C      		adc r12,__zero_reg__
 23783 893e D11C      		adc r13,__zero_reg__
 23784               	.LM2564:
 23785 8940 AB89      		ldd r26,Y+19
 23786 8942 2A2F      		mov r18,r26
 23787 8944 30E0      		ldi r19,lo8(0)
 23788 8946 2170      		andi r18,lo8(1)
 23789 8948 3070      		andi r19,hi8(1)
 23790 894a 00C0      		rjmp .L1379
 23791               	.L1383:
 23792 894c 0894      		sec
 23793 894e C108      		sbc r12,__zero_reg__
 23794 8950 D108      		sbc r13,__zero_reg__
 23795 8952 2115      		cp r18,__zero_reg__
 23796 8954 3105      		cpc r19,__zero_reg__
 23797 8956 01F4      		brne .L1380
 23798 8958 40E2      		ldi r20,lo8(32)
 23799 895a 00C0      		rjmp .L1381
 23800               	.L1380:
 23801 895c 40E3      		ldi r20,lo8(48)
 23802               	.L1381:
 23803 895e 4083      		st Z,r20
 23804 8960 3197      		sbiw r30,1
 23805               	.L1379:
 23806 8962 C114      		cp r12,__zero_reg__
 23807 8964 D104      		cpc r13,__zero_reg__
 23808 8966 01F0      		breq .L1382
 23809 8968 8C15      		cp r24,r12
 23810 896a 9D05      		cpc r25,r13
 23811 896c 04F0      		brlt .L1383
 23812               	.L1382:
 23813               	.LM2565:
 23814 896e 81E0      		ldi r24,lo8(1)
 23815 8970 90E0      		ldi r25,hi8(1)
 23816               	.LVL1653:
 23817 8972 8C0F      		add r24,r28
 23818 8974 9D1F      		adc r25,r29
 23819 8976 8C0D      		add r24,r12
 23820 8978 9D1D      		adc r25,r13
 23821               	.LVL1654:
 23822               	.L1389:
 23823 897a 69A5      		ldd r22,Y+41
 23824 897c 7AA5      		ldd r23,Y+42
 23825 897e 0E94 0000 		call f_puts
 23826               	.LVL1655:
 23827 8982 9C01      		movw r18,r24
 23828               	.LVL1656:
 23829               	.L1361:
 23830               	.LM2566:
 23831 8984 E989      		ldd r30,Y+17
 23832 8986 FA89      		ldd r31,Y+18
 23833 8988 E20F      		add r30,r18
 23834 898a F31F      		adc r31,r19
 23835 898c E98B      		std Y+17,r30
 23836 898e FA8B      		std Y+18,r31
 23837               	.LVL1657:
 23838 8990 FFEF      		ldi r31,hi8(-1)
 23839 8992 2F3F      		cpi r18,lo8(-1)
 23840 8994 3F07      		cpc r19,r31
 23841 8996 01F0      		breq .L1384
 23842 8998 8401      		movw r16,r8
 23843               	.LVL1658:
 23844 899a 00C0      		rjmp .L1385
 23845               	.LVL1659:
 23846               	.L1358:
 23847               	.LM2567:
 23848 899c 4FEF      		ldi r20,hi8(-1)
 23849 899e 2F3F      		cpi r18,lo8(-1)
 23850 89a0 3407      		cpc r19,r20
 23851 89a2 01F0      		breq .L1384
 23852 89a4 2989      		ldd r18,Y+17
 23853 89a6 3A89      		ldd r19,Y+18
 23854               	.LVL1660:
 23855               	.L1384:
 23856               	.LM2568:
 23857 89a8 C901      		movw r24,r18
 23858               	.LVL1661:
 23859               	/* epilogue start */
 23860 89aa 6396      		adiw r28,19
 23861 89ac CDBF      		out __SP_L__,r28
 23862 89ae DEBF      		out __SP_H__,r29
 23863 89b0 CF91      		pop r28
 23864 89b2 DF91      		pop r29
 23865 89b4 1F91      		pop r17
 23866 89b6 0F91      		pop r16
 23867               	.LVL1662:
 23868 89b8 FF90      		pop r15
 23869 89ba EF90      		pop r14
 23870               	.LVL1663:
 23871 89bc DF90      		pop r13
 23872 89be CF90      		pop r12
 23873               	.LVL1664:
 23874 89c0 BF90      		pop r11
 23875 89c2 AF90      		pop r10
 23876               	.LVL1665:
 23877 89c4 9F90      		pop r9
 23878 89c6 8F90      		pop r8
 23879               	.LVL1666:
 23880 89c8 7F90      		pop r7
 23881 89ca 6F90      		pop r6
 23882               	.LVL1667:
 23883 89cc 5F90      		pop r5
 23884 89ce 4F90      		pop r4
 23885 89d0 3F90      		pop r3
 23886 89d2 2F90      		pop r2
 23887 89d4 0895      		ret
 23888               	.LFE87:
 23890               	.global	wantToRecordTemperature
 23891               		.data
 23894               	wantToRecordTemperature:
 23895 02c0 01        		.byte	1
 23896               	.global	wantToRecordHumidity
 23899               	wantToRecordHumidity:
 23900 02c1 01        		.byte	1
 23901               	.global	wantToRecordEKG
 23904               	wantToRecordEKG:
 23905 02c2 01        		.byte	1
 23906               	.global	wantToRecordRespiration
 23909               	wantToRecordRespiration:
 23910 02c3 01        		.byte	1
 23911               	.global	wantToRecordFast
 23912               	.global	wantToRecordFast
 23913               		.section .bss
 23916               	wantToRecordFast:
 23917 0000 00        		.skip 1,0
 23918               	.global	recording
 23919               	.global	recording
 23922               	recording:
 23923 0001 00        		.skip 1,0
 23924               	.global	temperatureBufferToWriteTo
 23925               	.global	temperatureBufferToWriteTo
 23928               	temperatureBufferToWriteTo:
 23929 0002 00        		.skip 1,0
 23930               	.global	temperatureBufferCounter
 23931               	.global	temperatureBufferCounter
 23934               	temperatureBufferCounter:
 23935 0003 0000      		.skip 2,0
 23936               	.global	respirationBufferToWriteTo
 23937               	.global	respirationBufferToWriteTo
 23940               	respirationBufferToWriteTo:
 23941 0005 00        		.skip 1,0
 23942               	.global	respirationBufferCounter
 23943               	.global	respirationBufferCounter
 23946               	respirationBufferCounter:
 23947 0006 0000      		.skip 2,0
 23948               	.global	EKGBufferToWriteTo
 23949               	.global	EKGBufferToWriteTo
 23952               	EKGBufferToWriteTo:
 23953 0008 00        		.skip 1,0
 23954               	.global	EKGBufferCounter
 23955               	.global	EKGBufferCounter
 23958               	EKGBufferCounter:
 23959 0009 0000      		.skip 2,0
 23960               	.global	humidityBufferToWriteTo
 23961               	.global	humidityBufferToWriteTo
 23964               	humidityBufferToWriteTo:
 23965 000b 00        		.skip 1,0
 23966               	.global	humidityBufferCounter
 23967               	.global	humidityBufferCounter
 23970               	humidityBufferCounter:
 23971 000c 0000      		.skip 2,0
 23972               	.global	accelBufferToWriteTo
 23973               	.global	accelBufferToWriteTo
 23976               	accelBufferToWriteTo:
 23977 000e 00        		.skip 1,0
 23978               	.global	accelBufferCounter
 23979               	.global	accelBufferCounter
 23982               	accelBufferCounter:
 23983 000f 0000      		.skip 2,0
 23984               	.global	okToSendRTCBlock
 23985               	.global	okToSendRTCBlock
 23988               	okToSendRTCBlock:
 23989 0011 00        		.skip 1,0
 23990               	.global	rtcBlockCounter
 23991               	.global	rtcBlockCounter
 23994               	rtcBlockCounter:
 23995 0012 00        		.skip 1,0
 23996               	.global	timeRecordingStarted
 23997               	.global	timeRecordingStarted
 24000               	timeRecordingStarted:
 24001 0013 0000 0000 		.skip 4,0
 24002               	.global	demoMode
 24003               	.global	demoMode
 24006               	demoMode:
 24007 0017 00        		.skip 1,0
 24008               	.global	useWifiForUploading
 24009               	.global	useWifiForUploading
 24012               	useWifiForUploading:
 24013 0018 00        		.skip 1,0
 24014               	.global	Debug_readLocation
 24015               	.global	Debug_readLocation
 24018               	Debug_readLocation:
 24019 0019 0000      		.skip 2,0
 24020               	.global	Debug_writeLocation
 24021               	.global	Debug_writeLocation
 24024               	Debug_writeLocation:
 24025 001b 0000      		.skip 2,0
 24026               	.global	Debug_timeOutCounter
 24027               	.global	Debug_timeOutCounter
 24030               	Debug_timeOutCounter:
 24031 001d 0000 0000 		.skip 4,0
 24032               	.global	UNIX_Time
 24033               	.global	UNIX_Time
 24036               	UNIX_Time:
 24037 0021 0000 0000 		.skip 4,0
 24038               	.global	Drives
 24039               		.data
 24042               	Drives:
 24043 02c4 00        		.byte	0
 24044 02c5 00        		.byte	0
 24045 02c6 00        		.byte	0
 24046 02c7 01        		.byte	1
 24047               	.global	serverOpenCommand
 24050               	serverOpenCommand:
 24051 02c8 6F70 656E 		.string	"open "
 24051      2000 
 24052 02ce 0000 0000 		.skip 44,0
 24052      0000 0000 
 24052      0000 0000 
 24052      0000 0000 
 24052      0000 0000 
 24053               	.global	zone
 24056               	zone:
 24057 02fa 474D 5400 		.string	"GMT"
 24058 02fe 0000 0000 		.skip 6,0
 24058      0000 
 24059               	.global	am
 24062               	am:
 24063 0304 414D 00   		.string	"AM"
 24064 0307 0000      		.skip 2,0
 24065               	.global	pm
 24068               	pm:
 24069 0309 504D 00   		.string	"PM"
 24070 030c 0000      		.skip 2,0
 24071               	.global	timeZoneShift
 24072               	.global	timeZoneShift
 24073               		.section .bss
 24076               	timeZoneShift:
 24077 0025 00        		.skip 1,0
 24078               	.global	authRead
 24079               	.global	authRead
 24082               	authRead:
 24083 0026 00        		.skip 1,0
 24084               	.global	phraseRead
 24085               	.global	phraseRead
 24088               	phraseRead:
 24089 0027 00        		.skip 1,0
 24090               	.global	keyRead
 24091               	.global	keyRead
 24094               	keyRead:
 24095 0028 00        		.skip 1,0
 24096               	.global	ssidRead
 24097               	.global	ssidRead
 24100               	ssidRead:
 24101 0029 00        		.skip 1,0
 24102               	.global	zoneChanged
 24103               	.global	zoneChanged
 24106               	zoneChanged:
 24107 002a 00        		.skip 1,0
 24108               	.global	sdValid
 24109               	.global	sdValid
 24112               	sdValid:
 24113 002b 00        		.skip 1,0
 24114               	.global	validCounter
 24115               	.global	validCounter
 24118               	validCounter:
 24119 002c 00        		.skip 1,0
 24120               	.global	crc_table
 24121               		.data
 24124               	crc_table:
 24125 030e 00        		.byte	0
 24126 030f 00        		.byte	0
 24127 0310 00        		.byte	0
 24128 0311 00        		.byte	0
 24129 0312 96        		.byte	-106
 24130 0313 30        		.byte	48
 24131 0314 07        		.byte	7
 24132 0315 77        		.byte	119
 24133 0316 2C        		.byte	44
 24134 0317 61        		.byte	97
 24135 0318 0E        		.byte	14
 24136 0319 EE        		.byte	-18
 24137 031a BA        		.byte	-70
 24138 031b 51        		.byte	81
 24139 031c 09        		.byte	9
 24140 031d 99        		.byte	-103
 24141 031e 19        		.byte	25
 24142 031f C4        		.byte	-60
 24143 0320 6D        		.byte	109
 24144 0321 07        		.byte	7
 24145 0322 8F        		.byte	-113
 24146 0323 F4        		.byte	-12
 24147 0324 6A        		.byte	106
 24148 0325 70        		.byte	112
 24149 0326 35        		.byte	53
 24150 0327 A5        		.byte	-91
 24151 0328 63        		.byte	99
 24152 0329 E9        		.byte	-23
 24153 032a A3        		.byte	-93
 24154 032b 95        		.byte	-107
 24155 032c 64        		.byte	100
 24156 032d 9E        		.byte	-98
 24157 032e 32        		.byte	50
 24158 032f 88        		.byte	-120
 24159 0330 DB        		.byte	-37
 24160 0331 0E        		.byte	14
 24161 0332 A4        		.byte	-92
 24162 0333 B8        		.byte	-72
 24163 0334 DC        		.byte	-36
 24164 0335 79        		.byte	121
 24165 0336 1E        		.byte	30
 24166 0337 E9        		.byte	-23
 24167 0338 D5        		.byte	-43
 24168 0339 E0        		.byte	-32
 24169 033a 88        		.byte	-120
 24170 033b D9        		.byte	-39
 24171 033c D2        		.byte	-46
 24172 033d 97        		.byte	-105
 24173 033e 2B        		.byte	43
 24174 033f 4C        		.byte	76
 24175 0340 B6        		.byte	-74
 24176 0341 09        		.byte	9
 24177 0342 BD        		.byte	-67
 24178 0343 7C        		.byte	124
 24179 0344 B1        		.byte	-79
 24180 0345 7E        		.byte	126
 24181 0346 07        		.byte	7
 24182 0347 2D        		.byte	45
 24183 0348 B8        		.byte	-72
 24184 0349 E7        		.byte	-25
 24185 034a 91        		.byte	-111
 24186 034b 1D        		.byte	29
 24187 034c BF        		.byte	-65
 24188 034d 90        		.byte	-112
 24189 034e 64        		.byte	100
 24190 034f 10        		.byte	16
 24191 0350 B7        		.byte	-73
 24192 0351 1D        		.byte	29
 24193 0352 F2        		.byte	-14
 24194 0353 20        		.byte	32
 24195 0354 B0        		.byte	-80
 24196 0355 6A        		.byte	106
 24197 0356 48        		.byte	72
 24198 0357 71        		.byte	113
 24199 0358 B9        		.byte	-71
 24200 0359 F3        		.byte	-13
 24201 035a DE        		.byte	-34
 24202 035b 41        		.byte	65
 24203 035c BE        		.byte	-66
 24204 035d 84        		.byte	-124
 24205 035e 7D        		.byte	125
 24206 035f D4        		.byte	-44
 24207 0360 DA        		.byte	-38
 24208 0361 1A        		.byte	26
 24209 0362 EB        		.byte	-21
 24210 0363 E4        		.byte	-28
 24211 0364 DD        		.byte	-35
 24212 0365 6D        		.byte	109
 24213 0366 51        		.byte	81
 24214 0367 B5        		.byte	-75
 24215 0368 D4        		.byte	-44
 24216 0369 F4        		.byte	-12
 24217 036a C7        		.byte	-57
 24218 036b 85        		.byte	-123
 24219 036c D3        		.byte	-45
 24220 036d 83        		.byte	-125
 24221 036e 56        		.byte	86
 24222 036f 98        		.byte	-104
 24223 0370 6C        		.byte	108
 24224 0371 13        		.byte	19
 24225 0372 C0        		.byte	-64
 24226 0373 A8        		.byte	-88
 24227 0374 6B        		.byte	107
 24228 0375 64        		.byte	100
 24229 0376 7A        		.byte	122
 24230 0377 F9        		.byte	-7
 24231 0378 62        		.byte	98
 24232 0379 FD        		.byte	-3
 24233 037a EC        		.byte	-20
 24234 037b C9        		.byte	-55
 24235 037c 65        		.byte	101
 24236 037d 8A        		.byte	-118
 24237 037e 4F        		.byte	79
 24238 037f 5C        		.byte	92
 24239 0380 01        		.byte	1
 24240 0381 14        		.byte	20
 24241 0382 D9        		.byte	-39
 24242 0383 6C        		.byte	108
 24243 0384 06        		.byte	6
 24244 0385 63        		.byte	99
 24245 0386 63        		.byte	99
 24246 0387 3D        		.byte	61
 24247 0388 0F        		.byte	15
 24248 0389 FA        		.byte	-6
 24249 038a F5        		.byte	-11
 24250 038b 0D        		.byte	13
 24251 038c 08        		.byte	8
 24252 038d 8D        		.byte	-115
 24253 038e C8        		.byte	-56
 24254 038f 20        		.byte	32
 24255 0390 6E        		.byte	110
 24256 0391 3B        		.byte	59
 24257 0392 5E        		.byte	94
 24258 0393 10        		.byte	16
 24259 0394 69        		.byte	105
 24260 0395 4C        		.byte	76
 24261 0396 E4        		.byte	-28
 24262 0397 41        		.byte	65
 24263 0398 60        		.byte	96
 24264 0399 D5        		.byte	-43
 24265 039a 72        		.byte	114
 24266 039b 71        		.byte	113
 24267 039c 67        		.byte	103
 24268 039d A2        		.byte	-94
 24269 039e D1        		.byte	-47
 24270 039f E4        		.byte	-28
 24271 03a0 03        		.byte	3
 24272 03a1 3C        		.byte	60
 24273 03a2 47        		.byte	71
 24274 03a3 D4        		.byte	-44
 24275 03a4 04        		.byte	4
 24276 03a5 4B        		.byte	75
 24277 03a6 FD        		.byte	-3
 24278 03a7 85        		.byte	-123
 24279 03a8 0D        		.byte	13
 24280 03a9 D2        		.byte	-46
 24281 03aa 6B        		.byte	107
 24282 03ab B5        		.byte	-75
 24283 03ac 0A        		.byte	10
 24284 03ad A5        		.byte	-91
 24285 03ae FA        		.byte	-6
 24286 03af A8        		.byte	-88
 24287 03b0 B5        		.byte	-75
 24288 03b1 35        		.byte	53
 24289 03b2 6C        		.byte	108
 24290 03b3 98        		.byte	-104
 24291 03b4 B2        		.byte	-78
 24292 03b5 42        		.byte	66
 24293 03b6 D6        		.byte	-42
 24294 03b7 C9        		.byte	-55
 24295 03b8 BB        		.byte	-69
 24296 03b9 DB        		.byte	-37
 24297 03ba 40        		.byte	64
 24298 03bb F9        		.byte	-7
 24299 03bc BC        		.byte	-68
 24300 03bd AC        		.byte	-84
 24301 03be E3        		.byte	-29
 24302 03bf 6C        		.byte	108
 24303 03c0 D8        		.byte	-40
 24304 03c1 32        		.byte	50
 24305 03c2 75        		.byte	117
 24306 03c3 5C        		.byte	92
 24307 03c4 DF        		.byte	-33
 24308 03c5 45        		.byte	69
 24309 03c6 CF        		.byte	-49
 24310 03c7 0D        		.byte	13
 24311 03c8 D6        		.byte	-42
 24312 03c9 DC        		.byte	-36
 24313 03ca 59        		.byte	89
 24314 03cb 3D        		.byte	61
 24315 03cc D1        		.byte	-47
 24316 03cd AB        		.byte	-85
 24317 03ce AC        		.byte	-84
 24318 03cf 30        		.byte	48
 24319 03d0 D9        		.byte	-39
 24320 03d1 26        		.byte	38
 24321 03d2 3A        		.byte	58
 24322 03d3 00        		.byte	0
 24323 03d4 DE        		.byte	-34
 24324 03d5 51        		.byte	81
 24325 03d6 80        		.byte	-128
 24326 03d7 51        		.byte	81
 24327 03d8 D7        		.byte	-41
 24328 03d9 C8        		.byte	-56
 24329 03da 16        		.byte	22
 24330 03db 61        		.byte	97
 24331 03dc D0        		.byte	-48
 24332 03dd BF        		.byte	-65
 24333 03de B5        		.byte	-75
 24334 03df F4        		.byte	-12
 24335 03e0 B4        		.byte	-76
 24336 03e1 21        		.byte	33
 24337 03e2 23        		.byte	35
 24338 03e3 C4        		.byte	-60
 24339 03e4 B3        		.byte	-77
 24340 03e5 56        		.byte	86
 24341 03e6 99        		.byte	-103
 24342 03e7 95        		.byte	-107
 24343 03e8 BA        		.byte	-70
 24344 03e9 CF        		.byte	-49
 24345 03ea 0F        		.byte	15
 24346 03eb A5        		.byte	-91
 24347 03ec BD        		.byte	-67
 24348 03ed B8        		.byte	-72
 24349 03ee 9E        		.byte	-98
 24350 03ef B8        		.byte	-72
 24351 03f0 02        		.byte	2
 24352 03f1 28        		.byte	40
 24353 03f2 08        		.byte	8
 24354 03f3 88        		.byte	-120
 24355 03f4 05        		.byte	5
 24356 03f5 5F        		.byte	95
 24357 03f6 B2        		.byte	-78
 24358 03f7 D9        		.byte	-39
 24359 03f8 0C        		.byte	12
 24360 03f9 C6        		.byte	-58
 24361 03fa 24        		.byte	36
 24362 03fb E9        		.byte	-23
 24363 03fc 0B        		.byte	11
 24364 03fd B1        		.byte	-79
 24365 03fe 87        		.byte	-121
 24366 03ff 7C        		.byte	124
 24367 0400 6F        		.byte	111
 24368 0401 2F        		.byte	47
 24369 0402 11        		.byte	17
 24370 0403 4C        		.byte	76
 24371 0404 68        		.byte	104
 24372 0405 58        		.byte	88
 24373 0406 AB        		.byte	-85
 24374 0407 1D        		.byte	29
 24375 0408 61        		.byte	97
 24376 0409 C1        		.byte	-63
 24377 040a 3D        		.byte	61
 24378 040b 2D        		.byte	45
 24379 040c 66        		.byte	102
 24380 040d B6        		.byte	-74
 24381 040e 90        		.byte	-112
 24382 040f 41        		.byte	65
 24383 0410 DC        		.byte	-36
 24384 0411 76        		.byte	118
 24385 0412 06        		.byte	6
 24386 0413 71        		.byte	113
 24387 0414 DB        		.byte	-37
 24388 0415 01        		.byte	1
 24389 0416 BC        		.byte	-68
 24390 0417 20        		.byte	32
 24391 0418 D2        		.byte	-46
 24392 0419 98        		.byte	-104
 24393 041a 2A        		.byte	42
 24394 041b 10        		.byte	16
 24395 041c D5        		.byte	-43
 24396 041d EF        		.byte	-17
 24397 041e 89        		.byte	-119
 24398 041f 85        		.byte	-123
 24399 0420 B1        		.byte	-79
 24400 0421 71        		.byte	113
 24401 0422 1F        		.byte	31
 24402 0423 B5        		.byte	-75
 24403 0424 B6        		.byte	-74
 24404 0425 06        		.byte	6
 24405 0426 A5        		.byte	-91
 24406 0427 E4        		.byte	-28
 24407 0428 BF        		.byte	-65
 24408 0429 9F        		.byte	-97
 24409 042a 33        		.byte	51
 24410 042b D4        		.byte	-44
 24411 042c B8        		.byte	-72
 24412 042d E8        		.byte	-24
 24413 042e A2        		.byte	-94
 24414 042f C9        		.byte	-55
 24415 0430 07        		.byte	7
 24416 0431 78        		.byte	120
 24417 0432 34        		.byte	52
 24418 0433 F9        		.byte	-7
 24419 0434 00        		.byte	0
 24420 0435 0F        		.byte	15
 24421 0436 8E        		.byte	-114
 24422 0437 A8        		.byte	-88
 24423 0438 09        		.byte	9
 24424 0439 96        		.byte	-106
 24425 043a 18        		.byte	24
 24426 043b 98        		.byte	-104
 24427 043c 0E        		.byte	14
 24428 043d E1        		.byte	-31
 24429 043e BB        		.byte	-69
 24430 043f 0D        		.byte	13
 24431 0440 6A        		.byte	106
 24432 0441 7F        		.byte	127
 24433 0442 2D        		.byte	45
 24434 0443 3D        		.byte	61
 24435 0444 6D        		.byte	109
 24436 0445 08        		.byte	8
 24437 0446 97        		.byte	-105
 24438 0447 6C        		.byte	108
 24439 0448 64        		.byte	100
 24440 0449 91        		.byte	-111
 24441 044a 01        		.byte	1
 24442 044b 5C        		.byte	92
 24443 044c 63        		.byte	99
 24444 044d E6        		.byte	-26
 24445 044e F4        		.byte	-12
 24446 044f 51        		.byte	81
 24447 0450 6B        		.byte	107
 24448 0451 6B        		.byte	107
 24449 0452 62        		.byte	98
 24450 0453 61        		.byte	97
 24451 0454 6C        		.byte	108
 24452 0455 1C        		.byte	28
 24453 0456 D8        		.byte	-40
 24454 0457 30        		.byte	48
 24455 0458 65        		.byte	101
 24456 0459 85        		.byte	-123
 24457 045a 4E        		.byte	78
 24458 045b 00        		.byte	0
 24459 045c 62        		.byte	98
 24460 045d F2        		.byte	-14
 24461 045e ED        		.byte	-19
 24462 045f 95        		.byte	-107
 24463 0460 06        		.byte	6
 24464 0461 6C        		.byte	108
 24465 0462 7B        		.byte	123
 24466 0463 A5        		.byte	-91
 24467 0464 01        		.byte	1
 24468 0465 1B        		.byte	27
 24469 0466 C1        		.byte	-63
 24470 0467 F4        		.byte	-12
 24471 0468 08        		.byte	8
 24472 0469 82        		.byte	-126
 24473 046a 57        		.byte	87
 24474 046b C4        		.byte	-60
 24475 046c 0F        		.byte	15
 24476 046d F5        		.byte	-11
 24477 046e C6        		.byte	-58
 24478 046f D9        		.byte	-39
 24479 0470 B0        		.byte	-80
 24480 0471 65        		.byte	101
 24481 0472 50        		.byte	80
 24482 0473 E9        		.byte	-23
 24483 0474 B7        		.byte	-73
 24484 0475 12        		.byte	18
 24485 0476 EA        		.byte	-22
 24486 0477 B8        		.byte	-72
 24487 0478 BE        		.byte	-66
 24488 0479 8B        		.byte	-117
 24489 047a 7C        		.byte	124
 24490 047b 88        		.byte	-120
 24491 047c B9        		.byte	-71
 24492 047d FC        		.byte	-4
 24493 047e DF        		.byte	-33
 24494 047f 1D        		.byte	29
 24495 0480 DD        		.byte	-35
 24496 0481 62        		.byte	98
 24497 0482 49        		.byte	73
 24498 0483 2D        		.byte	45
 24499 0484 DA        		.byte	-38
 24500 0485 15        		.byte	21
 24501 0486 F3        		.byte	-13
 24502 0487 7C        		.byte	124
 24503 0488 D3        		.byte	-45
 24504 0489 8C        		.byte	-116
 24505 048a 65        		.byte	101
 24506 048b 4C        		.byte	76
 24507 048c D4        		.byte	-44
 24508 048d FB        		.byte	-5
 24509 048e 58        		.byte	88
 24510 048f 61        		.byte	97
 24511 0490 B2        		.byte	-78
 24512 0491 4D        		.byte	77
 24513 0492 CE        		.byte	-50
 24514 0493 51        		.byte	81
 24515 0494 B5        		.byte	-75
 24516 0495 3A        		.byte	58
 24517 0496 74        		.byte	116
 24518 0497 00        		.byte	0
 24519 0498 BC        		.byte	-68
 24520 0499 A3        		.byte	-93
 24521 049a E2        		.byte	-30
 24522 049b 30        		.byte	48
 24523 049c BB        		.byte	-69
 24524 049d D4        		.byte	-44
 24525 049e 41        		.byte	65
 24526 049f A5        		.byte	-91
 24527 04a0 DF        		.byte	-33
 24528 04a1 4A        		.byte	74
 24529 04a2 D7        		.byte	-41
 24530 04a3 95        		.byte	-107
 24531 04a4 D8        		.byte	-40
 24532 04a5 3D        		.byte	61
 24533 04a6 6D        		.byte	109
 24534 04a7 C4        		.byte	-60
 24535 04a8 D1        		.byte	-47
 24536 04a9 A4        		.byte	-92
 24537 04aa FB        		.byte	-5
 24538 04ab F4        		.byte	-12
 24539 04ac D6        		.byte	-42
 24540 04ad D3        		.byte	-45
 24541 04ae 6A        		.byte	106
 24542 04af E9        		.byte	-23
 24543 04b0 69        		.byte	105
 24544 04b1 43        		.byte	67
 24545 04b2 FC        		.byte	-4
 24546 04b3 D9        		.byte	-39
 24547 04b4 6E        		.byte	110
 24548 04b5 34        		.byte	52
 24549 04b6 46        		.byte	70
 24550 04b7 88        		.byte	-120
 24551 04b8 67        		.byte	103
 24552 04b9 AD        		.byte	-83
 24553 04ba D0        		.byte	-48
 24554 04bb B8        		.byte	-72
 24555 04bc 60        		.byte	96
 24556 04bd DA        		.byte	-38
 24557 04be 73        		.byte	115
 24558 04bf 2D        		.byte	45
 24559 04c0 04        		.byte	4
 24560 04c1 44        		.byte	68
 24561 04c2 E5        		.byte	-27
 24562 04c3 1D        		.byte	29
 24563 04c4 03        		.byte	3
 24564 04c5 33        		.byte	51
 24565 04c6 5F        		.byte	95
 24566 04c7 4C        		.byte	76
 24567 04c8 0A        		.byte	10
 24568 04c9 AA        		.byte	-86
 24569 04ca C9        		.byte	-55
 24570 04cb 7C        		.byte	124
 24571 04cc 0D        		.byte	13
 24572 04cd DD        		.byte	-35
 24573 04ce 3C        		.byte	60
 24574 04cf 71        		.byte	113
 24575 04d0 05        		.byte	5
 24576 04d1 50        		.byte	80
 24577 04d2 AA        		.byte	-86
 24578 04d3 41        		.byte	65
 24579 04d4 02        		.byte	2
 24580 04d5 27        		.byte	39
 24581 04d6 10        		.byte	16
 24582 04d7 10        		.byte	16
 24583 04d8 0B        		.byte	11
 24584 04d9 BE        		.byte	-66
 24585 04da 86        		.byte	-122
 24586 04db 20        		.byte	32
 24587 04dc 0C        		.byte	12
 24588 04dd C9        		.byte	-55
 24589 04de 25        		.byte	37
 24590 04df B5        		.byte	-75
 24591 04e0 68        		.byte	104
 24592 04e1 57        		.byte	87
 24593 04e2 B3        		.byte	-77
 24594 04e3 85        		.byte	-123
 24595 04e4 6F        		.byte	111
 24596 04e5 20        		.byte	32
 24597 04e6 09        		.byte	9
 24598 04e7 D4        		.byte	-44
 24599 04e8 66        		.byte	102
 24600 04e9 B9        		.byte	-71
 24601 04ea 9F        		.byte	-97
 24602 04eb E4        		.byte	-28
 24603 04ec 61        		.byte	97
 24604 04ed CE        		.byte	-50
 24605 04ee 0E        		.byte	14
 24606 04ef F9        		.byte	-7
 24607 04f0 DE        		.byte	-34
 24608 04f1 5E        		.byte	94
 24609 04f2 98        		.byte	-104
 24610 04f3 C9        		.byte	-55
 24611 04f4 D9        		.byte	-39
 24612 04f5 29        		.byte	41
 24613 04f6 22        		.byte	34
 24614 04f7 98        		.byte	-104
 24615 04f8 D0        		.byte	-48
 24616 04f9 B0        		.byte	-80
 24617 04fa B4        		.byte	-76
 24618 04fb A8        		.byte	-88
 24619 04fc D7        		.byte	-41
 24620 04fd C7        		.byte	-57
 24621 04fe 17        		.byte	23
 24622 04ff 3D        		.byte	61
 24623 0500 B3        		.byte	-77
 24624 0501 59        		.byte	89
 24625 0502 81        		.byte	-127
 24626 0503 0D        		.byte	13
 24627 0504 B4        		.byte	-76
 24628 0505 2E        		.byte	46
 24629 0506 3B        		.byte	59
 24630 0507 5C        		.byte	92
 24631 0508 BD        		.byte	-67
 24632 0509 B7        		.byte	-73
 24633 050a AD        		.byte	-83
 24634 050b 6C        		.byte	108
 24635 050c BA        		.byte	-70
 24636 050d C0        		.byte	-64
 24637 050e 20        		.byte	32
 24638 050f 83        		.byte	-125
 24639 0510 B8        		.byte	-72
 24640 0511 ED        		.byte	-19
 24641 0512 B6        		.byte	-74
 24642 0513 B3        		.byte	-77
 24643 0514 BF        		.byte	-65
 24644 0515 9A        		.byte	-102
 24645 0516 0C        		.byte	12
 24646 0517 E2        		.byte	-30
 24647 0518 B6        		.byte	-74
 24648 0519 03        		.byte	3
 24649 051a 9A        		.byte	-102
 24650 051b D2        		.byte	-46
 24651 051c B1        		.byte	-79
 24652 051d 74        		.byte	116
 24653 051e 39        		.byte	57
 24654 051f 47        		.byte	71
 24655 0520 D5        		.byte	-43
 24656 0521 EA        		.byte	-22
 24657 0522 AF        		.byte	-81
 24658 0523 77        		.byte	119
 24659 0524 D2        		.byte	-46
 24660 0525 9D        		.byte	-99
 24661 0526 15        		.byte	21
 24662 0527 26        		.byte	38
 24663 0528 DB        		.byte	-37
 24664 0529 04        		.byte	4
 24665 052a 83        		.byte	-125
 24666 052b 16        		.byte	22
 24667 052c DC        		.byte	-36
 24668 052d 73        		.byte	115
 24669 052e 12        		.byte	18
 24670 052f 0B        		.byte	11
 24671 0530 63        		.byte	99
 24672 0531 E3        		.byte	-29
 24673 0532 84        		.byte	-124
 24674 0533 3B        		.byte	59
 24675 0534 64        		.byte	100
 24676 0535 94        		.byte	-108
 24677 0536 3E        		.byte	62
 24678 0537 6A        		.byte	106
 24679 0538 6D        		.byte	109
 24680 0539 0D        		.byte	13
 24681 053a A8        		.byte	-88
 24682 053b 5A        		.byte	90
 24683 053c 6A        		.byte	106
 24684 053d 7A        		.byte	122
 24685 053e 0B        		.byte	11
 24686 053f CF        		.byte	-49
 24687 0540 0E        		.byte	14
 24688 0541 E4        		.byte	-28
 24689 0542 9D        		.byte	-99
 24690 0543 FF        		.byte	-1
 24691 0544 09        		.byte	9
 24692 0545 93        		.byte	-109
 24693 0546 27        		.byte	39
 24694 0547 AE        		.byte	-82
 24695 0548 00        		.byte	0
 24696 0549 0A        		.byte	10
 24697 054a B1        		.byte	-79
 24698 054b 9E        		.byte	-98
 24699 054c 07        		.byte	7
 24700 054d 7D        		.byte	125
 24701 054e 44        		.byte	68
 24702 054f 93        		.byte	-109
 24703 0550 0F        		.byte	15
 24704 0551 F0        		.byte	-16
 24705 0552 D2        		.byte	-46
 24706 0553 A3        		.byte	-93
 24707 0554 08        		.byte	8
 24708 0555 87        		.byte	-121
 24709 0556 68        		.byte	104
 24710 0557 F2        		.byte	-14
 24711 0558 01        		.byte	1
 24712 0559 1E        		.byte	30
 24713 055a FE        		.byte	-2
 24714 055b C2        		.byte	-62
 24715 055c 06        		.byte	6
 24716 055d 69        		.byte	105
 24717 055e 5D        		.byte	93
 24718 055f 57        		.byte	87
 24719 0560 62        		.byte	98
 24720 0561 F7        		.byte	-9
 24721 0562 CB        		.byte	-53
 24722 0563 67        		.byte	103
 24723 0564 65        		.byte	101
 24724 0565 80        		.byte	-128
 24725 0566 71        		.byte	113
 24726 0567 36        		.byte	54
 24727 0568 6C        		.byte	108
 24728 0569 19        		.byte	25
 24729 056a E7        		.byte	-25
 24730 056b 06        		.byte	6
 24731 056c 6B        		.byte	107
 24732 056d 6E        		.byte	110
 24733 056e 76        		.byte	118
 24734 056f 1B        		.byte	27
 24735 0570 D4        		.byte	-44
 24736 0571 FE        		.byte	-2
 24737 0572 E0        		.byte	-32
 24738 0573 2B        		.byte	43
 24739 0574 D3        		.byte	-45
 24740 0575 89        		.byte	-119
 24741 0576 5A        		.byte	90
 24742 0577 7A        		.byte	122
 24743 0578 DA        		.byte	-38
 24744 0579 10        		.byte	16
 24745 057a CC        		.byte	-52
 24746 057b 4A        		.byte	74
 24747 057c DD        		.byte	-35
 24748 057d 67        		.byte	103
 24749 057e 6F        		.byte	111
 24750 057f DF        		.byte	-33
 24751 0580 B9        		.byte	-71
 24752 0581 F9        		.byte	-7
 24753 0582 F9        		.byte	-7
 24754 0583 EF        		.byte	-17
 24755 0584 BE        		.byte	-66
 24756 0585 8E        		.byte	-114
 24757 0586 43        		.byte	67
 24758 0587 BE        		.byte	-66
 24759 0588 B7        		.byte	-73
 24760 0589 17        		.byte	23
 24761 058a D5        		.byte	-43
 24762 058b 8E        		.byte	-114
 24763 058c B0        		.byte	-80
 24764 058d 60        		.byte	96
 24765 058e E8        		.byte	-24
 24766 058f A3        		.byte	-93
 24767 0590 D6        		.byte	-42
 24768 0591 D6        		.byte	-42
 24769 0592 7E        		.byte	126
 24770 0593 93        		.byte	-109
 24771 0594 D1        		.byte	-47
 24772 0595 A1        		.byte	-95
 24773 0596 C4        		.byte	-60
 24774 0597 C2        		.byte	-62
 24775 0598 D8        		.byte	-40
 24776 0599 38        		.byte	56
 24777 059a 52        		.byte	82
 24778 059b F2        		.byte	-14
 24779 059c DF        		.byte	-33
 24780 059d 4F        		.byte	79
 24781 059e F1        		.byte	-15
 24782 059f 67        		.byte	103
 24783 05a0 BB        		.byte	-69
 24784 05a1 D1        		.byte	-47
 24785 05a2 67        		.byte	103
 24786 05a3 57        		.byte	87
 24787 05a4 BC        		.byte	-68
 24788 05a5 A6        		.byte	-90
 24789 05a6 DD        		.byte	-35
 24790 05a7 06        		.byte	6
 24791 05a8 B5        		.byte	-75
 24792 05a9 3F        		.byte	63
 24793 05aa 4B        		.byte	75
 24794 05ab 36        		.byte	54
 24795 05ac B2        		.byte	-78
 24796 05ad 48        		.byte	72
 24797 05ae DA        		.byte	-38
 24798 05af 2B        		.byte	43
 24799 05b0 0D        		.byte	13
 24800 05b1 D8        		.byte	-40
 24801 05b2 4C        		.byte	76
 24802 05b3 1B        		.byte	27
 24803 05b4 0A        		.byte	10
 24804 05b5 AF        		.byte	-81
 24805 05b6 F6        		.byte	-10
 24806 05b7 4A        		.byte	74
 24807 05b8 03        		.byte	3
 24808 05b9 36        		.byte	54
 24809 05ba 60        		.byte	96
 24810 05bb 7A        		.byte	122
 24811 05bc 04        		.byte	4
 24812 05bd 41        		.byte	65
 24813 05be C3        		.byte	-61
 24814 05bf EF        		.byte	-17
 24815 05c0 60        		.byte	96
 24816 05c1 DF        		.byte	-33
 24817 05c2 55        		.byte	85
 24818 05c3 DF        		.byte	-33
 24819 05c4 67        		.byte	103
 24820 05c5 A8        		.byte	-88
 24821 05c6 EF        		.byte	-17
 24822 05c7 8E        		.byte	-114
 24823 05c8 6E        		.byte	110
 24824 05c9 31        		.byte	49
 24825 05ca 79        		.byte	121
 24826 05cb BE        		.byte	-66
 24827 05cc 69        		.byte	105
 24828 05cd 46        		.byte	70
 24829 05ce 8C        		.byte	-116
 24830 05cf B3        		.byte	-77
 24831 05d0 61        		.byte	97
 24832 05d1 CB        		.byte	-53
 24833 05d2 1A        		.byte	26
 24834 05d3 83        		.byte	-125
 24835 05d4 66        		.byte	102
 24836 05d5 BC        		.byte	-68
 24837 05d6 A0        		.byte	-96
 24838 05d7 D2        		.byte	-46
 24839 05d8 6F        		.byte	111
 24840 05d9 25        		.byte	37
 24841 05da 36        		.byte	54
 24842 05db E2        		.byte	-30
 24843 05dc 68        		.byte	104
 24844 05dd 52        		.byte	82
 24845 05de 95        		.byte	-107
 24846 05df 77        		.byte	119
 24847 05e0 0C        		.byte	12
 24848 05e1 CC        		.byte	-52
 24849 05e2 03        		.byte	3
 24850 05e3 47        		.byte	71
 24851 05e4 0B        		.byte	11
 24852 05e5 BB        		.byte	-69
 24853 05e6 B9        		.byte	-71
 24854 05e7 16        		.byte	22
 24855 05e8 02        		.byte	2
 24856 05e9 22        		.byte	34
 24857 05ea 2F        		.byte	47
 24858 05eb 26        		.byte	38
 24859 05ec 05        		.byte	5
 24860 05ed 55        		.byte	85
 24861 05ee BE        		.byte	-66
 24862 05ef 3B        		.byte	59
 24863 05f0 BA        		.byte	-70
 24864 05f1 C5        		.byte	-59
 24865 05f2 28        		.byte	40
 24866 05f3 0B        		.byte	11
 24867 05f4 BD        		.byte	-67
 24868 05f5 B2        		.byte	-78
 24869 05f6 92        		.byte	-110
 24870 05f7 5A        		.byte	90
 24871 05f8 B4        		.byte	-76
 24872 05f9 2B        		.byte	43
 24873 05fa 04        		.byte	4
 24874 05fb 6A        		.byte	106
 24875 05fc B3        		.byte	-77
 24876 05fd 5C        		.byte	92
 24877 05fe A7        		.byte	-89
 24878 05ff FF        		.byte	-1
 24879 0600 D7        		.byte	-41
 24880 0601 C2        		.byte	-62
 24881 0602 31        		.byte	49
 24882 0603 CF        		.byte	-49
 24883 0604 D0        		.byte	-48
 24884 0605 B5        		.byte	-75
 24885 0606 8B        		.byte	-117
 24886 0607 9E        		.byte	-98
 24887 0608 D9        		.byte	-39
 24888 0609 2C        		.byte	44
 24889 060a 1D        		.byte	29
 24890 060b AE        		.byte	-82
 24891 060c DE        		.byte	-34
 24892 060d 5B        		.byte	91
 24893 060e B0        		.byte	-80
 24894 060f C2        		.byte	-62
 24895 0610 64        		.byte	100
 24896 0611 9B        		.byte	-101
 24897 0612 26        		.byte	38
 24898 0613 F2        		.byte	-14
 24899 0614 63        		.byte	99
 24900 0615 EC        		.byte	-20
 24901 0616 9C        		.byte	-100
 24902 0617 A3        		.byte	-93
 24903 0618 6A        		.byte	106
 24904 0619 75        		.byte	117
 24905 061a 0A        		.byte	10
 24906 061b 93        		.byte	-109
 24907 061c 6D        		.byte	109
 24908 061d 02        		.byte	2
 24909 061e A9        		.byte	-87
 24910 061f 06        		.byte	6
 24911 0620 09        		.byte	9
 24912 0621 9C        		.byte	-100
 24913 0622 3F        		.byte	63
 24914 0623 36        		.byte	54
 24915 0624 0E        		.byte	14
 24916 0625 EB        		.byte	-21
 24917 0626 85        		.byte	-123
 24918 0627 67        		.byte	103
 24919 0628 07        		.byte	7
 24920 0629 72        		.byte	114
 24921 062a 13        		.byte	19
 24922 062b 57        		.byte	87
 24923 062c 00        		.byte	0
 24924 062d 05        		.byte	5
 24925 062e 82        		.byte	-126
 24926 062f 4A        		.byte	74
 24927 0630 BF        		.byte	-65
 24928 0631 95        		.byte	-107
 24929 0632 14        		.byte	20
 24930 0633 7A        		.byte	122
 24931 0634 B8        		.byte	-72
 24932 0635 E2        		.byte	-30
 24933 0636 AE        		.byte	-82
 24934 0637 2B        		.byte	43
 24935 0638 B1        		.byte	-79
 24936 0639 7B        		.byte	123
 24937 063a 38        		.byte	56
 24938 063b 1B        		.byte	27
 24939 063c B6        		.byte	-74
 24940 063d 0C        		.byte	12
 24941 063e 9B        		.byte	-101
 24942 063f 8E        		.byte	-114
 24943 0640 D2        		.byte	-46
 24944 0641 92        		.byte	-110
 24945 0642 0D        		.byte	13
 24946 0643 BE        		.byte	-66
 24947 0644 D5        		.byte	-43
 24948 0645 E5        		.byte	-27
 24949 0646 B7        		.byte	-73
 24950 0647 EF        		.byte	-17
 24951 0648 DC        		.byte	-36
 24952 0649 7C        		.byte	124
 24953 064a 21        		.byte	33
 24954 064b DF        		.byte	-33
 24955 064c DB        		.byte	-37
 24956 064d 0B        		.byte	11
 24957 064e D4        		.byte	-44
 24958 064f D2        		.byte	-46
 24959 0650 D3        		.byte	-45
 24960 0651 86        		.byte	-122
 24961 0652 42        		.byte	66
 24962 0653 E2        		.byte	-30
 24963 0654 D4        		.byte	-44
 24964 0655 F1        		.byte	-15
 24965 0656 F8        		.byte	-8
 24966 0657 B3        		.byte	-77
 24967 0658 DD        		.byte	-35
 24968 0659 68        		.byte	104
 24969 065a 6E        		.byte	110
 24970 065b 83        		.byte	-125
 24971 065c DA        		.byte	-38
 24972 065d 1F        		.byte	31
 24973 065e CD        		.byte	-51
 24974 065f 16        		.byte	22
 24975 0660 BE        		.byte	-66
 24976 0661 81        		.byte	-127
 24977 0662 5B        		.byte	91
 24978 0663 26        		.byte	38
 24979 0664 B9        		.byte	-71
 24980 0665 F6        		.byte	-10
 24981 0666 E1        		.byte	-31
 24982 0667 77        		.byte	119
 24983 0668 B0        		.byte	-80
 24984 0669 6F        		.byte	111
 24985 066a 77        		.byte	119
 24986 066b 47        		.byte	71
 24987 066c B7        		.byte	-73
 24988 066d 18        		.byte	24
 24989 066e E6        		.byte	-26
 24990 066f 5A        		.byte	90
 24991 0670 08        		.byte	8
 24992 0671 88        		.byte	-120
 24993 0672 70        		.byte	112
 24994 0673 6A        		.byte	106
 24995 0674 0F        		.byte	15
 24996 0675 FF        		.byte	-1
 24997 0676 CA        		.byte	-54
 24998 0677 3B        		.byte	59
 24999 0678 06        		.byte	6
 25000 0679 66        		.byte	102
 25001 067a 5C        		.byte	92
 25002 067b 0B        		.byte	11
 25003 067c 01        		.byte	1
 25004 067d 11        		.byte	17
 25005 067e FF        		.byte	-1
 25006 067f 9E        		.byte	-98
 25007 0680 65        		.byte	101
 25008 0681 8F        		.byte	-113
 25009 0682 69        		.byte	105
 25010 0683 AE        		.byte	-82
 25011 0684 62        		.byte	98
 25012 0685 F8        		.byte	-8
 25013 0686 D3        		.byte	-45
 25014 0687 FF        		.byte	-1
 25015 0688 6B        		.byte	107
 25016 0689 61        		.byte	97
 25017 068a 45        		.byte	69
 25018 068b CF        		.byte	-49
 25019 068c 6C        		.byte	108
 25020 068d 16        		.byte	22
 25021 068e 78        		.byte	120
 25022 068f E2        		.byte	-30
 25023 0690 0A        		.byte	10
 25024 0691 A0        		.byte	-96
 25025 0692 EE        		.byte	-18
 25026 0693 D2        		.byte	-46
 25027 0694 0D        		.byte	13
 25028 0695 D7        		.byte	-41
 25029 0696 54        		.byte	84
 25030 0697 83        		.byte	-125
 25031 0698 04        		.byte	4
 25032 0699 4E        		.byte	78
 25033 069a C2        		.byte	-62
 25034 069b B3        		.byte	-77
 25035 069c 03        		.byte	3
 25036 069d 39        		.byte	57
 25037 069e 61        		.byte	97
 25038 069f 26        		.byte	38
 25039 06a0 67        		.byte	103
 25040 06a1 A7        		.byte	-89
 25041 06a2 F7        		.byte	-9
 25042 06a3 16        		.byte	22
 25043 06a4 60        		.byte	96
 25044 06a5 D0        		.byte	-48
 25045 06a6 4D        		.byte	77
 25046 06a7 47        		.byte	71
 25047 06a8 69        		.byte	105
 25048 06a9 49        		.byte	73
 25049 06aa DB        		.byte	-37
 25050 06ab 77        		.byte	119
 25051 06ac 6E        		.byte	110
 25052 06ad 3E        		.byte	62
 25053 06ae 4A        		.byte	74
 25054 06af 6A        		.byte	106
 25055 06b0 D1        		.byte	-47
 25056 06b1 AE        		.byte	-82
 25057 06b2 DC        		.byte	-36
 25058 06b3 5A        		.byte	90
 25059 06b4 D6        		.byte	-42
 25060 06b5 D9        		.byte	-39
 25061 06b6 66        		.byte	102
 25062 06b7 0B        		.byte	11
 25063 06b8 DF        		.byte	-33
 25064 06b9 40        		.byte	64
 25065 06ba F0        		.byte	-16
 25066 06bb 3B        		.byte	59
 25067 06bc D8        		.byte	-40
 25068 06bd 37        		.byte	55
 25069 06be 53        		.byte	83
 25070 06bf AE        		.byte	-82
 25071 06c0 BC        		.byte	-68
 25072 06c1 A9        		.byte	-87
 25073 06c2 C5        		.byte	-59
 25074 06c3 9E        		.byte	-98
 25075 06c4 BB        		.byte	-69
 25076 06c5 DE        		.byte	-34
 25077 06c6 7F        		.byte	127
 25078 06c7 CF        		.byte	-49
 25079 06c8 B2        		.byte	-78
 25080 06c9 47        		.byte	71
 25081 06ca E9        		.byte	-23
 25082 06cb FF        		.byte	-1
 25083 06cc B5        		.byte	-75
 25084 06cd 30        		.byte	48
 25085 06ce 1C        		.byte	28
 25086 06cf F2        		.byte	-14
 25087 06d0 BD        		.byte	-67
 25088 06d1 BD        		.byte	-67
 25089 06d2 8A        		.byte	-118
 25090 06d3 C2        		.byte	-62
 25091 06d4 BA        		.byte	-70
 25092 06d5 CA        		.byte	-54
 25093 06d6 30        		.byte	48
 25094 06d7 93        		.byte	-109
 25095 06d8 B3        		.byte	-77
 25096 06d9 53        		.byte	83
 25097 06da A6        		.byte	-90
 25098 06db A3        		.byte	-93
 25099 06dc B4        		.byte	-76
 25100 06dd 24        		.byte	36
 25101 06de 05        		.byte	5
 25102 06df 36        		.byte	54
 25103 06e0 D0        		.byte	-48
 25104 06e1 BA        		.byte	-70
 25105 06e2 93        		.byte	-109
 25106 06e3 06        		.byte	6
 25107 06e4 D7        		.byte	-41
 25108 06e5 CD        		.byte	-51
 25109 06e6 29        		.byte	41
 25110 06e7 57        		.byte	87
 25111 06e8 DE        		.byte	-34
 25112 06e9 54        		.byte	84
 25113 06ea BF        		.byte	-65
 25114 06eb 67        		.byte	103
 25115 06ec D9        		.byte	-39
 25116 06ed 23        		.byte	35
 25117 06ee 2E        		.byte	46
 25118 06ef 7A        		.byte	122
 25119 06f0 66        		.byte	102
 25120 06f1 B3        		.byte	-77
 25121 06f2 B8        		.byte	-72
 25122 06f3 4A        		.byte	74
 25123 06f4 61        		.byte	97
 25124 06f5 C4        		.byte	-60
 25125 06f6 02        		.byte	2
 25126 06f7 1B        		.byte	27
 25127 06f8 68        		.byte	104
 25128 06f9 5D        		.byte	93
 25129 06fa 94        		.byte	-108
 25130 06fb 2B        		.byte	43
 25131 06fc 6F        		.byte	111
 25132 06fd 2A        		.byte	42
 25133 06fe 37        		.byte	55
 25134 06ff BE        		.byte	-66
 25135 0700 0B        		.byte	11
 25136 0701 B4        		.byte	-76
 25137 0702 A1        		.byte	-95
 25138 0703 8E        		.byte	-114
 25139 0704 0C        		.byte	12
 25140 0705 C3        		.byte	-61
 25141 0706 1B        		.byte	27
 25142 0707 DF        		.byte	-33
 25143 0708 05        		.byte	5
 25144 0709 5A        		.byte	90
 25145 070a 8D        		.byte	-115
 25146 070b EF        		.byte	-17
 25147 070c 02        		.byte	2
 25148 070d 2D        		.byte	45
 25149               	.global	HZ_RefeshCounter
 25150               	.global	HZ_RefeshCounter
 25151               		.section .bss
 25154               	HZ_RefeshCounter:
 25155 002d 0000      		.skip 2,0
 25156               	.global	HZ_RefeshCounter2
 25157               	.global	HZ_RefeshCounter2
 25160               	HZ_RefeshCounter2:
 25161 002f 0000      		.skip 2,0
 25162               	.global	ekgCounter
 25163               	.global	ekgCounter
 25166               	ekgCounter:
 25167 0031 0000      		.skip 2,0
 25168               	.global	tempTime
 25169               	.global	tempTime
 25172               	tempTime:
 25173 0033 0000 0000 		.skip 4,0
 25174               	.global	commandCounter
 25175               		.data
 25178               	commandCounter:
 25179 070e 30        		.byte	48
 25180               	.global	timeOutCounter
 25181               	.global	timeOutCounter
 25182               		.section .bss
 25185               	timeOutCounter:
 25186 0037 0000      		.skip 2,0
 25187               	.global	uploadFileSize
 25188               	.global	uploadFileSize
 25191               	uploadFileSize:
 25192 0039 0000 0000 		.skip 4,0
 25193               	.global	uploadPercentBS
 25194               	.global	uploadPercentBS
 25197               	uploadPercentBS:
 25198 003d 00        		.skip 1,0
 25199               	.global	numberOfPacketsToUpload
 25200               	.global	numberOfPacketsToUpload
 25203               	numberOfPacketsToUpload:
 25204 003e 0000 0000 		.skip 4,0
 25205               	.global	leftOverBytesToUpload
 25206               	.global	leftOverBytesToUpload
 25209               	leftOverBytesToUpload:
 25210 0042 0000 0000 		.skip 4,0
 25211               	.global	connected
 25212               	.global	connected
 25215               	connected:
 25216 0046 00        		.skip 1,0
 25217               	.global	uploading
 25218               	.global	uploading
 25221               	uploading:
 25222 0047 00        		.skip 1,0
 25223               	.global	okToOpenDirectory
 25224               	.global	okToOpenDirectory
 25227               	okToOpenDirectory:
 25228 0048 00        		.skip 1,0
 25229               	.global	okToGrabNextFileName
 25230               	.global	okToGrabNextFileName
 25233               	okToGrabNextFileName:
 25234 0049 00        		.skip 1,0
 25235               	.global	okToUpload
 25236               	.global	okToUpload
 25239               	okToUpload:
 25240 004a 00        		.skip 1,0
 25241               	.global	doneUploading
 25242               	.global	doneUploading
 25245               	doneUploading:
 25246 004b 00        		.skip 1,0
 25247               	.global	okToOpenFileToUpload
 25248               	.global	okToOpenFileToUpload
 25251               	okToOpenFileToUpload:
 25252 004c 00        		.skip 1,0
 25253               	.global	uploadFileOpened
 25254               	.global	uploadFileOpened
 25257               	uploadFileOpened:
 25258 004d 00        		.skip 1,0
 25259               	.global	okToFillUploadFileBuffer
 25260               	.global	okToFillUploadFileBuffer
 25263               	okToFillUploadFileBuffer:
 25264 004e 00        		.skip 1,0
 25265               	.global	uploadFileBufferFull
 25266               	.global	uploadFileBufferFull
 25269               	uploadFileBufferFull:
 25270 004f 00        		.skip 1,0
 25271               	.global	okToCloseUploadFile
 25272               	.global	okToCloseUploadFile
 25275               	okToCloseUploadFile:
 25276 0050 00        		.skip 1,0
 25277               	.global	okToEraseFile
 25278               	.global	okToEraseFile
 25281               	okToEraseFile:
 25282 0051 00        		.skip 1,0
 25283               	.global	fileExists
 25284               	.global	fileExists
 25287               	fileExists:
 25288 0052 00        		.skip 1,0
 25289               	.global	timeIsValid
 25290               	.global	timeIsValid
 25293               	timeIsValid:
 25294 0053 00        		.skip 1,0
 25295               	.global	okToOpenLogFile
 25296               	.global	okToOpenLogFile
 25299               	okToOpenLogFile:
 25300 0054 00        		.skip 1,0
 25301               	.global	okToWriteToLogFile
 25302               	.global	okToWriteToLogFile
 25305               	okToWriteToLogFile:
 25306 0055 00        		.skip 1,0
 25307               	.global	okToCloseLogFile
 25308               	.global	okToCloseLogFile
 25311               	okToCloseLogFile:
 25312 0056 00        		.skip 1,0
 25313               	.global	restartingFile
 25314               	.global	restartingFile
 25317               	restartingFile:
 25318 0057 00        		.skip 1,0
 25319               	.global	lengthOfCurrentFile
 25320               	.global	lengthOfCurrentFile
 25323               	lengthOfCurrentFile:
 25324 0058 0000      		.skip 2,0
 25325               	.global	spaceRemainingOnDisk
 25326               	.global	spaceRemainingOnDisk
 25329               	spaceRemainingOnDisk:
 25330 005a 0000 0000 		.skip 4,0
 25331               	.global	totalDiskSpace
 25332               	.global	totalDiskSpace
 25335               	totalDiskSpace:
 25336 005e 0000 0000 		.skip 4,0
 25337               	.global	percentDiskUsed
 25338               	.global	percentDiskUsed
 25341               	percentDiskUsed:
 25342 0062 0000 0000 		.skip 4,0
 25343               	.global	syncCounter
 25344               	.global	syncCounter
 25347               	syncCounter:
 25348 0066 0000      		.skip 2,0
 25349               	.global	debounceTimer
 25350               	.global	debounceTimer
 25353               	debounceTimer:
 25354 0068 00        		.skip 1,0
 25355               	.global	debounceEnabled
 25356               	.global	debounceEnabled
 25359               	debounceEnabled:
 25360 0069 00        		.skip 1,0
 25361               	.global	batteryVoltageOk
 25362               		.data
 25365               	batteryVoltageOk:
 25366 070f 01        		.byte	1
 25369               	cstbl.6342:
 25370 0710 0080      		.word	-32768
 25371 0712 0040      		.word	16384
 25372 0714 0020      		.word	8192
 25373 0716 0010      		.word	4096
 25374 0718 0008      		.word	2048
 25375 071a 0040      		.word	16384
 25376 071c 0020      		.word	8192
 25377 071e 0010      		.word	4096
 25378 0720 0008      		.word	2048
 25379 0722 0004      		.word	1024
 25380 0724 0002      		.word	512
 25383               	sstbl.6341:
 25384 0726 00        		.byte	0
 25385 0727 40        		.byte	64
 25386 0728 1F        		.byte	31
 25387 0729 00        		.byte	0
 25388 072a 00        		.byte	0
 25389 072b A0        		.byte	-96
 25390 072c 0F        		.byte	15
 25391 072d 00        		.byte	0
 25392 072e 00        		.byte	0
 25393 072f D0        		.byte	-48
 25394 0730 07        		.byte	7
 25395 0731 00        		.byte	0
 25396 0732 00        		.byte	0
 25397 0733 E8        		.byte	-24
 25398 0734 03        		.byte	3
 25399 0735 00        		.byte	0
 25400 0736 00        		.byte	0
 25401 0737 F4        		.byte	-12
 25402 0738 01        		.byte	1
 25403 0739 00        		.byte	0
 25404 073a 00        		.byte	0
 25405 073b FA        		.byte	-6
 25406 073c 00        		.byte	0
 25407 073d 00        		.byte	0
 25408 073e 00        		.byte	0
 25409 073f 7D        		.byte	125
 25410 0740 00        		.byte	0
 25411 0741 00        		.byte	0
 25412 0742 80        		.byte	-128
 25413 0743 3E        		.byte	62
 25414 0744 00        		.byte	0
 25415 0745 00        		.byte	0
 25416 0746 40        		.byte	64
 25417 0747 1F        		.byte	31
 25418 0748 00        		.byte	0
 25419 0749 00        		.byte	0
 25420 074a A0        		.byte	-96
 25421 074b 0F        		.byte	15
 25422 074c 00        		.byte	0
 25423 074d 00        		.byte	0
 25424 074e 00        		.byte	0
 25425 074f 00        		.byte	0
 25426 0750 00        		.byte	0
 25427 0751 00        		.byte	0
 25430               	Stat:
 25431 0752 01        		.byte	1
 25434               	monthDays:
 25435 0753 1F        		.byte	31
 25436 0754 1C        		.byte	28
 25437 0755 1F        		.byte	31
 25438 0756 1E        		.byte	30
 25439 0757 1F        		.byte	31
 25440 0758 1E        		.byte	30
 25441 0759 1F        		.byte	31
 25442 075a 1F        		.byte	31
 25443 075b 1E        		.byte	30
 25444 075c 1F        		.byte	31
 25445 075d 1E        		.byte	30
 25446 075e 1F        		.byte	31
 25447               		.lcomm Timer1,1
 25448               		.lcomm Timer2,1
 25449               		.lcomm CardType,1
 25450               		.lcomm FatFs,4
 25451               		.lcomm Fsid,2
 25452               		.lcomm fso0,558
 25453               		.lcomm fso1,558
 25454               		.comm deviceID,50,1
 25455               		.comm temperatureSampleStartTime,40,1
 25456               		.comm temperatureBuffer,40,1
 25457               		.comm okToSendTemperatureBuffer,2,1
 25458               		.comm respirationSampleStartTime,200,1
 25459               		.comm respirationBuffer,300,1
 25460               		.comm okToSendRespirationBuffer,3,1
 25461               		.comm EKGSampleStartTime,1200,1
 25462               		.comm EKGBuffer,1800,1
 25463               		.comm okToSendEKGBuffer,3,1
 25464               		.comm humiditySampleStartTime,40,1
 25465               		.comm humidityBuffer,40,1
 25466               		.comm okToSendHumidityBuffer,2,1
 25467               		.comm accelSampleStartTime,1200,1
 25468               		.comm accelBuffer,3600,1
 25469               		.comm okToSendAccelBuffer,2,1
 25470               		.comm DebugBuffer,100,1
 25471               		.comm ledState,2,1
 25472               		.comm ledCounter,2,1
 25473               		.comm time,8,1
 25474               		.comm fs,2,1
 25475               		.comm fno,22,1
 25476               		.comm fno2,22,1
 25477               		.comm dir,22,1
 25478               		.comm Log_File,544,1
 25479               		.comm Upload_File,544,1
 25480               		.comm fileName,20,1
 25481               		.comm tmpString,10,1
 25482               		.comm tmp8,1,1
 25483               		.comm tmp16,2,1
 25484               		.comm tmp32,4,1
 25485               		.comm CRC,4,1
 25486               		.comm currentLogFile,15,1
 25487               		.comm auth,50,1
 25488               		.comm phrase,50,1
 25489               		.comm key,50,1
 25490               		.comm ssid,50,1
 25491               		.comm nickname,50,1
 25492               		.comm port,50,1
 25493               		.comm server,50,1
 25494               		.comm user,10,1
 25495               		.comm daylightTime,10,1
 25496               		.comm demoModeString,10,1
 25497               		.comm fastString,10,1
 25498               		.comm zeroOffsetA,2,1
 25499               		.comm zeroOffsetB,2,1
 25500               		.comm uploadFileBuffer,1000,1
 25501               		.comm fileToUpload,15,1
 25502               		.comm availableFileName,15,1
 25503               		.comm fileToErase,20,1
 25504               		.comm command,50,1
 25505               		.comm eraseFileReturn,1,1
 25506               		.comm uploadCRC,4,1
 25507               		.comm temp,50,1
 25508               		.comm okToGetRemainingSpace,1,1
 26661               	.Letext0:
DEFINED SYMBOLS
                            *ABS*:00000000 mainChestStrap.c
/var/folders/wz/wzM13vx1HuGiQAygYPOM9k+++TI/-Tmp-//ccfHu5fj.s:2      *ABS*:0000003f __SREG__
/var/folders/wz/wzM13vx1HuGiQAygYPOM9k+++TI/-Tmp-//ccfHu5fj.s:3      *ABS*:0000003e __SP_H__
/var/folders/wz/wzM13vx1HuGiQAygYPOM9k+++TI/-Tmp-//ccfHu5fj.s:4      *ABS*:0000003d __SP_L__
/var/folders/wz/wzM13vx1HuGiQAygYPOM9k+++TI/-Tmp-//ccfHu5fj.s:5      *ABS*:00000034 __CCP__
/var/folders/wz/wzM13vx1HuGiQAygYPOM9k+++TI/-Tmp-//ccfHu5fj.s:6      *ABS*:00000000 __tmp_reg__
/var/folders/wz/wzM13vx1HuGiQAygYPOM9k+++TI/-Tmp-//ccfHu5fj.s:7      *ABS*:00000001 __zero_reg__
/var/folders/wz/wzM13vx1HuGiQAygYPOM9k+++TI/-Tmp-//ccfHu5fj.s:18     .text:00000000 CCPWrite
/var/folders/wz/wzM13vx1HuGiQAygYPOM9k+++TI/-Tmp-//ccfHu5fj.s:67     .text:0000002a Debug_Init
/var/folders/wz/wzM13vx1HuGiQAygYPOM9k+++TI/-Tmp-//ccfHu5fj.s:24024  .bss:0000001b Debug_writeLocation
/var/folders/wz/wzM13vx1HuGiQAygYPOM9k+++TI/-Tmp-//ccfHu5fj.s:24018  .bss:00000019 Debug_readLocation
/var/folders/wz/wzM13vx1HuGiQAygYPOM9k+++TI/-Tmp-//ccfHu5fj.s:202    .text:000000ec Debug_ClearBuffer
/var/folders/wz/wzM13vx1HuGiQAygYPOM9k+++TI/-Tmp-//ccfHu5fj.s:230    .text:00000114 Debug_CharReadyToRead
/var/folders/wz/wzM13vx1HuGiQAygYPOM9k+++TI/-Tmp-//ccfHu5fj.s:254    .text:00000132 Debug_GetByte
                            *COM*:00000064 DebugBuffer
/var/folders/wz/wzM13vx1HuGiQAygYPOM9k+++TI/-Tmp-//ccfHu5fj.s:311    .text:00000186 Debug_SendByte
/var/folders/wz/wzM13vx1HuGiQAygYPOM9k+++TI/-Tmp-//ccfHu5fj.s:24030  .bss:0000001d Debug_timeOutCounter
/var/folders/wz/wzM13vx1HuGiQAygYPOM9k+++TI/-Tmp-//ccfHu5fj.s:394    .text:00000202 __vector_25
/var/folders/wz/wzM13vx1HuGiQAygYPOM9k+++TI/-Tmp-//ccfHu5fj.s:450    .text:00000268 Leds_Init
                            *COM*:00000002 ledState
/var/folders/wz/wzM13vx1HuGiQAygYPOM9k+++TI/-Tmp-//ccfHu5fj.s:487    .text:0000028c Leds_State
/var/folders/wz/wzM13vx1HuGiQAygYPOM9k+++TI/-Tmp-//ccfHu5fj.s:506    .text:00000298 Leds_Set
/var/folders/wz/wzM13vx1HuGiQAygYPOM9k+++TI/-Tmp-//ccfHu5fj.s:530    .text:000002ae Leds_Clear
/var/folders/wz/wzM13vx1HuGiQAygYPOM9k+++TI/-Tmp-//ccfHu5fj.s:554    .text:000002c4 Leds_Toggle
/var/folders/wz/wzM13vx1HuGiQAygYPOM9k+++TI/-Tmp-//ccfHu5fj.s:578    .text:000002da Time_Init
/var/folders/wz/wzM13vx1HuGiQAygYPOM9k+++TI/-Tmp-//ccfHu5fj.s:608    .text:000002fc Time_Set
/var/folders/wz/wzM13vx1HuGiQAygYPOM9k+++TI/-Tmp-//ccfHu5fj.s:735    .text:000003a4 Time_CheckVBatSystem
/var/folders/wz/wzM13vx1HuGiQAygYPOM9k+++TI/-Tmp-//ccfHu5fj.s:770    .text:000003d4 Time_Get
/var/folders/wz/wzM13vx1HuGiQAygYPOM9k+++TI/-Tmp-//ccfHu5fj.s:800    .text:000003fe Time_Get32BitTimer
/var/folders/wz/wzM13vx1HuGiQAygYPOM9k+++TI/-Tmp-//ccfHu5fj.s:864    .text:0000044e Time_UTCSecsToTime
/var/folders/wz/wzM13vx1HuGiQAygYPOM9k+++TI/-Tmp-//ccfHu5fj.s:25434  .data:00000753 monthDays
/var/folders/wz/wzM13vx1HuGiQAygYPOM9k+++TI/-Tmp-//ccfHu5fj.s:1182   .text:00000654 wait_ready
/var/folders/wz/wzM13vx1HuGiQAygYPOM9k+++TI/-Tmp-//ccfHu5fj.s:25447  .bss:0000006b Timer2
/var/folders/wz/wzM13vx1HuGiQAygYPOM9k+++TI/-Tmp-//ccfHu5fj.s:1238   .text:00000692 select
/var/folders/wz/wzM13vx1HuGiQAygYPOM9k+++TI/-Tmp-//ccfHu5fj.s:1291   .text:000006cc rcvr_datablock
                             .bss:0000006a Timer1
/var/folders/wz/wzM13vx1HuGiQAygYPOM9k+++TI/-Tmp-//ccfHu5fj.s:1435   .text:00000790 xmit_datablock
/var/folders/wz/wzM13vx1HuGiQAygYPOM9k+++TI/-Tmp-//ccfHu5fj.s:1552   .text:0000082e send_cmd
/var/folders/wz/wzM13vx1HuGiQAygYPOM9k+++TI/-Tmp-//ccfHu5fj.s:1769   .text:00000946 disk_initialize
/var/folders/wz/wzM13vx1HuGiQAygYPOM9k+++TI/-Tmp-//ccfHu5fj.s:25430  .data:00000752 Stat
/var/folders/wz/wzM13vx1HuGiQAygYPOM9k+++TI/-Tmp-//ccfHu5fj.s:25448  .bss:0000006c CardType
/var/folders/wz/wzM13vx1HuGiQAygYPOM9k+++TI/-Tmp-//ccfHu5fj.s:2102   .text:00000b12 disk_status
/var/folders/wz/wzM13vx1HuGiQAygYPOM9k+++TI/-Tmp-//ccfHu5fj.s:2125   .text:00000b20 disk_read
/var/folders/wz/wzM13vx1HuGiQAygYPOM9k+++TI/-Tmp-//ccfHu5fj.s:2271   .text:00000be0 disk_write
/var/folders/wz/wzM13vx1HuGiQAygYPOM9k+++TI/-Tmp-//ccfHu5fj.s:2448   .text:00000cd0 disk_ioctl
/var/folders/wz/wzM13vx1HuGiQAygYPOM9k+++TI/-Tmp-//ccfHu5fj.s:3088   .text:00001076 disk_timerproc
/var/folders/wz/wzM13vx1HuGiQAygYPOM9k+++TI/-Tmp-//ccfHu5fj.s:3125   .text:0000109e get_fattime
/var/folders/wz/wzM13vx1HuGiQAygYPOM9k+++TI/-Tmp-//ccfHu5fj.s:24036  .bss:00000021 UNIX_Time
/var/folders/wz/wzM13vx1HuGiQAygYPOM9k+++TI/-Tmp-//ccfHu5fj.s:3256   .text:0000118e move_window
/var/folders/wz/wzM13vx1HuGiQAygYPOM9k+++TI/-Tmp-//ccfHu5fj.s:3417   .text:00001280 sync
/var/folders/wz/wzM13vx1HuGiQAygYPOM9k+++TI/-Tmp-//ccfHu5fj.s:3602   .text:0000139e get_fat
/var/folders/wz/wzM13vx1HuGiQAygYPOM9k+++TI/-Tmp-//ccfHu5fj.s:3889   .text:00001572 put_fat
/var/folders/wz/wzM13vx1HuGiQAygYPOM9k+++TI/-Tmp-//ccfHu5fj.s:4206   .text:0000174a remove_chain
/var/folders/wz/wzM13vx1HuGiQAygYPOM9k+++TI/-Tmp-//ccfHu5fj.s:4375   .text:00001840 create_chain
/var/folders/wz/wzM13vx1HuGiQAygYPOM9k+++TI/-Tmp-//ccfHu5fj.s:4696   .text:00001a26 clust2sect
/var/folders/wz/wzM13vx1HuGiQAygYPOM9k+++TI/-Tmp-//ccfHu5fj.s:4776   .text:00001aa0 dir_seek
/var/folders/wz/wzM13vx1HuGiQAygYPOM9k+++TI/-Tmp-//ccfHu5fj.s:5095   .text:00001c98 dir_next
/var/folders/wz/wzM13vx1HuGiQAygYPOM9k+++TI/-Tmp-//ccfHu5fj.s:5576   .text:00001f92 dir_read
/var/folders/wz/wzM13vx1HuGiQAygYPOM9k+++TI/-Tmp-//ccfHu5fj.s:5672   .text:00001ffa dir_register
/var/folders/wz/wzM13vx1HuGiQAygYPOM9k+++TI/-Tmp-//ccfHu5fj.s:5823   .text:000020a8 dir_remove
/var/folders/wz/wzM13vx1HuGiQAygYPOM9k+++TI/-Tmp-//ccfHu5fj.s:5882   .text:000020ea get_fileinfo
/var/folders/wz/wzM13vx1HuGiQAygYPOM9k+++TI/-Tmp-//ccfHu5fj.s:6081   .text:00002202 follow_path
/var/folders/wz/wzM13vx1HuGiQAygYPOM9k+++TI/-Tmp-//ccfHu5fj.s:6618   .text:000024ae check_fs
/var/folders/wz/wzM13vx1HuGiQAygYPOM9k+++TI/-Tmp-//ccfHu5fj.s:6772   .text:000025b4 chk_mounted
/var/folders/wz/wzM13vx1HuGiQAygYPOM9k+++TI/-Tmp-//ccfHu5fj.s:25449  .bss:0000006d FatFs
/var/folders/wz/wzM13vx1HuGiQAygYPOM9k+++TI/-Tmp-//ccfHu5fj.s:24042  .data:000002c4 Drives
/var/folders/wz/wzM13vx1HuGiQAygYPOM9k+++TI/-Tmp-//ccfHu5fj.s:25450  .bss:00000071 Fsid
/var/folders/wz/wzM13vx1HuGiQAygYPOM9k+++TI/-Tmp-//ccfHu5fj.s:7665   .text:00002ba0 validate
/var/folders/wz/wzM13vx1HuGiQAygYPOM9k+++TI/-Tmp-//ccfHu5fj.s:7715   .text:00002bd4 f_mount
/var/folders/wz/wzM13vx1HuGiQAygYPOM9k+++TI/-Tmp-//ccfHu5fj.s:7777   .text:00002c16 f_open
/var/folders/wz/wzM13vx1HuGiQAygYPOM9k+++TI/-Tmp-//ccfHu5fj.s:8258   .text:00002f00 f_read
/var/folders/wz/wzM13vx1HuGiQAygYPOM9k+++TI/-Tmp-//ccfHu5fj.s:8927   .text:000032ec f_write
/var/folders/wz/wzM13vx1HuGiQAygYPOM9k+++TI/-Tmp-//ccfHu5fj.s:9690   .text:00003774 f_sync
/var/folders/wz/wzM13vx1HuGiQAygYPOM9k+++TI/-Tmp-//ccfHu5fj.s:9872   .text:00003882 f_close
/var/folders/wz/wzM13vx1HuGiQAygYPOM9k+++TI/-Tmp-//ccfHu5fj.s:9902   .text:0000389a f_lseek
/var/folders/wz/wzM13vx1HuGiQAygYPOM9k+++TI/-Tmp-//ccfHu5fj.s:10598  .text:00003cf6 f_opendir
/var/folders/wz/wzM13vx1HuGiQAygYPOM9k+++TI/-Tmp-//ccfHu5fj.s:10738  .text:00003dbc f_readdir
/var/folders/wz/wzM13vx1HuGiQAygYPOM9k+++TI/-Tmp-//ccfHu5fj.s:10847  .text:00003e52 f_stat
/var/folders/wz/wzM13vx1HuGiQAygYPOM9k+++TI/-Tmp-//ccfHu5fj.s:10938  .text:00003ed0 f_getfree
/var/folders/wz/wzM13vx1HuGiQAygYPOM9k+++TI/-Tmp-//ccfHu5fj.s:11319  .text:0000411c f_truncate
/var/folders/wz/wzM13vx1HuGiQAygYPOM9k+++TI/-Tmp-//ccfHu5fj.s:11510  .text:00004236 f_unlink
/var/folders/wz/wzM13vx1HuGiQAygYPOM9k+++TI/-Tmp-//ccfHu5fj.s:11731  .text:0000436a f_mkdir
/var/folders/wz/wzM13vx1HuGiQAygYPOM9k+++TI/-Tmp-//ccfHu5fj.s:12269  .text:00004684 f_chmod
/var/folders/wz/wzM13vx1HuGiQAygYPOM9k+++TI/-Tmp-//ccfHu5fj.s:12374  .text:0000470e f_utime
/var/folders/wz/wzM13vx1HuGiQAygYPOM9k+++TI/-Tmp-//ccfHu5fj.s:12484  .text:000047a8 f_rename
/var/folders/wz/wzM13vx1HuGiQAygYPOM9k+++TI/-Tmp-//ccfHu5fj.s:12901  .text:000049f6 f_mkfs
/var/folders/wz/wzM13vx1HuGiQAygYPOM9k+++TI/-Tmp-//ccfHu5fj.s:25383  .data:00000726 sstbl.6341
/var/folders/wz/wzM13vx1HuGiQAygYPOM9k+++TI/-Tmp-//ccfHu5fj.s:25369  .data:00000710 cstbl.6342
/var/folders/wz/wzM13vx1HuGiQAygYPOM9k+++TI/-Tmp-//ccfHu5fj.s:14657  .text:000054fa f_gets
/var/folders/wz/wzM13vx1HuGiQAygYPOM9k+++TI/-Tmp-//ccfHu5fj.s:14772  .text:00005596 f_putc
/var/folders/wz/wzM13vx1HuGiQAygYPOM9k+++TI/-Tmp-//ccfHu5fj.s:14833  .text:000055e2 f_puts
/var/folders/wz/wzM13vx1HuGiQAygYPOM9k+++TI/-Tmp-//ccfHu5fj.s:14893  .text:0000562a SD_Close
                            *COM*:00000220 Log_File
/var/folders/wz/wzM13vx1HuGiQAygYPOM9k+++TI/-Tmp-//ccfHu5fj.s:14909  .text:00005634 SD_Inserted
/var/folders/wz/wzM13vx1HuGiQAygYPOM9k+++TI/-Tmp-//ccfHu5fj.s:24112  .bss:0000002b sdValid
/var/folders/wz/wzM13vx1HuGiQAygYPOM9k+++TI/-Tmp-//ccfHu5fj.s:14923  .text:0000563a SD_WriteBuffer
                            *COM*:00000004 CRC
/var/folders/wz/wzM13vx1HuGiQAygYPOM9k+++TI/-Tmp-//ccfHu5fj.s:24124  .data:0000030e crc_table
/var/folders/wz/wzM13vx1HuGiQAygYPOM9k+++TI/-Tmp-//ccfHu5fj.s:15037  .text:00005708 SD_Write32
                            *COM*:00000004 tmp32
/var/folders/wz/wzM13vx1HuGiQAygYPOM9k+++TI/-Tmp-//ccfHu5fj.s:15076  .text:0000573c SD_Write16
                            *COM*:00000002 tmp16
/var/folders/wz/wzM13vx1HuGiQAygYPOM9k+++TI/-Tmp-//ccfHu5fj.s:15102  .text:00005752 SD_Write8
                            *COM*:00000001 tmp8
/var/folders/wz/wzM13vx1HuGiQAygYPOM9k+++TI/-Tmp-//ccfHu5fj.s:15124  .text:00005764 SD_ClearCRC
/var/folders/wz/wzM13vx1HuGiQAygYPOM9k+++TI/-Tmp-//ccfHu5fj.s:15145  .text:0000577e SD_WriteCRC
/var/folders/wz/wzM13vx1HuGiQAygYPOM9k+++TI/-Tmp-//ccfHu5fj.s:15171  .text:0000579c SD_GetSpaceRemaining
                            *COM*:00000002 fs
/var/folders/wz/wzM13vx1HuGiQAygYPOM9k+++TI/-Tmp-//ccfHu5fj.s:15247  .text:00005816 SD_Timer_Init
/var/folders/wz/wzM13vx1HuGiQAygYPOM9k+++TI/-Tmp-//ccfHu5fj.s:15276  .text:00005834 SD_Init
/var/folders/wz/wzM13vx1HuGiQAygYPOM9k+++TI/-Tmp-//ccfHu5fj.s:25451  .bss:00000073 fso0
/var/folders/wz/wzM13vx1HuGiQAygYPOM9k+++TI/-Tmp-//ccfHu5fj.s:25452  .bss:000002a1 fso1
/var/folders/wz/wzM13vx1HuGiQAygYPOM9k+++TI/-Tmp-//ccfHu5fj.s:15330  .text:0000587c __vector_47
/var/folders/wz/wzM13vx1HuGiQAygYPOM9k+++TI/-Tmp-//ccfHu5fj.s:15392  .text:000058e0 Button_Init
/var/folders/wz/wzM13vx1HuGiQAygYPOM9k+++TI/-Tmp-//ccfHu5fj.s:15465  .text:00005936 Button_Pressed
/var/folders/wz/wzM13vx1HuGiQAygYPOM9k+++TI/-Tmp-//ccfHu5fj.s:15498  .text:0000595c Accel_Write_Byte
/var/folders/wz/wzM13vx1HuGiQAygYPOM9k+++TI/-Tmp-//ccfHu5fj.s:15521  .text:0000596c Accel_Read_Byte
/var/folders/wz/wzM13vx1HuGiQAygYPOM9k+++TI/-Tmp-//ccfHu5fj.s:15548  .text:00005980 Accel_WriteToAddress
/var/folders/wz/wzM13vx1HuGiQAygYPOM9k+++TI/-Tmp-//ccfHu5fj.s:15600  .text:000059b0 Accel_ReadFromAddress
/var/folders/wz/wzM13vx1HuGiQAygYPOM9k+++TI/-Tmp-//ccfHu5fj.s:15660  .text:000059e4 Accel_ReadResults
/var/folders/wz/wzM13vx1HuGiQAygYPOM9k+++TI/-Tmp-//ccfHu5fj.s:15879  .text:00005ae4 Sensors_ResetAccelBuffers
/var/folders/wz/wzM13vx1HuGiQAygYPOM9k+++TI/-Tmp-//ccfHu5fj.s:23982  .bss:0000000f accelBufferCounter
/var/folders/wz/wzM13vx1HuGiQAygYPOM9k+++TI/-Tmp-//ccfHu5fj.s:23976  .bss:0000000e accelBufferToWriteTo
                            *COM*:00000002 okToSendAccelBuffer
/var/folders/wz/wzM13vx1HuGiQAygYPOM9k+++TI/-Tmp-//ccfHu5fj.s:15901  .text:00005afa Accel_Init
/var/folders/wz/wzM13vx1HuGiQAygYPOM9k+++TI/-Tmp-//ccfHu5fj.s:15965  .text:00005b54 __vector_108
/var/folders/wz/wzM13vx1HuGiQAygYPOM9k+++TI/-Tmp-//ccfHu5fj.s:23922  .bss:00000001 recording
/var/folders/wz/wzM13vx1HuGiQAygYPOM9k+++TI/-Tmp-//ccfHu5fj.s:23916  .bss:00000000 wantToRecordFast
                            *COM*:000004b0 accelSampleStartTime
/var/folders/wz/wzM13vx1HuGiQAygYPOM9k+++TI/-Tmp-//ccfHu5fj.s:16083  .text:00005c30 Sensors_ReadTemperature
/var/folders/wz/wzM13vx1HuGiQAygYPOM9k+++TI/-Tmp-//ccfHu5fj.s:16101  .text:00005c3c Sensors_ReadRespiration
/var/folders/wz/wzM13vx1HuGiQAygYPOM9k+++TI/-Tmp-//ccfHu5fj.s:16119  .text:00005c48 Sensors_ReadEKG
/var/folders/wz/wzM13vx1HuGiQAygYPOM9k+++TI/-Tmp-//ccfHu5fj.s:16137  .text:00005c54 Sensors_ReadHumidity
                            *COM*:00000002 zeroOffsetA
/var/folders/wz/wzM13vx1HuGiQAygYPOM9k+++TI/-Tmp-//ccfHu5fj.s:16211  .text:00005cce Sensors_ResetTemperatureBuffers
/var/folders/wz/wzM13vx1HuGiQAygYPOM9k+++TI/-Tmp-//ccfHu5fj.s:23934  .bss:00000003 temperatureBufferCounter
/var/folders/wz/wzM13vx1HuGiQAygYPOM9k+++TI/-Tmp-//ccfHu5fj.s:23928  .bss:00000002 temperatureBufferToWriteTo
                            *COM*:00000002 okToSendTemperatureBuffer
/var/folders/wz/wzM13vx1HuGiQAygYPOM9k+++TI/-Tmp-//ccfHu5fj.s:16233  .text:00005ce4 Sensors_ResetRespirationBuffers
/var/folders/wz/wzM13vx1HuGiQAygYPOM9k+++TI/-Tmp-//ccfHu5fj.s:23946  .bss:00000006 respirationBufferCounter
/var/folders/wz/wzM13vx1HuGiQAygYPOM9k+++TI/-Tmp-//ccfHu5fj.s:23940  .bss:00000005 respirationBufferToWriteTo
                            *COM*:00000003 okToSendRespirationBuffer
/var/folders/wz/wzM13vx1HuGiQAygYPOM9k+++TI/-Tmp-//ccfHu5fj.s:16256  .text:00005cfe Sensors_ResetEKGBuffers
/var/folders/wz/wzM13vx1HuGiQAygYPOM9k+++TI/-Tmp-//ccfHu5fj.s:23958  .bss:00000009 EKGBufferCounter
/var/folders/wz/wzM13vx1HuGiQAygYPOM9k+++TI/-Tmp-//ccfHu5fj.s:23952  .bss:00000008 EKGBufferToWriteTo
                            *COM*:00000003 okToSendEKGBuffer
/var/folders/wz/wzM13vx1HuGiQAygYPOM9k+++TI/-Tmp-//ccfHu5fj.s:16279  .text:00005d18 Sensors_ResetHumidityBuffers
/var/folders/wz/wzM13vx1HuGiQAygYPOM9k+++TI/-Tmp-//ccfHu5fj.s:23970  .bss:0000000c humidityBufferCounter
/var/folders/wz/wzM13vx1HuGiQAygYPOM9k+++TI/-Tmp-//ccfHu5fj.s:23964  .bss:0000000b humidityBufferToWriteTo
                            *COM*:00000002 okToSendHumidityBuffer
/var/folders/wz/wzM13vx1HuGiQAygYPOM9k+++TI/-Tmp-//ccfHu5fj.s:16301  .text:00005d2e Sensors_Init
                            *COM*:00000002 zeroOffsetB
/var/folders/wz/wzM13vx1HuGiQAygYPOM9k+++TI/-Tmp-//ccfHu5fj.s:16638  .text:00005ebe __vector_83
/var/folders/wz/wzM13vx1HuGiQAygYPOM9k+++TI/-Tmp-//ccfHu5fj.s:23904  .data:000002c2 wantToRecordEKG
                            *COM*:000004b0 EKGSampleStartTime
                            *COM*:00000708 EKGBuffer
/var/folders/wz/wzM13vx1HuGiQAygYPOM9k+++TI/-Tmp-//ccfHu5fj.s:25160  .bss:0000002f HZ_RefeshCounter2
/var/folders/wz/wzM13vx1HuGiQAygYPOM9k+++TI/-Tmp-//ccfHu5fj.s:23909  .data:000002c3 wantToRecordRespiration
                            *COM*:000000c8 respirationSampleStartTime
                            *COM*:0000012c respirationBuffer
/var/folders/wz/wzM13vx1HuGiQAygYPOM9k+++TI/-Tmp-//ccfHu5fj.s:25154  .bss:0000002d HZ_RefeshCounter
/var/folders/wz/wzM13vx1HuGiQAygYPOM9k+++TI/-Tmp-//ccfHu5fj.s:23994  .bss:00000012 rtcBlockCounter
/var/folders/wz/wzM13vx1HuGiQAygYPOM9k+++TI/-Tmp-//ccfHu5fj.s:23988  .bss:00000011 okToSendRTCBlock
/var/folders/wz/wzM13vx1HuGiQAygYPOM9k+++TI/-Tmp-//ccfHu5fj.s:23894  .data:000002c0 wantToRecordTemperature
                            *COM*:00000028 temperatureSampleStartTime
                            *COM*:00000028 temperatureBuffer
/var/folders/wz/wzM13vx1HuGiQAygYPOM9k+++TI/-Tmp-//ccfHu5fj.s:23899  .data:000002c1 wantToRecordHumidity
                            *COM*:00000028 humiditySampleStartTime
                            *COM*:00000028 humidityBuffer
/var/folders/wz/wzM13vx1HuGiQAygYPOM9k+++TI/-Tmp-//ccfHu5fj.s:17123  .text:0000628a SP_ReadCalibrationByte
/var/folders/wz/wzM13vx1HuGiQAygYPOM9k+++TI/-Tmp-//ccfHu5fj.s:17158  .text:0000629e Uploader_getTime
                            *COM*:00000032 command
/var/folders/wz/wzM13vx1HuGiQAygYPOM9k+++TI/-Tmp-//ccfHu5fj.s:17318  .text:0000635a Uploader_eraseFile
                            *COM*:00000014 fileToErase
/var/folders/wz/wzM13vx1HuGiQAygYPOM9k+++TI/-Tmp-//ccfHu5fj.s:25281  .bss:00000051 okToEraseFile
                            *COM*:00000001 eraseFileReturn
/var/folders/wz/wzM13vx1HuGiQAygYPOM9k+++TI/-Tmp-//ccfHu5fj.s:17498  .text:00006426 Uploader_ClearCRC
                            *COM*:00000004 uploadCRC
/var/folders/wz/wzM13vx1HuGiQAygYPOM9k+++TI/-Tmp-//ccfHu5fj.s:17519  .text:00006440 Uploader_WriteCRC
/var/folders/wz/wzM13vx1HuGiQAygYPOM9k+++TI/-Tmp-//ccfHu5fj.s:17583  .text:000064a8 Uploader_uploadFile
/var/folders/wz/wzM13vx1HuGiQAygYPOM9k+++TI/-Tmp-//ccfHu5fj.s:25221  .bss:00000047 uploading
                            *COM*:0000000f fileToUpload
/var/folders/wz/wzM13vx1HuGiQAygYPOM9k+++TI/-Tmp-//ccfHu5fj.s:25251  .bss:0000004c okToOpenFileToUpload
/var/folders/wz/wzM13vx1HuGiQAygYPOM9k+++TI/-Tmp-//ccfHu5fj.s:25257  .bss:0000004d uploadFileOpened
/var/folders/wz/wzM13vx1HuGiQAygYPOM9k+++TI/-Tmp-//ccfHu5fj.s:25287  .bss:00000052 fileExists
/var/folders/wz/wzM13vx1HuGiQAygYPOM9k+++TI/-Tmp-//ccfHu5fj.s:25275  .bss:00000050 okToCloseUploadFile
/var/folders/wz/wzM13vx1HuGiQAygYPOM9k+++TI/-Tmp-//ccfHu5fj.s:25239  .bss:0000004a okToUpload
/var/folders/wz/wzM13vx1HuGiQAygYPOM9k+++TI/-Tmp-//ccfHu5fj.s:25191  .bss:00000039 uploadFileSize
/var/folders/wz/wzM13vx1HuGiQAygYPOM9k+++TI/-Tmp-//ccfHu5fj.s:25203  .bss:0000003e numberOfPacketsToUpload
/var/folders/wz/wzM13vx1HuGiQAygYPOM9k+++TI/-Tmp-//ccfHu5fj.s:25209  .bss:00000042 leftOverBytesToUpload
/var/folders/wz/wzM13vx1HuGiQAygYPOM9k+++TI/-Tmp-//ccfHu5fj.s:25269  .bss:0000004f uploadFileBufferFull
/var/folders/wz/wzM13vx1HuGiQAygYPOM9k+++TI/-Tmp-//ccfHu5fj.s:25263  .bss:0000004e okToFillUploadFileBuffer
/var/folders/wz/wzM13vx1HuGiQAygYPOM9k+++TI/-Tmp-//ccfHu5fj.s:25197  .bss:0000003d uploadPercentBS
                            *COM*:000003e8 uploadFileBuffer
/var/folders/wz/wzM13vx1HuGiQAygYPOM9k+++TI/-Tmp-//ccfHu5fj.s:18207  .text:000068bc Uploader_UpdateCRC
/var/folders/wz/wzM13vx1HuGiQAygYPOM9k+++TI/-Tmp-//ccfHu5fj.s:18274  .text:00006938 Clock_Init
/var/folders/wz/wzM13vx1HuGiQAygYPOM9k+++TI/-Tmp-//ccfHu5fj.s:18349  .text:00006992 Disable_JTAG
/var/folders/wz/wzM13vx1HuGiQAygYPOM9k+++TI/-Tmp-//ccfHu5fj.s:18403  .text:000069c2 Interrupt_Init
/var/folders/wz/wzM13vx1HuGiQAygYPOM9k+++TI/-Tmp-//ccfHu5fj.s:18427  .text:000069d0 __vector_104
/var/folders/wz/wzM13vx1HuGiQAygYPOM9k+++TI/-Tmp-//ccfHu5fj.s:25293  .bss:00000053 timeIsValid
/var/folders/wz/wzM13vx1HuGiQAygYPOM9k+++TI/-Tmp-//ccfHu5fj.s:25359  .bss:00000069 debounceEnabled
/var/folders/wz/wzM13vx1HuGiQAygYPOM9k+++TI/-Tmp-//ccfHu5fj.s:25341  .bss:00000062 percentDiskUsed
/var/folders/wz/wzM13vx1HuGiQAygYPOM9k+++TI/-Tmp-//ccfHu5fj.s:25299  .bss:00000054 okToOpenLogFile
/var/folders/wz/wzM13vx1HuGiQAygYPOM9k+++TI/-Tmp-//ccfHu5fj.s:25311  .bss:00000056 okToCloseLogFile
/var/folders/wz/wzM13vx1HuGiQAygYPOM9k+++TI/-Tmp-//ccfHu5fj.s:18537  .text:00006a94 Charger_Init
/var/folders/wz/wzM13vx1HuGiQAygYPOM9k+++TI/-Tmp-//ccfHu5fj.s:18557  .text:00006aa2 Charged
/var/folders/wz/wzM13vx1HuGiQAygYPOM9k+++TI/-Tmp-//ccfHu5fj.s:18580  .text:00006ab8 GUI_Init
/var/folders/wz/wzM13vx1HuGiQAygYPOM9k+++TI/-Tmp-//ccfHu5fj.s:18609  .text:00006ad6 __vector_77
/var/folders/wz/wzM13vx1HuGiQAygYPOM9k+++TI/-Tmp-//ccfHu5fj.s:25323  .bss:00000058 lengthOfCurrentFile
/var/folders/wz/wzM13vx1HuGiQAygYPOM9k+++TI/-Tmp-//ccfHu5fj.s:25317  .bss:00000057 restartingFile
/var/folders/wz/wzM13vx1HuGiQAygYPOM9k+++TI/-Tmp-//ccfHu5fj.s:25347  .bss:00000066 syncCounter
/var/folders/wz/wzM13vx1HuGiQAygYPOM9k+++TI/-Tmp-//ccfHu5fj.s:25353  .bss:00000068 debounceTimer
/var/folders/wz/wzM13vx1HuGiQAygYPOM9k+++TI/-Tmp-//ccfHu5fj.s:25365  .data:0000070f batteryVoltageOk
/var/folders/wz/wzM13vx1HuGiQAygYPOM9k+++TI/-Tmp-//ccfHu5fj.s:25215  .bss:00000046 connected
                            *COM*:00000002 ledCounter
/var/folders/wz/wzM13vx1HuGiQAygYPOM9k+++TI/-Tmp-//ccfHu5fj.s:19014  .text:00006d34 SD_BackroundWriter_Init
/var/folders/wz/wzM13vx1HuGiQAygYPOM9k+++TI/-Tmp-//ccfHu5fj.s:19043  .text:00006d52 SD_WriteRTCBlock
/var/folders/wz/wzM13vx1HuGiQAygYPOM9k+++TI/-Tmp-//ccfHu5fj.s:19132  .text:00006de2 getDeviceID
                            *COM*:00000032 deviceID
/var/folders/wz/wzM13vx1HuGiQAygYPOM9k+++TI/-Tmp-//ccfHu5fj.s:19544  .text:00006fba SD_WriteString
/var/folders/wz/wzM13vx1HuGiQAygYPOM9k+++TI/-Tmp-//ccfHu5fj.s:19654  .text:00007070 SD_WriteAccelBuffer
                            *COM*:00000e10 accelBuffer
/var/folders/wz/wzM13vx1HuGiQAygYPOM9k+++TI/-Tmp-//ccfHu5fj.s:19824  .text:00007192 SD_WriteEKGBuffer
/var/folders/wz/wzM13vx1HuGiQAygYPOM9k+++TI/-Tmp-//ccfHu5fj.s:19966  .text:0000727c SD_WriteRespirationBuffer
/var/folders/wz/wzM13vx1HuGiQAygYPOM9k+++TI/-Tmp-//ccfHu5fj.s:20107  .text:00007364 SD_WriteHumidityBuffer
/var/folders/wz/wzM13vx1HuGiQAygYPOM9k+++TI/-Tmp-//ccfHu5fj.s:20238  .text:00007438 SD_WriteTemperatureBuffer
/var/folders/wz/wzM13vx1HuGiQAygYPOM9k+++TI/-Tmp-//ccfHu5fj.s:20365  .text:0000750c Debug_SendString
/var/folders/wz/wzM13vx1HuGiQAygYPOM9k+++TI/-Tmp-//ccfHu5fj.s:20455  .text:00007574 Uploader_connectToComputer
/var/folders/wz/wzM13vx1HuGiQAygYPOM9k+++TI/-Tmp-//ccfHu5fj.s:25185  .bss:00000037 timeOutCounter
/var/folders/wz/wzM13vx1HuGiQAygYPOM9k+++TI/-Tmp-//ccfHu5fj.s:20679  .text:0000767a Uploader_sendPort
                            *COM*:00000032 port
/var/folders/wz/wzM13vx1HuGiQAygYPOM9k+++TI/-Tmp-//ccfHu5fj.s:20739  .text:000076d2 Uploader_sendServer
                            *COM*:00000032 server
/var/folders/wz/wzM13vx1HuGiQAygYPOM9k+++TI/-Tmp-//ccfHu5fj.s:20799  .text:0000772a Uploader_sendNickname
                            *COM*:00000032 nickname
/var/folders/wz/wzM13vx1HuGiQAygYPOM9k+++TI/-Tmp-//ccfHu5fj.s:20859  .text:00007782 Uploader_sendUser
                            *COM*:0000000a user
/var/folders/wz/wzM13vx1HuGiQAygYPOM9k+++TI/-Tmp-//ccfHu5fj.s:20923  .text:000077da Uploader_sendKey
/var/folders/wz/wzM13vx1HuGiQAygYPOM9k+++TI/-Tmp-//ccfHu5fj.s:24088  .bss:00000027 phraseRead
                            *COM*:00000032 phrase
/var/folders/wz/wzM13vx1HuGiQAygYPOM9k+++TI/-Tmp-//ccfHu5fj.s:24094  .bss:00000028 keyRead
                            *COM*:00000032 key
/var/folders/wz/wzM13vx1HuGiQAygYPOM9k+++TI/-Tmp-//ccfHu5fj.s:21031  .text:00007880 Uploader_sendAuthType
/var/folders/wz/wzM13vx1HuGiQAygYPOM9k+++TI/-Tmp-//ccfHu5fj.s:24082  .bss:00000026 authRead
                            *COM*:00000032 auth
/var/folders/wz/wzM13vx1HuGiQAygYPOM9k+++TI/-Tmp-//ccfHu5fj.s:21111  .text:000078fa Uploader_sendSSID
/var/folders/wz/wzM13vx1HuGiQAygYPOM9k+++TI/-Tmp-//ccfHu5fj.s:24100  .bss:00000029 ssidRead
                            *COM*:00000032 ssid
/var/folders/wz/wzM13vx1HuGiQAygYPOM9k+++TI/-Tmp-//ccfHu5fj.s:21195  .text:00007974 Uploader_sendFilename
/var/folders/wz/wzM13vx1HuGiQAygYPOM9k+++TI/-Tmp-//ccfHu5fj.s:25227  .bss:00000048 okToOpenDirectory
/var/folders/wz/wzM13vx1HuGiQAygYPOM9k+++TI/-Tmp-//ccfHu5fj.s:25233  .bss:00000049 okToGrabNextFileName
                            *COM*:0000000f availableFileName
                            *COM*:0000000f currentLogFile
/var/folders/wz/wzM13vx1HuGiQAygYPOM9k+++TI/-Tmp-//ccfHu5fj.s:21290  .text:00007a0c Uploader_Update
/var/folders/wz/wzM13vx1HuGiQAygYPOM9k+++TI/-Tmp-//ccfHu5fj.s:21510  .text:00007b3a SD_MakeFileName
                            *COM*:00000014 fileName
/var/folders/wz/wzM13vx1HuGiQAygYPOM9k+++TI/-Tmp-//ccfHu5fj.s:21545  .text:00007b66 SD_Open
/var/folders/wz/wzM13vx1HuGiQAygYPOM9k+++TI/-Tmp-//ccfHu5fj.s:21652  .text:00007bc4 SD_StartLogFile
/var/folders/wz/wzM13vx1HuGiQAygYPOM9k+++TI/-Tmp-//ccfHu5fj.s:21860  .text:00007d32 __vector_53
/var/folders/wz/wzM13vx1HuGiQAygYPOM9k+++TI/-Tmp-//ccfHu5fj.s:24000  .bss:00000013 timeRecordingStarted
                            *COM*:00000016 dir
                            *COM*:00000016 fno
                            *COM*:00000220 Upload_File
                            *COM*:00000001 okToGetRemainingSpace
/var/folders/wz/wzM13vx1HuGiQAygYPOM9k+++TI/-Tmp-//ccfHu5fj.s:25329  .bss:0000005a spaceRemainingOnDisk
/var/folders/wz/wzM13vx1HuGiQAygYPOM9k+++TI/-Tmp-//ccfHu5fj.s:25335  .bss:0000005e totalDiskSpace
/var/folders/wz/wzM13vx1HuGiQAygYPOM9k+++TI/-Tmp-//ccfHu5fj.s:22466  .text:00008168 SD_Read_config_file
/var/folders/wz/wzM13vx1HuGiQAygYPOM9k+++TI/-Tmp-//ccfHu5fj.s:24056  .data:000002fa zone
                            *COM*:0000000a daylightTime
                            *COM*:0000000a demoModeString
                            *COM*:0000000a fastString
/var/folders/wz/wzM13vx1HuGiQAygYPOM9k+++TI/-Tmp-//ccfHu5fj.s:24076  .bss:00000025 timeZoneShift
/var/folders/wz/wzM13vx1HuGiQAygYPOM9k+++TI/-Tmp-//ccfHu5fj.s:24106  .bss:0000002a zoneChanged
/var/folders/wz/wzM13vx1HuGiQAygYPOM9k+++TI/-Tmp-//ccfHu5fj.s:24050  .data:000002c8 serverOpenCommand
/var/folders/wz/wzM13vx1HuGiQAygYPOM9k+++TI/-Tmp-//ccfHu5fj.s:24006  .bss:00000017 demoMode
/var/folders/wz/wzM13vx1HuGiQAygYPOM9k+++TI/-Tmp-//ccfHu5fj.s:23085  .text:000085a0 main
/var/folders/wz/wzM13vx1HuGiQAygYPOM9k+++TI/-Tmp-//ccfHu5fj.s:23410  .text:00008724 f_printf
/var/folders/wz/wzM13vx1HuGiQAygYPOM9k+++TI/-Tmp-//ccfHu5fj.s:24012  .bss:00000018 useWifiForUploading
/var/folders/wz/wzM13vx1HuGiQAygYPOM9k+++TI/-Tmp-//ccfHu5fj.s:24062  .data:00000304 am
/var/folders/wz/wzM13vx1HuGiQAygYPOM9k+++TI/-Tmp-//ccfHu5fj.s:24068  .data:00000309 pm
/var/folders/wz/wzM13vx1HuGiQAygYPOM9k+++TI/-Tmp-//ccfHu5fj.s:24118  .bss:0000002c validCounter
/var/folders/wz/wzM13vx1HuGiQAygYPOM9k+++TI/-Tmp-//ccfHu5fj.s:25166  .bss:00000031 ekgCounter
/var/folders/wz/wzM13vx1HuGiQAygYPOM9k+++TI/-Tmp-//ccfHu5fj.s:25172  .bss:00000033 tempTime
/var/folders/wz/wzM13vx1HuGiQAygYPOM9k+++TI/-Tmp-//ccfHu5fj.s:25178  .data:0000070e commandCounter
/var/folders/wz/wzM13vx1HuGiQAygYPOM9k+++TI/-Tmp-//ccfHu5fj.s:25245  .bss:0000004b doneUploading
/var/folders/wz/wzM13vx1HuGiQAygYPOM9k+++TI/-Tmp-//ccfHu5fj.s:25305  .bss:00000055 okToWriteToLogFile
                            *COM*:00000008 time
                            *COM*:00000016 fno2
                            *COM*:0000000a tmpString
                            *COM*:00000032 temp

UNDEFINED SYMBOLS
__udivmodsi4
__divmodhi4
__mulsi3
itoa
strcpy
strcat
strcasecmp
strcasestr
ltoa
strupr
strstr
strtok
memmove
strcmp
__do_copy_data
__do_clear_bss
