   1               		.file	"main.c"
   2               	__SREG__ = 0x3f
   3               	__SP_H__ = 0x3e
   4               	__SP_L__ = 0x3d
   5               	__CCP__  = 0x34
   6               	__tmp_reg__ = 0
   7               	__zero_reg__ = 1
  15               	.Ltext0:
  16               	.global	Debug_Init
  18               	Debug_Init:
  19               	.LFB7:
  20               	.LM1:
  21               	/* prologue: function */
  22               	/* frame size = 0 */
  23               	.LM2:
  24 0000 E0E4      		ldi r30,lo8(1600)
  25 0002 F6E0      		ldi r31,hi8(1600)
  26 0004 88E0      		ldi r24,lo8(8)
  27 0006 8183      		std Z+1,r24
  28               	.LM3:
  29 0008 84E0      		ldi r24,lo8(4)
  30 000a 8283      		std Z+2,r24
  31               	.LM4:
  32 000c E0EA      		ldi r30,lo8(2208)
  33 000e F8E0      		ldi r31,hi8(2208)
  34 0010 83E0      		ldi r24,lo8(3)
  35 0012 8583      		std Z+5,r24
  36               	.LM5:
  37 0014 8FE5      		ldi r24,lo8(95)
  38 0016 8683      		std Z+6,r24
  39               	.LM6:
  40 0018 1782      		std Z+7,__zero_reg__
  41               	.LM7:
  42 001a 8481      		ldd r24,Z+4
  43 001c 8061      		ori r24,lo8(16)
  44 001e 8483      		std Z+4,r24
  45               	.LM8:
  46 0020 8481      		ldd r24,Z+4
  47 0022 8860      		ori r24,lo8(8)
  48 0024 8483      		std Z+4,r24
  49               	.LM9:
  50 0026 8381      		ldd r24,Z+3
  51 0028 8062      		ori r24,lo8(32)
  52 002a 8383      		std Z+3,r24
  53               	/* epilogue start */
  54               	.LM10:
  55 002c 0895      		ret
  56               	.LFE7:
  58               	.global	Debug_CharReadyToRead
  60               	Debug_CharReadyToRead:
  61               	.LFB8:
  62               	.LM11:
  63               	/* prologue: function */
  64               	/* frame size = 0 */
  65               	.LM12:
  66 002e 2091 0000 		lds r18,Debug_writeLocation
  67 0032 3091 0000 		lds r19,(Debug_writeLocation)+1
  68 0036 8091 0000 		lds r24,Debug_readLocation
  69 003a 9091 0000 		lds r25,(Debug_readLocation)+1
  70 003e 40E0      		ldi r20,lo8(0)
  71 0040 2817      		cp r18,r24
  72 0042 3907      		cpc r19,r25
  73 0044 01F0      		breq .L4
  74 0046 41E0      		ldi r20,lo8(1)
  75               	.L4:
  76               	.LM13:
  77 0048 842F      		mov r24,r20
  78               	/* epilogue start */
  79 004a 0895      		ret
  80               	.LFE8:
  82               	.global	Debug_GetByte
  84               	Debug_GetByte:
  85               	.LFB9:
  86               	.LM14:
  87               	.LVL0:
  88               	/* prologue: function */
  89               	/* frame size = 0 */
  90               	.LM15:
  91 004c 8823      		tst r24
  92 004e 01F0      		breq .L7
  93               	.L11:
  94               	.LBB649:
  95               	.LBB650:
  96               	.LM16:
  97 0050 2091 0000 		lds r18,Debug_writeLocation
  98 0054 3091 0000 		lds r19,(Debug_writeLocation)+1
  99 0058 8091 0000 		lds r24,Debug_readLocation
 100 005c 9091 0000 		lds r25,(Debug_readLocation)+1
 101               	.LVL1:
 102 0060 2817      		cp r18,r24
 103 0062 3907      		cpc r19,r25
 104 0064 01F0      		breq .L11
 105               	.LVL2:
 106               	.L7:
 107               	.LBE650:
 108               	.LBE649:
 109               	.LM17:
 110 0066 E091 0000 		lds r30,Debug_readLocation
 111 006a F091 0000 		lds r31,(Debug_readLocation)+1
 112 006e E050      		subi r30,lo8(-(DebugBuffer))
 113 0070 F040      		sbci r31,hi8(-(DebugBuffer))
 114 0072 E081      		ld r30,Z
 115               	.LVL3:
 116               	.LM18:
 117 0074 8091 0000 		lds r24,Debug_readLocation
 118 0078 9091 0000 		lds r25,(Debug_readLocation)+1
 119               	.LVL4:
 120 007c 0196      		adiw r24,1
 121 007e 8093 0000 		sts Debug_readLocation,r24
 122 0082 9093 0000 		sts (Debug_readLocation)+1,r25
 123               	.LM19:
 124 0086 8091 0000 		lds r24,Debug_readLocation
 125 008a 9091 0000 		lds r25,(Debug_readLocation)+1
 126 008e 8050      		subi r24,lo8(1024)
 127 0090 9440      		sbci r25,hi8(1024)
 128 0092 00F0      		brlo .L9
 129               	.LM20:
 130 0094 1092 0000 		sts Debug_readLocation,__zero_reg__
 131 0098 1092 0000 		sts (Debug_readLocation)+1,__zero_reg__
 132               	.L9:
 133               	.LM21:
 134 009c 8E2F      		mov r24,r30
 135               	/* epilogue start */
 136 009e 0895      		ret
 137               	.LFE9:
 139               	.global	Debug_SendByte
 141               	Debug_SendByte:
 142               	.LFB10:
 143               	.LM22:
 144               	.LVL5:
 145               	/* prologue: function */
 146               	/* frame size = 0 */
 147 00a0 982F      		mov r25,r24
 148               	.LVL6:
 149               	.L14:
 150               	.LM23:
 151 00a2 8091 A108 		lds r24,2209
 152 00a6 85FF      		sbrs r24,5
 153 00a8 00C0      		rjmp .L14
 154               	.LM24:
 155 00aa 9093 A008 		sts 2208,r25
 156               	/* epilogue start */
 157               	.LM25:
 158 00ae 0895      		ret
 159               	.LFE10:
 161               	.global	__vector_25
 163               	__vector_25:
 164               	.LFB12:
 165               	.LM26:
 166 00b0 1F92      		push __zero_reg__
 167 00b2 0F92      		push r0
 168 00b4 0FB6      		in r0,__SREG__
 169 00b6 0F92      		push r0
 170 00b8 0BB6      		in r0,59-0
 171 00ba 0F92      		push r0
 172 00bc 1124      		clr __zero_reg__
 173 00be 2F93      		push r18
 174 00c0 8F93      		push r24
 175 00c2 9F93      		push r25
 176 00c4 EF93      		push r30
 177 00c6 FF93      		push r31
 178               	/* prologue: Signal */
 179               	/* frame size = 0 */
 180               	.LM27:
 181 00c8 E091 0000 		lds r30,Debug_writeLocation
 182 00cc F091 0000 		lds r31,(Debug_writeLocation)+1
 183 00d0 8091 A008 		lds r24,2208
 184 00d4 E050      		subi r30,lo8(-(DebugBuffer))
 185 00d6 F040      		sbci r31,hi8(-(DebugBuffer))
 186 00d8 8083      		st Z,r24
 187               	.LM28:
 188 00da 8091 0000 		lds r24,Debug_writeLocation
 189 00de 9091 0000 		lds r25,(Debug_writeLocation)+1
 190 00e2 0196      		adiw r24,1
 191 00e4 8093 0000 		sts Debug_writeLocation,r24
 192 00e8 9093 0000 		sts (Debug_writeLocation)+1,r25
 193               	.LM29:
 194 00ec 8091 0000 		lds r24,Debug_writeLocation
 195 00f0 9091 0000 		lds r25,(Debug_writeLocation)+1
 196 00f4 8050      		subi r24,lo8(1024)
 197 00f6 9440      		sbci r25,hi8(1024)
 198 00f8 00F0      		brlo .L19
 199               	.LM30:
 200 00fa 1092 0000 		sts Debug_writeLocation,__zero_reg__
 201 00fe 1092 0000 		sts (Debug_writeLocation)+1,__zero_reg__
 202               	.L19:
 203               	/* epilogue start */
 204               	.LM31:
 205 0102 FF91      		pop r31
 206 0104 EF91      		pop r30
 207 0106 9F91      		pop r25
 208 0108 8F91      		pop r24
 209 010a 2F91      		pop r18
 210 010c 0F90      		pop r0
 211 010e 0BBE      		out 59-0,r0
 212 0110 0F90      		pop r0
 213 0112 0FBE      		out __SREG__,r0
 214 0114 0F90      		pop r0
 215 0116 1F90      		pop __zero_reg__
 216 0118 1895      		reti
 217               	.LFE12:
 219               	.global	Wifi_Init
 221               	Wifi_Init:
 222               	.LFB13:
 223               	.LM32:
 224               	.LVL7:
 225               	/* prologue: function */
 226               	/* frame size = 0 */
 227               	.LM33:
 228 011a E0EA      		ldi r30,lo8(2720)
 229 011c FAE0      		ldi r31,hi8(2720)
 230 011e 8091 A40A 		lds r24,2724
 231 0122 8F7E      		andi r24,lo8(-17)
 232 0124 8483      		std Z+4,r24
 233               	.LM34:
 234 0126 8091 A40A 		lds r24,2724
 235 012a 877F      		andi r24,lo8(-9)
 236 012c 8483      		std Z+4,r24
 237 012e 80E1      		ldi r24,lo8(10000)
 238 0130 97E2      		ldi r25,hi8(10000)
 239               	.LVL8:
 240               	.LBB651:
 241               	.LBB652:
 242               	.LBB653:
 243               	.LBB654:
 244               	.LM35:
 245 0132 20E7      		ldi r18,lo8(368)
 246 0134 31E0      		ldi r19,hi8(368)
 247               	.L21:
 248 0136 F901      		movw r30,r18
 249               	.LVL9:
 250               	/* #APP */
 251               	 ;  105 "/usr/local/CrossPack-AVR-20100115/lib/gcc/avr/4.3.3/../../../../avr/include/util/delay_bas
 252 0138 3197      		1: sbiw r30,1
 253 013a 01F4      		brne 1b
 254               	 ;  0 "" 2
 255               	/* #NOAPP */
 256               	.LBE654:
 257               	.LBE653:
 258               	.LM36:
 259 013c 0197      		sbiw r24,1
 260               	.LM37:
 261 013e 01F4      		brne .L21
 262               	.LBE652:
 263               	.LBE651:
 264               	.LM38:
 265 0140 E0E8      		ldi r30,lo8(1664)
 266 0142 F6E0      		ldi r31,hi8(1664)
 267               	.LVL10:
 268 0144 88E0      		ldi r24,lo8(8)
 269               	.LVL11:
 270 0146 8183      		std Z+1,r24
 271               	.LM39:
 272 0148 84E0      		ldi r24,lo8(4)
 273 014a 8283      		std Z+2,r24
 274               	.LM40:
 275 014c E0EA      		ldi r30,lo8(2720)
 276 014e FAE0      		ldi r31,hi8(2720)
 277 0150 83E0      		ldi r24,lo8(3)
 278 0152 8583      		std Z+5,r24
 279               	.LM41:
 280 0154 8FE5      		ldi r24,lo8(95)
 281 0156 8683      		std Z+6,r24
 282               	.LM42:
 283 0158 1782      		std Z+7,__zero_reg__
 284               	.LM43:
 285 015a 8091 A40A 		lds r24,2724
 286 015e 8061      		ori r24,lo8(16)
 287 0160 8483      		std Z+4,r24
 288               	.LM44:
 289 0162 8091 A40A 		lds r24,2724
 290 0166 8860      		ori r24,lo8(8)
 291 0168 8483      		std Z+4,r24
 292               	/* epilogue start */
 293               	.LM45:
 294 016a 0895      		ret
 295               	.LFE13:
 297               	.global	Wifi_CharReadyToRead
 299               	Wifi_CharReadyToRead:
 300               	.LFB15:
 301               	.LM46:
 302               	/* prologue: function */
 303               	/* frame size = 0 */
 304               	.LM47:
 305 016c 2091 1D01 		lds r18,285
 306 0170 922F      		mov r25,r18
 307 0172 80E0      		ldi r24,lo8(0)
 308 0174 8093 0000 		sts Wifi_writeLocation,r24
 309 0178 9093 0000 		sts (Wifi_writeLocation)+1,r25
 310               	.LM48:
 311 017c 8091 0000 		lds r24,Wifi_writeLocation
 312 0180 9091 0000 		lds r25,(Wifi_writeLocation)+1
 313 0184 2091 1C01 		lds r18,284
 314 0188 820F      		add r24,r18
 315 018a 911D      		adc r25,__zero_reg__
 316 018c 8093 0000 		sts Wifi_writeLocation,r24
 317 0190 9093 0000 		sts (Wifi_writeLocation)+1,r25
 318               	.LM49:
 319 0194 8091 0000 		lds r24,Wifi_writeLocation
 320 0198 9091 0000 		lds r25,(Wifi_writeLocation)+1
 321 019c 8050      		subi r24,lo8(WifiBuffer)
 322 019e 9040      		sbci r25,hi8(WifiBuffer)
 323 01a0 8093 0000 		sts Wifi_writeLocation,r24
 324 01a4 9093 0000 		sts (Wifi_writeLocation)+1,r25
 325               	.LM50:
 326 01a8 2091 0000 		lds r18,Wifi_writeLocation
 327 01ac 3091 0000 		lds r19,(Wifi_writeLocation)+1
 328 01b0 8091 0000 		lds r24,Wifi_readLocation
 329 01b4 9091 0000 		lds r25,(Wifi_readLocation)+1
 330 01b8 40E0      		ldi r20,lo8(0)
 331 01ba 2817      		cp r18,r24
 332 01bc 3907      		cpc r19,r25
 333 01be 01F0      		breq .L25
 334 01c0 41E0      		ldi r20,lo8(1)
 335               	.L25:
 336               	.LM51:
 337 01c2 842F      		mov r24,r20
 338               	/* epilogue start */
 339 01c4 0895      		ret
 340               	.LFE15:
 342               	.global	Wifi_ClearBuffer
 344               	Wifi_ClearBuffer:
 345               	.LFB14:
 346               	.LM52:
 347               	/* prologue: function */
 348               	/* frame size = 0 */
 349               	.LM53:
 350 01c6 0E94 0000 		call Wifi_CharReadyToRead
 351 01ca 8823      		tst r24
 352 01cc 01F0      		breq .L29
 353               	.LM54:
 354 01ce 2091 1D01 		lds r18,285
 355 01d2 922F      		mov r25,r18
 356 01d4 80E0      		ldi r24,lo8(0)
 357 01d6 8093 0000 		sts Wifi_writeLocation,r24
 358 01da 9093 0000 		sts (Wifi_writeLocation)+1,r25
 359               	.LM55:
 360 01de 8091 0000 		lds r24,Wifi_writeLocation
 361 01e2 9091 0000 		lds r25,(Wifi_writeLocation)+1
 362 01e6 2091 1C01 		lds r18,284
 363 01ea 820F      		add r24,r18
 364 01ec 911D      		adc r25,__zero_reg__
 365 01ee 8093 0000 		sts Wifi_writeLocation,r24
 366 01f2 9093 0000 		sts (Wifi_writeLocation)+1,r25
 367               	.LM56:
 368 01f6 8091 0000 		lds r24,Wifi_writeLocation
 369 01fa 9091 0000 		lds r25,(Wifi_writeLocation)+1
 370 01fe 8050      		subi r24,lo8(WifiBuffer)
 371 0200 9040      		sbci r25,hi8(WifiBuffer)
 372 0202 8093 0000 		sts Wifi_writeLocation,r24
 373 0206 9093 0000 		sts (Wifi_writeLocation)+1,r25
 374               	.LM57:
 375 020a 8091 0000 		lds r24,Wifi_writeLocation
 376 020e 9091 0000 		lds r25,(Wifi_writeLocation)+1
 377 0212 8093 0000 		sts Wifi_readLocation,r24
 378 0216 9093 0000 		sts (Wifi_readLocation)+1,r25
 379               	.L29:
 380 021a 0895      		ret
 381               	.LFE14:
 383               	.global	Wifi_GetByte
 385               	Wifi_GetByte:
 386               	.LFB16:
 387               	.LM58:
 388               	.LVL12:
 389               	/* prologue: function */
 390               	/* frame size = 0 */
 391               	.LM59:
 392 021c 8823      		tst r24
 393 021e 01F0      		breq .L31
 394               	.L35:
 395               	.LM60:
 396 0220 0E94 0000 		call Wifi_CharReadyToRead
 397               	.LVL13:
 398 0224 8823      		tst r24
 399 0226 01F0      		breq .L35
 400               	.LVL14:
 401               	.L31:
 402               	.LM61:
 403 0228 E091 0000 		lds r30,Wifi_readLocation
 404 022c F091 0000 		lds r31,(Wifi_readLocation)+1
 405 0230 E050      		subi r30,lo8(-(WifiBuffer))
 406 0232 F040      		sbci r31,hi8(-(WifiBuffer))
 407 0234 E081      		ld r30,Z
 408               	.LVL15:
 409               	.LM62:
 410 0236 8091 0000 		lds r24,Wifi_readLocation
 411 023a 9091 0000 		lds r25,(Wifi_readLocation)+1
 412               	.LVL16:
 413 023e 0196      		adiw r24,1
 414 0240 8093 0000 		sts Wifi_readLocation,r24
 415 0244 9093 0000 		sts (Wifi_readLocation)+1,r25
 416               	.LM63:
 417 0248 8091 0000 		lds r24,Wifi_readLocation
 418 024c 9091 0000 		lds r25,(Wifi_readLocation)+1
 419 0250 8050      		subi r24,lo8(1024)
 420 0252 9440      		sbci r25,hi8(1024)
 421 0254 00F0      		brlo .L33
 422               	.LM64:
 423 0256 1092 0000 		sts Wifi_readLocation,__zero_reg__
 424 025a 1092 0000 		sts (Wifi_readLocation)+1,__zero_reg__
 425               	.L33:
 426               	.LM65:
 427 025e 8E2F      		mov r24,r30
 428               	/* epilogue start */
 429 0260 0895      		ret
 430               	.LFE16:
 432               	.global	Wifi_SendByte
 434               	Wifi_SendByte:
 435               	.LFB17:
 436               	.LM66:
 437               	.LVL17:
 438               	/* prologue: function */
 439               	/* frame size = 0 */
 440 0262 982F      		mov r25,r24
 441               	.LVL18:
 442               	.L38:
 443               	.LM67:
 444 0264 8091 A10A 		lds r24,2721
 445 0268 85FF      		sbrs r24,5
 446 026a 00C0      		rjmp .L38
 447               	.LM68:
 448 026c 9093 A00A 		sts 2720,r25
 449               	/* epilogue start */
 450               	.LM69:
 451 0270 0895      		ret
 452               	.LFE17:
 454               	.global	Dpad_Init
 456               	Dpad_Init:
 457               	.LFB25:
 458               	.LM70:
 459               	/* prologue: function */
 460               	/* frame size = 0 */
 461               	.LM71:
 462 0272 E0EA      		ldi r30,lo8(1696)
 463 0274 F6E0      		ldi r31,hi8(1696)
 464 0276 88E1      		ldi r24,lo8(24)
 465 0278 828B      		std Z+18,r24
 466               	.LM72:
 467 027a 838B      		std Z+19,r24
 468               	.LM73:
 469 027c 848B      		std Z+20,r24
 470               	.LM74:
 471 027e 858B      		std Z+21,r24
 472               	.LM75:
 473 0280 868B      		std Z+22,r24
 474               	.LM76:
 475 0282 8281      		ldd r24,Z+2
 476 0284 8C67      		ori r24,lo8(124)
 477 0286 8283      		std Z+2,r24
 478               	/* epilogue start */
 479               	.LM77:
 480 0288 0895      		ret
 481               	.LFE25:
 483               	.global	Dpad_Read
 485               	Dpad_Read:
 486               	.LFB26:
 487               	.LM78:
 488               	/* prologue: function */
 489               	/* frame size = 0 */
 490               	.LM79:
 491 028a E0EA      		ldi r30,lo8(1696)
 492 028c F6E0      		ldi r31,hi8(1696)
 493 028e 8085      		ldd r24,Z+8
 494               	.LM80:
 495 0290 8C77      		andi r24,lo8(124)
 496               	/* epilogue start */
 497 0292 0895      		ret
 498               	.LFE26:
 500               	.global	Dpad_CheckButton
 502               	Dpad_CheckButton:
 503               	.LFB27:
 504               	.LM81:
 505               	.LVL19:
 506               	/* prologue: function */
 507               	/* frame size = 0 */
 508               	.LBB655:
 509               	.LBB656:
 510               	.LM82:
 511 0294 4091 A806 		lds r20,1704
 512 0298 90E0      		ldi r25,lo8(0)
 513 029a 21E0      		ldi r18,lo8(1)
 514 029c 30E0      		ldi r19,hi8(1)
 515 029e 00C0      		rjmp 2f
 516 02a0 220F      	1:	lsl r18
 517 02a2 331F      		rol r19
 518 02a4 8A95      	2:	dec r24
 519 02a6 02F4      		brpl 1b
 520 02a8 4C77      		andi r20,lo8(124)
 521 02aa 50E0      		ldi r21,lo8(0)
 522 02ac 2423      		and r18,r20
 523 02ae 3523      		and r19,r21
 524 02b0 1216      		cp __zero_reg__,r18
 525 02b2 1306      		cpc __zero_reg__,r19
 526 02b4 04F0      		brlt .L46
 527 02b6 91E0      		ldi r25,lo8(1)
 528               	.L46:
 529               	.LBE656:
 530               	.LBE655:
 531               	.LM83:
 532 02b8 892F      		mov r24,r25
 533               	.LVL20:
 534               	/* epilogue start */
 535 02ba 0895      		ret
 536               	.LFE27:
 538               	.global	Leds_Init
 540               	Leds_Init:
 541               	.LFB28:
 542               	.LM84:
 543               	/* prologue: function */
 544               	/* frame size = 0 */
 545               	.LM85:
 546 02bc E0E2      		ldi r30,lo8(1568)
 547 02be F6E0      		ldi r31,hi8(1568)
 548 02c0 8181      		ldd r24,Z+1
 549 02c2 836F      		ori r24,lo8(-13)
 550 02c4 8183      		std Z+1,r24
 551               	/* epilogue start */
 552               	.LM86:
 553 02c6 0895      		ret
 554               	.LFE28:
 556               	.global	Leds_Set
 558               	Leds_Set:
 559               	.LFB29:
 560               	.LM87:
 561               	.LVL21:
 562               	/* prologue: function */
 563               	/* frame size = 0 */
 564               	.LM88:
 565 02c8 21E0      		ldi r18,lo8(1)
 566 02ca 30E0      		ldi r19,hi8(1)
 567 02cc 00C0      		rjmp 2f
 568 02ce 220F      	1:	lsl r18
 569 02d0 331F      		rol r19
 570 02d2 8A95      	2:	dec r24
 571 02d4 02F4      		brpl 1b
 572 02d6 E0E2      		ldi r30,lo8(1568)
 573 02d8 F6E0      		ldi r31,hi8(1568)
 574 02da 2583      		std Z+5,r18
 575               	/* epilogue start */
 576               	.LM89:
 577 02dc 0895      		ret
 578               	.LFE29:
 580               	.global	Leds_Clear
 582               	Leds_Clear:
 583               	.LFB30:
 584               	.LM90:
 585               	.LVL22:
 586               	/* prologue: function */
 587               	/* frame size = 0 */
 588               	.LM91:
 589 02de 21E0      		ldi r18,lo8(1)
 590 02e0 30E0      		ldi r19,hi8(1)
 591 02e2 00C0      		rjmp 2f
 592 02e4 220F      	1:	lsl r18
 593 02e6 331F      		rol r19
 594 02e8 8A95      	2:	dec r24
 595 02ea 02F4      		brpl 1b
 596 02ec E0E2      		ldi r30,lo8(1568)
 597 02ee F6E0      		ldi r31,hi8(1568)
 598 02f0 2683      		std Z+6,r18
 599               	/* epilogue start */
 600               	.LM92:
 601 02f2 0895      		ret
 602               	.LFE30:
 604               	.global	Leds_Toggle
 606               	Leds_Toggle:
 607               	.LFB31:
 608               	.LM93:
 609               	.LVL23:
 610               	/* prologue: function */
 611               	/* frame size = 0 */
 612               	.LM94:
 613 02f4 21E0      		ldi r18,lo8(1)
 614 02f6 30E0      		ldi r19,hi8(1)
 615 02f8 00C0      		rjmp 2f
 616 02fa 220F      	1:	lsl r18
 617 02fc 331F      		rol r19
 618 02fe 8A95      	2:	dec r24
 619 0300 02F4      		brpl 1b
 620 0302 E0E2      		ldi r30,lo8(1568)
 621 0304 F6E0      		ldi r31,hi8(1568)
 622 0306 2783      		std Z+7,r18
 623               	/* epilogue start */
 624               	.LM95:
 625 0308 0895      		ret
 626               	.LFE31:
 628               	.global	Rs232_Init
 630               	Rs232_Init:
 631               	.LFB32:
 632               	.LM96:
 633               	/* prologue: function */
 634               	/* frame size = 0 */
 635               	.LM97:
 636 030a E0E6      		ldi r30,lo8(1632)
 637 030c F6E0      		ldi r31,hi8(1632)
 638 030e 88E0      		ldi r24,lo8(8)
 639 0310 8183      		std Z+1,r24
 640               	.LM98:
 641 0312 84E0      		ldi r24,lo8(4)
 642 0314 8283      		std Z+2,r24
 643               	.LM99:
 644 0316 E0EA      		ldi r30,lo8(2464)
 645 0318 F9E0      		ldi r31,hi8(2464)
 646 031a 83E0      		ldi r24,lo8(3)
 647 031c 8583      		std Z+5,r24
 648               	.LM100:
 649 031e 8FE5      		ldi r24,lo8(95)
 650 0320 8683      		std Z+6,r24
 651               	.LM101:
 652 0322 1782      		std Z+7,__zero_reg__
 653               	.LM102:
 654 0324 8481      		ldd r24,Z+4
 655 0326 8061      		ori r24,lo8(16)
 656 0328 8483      		std Z+4,r24
 657               	.LM103:
 658 032a 8481      		ldd r24,Z+4
 659 032c 8860      		ori r24,lo8(8)
 660 032e 8483      		std Z+4,r24
 661               	.LM104:
 662 0330 8381      		ldd r24,Z+3
 663 0332 8062      		ori r24,lo8(32)
 664 0334 8383      		std Z+3,r24
 665               	/* epilogue start */
 666               	.LM105:
 667 0336 0895      		ret
 668               	.LFE32:
 670               	.global	Rs232_CharReadyToRead
 672               	Rs232_CharReadyToRead:
 673               	.LFB33:
 674               	.LM106:
 675               	/* prologue: function */
 676               	/* frame size = 0 */
 677               	.LM107:
 678 0338 2091 0000 		lds r18,Rs232_writeLocation
 679 033c 3091 0000 		lds r19,(Rs232_writeLocation)+1
 680 0340 8091 0000 		lds r24,Rs232_readLocation
 681 0344 9091 0000 		lds r25,(Rs232_readLocation)+1
 682 0348 40E0      		ldi r20,lo8(0)
 683 034a 2817      		cp r18,r24
 684 034c 3907      		cpc r19,r25
 685 034e 01F0      		breq .L59
 686 0350 41E0      		ldi r20,lo8(1)
 687               	.L59:
 688               	.LM108:
 689 0352 842F      		mov r24,r20
 690               	/* epilogue start */
 691 0354 0895      		ret
 692               	.LFE33:
 694               	.global	Rs232_GetByte
 696               	Rs232_GetByte:
 697               	.LFB34:
 698               	.LM109:
 699               	.LVL24:
 700               	/* prologue: function */
 701               	/* frame size = 0 */
 702               	.LM110:
 703 0356 8823      		tst r24
 704 0358 01F0      		breq .L62
 705               	.L66:
 706               	.LBB657:
 707               	.LBB658:
 708               	.LM111:
 709 035a 2091 0000 		lds r18,Rs232_writeLocation
 710 035e 3091 0000 		lds r19,(Rs232_writeLocation)+1
 711 0362 8091 0000 		lds r24,Rs232_readLocation
 712 0366 9091 0000 		lds r25,(Rs232_readLocation)+1
 713               	.LVL25:
 714 036a 2817      		cp r18,r24
 715 036c 3907      		cpc r19,r25
 716 036e 01F0      		breq .L66
 717               	.LVL26:
 718               	.L62:
 719               	.LBE658:
 720               	.LBE657:
 721               	.LM112:
 722 0370 E091 0000 		lds r30,Rs232_readLocation
 723 0374 F091 0000 		lds r31,(Rs232_readLocation)+1
 724 0378 E050      		subi r30,lo8(-(Rs232Buffer))
 725 037a F040      		sbci r31,hi8(-(Rs232Buffer))
 726 037c E081      		ld r30,Z
 727               	.LVL27:
 728               	.LM113:
 729 037e 8091 0000 		lds r24,Rs232_readLocation
 730 0382 9091 0000 		lds r25,(Rs232_readLocation)+1
 731               	.LVL28:
 732 0386 0196      		adiw r24,1
 733 0388 8093 0000 		sts Rs232_readLocation,r24
 734 038c 9093 0000 		sts (Rs232_readLocation)+1,r25
 735               	.LM114:
 736 0390 8091 0000 		lds r24,Rs232_readLocation
 737 0394 9091 0000 		lds r25,(Rs232_readLocation)+1
 738 0398 8050      		subi r24,lo8(1024)
 739 039a 9440      		sbci r25,hi8(1024)
 740 039c 00F0      		brlo .L64
 741               	.LM115:
 742 039e 1092 0000 		sts Rs232_readLocation,__zero_reg__
 743 03a2 1092 0000 		sts (Rs232_readLocation)+1,__zero_reg__
 744               	.L64:
 745               	.LM116:
 746 03a6 8E2F      		mov r24,r30
 747               	/* epilogue start */
 748 03a8 0895      		ret
 749               	.LFE34:
 751               	.global	Rs232_ClearBuffer
 753               	Rs232_ClearBuffer:
 754               	.LFB35:
 755               	.LM117:
 756               	/* prologue: function */
 757               	/* frame size = 0 */
 758               	.LM118:
 759 03aa 8091 0000 		lds r24,Rs232_writeLocation
 760 03ae 9091 0000 		lds r25,(Rs232_writeLocation)+1
 761 03b2 8093 0000 		sts Rs232_readLocation,r24
 762 03b6 9093 0000 		sts (Rs232_readLocation)+1,r25
 763               	/* epilogue start */
 764               	.LM119:
 765 03ba 0895      		ret
 766               	.LFE35:
 768               	.global	Rs232_SendByte
 770               	Rs232_SendByte:
 771               	.LFB36:
 772               	.LM120:
 773               	.LVL29:
 774               	/* prologue: function */
 775               	/* frame size = 0 */
 776 03bc 982F      		mov r25,r24
 777               	.LVL30:
 778               	.L71:
 779               	.LM121:
 780 03be 8091 A109 		lds r24,2465
 781 03c2 85FF      		sbrs r24,5
 782 03c4 00C0      		rjmp .L71
 783               	.LM122:
 784 03c6 9093 A009 		sts 2464,r25
 785               	/* epilogue start */
 786               	.LM123:
 787 03ca 0895      		ret
 788               	.LFE36:
 791               	wait_ready:
 792               	.LFB40:
 793               	.LM124:
 794               	/* prologue: function */
 795               	/* frame size = 0 */
 796               	.LM125:
 797 03cc 82E3      		ldi r24,lo8(50)
 798 03ce 8093 0000 		sts Timer2,r24
 799               	.LBB659:
 800               	.LBB660:
 801               	.LM126:
 802 03d2 8FEF      		ldi r24,lo8(-1)
 803 03d4 E0EC      		ldi r30,lo8(2496)
 804 03d6 F9E0      		ldi r31,hi8(2496)
 805 03d8 8383      		std Z+3,r24
 806               	.L75:
 807               	.LM127:
 808 03da 8091 C209 		lds r24,2498
 809 03de 87FF      		sbrs r24,7
 810 03e0 00C0      		rjmp .L75
 811               	.LM128:
 812 03e2 8091 C309 		lds r24,2499
 813               	.LBE660:
 814               	.LBE659:
 815               	.LBB661:
 816               	.LBB662:
 817               	.LM129:
 818 03e6 E0EC      		ldi r30,lo8(2496)
 819 03e8 F9E0      		ldi r31,hi8(2496)
 820 03ea 2FEF      		ldi r18,lo8(-1)
 821               	.LVL31:
 822               	.L78:
 823 03ec 2383      		std Z+3,r18
 824               	.L76:
 825               	.LM130:
 826 03ee 8091 C209 		lds r24,2498
 827 03f2 87FF      		sbrs r24,7
 828 03f4 00C0      		rjmp .L76
 829               	.LM131:
 830 03f6 9091 C309 		lds r25,2499
 831               	.LBE662:
 832               	.LBE661:
 833               	.LM132:
 834 03fa 9F3F      		cpi r25,lo8(-1)
 835 03fc 01F0      		breq .L77
 836 03fe 8091 0000 		lds r24,Timer2
 837 0402 8823      		tst r24
 838 0404 01F4      		brne .L78
 839               	.L77:
 840               	.LM133:
 841 0406 892F      		mov r24,r25
 842               	/* epilogue start */
 843 0408 0895      		ret
 844               	.LFE40:
 847               	select:
 848               	.LFB42:
 849               	.LM134:
 850 040a 1F93      		push r17
 851 040c CF93      		push r28
 852 040e DF93      		push r29
 853               	/* prologue: function */
 854               	/* frame size = 0 */
 855               	.LM135:
 856 0410 C0E6      		ldi r28,lo8(1632)
 857 0412 D6E0      		ldi r29,hi8(1632)
 858 0414 10E1      		ldi r17,lo8(16)
 859 0416 1E83      		std Y+6,r17
 860               	.LM136:
 861 0418 0E94 0000 		call wait_ready
 862 041c 8F3F      		cpi r24,lo8(-1)
 863 041e 01F4      		brne .L84
 864 0420 81E0      		ldi r24,lo8(1)
 865 0422 00C0      		rjmp .L85
 866               	.L84:
 867               	.LBB663:
 868               	.LBB664:
 869               	.LM137:
 870 0424 1D83      		std Y+5,r17
 871               	.LBB665:
 872               	.LBB666:
 873               	.LM138:
 874 0426 8FEF      		ldi r24,lo8(-1)
 875 0428 E0EC      		ldi r30,lo8(2496)
 876 042a F9E0      		ldi r31,hi8(2496)
 877 042c 8383      		std Z+3,r24
 878               	.L86:
 879               	.LM139:
 880 042e 8091 C209 		lds r24,2498
 881 0432 87FF      		sbrs r24,7
 882 0434 00C0      		rjmp .L86
 883               	.LM140:
 884 0436 8091 C309 		lds r24,2499
 885 043a 80E0      		ldi r24,lo8(0)
 886               	.L85:
 887               	/* epilogue start */
 888               	.LBE666:
 889               	.LBE665:
 890               	.LBE664:
 891               	.LBE663:
 892               	.LM141:
 893 043c DF91      		pop r29
 894 043e CF91      		pop r28
 895 0440 1F91      		pop r17
 896 0442 0895      		ret
 897               	.LFE42:
 900               	rcvr_datablock:
 901               	.LFB46:
 902               	.LM142:
 903               	.LVL32:
 904               	/* prologue: function */
 905               	/* frame size = 0 */
 906 0444 FC01      		movw r30,r24
 907               	.LM143:
 908 0446 84E1      		ldi r24,lo8(20)
 909               	.LVL33:
 910 0448 8093 0000 		sts Timer1,r24
 911               	.LBB667:
 912               	.LBB668:
 913               	.LM144:
 914 044c A0EC      		ldi r26,lo8(2496)
 915 044e B9E0      		ldi r27,hi8(2496)
 916 0450 9FEF      		ldi r25,lo8(-1)
 917               	.L92:
 918 0452 1396      		adiw r26,3
 919 0454 9C93      		st X,r25
 920 0456 1397      		sbiw r26,3
 921               	.L90:
 922               	.LM145:
 923 0458 8091 C209 		lds r24,2498
 924 045c 87FF      		sbrs r24,7
 925 045e 00C0      		rjmp .L90
 926               	.LM146:
 927 0460 8091 C309 		lds r24,2499
 928               	.LVL34:
 929               	.LBE668:
 930               	.LBE667:
 931               	.LM147:
 932 0464 8F3F      		cpi r24,lo8(-1)
 933 0466 01F4      		brne .L91
 934 0468 8091 0000 		lds r24,Timer1
 935               	.LVL35:
 936 046c 8823      		tst r24
 937 046e 01F4      		brne .L92
 938 0470 00C0      		rjmp .L93
 939               	.LVL36:
 940               	.L91:
 941               	.LM148:
 942 0472 8E3F      		cpi r24,lo8(-2)
 943 0474 01F0      		breq .+2
 944 0476 00C0      		rjmp .L93
 945               	.LM149:
 946 0478 A0EC      		ldi r26,lo8(2496)
 947 047a B9E0      		ldi r27,hi8(2496)
 948 047c 9FEF      		ldi r25,lo8(-1)
 949               	.L112:
 950 047e 1396      		adiw r26,3
 951 0480 9C93      		st X,r25
 952 0482 1397      		sbiw r26,3
 953               	.L94:
 954 0484 8091 C209 		lds r24,2498
 955               	.LVL37:
 956 0488 87FF      		sbrs r24,7
 957 048a 00C0      		rjmp .L94
 958 048c 8091 C309 		lds r24,2499
 959 0490 8083      		st Z,r24
 960               	.LM150:
 961 0492 1396      		adiw r26,3
 962 0494 9C93      		st X,r25
 963 0496 1397      		sbiw r26,3
 964               	.L95:
 965 0498 8091 C209 		lds r24,2498
 966 049c 87FF      		sbrs r24,7
 967 049e 00C0      		rjmp .L95
 968 04a0 8091 C309 		lds r24,2499
 969 04a4 8183      		std Z+1,r24
 970               	.LM151:
 971 04a6 1396      		adiw r26,3
 972 04a8 9C93      		st X,r25
 973 04aa 1397      		sbiw r26,3
 974               	.L96:
 975 04ac 8091 C209 		lds r24,2498
 976 04b0 87FF      		sbrs r24,7
 977 04b2 00C0      		rjmp .L96
 978 04b4 8091 C309 		lds r24,2499
 979 04b8 8283      		std Z+2,r24
 980               	.LM152:
 981 04ba 1396      		adiw r26,3
 982 04bc 9C93      		st X,r25
 983 04be 1397      		sbiw r26,3
 984               	.L97:
 985 04c0 8091 C209 		lds r24,2498
 986 04c4 87FF      		sbrs r24,7
 987 04c6 00C0      		rjmp .L97
 988 04c8 8091 C309 		lds r24,2499
 989 04cc 8383      		std Z+3,r24
 990               	.LM153:
 991 04ce 6450      		subi r22,lo8(-(-4))
 992 04d0 7040      		sbci r23,hi8(-(-4))
 993               	.LVL38:
 994 04d2 01F0      		breq .L98
 995               	.LM154:
 996 04d4 3496      		adiw r30,4
 997 04d6 00C0      		rjmp .L112
 998               	.L98:
 999               	.LBB669:
 1000               	.LBB670:
 1001               	.LM155:
 1002 04d8 8FEF      		ldi r24,lo8(-1)
 1003 04da E0EC      		ldi r30,lo8(2496)
 1004 04dc F9E0      		ldi r31,hi8(2496)
 1005               	.LVL39:
 1006 04de 8383      		std Z+3,r24
 1007               	.L100:
 1008               	.LM156:
 1009 04e0 8091 C209 		lds r24,2498
 1010 04e4 87FF      		sbrs r24,7
 1011 04e6 00C0      		rjmp .L100
 1012               	.LM157:
 1013 04e8 8091 C309 		lds r24,2499
 1014               	.LBE670:
 1015               	.LBE669:
 1016               	.LBB671:
 1017               	.LBB672:
 1018               	.LM158:
 1019 04ec 8FEF      		ldi r24,lo8(-1)
 1020 04ee E0EC      		ldi r30,lo8(2496)
 1021 04f0 F9E0      		ldi r31,hi8(2496)
 1022 04f2 8383      		std Z+3,r24
 1023               	.L101:
 1024               	.LM159:
 1025 04f4 8091 C209 		lds r24,2498
 1026 04f8 87FF      		sbrs r24,7
 1027 04fa 00C0      		rjmp .L101
 1028               	.LM160:
 1029 04fc 8091 C309 		lds r24,2499
 1030 0500 81E0      		ldi r24,lo8(1)
 1031 0502 0895      		ret
 1032               	.LVL40:
 1033               	.L93:
 1034               	.LM161:
 1035 0504 80E0      		ldi r24,lo8(0)
 1036               	.LVL41:
 1037               	.LBE672:
 1038               	.LBE671:
 1039               	.LM162:
 1040 0506 0895      		ret
 1041               	.LFE46:
 1044               	xmit_datablock:
 1045               	.LFB47:
 1046               	.LM163:
 1047               	.LVL42:
 1048 0508 1F93      		push r17
 1049 050a CF93      		push r28
 1050 050c DF93      		push r29
 1051               	/* prologue: function */
 1052               	/* frame size = 0 */
 1053 050e EC01      		movw r28,r24
 1054 0510 162F      		mov r17,r22
 1055               	.LM164:
 1056 0512 0E94 0000 		call wait_ready
 1057               	.LVL43:
 1058 0516 8F3F      		cpi r24,lo8(-1)
 1059 0518 01F0      		breq .L114
 1060 051a 90E0      		ldi r25,lo8(0)
 1061 051c 00C0      		rjmp .L115
 1062               	.L114:
 1063               	.LM165:
 1064 051e E0EC      		ldi r30,lo8(2496)
 1065 0520 F9E0      		ldi r31,hi8(2496)
 1066 0522 1383      		std Z+3,r17
 1067               	.L116:
 1068 0524 8091 C209 		lds r24,2498
 1069 0528 87FF      		sbrs r24,7
 1070 052a 00C0      		rjmp .L116
 1071               	.LM166:
 1072 052c 1D3F      		cpi r17,lo8(-3)
 1073 052e 01F4      		brne .L117
 1074 0530 91E0      		ldi r25,lo8(1)
 1075 0532 00C0      		rjmp .L115
 1076               	.L117:
 1077 0534 90E0      		ldi r25,lo8(0)
 1078               	.LVL44:
 1079               	.LM167:
 1080 0536 E0EC      		ldi r30,lo8(2496)
 1081 0538 F9E0      		ldi r31,hi8(2496)
 1082               	.L121:
 1083 053a 8881      		ld r24,Y
 1084 053c 8383      		std Z+3,r24
 1085               	.L118:
 1086 053e 8091 C209 		lds r24,2498
 1087 0542 87FF      		sbrs r24,7
 1088 0544 00C0      		rjmp .L118
 1089               	.LM168:
 1090 0546 8981      		ldd r24,Y+1
 1091 0548 8383      		std Z+3,r24
 1092               	.L119:
 1093 054a 8091 C209 		lds r24,2498
 1094 054e 87FF      		sbrs r24,7
 1095 0550 00C0      		rjmp .L119
 1096               	.LM169:
 1097 0552 9150      		subi r25,lo8(-(-1))
 1098 0554 01F0      		breq .L120
 1099               	.LM170:
 1100 0556 2296      		adiw r28,2
 1101 0558 00C0      		rjmp .L121
 1102               	.L120:
 1103               	.LM171:
 1104 055a 8FEF      		ldi r24,lo8(-1)
 1105 055c E0EC      		ldi r30,lo8(2496)
 1106 055e F9E0      		ldi r31,hi8(2496)
 1107 0560 8383      		std Z+3,r24
 1108               	.L122:
 1109 0562 8091 C209 		lds r24,2498
 1110 0566 87FF      		sbrs r24,7
 1111 0568 00C0      		rjmp .L122
 1112               	.LM172:
 1113 056a 8FEF      		ldi r24,lo8(-1)
 1114 056c E0EC      		ldi r30,lo8(2496)
 1115 056e F9E0      		ldi r31,hi8(2496)
 1116 0570 8383      		std Z+3,r24
 1117               	.L123:
 1118 0572 8091 C209 		lds r24,2498
 1119 0576 87FF      		sbrs r24,7
 1120 0578 00C0      		rjmp .L123
 1121               	.LBB673:
 1122               	.LBB674:
 1123               	.LM173:
 1124 057a 8FEF      		ldi r24,lo8(-1)
 1125 057c E0EC      		ldi r30,lo8(2496)
 1126 057e F9E0      		ldi r31,hi8(2496)
 1127 0580 8383      		std Z+3,r24
 1128               	.L124:
 1129               	.LM174:
 1130 0582 8091 C209 		lds r24,2498
 1131 0586 87FF      		sbrs r24,7
 1132 0588 00C0      		rjmp .L124
 1133               	.LM175:
 1134 058a 8091 C309 		lds r24,2499
 1135               	.LVL45:
 1136 058e 90E0      		ldi r25,lo8(0)
 1137               	.LVL46:
 1138 0590 8F71      		andi r24,lo8(31)
 1139 0592 8530      		cpi r24,lo8(5)
 1140 0594 01F0      		breq .L125
 1141 0596 91E0      		ldi r25,lo8(1)
 1142               	.L125:
 1143 0598 81E0      		ldi r24,lo8(1)
 1144               	.LVL47:
 1145 059a 9827      		eor r25,r24
 1146               	.L115:
 1147               	.LBE674:
 1148               	.LBE673:
 1149               	.LM176:
 1150 059c 892F      		mov r24,r25
 1151               	/* epilogue start */
 1152 059e DF91      		pop r29
 1153 05a0 CF91      		pop r28
 1154               	.LVL48:
 1155 05a2 1F91      		pop r17
 1156               	.LVL49:
 1157 05a4 0895      		ret
 1158               	.LFE47:
 1161               	send_cmd:
 1162               	.LFB48:
 1163               	.LM177:
 1164               	.LVL50:
 1165 05a6 DF92      		push r13
 1166 05a8 EF92      		push r14
 1167 05aa FF92      		push r15
 1168 05ac 0F93      		push r16
 1169 05ae 1F93      		push r17
 1170               	/* prologue: function */
 1171               	/* frame size = 0 */
 1172 05b0 D82E      		mov r13,r24
 1173 05b2 7A01      		movw r14,r20
 1174 05b4 8B01      		movw r16,r22
 1175               	.LM178:
 1176 05b6 87FF      		sbrs r24,7
 1177 05b8 00C0      		rjmp .L134
 1178               	.LVL51:
 1179               	.LM179:
 1180 05ba 87E7      		ldi r24,lo8(119)
 1181               	.LVL52:
 1182 05bc 40E0      		ldi r20,lo8(0)
 1183 05be 50E0      		ldi r21,hi8(0)
 1184 05c0 60E0      		ldi r22,hlo8(0)
 1185 05c2 70E0      		ldi r23,hhi8(0)
 1186 05c4 0E94 0000 		call send_cmd
 1187               	.LM180:
 1188 05c8 8230      		cpi r24,lo8(2)
 1189               	.LVL53:
 1190 05ca 00F0      		brlo .+2
 1191 05cc 00C0      		rjmp .L135
 1192               	.LM181:
 1193 05ce 8FE7      		ldi r24,lo8(127)
 1194               	.LVL54:
 1195 05d0 D822      		and r13,r24
 1196               	.LVL55:
 1197               	.L134:
 1198               	.LBB675:
 1199               	.LBB676:
 1200               	.LM182:
 1201 05d2 80E1      		ldi r24,lo8(16)
 1202 05d4 E0E6      		ldi r30,lo8(1632)
 1203 05d6 F6E0      		ldi r31,hi8(1632)
 1204 05d8 8583      		std Z+5,r24
 1205               	.LBB677:
 1206               	.LBB678:
 1207               	.LM183:
 1208 05da 8FEF      		ldi r24,lo8(-1)
 1209 05dc E0EC      		ldi r30,lo8(2496)
 1210 05de F9E0      		ldi r31,hi8(2496)
 1211 05e0 8383      		std Z+3,r24
 1212               	.L136:
 1213               	.LM184:
 1214 05e2 8091 C209 		lds r24,2498
 1215 05e6 87FF      		sbrs r24,7
 1216 05e8 00C0      		rjmp .L136
 1217               	.LM185:
 1218 05ea 8091 C309 		lds r24,2499
 1219               	.LBE678:
 1220               	.LBE677:
 1221               	.LBE676:
 1222               	.LBE675:
 1223               	.LM186:
 1224 05ee 0E94 0000 		call select
 1225 05f2 8823      		tst r24
 1226 05f4 01F4      		brne .L137
 1227 05f6 8FEF      		ldi r24,lo8(-1)
 1228               	.LVL56:
 1229 05f8 00C0      		rjmp .L135
 1230               	.LVL57:
 1231               	.L137:
 1232               	.LM187:
 1233 05fa E0EC      		ldi r30,lo8(2496)
 1234 05fc F9E0      		ldi r31,hi8(2496)
 1235 05fe D382      		std Z+3,r13
 1236               	.L138:
 1237 0600 8091 C209 		lds r24,2498
 1238 0604 87FF      		sbrs r24,7
 1239 0606 00C0      		rjmp .L138
 1240               	.LM188:
 1241 0608 812F      		mov r24,r17
 1242 060a 9927      		clr r25
 1243 060c AA27      		clr r26
 1244 060e BB27      		clr r27
 1245 0610 E0EC      		ldi r30,lo8(2496)
 1246 0612 F9E0      		ldi r31,hi8(2496)
 1247 0614 8383      		std Z+3,r24
 1248               	.L139:
 1249 0616 8091 C209 		lds r24,2498
 1250 061a 87FF      		sbrs r24,7
 1251 061c 00C0      		rjmp .L139
 1252               	.LM189:
 1253 061e C801      		movw r24,r16
 1254 0620 AA27      		clr r26
 1255 0622 BB27      		clr r27
 1256 0624 E0EC      		ldi r30,lo8(2496)
 1257 0626 F9E0      		ldi r31,hi8(2496)
 1258 0628 8383      		std Z+3,r24
 1259               	.L140:
 1260 062a 8091 C209 		lds r24,2498
 1261 062e 87FF      		sbrs r24,7
 1262 0630 00C0      		rjmp .L140
 1263               	.LM190:
 1264 0632 BB27      		clr r27
 1265 0634 A12F      		mov r26,r17
 1266 0636 902F      		mov r25,r16
 1267 0638 8F2D      		mov r24,r15
 1268 063a E0EC      		ldi r30,lo8(2496)
 1269 063c F9E0      		ldi r31,hi8(2496)
 1270 063e 8383      		std Z+3,r24
 1271               	.L141:
 1272 0640 8091 C209 		lds r24,2498
 1273 0644 87FF      		sbrs r24,7
 1274 0646 00C0      		rjmp .L141
 1275               	.LM191:
 1276 0648 E0EC      		ldi r30,lo8(2496)
 1277 064a F9E0      		ldi r31,hi8(2496)
 1278 064c E382      		std Z+3,r14
 1279               	.L142:
 1280 064e 8091 C209 		lds r24,2498
 1281 0652 87FF      		sbrs r24,7
 1282 0654 00C0      		rjmp .L142
 1283               	.LM192:
 1284 0656 80E4      		ldi r24,lo8(64)
 1285 0658 D816      		cp r13,r24
 1286 065a 01F4      		brne .L143
 1287 065c 85E9      		ldi r24,lo8(-107)
 1288               	.LVL58:
 1289 065e 00C0      		rjmp .L144
 1290               	.LVL59:
 1291               	.L143:
 1292               	.LM193:
 1293 0660 88E4      		ldi r24,lo8(72)
 1294 0662 D816      		cp r13,r24
 1295 0664 01F4      		brne .L145
 1296 0666 87E8      		ldi r24,lo8(-121)
 1297               	.LVL60:
 1298 0668 00C0      		rjmp .L144
 1299               	.LVL61:
 1300               	.L145:
 1301 066a 81E0      		ldi r24,lo8(1)
 1302               	.LVL62:
 1303               	.L144:
 1304               	.LM194:
 1305 066c E0EC      		ldi r30,lo8(2496)
 1306 066e F9E0      		ldi r31,hi8(2496)
 1307 0670 8383      		std Z+3,r24
 1308               	.L146:
 1309 0672 8091 C209 		lds r24,2498
 1310               	.LVL63:
 1311 0676 87FF      		sbrs r24,7
 1312 0678 00C0      		rjmp .L146
 1313               	.LM195:
 1314 067a 8CE4      		ldi r24,lo8(76)
 1315 067c D816      		cp r13,r24
 1316 067e 01F4      		brne .L163
 1317               	.L147:
 1318               	.LBB679:
 1319               	.LBB680:
 1320               	.LM196:
 1321 0680 8FEF      		ldi r24,lo8(-1)
 1322 0682 E0EC      		ldi r30,lo8(2496)
 1323 0684 F9E0      		ldi r31,hi8(2496)
 1324 0686 8383      		std Z+3,r24
 1325               	.L149:
 1326               	.LM197:
 1327 0688 8091 C209 		lds r24,2498
 1328 068c 87FF      		sbrs r24,7
 1329 068e 00C0      		rjmp .L149
 1330               	.LM198:
 1331 0690 8091 C309 		lds r24,2499
 1332               	.L163:
 1333 0694 9AE0      		ldi r25,lo8(10)
 1334               	.LVL64:
 1335               	.LBE680:
 1336               	.LBE679:
 1337               	.LBB681:
 1338               	.LBB682:
 1339               	.LM199:
 1340 0696 E0EC      		ldi r30,lo8(2496)
 1341 0698 F9E0      		ldi r31,hi8(2496)
 1342 069a 2FEF      		ldi r18,lo8(-1)
 1343               	.LVL65:
 1344               	.L152:
 1345 069c 2383      		std Z+3,r18
 1346               	.L150:
 1347               	.LM200:
 1348 069e 8091 C209 		lds r24,2498
 1349               	.LVL66:
 1350 06a2 87FF      		sbrs r24,7
 1351 06a4 00C0      		rjmp .L150
 1352               	.LM201:
 1353 06a6 8091 C309 		lds r24,2499
 1354               	.LVL67:
 1355               	.LBE682:
 1356               	.LBE681:
 1357               	.LM202:
 1358 06aa 87FF      		sbrs r24,7
 1359 06ac 00C0      		rjmp .L135
 1360 06ae 9150      		subi r25,lo8(-(-1))
 1361 06b0 01F4      		brne .L152
 1362               	.L135:
 1363               	.LVL68:
 1364               	/* epilogue start */
 1365               	.LM203:
 1366 06b2 1F91      		pop r17
 1367 06b4 0F91      		pop r16
 1368 06b6 FF90      		pop r15
 1369 06b8 EF90      		pop r14
 1370               	.LVL69:
 1371 06ba DF90      		pop r13
 1372               	.LVL70:
 1373 06bc 0895      		ret
 1374               	.LFE48:
 1376               	.global	disk_initialize
 1378               	disk_initialize:
 1379               	.LFB49:
 1380               	.LM204:
 1381               	.LVL71:
 1382 06be EF92      		push r14
 1383 06c0 FF92      		push r15
 1384 06c2 0F93      		push r16
 1385 06c4 1F93      		push r17
 1386 06c6 DF93      		push r29
 1387 06c8 CF93      		push r28
 1388 06ca CDB7      		in r28,__SP_L__
 1389 06cc DEB7      		in r29,__SP_H__
 1390 06ce 2597      		sbiw r28,5
 1391 06d0 CDBF      		out __SP_L__,r28
 1392 06d2 DEBF      		out __SP_H__,r29
 1393               	/* prologue: function */
 1394               	/* frame size = 5 */
 1395               	.LM205:
 1396 06d4 8823      		tst r24
 1397 06d6 01F0      		breq .L165
 1398 06d8 81E0      		ldi r24,lo8(1)
 1399               	.LVL72:
 1400 06da 00C0      		rjmp .L166
 1401               	.LVL73:
 1402               	.L165:
 1403               	.LM206:
 1404 06dc 8091 0000 		lds r24,Stat
 1405               	.LVL74:
 1406 06e0 81FD      		sbrc r24,1
 1407 06e2 00C0      		rjmp .L200
 1408               	.L167:
 1409               	.LBB683:
 1410               	.LBB684:
 1411               	.LM207:
 1412 06e4 E0E6      		ldi r30,lo8(1632)
 1413 06e6 F6E0      		ldi r31,hi8(1632)
 1414 06e8 80EB      		ldi r24,lo8(-80)
 1415 06ea 8183      		std Z+1,r24
 1416               	.LM208:
 1417 06ec 88E3      		ldi r24,lo8(56)
 1418 06ee 868B      		std Z+22,r24
 1419               	.LM209:
 1420 06f0 1482      		std Z+4,__zero_reg__
 1421 06f2 8CE2      		ldi r24,lo8(300)
 1422 06f4 91E0      		ldi r25,hi8(300)
 1423               	.LVL75:
 1424               	.LBB685:
 1425               	.LBB686:
 1426               	.LBB687:
 1427               	.LBB688:
 1428               	.LM210:
 1429 06f6 20E7      		ldi r18,lo8(368)
 1430 06f8 31E0      		ldi r19,hi8(368)
 1431               	.L168:
 1432 06fa F901      		movw r30,r18
 1433               	.LVL76:
 1434               	/* #APP */
 1435               	 ;  105 "/usr/local/CrossPack-AVR-20100115/lib/gcc/avr/4.3.3/../../../../avr/include/util/delay_bas
 1436 06fc 3197      		1: sbiw r30,1
 1437 06fe 01F4      		brne 1b
 1438               	 ;  0 "" 2
 1439               	/* #NOAPP */
 1440               	.LBE688:
 1441               	.LBE687:
 1442               	.LM211:
 1443 0700 0197      		sbiw r24,1
 1444               	.LM212:
 1445 0702 01F4      		brne .L168
 1446               	.LBE686:
 1447               	.LBE685:
 1448               	.LBE684:
 1449               	.LBE683:
 1450               	.LBB689:
 1451               	.LBB690:
 1452               	.LM213:
 1453 0704 8FB7      		in r24,__SREG__
 1454               	.LVL77:
 1455 0706 8983      		std Y+1,r24
 1456               	.LVL78:
 1457               	.LM214:
 1458               	/* #APP */
 1459               	 ;  217 "sd.c" 1
 1460 0708 F894      		cli
 1461               	 ;  0 "" 2
 1462               	.LM215:
 1463               	/* #NOAPP */
 1464 070a 1BBE      		out 59-0,__zero_reg__
 1465               	.LM216:
 1466 070c 24E0      		ldi r18,lo8(4)
 1467 070e 81E4      		ldi r24,lo8(65)
 1468 0710 90E0      		ldi r25,hi8(65)
 1469               	/* #APP */
 1470               	 ;  239 "sd.c" 1
 1471 0712 FC01      		movw r30,  r24
 1472 0714 08ED      		ldi  r16,  216
 1473 0716 04BF      		out   52, r16
 1474 0718 2083      		st     Z,  r18
 1475               		
 1476               	 ;  0 "" 2
 1477               	.LVL79:
 1478               	.LM217:
 1479               	/* #NOAPP */
 1480 071a 8981      		ldd r24,Y+1
 1481 071c 8FBF      		out __SREG__,r24
 1482               	.LBE690:
 1483               	.LBE689:
 1484               	.LM218:
 1485 071e 83E5      		ldi r24,lo8(83)
 1486 0720 8093 C009 		sts 2496,r24
 1487 0724 9AE0      		ldi r25,lo8(10)
 1488               	.LVL80:
 1489               	.LBB691:
 1490               	.LBB692:
 1491               	.LM219:
 1492 0726 E0EC      		ldi r30,lo8(2496)
 1493 0728 F9E0      		ldi r31,hi8(2496)
 1494 072a 2FEF      		ldi r18,lo8(-1)
 1495               	.L170:
 1496 072c 2383      		std Z+3,r18
 1497               	.L169:
 1498               	.LM220:
 1499 072e 8091 C209 		lds r24,2498
 1500 0732 87FF      		sbrs r24,7
 1501 0734 00C0      		rjmp .L169
 1502               	.LM221:
 1503 0736 8091 C309 		lds r24,2499
 1504               	.LBE692:
 1505               	.LBE691:
 1506               	.LM222:
 1507 073a 9150      		subi r25,lo8(-(-1))
 1508 073c 01F4      		brne .L170
 1509               	.LM223:
 1510 073e 80E4      		ldi r24,lo8(64)
 1511 0740 40E0      		ldi r20,lo8(0)
 1512 0742 50E0      		ldi r21,hi8(0)
 1513 0744 60E0      		ldi r22,hlo8(0)
 1514 0746 70E0      		ldi r23,hhi8(0)
 1515 0748 0E94 0000 		call send_cmd
 1516               	.LVL81:
 1517 074c 8130      		cpi r24,lo8(1)
 1518 074e 01F0      		breq .+2
 1519 0750 00C0      		rjmp .L171
 1520               	.LM224:
 1521 0752 84E6      		ldi r24,lo8(100)
 1522 0754 8093 0000 		sts Timer1,r24
 1523               	.LM225:
 1524 0758 88E4      		ldi r24,lo8(72)
 1525 075a 4AEA      		ldi r20,lo8(426)
 1526 075c 51E0      		ldi r21,hi8(426)
 1527 075e 60E0      		ldi r22,hlo8(426)
 1528 0760 70E0      		ldi r23,hhi8(426)
 1529 0762 0E94 0000 		call send_cmd
 1530 0766 8130      		cpi r24,lo8(1)
 1531 0768 01F0      		breq .+2
 1532 076a 00C0      		rjmp .L172
 1533 076c 32E0      		ldi r19,lo8(2)
 1534 076e E32E      		mov r14,r19
 1535 0770 F12C      		mov r15,__zero_reg__
 1536 0772 EC0E      		add r14,r28
 1537 0774 FD1E      		adc r15,r29
 1538 0776 8701      		movw r16,r14
 1539               	.LBB693:
 1540               	.LBB694:
 1541               	.LM226:
 1542 0778 E0EC      		ldi r30,lo8(2496)
 1543 077a F9E0      		ldi r31,hi8(2496)
 1544 077c 9FEF      		ldi r25,lo8(-1)
 1545               	.LBE694:
 1546               	.LBE693:
 1547               	.LM227:
 1548 077e 9E01      		movw r18,r28
 1549 0780 2A5F      		subi r18,lo8(-(6))
 1550 0782 3F4F      		sbci r19,hi8(-(6))
 1551               	.L174:
 1552               	.LBB696:
 1553               	.LBB695:
 1554               	.LM228:
 1555 0784 9383      		std Z+3,r25
 1556               	.L173:
 1557               	.LM229:
 1558 0786 8091 C209 		lds r24,2498
 1559 078a 87FF      		sbrs r24,7
 1560 078c 00C0      		rjmp .L173
 1561               	.LM230:
 1562 078e 8091 C309 		lds r24,2499
 1563               	.LBE695:
 1564               	.LBE696:
 1565               	.LM231:
 1566 0792 D801      		movw r26,r16
 1567 0794 8D93      		st X+,r24
 1568 0796 8D01      		movw r16,r26
 1569 0798 A217      		cp r26,r18
 1570 079a B307      		cpc r27,r19
 1571 079c 01F4      		brne .L174
 1572               	.LM232:
 1573 079e 8C81      		ldd r24,Y+4
 1574 07a0 8130      		cpi r24,lo8(1)
 1575 07a2 01F0      		breq .+2
 1576 07a4 00C0      		rjmp .L171
 1577 07a6 8D81      		ldd r24,Y+5
 1578 07a8 8A3A      		cpi r24,lo8(-86)
 1579 07aa 01F0      		breq .+2
 1580 07ac 00C0      		rjmp .L171
 1581               	.L188:
 1582               	.LM233:
 1583 07ae 8091 0000 		lds r24,Timer1
 1584 07b2 8823      		tst r24
 1585 07b4 01F0      		breq .L175
 1586 07b6 89EE      		ldi r24,lo8(-23)
 1587 07b8 40E0      		ldi r20,lo8(1073741824)
 1588 07ba 50E0      		ldi r21,hi8(1073741824)
 1589 07bc 60E0      		ldi r22,hlo8(1073741824)
 1590 07be 70E4      		ldi r23,hhi8(1073741824)
 1591 07c0 0E94 0000 		call send_cmd
 1592 07c4 8823      		tst r24
 1593 07c6 01F4      		brne .L188
 1594               	.L175:
 1595               	.LM234:
 1596 07c8 8091 0000 		lds r24,Timer1
 1597 07cc 8823      		tst r24
 1598 07ce 01F4      		brne .+2
 1599 07d0 00C0      		rjmp .L171
 1600 07d2 8AE7      		ldi r24,lo8(122)
 1601 07d4 40E0      		ldi r20,lo8(0)
 1602 07d6 50E0      		ldi r21,hi8(0)
 1603 07d8 60E0      		ldi r22,hlo8(0)
 1604 07da 70E0      		ldi r23,hhi8(0)
 1605 07dc 0E94 0000 		call send_cmd
 1606 07e0 8823      		tst r24
 1607 07e2 01F0      		breq .+2
 1608 07e4 00C0      		rjmp .L171
 1609               	.LBB697:
 1610               	.LBB698:
 1611               	.LM235:
 1612 07e6 E0EC      		ldi r30,lo8(2496)
 1613 07e8 F9E0      		ldi r31,hi8(2496)
 1614 07ea 9FEF      		ldi r25,lo8(-1)
 1615               	.L187:
 1616 07ec 9383      		std Z+3,r25
 1617               	.L177:
 1618               	.LM236:
 1619 07ee 8091 C209 		lds r24,2498
 1620 07f2 87FF      		sbrs r24,7
 1621 07f4 00C0      		rjmp .L177
 1622               	.LM237:
 1623 07f6 8091 C309 		lds r24,2499
 1624               	.LBE698:
 1625               	.LBE697:
 1626               	.LM238:
 1627 07fa D701      		movw r26,r14
 1628 07fc 8D93      		st X+,r24
 1629 07fe 7D01      		movw r14,r26
 1630 0800 A017      		cp r26,r16
 1631 0802 B107      		cpc r27,r17
 1632 0804 01F4      		brne .L187
 1633               	.LM239:
 1634 0806 8A81      		ldd r24,Y+2
 1635 0808 86FD      		sbrc r24,6
 1636 080a 00C0      		rjmp .L179
 1637 080c 14E0      		ldi r17,lo8(4)
 1638               	.LVL82:
 1639 080e 00C0      		rjmp .L180
 1640               	.LVL83:
 1641               	.L179:
 1642 0810 1CE0      		ldi r17,lo8(12)
 1643               	.LVL84:
 1644 0812 00C0      		rjmp .L180
 1645               	.LVL85:
 1646               	.L172:
 1647               	.LM240:
 1648 0814 89EE      		ldi r24,lo8(-23)
 1649 0816 40E0      		ldi r20,lo8(0)
 1650 0818 50E0      		ldi r21,hi8(0)
 1651 081a 60E0      		ldi r22,hlo8(0)
 1652 081c 70E0      		ldi r23,hhi8(0)
 1653 081e 0E94 0000 		call send_cmd
 1654 0822 8230      		cpi r24,lo8(2)
 1655 0824 00F0      		brlo .L181
 1656 0826 01E4      		ldi r16,lo8(65)
 1657               	.LVL86:
 1658 0828 11E0      		ldi r17,lo8(1)
 1659               	.LVL87:
 1660 082a 00C0      		rjmp .L189
 1661               	.LVL88:
 1662               	.L181:
 1663 082c 09EE      		ldi r16,lo8(-23)
 1664               	.LVL89:
 1665 082e 12E0      		ldi r17,lo8(2)
 1666               	.LVL90:
 1667               	.L189:
 1668               	.LM241:
 1669 0830 8091 0000 		lds r24,Timer1
 1670 0834 8823      		tst r24
 1671 0836 01F0      		breq .L183
 1672 0838 802F      		mov r24,r16
 1673 083a 40E0      		ldi r20,lo8(0)
 1674 083c 50E0      		ldi r21,hi8(0)
 1675 083e 60E0      		ldi r22,hlo8(0)
 1676 0840 70E0      		ldi r23,hhi8(0)
 1677 0842 0E94 0000 		call send_cmd
 1678 0846 8823      		tst r24
 1679 0848 01F4      		brne .L189
 1680               	.L183:
 1681               	.LM242:
 1682 084a 8091 0000 		lds r24,Timer1
 1683 084e 8823      		tst r24
 1684 0850 01F0      		breq .L171
 1685 0852 80E5      		ldi r24,lo8(80)
 1686 0854 40E0      		ldi r20,lo8(512)
 1687 0856 52E0      		ldi r21,hi8(512)
 1688 0858 60E0      		ldi r22,hlo8(512)
 1689 085a 70E0      		ldi r23,hhi8(512)
 1690 085c 0E94 0000 		call send_cmd
 1691 0860 8111      		cpse r24,__zero_reg__
 1692               	.L171:
 1693 0862 10E0      		ldi r17,lo8(0)
 1694               	.L180:
 1695               	.LM243:
 1696 0864 1093 0000 		sts CardType,r17
 1697               	.LBB699:
 1698               	.LBB700:
 1699               	.LM244:
 1700 0868 80E1      		ldi r24,lo8(16)
 1701 086a E0E6      		ldi r30,lo8(1632)
 1702 086c F6E0      		ldi r31,hi8(1632)
 1703 086e 8583      		std Z+5,r24
 1704               	.LBB701:
 1705               	.LBB702:
 1706               	.LM245:
 1707 0870 8FEF      		ldi r24,lo8(-1)
 1708 0872 E0EC      		ldi r30,lo8(2496)
 1709 0874 F9E0      		ldi r31,hi8(2496)
 1710 0876 8383      		std Z+3,r24
 1711               	.L184:
 1712               	.LM246:
 1713 0878 8091 C209 		lds r24,2498
 1714 087c 87FF      		sbrs r24,7
 1715 087e 00C0      		rjmp .L184
 1716               	.LM247:
 1717 0880 8091 C309 		lds r24,2499
 1718               	.LBE702:
 1719               	.LBE701:
 1720               	.LBE700:
 1721               	.LBE699:
 1722               	.LM248:
 1723 0884 1123      		tst r17
 1724 0886 01F0      		breq .L185
 1725               	.LM249:
 1726 0888 8091 0000 		lds r24,Stat
 1727 088c 8E7F      		andi r24,lo8(-2)
 1728 088e 8093 0000 		sts Stat,r24
 1729               	.LM250:
 1730 0892 80ED      		ldi r24,lo8(-48)
 1731 0894 8093 C009 		sts 2496,r24
 1732               	.L185:
 1733               	.LBB703:
 1734               	.LBB704:
 1735               	.LM251:
 1736 0898 8FB7      		in r24,__SREG__
 1737 089a 8983      		std Y+1,r24
 1738               	.LVL91:
 1739               	.LM252:
 1740               	/* #APP */
 1741               	 ;  217 "sd.c" 1
 1742 089c F894      		cli
 1743               	 ;  0 "" 2
 1744               	.LM253:
 1745               	/* #NOAPP */
 1746 089e 1BBE      		out 59-0,__zero_reg__
 1747               	.LM254:
 1748 08a0 20E0      		ldi r18,lo8(0)
 1749 08a2 81E4      		ldi r24,lo8(65)
 1750 08a4 90E0      		ldi r25,hi8(65)
 1751               	/* #APP */
 1752               	 ;  239 "sd.c" 1
 1753 08a6 FC01      		movw r30,  r24
 1754 08a8 08ED      		ldi  r16,  216
 1755 08aa 04BF      		out   52, r16
 1756 08ac 2083      		st     Z,  r18
 1757               		
 1758               	 ;  0 "" 2
 1759               	.LVL92:
 1760               	.LM255:
 1761               	/* #NOAPP */
 1762 08ae 8981      		ldd r24,Y+1
 1763 08b0 8FBF      		out __SREG__,r24
 1764               	.L200:
 1765               	.LBE704:
 1766               	.LBE703:
 1767               	.LM256:
 1768 08b2 8091 0000 		lds r24,Stat
 1769               	.L166:
 1770               	/* epilogue start */
 1771               	.LM257:
 1772 08b6 2596      		adiw r28,5
 1773 08b8 CDBF      		out __SP_L__,r28
 1774 08ba DEBF      		out __SP_H__,r29
 1775 08bc CF91      		pop r28
 1776 08be DF91      		pop r29
 1777 08c0 1F91      		pop r17
 1778               	.LVL93:
 1779 08c2 0F91      		pop r16
 1780 08c4 FF90      		pop r15
 1781 08c6 EF90      		pop r14
 1782 08c8 0895      		ret
 1783               	.LFE49:
 1785               	.global	disk_status
 1787               	disk_status:
 1788               	.LFB50:
 1789               	.LM258:
 1790               	.LVL94:
 1791               	/* prologue: function */
 1792               	/* frame size = 0 */
 1793               	.LM259:
 1794 08ca 8823      		tst r24
 1795 08cc 01F0      		breq .L202
 1796 08ce 81E0      		ldi r24,lo8(1)
 1797               	.LVL95:
 1798 08d0 0895      		ret
 1799               	.LVL96:
 1800               	.L202:
 1801               	.LM260:
 1802 08d2 8091 0000 		lds r24,Stat
 1803               	.LVL97:
 1804               	.LM261:
 1805 08d6 0895      		ret
 1806               	.LFE50:
 1808               	.global	disk_read
 1810               	disk_read:
 1811               	.LFB51:
 1812               	.LM262:
 1813               	.LVL98:
 1814 08d8 0F93      		push r16
 1815               	.LVL99:
 1816 08da CF93      		push r28
 1817 08dc DF93      		push r29
 1818               	/* prologue: function */
 1819               	/* frame size = 0 */
 1820 08de EB01      		movw r28,r22
 1821               	.LM263:
 1822 08e0 8823      		tst r24
 1823 08e2 01F0      		breq .+2
 1824 08e4 00C0      		rjmp .L206
 1825               	.LVL100:
 1826 08e6 0023      		tst r16
 1827               	.LVL101:
 1828 08e8 01F4      		brne .+2
 1829 08ea 00C0      		rjmp .L206
 1830               	.LM264:
 1831 08ec 8091 0000 		lds r24,Stat
 1832               	.LVL102:
 1833 08f0 80FF      		sbrs r24,0
 1834 08f2 00C0      		rjmp .L207
 1835 08f4 03E0      		ldi r16,lo8(3)
 1836               	.LVL103:
 1837 08f6 00C0      		rjmp .L208
 1838               	.LVL104:
 1839               	.L207:
 1840               	.LM265:
 1841 08f8 8091 0000 		lds r24,CardType
 1842 08fc 83FD      		sbrc r24,3
 1843 08fe 00C0      		rjmp .L209
 1844 0900 69E0      		ldi r22,9
 1845 0902 220F      	1:	lsl r18
 1846 0904 331F      		rol r19
 1847 0906 441F      		rol r20
 1848 0908 551F      		rol r21
 1849 090a 6A95      		dec r22
 1850 090c 01F4      		brne 1b
 1851               	.LVL105:
 1852               	.L209:
 1853               	.LM266:
 1854 090e 0130      		cpi r16,lo8(1)
 1855 0910 01F4      		brne .L210
 1856               	.LM267:
 1857 0912 81E5      		ldi r24,lo8(81)
 1858 0914 BA01      		movw r22,r20
 1859 0916 A901      		movw r20,r18
 1860 0918 0E94 0000 		call send_cmd
 1861               	.LVL106:
 1862 091c 8823      		tst r24
 1863 091e 01F4      		brne .L211
 1864 0920 CE01      		movw r24,r28
 1865 0922 60E0      		ldi r22,lo8(512)
 1866 0924 72E0      		ldi r23,hi8(512)
 1867 0926 0E94 0000 		call rcvr_datablock
 1868 092a 00E0      		ldi r16,lo8(0)
 1869 092c 8823      		tst r24
 1870 092e 01F4      		brne .L211
 1871 0930 01E0      		ldi r16,lo8(1)
 1872 0932 00C0      		rjmp .L211
 1873               	.LVL107:
 1874               	.L210:
 1875               	.LM268:
 1876 0934 82E5      		ldi r24,lo8(82)
 1877 0936 BA01      		movw r22,r20
 1878 0938 A901      		movw r20,r18
 1879 093a 0E94 0000 		call send_cmd
 1880               	.LVL108:
 1881 093e 8823      		tst r24
 1882 0940 01F4      		brne .L211
 1883               	.L219:
 1884               	.LM269:
 1885 0942 CE01      		movw r24,r28
 1886 0944 60E0      		ldi r22,lo8(512)
 1887 0946 72E0      		ldi r23,hi8(512)
 1888 0948 0E94 0000 		call rcvr_datablock
 1889 094c 8823      		tst r24
 1890 094e 01F0      		breq .L213
 1891               	.LM270:
 1892 0950 0150      		subi r16,lo8(-(-1))
 1893 0952 01F0      		breq .L213
 1894               	.LM271:
 1895 0954 C050      		subi r28,lo8(-(512))
 1896 0956 DE4F      		sbci r29,hi8(-(512))
 1897 0958 00C0      		rjmp .L219
 1898               	.L213:
 1899               	.LM272:
 1900 095a 8CE4      		ldi r24,lo8(76)
 1901 095c 40E0      		ldi r20,lo8(0)
 1902 095e 50E0      		ldi r21,hi8(0)
 1903 0960 60E0      		ldi r22,hlo8(0)
 1904 0962 70E0      		ldi r23,hhi8(0)
 1905 0964 0E94 0000 		call send_cmd
 1906               	.L211:
 1907               	.LBB705:
 1908               	.LBB706:
 1909               	.LM273:
 1910 0968 80E1      		ldi r24,lo8(16)
 1911 096a E0E6      		ldi r30,lo8(1632)
 1912 096c F6E0      		ldi r31,hi8(1632)
 1913 096e 8583      		std Z+5,r24
 1914               	.LBB707:
 1915               	.LBB708:
 1916               	.LM274:
 1917 0970 8FEF      		ldi r24,lo8(-1)
 1918 0972 E0EC      		ldi r30,lo8(2496)
 1919 0974 F9E0      		ldi r31,hi8(2496)
 1920 0976 8383      		std Z+3,r24
 1921               	.L215:
 1922               	.LM275:
 1923 0978 8091 C209 		lds r24,2498
 1924 097c 87FF      		sbrs r24,7
 1925 097e 00C0      		rjmp .L215
 1926               	.LM276:
 1927 0980 8091 C309 		lds r24,2499
 1928               	.LBE708:
 1929               	.LBE707:
 1930               	.LBE706:
 1931               	.LBE705:
 1932               	.LM277:
 1933 0984 0023      		tst r16
 1934 0986 01F0      		breq .L208
 1935 0988 01E0      		ldi r16,lo8(1)
 1936               	.LVL109:
 1937 098a 00C0      		rjmp .L208
 1938               	.LVL110:
 1939               	.L206:
 1940 098c 04E0      		ldi r16,lo8(4)
 1941               	.LVL111:
 1942               	.L208:
 1943               	.LM278:
 1944 098e 802F      		mov r24,r16
 1945               	.LVL112:
 1946               	/* epilogue start */
 1947 0990 DF91      		pop r29
 1948 0992 CF91      		pop r28
 1949               	.LVL113:
 1950 0994 0F91      		pop r16
 1951 0996 0895      		ret
 1952               	.LFE51:
 1954               	.global	disk_write
 1956               	disk_write:
 1957               	.LFB52:
 1958               	.LM279:
 1959               	.LVL114:
 1960 0998 CF92      		push r12
 1961 099a DF92      		push r13
 1962 099c EF92      		push r14
 1963 099e FF92      		push r15
 1964 09a0 0F93      		push r16
 1965               	.LVL115:
 1966 09a2 CF93      		push r28
 1967 09a4 DF93      		push r29
 1968               	/* prologue: function */
 1969               	/* frame size = 0 */
 1970 09a6 EB01      		movw r28,r22
 1971 09a8 6901      		movw r12,r18
 1972 09aa 7A01      		movw r14,r20
 1973               	.LM280:
 1974 09ac 8823      		tst r24
 1975 09ae 01F0      		breq .+2
 1976 09b0 00C0      		rjmp .L221
 1977               	.LVL116:
 1978 09b2 0023      		tst r16
 1979               	.LVL117:
 1980 09b4 01F4      		brne .+2
 1981 09b6 00C0      		rjmp .L221
 1982               	.LM281:
 1983 09b8 8091 0000 		lds r24,Stat
 1984               	.LVL118:
 1985 09bc 80FF      		sbrs r24,0
 1986 09be 00C0      		rjmp .L222
 1987 09c0 03E0      		ldi r16,lo8(3)
 1988               	.LVL119:
 1989 09c2 00C0      		rjmp .L223
 1990               	.LVL120:
 1991               	.L222:
 1992               	.LM282:
 1993 09c4 8091 0000 		lds r24,Stat
 1994 09c8 82FF      		sbrs r24,2
 1995 09ca 00C0      		rjmp .L224
 1996 09cc 02E0      		ldi r16,lo8(2)
 1997               	.LVL121:
 1998 09ce 00C0      		rjmp .L223
 1999               	.LVL122:
 2000               	.L224:
 2001               	.LM283:
 2002 09d0 8091 0000 		lds r24,CardType
 2003 09d4 90E0      		ldi r25,lo8(0)
 2004 09d6 83FD      		sbrc r24,3
 2005 09d8 00C0      		rjmp .L225
 2006 09da 79E0      		ldi r23,9
 2007 09dc CC0C      	1:	lsl r12
 2008 09de DD1C      		rol r13
 2009 09e0 EE1C      		rol r14
 2010 09e2 FF1C      		rol r15
 2011 09e4 7A95      		dec r23
 2012 09e6 01F4      		brne 1b
 2013               	.LVL123:
 2014               	.L225:
 2015               	.LM284:
 2016 09e8 0130      		cpi r16,lo8(1)
 2017 09ea 01F4      		brne .L226
 2018               	.LM285:
 2019 09ec 88E5      		ldi r24,lo8(88)
 2020 09ee B701      		movw r22,r14
 2021 09f0 A601      		movw r20,r12
 2022 09f2 0E94 0000 		call send_cmd
 2023 09f6 8823      		tst r24
 2024 09f8 01F4      		brne .L227
 2025 09fa CE01      		movw r24,r28
 2026 09fc 6EEF      		ldi r22,lo8(-2)
 2027 09fe 0E94 0000 		call xmit_datablock
 2028 0a02 00E0      		ldi r16,lo8(0)
 2029 0a04 00C0      		rjmp .L238
 2030               	.LVL124:
 2031               	.L226:
 2032               	.LM286:
 2033 0a06 8670      		andi r24,lo8(6)
 2034 0a08 9070      		andi r25,hi8(6)
 2035 0a0a 892B      		or r24,r25
 2036 0a0c 01F0      		breq .L229
 2037 0a0e 402F      		mov r20,r16
 2038 0a10 50E0      		ldi r21,lo8(0)
 2039               	.LVL125:
 2040 0a12 60E0      		ldi r22,lo8(0)
 2041 0a14 70E0      		ldi r23,hi8(0)
 2042               	.LVL126:
 2043 0a16 87ED      		ldi r24,lo8(-41)
 2044 0a18 0E94 0000 		call send_cmd
 2045               	.LVL127:
 2046               	.L229:
 2047               	.LM287:
 2048 0a1c 89E5      		ldi r24,lo8(89)
 2049 0a1e B701      		movw r22,r14
 2050 0a20 A601      		movw r20,r12
 2051 0a22 0E94 0000 		call send_cmd
 2052 0a26 8823      		tst r24
 2053 0a28 01F4      		brne .L227
 2054               	.L236:
 2055               	.LM288:
 2056 0a2a CE01      		movw r24,r28
 2057 0a2c 6CEF      		ldi r22,lo8(-4)
 2058 0a2e 0E94 0000 		call xmit_datablock
 2059 0a32 8823      		tst r24
 2060 0a34 01F0      		breq .L230
 2061               	.LM289:
 2062 0a36 0150      		subi r16,lo8(-(-1))
 2063 0a38 01F0      		breq .L230
 2064               	.LM290:
 2065 0a3a C050      		subi r28,lo8(-(512))
 2066 0a3c DE4F      		sbci r29,hi8(-(512))
 2067 0a3e 00C0      		rjmp .L236
 2068               	.L230:
 2069               	.LM291:
 2070 0a40 80E0      		ldi r24,lo8(0)
 2071 0a42 90E0      		ldi r25,hi8(0)
 2072 0a44 6DEF      		ldi r22,lo8(-3)
 2073 0a46 0E94 0000 		call xmit_datablock
 2074               	.L238:
 2075 0a4a 8823      		tst r24
 2076 0a4c 01F4      		brne .L227
 2077 0a4e 01E0      		ldi r16,lo8(1)
 2078               	.L227:
 2079               	.LBB709:
 2080               	.LBB710:
 2081               	.LM292:
 2082 0a50 80E1      		ldi r24,lo8(16)
 2083 0a52 E0E6      		ldi r30,lo8(1632)
 2084 0a54 F6E0      		ldi r31,hi8(1632)
 2085 0a56 8583      		std Z+5,r24
 2086               	.LBB711:
 2087               	.LBB712:
 2088               	.LM293:
 2089 0a58 8FEF      		ldi r24,lo8(-1)
 2090 0a5a E0EC      		ldi r30,lo8(2496)
 2091 0a5c F9E0      		ldi r31,hi8(2496)
 2092 0a5e 8383      		std Z+3,r24
 2093               	.L232:
 2094               	.LM294:
 2095 0a60 8091 C209 		lds r24,2498
 2096 0a64 87FF      		sbrs r24,7
 2097 0a66 00C0      		rjmp .L232
 2098               	.LM295:
 2099 0a68 8091 C309 		lds r24,2499
 2100               	.LBE712:
 2101               	.LBE711:
 2102               	.LBE710:
 2103               	.LBE709:
 2104               	.LM296:
 2105 0a6c 0023      		tst r16
 2106 0a6e 01F0      		breq .L223
 2107 0a70 01E0      		ldi r16,lo8(1)
 2108               	.LVL128:
 2109 0a72 00C0      		rjmp .L223
 2110               	.LVL129:
 2111               	.L221:
 2112 0a74 04E0      		ldi r16,lo8(4)
 2113               	.LVL130:
 2114               	.L223:
 2115               	.LM297:
 2116 0a76 802F      		mov r24,r16
 2117               	.LVL131:
 2118               	/* epilogue start */
 2119 0a78 DF91      		pop r29
 2120 0a7a CF91      		pop r28
 2121               	.LVL132:
 2122 0a7c 0F91      		pop r16
 2123 0a7e FF90      		pop r15
 2124 0a80 EF90      		pop r14
 2125 0a82 DF90      		pop r13
 2126 0a84 CF90      		pop r12
 2127               	.LVL133:
 2128 0a86 0895      		ret
 2129               	.LFE52:
 2131               	.global	disk_ioctl
 2133               	disk_ioctl:
 2134               	.LFB53:
 2135               	.LM298:
 2136               	.LVL134:
 2137 0a88 FF92      		push r15
 2138 0a8a 0F93      		push r16
 2139 0a8c 1F93      		push r17
 2140 0a8e DF93      		push r29
 2141 0a90 CF93      		push r28
 2142 0a92 CDB7      		in r28,__SP_L__
 2143 0a94 DEB7      		in r29,__SP_H__
 2144 0a96 6097      		sbiw r28,16
 2145 0a98 CDBF      		out __SP_L__,r28
 2146 0a9a DEBF      		out __SP_H__,r29
 2147               	/* prologue: function */
 2148               	/* frame size = 16 */
 2149 0a9c 8A01      		movw r16,r20
 2150               	.LM299:
 2151 0a9e 8823      		tst r24
 2152 0aa0 01F0      		breq .+2
 2153 0aa2 00C0      		rjmp .L240
 2154               	.LVL135:
 2155               	.LM300:
 2156 0aa4 6430      		cpi r22,lo8(4)
 2157 0aa6 01F4      		brne .L241
 2158               	.LM301:
 2159 0aa8 FA01      		movw r30,r20
 2160 0aaa 8081      		ld r24,Z
 2161               	.LVL136:
 2162 0aac 8130      		cpi r24,lo8(1)
 2163 0aae 01F0      		breq .L243
 2164               	.LVL137:
 2165 0ab0 8130      		cpi r24,lo8(1)
 2166 0ab2 00F4      		brsh .+2
 2167 0ab4 00C0      		rjmp .L242
 2168 0ab6 8230      		cpi r24,lo8(2)
 2169 0ab8 01F0      		breq .+2
 2170 0aba 00C0      		rjmp .L240
 2171 0abc 00C0      		rjmp .L292
 2172               	.L243:
 2173               	.LBB713:
 2174               	.LBB714:
 2175               	.LM302:
 2176 0abe E0E6      		ldi r30,lo8(1632)
 2177 0ac0 F6E0      		ldi r31,hi8(1632)
 2178 0ac2 80EB      		ldi r24,lo8(-80)
 2179 0ac4 8183      		std Z+1,r24
 2180               	.LM303:
 2181 0ac6 88E3      		ldi r24,lo8(56)
 2182 0ac8 868B      		std Z+22,r24
 2183               	.LM304:
 2184 0aca 1482      		std Z+4,__zero_reg__
 2185 0acc 8CE2      		ldi r24,lo8(300)
 2186 0ace 91E0      		ldi r25,hi8(300)
 2187               	.LVL138:
 2188               	.LBB715:
 2189               	.LBB716:
 2190               	.LBB717:
 2191               	.LBB718:
 2192               	.LM305:
 2193 0ad0 20E7      		ldi r18,lo8(368)
 2194 0ad2 31E0      		ldi r19,hi8(368)
 2195               	.L245:
 2196 0ad4 F901      		movw r30,r18
 2197               	.LVL139:
 2198               	/* #APP */
 2199               	 ;  105 "/usr/local/CrossPack-AVR-20100115/lib/gcc/avr/4.3.3/../../../../avr/include/util/delay_bas
 2200 0ad6 3197      		1: sbiw r30,1
 2201 0ad8 01F4      		brne 1b
 2202               	 ;  0 "" 2
 2203               	/* #NOAPP */
 2204               	.LBE718:
 2205               	.LBE717:
 2206               	.LM306:
 2207 0ada 0197      		sbiw r24,1
 2208               	.LM307:
 2209 0adc 01F4      		brne .L245
 2210 0ade 00C0      		rjmp .L242
 2211               	.LVL140:
 2212               	.L292:
 2213               	.LBE716:
 2214               	.LBE715:
 2215               	.LBE714:
 2216               	.LBE713:
 2217               	.LM308:
 2218 0ae0 81E0      		ldi r24,lo8(1)
 2219 0ae2 FA01      		movw r30,r20
 2220 0ae4 8183      		std Z+1,r24
 2221 0ae6 00C0      		rjmp .L242
 2222               	.LVL141:
 2223               	.L241:
 2224               	.LM309:
 2225 0ae8 8091 0000 		lds r24,Stat
 2226               	.LVL142:
 2227 0aec 80FF      		sbrs r24,0
 2228 0aee 00C0      		rjmp .L247
 2229 0af0 93E0      		ldi r25,lo8(3)
 2230               	.LVL143:
 2231 0af2 00C0      		rjmp .L246
 2232               	.LVL144:
 2233               	.L247:
 2234               	.LM310:
 2235 0af4 6A30      		cpi r22,lo8(10)
 2236 0af6 01F4      		brne .+2
 2237 0af8 00C0      		rjmp .L253
 2238 0afa 6B30      		cpi r22,lo8(11)
 2239 0afc 00F4      		brsh .L258
 2240 0afe 6130      		cpi r22,lo8(1)
 2241 0b00 01F0      		breq .L250
 2242 0b02 6130      		cpi r22,lo8(1)
 2243 0b04 00F0      		brlo .L249
 2244 0b06 6230      		cpi r22,lo8(2)
 2245 0b08 01F4      		brne .+2
 2246 0b0a 00C0      		rjmp .L251
 2247 0b0c 6330      		cpi r22,lo8(3)
 2248 0b0e 01F4      		brne .L248
 2249 0b10 00C0      		rjmp .L293
 2250               	.L258:
 2251 0b12 6C30      		cpi r22,lo8(12)
 2252 0b14 01F4      		brne .+2
 2253 0b16 00C0      		rjmp .L255
 2254 0b18 6C30      		cpi r22,lo8(12)
 2255 0b1a 00F4      		brsh .+2
 2256 0b1c 00C0      		rjmp .L254
 2257 0b1e 6D30      		cpi r22,lo8(13)
 2258 0b20 01F4      		brne .+2
 2259 0b22 00C0      		rjmp .L256
 2260 0b24 6E30      		cpi r22,lo8(14)
 2261 0b26 01F4      		brne .+2
 2262 0b28 00C0      		rjmp .L257
 2263               	.L248:
 2264 0b2a 94E0      		ldi r25,lo8(4)
 2265               	.LVL145:
 2266 0b2c 00C0      		rjmp .L259
 2267               	.LVL146:
 2268               	.L249:
 2269               	.LM311:
 2270 0b2e 0E94 0000 		call select
 2271               	.LVL147:
 2272 0b32 8823      		tst r24
 2273 0b34 01F4      		brne .+2
 2274 0b36 00C0      		rjmp .L260
 2275               	.LBB719:
 2276               	.LBB720:
 2277               	.LM312:
 2278 0b38 80E1      		ldi r24,lo8(16)
 2279 0b3a E0E6      		ldi r30,lo8(1632)
 2280 0b3c F6E0      		ldi r31,hi8(1632)
 2281 0b3e 8583      		std Z+5,r24
 2282               	.LBB721:
 2283               	.LBB722:
 2284               	.LM313:
 2285 0b40 8FEF      		ldi r24,lo8(-1)
 2286 0b42 E0EC      		ldi r30,lo8(2496)
 2287 0b44 F9E0      		ldi r31,hi8(2496)
 2288 0b46 8383      		std Z+3,r24
 2289               	.L261:
 2290               	.LM314:
 2291 0b48 8091 C209 		lds r24,2498
 2292 0b4c 87FF      		sbrs r24,7
 2293 0b4e 00C0      		rjmp .L261
 2294               	.LM315:
 2295 0b50 8091 C309 		lds r24,2499
 2296 0b54 00C0      		rjmp .L285
 2297               	.LVL148:
 2298               	.L250:
 2299               	.LBE722:
 2300               	.LBE721:
 2301               	.LBE720:
 2302               	.LBE719:
 2303               	.LM316:
 2304 0b56 89E4      		ldi r24,lo8(73)
 2305 0b58 40E0      		ldi r20,lo8(0)
 2306 0b5a 50E0      		ldi r21,hi8(0)
 2307 0b5c 60E0      		ldi r22,hlo8(0)
 2308 0b5e 70E0      		ldi r23,hhi8(0)
 2309 0b60 0E94 0000 		call send_cmd
 2310               	.LVL149:
 2311 0b64 8823      		tst r24
 2312 0b66 01F0      		breq .+2
 2313 0b68 00C0      		rjmp .L260
 2314 0b6a CE01      		movw r24,r28
 2315 0b6c 0196      		adiw r24,1
 2316 0b6e 60E1      		ldi r22,lo8(16)
 2317 0b70 70E0      		ldi r23,hi8(16)
 2318 0b72 0E94 0000 		call rcvr_datablock
 2319 0b76 8823      		tst r24
 2320 0b78 01F4      		brne .+2
 2321 0b7a 00C0      		rjmp .L260
 2322               	.LM317:
 2323 0b7c 8981      		ldd r24,Y+1
 2324 0b7e 8295      		swap r24
 2325 0b80 8695      		lsr r24
 2326 0b82 8695      		lsr r24
 2327 0b84 8370      		andi r24,lo8(3)
 2328 0b86 7A85      		ldd r23,Y+10
 2329 0b88 4985      		ldd r20,Y+9
 2330 0b8a 8130      		cpi r24,lo8(1)
 2331 0b8c 01F4      		brne .L262
 2332               	.LM318:
 2333 0b8e 872F      		mov r24,r23
 2334 0b90 90E0      		ldi r25,lo8(0)
 2335 0b92 0196      		adiw r24,1
 2336 0b94 342F      		mov r19,r20
 2337 0b96 20E0      		ldi r18,lo8(0)
 2338 0b98 820F      		add r24,r18
 2339 0b9a 931F      		adc r25,r19
 2340 0b9c A0E0      		ldi r26,lo8(0)
 2341 0b9e B0E0      		ldi r27,hi8(0)
 2342 0ba0 2AE0      		ldi r18,10
 2343 0ba2 880F      	1:	lsl r24
 2344 0ba4 991F      		rol r25
 2345 0ba6 AA1F      		rol r26
 2346 0ba8 BB1F      		rol r27
 2347 0baa 2A95      		dec r18
 2348 0bac 01F4      		brne 1b
 2349 0bae 00C0      		rjmp .L287
 2350               	.L262:
 2351               	.LM319:
 2352 0bb0 4295      		swap r20
 2353 0bb2 4695      		lsr r20
 2354 0bb4 4695      		lsr r20
 2355 0bb6 4370      		andi r20,lo8(3)
 2356 0bb8 2885      		ldd r18,Y+8
 2357 0bba 30E0      		ldi r19,lo8(0)
 2358 0bbc 220F      		lsl r18
 2359 0bbe 331F      		rol r19
 2360 0bc0 220F      		lsl r18
 2361 0bc2 331F      		rol r19
 2362 0bc4 240F      		add r18,r20
 2363 0bc6 311D      		adc r19,__zero_reg__
 2364 0bc8 2F5F      		subi r18,lo8(-(1))
 2365 0bca 3F4F      		sbci r19,hi8(-(1))
 2366 0bcc 8F81      		ldd r24,Y+7
 2367 0bce 90E0      		ldi r25,lo8(0)
 2368 0bd0 8370      		andi r24,lo8(3)
 2369 0bd2 9070      		andi r25,hi8(3)
 2370 0bd4 982F      		mov r25,r24
 2371 0bd6 8827      		clr r24
 2372 0bd8 990F      		lsl r25
 2373 0bda 990F      		lsl r25
 2374 0bdc 280F      		add r18,r24
 2375 0bde 391F      		adc r19,r25
 2376 0be0 40E0      		ldi r20,lo8(0)
 2377 0be2 50E0      		ldi r21,hi8(0)
 2378 0be4 8E81      		ldd r24,Y+6
 2379 0be6 8F70      		andi r24,lo8(15)
 2380 0be8 6B85      		ldd r22,Y+11
 2381 0bea 661F      		rol r22
 2382 0bec 6627      		clr r22
 2383 0bee 661F      		rol r22
 2384 0bf0 860F      		add r24,r22
 2385 0bf2 8E5F      		subi r24,lo8(-(2))
 2386 0bf4 7370      		andi r23,lo8(3)
 2387 0bf6 770F      		lsl r23
 2388 0bf8 870F      		add r24,r23
 2389 0bfa 90E0      		ldi r25,lo8(0)
 2390 0bfc 0997      		sbiw r24,9
 2391 0bfe 00C0      		rjmp 2f
 2392 0c00 220F      	1:	lsl r18
 2393 0c02 331F      		rol r19
 2394 0c04 441F      		rol r20
 2395 0c06 551F      		rol r21
 2396 0c08 8A95      	2:	dec r24
 2397 0c0a 02F4      		brpl 1b
 2398 0c0c F801      		movw r30,r16
 2399 0c0e 2083      		st Z,r18
 2400 0c10 3183      		std Z+1,r19
 2401 0c12 4283      		std Z+2,r20
 2402 0c14 5383      		std Z+3,r21
 2403 0c16 00C0      		rjmp .L285
 2404               	.LVL150:
 2405               	.L251:
 2406               	.LM320:
 2407 0c18 80E0      		ldi r24,lo8(512)
 2408 0c1a 92E0      		ldi r25,hi8(512)
 2409 0c1c FA01      		movw r30,r20
 2410 0c1e 8083      		st Z,r24
 2411 0c20 9183      		std Z+1,r25
 2412 0c22 00C0      		rjmp .L285
 2413               	.L293:
 2414               	.LM321:
 2415 0c24 8091 0000 		lds r24,CardType
 2416 0c28 F82E      		mov r15,r24
 2417 0c2a 82FF      		sbrs r24,2
 2418 0c2c 00C0      		rjmp .L263
 2419               	.LM322:
 2420 0c2e 8DEC      		ldi r24,lo8(-51)
 2421 0c30 40E0      		ldi r20,lo8(0)
 2422 0c32 50E0      		ldi r21,hi8(0)
 2423 0c34 60E0      		ldi r22,hlo8(0)
 2424 0c36 70E0      		ldi r23,hhi8(0)
 2425 0c38 0E94 0000 		call send_cmd
 2426               	.LVL151:
 2427 0c3c 8823      		tst r24
 2428 0c3e 01F0      		breq .+2
 2429 0c40 00C0      		rjmp .L260
 2430               	.LBB723:
 2431               	.LBB724:
 2432               	.LM323:
 2433 0c42 8FEF      		ldi r24,lo8(-1)
 2434 0c44 E0EC      		ldi r30,lo8(2496)
 2435 0c46 F9E0      		ldi r31,hi8(2496)
 2436 0c48 8383      		std Z+3,r24
 2437               	.L264:
 2438               	.LM324:
 2439 0c4a 8091 C209 		lds r24,2498
 2440 0c4e 87FF      		sbrs r24,7
 2441 0c50 00C0      		rjmp .L264
 2442               	.LM325:
 2443 0c52 8091 C309 		lds r24,2499
 2444               	.LBE724:
 2445               	.LBE723:
 2446               	.LM326:
 2447 0c56 CE01      		movw r24,r28
 2448 0c58 0196      		adiw r24,1
 2449 0c5a 60E1      		ldi r22,lo8(16)
 2450 0c5c 70E0      		ldi r23,hi8(16)
 2451 0c5e 0E94 0000 		call rcvr_datablock
 2452 0c62 8823      		tst r24
 2453 0c64 01F4      		brne .+2
 2454 0c66 00C0      		rjmp .L260
 2455 0c68 90E3      		ldi r25,lo8(48)
 2456               	.LVL152:
 2457               	.LBB725:
 2458               	.LBB726:
 2459               	.LM327:
 2460 0c6a E0EC      		ldi r30,lo8(2496)
 2461 0c6c F9E0      		ldi r31,hi8(2496)
 2462 0c6e 2FEF      		ldi r18,lo8(-1)
 2463               	.L266:
 2464 0c70 2383      		std Z+3,r18
 2465               	.L265:
 2466               	.LM328:
 2467 0c72 8091 C209 		lds r24,2498
 2468 0c76 87FF      		sbrs r24,7
 2469 0c78 00C0      		rjmp .L265
 2470               	.LM329:
 2471 0c7a 8091 C309 		lds r24,2499
 2472               	.LBE726:
 2473               	.LBE725:
 2474               	.LM330:
 2475 0c7e 9150      		subi r25,lo8(-(-1))
 2476 0c80 01F4      		brne .L266
 2477               	.LM331:
 2478 0c82 2B85      		ldd r18,Y+11
 2479 0c84 2295      		swap r18
 2480 0c86 2F70      		andi r18,lo8(15)
 2481 0c88 80E1      		ldi r24,lo8(16)
 2482 0c8a 90E0      		ldi r25,hi8(16)
 2483 0c8c A0E0      		ldi r26,hlo8(16)
 2484 0c8e B0E0      		ldi r27,hhi8(16)
 2485 0c90 00C0      		rjmp 2f
 2486 0c92 880F      	1:	lsl r24
 2487 0c94 991F      		rol r25
 2488 0c96 AA1F      		rol r26
 2489 0c98 BB1F      		rol r27
 2490 0c9a 2A95      	2:	dec r18
 2491 0c9c 02F4      		brpl 1b
 2492 0c9e 00C0      		rjmp .L287
 2493               	.LVL153:
 2494               	.L263:
 2495               	.LM332:
 2496 0ca0 89E4      		ldi r24,lo8(73)
 2497 0ca2 40E0      		ldi r20,lo8(0)
 2498 0ca4 50E0      		ldi r21,hi8(0)
 2499 0ca6 60E0      		ldi r22,hlo8(0)
 2500 0ca8 70E0      		ldi r23,hhi8(0)
 2501 0caa 0E94 0000 		call send_cmd
 2502               	.LVL154:
 2503 0cae 8823      		tst r24
 2504 0cb0 01F0      		breq .+2
 2505 0cb2 00C0      		rjmp .L260
 2506 0cb4 CE01      		movw r24,r28
 2507 0cb6 0196      		adiw r24,1
 2508 0cb8 60E1      		ldi r22,lo8(16)
 2509 0cba 70E0      		ldi r23,hi8(16)
 2510 0cbc 0E94 0000 		call rcvr_datablock
 2511 0cc0 8823      		tst r24
 2512 0cc2 01F4      		brne .+2
 2513 0cc4 00C0      		rjmp .L260
 2514 0cc6 4B85      		ldd r20,Y+11
 2515 0cc8 8C85      		ldd r24,Y+12
 2516               	.LM333:
 2517 0cca F1FE      		sbrs r15,1
 2518 0ccc 00C0      		rjmp .L267
 2519               	.LM334:
 2520 0cce 881F      		rol r24
 2521 0cd0 8827      		clr r24
 2522 0cd2 881F      		rol r24
 2523 0cd4 90E0      		ldi r25,lo8(0)
 2524 0cd6 0196      		adiw r24,1
 2525 0cd8 242F      		mov r18,r20
 2526 0cda 30E0      		ldi r19,lo8(0)
 2527 0cdc 2F73      		andi r18,lo8(63)
 2528 0cde 3070      		andi r19,hi8(63)
 2529 0ce0 220F      		lsl r18
 2530 0ce2 331F      		rol r19
 2531 0ce4 820F      		add r24,r18
 2532 0ce6 931F      		adc r25,r19
 2533 0ce8 2E85      		ldd r18,Y+14
 2534 0cea 2295      		swap r18
 2535 0cec 2695      		lsr r18
 2536 0cee 2695      		lsr r18
 2537 0cf0 2370      		andi r18,lo8(3)
 2538 0cf2 30E0      		ldi r19,lo8(0)
 2539 0cf4 2150      		subi r18,lo8(-(-1))
 2540 0cf6 3040      		sbci r19,hi8(-(-1))
 2541 0cf8 00C0      		rjmp 2f
 2542 0cfa 880F      	1:	lsl r24
 2543 0cfc 991F      		rol r25
 2544 0cfe 2A95      	2:	dec r18
 2545 0d00 02F4      		brpl 1b
 2546 0d02 00C0      		rjmp .L289
 2547               	.L267:
 2548               	.LM335:
 2549 0d04 282F      		mov r18,r24
 2550 0d06 30E0      		ldi r19,lo8(0)
 2551 0d08 2370      		andi r18,lo8(3)
 2552 0d0a 3070      		andi r19,hi8(3)
 2553 0d0c F3E0      		ldi r31,3
 2554 0d0e 220F      	1:	lsl r18
 2555 0d10 331F      		rol r19
 2556 0d12 FA95      		dec r31
 2557 0d14 01F4      		brne 1b
 2558 0d16 8295      		swap r24
 2559 0d18 8695      		lsr r24
 2560 0d1a 8770      		andi r24,lo8(7)
 2561 0d1c 280F      		add r18,r24
 2562 0d1e 311D      		adc r19,__zero_reg__
 2563 0d20 2F5F      		subi r18,lo8(-(1))
 2564 0d22 3F4F      		sbci r19,hi8(-(1))
 2565 0d24 842F      		mov r24,r20
 2566 0d26 90E0      		ldi r25,lo8(0)
 2567 0d28 8C77      		andi r24,lo8(124)
 2568 0d2a 9070      		andi r25,hi8(124)
 2569 0d2c 9595      		asr r25
 2570 0d2e 8795      		ror r24
 2571 0d30 9595      		asr r25
 2572 0d32 8795      		ror r24
 2573 0d34 0196      		adiw r24,1
 2574 0d36 AC01      		movw r20,r24
 2575 0d38 249F      		mul r18,r20
 2576 0d3a C001      		movw r24,r0
 2577 0d3c 259F      		mul r18,r21
 2578 0d3e 900D      		add r25,r0
 2579 0d40 349F      		mul r19,r20
 2580 0d42 900D      		add r25,r0
 2581 0d44 1124      		clr r1
 2582               	.L289:
 2583 0d46 A0E0      		ldi r26,lo8(0)
 2584 0d48 B0E0      		ldi r27,hi8(0)
 2585               	.LVL155:
 2586               	.L287:
 2587 0d4a F801      		movw r30,r16
 2588 0d4c 8083      		st Z,r24
 2589 0d4e 9183      		std Z+1,r25
 2590 0d50 A283      		std Z+2,r26
 2591 0d52 B383      		std Z+3,r27
 2592               	.LVL156:
 2593               	.L285:
 2594 0d54 90E0      		ldi r25,lo8(0)
 2595               	.LVL157:
 2596 0d56 00C0      		rjmp .L259
 2597               	.LVL158:
 2598               	.L253:
 2599               	.LM336:
 2600 0d58 8091 0000 		lds r24,CardType
 2601 0d5c FA01      		movw r30,r20
 2602 0d5e 8083      		st Z,r24
 2603 0d60 00C0      		rjmp .L285
 2604               	.L254:
 2605               	.LM337:
 2606 0d62 89E4      		ldi r24,lo8(73)
 2607 0d64 00C0      		rjmp .L291
 2608               	.L255:
 2609               	.LM338:
 2610 0d66 8AE4      		ldi r24,lo8(74)
 2611               	.L291:
 2612 0d68 40E0      		ldi r20,lo8(0)
 2613 0d6a 50E0      		ldi r21,hi8(0)
 2614 0d6c 60E0      		ldi r22,hlo8(0)
 2615 0d6e 70E0      		ldi r23,hhi8(0)
 2616 0d70 0E94 0000 		call send_cmd
 2617               	.LVL159:
 2618 0d74 8823      		tst r24
 2619 0d76 01F4      		brne .L260
 2620 0d78 C801      		movw r24,r16
 2621 0d7a 60E1      		ldi r22,lo8(16)
 2622 0d7c 70E0      		ldi r23,hi8(16)
 2623 0d7e 00C0      		rjmp .L286
 2624               	.LVL160:
 2625               	.L256:
 2626               	.LM339:
 2627 0d80 8AE7      		ldi r24,lo8(122)
 2628 0d82 40E0      		ldi r20,lo8(0)
 2629 0d84 50E0      		ldi r21,hi8(0)
 2630 0d86 60E0      		ldi r22,hlo8(0)
 2631 0d88 70E0      		ldi r23,hhi8(0)
 2632 0d8a 0E94 0000 		call send_cmd
 2633               	.LVL161:
 2634 0d8e 8823      		tst r24
 2635 0d90 01F4      		brne .L260
 2636 0d92 F801      		movw r30,r16
 2637               	.LVL162:
 2638               	.LBB727:
 2639               	.LBB728:
 2640               	.LM340:
 2641 0d94 A0EC      		ldi r26,lo8(2496)
 2642 0d96 B9E0      		ldi r27,hi8(2496)
 2643 0d98 9FEF      		ldi r25,lo8(-1)
 2644               	.LBE728:
 2645               	.LBE727:
 2646               	.LM341:
 2647 0d9a 9801      		movw r18,r16
 2648 0d9c 2D5F      		subi r18,lo8(-(3))
 2649 0d9e 3F4F      		sbci r19,hi8(-(3))
 2650               	.L272:
 2651               	.LBB730:
 2652               	.LBB729:
 2653               	.LM342:
 2654 0da0 1396      		adiw r26,3
 2655 0da2 9C93      		st X,r25
 2656 0da4 1397      		sbiw r26,3
 2657               	.LVL163:
 2658               	.L270:
 2659               	.LM343:
 2660 0da6 8091 C209 		lds r24,2498
 2661 0daa 87FF      		sbrs r24,7
 2662 0dac 00C0      		rjmp .L270
 2663               	.LM344:
 2664 0dae 8091 C309 		lds r24,2499
 2665               	.LBE729:
 2666               	.LBE730:
 2667               	.LM345:
 2668 0db2 8083      		st Z,r24
 2669 0db4 E217      		cp r30,r18
 2670 0db6 F307      		cpc r31,r19
 2671 0db8 01F0      		breq .L285
 2672               	.LVL164:
 2673               	.L271:
 2674 0dba 3196      		adiw r30,1
 2675 0dbc 00C0      		rjmp .L272
 2676               	.LVL165:
 2677               	.L257:
 2678               	.LM346:
 2679 0dbe 8DEC      		ldi r24,lo8(-51)
 2680 0dc0 40E0      		ldi r20,lo8(0)
 2681 0dc2 50E0      		ldi r21,hi8(0)
 2682 0dc4 60E0      		ldi r22,hlo8(0)
 2683 0dc6 70E0      		ldi r23,hhi8(0)
 2684 0dc8 0E94 0000 		call send_cmd
 2685               	.LVL166:
 2686 0dcc 8823      		tst r24
 2687 0dce 01F4      		brne .L260
 2688               	.LBB731:
 2689               	.LBB732:
 2690               	.LM347:
 2691 0dd0 8FEF      		ldi r24,lo8(-1)
 2692 0dd2 E0EC      		ldi r30,lo8(2496)
 2693 0dd4 F9E0      		ldi r31,hi8(2496)
 2694 0dd6 8383      		std Z+3,r24
 2695               	.L273:
 2696               	.LM348:
 2697 0dd8 8091 C209 		lds r24,2498
 2698 0ddc 87FF      		sbrs r24,7
 2699 0dde 00C0      		rjmp .L273
 2700               	.LM349:
 2701 0de0 8091 C309 		lds r24,2499
 2702               	.LBE732:
 2703               	.LBE731:
 2704               	.LM350:
 2705 0de4 C801      		movw r24,r16
 2706 0de6 60E4      		ldi r22,lo8(64)
 2707 0de8 70E0      		ldi r23,hi8(64)
 2708               	.L286:
 2709 0dea 0E94 0000 		call rcvr_datablock
 2710 0dee 90E0      		ldi r25,lo8(0)
 2711               	.LVL167:
 2712 0df0 8823      		tst r24
 2713 0df2 01F4      		brne .L259
 2714               	.L260:
 2715 0df4 91E0      		ldi r25,lo8(1)
 2716               	.LVL168:
 2717               	.L259:
 2718               	.LBB733:
 2719               	.LBB734:
 2720               	.LM351:
 2721 0df6 80E1      		ldi r24,lo8(16)
 2722 0df8 E0E6      		ldi r30,lo8(1632)
 2723 0dfa F6E0      		ldi r31,hi8(1632)
 2724               	.LVL169:
 2725 0dfc 8583      		std Z+5,r24
 2726               	.LBB735:
 2727               	.LBB736:
 2728               	.LM352:
 2729 0dfe 8FEF      		ldi r24,lo8(-1)
 2730 0e00 E0EC      		ldi r30,lo8(2496)
 2731 0e02 F9E0      		ldi r31,hi8(2496)
 2732 0e04 8383      		std Z+3,r24
 2733               	.L275:
 2734               	.LM353:
 2735 0e06 8091 C209 		lds r24,2498
 2736 0e0a 87FF      		sbrs r24,7
 2737 0e0c 00C0      		rjmp .L275
 2738               	.LM354:
 2739 0e0e 8091 C309 		lds r24,2499
 2740 0e12 00C0      		rjmp .L246
 2741               	.LVL170:
 2742               	.L240:
 2743 0e14 94E0      		ldi r25,lo8(4)
 2744               	.LVL171:
 2745 0e16 00C0      		rjmp .L246
 2746               	.LVL172:
 2747               	.L242:
 2748 0e18 90E0      		ldi r25,lo8(0)
 2749               	.LVL173:
 2750               	.L246:
 2751               	.LBE736:
 2752               	.LBE735:
 2753               	.LBE734:
 2754               	.LBE733:
 2755               	.LM355:
 2756 0e1a 892F      		mov r24,r25
 2757               	.LVL174:
 2758               	/* epilogue start */
 2759 0e1c 6096      		adiw r28,16
 2760 0e1e CDBF      		out __SP_L__,r28
 2761 0e20 DEBF      		out __SP_H__,r29
 2762 0e22 CF91      		pop r28
 2763 0e24 DF91      		pop r29
 2764 0e26 1F91      		pop r17
 2765 0e28 0F91      		pop r16
 2766               	.LVL175:
 2767 0e2a FF90      		pop r15
 2768 0e2c 0895      		ret
 2769               	.LFE53:
 2771               	.global	disk_timerproc
 2773               	disk_timerproc:
 2774               	.LFB54:
 2775               	.LM356:
 2776               	/* prologue: function */
 2777               	/* frame size = 0 */
 2778               	.LM357:
 2779 0e2e 8091 0000 		lds r24,Timer1
 2780               	.LVL176:
 2781               	.LM358:
 2782 0e32 8823      		tst r24
 2783 0e34 01F0      		breq .L295
 2784 0e36 8150      		subi r24,lo8(-(-1))
 2785 0e38 8093 0000 		sts Timer1,r24
 2786               	.L295:
 2787               	.LM359:
 2788 0e3c 8091 0000 		lds r24,Timer2
 2789               	.LVL177:
 2790               	.LM360:
 2791 0e40 8823      		tst r24
 2792 0e42 01F0      		breq .L296
 2793 0e44 8150      		subi r24,lo8(-(-1))
 2794 0e46 8093 0000 		sts Timer2,r24
 2795               	.L296:
 2796               	.LM361:
 2797 0e4a 8091 0000 		lds r24,Stat
 2798               	.LVL178:
 2799               	.LM362:
 2800 0e4e 897F      		andi r24,lo8(-7)
 2801               	.LM363:
 2802 0e50 8093 0000 		sts Stat,r24
 2803               	/* epilogue start */
 2804               	.LM364:
 2805 0e54 0895      		ret
 2806               	.LFE54:
 2808               	.global	get_fattime
 2810               	get_fattime:
 2811               	.LFB55:
 2812               	.LM365:
 2813               	/* prologue: function */
 2814               	/* frame size = 0 */
 2815               	.LM366:
 2816 0e56 60E0      		ldi r22,lo8(0)
 2817 0e58 70E0      		ldi r23,hi8(0)
 2818 0e5a 80E0      		ldi r24,hlo8(0)
 2819 0e5c 90E0      		ldi r25,hhi8(0)
 2820               	/* epilogue start */
 2821 0e5e 0895      		ret
 2822               	.LFE55:
 2825               	move_window:
 2826               	.LFB60:
 2827               	.LM367:
 2828               	.LVL179:
 2829 0e60 6F92      		push r6
 2830 0e62 7F92      		push r7
 2831 0e64 8F92      		push r8
 2832 0e66 9F92      		push r9
 2833 0e68 AF92      		push r10
 2834 0e6a BF92      		push r11
 2835 0e6c CF92      		push r12
 2836 0e6e DF92      		push r13
 2837 0e70 EF92      		push r14
 2838 0e72 FF92      		push r15
 2839 0e74 0F93      		push r16
 2840 0e76 1F93      		push r17
 2841 0e78 CF93      		push r28
 2842 0e7a DF93      		push r29
 2843               	/* prologue: function */
 2844               	/* frame size = 0 */
 2845 0e7c EC01      		movw r28,r24
 2846 0e7e 4A01      		movw r8,r20
 2847 0e80 5B01      		movw r10,r22
 2848               	.LM368:
 2849 0e82 CAA4      		ldd r12,Y+42
 2850 0e84 DBA4      		ldd r13,Y+43
 2851 0e86 ECA4      		ldd r14,Y+44
 2852 0e88 FDA4      		ldd r15,Y+45
 2853               	.LVL180:
 2854               	.LM369:
 2855 0e8a C416      		cp r12,r20
 2856 0e8c D506      		cpc r13,r21
 2857 0e8e E606      		cpc r14,r22
 2858 0e90 F706      		cpc r15,r23
 2859 0e92 01F4      		brne .+2
 2860 0e94 00C0      		rjmp .L301
 2861               	.LVL181:
 2862               	.LM370:
 2863 0e96 8C81      		ldd r24,Y+4
 2864 0e98 8823      		tst r24
 2865 0e9a 01F0      		breq .L302
 2866               	.LM371:
 2867 0e9c 3EE2      		ldi r19,lo8(46)
 2868 0e9e 632E      		mov r6,r19
 2869 0ea0 712C      		mov r7,__zero_reg__
 2870 0ea2 6C0E      		add r6,r28
 2871 0ea4 7D1E      		adc r7,r29
 2872 0ea6 8981      		ldd r24,Y+1
 2873 0ea8 B301      		movw r22,r6
 2874 0eaa A701      		movw r20,r14
 2875 0eac 9601      		movw r18,r12
 2876 0eae 01E0      		ldi r16,lo8(1)
 2877 0eb0 0E94 0000 		call disk_write
 2878               	.LVL182:
 2879 0eb4 8823      		tst r24
 2880 0eb6 01F4      		brne .L303
 2881               	.LM372:
 2882 0eb8 1C82      		std Y+4,__zero_reg__
 2883               	.LM373:
 2884 0eba 8E89      		ldd r24,Y+22
 2885 0ebc 9F89      		ldd r25,Y+23
 2886 0ebe A88D      		ldd r26,Y+24
 2887 0ec0 B98D      		ldd r27,Y+25
 2888 0ec2 2E8D      		ldd r18,Y+30
 2889 0ec4 3F8D      		ldd r19,Y+31
 2890 0ec6 48A1      		ldd r20,Y+32
 2891 0ec8 59A1      		ldd r21,Y+33
 2892 0eca 820F      		add r24,r18
 2893 0ecc 931F      		adc r25,r19
 2894 0ece A41F      		adc r26,r20
 2895 0ed0 B51F      		adc r27,r21
 2896 0ed2 C816      		cp r12,r24
 2897 0ed4 D906      		cpc r13,r25
 2898 0ed6 EA06      		cpc r14,r26
 2899 0ed8 FB06      		cpc r15,r27
 2900 0eda 00F4      		brsh .L302
 2901               	.LBB737:
 2902               	.LM374:
 2903 0edc 1B81      		ldd r17,Y+3
 2904               	.LVL183:
 2905 0ede 00C0      		rjmp .L304
 2906               	.L305:
 2907               	.LM375:
 2908 0ee0 8E89      		ldd r24,Y+22
 2909 0ee2 9F89      		ldd r25,Y+23
 2910 0ee4 A88D      		ldd r26,Y+24
 2911 0ee6 B98D      		ldd r27,Y+25
 2912 0ee8 C80E      		add r12,r24
 2913 0eea D91E      		adc r13,r25
 2914 0eec EA1E      		adc r14,r26
 2915 0eee FB1E      		adc r15,r27
 2916               	.LM376:
 2917 0ef0 8981      		ldd r24,Y+1
 2918 0ef2 B301      		movw r22,r6
 2919 0ef4 A701      		movw r20,r14
 2920 0ef6 9601      		movw r18,r12
 2921 0ef8 01E0      		ldi r16,lo8(1)
 2922 0efa 0E94 0000 		call disk_write
 2923               	.LM377:
 2924 0efe 1150      		subi r17,lo8(-(-1))
 2925               	.L304:
 2926 0f00 1230      		cpi r17,lo8(2)
 2927 0f02 00F4      		brsh .L305
 2928               	.LVL184:
 2929               	.L302:
 2930               	.LBE737:
 2931               	.LM378:
 2932 0f04 8114      		cp r8,__zero_reg__
 2933 0f06 9104      		cpc r9,__zero_reg__
 2934 0f08 A104      		cpc r10,__zero_reg__
 2935 0f0a B104      		cpc r11,__zero_reg__
 2936 0f0c 01F0      		breq .L301
 2937               	.LM379:
 2938 0f0e BE01      		movw r22,r28
 2939 0f10 625D      		subi r22,lo8(-(46))
 2940 0f12 7F4F      		sbci r23,hi8(-(46))
 2941 0f14 8981      		ldd r24,Y+1
 2942 0f16 A501      		movw r20,r10
 2943 0f18 9401      		movw r18,r8
 2944 0f1a 01E0      		ldi r16,lo8(1)
 2945 0f1c 0E94 0000 		call disk_read
 2946 0f20 8823      		tst r24
 2947 0f22 01F4      		brne .L303
 2948               	.LM380:
 2949 0f24 8AA6      		std Y+42,r8
 2950 0f26 9BA6      		std Y+43,r9
 2951 0f28 ACA6      		std Y+44,r10
 2952 0f2a BDA6      		std Y+45,r11
 2953 0f2c 00C0      		rjmp .L306
 2954               	.L303:
 2955 0f2e 81E0      		ldi r24,lo8(1)
 2956 0f30 00C0      		rjmp .L306
 2957               	.LVL185:
 2958               	.L301:
 2959 0f32 80E0      		ldi r24,lo8(0)
 2960               	.LVL186:
 2961               	.L306:
 2962               	/* epilogue start */
 2963               	.LM381:
 2964 0f34 DF91      		pop r29
 2965 0f36 CF91      		pop r28
 2966               	.LVL187:
 2967 0f38 1F91      		pop r17
 2968               	.LVL188:
 2969 0f3a 0F91      		pop r16
 2970 0f3c FF90      		pop r15
 2971 0f3e EF90      		pop r14
 2972 0f40 DF90      		pop r13
 2973 0f42 CF90      		pop r12
 2974               	.LVL189:
 2975 0f44 BF90      		pop r11
 2976 0f46 AF90      		pop r10
 2977 0f48 9F90      		pop r9
 2978 0f4a 8F90      		pop r8
 2979               	.LVL190:
 2980 0f4c 7F90      		pop r7
 2981 0f4e 6F90      		pop r6
 2982 0f50 0895      		ret
 2983               	.LFE60:
 2986               	sync:
 2987               	.LFB61:
 2988               	.LM382:
 2989               	.LVL191:
 2990 0f52 0F93      		push r16
 2991 0f54 CF93      		push r28
 2992 0f56 DF93      		push r29
 2993               	/* prologue: function */
 2994               	/* frame size = 0 */
 2995 0f58 EC01      		movw r28,r24
 2996               	.LM383:
 2997 0f5a 40E0      		ldi r20,lo8(0)
 2998 0f5c 50E0      		ldi r21,hi8(0)
 2999 0f5e 60E0      		ldi r22,hlo8(0)
 3000 0f60 70E0      		ldi r23,hhi8(0)
 3001 0f62 0E94 0000 		call move_window
 3002               	.LVL192:
 3003               	.LM384:
 3004 0f66 8823      		tst r24
 3005               	.LVL193:
 3006 0f68 01F0      		breq .+2
 3007 0f6a 00C0      		rjmp .L309
 3008               	.LM385:
 3009 0f6c 8881      		ld r24,Y
 3010               	.LVL194:
 3011 0f6e 8330      		cpi r24,lo8(3)
 3012 0f70 01F0      		breq .+2
 3013 0f72 00C0      		rjmp .L310
 3014 0f74 8D81      		ldd r24,Y+5
 3015 0f76 8823      		tst r24
 3016 0f78 01F4      		brne .+2
 3017 0f7a 00C0      		rjmp .L310
 3018               	.LM386:
 3019 0f7c 1AA6      		std Y+42,__zero_reg__
 3020 0f7e 1BA6      		std Y+43,__zero_reg__
 3021 0f80 1CA6      		std Y+44,__zero_reg__
 3022 0f82 1DA6      		std Y+45,__zero_reg__
 3023               	.LBB738:
 3024               	.LBB739:
 3025               	.LM387:
 3026 0f84 BE01      		movw r22,r28
 3027               	.LVL195:
 3028 0f86 625D      		subi r22,lo8(-(46))
 3029 0f88 7F4F      		sbci r23,hi8(-(46))
 3030 0f8a FB01      		movw r30,r22
 3031 0f8c 80E0      		ldi r24,lo8(512)
 3032 0f8e 92E0      		ldi r25,hi8(512)
 3033               	.LVL196:
 3034 0f90 00C0      		rjmp .L311
 3035               	.LVL197:
 3036               	.L312:
 3037               	.LM388:
 3038 0f92 1192      		st Z+,__zero_reg__
 3039               	.L311:
 3040 0f94 0197      		sbiw r24,1
 3041 0f96 2FEF      		ldi r18,hi8(-1)
 3042 0f98 8F3F      		cpi r24,lo8(-1)
 3043 0f9a 9207      		cpc r25,r18
 3044 0f9c 01F4      		brne .L312
 3045               	.LBE739:
 3046               	.LBE738:
 3047               	.LM389:
 3048 0f9e C45D      		subi r28,lo8(-(556))
 3049 0fa0 DD4F      		sbci r29,hi8(-(556))
 3050 0fa2 85E5      		ldi r24,lo8(85)
 3051               	.LVL198:
 3052 0fa4 8993      		st Y+,r24
 3053 0fa6 8AEA      		ldi r24,lo8(-86)
 3054 0fa8 8883      		st Y,r24
 3055 0faa CD52      		subi r28,lo8(-(-557))
 3056 0fac D240      		sbci r29,hi8(-(-557))
 3057               	.LM390:
 3058 0fae 82E5      		ldi r24,lo8(82)
 3059 0fb0 8EA7      		std Y+46,r24
 3060 0fb2 8FA7      		std Y+47,r24
 3061 0fb4 21E6      		ldi r18,lo8(97)
 3062 0fb6 28AB      		std Y+48,r18
 3063 0fb8 91E4      		ldi r25,lo8(65)
 3064 0fba 99AB      		std Y+49,r25
 3065               	.LM391:
 3066 0fbc CE5E      		subi r28,lo8(-(530))
 3067 0fbe DD4F      		sbci r29,hi8(-(530))
 3068 0fc0 82E7      		ldi r24,lo8(114)
 3069 0fc2 8993      		st Y+,r24
 3070 0fc4 8993      		st Y+,r24
 3071 0fc6 9993      		st Y+,r25
 3072 0fc8 2883      		st Y,r18
 3073 0fca C551      		subi r28,lo8(-(-533))
 3074 0fcc D240      		sbci r29,hi8(-(-533))
 3075               	.LM392:
 3076 0fce 8E85      		ldd r24,Y+14
 3077 0fd0 CA5E      		subi r28,lo8(-(534))
 3078 0fd2 DD4F      		sbci r29,hi8(-(534))
 3079 0fd4 8883      		st Y,r24
 3080 0fd6 C651      		subi r28,lo8(-(-534))
 3081 0fd8 D240      		sbci r29,hi8(-(-534))
 3082 0fda 8F85      		ldd r24,Y+15
 3083 0fdc C95E      		subi r28,lo8(-(535))
 3084 0fde DD4F      		sbci r29,hi8(-(535))
 3085 0fe0 8883      		st Y,r24
 3086 0fe2 C751      		subi r28,lo8(-(-535))
 3087 0fe4 D240      		sbci r29,hi8(-(-535))
 3088 0fe6 8E85      		ldd r24,Y+14
 3089 0fe8 9F85      		ldd r25,Y+15
 3090 0fea A889      		ldd r26,Y+16
 3091 0fec B989      		ldd r27,Y+17
 3092 0fee 9D01      		movw r18,r26
 3093 0ff0 4427      		clr r20
 3094 0ff2 5527      		clr r21
 3095 0ff4 C85E      		subi r28,lo8(-(536))
 3096 0ff6 DD4F      		sbci r29,hi8(-(536))
 3097 0ff8 2883      		st Y,r18
 3098 0ffa 2196      		adiw r28,1
 3099 0ffc 8B2F      		mov r24,r27
 3100 0ffe 9927      		clr r25
 3101 1000 AA27      		clr r26
 3102 1002 BB27      		clr r27
 3103               	.LVL199:
 3104 1004 8883      		st Y,r24
 3105 1006 C951      		subi r28,lo8(-(-537))
 3106 1008 D240      		sbci r29,hi8(-(-537))
 3107               	.LM393:
 3108 100a 8A85      		ldd r24,Y+10
 3109 100c C65E      		subi r28,lo8(-(538))
 3110 100e DD4F      		sbci r29,hi8(-(538))
 3111 1010 8883      		st Y,r24
 3112 1012 CA51      		subi r28,lo8(-(-538))
 3113 1014 D240      		sbci r29,hi8(-(-538))
 3114 1016 8B85      		ldd r24,Y+11
 3115 1018 C55E      		subi r28,lo8(-(539))
 3116 101a DD4F      		sbci r29,hi8(-(539))
 3117 101c 8883      		st Y,r24
 3118 101e CB51      		subi r28,lo8(-(-539))
 3119 1020 D240      		sbci r29,hi8(-(-539))
 3120 1022 8A85      		ldd r24,Y+10
 3121 1024 9B85      		ldd r25,Y+11
 3122 1026 AC85      		ldd r26,Y+12
 3123 1028 BD85      		ldd r27,Y+13
 3124 102a 9D01      		movw r18,r26
 3125 102c 4427      		clr r20
 3126 102e 5527      		clr r21
 3127 1030 C45E      		subi r28,lo8(-(540))
 3128 1032 DD4F      		sbci r29,hi8(-(540))
 3129 1034 2883      		st Y,r18
 3130 1036 2196      		adiw r28,1
 3131 1038 8B2F      		mov r24,r27
 3132 103a 9927      		clr r25
 3133 103c AA27      		clr r26
 3134 103e BB27      		clr r27
 3135 1040 8883      		st Y,r24
 3136 1042 CD51      		subi r28,lo8(-(-541))
 3137 1044 D240      		sbci r29,hi8(-(-541))
 3138               	.LM394:
 3139 1046 2A89      		ldd r18,Y+18
 3140 1048 3B89      		ldd r19,Y+19
 3141 104a 4C89      		ldd r20,Y+20
 3142 104c 5D89      		ldd r21,Y+21
 3143 104e 8981      		ldd r24,Y+1
 3144 1050 01E0      		ldi r16,lo8(1)
 3145 1052 0E94 0000 		call disk_write
 3146               	.LVL200:
 3147               	.LM395:
 3148 1056 1D82      		std Y+5,__zero_reg__
 3149               	.L310:
 3150               	.LM396:
 3151 1058 8981      		ldd r24,Y+1
 3152 105a 60E0      		ldi r22,lo8(0)
 3153 105c 40E0      		ldi r20,lo8(0)
 3154 105e 50E0      		ldi r21,hi8(0)
 3155 1060 0E94 0000 		call disk_ioctl
 3156 1064 8111      		cpse r24,__zero_reg__
 3157 1066 81E0      		ldi r24,lo8(1)
 3158               	.LVL201:
 3159               	.L309:
 3160               	.LVL202:
 3161               	/* epilogue start */
 3162               	.LM397:
 3163 1068 DF91      		pop r29
 3164 106a CF91      		pop r28
 3165               	.LVL203:
 3166 106c 0F91      		pop r16
 3167 106e 0895      		ret
 3168               	.LFE61:
 3170               	.global	get_fat
 3172               	get_fat:
 3173               	.LFB62:
 3174               	.LM398:
 3175               	.LVL204:
 3176 1070 7F92      		push r7
 3177 1072 8F92      		push r8
 3178 1074 9F92      		push r9
 3179 1076 AF92      		push r10
 3180 1078 BF92      		push r11
 3181 107a CF92      		push r12
 3182 107c DF92      		push r13
 3183 107e EF92      		push r14
 3184 1080 FF92      		push r15
 3185 1082 0F93      		push r16
 3186 1084 1F93      		push r17
 3187 1086 CF93      		push r28
 3188 1088 DF93      		push r29
 3189               	/* prologue: function */
 3190               	/* frame size = 0 */
 3191 108a 4C01      		movw r8,r24
 3192 108c 7A01      		movw r14,r20
 3193 108e 8B01      		movw r16,r22
 3194               	.LM399:
 3195 1090 4230      		cpi r20,lo8(2)
 3196 1092 5105      		cpc r21,__zero_reg__
 3197 1094 6105      		cpc r22,__zero_reg__
 3198 1096 7105      		cpc r23,__zero_reg__
 3199               	.LVL205:
 3200 1098 00F4      		brsh .+2
 3201 109a 00C0      		rjmp .L316
 3202 109c F401      		movw r30,r8
 3203 109e 828D      		ldd r24,Z+26
 3204 10a0 938D      		ldd r25,Z+27
 3205 10a2 A48D      		ldd r26,Z+28
 3206 10a4 B58D      		ldd r27,Z+29
 3207 10a6 4817      		cp r20,r24
 3208 10a8 5907      		cpc r21,r25
 3209 10aa 6A07      		cpc r22,r26
 3210 10ac 7B07      		cpc r23,r27
 3211 10ae 00F0      		brlo .+2
 3212 10b0 00C0      		rjmp .L316
 3213               	.LM400:
 3214 10b2 A68C      		ldd r10,Z+30
 3215 10b4 B78C      		ldd r11,Z+31
 3216 10b6 C0A0      		ldd r12,Z+32
 3217 10b8 D1A0      		ldd r13,Z+33
 3218               	.LVL206:
 3219               	.LM401:
 3220 10ba 8081      		ld r24,Z
 3221 10bc 8230      		cpi r24,lo8(2)
 3222 10be 01F4      		brne .+2
 3223 10c0 00C0      		rjmp .L319
 3224 10c2 8330      		cpi r24,lo8(3)
 3225 10c4 01F4      		brne .+2
 3226 10c6 00C0      		rjmp .L320
 3227 10c8 8130      		cpi r24,lo8(1)
 3228 10ca 01F0      		breq .+2
 3229 10cc 00C0      		rjmp .L317
 3230               	.LM402:
 3231 10ce EA01      		movw r28,r20
 3232               	.LVL207:
 3233 10d0 D695      		lsr r29
 3234 10d2 C795      		ror r28
 3235               	.LVL208:
 3236 10d4 C40F      		add r28,r20
 3237 10d6 D51F      		adc r29,r21
 3238               	.LM403:
 3239 10d8 AE01      		movw r20,r28
 3240               	.LVL209:
 3241 10da 452F      		mov r20,r21
 3242 10dc 5527      		clr r21
 3243 10de 4695      		lsr r20
 3244 10e0 60E0      		ldi r22,lo8(0)
 3245 10e2 70E0      		ldi r23,hi8(0)
 3246 10e4 4A0D      		add r20,r10
 3247 10e6 5B1D      		adc r21,r11
 3248 10e8 6C1D      		adc r22,r12
 3249 10ea 7D1D      		adc r23,r13
 3250 10ec C401      		movw r24,r8
 3251 10ee 0E94 0000 		call move_window
 3252 10f2 8823      		tst r24
 3253 10f4 01F0      		breq .+2
 3254 10f6 00C0      		rjmp .L317
 3255               	.LM404:
 3256 10f8 FE01      		movw r30,r28
 3257 10fa F170      		andi r31,hi8(511)
 3258 10fc E80D      		add r30,r8
 3259 10fe F91D      		adc r31,r9
 3260 1100 76A4      		ldd r7,Z+46
 3261 1102 2196      		adiw r28,1
 3262               	.LVL210:
 3263               	.LM405:
 3264 1104 AE01      		movw r20,r28
 3265 1106 452F      		mov r20,r21
 3266 1108 5527      		clr r21
 3267 110a 4695      		lsr r20
 3268 110c 60E0      		ldi r22,lo8(0)
 3269 110e 70E0      		ldi r23,hi8(0)
 3270 1110 4A0D      		add r20,r10
 3271 1112 5B1D      		adc r21,r11
 3272 1114 6C1D      		adc r22,r12
 3273 1116 7D1D      		adc r23,r13
 3274 1118 C401      		movw r24,r8
 3275 111a 0E94 0000 		call move_window
 3276 111e 8823      		tst r24
 3277 1120 01F0      		breq .+2
 3278 1122 00C0      		rjmp .L317
 3279               	.LM406:
 3280 1124 672D      		mov r22,r7
 3281               	.LVL211:
 3282 1126 70E0      		ldi r23,lo8(0)
 3283               	.LVL212:
 3284               	.LM407:
 3285 1128 D170      		andi r29,hi8(511)
 3286 112a C80D      		add r28,r8
 3287 112c D91D      		adc r29,r9
 3288 112e 9EA5      		ldd r25,Y+46
 3289 1130 80E0      		ldi r24,lo8(0)
 3290 1132 682B      		or r22,r24
 3291 1134 792B      		or r23,r25
 3292               	.LVL213:
 3293               	.LM408:
 3294 1136 C701      		movw r24,r14
 3295               	.LVL214:
 3296 1138 8170      		andi r24,lo8(1)
 3297 113a 9070      		andi r25,hi8(1)
 3298 113c 892B      		or r24,r25
 3299 113e 01F0      		breq .L321
 3300 1140 44E0      		ldi r20,4
 3301 1142 7695      	1:	lsr r23
 3302 1144 6795      		ror r22
 3303 1146 4A95      		dec r20
 3304 1148 01F4      		brne 1b
 3305 114a 9B01      		movw r18,r22
 3306 114c 00C0      		rjmp .L324
 3307               	.L321:
 3308 114e 9B01      		movw r18,r22
 3309 1150 40E0      		ldi r20,lo8(0)
 3310 1152 50E0      		ldi r21,hi8(0)
 3311 1154 3F70      		andi r19,hi8(4095)
 3312 1156 4070      		andi r20,hlo8(4095)
 3313 1158 5070      		andi r21,hhi8(4095)
 3314 115a 00C0      		rjmp .L322
 3315               	.LVL215:
 3316               	.L319:
 3317               	.LM409:
 3318 115c 452F      		mov r20,r21
 3319 115e 562F      		mov r21,r22
 3320 1160 672F      		mov r22,r23
 3321 1162 7727      		clr r23
 3322               	.LVL216:
 3323 1164 4A0D      		add r20,r10
 3324 1166 5B1D      		adc r21,r11
 3325 1168 6C1D      		adc r22,r12
 3326 116a 7D1D      		adc r23,r13
 3327 116c C401      		movw r24,r8
 3328 116e 0E94 0000 		call move_window
 3329 1172 8823      		tst r24
 3330 1174 01F0      		breq .+2
 3331 1176 00C0      		rjmp .L317
 3332               	.LM410:
 3333 1178 F701      		movw r30,r14
 3334               	.LVL217:
 3335 117a EE0F      		lsl r30
 3336 117c FF1F      		rol r31
 3337 117e F170      		andi r31,hi8(511)
 3338 1180 E80D      		add r30,r8
 3339 1182 F91D      		adc r31,r9
 3340 1184 97A5      		ldd r25,Z+47
 3341 1186 80E0      		ldi r24,lo8(0)
 3342 1188 26A5      		ldd r18,Z+46
 3343 118a 30E0      		ldi r19,lo8(0)
 3344 118c 822B      		or r24,r18
 3345 118e 932B      		or r25,r19
 3346 1190 9C01      		movw r18,r24
 3347               	.LVL218:
 3348               	.L324:
 3349 1192 40E0      		ldi r20,lo8(0)
 3350 1194 50E0      		ldi r21,hi8(0)
 3351 1196 00C0      		rjmp .L322
 3352               	.LVL219:
 3353               	.L320:
 3354               	.LM411:
 3355 1198 97E0      		ldi r25,7
 3356 119a 7695      	1:	lsr r23
 3357 119c 6795      		ror r22
 3358 119e 5795      		ror r21
 3359 11a0 4795      		ror r20
 3360 11a2 9A95      		dec r25
 3361 11a4 01F4      		brne 1b
 3362               	.LVL220:
 3363 11a6 4A0D      		add r20,r10
 3364 11a8 5B1D      		adc r21,r11
 3365 11aa 6C1D      		adc r22,r12
 3366 11ac 7D1D      		adc r23,r13
 3367 11ae C401      		movw r24,r8
 3368 11b0 0E94 0000 		call move_window
 3369 11b4 8823      		tst r24
 3370 11b6 01F4      		brne .L317
 3371               	.LM412:
 3372 11b8 F701      		movw r30,r14
 3373               	.LVL221:
 3374 11ba EE0F      		lsl r30
 3375 11bc FF1F      		rol r31
 3376 11be EE0F      		lsl r30
 3377 11c0 FF1F      		rol r31
 3378 11c2 F170      		andi r31,hi8(511)
 3379 11c4 E80D      		add r30,r8
 3380 11c6 F91D      		adc r31,r9
 3381 11c8 81A9      		ldd r24,Z+49
 3382 11ca 90E0      		ldi r25,lo8(0)
 3383 11cc A0E0      		ldi r26,lo8(0)
 3384 11ce B0E0      		ldi r27,hi8(0)
 3385 11d0 582F      		mov r21,r24
 3386 11d2 4427      		clr r20
 3387 11d4 3327      		clr r19
 3388 11d6 2227      		clr r18
 3389 11d8 80A9      		ldd r24,Z+48
 3390 11da 90E0      		ldi r25,lo8(0)
 3391 11dc A0E0      		ldi r26,lo8(0)
 3392 11de B0E0      		ldi r27,hi8(0)
 3393 11e0 DC01      		movw r26,r24
 3394 11e2 9927      		clr r25
 3395 11e4 8827      		clr r24
 3396 11e6 282B      		or r18,r24
 3397 11e8 392B      		or r19,r25
 3398 11ea 4A2B      		or r20,r26
 3399 11ec 5B2B      		or r21,r27
 3400 11ee 86A5      		ldd r24,Z+46
 3401 11f0 90E0      		ldi r25,lo8(0)
 3402 11f2 A0E0      		ldi r26,lo8(0)
 3403 11f4 B0E0      		ldi r27,hi8(0)
 3404 11f6 282B      		or r18,r24
 3405 11f8 392B      		or r19,r25
 3406 11fa 4A2B      		or r20,r26
 3407 11fc 5B2B      		or r21,r27
 3408 11fe 97A5      		ldd r25,Z+47
 3409 1200 80E0      		ldi r24,lo8(0)
 3410 1202 A0E0      		ldi r26,lo8(0)
 3411 1204 B0E0      		ldi r27,hi8(0)
 3412 1206 282B      		or r18,r24
 3413 1208 392B      		or r19,r25
 3414 120a 4A2B      		or r20,r26
 3415 120c 5B2B      		or r21,r27
 3416 120e 5F70      		andi r21,hhi8(268435455)
 3417 1210 00C0      		rjmp .L322
 3418               	.LVL222:
 3419               	.L316:
 3420 1212 21E0      		ldi r18,lo8(1)
 3421 1214 30E0      		ldi r19,hi8(1)
 3422 1216 40E0      		ldi r20,hlo8(1)
 3423 1218 50E0      		ldi r21,hhi8(1)
 3424 121a 00C0      		rjmp .L322
 3425               	.LVL223:
 3426               	.L317:
 3427 121c 2FEF      		ldi r18,lo8(-1)
 3428 121e 3FEF      		ldi r19,hi8(-1)
 3429 1220 4FEF      		ldi r20,hlo8(-1)
 3430 1222 5FEF      		ldi r21,hhi8(-1)
 3431               	.LVL224:
 3432               	.L322:
 3433               	.LM413:
 3434 1224 B901      		movw r22,r18
 3435               	.LVL225:
 3436 1226 CA01      		movw r24,r20
 3437               	/* epilogue start */
 3438 1228 DF91      		pop r29
 3439 122a CF91      		pop r28
 3440               	.LVL226:
 3441 122c 1F91      		pop r17
 3442 122e 0F91      		pop r16
 3443 1230 FF90      		pop r15
 3444 1232 EF90      		pop r14
 3445               	.LVL227:
 3446 1234 DF90      		pop r13
 3447 1236 CF90      		pop r12
 3448 1238 BF90      		pop r11
 3449 123a AF90      		pop r10
 3450               	.LVL228:
 3451 123c 9F90      		pop r9
 3452 123e 8F90      		pop r8
 3453               	.LVL229:
 3454 1240 7F90      		pop r7
 3455 1242 0895      		ret
 3456               	.LFE62:
 3458               	.global	put_fat
 3460               	put_fat:
 3461               	.LFB63:
 3462               	.LM414:
 3463               	.LVL230:
 3464 1244 2F92      		push r2
 3465 1246 3F92      		push r3
 3466 1248 4F92      		push r4
 3467 124a 5F92      		push r5
 3468 124c 6F92      		push r6
 3469 124e 7F92      		push r7
 3470 1250 8F92      		push r8
 3471 1252 9F92      		push r9
 3472 1254 AF92      		push r10
 3473 1256 BF92      		push r11
 3474 1258 CF92      		push r12
 3475 125a DF92      		push r13
 3476 125c EF92      		push r14
 3477 125e FF92      		push r15
 3478 1260 0F93      		push r16
 3479               	.LVL231:
 3480 1262 1F93      		push r17
 3481 1264 CF93      		push r28
 3482 1266 DF93      		push r29
 3483               	/* prologue: function */
 3484               	/* frame size = 0 */
 3485 1268 3C01      		movw r6,r24
 3486 126a 6A01      		movw r12,r20
 3487 126c 7B01      		movw r14,r22
 3488 126e 4801      		movw r8,r16
 3489 1270 5901      		movw r10,r18
 3490               	.LVL232:
 3491               	.LM415:
 3492 1272 4230      		cpi r20,lo8(2)
 3493 1274 5105      		cpc r21,__zero_reg__
 3494 1276 6105      		cpc r22,__zero_reg__
 3495 1278 7105      		cpc r23,__zero_reg__
 3496               	.LVL233:
 3497 127a 00F4      		brsh .+2
 3498 127c 00C0      		rjmp .L326
 3499               	.LVL234:
 3500 127e F301      		movw r30,r6
 3501 1280 828D      		ldd r24,Z+26
 3502 1282 938D      		ldd r25,Z+27
 3503 1284 A48D      		ldd r26,Z+28
 3504 1286 B58D      		ldd r27,Z+29
 3505 1288 4817      		cp r20,r24
 3506 128a 5907      		cpc r21,r25
 3507 128c 6A07      		cpc r22,r26
 3508 128e 7B07      		cpc r23,r27
 3509 1290 00F0      		brlo .+2
 3510 1292 00C0      		rjmp .L326
 3511               	.LM416:
 3512 1294 268C      		ldd r2,Z+30
 3513 1296 378C      		ldd r3,Z+31
 3514 1298 40A0      		ldd r4,Z+32
 3515 129a 51A0      		ldd r5,Z+33
 3516               	.LVL235:
 3517               	.LM417:
 3518 129c 8081      		ld r24,Z
 3519 129e 8230      		cpi r24,lo8(2)
 3520 12a0 01F4      		brne .+2
 3521 12a2 00C0      		rjmp .L329
 3522 12a4 8330      		cpi r24,lo8(3)
 3523 12a6 01F4      		brne .+2
 3524 12a8 00C0      		rjmp .L330
 3525 12aa 8130      		cpi r24,lo8(1)
 3526 12ac 01F0      		breq .L328
 3527 12ae 22E0      		ldi r18,lo8(2)
 3528               	.LVL236:
 3529 12b0 00C0      		rjmp .L331
 3530               	.LVL237:
 3531               	.L328:
 3532               	.LM418:
 3533 12b2 EA01      		movw r28,r20
 3534               	.LVL238:
 3535 12b4 D695      		lsr r29
 3536 12b6 C795      		ror r28
 3537               	.LVL239:
 3538 12b8 C40F      		add r28,r20
 3539 12ba D51F      		adc r29,r21
 3540               	.LM419:
 3541 12bc AE01      		movw r20,r28
 3542               	.LVL240:
 3543 12be 452F      		mov r20,r21
 3544 12c0 5527      		clr r21
 3545 12c2 4695      		lsr r20
 3546 12c4 60E0      		ldi r22,lo8(0)
 3547 12c6 70E0      		ldi r23,hi8(0)
 3548 12c8 420D      		add r20,r2
 3549 12ca 531D      		adc r21,r3
 3550 12cc 641D      		adc r22,r4
 3551 12ce 751D      		adc r23,r5
 3552 12d0 C301      		movw r24,r6
 3553 12d2 0E94 0000 		call move_window
 3554 12d6 282F      		mov r18,r24
 3555               	.LVL241:
 3556               	.LM420:
 3557 12d8 8823      		tst r24
 3558 12da 01F0      		breq .+2
 3559 12dc 00C0      		rjmp .L331
 3560               	.LVL242:
 3561               	.LM421:
 3562 12de DE01      		movw r26,r28
 3563 12e0 B170      		andi r27,hi8(511)
 3564               	.LM422:
 3565 12e2 8601      		movw r16,r12
 3566               	.LVL243:
 3567 12e4 0170      		andi r16,lo8(1)
 3568 12e6 1070      		andi r17,hi8(1)
 3569 12e8 0115      		cp r16,__zero_reg__
 3570 12ea 1105      		cpc r17,__zero_reg__
 3571 12ec 01F0      		breq .L332
 3572 12ee F301      		movw r30,r6
 3573 12f0 EA0F      		add r30,r26
 3574 12f2 FB1F      		adc r31,r27
 3575 12f4 86A5      		ldd r24,Z+46
 3576               	.LVL244:
 3577 12f6 8F70      		andi r24,lo8(15)
 3578 12f8 982D      		mov r25,r8
 3579               	.LVL245:
 3580 12fa 9295      		swap r25
 3581 12fc 907F      		andi r25,lo8(-16)
 3582 12fe 982B      		or r25,r24
 3583 1300 00C0      		rjmp .L333
 3584               	.LVL246:
 3585               	.L332:
 3586 1302 982D      		mov r25,r8
 3587               	.LVL247:
 3588               	.L333:
 3589 1304 A60D      		add r26,r6
 3590 1306 B71D      		adc r27,r7
 3591 1308 9E96      		adiw r26,46
 3592 130a 9C93      		st X,r25
 3593               	.LM423:
 3594 130c 2196      		adiw r28,1
 3595               	.LVL248:
 3596               	.LM424:
 3597 130e 81E0      		ldi r24,lo8(1)
 3598 1310 F301      		movw r30,r6
 3599 1312 8483      		std Z+4,r24
 3600               	.LM425:
 3601 1314 AE01      		movw r20,r28
 3602 1316 452F      		mov r20,r21
 3603 1318 5527      		clr r21
 3604 131a 4695      		lsr r20
 3605 131c 60E0      		ldi r22,lo8(0)
 3606 131e 70E0      		ldi r23,hi8(0)
 3607 1320 420D      		add r20,r2
 3608 1322 531D      		adc r21,r3
 3609 1324 641D      		adc r22,r4
 3610 1326 751D      		adc r23,r5
 3611 1328 C301      		movw r24,r6
 3612 132a 0E94 0000 		call move_window
 3613               	.LVL249:
 3614 132e 282F      		mov r18,r24
 3615               	.LVL250:
 3616               	.LM426:
 3617 1330 8823      		tst r24
 3618 1332 01F0      		breq .+2
 3619 1334 00C0      		rjmp .L331
 3620               	.LVL251:
 3621               	.LM427:
 3622 1336 D170      		andi r29,hi8(511)
 3623               	.LVL252:
 3624               	.LM428:
 3625 1338 012B      		or r16,r17
 3626 133a 01F0      		breq .L334
 3627 133c 64E0      		ldi r22,4
 3628 133e B694      	1:	lsr r11
 3629 1340 A794      		ror r10
 3630 1342 9794      		ror r9
 3631 1344 8794      		ror r8
 3632 1346 6A95      		dec r22
 3633 1348 01F4      		brne 1b
 3634 134a 482D      		mov r20,r8
 3635 134c 00C0      		rjmp .L335
 3636               	.L334:
 3637 134e F301      		movw r30,r6
 3638 1350 EC0F      		add r30,r28
 3639 1352 FD1F      		adc r31,r29
 3640 1354 46A5      		ldd r20,Z+46
 3641 1356 407F      		andi r20,lo8(-16)
 3642 1358 BB27      		clr r27
 3643 135a AB2D      		mov r26,r11
 3644 135c 9A2D      		mov r25,r10
 3645 135e 892D      		mov r24,r9
 3646               	.LVL253:
 3647 1360 8F70      		andi r24,lo8(15)
 3648 1362 482B      		or r20,r24
 3649               	.LVL254:
 3650               	.L335:
 3651 1364 C60D      		add r28,r6
 3652 1366 D71D      		adc r29,r7
 3653 1368 4EA7      		std Y+46,r20
 3654 136a 00C0      		rjmp .L331
 3655               	.LVL255:
 3656               	.L329:
 3657               	.LM429:
 3658 136c 7727      		clr r23
 3659 136e 6F2D      		mov r22,r15
 3660 1370 5E2D      		mov r21,r14
 3661 1372 4D2D      		mov r20,r13
 3662               	.LVL256:
 3663 1374 420D      		add r20,r2
 3664 1376 531D      		adc r21,r3
 3665 1378 641D      		adc r22,r4
 3666 137a 751D      		adc r23,r5
 3667 137c C301      		movw r24,r6
 3668 137e 0E94 0000 		call move_window
 3669 1382 282F      		mov r18,r24
 3670               	.LVL257:
 3671               	.LM430:
 3672 1384 8823      		tst r24
 3673 1386 01F4      		brne .L331
 3674               	.LVL258:
 3675               	.LM431:
 3676 1388 F601      		movw r30,r12
 3677               	.LVL259:
 3678 138a EE0F      		lsl r30
 3679 138c FF1F      		rol r31
 3680 138e F170      		andi r31,hi8(511)
 3681 1390 E60D      		add r30,r6
 3682 1392 F71D      		adc r31,r7
 3683 1394 86A6      		std Z+46,r8
 3684 1396 892D      		mov r24,r9
 3685 1398 9927      		clr r25
 3686               	.LVL260:
 3687 139a 87A7      		std Z+47,r24
 3688 139c 00C0      		rjmp .L331
 3689               	.LVL261:
 3690               	.L330:
 3691               	.LM432:
 3692 139e 87E0      		ldi r24,7
 3693 13a0 7695      	1:	lsr r23
 3694 13a2 6795      		ror r22
 3695 13a4 5795      		ror r21
 3696 13a6 4795      		ror r20
 3697 13a8 8A95      		dec r24
 3698 13aa 01F4      		brne 1b
 3699               	.LVL262:
 3700 13ac 420D      		add r20,r2
 3701 13ae 531D      		adc r21,r3
 3702 13b0 641D      		adc r22,r4
 3703 13b2 751D      		adc r23,r5
 3704 13b4 C301      		movw r24,r6
 3705 13b6 0E94 0000 		call move_window
 3706 13ba 282F      		mov r18,r24
 3707               	.LVL263:
 3708               	.LM433:
 3709 13bc 8823      		tst r24
 3710 13be 01F4      		brne .L331
 3711               	.LVL264:
 3712               	.LM434:
 3713 13c0 F601      		movw r30,r12
 3714               	.LVL265:
 3715 13c2 EE0F      		lsl r30
 3716 13c4 FF1F      		rol r31
 3717 13c6 EE0F      		lsl r30
 3718 13c8 FF1F      		rol r31
 3719 13ca F170      		andi r31,hi8(511)
 3720 13cc E60D      		add r30,r6
 3721 13ce F71D      		adc r31,r7
 3722 13d0 86A6      		std Z+46,r8
 3723 13d2 892D      		mov r24,r9
 3724 13d4 9927      		clr r25
 3725               	.LVL266:
 3726 13d6 87A7      		std Z+47,r24
 3727 13d8 C501      		movw r24,r10
 3728 13da AA27      		clr r26
 3729 13dc BB27      		clr r27
 3730 13de 80AB      		std Z+48,r24
 3731 13e0 8B2D      		mov r24,r11
 3732 13e2 9927      		clr r25
 3733 13e4 AA27      		clr r26
 3734 13e6 BB27      		clr r27
 3735 13e8 81AB      		std Z+49,r24
 3736               	.LVL267:
 3737               	.L331:
 3738               	.LM435:
 3739 13ea 81E0      		ldi r24,lo8(1)
 3740 13ec F301      		movw r30,r6
 3741 13ee 8483      		std Z+4,r24
 3742 13f0 00C0      		rjmp .L336
 3743               	.LVL268:
 3744               	.L326:
 3745 13f2 22E0      		ldi r18,lo8(2)
 3746               	.LVL269:
 3747               	.L336:
 3748               	.LM436:
 3749 13f4 822F      		mov r24,r18
 3750               	/* epilogue start */
 3751 13f6 DF91      		pop r29
 3752 13f8 CF91      		pop r28
 3753               	.LVL270:
 3754 13fa 1F91      		pop r17
 3755 13fc 0F91      		pop r16
 3756 13fe FF90      		pop r15
 3757 1400 EF90      		pop r14
 3758 1402 DF90      		pop r13
 3759 1404 CF90      		pop r12
 3760 1406 BF90      		pop r11
 3761 1408 AF90      		pop r10
 3762 140a 9F90      		pop r9
 3763 140c 8F90      		pop r8
 3764               	.LVL271:
 3765 140e 7F90      		pop r7
 3766 1410 6F90      		pop r6
 3767               	.LVL272:
 3768 1412 5F90      		pop r5
 3769 1414 4F90      		pop r4
 3770 1416 3F90      		pop r3
 3771 1418 2F90      		pop r2
 3772               	.LVL273:
 3773 141a 0895      		ret
 3774               	.LFE63:
 3777               	remove_chain:
 3778               	.LFB64:
 3779               	.LM437:
 3780               	.LVL274:
 3781 141c 9F92      		push r9
 3782 141e AF92      		push r10
 3783 1420 BF92      		push r11
 3784 1422 CF92      		push r12
 3785 1424 DF92      		push r13
 3786 1426 EF92      		push r14
 3787 1428 FF92      		push r15
 3788 142a 0F93      		push r16
 3789 142c 1F93      		push r17
 3790 142e CF93      		push r28
 3791 1430 DF93      		push r29
 3792               	/* prologue: function */
 3793               	/* frame size = 0 */
 3794 1432 EC01      		movw r28,r24
 3795 1434 7A01      		movw r14,r20
 3796 1436 8B01      		movw r16,r22
 3797               	.LM438:
 3798 1438 4230      		cpi r20,lo8(2)
 3799 143a 5105      		cpc r21,__zero_reg__
 3800 143c 6105      		cpc r22,__zero_reg__
 3801 143e 7105      		cpc r23,__zero_reg__
 3802 1440 00F4      		brsh .+2
 3803 1442 00C0      		rjmp .L339
 3804               	.LVL275:
 3805 1444 8A8D      		ldd r24,Y+26
 3806 1446 9B8D      		ldd r25,Y+27
 3807 1448 AC8D      		ldd r26,Y+28
 3808 144a BD8D      		ldd r27,Y+29
 3809 144c 4817      		cp r20,r24
 3810 144e 5907      		cpc r21,r25
 3811 1450 6A07      		cpc r22,r26
 3812 1452 7B07      		cpc r23,r27
 3813 1454 00F4      		brsh .+2
 3814 1456 00C0      		rjmp .L347
 3815 1458 00C0      		rjmp .L339
 3816               	.LVL276:
 3817               	.L345:
 3818               	.LM439:
 3819 145a CE01      		movw r24,r28
 3820 145c B801      		movw r22,r16
 3821 145e A701      		movw r20,r14
 3822 1460 0E94 0000 		call get_fat
 3823 1464 5B01      		movw r10,r22
 3824 1466 6C01      		movw r12,r24
 3825               	.LM440:
 3826 1468 6115      		cp r22,__zero_reg__
 3827 146a 7105      		cpc r23,__zero_reg__
 3828 146c 8105      		cpc r24,__zero_reg__
 3829 146e 9105      		cpc r25,__zero_reg__
 3830 1470 01F4      		brne .+2
 3831 1472 00C0      		rjmp .L341
 3832               	.LVL277:
 3833               	.LM441:
 3834 1474 81E0      		ldi r24,lo8(1)
 3835 1476 A816      		cp r10,r24
 3836 1478 B104      		cpc r11,__zero_reg__
 3837 147a C104      		cpc r12,__zero_reg__
 3838 147c D104      		cpc r13,__zero_reg__
 3839 147e 01F0      		breq .L339
 3840               	.LVL278:
 3841               	.LM442:
 3842 1480 2FEF      		ldi r18,lo8(-1)
 3843 1482 A216      		cp r10,r18
 3844 1484 2FEF      		ldi r18,hi8(-1)
 3845 1486 B206      		cpc r11,r18
 3846 1488 2FEF      		ldi r18,hlo8(-1)
 3847 148a C206      		cpc r12,r18
 3848 148c 2FEF      		ldi r18,hhi8(-1)
 3849 148e D206      		cpc r13,r18
 3850 1490 01F4      		brne .L342
 3851 1492 81E0      		ldi r24,lo8(1)
 3852               	.LVL279:
 3853 1494 00C0      		rjmp .L343
 3854               	.LVL280:
 3855               	.L342:
 3856               	.LM443:
 3857 1496 CE01      		movw r24,r28
 3858 1498 B801      		movw r22,r16
 3859 149a A701      		movw r20,r14
 3860 149c 00E0      		ldi r16,lo8(0)
 3861 149e 10E0      		ldi r17,hi8(0)
 3862 14a0 20E0      		ldi r18,hlo8(0)
 3863 14a2 30E0      		ldi r19,hhi8(0)
 3864 14a4 0E94 0000 		call put_fat
 3865               	.LM444:
 3866 14a8 8823      		tst r24
 3867               	.LVL281:
 3868 14aa 01F4      		brne .L343
 3869               	.LM445:
 3870 14ac 8E85      		ldd r24,Y+14
 3871 14ae 9F85      		ldd r25,Y+15
 3872 14b0 A889      		ldd r26,Y+16
 3873 14b2 B989      		ldd r27,Y+17
 3874               	.LVL282:
 3875 14b4 8F3F      		cpi r24,lo8(-1)
 3876 14b6 2FEF      		ldi r18,hi8(-1)
 3877 14b8 9207      		cpc r25,r18
 3878 14ba 2FEF      		ldi r18,hlo8(-1)
 3879 14bc A207      		cpc r26,r18
 3880 14be 2FEF      		ldi r18,hhi8(-1)
 3881 14c0 B207      		cpc r27,r18
 3882 14c2 01F0      		breq .L344
 3883               	.LM446:
 3884 14c4 0196      		adiw r24,1
 3885 14c6 A11D      		adc r26,__zero_reg__
 3886 14c8 B11D      		adc r27,__zero_reg__
 3887 14ca 8E87      		std Y+14,r24
 3888 14cc 9F87      		std Y+15,r25
 3889 14ce A88B      		std Y+16,r26
 3890 14d0 B98B      		std Y+17,r27
 3891               	.LM447:
 3892 14d2 9D82      		std Y+5,r9
 3893               	.L344:
 3894 14d4 8601      		movw r16,r12
 3895 14d6 7501      		movw r14,r10
 3896 14d8 00C0      		rjmp .L348
 3897               	.LVL283:
 3898               	.L347:
 3899 14da 9924      		clr r9
 3900 14dc 9394      		inc r9
 3901               	.LVL284:
 3902               	.L348:
 3903               	.LM448:
 3904 14de 8A8D      		ldd r24,Y+26
 3905 14e0 9B8D      		ldd r25,Y+27
 3906 14e2 AC8D      		ldd r26,Y+28
 3907 14e4 BD8D      		ldd r27,Y+29
 3908 14e6 E816      		cp r14,r24
 3909 14e8 F906      		cpc r15,r25
 3910 14ea 0A07      		cpc r16,r26
 3911 14ec 1B07      		cpc r17,r27
 3912 14ee 00F4      		brsh .+2
 3913 14f0 00C0      		rjmp .L345
 3914 14f2 00C0      		rjmp .L341
 3915               	.LVL285:
 3916               	.L339:
 3917 14f4 82E0      		ldi r24,lo8(2)
 3918               	.LVL286:
 3919 14f6 00C0      		rjmp .L343
 3920               	.LVL287:
 3921               	.L341:
 3922 14f8 80E0      		ldi r24,lo8(0)
 3923               	.LVL288:
 3924               	.L343:
 3925               	.LVL289:
 3926               	/* epilogue start */
 3927               	.LM449:
 3928 14fa DF91      		pop r29
 3929 14fc CF91      		pop r28
 3930               	.LVL290:
 3931 14fe 1F91      		pop r17
 3932 1500 0F91      		pop r16
 3933 1502 FF90      		pop r15
 3934 1504 EF90      		pop r14
 3935               	.LVL291:
 3936 1506 DF90      		pop r13
 3937 1508 CF90      		pop r12
 3938 150a BF90      		pop r11
 3939 150c AF90      		pop r10
 3940               	.LVL292:
 3941 150e 9F90      		pop r9
 3942 1510 0895      		ret
 3943               	.LFE64:
 3946               	create_chain:
 3947               	.LFB65:
 3948               	.LM450:
 3949               	.LVL293:
 3950 1512 2F92      		push r2
 3951 1514 3F92      		push r3
 3952 1516 4F92      		push r4
 3953 1518 5F92      		push r5
 3954 151a 6F92      		push r6
 3955 151c 7F92      		push r7
 3956 151e 8F92      		push r8
 3957 1520 9F92      		push r9
 3958 1522 AF92      		push r10
 3959 1524 BF92      		push r11
 3960 1526 CF92      		push r12
 3961 1528 DF92      		push r13
 3962 152a EF92      		push r14
 3963 152c FF92      		push r15
 3964 152e 0F93      		push r16
 3965 1530 1F93      		push r17
 3966 1532 DF93      		push r29
 3967 1534 CF93      		push r28
 3968 1536 00D0      		rcall .
 3969 1538 0F92      		push __tmp_reg__
 3970 153a CDB7      		in r28,__SP_L__
 3971 153c DEB7      		in r29,__SP_H__
 3972               	/* prologue: function */
 3973               	/* frame size = 4 */
 3974 153e 1C01      		movw r2,r24
 3975 1540 2A01      		movw r4,r20
 3976 1542 3B01      		movw r6,r22
 3977               	.LM451:
 3978 1544 DC01      		movw r26,r24
 3979 1546 5A96      		adiw r26,26
 3980 1548 8D91      		ld r24,X+
 3981 154a 9D91      		ld r25,X+
 3982 154c 0D90      		ld __tmp_reg__,X+
 3983 154e BC91      		ld r27,X
 3984 1550 A02D      		mov r26,__tmp_reg__
 3985               	.LVL294:
 3986 1552 8983      		std Y+1,r24
 3987 1554 9A83      		std Y+2,r25
 3988 1556 AB83      		std Y+3,r26
 3989 1558 BC83      		std Y+4,r27
 3990               	.LVL295:
 3991               	.LM452:
 3992 155a 4115      		cp r20,__zero_reg__
 3993 155c 5105      		cpc r21,__zero_reg__
 3994 155e 6105      		cpc r22,__zero_reg__
 3995 1560 7105      		cpc r23,__zero_reg__
 3996 1562 01F4      		brne .L350
 3997               	.LM453:
 3998 1564 F101      		movw r30,r2
 3999 1566 8284      		ldd r8,Z+10
 4000 1568 9384      		ldd r9,Z+11
 4001 156a A484      		ldd r10,Z+12
 4002 156c B584      		ldd r11,Z+13
 4003               	.LVL296:
 4004               	.LM454:
 4005 156e 8114      		cp r8,__zero_reg__
 4006 1570 9104      		cpc r9,__zero_reg__
 4007 1572 A104      		cpc r10,__zero_reg__
 4008 1574 B104      		cpc r11,__zero_reg__
 4009 1576 01F0      		breq .L351
 4010 1578 8816      		cp r8,r24
 4011 157a 9906      		cpc r9,r25
 4012 157c AA06      		cpc r10,r26
 4013 157e BB06      		cpc r11,r27
 4014 1580 00F4      		brsh .L351
 4015 1582 00C0      		rjmp .L352
 4016               	.LVL297:
 4017               	.L350:
 4018               	.LM455:
 4019 1584 C101      		movw r24,r2
 4020 1586 0E94 0000 		call get_fat
 4021               	.LVL298:
 4022 158a 9B01      		movw r18,r22
 4023 158c AC01      		movw r20,r24
 4024               	.LVL299:
 4025               	.LM456:
 4026 158e 6230      		cpi r22,lo8(2)
 4027 1590 7105      		cpc r23,__zero_reg__
 4028 1592 8105      		cpc r24,__zero_reg__
 4029 1594 9105      		cpc r25,__zero_reg__
 4030 1596 00F4      		brsh .L353
 4031               	.LVL300:
 4032 1598 21E0      		ldi r18,lo8(1)
 4033 159a 30E0      		ldi r19,hi8(1)
 4034 159c 40E0      		ldi r20,hlo8(1)
 4035 159e 50E0      		ldi r21,hhi8(1)
 4036               	.LVL301:
 4037 15a0 00C0      		rjmp .L354
 4038               	.LVL302:
 4039               	.L353:
 4040               	.LM457:
 4041 15a2 8981      		ldd r24,Y+1
 4042 15a4 9A81      		ldd r25,Y+2
 4043 15a6 AB81      		ldd r26,Y+3
 4044 15a8 BC81      		ldd r27,Y+4
 4045 15aa 2817      		cp r18,r24
 4046 15ac 3907      		cpc r19,r25
 4047 15ae 4A07      		cpc r20,r26
 4048 15b0 5B07      		cpc r21,r27
 4049 15b2 00F4      		brsh .+2
 4050 15b4 00C0      		rjmp .L354
 4051               	.LVL303:
 4052 15b6 5301      		movw r10,r6
 4053 15b8 4201      		movw r8,r4
 4054               	.LVL304:
 4055 15ba 00C0      		rjmp .L352
 4056               	.LVL305:
 4057               	.L351:
 4058 15bc B1E0      		ldi r27,lo8(1)
 4059 15be 8B2E      		mov r8,r27
 4060 15c0 912C      		mov r9,__zero_reg__
 4061 15c2 A12C      		mov r10,__zero_reg__
 4062 15c4 B12C      		mov r11,__zero_reg__
 4063               	.LVL306:
 4064               	.L352:
 4065 15c6 7501      		movw r14,r10
 4066 15c8 6401      		movw r12,r8
 4067               	.LVL307:
 4068               	.L358:
 4069               	.LM458:
 4070 15ca 0894      		sec
 4071 15cc C11C      		adc r12,__zero_reg__
 4072 15ce D11C      		adc r13,__zero_reg__
 4073 15d0 E11C      		adc r14,__zero_reg__
 4074 15d2 F11C      		adc r15,__zero_reg__
 4075               	.LM459:
 4076 15d4 8981      		ldd r24,Y+1
 4077 15d6 9A81      		ldd r25,Y+2
 4078 15d8 AB81      		ldd r26,Y+3
 4079 15da BC81      		ldd r27,Y+4
 4080 15dc C816      		cp r12,r24
 4081 15de D906      		cpc r13,r25
 4082 15e0 EA06      		cpc r14,r26
 4083 15e2 FB06      		cpc r15,r27
 4084 15e4 00F0      		brlo .L355
 4085               	.LM460:
 4086 15e6 92E0      		ldi r25,lo8(2)
 4087 15e8 8916      		cp r8,r25
 4088 15ea 9104      		cpc r9,__zero_reg__
 4089 15ec A104      		cpc r10,__zero_reg__
 4090 15ee B104      		cpc r11,__zero_reg__
 4091 15f0 00F4      		brsh .+2
 4092 15f2 00C0      		rjmp .L356
 4093 15f4 A2E0      		ldi r26,lo8(2)
 4094 15f6 CA2E      		mov r12,r26
 4095 15f8 D12C      		mov r13,__zero_reg__
 4096 15fa E12C      		mov r14,__zero_reg__
 4097 15fc F12C      		mov r15,__zero_reg__
 4098               	.L355:
 4099               	.LM461:
 4100 15fe C101      		movw r24,r2
 4101 1600 B701      		movw r22,r14
 4102 1602 A601      		movw r20,r12
 4103 1604 0E94 0000 		call get_fat
 4104               	.LVL308:
 4105 1608 9B01      		movw r18,r22
 4106 160a AC01      		movw r20,r24
 4107               	.LVL309:
 4108               	.LM462:
 4109 160c 6115      		cp r22,__zero_reg__
 4110 160e 7105      		cpc r23,__zero_reg__
 4111 1610 8105      		cpc r24,__zero_reg__
 4112 1612 9105      		cpc r25,__zero_reg__
 4113 1614 01F0      		breq .L357
 4114               	.LVL310:
 4115               	.LM463:
 4116 1616 6F3F      		cpi r22,lo8(-1)
 4117 1618 AFEF      		ldi r26,hi8(-1)
 4118 161a 7A07      		cpc r23,r26
 4119 161c AFEF      		ldi r26,hlo8(-1)
 4120 161e 8A07      		cpc r24,r26
 4121 1620 AFEF      		ldi r26,hhi8(-1)
 4122 1622 9A07      		cpc r25,r26
 4123 1624 01F4      		brne .+2
 4124 1626 00C0      		rjmp .L354
 4125 1628 6130      		cpi r22,lo8(1)
 4126 162a 7105      		cpc r23,__zero_reg__
 4127 162c 8105      		cpc r24,__zero_reg__
 4128 162e 9105      		cpc r25,__zero_reg__
 4129 1630 01F4      		brne .+2
 4130 1632 00C0      		rjmp .L354
 4131               	.LM464:
 4132 1634 C814      		cp r12,r8
 4133 1636 D904      		cpc r13,r9
 4134 1638 EA04      		cpc r14,r10
 4135 163a FB04      		cpc r15,r11
 4136 163c 01F4      		brne .L358
 4137 163e 00C0      		rjmp .L356
 4138               	.L357:
 4139 1640 BC2C      		mov r11,r12
 4140 1642 AD2C      		mov r10,r13
 4141               	.LVL311:
 4142 1644 9E2C      		mov r9,r14
 4143               	.LVL312:
 4144 1646 8F2C      		mov r8,r15
 4145               	.LVL313:
 4146               	.LM465:
 4147 1648 C101      		movw r24,r2
 4148 164a A601      		movw r20,r12
 4149               	.LVL314:
 4150 164c B701      		movw r22,r14
 4151               	.LVL315:
 4152 164e 0FEF      		ldi r16,lo8(268435455)
 4153 1650 1FEF      		ldi r17,hi8(268435455)
 4154 1652 2FEF      		ldi r18,hlo8(268435455)
 4155 1654 3FE0      		ldi r19,hhi8(268435455)
 4156 1656 0E94 0000 		call put_fat
 4157               	.LVL316:
 4158 165a 8823      		tst r24
 4159 165c 01F4      		brne .L359
 4160               	.LVL317:
 4161               	.LM466:
 4162 165e 4114      		cp r4,__zero_reg__
 4163 1660 5104      		cpc r5,__zero_reg__
 4164 1662 6104      		cpc r6,__zero_reg__
 4165 1664 7104      		cpc r7,__zero_reg__
 4166 1666 01F0      		breq .L360
 4167               	.LM467:
 4168 1668 C101      		movw r24,r2
 4169 166a B301      		movw r22,r6
 4170 166c A201      		movw r20,r4
 4171 166e 8601      		movw r16,r12
 4172 1670 9701      		movw r18,r14
 4173 1672 0E94 0000 		call put_fat
 4174 1676 8823      		tst r24
 4175 1678 01F4      		brne .L359
 4176               	.L360:
 4177               	.LM468:
 4178 167a F101      		movw r30,r2
 4179 167c B286      		std Z+10,r11
 4180 167e A386      		std Z+11,r10
 4181 1680 9486      		std Z+12,r9
 4182 1682 8586      		std Z+13,r8
 4183               	.LM469:
 4184 1684 8685      		ldd r24,Z+14
 4185 1686 9785      		ldd r25,Z+15
 4186 1688 A089      		ldd r26,Z+16
 4187 168a B189      		ldd r27,Z+17
 4188 168c 8F3F      		cpi r24,lo8(-1)
 4189 168e FFEF      		ldi r31,hi8(-1)
 4190 1690 9F07      		cpc r25,r31
 4191 1692 FFEF      		ldi r31,hlo8(-1)
 4192 1694 AF07      		cpc r26,r31
 4193 1696 FFEF      		ldi r31,hhi8(-1)
 4194 1698 BF07      		cpc r27,r31
 4195 169a 01F0      		breq .L363
 4196               	.L361:
 4197               	.LM470:
 4198 169c 0197      		sbiw r24,1
 4199 169e A109      		sbc r26,__zero_reg__
 4200 16a0 B109      		sbc r27,__zero_reg__
 4201 16a2 F101      		movw r30,r2
 4202 16a4 8687      		std Z+14,r24
 4203 16a6 9787      		std Z+15,r25
 4204 16a8 A08B      		std Z+16,r26
 4205 16aa B18B      		std Z+17,r27
 4206               	.LM471:
 4207 16ac 81E0      		ldi r24,lo8(1)
 4208 16ae 8583      		std Z+5,r24
 4209               	.L363:
 4210 16b0 A701      		movw r20,r14
 4211 16b2 9601      		movw r18,r12
 4212               	.LVL318:
 4213 16b4 00C0      		rjmp .L354
 4214               	.LVL319:
 4215               	.L356:
 4216 16b6 20E0      		ldi r18,lo8(0)
 4217 16b8 30E0      		ldi r19,hi8(0)
 4218 16ba 40E0      		ldi r20,hlo8(0)
 4219 16bc 50E0      		ldi r21,hhi8(0)
 4220 16be 00C0      		rjmp .L354
 4221               	.LVL320:
 4222               	.L359:
 4223 16c0 2FEF      		ldi r18,lo8(-1)
 4224 16c2 3FEF      		ldi r19,hi8(-1)
 4225 16c4 4FEF      		ldi r20,hlo8(-1)
 4226 16c6 5FEF      		ldi r21,hhi8(-1)
 4227               	.LVL321:
 4228               	.L354:
 4229               	.LM472:
 4230 16c8 B901      		movw r22,r18
 4231               	.LVL322:
 4232 16ca CA01      		movw r24,r20
 4233               	/* epilogue start */
 4234 16cc 2496      		adiw r28,4
 4235 16ce CDBF      		out __SP_L__,r28
 4236 16d0 DEBF      		out __SP_H__,r29
 4237 16d2 CF91      		pop r28
 4238 16d4 DF91      		pop r29
 4239 16d6 1F91      		pop r17
 4240 16d8 0F91      		pop r16
 4241 16da FF90      		pop r15
 4242 16dc EF90      		pop r14
 4243 16de DF90      		pop r13
 4244 16e0 CF90      		pop r12
 4245               	.LVL323:
 4246 16e2 BF90      		pop r11
 4247               	.LVL324:
 4248 16e4 AF90      		pop r10
 4249               	.LVL325:
 4250 16e6 9F90      		pop r9
 4251               	.LVL326:
 4252 16e8 8F90      		pop r8
 4253               	.LVL327:
 4254 16ea 7F90      		pop r7
 4255 16ec 6F90      		pop r6
 4256 16ee 5F90      		pop r5
 4257 16f0 4F90      		pop r4
 4258               	.LVL328:
 4259 16f2 3F90      		pop r3
 4260 16f4 2F90      		pop r2
 4261               	.LVL329:
 4262 16f6 0895      		ret
 4263               	.LFE65:
 4265               	.global	clust2sect
 4267               	clust2sect:
 4268               	.LFB66:
 4269               	.LM473:
 4270               	.LVL330:
 4271 16f8 EF92      		push r14
 4272 16fa FF92      		push r15
 4273 16fc 0F93      		push r16
 4274 16fe 1F93      		push r17
 4275 1700 CF93      		push r28
 4276 1702 DF93      		push r29
 4277               	/* prologue: function */
 4278               	/* frame size = 0 */
 4279 1704 EC01      		movw r28,r24
 4280 1706 7A01      		movw r14,r20
 4281 1708 8B01      		movw r16,r22
 4282               	.LM474:
 4283 170a 8EEF      		ldi r24,lo8(-2)
 4284 170c 9FEF      		ldi r25,hi8(-2)
 4285 170e AFEF      		ldi r26,hlo8(-2)
 4286 1710 BFEF      		ldi r27,hhi8(-2)
 4287               	.LVL331:
 4288 1712 E80E      		add r14,r24
 4289 1714 F91E      		adc r15,r25
 4290 1716 0A1F      		adc r16,r26
 4291 1718 1B1F      		adc r17,r27
 4292               	.LVL332:
 4293               	.LM475:
 4294 171a 8A8D      		ldd r24,Y+26
 4295 171c 9B8D      		ldd r25,Y+27
 4296 171e AC8D      		ldd r26,Y+28
 4297 1720 BD8D      		ldd r27,Y+29
 4298 1722 0297      		sbiw r24,2
 4299 1724 A109      		sbc r26,__zero_reg__
 4300 1726 B109      		sbc r27,__zero_reg__
 4301 1728 E816      		cp r14,r24
 4302 172a F906      		cpc r15,r25
 4303 172c 0A07      		cpc r16,r26
 4304 172e 1B07      		cpc r17,r27
 4305 1730 00F0      		brlo .L365
 4306 1732 20E0      		ldi r18,lo8(0)
 4307 1734 30E0      		ldi r19,hi8(0)
 4308 1736 40E0      		ldi r20,hlo8(0)
 4309 1738 50E0      		ldi r21,hhi8(0)
 4310 173a 00C0      		rjmp .L366
 4311               	.L365:
 4312               	.LM476:
 4313 173c 2A81      		ldd r18,Y+2
 4314 173e 30E0      		ldi r19,lo8(0)
 4315 1740 40E0      		ldi r20,lo8(0)
 4316 1742 50E0      		ldi r21,hi8(0)
 4317 1744 C801      		movw r24,r16
 4318 1746 B701      		movw r22,r14
 4319 1748 0E94 0000 		call __mulsi3
 4320 174c 9B01      		movw r18,r22
 4321 174e AC01      		movw r20,r24
 4322 1750 8EA1      		ldd r24,Y+38
 4323 1752 9FA1      		ldd r25,Y+39
 4324 1754 A8A5      		ldd r26,Y+40
 4325 1756 B9A5      		ldd r27,Y+41
 4326 1758 280F      		add r18,r24
 4327 175a 391F      		adc r19,r25
 4328 175c 4A1F      		adc r20,r26
 4329 175e 5B1F      		adc r21,r27
 4330               	.L366:
 4331               	.LM477:
 4332 1760 B901      		movw r22,r18
 4333 1762 CA01      		movw r24,r20
 4334               	/* epilogue start */
 4335 1764 DF91      		pop r29
 4336 1766 CF91      		pop r28
 4337               	.LVL333:
 4338 1768 1F91      		pop r17
 4339 176a 0F91      		pop r16
 4340 176c FF90      		pop r15
 4341 176e EF90      		pop r14
 4342               	.LVL334:
 4343 1770 0895      		ret
 4344               	.LFE66:
 4347               	dir_seek:
 4348               	.LFB67:
 4349               	.LM478:
 4350               	.LVL335:
 4351 1772 AF92      		push r10
 4352 1774 BF92      		push r11
 4353 1776 CF92      		push r12
 4354 1778 DF92      		push r13
 4355 177a EF92      		push r14
 4356 177c FF92      		push r15
 4357 177e 0F93      		push r16
 4358 1780 1F93      		push r17
 4359 1782 CF93      		push r28
 4360 1784 DF93      		push r29
 4361               	/* prologue: function */
 4362               	/* frame size = 0 */
 4363 1786 5C01      		movw r10,r24
 4364 1788 6B01      		movw r12,r22
 4365               	.LM479:
 4366 178a DC01      		movw r26,r24
 4367 178c 1496      		adiw r26,4
 4368 178e 6D93      		st X+,r22
 4369 1790 7C93      		st X,r23
 4370 1792 1597      		sbiw r26,4+1
 4371               	.LM480:
 4372 1794 1696      		adiw r26,6
 4373 1796 4D91      		ld r20,X+
 4374 1798 5D91      		ld r21,X+
 4375 179a 6D91      		ld r22,X+
 4376 179c 7C91      		ld r23,X
 4377 179e 1997      		sbiw r26,6+3
 4378               	.LVL336:
 4379               	.LM481:
 4380 17a0 4130      		cpi r20,lo8(1)
 4381 17a2 5105      		cpc r21,__zero_reg__
 4382 17a4 6105      		cpc r22,__zero_reg__
 4383 17a6 7105      		cpc r23,__zero_reg__
 4384 17a8 01F4      		brne .+2
 4385 17aa 00C0      		rjmp .L369
 4386 17ac ED91      		ld r30,X+
 4387 17ae FC91      		ld r31,X
 4388 17b0 828D      		ldd r24,Z+26
 4389 17b2 938D      		ldd r25,Z+27
 4390 17b4 A48D      		ldd r26,Z+28
 4391 17b6 B58D      		ldd r27,Z+29
 4392               	.LVL337:
 4393 17b8 4817      		cp r20,r24
 4394 17ba 5907      		cpc r21,r25
 4395 17bc 6A07      		cpc r22,r26
 4396 17be 7B07      		cpc r23,r27
 4397 17c0 00F0      		brlo .+2
 4398 17c2 00C0      		rjmp .L369
 4399               	.LM482:
 4400 17c4 4115      		cp r20,__zero_reg__
 4401 17c6 5105      		cpc r21,__zero_reg__
 4402 17c8 6105      		cpc r22,__zero_reg__
 4403 17ca 7105      		cpc r23,__zero_reg__
 4404 17cc 01F4      		brne .L370
 4405 17ce 8081      		ld r24,Z
 4406 17d0 8330      		cpi r24,lo8(3)
 4407 17d2 01F4      		brne .L371
 4408               	.LM483:
 4409 17d4 42A1      		ldd r20,Z+34
 4410 17d6 53A1      		ldd r21,Z+35
 4411 17d8 64A1      		ldd r22,Z+36
 4412 17da 75A1      		ldd r23,Z+37
 4413               	.LM484:
 4414 17dc 4115      		cp r20,__zero_reg__
 4415 17de 5105      		cpc r21,__zero_reg__
 4416 17e0 6105      		cpc r22,__zero_reg__
 4417 17e2 7105      		cpc r23,__zero_reg__
 4418 17e4 01F4      		brne .L370
 4419               	.L371:
 4420               	.LM485:
 4421 17e6 F501      		movw r30,r10
 4422 17e8 1286      		std Z+10,__zero_reg__
 4423 17ea 1386      		std Z+11,__zero_reg__
 4424 17ec 1486      		std Z+12,__zero_reg__
 4425 17ee 1586      		std Z+13,__zero_reg__
 4426               	.LM486:
 4427 17f0 0190      		ld __tmp_reg__,Z+
 4428 17f2 F081      		ld r31,Z
 4429 17f4 E02D      		mov r30,__tmp_reg__
 4430 17f6 8085      		ldd r24,Z+8
 4431 17f8 9185      		ldd r25,Z+9
 4432 17fa C816      		cp r12,r24
 4433 17fc D906      		cpc r13,r25
 4434 17fe 00F0      		brlo .+2
 4435 1800 00C0      		rjmp .L369
 4436               	.LVL338:
 4437               	.LM487:
 4438 1802 C601      		movw r24,r12
 4439 1804 24E0      		ldi r18,4
 4440 1806 9695      	1:	lsr r25
 4441 1808 8795      		ror r24
 4442 180a 2A95      		dec r18
 4443 180c 01F4      		brne 1b
 4444 180e A0E0      		ldi r26,lo8(0)
 4445 1810 B0E0      		ldi r27,hi8(0)
 4446 1812 22A1      		ldd r18,Z+34
 4447 1814 33A1      		ldd r19,Z+35
 4448 1816 44A1      		ldd r20,Z+36
 4449 1818 55A1      		ldd r21,Z+37
 4450 181a 820F      		add r24,r18
 4451 181c 931F      		adc r25,r19
 4452 181e A41F      		adc r26,r20
 4453 1820 B51F      		adc r27,r21
 4454 1822 F501      		movw r30,r10
 4455 1824 8687      		std Z+14,r24
 4456 1826 9787      		std Z+15,r25
 4457 1828 A08B      		std Z+16,r26
 4458 182a B18B      		std Z+17,r27
 4459 182c 00C0      		rjmp .L372
 4460               	.LVL339:
 4461               	.L370:
 4462               	.LM488:
 4463 182e 8281      		ldd r24,Z+2
 4464 1830 082F      		mov r16,r24
 4465               	.LVL340:
 4466 1832 10E0      		ldi r17,lo8(0)
 4467               	.LVL341:
 4468 1834 94E0      		ldi r25,4
 4469 1836 000F      	1:	lsl r16
 4470 1838 111F      		rol r17
 4471 183a 9A95      		dec r25
 4472 183c 01F4      		brne 1b
 4473               	.LVL342:
 4474 183e 00C0      		rjmp .L373
 4475               	.LVL343:
 4476               	.L376:
 4477               	.LM489:
 4478 1840 CE01      		movw r24,r28
 4479 1842 0E94 0000 		call get_fat
 4480               	.LVL344:
 4481 1846 AB01      		movw r20,r22
 4482 1848 BC01      		movw r22,r24
 4483               	.LVL345:
 4484               	.LM490:
 4485 184a 4F3F      		cpi r20,lo8(-1)
 4486 184c FFEF      		ldi r31,hi8(-1)
 4487 184e 5F07      		cpc r21,r31
 4488 1850 FFEF      		ldi r31,hlo8(-1)
 4489 1852 6F07      		cpc r22,r31
 4490 1854 FFEF      		ldi r31,hhi8(-1)
 4491 1856 7F07      		cpc r23,r31
 4492 1858 01F4      		brne .L374
 4493 185a 81E0      		ldi r24,lo8(1)
 4494 185c 00C0      		rjmp .L375
 4495               	.L374:
 4496               	.LM491:
 4497 185e 4230      		cpi r20,lo8(2)
 4498 1860 5105      		cpc r21,__zero_reg__
 4499 1862 6105      		cpc r22,__zero_reg__
 4500 1864 7105      		cpc r23,__zero_reg__
 4501 1866 00F4      		brsh .+2
 4502 1868 00C0      		rjmp .L369
 4503 186a D501      		movw r26,r10
 4504 186c ED91      		ld r30,X+
 4505 186e FC91      		ld r31,X
 4506 1870 828D      		ldd r24,Z+26
 4507 1872 938D      		ldd r25,Z+27
 4508 1874 A48D      		ldd r26,Z+28
 4509 1876 B58D      		ldd r27,Z+29
 4510 1878 4817      		cp r20,r24
 4511 187a 5907      		cpc r21,r25
 4512 187c 6A07      		cpc r22,r26
 4513 187e 7B07      		cpc r23,r27
 4514 1880 00F0      		brlo .+2
 4515 1882 00C0      		rjmp .L369
 4516               	.LM492:
 4517 1884 C01A      		sub r12,r16
 4518 1886 D10A      		sbc r13,r17
 4519               	.LVL346:
 4520               	.L373:
 4521 1888 F501      		movw r30,r10
 4522 188a C081      		ld r28,Z
 4523 188c D181      		ldd r29,Z+1
 4524               	.LM493:
 4525 188e C016      		cp r12,r16
 4526 1890 D106      		cpc r13,r17
 4527 1892 00F4      		brsh .L376
 4528               	.LM494:
 4529 1894 D501      		movw r26,r10
 4530 1896 1A96      		adiw r26,10
 4531 1898 4D93      		st X+,r20
 4532 189a 5D93      		st X+,r21
 4533 189c 6D93      		st X+,r22
 4534 189e 7C93      		st X,r23
 4535 18a0 1D97      		sbiw r26,10+3
 4536               	.LBB740:
 4537               	.LBB741:
 4538               	.LM495:
 4539 18a2 8EEF      		ldi r24,lo8(-2)
 4540 18a4 E82E      		mov r14,r24
 4541 18a6 8FEF      		ldi r24,hi8(-2)
 4542 18a8 F82E      		mov r15,r24
 4543 18aa 8FEF      		ldi r24,hlo8(-2)
 4544 18ac 082F      		mov r16,r24
 4545 18ae 8FEF      		ldi r24,hhi8(-2)
 4546 18b0 182F      		mov r17,r24
 4547               	.LVL347:
 4548 18b2 E40E      		add r14,r20
 4549 18b4 F51E      		adc r15,r21
 4550 18b6 061F      		adc r16,r22
 4551 18b8 171F      		adc r17,r23
 4552               	.LM496:
 4553 18ba 8A8D      		ldd r24,Y+26
 4554 18bc 9B8D      		ldd r25,Y+27
 4555 18be AC8D      		ldd r26,Y+28
 4556 18c0 BD8D      		ldd r27,Y+29
 4557 18c2 0297      		sbiw r24,2
 4558 18c4 A109      		sbc r26,__zero_reg__
 4559 18c6 B109      		sbc r27,__zero_reg__
 4560 18c8 E816      		cp r14,r24
 4561 18ca F906      		cpc r15,r25
 4562 18cc 0A07      		cpc r16,r26
 4563 18ce 1B07      		cpc r17,r27
 4564 18d0 00F0      		brlo .L377
 4565 18d2 20E0      		ldi r18,lo8(0)
 4566 18d4 30E0      		ldi r19,hi8(0)
 4567 18d6 40E0      		ldi r20,hlo8(0)
 4568 18d8 50E0      		ldi r21,hhi8(0)
 4569 18da 00C0      		rjmp .L378
 4570               	.L377:
 4571               	.LM497:
 4572 18dc 2A81      		ldd r18,Y+2
 4573 18de 30E0      		ldi r19,lo8(0)
 4574 18e0 40E0      		ldi r20,lo8(0)
 4575 18e2 50E0      		ldi r21,hi8(0)
 4576               	.LVL348:
 4577 18e4 C801      		movw r24,r16
 4578 18e6 B701      		movw r22,r14
 4579 18e8 0E94 0000 		call __mulsi3
 4580 18ec 9B01      		movw r18,r22
 4581 18ee AC01      		movw r20,r24
 4582 18f0 8EA1      		ldd r24,Y+38
 4583 18f2 9FA1      		ldd r25,Y+39
 4584 18f4 A8A5      		ldd r26,Y+40
 4585 18f6 B9A5      		ldd r27,Y+41
 4586 18f8 280F      		add r18,r24
 4587 18fa 391F      		adc r19,r25
 4588 18fc 4A1F      		adc r20,r26
 4589 18fe 5B1F      		adc r21,r27
 4590               	.LVL349:
 4591               	.L378:
 4592               	.LBE741:
 4593               	.LBE740:
 4594               	.LM498:
 4595 1900 C601      		movw r24,r12
 4596 1902 04E0      		ldi r16,4
 4597 1904 9695      	1:	lsr r25
 4598 1906 8795      		ror r24
 4599 1908 0A95      		dec r16
 4600 190a 01F4      		brne 1b
 4601               	.LVL350:
 4602 190c A0E0      		ldi r26,lo8(0)
 4603 190e B0E0      		ldi r27,hi8(0)
 4604 1910 280F      		add r18,r24
 4605 1912 391F      		adc r19,r25
 4606 1914 4A1F      		adc r20,r26
 4607 1916 5B1F      		adc r21,r27
 4608 1918 F501      		movw r30,r10
 4609 191a 2687      		std Z+14,r18
 4610 191c 3787      		std Z+15,r19
 4611 191e 408B      		std Z+16,r20
 4612 1920 518B      		std Z+17,r21
 4613               	.L372:
 4614               	.LM499:
 4615 1922 FFE0      		ldi r31,lo8(15)
 4616 1924 CF22      		and r12,r31
 4617 1926 DD24      		clr r13
 4618 1928 15E0      		ldi r17,5
 4619 192a CC0C      	1:	lsl r12
 4620 192c DD1C      		rol r13
 4621 192e 1A95      		dec r17
 4622 1930 01F4      		brne 1b
 4623               	.LVL351:
 4624 1932 8EE2      		ldi r24,lo8(46)
 4625 1934 90E0      		ldi r25,hi8(46)
 4626 1936 C80E      		add r12,r24
 4627 1938 D91E      		adc r13,r25
 4628 193a D501      		movw r26,r10
 4629 193c 8D91      		ld r24,X+
 4630 193e 9C91      		ld r25,X
 4631 1940 1197      		sbiw r26,1
 4632 1942 8C0D      		add r24,r12
 4633 1944 9D1D      		adc r25,r13
 4634 1946 5296      		adiw r26,18
 4635 1948 8D93      		st X+,r24
 4636 194a 9C93      		st X,r25
 4637 194c 5397      		sbiw r26,18+1
 4638 194e 80E0      		ldi r24,lo8(0)
 4639 1950 00C0      		rjmp .L375
 4640               	.LVL352:
 4641               	.L369:
 4642               	.LM500:
 4643 1952 82E0      		ldi r24,lo8(2)
 4644               	.LVL353:
 4645               	.L375:
 4646               	/* epilogue start */
 4647               	.LM501:
 4648 1954 DF91      		pop r29
 4649 1956 CF91      		pop r28
 4650 1958 1F91      		pop r17
 4651               	.LVL354:
 4652 195a 0F91      		pop r16
 4653               	.LVL355:
 4654 195c FF90      		pop r15
 4655 195e EF90      		pop r14
 4656               	.LVL356:
 4657 1960 DF90      		pop r13
 4658 1962 CF90      		pop r12
 4659               	.LVL357:
 4660 1964 BF90      		pop r11
 4661 1966 AF90      		pop r10
 4662               	.LVL358:
 4663 1968 0895      		ret
 4664               	.LFE67:
 4667               	dir_next:
 4668               	.LFB68:
 4669               	.LM502:
 4670               	.LVL359:
 4671 196a 4F92      		push r4
 4672 196c 5F92      		push r5
 4673 196e 6F92      		push r6
 4674 1970 7F92      		push r7
 4675 1972 8F92      		push r8
 4676 1974 9F92      		push r9
 4677 1976 AF92      		push r10
 4678 1978 BF92      		push r11
 4679 197a CF92      		push r12
 4680 197c DF92      		push r13
 4681 197e EF92      		push r14
 4682 1980 FF92      		push r15
 4683 1982 0F93      		push r16
 4684 1984 1F93      		push r17
 4685 1986 CF93      		push r28
 4686 1988 DF93      		push r29
 4687               	/* prologue: function */
 4688               	/* frame size = 0 */
 4689 198a EC01      		movw r28,r24
 4690 198c D62E      		mov r13,r22
 4691               	.LM503:
 4692 198e 6C80      		ldd r6,Y+4
 4693 1990 7D80      		ldd r7,Y+5
 4694               	.LVL360:
 4695 1992 0894      		sec
 4696 1994 611C      		adc r6,__zero_reg__
 4697 1996 711C      		adc r7,__zero_reg__
 4698               	.LM504:
 4699 1998 6114      		cp r6,__zero_reg__
 4700 199a 7104      		cpc r7,__zero_reg__
 4701 199c 01F4      		brne .+2
 4702 199e 00C0      		rjmp .L381
 4703               	.LVL361:
 4704 19a0 8E85      		ldd r24,Y+14
 4705 19a2 9F85      		ldd r25,Y+15
 4706 19a4 A889      		ldd r26,Y+16
 4707 19a6 B989      		ldd r27,Y+17
 4708 19a8 0097      		sbiw r24,0
 4709 19aa A105      		cpc r26,__zero_reg__
 4710 19ac B105      		cpc r27,__zero_reg__
 4711 19ae 01F4      		brne .+2
 4712 19b0 00C0      		rjmp .L381
 4713               	.LM505:
 4714 19b2 1FE0      		ldi r17,lo8(15)
 4715 19b4 412E      		mov r4,r17
 4716 19b6 512C      		mov r5,__zero_reg__
 4717 19b8 4620      		and r4,r6
 4718 19ba 5720      		and r5,r7
 4719 19bc 4114      		cp r4,__zero_reg__
 4720 19be 5104      		cpc r5,__zero_reg__
 4721 19c0 01F0      		breq .+2
 4722 19c2 00C0      		rjmp .L382
 4723               	.LM506:
 4724 19c4 0196      		adiw r24,1
 4725 19c6 A11D      		adc r26,__zero_reg__
 4726 19c8 B11D      		adc r27,__zero_reg__
 4727 19ca 8E87      		std Y+14,r24
 4728 19cc 9F87      		std Y+15,r25
 4729 19ce A88B      		std Y+16,r26
 4730 19d0 B98B      		std Y+17,r27
 4731               	.LM507:
 4732 19d2 4A85      		ldd r20,Y+10
 4733 19d4 5B85      		ldd r21,Y+11
 4734 19d6 6C85      		ldd r22,Y+12
 4735 19d8 7D85      		ldd r23,Y+13
 4736 19da E881      		ld r30,Y
 4737 19dc F981      		ldd r31,Y+1
 4738 19de 4115      		cp r20,__zero_reg__
 4739 19e0 5105      		cpc r21,__zero_reg__
 4740 19e2 6105      		cpc r22,__zero_reg__
 4741 19e4 7105      		cpc r23,__zero_reg__
 4742 19e6 01F4      		brne .L383
 4743               	.LM508:
 4744 19e8 8085      		ldd r24,Z+8
 4745 19ea 9185      		ldd r25,Z+9
 4746 19ec 6816      		cp r6,r24
 4747 19ee 7906      		cpc r7,r25
 4748 19f0 00F4      		brsh .+2
 4749 19f2 00C0      		rjmp .L382
 4750 19f4 00C0      		rjmp .L381
 4751               	.L383:
 4752               	.LM509:
 4753 19f6 8281      		ldd r24,Z+2
 4754 19f8 90E0      		ldi r25,lo8(0)
 4755 19fa 0197      		sbiw r24,1
 4756 19fc 9301      		movw r18,r6
 4757 19fe A4E0      		ldi r26,4
 4758 1a00 3695      	1:	lsr r19
 4759 1a02 2795      		ror r18
 4760 1a04 AA95      		dec r26
 4761 1a06 01F4      		brne 1b
 4762 1a08 8223      		and r24,r18
 4763 1a0a 9323      		and r25,r19
 4764 1a0c 892B      		or r24,r25
 4765 1a0e 01F0      		breq .+2
 4766 1a10 00C0      		rjmp .L382
 4767               	.LM510:
 4768 1a12 CF01      		movw r24,r30
 4769 1a14 0E94 0000 		call get_fat
 4770 1a18 7B01      		movw r14,r22
 4771 1a1a 8C01      		movw r16,r24
 4772               	.LVL362:
 4773               	.LM511:
 4774 1a1c 6230      		cpi r22,lo8(2)
 4775 1a1e 7105      		cpc r23,__zero_reg__
 4776 1a20 8105      		cpc r24,__zero_reg__
 4777 1a22 9105      		cpc r25,__zero_reg__
 4778 1a24 00F4      		brsh .+2
 4779 1a26 00C0      		rjmp .L384
 4780               	.LVL363:
 4781               	.LM512:
 4782 1a28 8FEF      		ldi r24,lo8(-1)
 4783 1a2a E816      		cp r14,r24
 4784 1a2c 8FEF      		ldi r24,hi8(-1)
 4785 1a2e F806      		cpc r15,r24
 4786 1a30 8FEF      		ldi r24,hlo8(-1)
 4787 1a32 0807      		cpc r16,r24
 4788 1a34 8FEF      		ldi r24,hhi8(-1)
 4789 1a36 1807      		cpc r17,r24
 4790 1a38 01F4      		brne .+2
 4791 1a3a 00C0      		rjmp .L385
 4792               	.LVL364:
 4793               	.LM513:
 4794 1a3c E881      		ld r30,Y
 4795 1a3e F981      		ldd r31,Y+1
 4796 1a40 828D      		ldd r24,Z+26
 4797 1a42 938D      		ldd r25,Z+27
 4798 1a44 A48D      		ldd r26,Z+28
 4799 1a46 B58D      		ldd r27,Z+29
 4800 1a48 E816      		cp r14,r24
 4801 1a4a F906      		cpc r15,r25
 4802 1a4c 0A07      		cpc r16,r26
 4803 1a4e 1B07      		cpc r17,r27
 4804 1a50 00F4      		brsh .+2
 4805 1a52 00C0      		rjmp .L386
 4806               	.LBB742:
 4807               	.LM514:
 4808 1a54 DD20      		tst r13
 4809 1a56 01F4      		brne .+2
 4810 1a58 00C0      		rjmp .L381
 4811               	.LM515:
 4812 1a5a 4A85      		ldd r20,Y+10
 4813 1a5c 5B85      		ldd r21,Y+11
 4814 1a5e 6C85      		ldd r22,Y+12
 4815 1a60 7D85      		ldd r23,Y+13
 4816 1a62 CF01      		movw r24,r30
 4817 1a64 0E94 0000 		call create_chain
 4818 1a68 7B01      		movw r14,r22
 4819 1a6a 8C01      		movw r16,r24
 4820               	.LM516:
 4821 1a6c 6115      		cp r22,__zero_reg__
 4822 1a6e 7105      		cpc r23,__zero_reg__
 4823 1a70 8105      		cpc r24,__zero_reg__
 4824 1a72 9105      		cpc r25,__zero_reg__
 4825 1a74 01F4      		brne .L387
 4826               	.LVL365:
 4827 1a76 87E0      		ldi r24,lo8(7)
 4828 1a78 00C0      		rjmp .L388
 4829               	.L387:
 4830               	.LM517:
 4831 1a7a 91E0      		ldi r25,lo8(1)
 4832 1a7c E916      		cp r14,r25
 4833 1a7e F104      		cpc r15,__zero_reg__
 4834 1a80 0105      		cpc r16,__zero_reg__
 4835 1a82 1105      		cpc r17,__zero_reg__
 4836 1a84 01F4      		brne .+2
 4837 1a86 00C0      		rjmp .L384
 4838               	.LVL366:
 4839               	.LM518:
 4840 1a88 AFEF      		ldi r26,lo8(-1)
 4841 1a8a EA16      		cp r14,r26
 4842 1a8c AFEF      		ldi r26,hi8(-1)
 4843 1a8e FA06      		cpc r15,r26
 4844 1a90 AFEF      		ldi r26,hlo8(-1)
 4845 1a92 0A07      		cpc r16,r26
 4846 1a94 AFEF      		ldi r26,hhi8(-1)
 4847 1a96 1A07      		cpc r17,r26
 4848 1a98 01F4      		brne .+2
 4849 1a9a 00C0      		rjmp .L385
 4850               	.LM519:
 4851 1a9c 8881      		ld r24,Y
 4852 1a9e 9981      		ldd r25,Y+1
 4853 1aa0 40E0      		ldi r20,lo8(0)
 4854 1aa2 50E0      		ldi r21,hi8(0)
 4855 1aa4 60E0      		ldi r22,hlo8(0)
 4856 1aa6 70E0      		ldi r23,hhi8(0)
 4857 1aa8 0E94 0000 		call move_window
 4858 1aac 8823      		tst r24
 4859 1aae 01F0      		breq .+2
 4860 1ab0 00C0      		rjmp .L385
 4861               	.LBB743:
 4862               	.LBB744:
 4863               	.LM520:
 4864 1ab2 E881      		ld r30,Y
 4865 1ab4 F981      		ldd r31,Y+1
 4866               	.LVL367:
 4867 1ab6 BE96      		adiw r30,46
 4868 1ab8 80E0      		ldi r24,lo8(512)
 4869 1aba 92E0      		ldi r25,hi8(512)
 4870               	.LVL368:
 4871 1abc 00C0      		rjmp .L389
 4872               	.L390:
 4873               	.LM521:
 4874 1abe 1192      		st Z+,__zero_reg__
 4875               	.L389:
 4876 1ac0 0197      		sbiw r24,1
 4877 1ac2 BFEF      		ldi r27,hi8(-1)
 4878 1ac4 8F3F      		cpi r24,lo8(-1)
 4879 1ac6 9B07      		cpc r25,r27
 4880 1ac8 01F4      		brne .L390
 4881               	.LBE744:
 4882               	.LBE743:
 4883               	.LM522:
 4884 1aca 8880      		ld r8,Y
 4885 1acc 9980      		ldd r9,Y+1
 4886               	.LBB745:
 4887               	.LBB746:
 4888               	.LM523:
 4889 1ace 4EEF      		ldi r20,lo8(-2)
 4890 1ad0 A42E      		mov r10,r20
 4891 1ad2 4FEF      		ldi r20,hi8(-2)
 4892 1ad4 B42E      		mov r11,r20
 4893 1ad6 4FEF      		ldi r20,hlo8(-2)
 4894 1ad8 C42E      		mov r12,r20
 4895 1ada 4FEF      		ldi r20,hhi8(-2)
 4896 1adc D42E      		mov r13,r20
 4897               	.LVL369:
 4898 1ade AE0C      		add r10,r14
 4899 1ae0 BF1C      		adc r11,r15
 4900 1ae2 C01E      		adc r12,r16
 4901 1ae4 D11E      		adc r13,r17
 4902               	.LM524:
 4903 1ae6 F401      		movw r30,r8
 4904               	.LVL370:
 4905 1ae8 828D      		ldd r24,Z+26
 4906 1aea 938D      		ldd r25,Z+27
 4907 1aec A48D      		ldd r26,Z+28
 4908 1aee B58D      		ldd r27,Z+29
 4909               	.LVL371:
 4910 1af0 0297      		sbiw r24,2
 4911 1af2 A109      		sbc r26,__zero_reg__
 4912 1af4 B109      		sbc r27,__zero_reg__
 4913 1af6 A816      		cp r10,r24
 4914 1af8 B906      		cpc r11,r25
 4915 1afa CA06      		cpc r12,r26
 4916 1afc DB06      		cpc r13,r27
 4917 1afe 00F0      		brlo .L391
 4918 1b00 20E0      		ldi r18,lo8(0)
 4919 1b02 30E0      		ldi r19,hi8(0)
 4920 1b04 40E0      		ldi r20,hlo8(0)
 4921 1b06 50E0      		ldi r21,hhi8(0)
 4922 1b08 00C0      		rjmp .L392
 4923               	.L391:
 4924               	.LM525:
 4925 1b0a D401      		movw r26,r8
 4926 1b0c 1296      		adiw r26,2
 4927 1b0e 2C91      		ld r18,X
 4928 1b10 30E0      		ldi r19,lo8(0)
 4929 1b12 40E0      		ldi r20,lo8(0)
 4930 1b14 50E0      		ldi r21,hi8(0)
 4931 1b16 C601      		movw r24,r12
 4932 1b18 B501      		movw r22,r10
 4933 1b1a 0E94 0000 		call __mulsi3
 4934 1b1e 9B01      		movw r18,r22
 4935 1b20 AC01      		movw r20,r24
 4936 1b22 F401      		movw r30,r8
 4937 1b24 86A1      		ldd r24,Z+38
 4938 1b26 97A1      		ldd r25,Z+39
 4939 1b28 A0A5      		ldd r26,Z+40
 4940 1b2a B1A5      		ldd r27,Z+41
 4941 1b2c 280F      		add r18,r24
 4942 1b2e 391F      		adc r19,r25
 4943 1b30 4A1F      		adc r20,r26
 4944 1b32 5B1F      		adc r21,r27
 4945               	.L392:
 4946               	.LBE746:
 4947               	.LBE745:
 4948               	.LM526:
 4949 1b34 D401      		movw r26,r8
 4950 1b36 9A96      		adiw r26,42
 4951 1b38 2D93      		st X+,r18
 4952 1b3a 3D93      		st X+,r19
 4953 1b3c 4D93      		st X+,r20
 4954 1b3e 5C93      		st X,r21
 4955 1b40 9D97      		sbiw r26,42+3
 4956 1b42 DD24      		clr r13
 4957               	.LVL372:
 4958               	.LM527:
 4959 1b44 CC24      		clr r12
 4960 1b46 C394      		inc r12
 4961 1b48 00C0      		rjmp .L393
 4962               	.L394:
 4963 1b4a C482      		std Z+4,r12
 4964               	.LM528:
 4965 1b4c 8881      		ld r24,Y
 4966 1b4e 9981      		ldd r25,Y+1
 4967 1b50 40E0      		ldi r20,lo8(0)
 4968 1b52 50E0      		ldi r21,hi8(0)
 4969 1b54 60E0      		ldi r22,hlo8(0)
 4970 1b56 70E0      		ldi r23,hhi8(0)
 4971 1b58 0E94 0000 		call move_window
 4972 1b5c 8823      		tst r24
 4973 1b5e 01F0      		breq .+2
 4974 1b60 00C0      		rjmp .L385
 4975               	.LM529:
 4976 1b62 E881      		ld r30,Y
 4977 1b64 F981      		ldd r31,Y+1
 4978 1b66 82A5      		ldd r24,Z+42
 4979 1b68 93A5      		ldd r25,Z+43
 4980 1b6a A4A5      		ldd r26,Z+44
 4981 1b6c B5A5      		ldd r27,Z+45
 4982 1b6e 0196      		adiw r24,1
 4983 1b70 A11D      		adc r26,__zero_reg__
 4984 1b72 B11D      		adc r27,__zero_reg__
 4985 1b74 82A7      		std Z+42,r24
 4986 1b76 93A7      		std Z+43,r25
 4987 1b78 A4A7      		std Z+44,r26
 4988 1b7a B5A7      		std Z+45,r27
 4989               	.LM530:
 4990 1b7c D394      		inc r13
 4991               	.L393:
 4992 1b7e E881      		ld r30,Y
 4993 1b80 F981      		ldd r31,Y+1
 4994 1b82 8281      		ldd r24,Z+2
 4995 1b84 D816      		cp r13,r24
 4996 1b86 00F0      		brlo .L394
 4997               	.LM531:
 4998 1b88 82A5      		ldd r24,Z+42
 4999 1b8a 93A5      		ldd r25,Z+43
 5000 1b8c A4A5      		ldd r26,Z+44
 5001 1b8e B5A5      		ldd r27,Z+45
 5002 1b90 8D19      		sub r24,r13
 5003 1b92 9109      		sbc r25,__zero_reg__
 5004 1b94 A109      		sbc r26,__zero_reg__
 5005 1b96 B109      		sbc r27,__zero_reg__
 5006 1b98 82A7      		std Z+42,r24
 5007 1b9a 93A7      		std Z+43,r25
 5008 1b9c A4A7      		std Z+44,r26
 5009 1b9e B5A7      		std Z+45,r27
 5010               	.LVL373:
 5011               	.L386:
 5012               	.LBE742:
 5013               	.LM532:
 5014 1ba0 EA86      		std Y+10,r14
 5015 1ba2 FB86      		std Y+11,r15
 5016 1ba4 0C87      		std Y+12,r16
 5017 1ba6 1D87      		std Y+13,r17
 5018               	.LM533:
 5019 1ba8 C880      		ld r12,Y
 5020 1baa D980      		ldd r13,Y+1
 5021               	.LBB747:
 5022               	.LBB748:
 5023               	.LM534:
 5024 1bac 8EEF      		ldi r24,lo8(-2)
 5025 1bae 9FEF      		ldi r25,hi8(-2)
 5026 1bb0 AFEF      		ldi r26,hlo8(-2)
 5027 1bb2 BFEF      		ldi r27,hhi8(-2)
 5028 1bb4 E80E      		add r14,r24
 5029 1bb6 F91E      		adc r15,r25
 5030 1bb8 0A1F      		adc r16,r26
 5031 1bba 1B1F      		adc r17,r27
 5032               	.LVL374:
 5033               	.LM535:
 5034 1bbc F601      		movw r30,r12
 5035 1bbe 828D      		ldd r24,Z+26
 5036 1bc0 938D      		ldd r25,Z+27
 5037 1bc2 A48D      		ldd r26,Z+28
 5038 1bc4 B58D      		ldd r27,Z+29
 5039 1bc6 0297      		sbiw r24,2
 5040 1bc8 A109      		sbc r26,__zero_reg__
 5041 1bca B109      		sbc r27,__zero_reg__
 5042 1bcc E816      		cp r14,r24
 5043 1bce F906      		cpc r15,r25
 5044 1bd0 0A07      		cpc r16,r26
 5045 1bd2 1B07      		cpc r17,r27
 5046 1bd4 00F0      		brlo .L395
 5047 1bd6 20E0      		ldi r18,lo8(0)
 5048 1bd8 30E0      		ldi r19,hi8(0)
 5049 1bda 40E0      		ldi r20,hlo8(0)
 5050 1bdc 50E0      		ldi r21,hhi8(0)
 5051 1bde 00C0      		rjmp .L396
 5052               	.L395:
 5053               	.LM536:
 5054 1be0 D601      		movw r26,r12
 5055 1be2 1296      		adiw r26,2
 5056 1be4 2C91      		ld r18,X
 5057 1be6 30E0      		ldi r19,lo8(0)
 5058 1be8 40E0      		ldi r20,lo8(0)
 5059 1bea 50E0      		ldi r21,hi8(0)
 5060 1bec C801      		movw r24,r16
 5061 1bee B701      		movw r22,r14
 5062               	.LVL375:
 5063 1bf0 0E94 0000 		call __mulsi3
 5064 1bf4 9B01      		movw r18,r22
 5065 1bf6 AC01      		movw r20,r24
 5066 1bf8 F601      		movw r30,r12
 5067 1bfa 86A1      		ldd r24,Z+38
 5068 1bfc 97A1      		ldd r25,Z+39
 5069 1bfe A0A5      		ldd r26,Z+40
 5070 1c00 B1A5      		ldd r27,Z+41
 5071 1c02 280F      		add r18,r24
 5072 1c04 391F      		adc r19,r25
 5073 1c06 4A1F      		adc r20,r26
 5074 1c08 5B1F      		adc r21,r27
 5075               	.LVL376:
 5076               	.L396:
 5077               	.LBE748:
 5078               	.LBE747:
 5079               	.LM537:
 5080 1c0a 2E87      		std Y+14,r18
 5081 1c0c 3F87      		std Y+15,r19
 5082 1c0e 488B      		std Y+16,r20
 5083 1c10 598B      		std Y+17,r21
 5084               	.LVL377:
 5085               	.L382:
 5086               	.LM538:
 5087 1c12 6C82      		std Y+4,r6
 5088 1c14 7D82      		std Y+5,r7
 5089               	.LM539:
 5090 1c16 35E0      		ldi r19,5
 5091 1c18 440C      	1:	lsl r4
 5092 1c1a 551C      		rol r5
 5093 1c1c 3A95      		dec r19
 5094 1c1e 01F4      		brne 1b
 5095 1c20 8EE2      		ldi r24,lo8(46)
 5096 1c22 90E0      		ldi r25,hi8(46)
 5097 1c24 480E      		add r4,r24
 5098 1c26 591E      		adc r5,r25
 5099 1c28 8881      		ld r24,Y
 5100 1c2a 9981      		ldd r25,Y+1
 5101 1c2c 840D      		add r24,r4
 5102 1c2e 951D      		adc r25,r5
 5103 1c30 8A8B      		std Y+18,r24
 5104 1c32 9B8B      		std Y+19,r25
 5105 1c34 80E0      		ldi r24,lo8(0)
 5106 1c36 00C0      		rjmp .L388
 5107               	.LVL378:
 5108               	.L381:
 5109               	.LM540:
 5110 1c38 84E0      		ldi r24,lo8(4)
 5111 1c3a 00C0      		rjmp .L388
 5112               	.LVL379:
 5113               	.L384:
 5114 1c3c 82E0      		ldi r24,lo8(2)
 5115 1c3e 00C0      		rjmp .L388
 5116               	.LVL380:
 5117               	.L385:
 5118 1c40 81E0      		ldi r24,lo8(1)
 5119               	.LVL381:
 5120               	.L388:
 5121               	/* epilogue start */
 5122               	.LM541:
 5123 1c42 DF91      		pop r29
 5124 1c44 CF91      		pop r28
 5125               	.LVL382:
 5126 1c46 1F91      		pop r17
 5127 1c48 0F91      		pop r16
 5128 1c4a FF90      		pop r15
 5129 1c4c EF90      		pop r14
 5130               	.LVL383:
 5131 1c4e DF90      		pop r13
 5132               	.LVL384:
 5133 1c50 CF90      		pop r12
 5134 1c52 BF90      		pop r11
 5135 1c54 AF90      		pop r10
 5136               	.LVL385:
 5137 1c56 9F90      		pop r9
 5138 1c58 8F90      		pop r8
 5139 1c5a 7F90      		pop r7
 5140 1c5c 6F90      		pop r6
 5141               	.LVL386:
 5142 1c5e 5F90      		pop r5
 5143 1c60 4F90      		pop r4
 5144 1c62 0895      		ret
 5145               	.LFE68:
 5148               	dir_read:
 5149               	.LFB70:
 5150               	.LM542:
 5151               	.LVL387:
 5152 1c64 CF93      		push r28
 5153 1c66 DF93      		push r29
 5154               	/* prologue: function */
 5155               	/* frame size = 0 */
 5156 1c68 EC01      		movw r28,r24
 5157               	.LM543:
 5158 1c6a 94E0      		ldi r25,lo8(4)
 5159               	.LVL388:
 5160 1c6c 00C0      		rjmp .L399
 5161               	.LVL389:
 5162               	.L404:
 5163               	.LM544:
 5164 1c6e 8881      		ld r24,Y
 5165 1c70 9981      		ldd r25,Y+1
 5166 1c72 0E94 0000 		call move_window
 5167               	.LVL390:
 5168 1c76 982F      		mov r25,r24
 5169               	.LVL391:
 5170               	.LM545:
 5171 1c78 8823      		tst r24
 5172 1c7a 01F4      		brne .L400
 5173               	.LVL392:
 5174               	.LM546:
 5175 1c7c EA89      		ldd r30,Y+18
 5176 1c7e FB89      		ldd r31,Y+19
 5177               	.LVL393:
 5178               	.LM547:
 5179 1c80 8081      		ld r24,Z
 5180               	.LVL394:
 5181               	.LM548:
 5182 1c82 8823      		tst r24
 5183 1c84 01F0      		breq .L401
 5184               	.LM549:
 5185 1c86 853E      		cpi r24,lo8(-27)
 5186 1c88 01F0      		breq .L402
 5187 1c8a 8E32      		cpi r24,lo8(46)
 5188 1c8c 01F0      		breq .L402
 5189 1c8e 8385      		ldd r24,Z+11
 5190               	.LVL395:
 5191 1c90 83FF      		sbrs r24,3
 5192 1c92 00C0      		rjmp .L403
 5193               	.LVL396:
 5194               	.L402:
 5195               	.LM550:
 5196 1c94 CE01      		movw r24,r28
 5197               	.LVL397:
 5198 1c96 60E0      		ldi r22,lo8(0)
 5199 1c98 0E94 0000 		call dir_next
 5200               	.LVL398:
 5201 1c9c 982F      		mov r25,r24
 5202               	.LVL399:
 5203               	.LM551:
 5204 1c9e 8823      		tst r24
 5205 1ca0 01F4      		brne .L400
 5206               	.LVL400:
 5207               	.L399:
 5208               	.LM552:
 5209 1ca2 4E85      		ldd r20,Y+14
 5210 1ca4 5F85      		ldd r21,Y+15
 5211 1ca6 6889      		ldd r22,Y+16
 5212 1ca8 7989      		ldd r23,Y+17
 5213 1caa 4115      		cp r20,__zero_reg__
 5214 1cac 5105      		cpc r21,__zero_reg__
 5215 1cae 6105      		cpc r22,__zero_reg__
 5216 1cb0 7105      		cpc r23,__zero_reg__
 5217 1cb2 01F4      		brne .L404
 5218               	.LM553:
 5219 1cb4 9923      		tst r25
 5220 1cb6 01F0      		breq .L403
 5221               	.LVL401:
 5222               	.L400:
 5223 1cb8 1E86      		std Y+14,__zero_reg__
 5224 1cba 1F86      		std Y+15,__zero_reg__
 5225 1cbc 188A      		std Y+16,__zero_reg__
 5226 1cbe 198A      		std Y+17,__zero_reg__
 5227               	.L403:
 5228               	.LM554:
 5229 1cc0 892F      		mov r24,r25
 5230               	.LVL402:
 5231               	/* epilogue start */
 5232 1cc2 DF91      		pop r29
 5233 1cc4 CF91      		pop r28
 5234               	.LVL403:
 5235 1cc6 0895      		ret
 5236               	.LVL404:
 5237               	.L401:
 5238               	.LM555:
 5239 1cc8 94E0      		ldi r25,lo8(4)
 5240 1cca 00C0      		rjmp .L400
 5241               	.LFE70:
 5244               	dir_register:
 5245               	.LFB71:
 5246               	.LM556:
 5247               	.LVL405:
 5248 1ccc CF93      		push r28
 5249 1cce DF93      		push r29
 5250               	/* prologue: function */
 5251               	/* frame size = 0 */
 5252 1cd0 EC01      		movw r28,r24
 5253               	.LM557:
 5254 1cd2 60E0      		ldi r22,lo8(0)
 5255 1cd4 70E0      		ldi r23,hi8(0)
 5256 1cd6 0E94 0000 		call dir_seek
 5257               	.LVL406:
 5258               	.L418:
 5259 1cda 482F      		mov r20,r24
 5260               	.LVL407:
 5261               	.LM558:
 5262 1cdc 8823      		tst r24
 5263 1cde 01F4      		brne .L407
 5264               	.LVL408:
 5265               	.LM559:
 5266 1ce0 4E85      		ldd r20,Y+14
 5267 1ce2 5F85      		ldd r21,Y+15
 5268 1ce4 6889      		ldd r22,Y+16
 5269 1ce6 7989      		ldd r23,Y+17
 5270 1ce8 8881      		ld r24,Y
 5271 1cea 9981      		ldd r25,Y+1
 5272               	.LVL409:
 5273 1cec 0E94 0000 		call move_window
 5274 1cf0 482F      		mov r20,r24
 5275               	.LVL410:
 5276               	.LM560:
 5277 1cf2 8823      		tst r24
 5278 1cf4 01F4      		brne .L407
 5279               	.LVL411:
 5280               	.LM561:
 5281 1cf6 EA89      		ldd r30,Y+18
 5282 1cf8 FB89      		ldd r31,Y+19
 5283 1cfa E081      		ld r30,Z
 5284               	.LVL412:
 5285               	.LM562:
 5286 1cfc E53E      		cpi r30,lo8(-27)
 5287 1cfe 01F0      		breq .L408
 5288 1d00 EE23      		tst r30
 5289 1d02 01F0      		breq .L408
 5290               	.LM563:
 5291 1d04 CE01      		movw r24,r28
 5292               	.LVL413:
 5293 1d06 61E0      		ldi r22,lo8(1)
 5294 1d08 0E94 0000 		call dir_next
 5295               	.LVL414:
 5296 1d0c 00C0      		rjmp .L418
 5297               	.LVL415:
 5298               	.L414:
 5299               	.LM564:
 5300 1d0e 6A89      		ldd r22,Y+18
 5301 1d10 7B89      		ldd r23,Y+19
 5302               	.LVL416:
 5303 1d12 FB01      		movw r30,r22
 5304 1d14 80E2      		ldi r24,lo8(32)
 5305 1d16 90E0      		ldi r25,hi8(32)
 5306               	.LVL417:
 5307 1d18 00C0      		rjmp .L410
 5308               	.LVL418:
 5309               	.L411:
 5310               	.LBB749:
 5311               	.LBB750:
 5312               	.LM565:
 5313 1d1a 1192      		st Z+,__zero_reg__
 5314               	.L410:
 5315 1d1c 0197      		sbiw r24,1
 5316 1d1e 2FEF      		ldi r18,hi8(-1)
 5317 1d20 8F3F      		cpi r24,lo8(-1)
 5318 1d22 9207      		cpc r25,r18
 5319 1d24 01F4      		brne .L411
 5320               	.LBE750:
 5321               	.LBE749:
 5322               	.LM566:
 5323 1d26 8C89      		ldd r24,Y+20
 5324               	.LVL419:
 5325 1d28 9D89      		ldd r25,Y+21
 5326               	.LVL420:
 5327 1d2a 9C01      		movw r18,r24
 5328               	.LVL421:
 5329 1d2c D901      		movw r26,r18
 5330               	.LVL422:
 5331 1d2e FB01      		movw r30,r22
 5332 1d30 2BE0      		ldi r18,lo8(11)
 5333 1d32 30E0      		ldi r19,hi8(11)
 5334               	.LVL423:
 5335 1d34 00C0      		rjmp .L412
 5336               	.L413:
 5337               	.LBB751:
 5338               	.LBB752:
 5339               	.LM567:
 5340 1d36 8D91      		ld r24,X+
 5341 1d38 8193      		st Z+,r24
 5342               	.L412:
 5343 1d3a 2150      		subi r18,lo8(-(-1))
 5344 1d3c 3040      		sbci r19,hi8(-(-1))
 5345 1d3e 8FEF      		ldi r24,hi8(-1)
 5346 1d40 2F3F      		cpi r18,lo8(-1)
 5347 1d42 3807      		cpc r19,r24
 5348 1d44 01F4      		brne .L413
 5349               	.LBE752:
 5350               	.LBE751:
 5351               	.LM568:
 5352 1d46 EC89      		ldd r30,Y+20
 5353 1d48 FD89      		ldd r31,Y+21
 5354               	.LVL424:
 5355 1d4a 8385      		ldd r24,Z+11
 5356 1d4c 8871      		andi r24,lo8(24)
 5357 1d4e FB01      		movw r30,r22
 5358 1d50 8487      		std Z+12,r24
 5359               	.LM569:
 5360 1d52 E881      		ld r30,Y
 5361 1d54 F981      		ldd r31,Y+1
 5362 1d56 81E0      		ldi r24,lo8(1)
 5363 1d58 8483      		std Z+4,r24
 5364               	.LVL425:
 5365               	.L407:
 5366               	.LM570:
 5367 1d5a 842F      		mov r24,r20
 5368               	/* epilogue start */
 5369 1d5c DF91      		pop r29
 5370 1d5e CF91      		pop r28
 5371               	.LVL426:
 5372 1d60 0895      		ret
 5373               	.LVL427:
 5374               	.L408:
 5375               	.LM571:
 5376 1d62 4E85      		ldd r20,Y+14
 5377 1d64 5F85      		ldd r21,Y+15
 5378 1d66 6889      		ldd r22,Y+16
 5379 1d68 7989      		ldd r23,Y+17
 5380 1d6a 8881      		ld r24,Y
 5381 1d6c 9981      		ldd r25,Y+1
 5382               	.LVL428:
 5383 1d6e 0E94 0000 		call move_window
 5384               	.LVL429:
 5385 1d72 482F      		mov r20,r24
 5386               	.LVL430:
 5387               	.LM572:
 5388 1d74 8823      		tst r24
 5389 1d76 01F0      		breq .L414
 5390               	.LVL431:
 5391 1d78 00C0      		rjmp .L407
 5392               	.LFE71:
 5395               	dir_remove:
 5396               	.LFB72:
 5397               	.LM573:
 5398               	.LVL432:
 5399 1d7a CF93      		push r28
 5400 1d7c DF93      		push r29
 5401               	/* prologue: function */
 5402               	/* frame size = 0 */
 5403 1d7e EC01      		movw r28,r24
 5404               	.LM574:
 5405 1d80 6C81      		ldd r22,Y+4
 5406 1d82 7D81      		ldd r23,Y+5
 5407 1d84 0E94 0000 		call dir_seek
 5408               	.LVL433:
 5409 1d88 982F      		mov r25,r24
 5410               	.LVL434:
 5411               	.LM575:
 5412 1d8a 8823      		tst r24
 5413 1d8c 01F4      		brne .L420
 5414               	.LVL435:
 5415               	.LM576:
 5416 1d8e 4E85      		ldd r20,Y+14
 5417 1d90 5F85      		ldd r21,Y+15
 5418 1d92 6889      		ldd r22,Y+16
 5419 1d94 7989      		ldd r23,Y+17
 5420 1d96 8881      		ld r24,Y
 5421 1d98 9981      		ldd r25,Y+1
 5422               	.LVL436:
 5423 1d9a 0E94 0000 		call move_window
 5424               	.LVL437:
 5425 1d9e 982F      		mov r25,r24
 5426               	.LVL438:
 5427               	.LM577:
 5428 1da0 8823      		tst r24
 5429 1da2 01F4      		brne .L420
 5430               	.LVL439:
 5431               	.LM578:
 5432 1da4 EA89      		ldd r30,Y+18
 5433 1da6 FB89      		ldd r31,Y+19
 5434 1da8 85EE      		ldi r24,lo8(-27)
 5435               	.LVL440:
 5436 1daa 8083      		st Z,r24
 5437               	.LM579:
 5438 1dac E881      		ld r30,Y
 5439 1dae F981      		ldd r31,Y+1
 5440 1db0 81E0      		ldi r24,lo8(1)
 5441 1db2 8483      		std Z+4,r24
 5442               	.LVL441:
 5443               	.L420:
 5444               	.LM580:
 5445 1db4 892F      		mov r24,r25
 5446               	/* epilogue start */
 5447 1db6 DF91      		pop r29
 5448 1db8 CF91      		pop r28
 5449               	.LVL442:
 5450 1dba 0895      		ret
 5451               	.LFE72:
 5454               	get_fileinfo:
 5455               	.LFB74:
 5456               	.LM581:
 5457               	.LVL443:
 5458 1dbc EF92      		push r14
 5459 1dbe FF92      		push r15
 5460 1dc0 0F93      		push r16
 5461 1dc2 1F93      		push r17
 5462 1dc4 CF93      		push r28
 5463 1dc6 DF93      		push r29
 5464               	/* prologue: function */
 5465               	/* frame size = 0 */
 5466 1dc8 FC01      		movw r30,r24
 5467 1dca 7B01      		movw r14,r22
 5468               	.LM582:
 5469 1dcc EB01      		movw r28,r22
 5470               	.LVL444:
 5471 1dce 2996      		adiw r28,9
 5472               	.LM583:
 5473 1dd0 8685      		ldd r24,Z+14
 5474 1dd2 9785      		ldd r25,Z+15
 5475 1dd4 A089      		ldd r26,Z+16
 5476 1dd6 B189      		ldd r27,Z+17
 5477               	.LVL445:
 5478 1dd8 0097      		sbiw r24,0
 5479 1dda A105      		cpc r26,__zero_reg__
 5480 1ddc B105      		cpc r27,__zero_reg__
 5481 1dde 01F4      		brne .+2
 5482 1de0 00C0      		rjmp .L423
 5483               	.LM584:
 5484 1de2 6289      		ldd r22,Z+18
 5485 1de4 7389      		ldd r23,Z+19
 5486               	.LVL446:
 5487 1de6 80E0      		ldi r24,lo8(0)
 5488 1de8 90E0      		ldi r25,hi8(0)
 5489               	.LVL447:
 5490               	.L426:
 5491               	.LM585:
 5492 1dea FB01      		movw r30,r22
 5493               	.LVL448:
 5494 1dec E80F      		add r30,r24
 5495 1dee F91F      		adc r31,r25
 5496 1df0 E081      		ld r30,Z
 5497               	.LVL449:
 5498               	.LM586:
 5499 1df2 E032      		cpi r30,lo8(32)
 5500 1df4 01F0      		breq .L424
 5501               	.LM587:
 5502 1df6 E530      		cpi r30,lo8(5)
 5503 1df8 01F4      		brne .L425
 5504 1dfa E5EE      		ldi r30,lo8(-27)
 5505               	.L425:
 5506               	.LM588:
 5507 1dfc E993      		st Y+,r30
 5508               	.LM589:
 5509 1dfe 0196      		adiw r24,1
 5510 1e00 8830      		cpi r24,8
 5511 1e02 9105      		cpc r25,__zero_reg__
 5512 1e04 01F4      		brne .L426
 5513               	.L424:
 5514               	.LM590:
 5515 1e06 DB01      		movw r26,r22
 5516 1e08 1896      		adiw r26,8
 5517 1e0a 8C91      		ld r24,X
 5518               	.LVL450:
 5519 1e0c 8032      		cpi r24,lo8(32)
 5520 1e0e 01F4      		brne .L427
 5521 1e10 8E01      		movw r16,r28
 5522 1e12 00C0      		rjmp .L428
 5523               	.LVL451:
 5524               	.L427:
 5525               	.LM591:
 5526 1e14 8EE2      		ldi r24,lo8(46)
 5527 1e16 FE01      		movw r30,r28
 5528               	.LVL452:
 5529 1e18 8193      		st Z+,r24
 5530 1e1a 8F01      		movw r16,r30
 5531               	.LVL453:
 5532 1e1c FB01      		movw r30,r22
 5533               	.LM592:
 5534 1e1e 9E01      		movw r18,r28
 5535 1e20 2C5F      		subi r18,lo8(-(4))
 5536 1e22 3F4F      		sbci r19,hi8(-(4))
 5537               	.LVL454:
 5538               	.L429:
 5539               	.LM593:
 5540 1e24 8085      		ldd r24,Z+8
 5541               	.LM594:
 5542 1e26 8032      		cpi r24,lo8(32)
 5543 1e28 01F0      		breq .L428
 5544               	.LM595:
 5545 1e2a D801      		movw r26,r16
 5546 1e2c 8D93      		st X+,r24
 5547 1e2e 8D01      		movw r16,r26
 5548 1e30 3196      		adiw r30,1
 5549               	.LM596:
 5550 1e32 A217      		cp r26,r18
 5551 1e34 B307      		cpc r27,r19
 5552 1e36 01F4      		brne .L429
 5553               	.LVL455:
 5554               	.L428:
 5555               	.LM597:
 5556 1e38 FB01      		movw r30,r22
 5557 1e3a 8385      		ldd r24,Z+11
 5558               	.LVL456:
 5559 1e3c D701      		movw r26,r14
 5560 1e3e 1896      		adiw r26,8
 5561 1e40 8C93      		st X,r24
 5562               	.LM598:
 5563 1e42 278D      		ldd r18,Z+31
 5564 1e44 30E0      		ldi r19,lo8(0)
 5565 1e46 40E0      		ldi r20,lo8(0)
 5566 1e48 50E0      		ldi r21,hi8(0)
 5567 1e4a 522F      		mov r21,r18
 5568 1e4c 4427      		clr r20
 5569 1e4e 3327      		clr r19
 5570 1e50 2227      		clr r18
 5571 1e52 868D      		ldd r24,Z+30
 5572 1e54 90E0      		ldi r25,lo8(0)
 5573 1e56 A0E0      		ldi r26,lo8(0)
 5574 1e58 B0E0      		ldi r27,hi8(0)
 5575 1e5a DC01      		movw r26,r24
 5576 1e5c 9927      		clr r25
 5577 1e5e 8827      		clr r24
 5578 1e60 282B      		or r18,r24
 5579 1e62 392B      		or r19,r25
 5580 1e64 4A2B      		or r20,r26
 5581 1e66 5B2B      		or r21,r27
 5582 1e68 848D      		ldd r24,Z+28
 5583 1e6a 90E0      		ldi r25,lo8(0)
 5584 1e6c A0E0      		ldi r26,lo8(0)
 5585 1e6e B0E0      		ldi r27,hi8(0)
 5586 1e70 282B      		or r18,r24
 5587 1e72 392B      		or r19,r25
 5588 1e74 4A2B      		or r20,r26
 5589 1e76 5B2B      		or r21,r27
 5590 1e78 958D      		ldd r25,Z+29
 5591 1e7a 80E0      		ldi r24,lo8(0)
 5592 1e7c A0E0      		ldi r26,lo8(0)
 5593 1e7e B0E0      		ldi r27,hi8(0)
 5594 1e80 282B      		or r18,r24
 5595 1e82 392B      		or r19,r25
 5596 1e84 4A2B      		or r20,r26
 5597 1e86 5B2B      		or r21,r27
 5598 1e88 F701      		movw r30,r14
 5599 1e8a 2083      		st Z,r18
 5600 1e8c 3183      		std Z+1,r19
 5601 1e8e 4283      		std Z+2,r20
 5602 1e90 5383      		std Z+3,r21
 5603               	.LM599:
 5604 1e92 DB01      		movw r26,r22
 5605 1e94 5996      		adiw r26,25
 5606 1e96 9C91      		ld r25,X
 5607 1e98 5997      		sbiw r26,25
 5608 1e9a 80E0      		ldi r24,lo8(0)
 5609 1e9c 5896      		adiw r26,24
 5610 1e9e 2C91      		ld r18,X
 5611 1ea0 5897      		sbiw r26,24
 5612 1ea2 30E0      		ldi r19,lo8(0)
 5613 1ea4 822B      		or r24,r18
 5614 1ea6 932B      		or r25,r19
 5615 1ea8 8483      		std Z+4,r24
 5616 1eaa 9583      		std Z+5,r25
 5617               	.LM600:
 5618 1eac 5796      		adiw r26,23
 5619 1eae 9C91      		ld r25,X
 5620 1eb0 5797      		sbiw r26,23
 5621 1eb2 80E0      		ldi r24,lo8(0)
 5622 1eb4 5696      		adiw r26,22
 5623 1eb6 2C91      		ld r18,X
 5624 1eb8 30E0      		ldi r19,lo8(0)
 5625 1eba 822B      		or r24,r18
 5626 1ebc 932B      		or r25,r19
 5627 1ebe 8683      		std Z+6,r24
 5628 1ec0 9783      		std Z+7,r25
 5629 1ec2 E801      		movw r28,r16
 5630               	.LVL457:
 5631               	.L423:
 5632               	.LM601:
 5633 1ec4 1882      		st Y,__zero_reg__
 5634               	/* epilogue start */
 5635               	.LM602:
 5636 1ec6 DF91      		pop r29
 5637 1ec8 CF91      		pop r28
 5638               	.LVL458:
 5639 1eca 1F91      		pop r17
 5640 1ecc 0F91      		pop r16
 5641               	.LVL459:
 5642 1ece FF90      		pop r15
 5643 1ed0 EF90      		pop r14
 5644               	.LVL460:
 5645 1ed2 0895      		ret
 5646               	.LFE74:
 5648               		.data
 5649               	.LC0:
 5650 0000 2022 2A2B 		.string	" \"*+,[=]|\177"
 5650      2C5B 3D5D 
 5650      7C7F 00
 5651               		.text
 5653               	follow_path:
 5654               	.LFB75:
 5655               	.LM603:
 5656               	.LVL461:
 5657 1ed4 5F92      		push r5
 5658 1ed6 6F92      		push r6
 5659 1ed8 7F92      		push r7
 5660 1eda 8F92      		push r8
 5661 1edc 9F92      		push r9
 5662 1ede AF92      		push r10
 5663 1ee0 BF92      		push r11
 5664 1ee2 CF92      		push r12
 5665 1ee4 DF92      		push r13
 5666 1ee6 EF92      		push r14
 5667 1ee8 FF92      		push r15
 5668 1eea 0F93      		push r16
 5669 1eec 1F93      		push r17
 5670 1eee CF93      		push r28
 5671 1ef0 DF93      		push r29
 5672               	/* prologue: function */
 5673               	/* frame size = 0 */
 5674 1ef2 EC01      		movw r28,r24
 5675 1ef4 7B01      		movw r14,r22
 5676 1ef6 00C0      		rjmp .L434
 5677               	.LVL462:
 5678               	.L435:
 5679               	.LM604:
 5680 1ef8 0894      		sec
 5681 1efa E11C      		adc r14,__zero_reg__
 5682 1efc F11C      		adc r15,__zero_reg__
 5683               	.LVL463:
 5684               	.L434:
 5685 1efe F701      		movw r30,r14
 5686 1f00 8081      		ld r24,Z
 5687 1f02 8032      		cpi r24,lo8(32)
 5688 1f04 01F0      		breq .L435
 5689               	.LM605:
 5690 1f06 8F32      		cpi r24,lo8(47)
 5691 1f08 01F0      		breq .L436
 5692 1f0a 8C35      		cpi r24,lo8(92)
 5693 1f0c 01F4      		brne .L437
 5694               	.L436:
 5695               	.LM606:
 5696 1f0e 0894      		sec
 5697 1f10 E11C      		adc r14,__zero_reg__
 5698 1f12 F11C      		adc r15,__zero_reg__
 5699               	.LVL464:
 5700               	.L437:
 5701               	.LM607:
 5702 1f14 1E82      		std Y+6,__zero_reg__
 5703 1f16 1F82      		std Y+7,__zero_reg__
 5704 1f18 1886      		std Y+8,__zero_reg__
 5705 1f1a 1986      		std Y+9,__zero_reg__
 5706               	.LM608:
 5707 1f1c F701      		movw r30,r14
 5708 1f1e 8081      		ld r24,Z
 5709 1f20 8032      		cpi r24,lo8(32)
 5710 1f22 00F4      		brsh .L438
 5711               	.LM609:
 5712 1f24 CE01      		movw r24,r28
 5713 1f26 60E0      		ldi r22,lo8(0)
 5714 1f28 70E0      		ldi r23,hi8(0)
 5715 1f2a 0E94 0000 		call dir_seek
 5716               	.LM610:
 5717 1f2e 1A8A      		std Y+18,__zero_reg__
 5718 1f30 1B8A      		std Y+19,__zero_reg__
 5719 1f32 00C0      		rjmp .L439
 5720               	.LVL465:
 5721               	.L438:
 5722               	.LBB753:
 5723               	.LBB754:
 5724               	.LBB758:
 5725               	.LBB759:
 5726               	.LM611:
 5727 1f34 00E2      		ldi r16,lo8(32)
 5728               	.LBE759:
 5729               	.LBE758:
 5730               	.LM612:
 5731 1f36 45E0      		ldi r20,lo8(5)
 5732 1f38 542E      		mov r5,r20
 5733               	.LVL466:
 5734               	.L474:
 5735               	.LM613:
 5736 1f3a AC89      		ldd r26,Y+20
 5737 1f3c BD89      		ldd r27,Y+21
 5738               	.LVL467:
 5739 1f3e FD01      		movw r30,r26
 5740               	.LVL468:
 5741 1f40 8BE0      		ldi r24,lo8(11)
 5742 1f42 90E0      		ldi r25,hi8(11)
 5743               	.LVL469:
 5744 1f44 00C0      		rjmp .L440
 5745               	.LVL470:
 5746               	.L441:
 5747               	.LBB757:
 5748               	.LBB760:
 5749               	.LM614:
 5750 1f46 0193      		st Z+,r16
 5751               	.L440:
 5752 1f48 0197      		sbiw r24,1
 5753 1f4a 2FEF      		ldi r18,hi8(-1)
 5754 1f4c 8F3F      		cpi r24,lo8(-1)
 5755 1f4e 9207      		cpc r25,r18
 5756 1f50 01F4      		brne .L441
 5757 1f52 40E0      		ldi r20,lo8(0)
 5758 1f54 50E0      		ldi r21,hi8(0)
 5759               	.LVL471:
 5760 1f56 CC24      		clr r12
 5761 1f58 DD24      		clr r13
 5762 1f5a 38E0      		ldi r19,lo8(8)
 5763 1f5c A32E      		mov r10,r19
 5764 1f5e B12C      		mov r11,__zero_reg__
 5765 1f60 10E0      		ldi r17,lo8(0)
 5766               	.LVL472:
 5767               	.L473:
 5768               	.LBE760:
 5769               	.LBE757:
 5770               	.LM615:
 5771 1f62 F701      		movw r30,r14
 5772 1f64 EC0D      		add r30,r12
 5773 1f66 FD1D      		adc r31,r13
 5774 1f68 2081      		ld r18,Z
 5775 1f6a 0894      		sec
 5776 1f6c C11C      		adc r12,__zero_reg__
 5777 1f6e D11C      		adc r13,__zero_reg__
 5778               	.LM616:
 5779 1f70 2132      		cpi r18,lo8(33)
 5780 1f72 00F4      		brsh .+2
 5781 1f74 00C0      		rjmp .L442
 5782 1f76 2F32      		cpi r18,lo8(47)
 5783 1f78 01F4      		brne .+2
 5784 1f7a 00C0      		rjmp .L443
 5785 1f7c 2C35      		cpi r18,lo8(92)
 5786 1f7e 01F4      		brne .+2
 5787 1f80 00C0      		rjmp .L443
 5788               	.LM617:
 5789 1f82 2E32      		cpi r18,lo8(46)
 5790 1f84 01F0      		breq .L444
 5791 1f86 4A15      		cp r20,r10
 5792 1f88 5B05      		cpc r21,r11
 5793 1f8a 04F0      		brlt .L445
 5794               	.L444:
 5795               	.LM618:
 5796 1f8c 88E0      		ldi r24,lo8(8)
 5797 1f8e A816      		cp r10,r24
 5798 1f90 B104      		cpc r11,__zero_reg__
 5799               	.LVL473:
 5800 1f92 01F0      		breq .+2
 5801 1f94 00C0      		rjmp .L446
 5802 1f96 2E32      		cpi r18,lo8(46)
 5803 1f98 01F0      		breq .+2
 5804 1f9a 00C0      		rjmp .L446
 5805               	.LM619:
 5806 1f9c 110F      		lsl r17
 5807 1f9e 110F      		lsl r17
 5808 1fa0 48E0      		ldi r20,lo8(8)
 5809 1fa2 50E0      		ldi r21,hi8(8)
 5810 1fa4 2BE0      		ldi r18,lo8(11)
 5811 1fa6 A22E      		mov r10,r18
 5812 1fa8 B12C      		mov r11,__zero_reg__
 5813               	.LVL474:
 5814 1faa 00C0      		rjmp .L473
 5815               	.LVL475:
 5816               	.L445:
 5817               	.LM620:
 5818 1fac 27FD      		sbrc r18,7
 5819               	.LM621:
 5820 1fae 1360      		ori r17,lo8(3)
 5821               	.L448:
 5822               	.LM622:
 5823 1fb0 822F      		mov r24,r18
 5824               	.LVL476:
 5825 1fb2 8158      		subi r24,lo8(-(127))
 5826 1fb4 8F31      		cpi r24,lo8(31)
 5827 1fb6 00F0      		brlo .L449
 5828 1fb8 8F55      		subi r24,lo8(-(-95))
 5829 1fba 8D31      		cpi r24,lo8(29)
 5830 1fbc 00F4      		brsh .L450
 5831               	.L449:
 5832               	.LM623:
 5833 1fbe F701      		movw r30,r14
 5834 1fc0 EC0D      		add r30,r12
 5835 1fc2 FD1D      		adc r31,r13
 5836 1fc4 3081      		ld r19,Z
 5837               	.LM624:
 5838 1fc6 832F      		mov r24,r19
 5839 1fc8 8054      		subi r24,lo8(-(-64))
 5840 1fca 8F33      		cpi r24,lo8(63)
 5841 1fcc 00F0      		brlo .L451
 5842 1fce 8054      		subi r24,lo8(-(-64))
 5843 1fd0 8D37      		cpi r24,lo8(125)
 5844 1fd2 00F0      		brlo .+2
 5845 1fd4 00C0      		rjmp .L446
 5846               	.L451:
 5847 1fd6 C501      		movw r24,r10
 5848 1fd8 0197      		sbiw r24,1
 5849 1fda 4817      		cp r20,r24
 5850 1fdc 5907      		cpc r21,r25
 5851 1fde 04F0      		brlt .+2
 5852 1fe0 00C0      		rjmp .L446
 5853               	.LM625:
 5854 1fe2 0894      		sec
 5855 1fe4 C11C      		adc r12,__zero_reg__
 5856 1fe6 D11C      		adc r13,__zero_reg__
 5857               	.LM626:
 5858 1fe8 FD01      		movw r30,r26
 5859 1fea E40F      		add r30,r20
 5860 1fec F51F      		adc r31,r21
 5861 1fee 2083      		st Z,r18
 5862 1ff0 CA01      		movw r24,r20
 5863 1ff2 0196      		adiw r24,1
 5864               	.LVL477:
 5865               	.LM627:
 5866 1ff4 FD01      		movw r30,r26
 5867 1ff6 E80F      		add r30,r24
 5868 1ff8 F91F      		adc r31,r25
 5869 1ffa 3083      		st Z,r19
 5870 1ffc AC01      		movw r20,r24
 5871 1ffe 00C0      		rjmp .L475
 5872               	.LVL478:
 5873               	.L450:
 5874               	.LM628:
 5875 2000 622F      		mov r22,r18
 5876 2002 70E0      		ldi r23,lo8(0)
 5877 2004 E0E0      		ldi r30,lo8(.LC0)
 5878 2006 F0E0      		ldi r31,hi8(.LC0)
 5879               	.LVL479:
 5880 2008 00C0      		rjmp .L452
 5881               	.L454:
 5882               	.LBB755:
 5883               	.LBB756:
 5884               	.LM629:
 5885 200a 3196      		adiw r30,1
 5886               	.L452:
 5887 200c 8081      		ld r24,Z
 5888 200e 8823      		tst r24
 5889 2010 01F0      		breq .L453
 5890 2012 90E0      		ldi r25,lo8(0)
 5891 2014 8617      		cp r24,r22
 5892 2016 9707      		cpc r25,r23
 5893 2018 01F4      		brne .L454
 5894 201a 00C0      		rjmp .L446
 5895               	.L453:
 5896               	.LBE756:
 5897               	.LBE755:
 5898               	.LM630:
 5899 201c 822F      		mov r24,r18
 5900 201e 8154      		subi r24,lo8(-(-65))
 5901 2020 8A31      		cpi r24,lo8(26)
 5902 2022 00F4      		brsh .L455
 5903               	.LM631:
 5904 2024 1260      		ori r17,lo8(2)
 5905 2026 00C0      		rjmp .L456
 5906               	.L455:
 5907               	.LM632:
 5908 2028 822F      		mov r24,r18
 5909 202a 8156      		subi r24,lo8(-(-97))
 5910 202c 8A31      		cpi r24,lo8(26)
 5911 202e 00F4      		brsh .L456
 5912               	.LM633:
 5913 2030 1160      		ori r17,lo8(1)
 5914 2032 2052      		subi r18,lo8(-(-32))
 5915               	.L456:
 5916               	.LM634:
 5917 2034 FD01      		movw r30,r26
 5918               	.LVL480:
 5919 2036 E40F      		add r30,r20
 5920 2038 F51F      		adc r31,r21
 5921 203a 2083      		st Z,r18
 5922               	.LVL481:
 5923               	.L475:
 5924 203c 4F5F      		subi r20,lo8(-(1))
 5925 203e 5F4F      		sbci r21,hi8(-(1))
 5926 2040 00C0      		rjmp .L473
 5927               	.LVL482:
 5928               	.L442:
 5929 2042 912F      		mov r25,r17
 5930 2044 64E0      		ldi r22,lo8(4)
 5931               	.LVL483:
 5932               	.L469:
 5933               	.LM635:
 5934 2046 452B      		or r20,r21
 5935 2048 01F4      		brne .+2
 5936 204a 00C0      		rjmp .L446
 5937               	.LM636:
 5938 204c 8C91      		ld r24,X
 5939               	.LVL484:
 5940 204e 853E      		cpi r24,lo8(-27)
 5941 2050 01F4      		brne .L457
 5942 2052 5C92      		st X,r5
 5943               	.L457:
 5944               	.LM637:
 5945 2054 E8E0      		ldi r30,lo8(8)
 5946 2056 AE16      		cp r10,r30
 5947 2058 B104      		cpc r11,__zero_reg__
 5948 205a 01F4      		brne .L458
 5949 205c 912F      		mov r25,r17
 5950 205e 990F      		lsl r25
 5951 2060 990F      		lsl r25
 5952               	.LVL485:
 5953               	.L458:
 5954               	.LM638:
 5955 2062 292F      		mov r18,r25
 5956 2064 30E0      		ldi r19,lo8(0)
 5957               	.LVL486:
 5958 2066 C901      		movw r24,r18
 5959 2068 8370      		andi r24,lo8(3)
 5960 206a 9070      		andi r25,hi8(3)
 5961 206c 0197      		sbiw r24,1
 5962 206e 01F4      		brne .L459
 5963 2070 6061      		ori r22,lo8(16)
 5964               	.L459:
 5965               	.LM639:
 5966 2072 2C70      		andi r18,lo8(12)
 5967 2074 3070      		andi r19,hi8(12)
 5968 2076 2430      		cpi r18,4
 5969 2078 3105      		cpc r19,__zero_reg__
 5970 207a 01F4      		brne .L460
 5971 207c 6860      		ori r22,lo8(8)
 5972               	.L460:
 5973               	.LM640:
 5974 207e 1B96      		adiw r26,11
 5975 2080 6C93      		st X,r22
 5976               	.LBE754:
 5977               	.LBE753:
 5978               	.LBB762:
 5979               	.LM641:
 5980 2082 CE01      		movw r24,r28
 5981 2084 60E0      		ldi r22,lo8(0)
 5982 2086 70E0      		ldi r23,hi8(0)
 5983               	.LVL487:
 5984 2088 0E94 0000 		call dir_seek
 5985               	.LVL488:
 5986               	.L476:
 5987 208c 482F      		mov r20,r24
 5988               	.LVL489:
 5989               	.LBB763:
 5990               	.LM642:
 5991 208e 8823      		tst r24
 5992 2090 01F4      		brne .L461
 5993               	.LVL490:
 5994               	.LBE763:
 5995               	.LM643:
 5996 2092 4E85      		ldd r20,Y+14
 5997 2094 5F85      		ldd r21,Y+15
 5998 2096 6889      		ldd r22,Y+16
 5999 2098 7989      		ldd r23,Y+17
 6000 209a 8881      		ld r24,Y
 6001 209c 9981      		ldd r25,Y+1
 6002               	.LVL491:
 6003 209e 0E94 0000 		call move_window
 6004 20a2 482F      		mov r20,r24
 6005               	.LVL492:
 6006               	.LBB766:
 6007               	.LM644:
 6008 20a4 8823      		tst r24
 6009 20a6 01F4      		brne .L461
 6010               	.LVL493:
 6011               	.LM645:
 6012 20a8 EA89      		ldd r30,Y+18
 6013 20aa FB89      		ldd r31,Y+19
 6014               	.LVL494:
 6015               	.LM646:
 6016 20ac 8081      		ld r24,Z
 6017               	.LVL495:
 6018 20ae 8823      		tst r24
 6019 20b0 01F4      		brne .L462
 6020 20b2 44E0      		ldi r20,lo8(4)
 6021 20b4 00C0      		rjmp .L461
 6022               	.L462:
 6023               	.LM647:
 6024 20b6 8385      		ldd r24,Z+11
 6025 20b8 83FD      		sbrc r24,3
 6026 20ba 00C0      		rjmp .L463
 6027 20bc DF01      		movw r26,r30
 6028               	.LVL496:
 6029 20be 8C89      		ldd r24,Y+20
 6030               	.LVL497:
 6031 20c0 9D89      		ldd r25,Y+21
 6032               	.LVL498:
 6033 20c2 9C01      		movw r18,r24
 6034               	.LVL499:
 6035 20c4 F901      		movw r30,r18
 6036               	.LVL500:
 6037 20c6 2BE0      		ldi r18,lo8(11)
 6038 20c8 30E0      		ldi r19,hi8(11)
 6039               	.LVL501:
 6040               	.L464:
 6041               	.LBB764:
 6042               	.LBB765:
 6043               	.LM648:
 6044 20ca 2150      		subi r18,lo8(-(-1))
 6045 20cc 3040      		sbci r19,hi8(-(-1))
 6046 20ce 8FEF      		ldi r24,hi8(-1)
 6047 20d0 2F3F      		cpi r18,lo8(-1)
 6048 20d2 3807      		cpc r19,r24
 6049 20d4 01F0      		breq .L461
 6050 20d6 9C91      		ld r25,X
 6051               	.LVL502:
 6052 20d8 8081      		ld r24,Z
 6053 20da 9817      		cp r25,r24
 6054 20dc 01F4      		brne .L463
 6055 20de 1196      		adiw r26,1
 6056 20e0 3196      		adiw r30,1
 6057 20e2 00C0      		rjmp .L464
 6058               	.LVL503:
 6059               	.L463:
 6060               	.LBE765:
 6061               	.LBE764:
 6062               	.LBE766:
 6063               	.LM649:
 6064 20e4 CE01      		movw r24,r28
 6065 20e6 60E0      		ldi r22,lo8(0)
 6066 20e8 0E94 0000 		call dir_next
 6067               	.LVL504:
 6068 20ec 00C0      		rjmp .L476
 6069               	.LVL505:
 6070               	.L461:
 6071               	.LBE762:
 6072               	.LM650:
 6073 20ee EC89      		ldd r30,Y+20
 6074 20f0 FD89      		ldd r31,Y+21
 6075               	.LVL506:
 6076 20f2 9385      		ldd r25,Z+11
 6077               	.LVL507:
 6078 20f4 9470      		andi r25,lo8(4)
 6079               	.LM651:
 6080 20f6 4423      		tst r20
 6081 20f8 01F0      		breq .L466
 6082 20fa 842F      		mov r24,r20
 6083               	.LM652:
 6084 20fc 4430      		cpi r20,lo8(4)
 6085 20fe 01F4      		brne .L467
 6086 2100 9923      		tst r25
 6087 2102 01F0      		breq .L468
 6088 2104 00C0      		rjmp .L439
 6089               	.L466:
 6090               	.LM653:
 6091 2106 9923      		tst r25
 6092 2108 01F4      		brne .L467
 6093               	.LM654:
 6094 210a EA89      		ldd r30,Y+18
 6095 210c FB89      		ldd r31,Y+19
 6096               	.LVL508:
 6097               	.LM655:
 6098 210e 8385      		ldd r24,Z+11
 6099 2110 84FF      		sbrs r24,4
 6100 2112 00C0      		rjmp .L468
 6101               	.LBB767:
 6102               	.LBB761:
 6103               	.LM656:
 6104 2114 EC0C      		add r14,r12
 6105 2116 FD1C      		adc r15,r13
 6106               	.LBE761:
 6107               	.LBE767:
 6108               	.LM657:
 6109 2118 7588      		ldd r7,Z+21
 6110 211a 6624      		clr r6
 6111 211c 2489      		ldd r18,Z+20
 6112               	.LVL509:
 6113 211e 30E0      		ldi r19,lo8(0)
 6114 2120 2629      		or r18,r6
 6115 2122 3729      		or r19,r7
 6116 2124 40E0      		ldi r20,lo8(0)
 6117 2126 50E0      		ldi r21,hi8(0)
 6118               	.LVL510:
 6119 2128 A901      		movw r20,r18
 6120 212a 3327      		clr r19
 6121 212c 2227      		clr r18
 6122               	.LVL511:
 6123 212e 938C      		ldd r9,Z+27
 6124 2130 8824      		clr r8
 6125 2132 828D      		ldd r24,Z+26
 6126 2134 90E0      		ldi r25,lo8(0)
 6127 2136 8829      		or r24,r8
 6128 2138 9929      		or r25,r9
 6129 213a A0E0      		ldi r26,lo8(0)
 6130 213c B0E0      		ldi r27,hi8(0)
 6131               	.LVL512:
 6132 213e 282B      		or r18,r24
 6133 2140 392B      		or r19,r25
 6134 2142 4A2B      		or r20,r26
 6135 2144 5B2B      		or r21,r27
 6136 2146 2E83      		std Y+6,r18
 6137 2148 3F83      		std Y+7,r19
 6138 214a 4887      		std Y+8,r20
 6139 214c 5987      		std Y+9,r21
 6140 214e 00C0      		rjmp .L474
 6141               	.LVL513:
 6142               	.L446:
 6143               	.LM658:
 6144 2150 86E0      		ldi r24,lo8(6)
 6145               	.LVL514:
 6146 2152 00C0      		rjmp .L439
 6147               	.LVL515:
 6148               	.L467:
 6149 2154 842F      		mov r24,r20
 6150 2156 00C0      		rjmp .L439
 6151               	.LVL516:
 6152               	.L468:
 6153 2158 85E0      		ldi r24,lo8(5)
 6154               	.LVL517:
 6155               	.L439:
 6156               	.LVL518:
 6157               	/* epilogue start */
 6158               	.LM659:
 6159 215a DF91      		pop r29
 6160 215c CF91      		pop r28
 6161               	.LVL519:
 6162 215e 1F91      		pop r17
 6163               	.LVL520:
 6164 2160 0F91      		pop r16
 6165 2162 FF90      		pop r15
 6166 2164 EF90      		pop r14
 6167               	.LVL521:
 6168 2166 DF90      		pop r13
 6169 2168 CF90      		pop r12
 6170               	.LVL522:
 6171 216a BF90      		pop r11
 6172 216c AF90      		pop r10
 6173               	.LVL523:
 6174 216e 9F90      		pop r9
 6175 2170 8F90      		pop r8
 6176 2172 7F90      		pop r7
 6177 2174 6F90      		pop r6
 6178 2176 5F90      		pop r5
 6179 2178 0895      		ret
 6180               	.LVL524:
 6181               	.L443:
 6182               	.LM660:
 6183 217a 912F      		mov r25,r17
 6184 217c 60E0      		ldi r22,lo8(0)
 6185               	.LVL525:
 6186 217e 00C0      		rjmp .L469
 6187               	.LFE75:
 6190               	check_fs:
 6191               	.LFB76:
 6192               	.LM661:
 6193               	.LVL526:
 6194 2180 0F93      		push r16
 6195 2182 CF93      		push r28
 6196 2184 DF93      		push r29
 6197               	/* prologue: function */
 6198               	/* frame size = 0 */
 6199 2186 EC01      		movw r28,r24
 6200 2188 9A01      		movw r18,r20
 6201 218a AB01      		movw r20,r22
 6202               	.LM662:
 6203 218c BC01      		movw r22,r24
 6204 218e 625D      		subi r22,lo8(-(46))
 6205 2190 7F4F      		sbci r23,hi8(-(46))
 6206 2192 8981      		ldd r24,Y+1
 6207               	.LVL527:
 6208 2194 01E0      		ldi r16,lo8(1)
 6209 2196 0E94 0000 		call disk_read
 6210               	.LVL528:
 6211 219a 8823      		tst r24
 6212 219c 01F0      		breq .L478
 6213 219e 63E0      		ldi r22,lo8(3)
 6214 21a0 00C0      		rjmp .L479
 6215               	.L478:
 6216               	.LM663:
 6217 21a2 C35D      		subi r28,lo8(-(557))
 6218 21a4 DD4F      		sbci r29,hi8(-(557))
 6219 21a6 9881      		ld r25,Y
 6220 21a8 80E0      		ldi r24,lo8(0)
 6221 21aa 2A91      		ld r18,-Y
 6222 21ac CC52      		subi r28,lo8(-(-556))
 6223 21ae D240      		sbci r29,hi8(-(-556))
 6224 21b0 30E0      		ldi r19,lo8(0)
 6225 21b2 822B      		or r24,r18
 6226 21b4 932B      		or r25,r19
 6227 21b6 8555      		subi r24,lo8(-21931)
 6228 21b8 9A4A      		sbci r25,hi8(-21931)
 6229 21ba 01F0      		breq .L480
 6230 21bc 62E0      		ldi r22,lo8(2)
 6231 21be 00C0      		rjmp .L479
 6232               	.L480:
 6233               	.LM664:
 6234 21c0 C959      		subi r28,lo8(-(103))
 6235 21c2 DF4F      		sbci r29,hi8(-(103))
 6236 21c4 2881      		ld r18,Y
 6237 21c6 30E0      		ldi r19,lo8(0)
 6238 21c8 40E0      		ldi r20,lo8(0)
 6239 21ca 50E0      		ldi r21,hi8(0)
 6240 21cc 522F      		mov r21,r18
 6241 21ce 4427      		clr r20
 6242 21d0 3327      		clr r19
 6243 21d2 2227      		clr r18
 6244 21d4 8A91      		ld r24,-Y
 6245 21d6 90E0      		ldi r25,lo8(0)
 6246 21d8 A0E0      		ldi r26,lo8(0)
 6247 21da B0E0      		ldi r27,hi8(0)
 6248 21dc DC01      		movw r26,r24
 6249 21de 9927      		clr r25
 6250 21e0 8827      		clr r24
 6251 21e2 282B      		or r18,r24
 6252 21e4 392B      		or r19,r25
 6253 21e6 4A2B      		or r20,r26
 6254 21e8 5B2B      		or r21,r27
 6255 21ea 2297      		sbiw r28,2
 6256 21ec 8991      		ld r24,Y+
 6257 21ee 90E0      		ldi r25,lo8(0)
 6258 21f0 A0E0      		ldi r26,lo8(0)
 6259 21f2 B0E0      		ldi r27,hi8(0)
 6260 21f4 282B      		or r18,r24
 6261 21f6 392B      		or r19,r25
 6262 21f8 4A2B      		or r20,r26
 6263 21fa 5B2B      		or r21,r27
 6264 21fc 9881      		ld r25,Y
 6265 21fe C556      		subi r28,lo8(-(-101))
 6266 2200 D040      		sbci r29,hi8(-(-101))
 6267 2202 80E0      		ldi r24,lo8(0)
 6268 2204 A0E0      		ldi r26,lo8(0)
 6269 2206 B0E0      		ldi r27,hi8(0)
 6270 2208 282B      		or r18,r24
 6271 220a 392B      		or r19,r25
 6272 220c 4A2B      		or r20,r26
 6273 220e 5B2B      		or r21,r27
 6274 2210 5070      		andi r21,hhi8(16777215)
 6275 2212 2654      		subi r18,lo8(5521734)
 6276 2214 3144      		sbci r19,hi8(5521734)
 6277 2216 4445      		sbci r20,hlo8(5521734)
 6278 2218 5040      		sbci r21,hhi8(5521734)
 6279 221a 01F4      		brne .L481
 6280 221c 60E0      		ldi r22,lo8(0)
 6281 221e 00C0      		rjmp .L479
 6282               	.L481:
 6283 2220 60E0      		ldi r22,lo8(0)
 6284 2222 CD57      		subi r28,lo8(-(131))
 6285 2224 DF4F      		sbci r29,hi8(-(131))
 6286 2226 2881      		ld r18,Y
 6287 2228 30E0      		ldi r19,lo8(0)
 6288 222a 40E0      		ldi r20,lo8(0)
 6289 222c 50E0      		ldi r21,hi8(0)
 6290 222e 522F      		mov r21,r18
 6291 2230 4427      		clr r20
 6292 2232 3327      		clr r19
 6293 2234 2227      		clr r18
 6294 2236 8A91      		ld r24,-Y
 6295 2238 90E0      		ldi r25,lo8(0)
 6296 223a A0E0      		ldi r26,lo8(0)
 6297 223c B0E0      		ldi r27,hi8(0)
 6298 223e DC01      		movw r26,r24
 6299 2240 9927      		clr r25
 6300 2242 8827      		clr r24
 6301 2244 282B      		or r18,r24
 6302 2246 392B      		or r19,r25
 6303 2248 4A2B      		or r20,r26
 6304 224a 5B2B      		or r21,r27
 6305 224c 2297      		sbiw r28,2
 6306 224e 8991      		ld r24,Y+
 6307 2250 90E0      		ldi r25,lo8(0)
 6308 2252 A0E0      		ldi r26,lo8(0)
 6309 2254 B0E0      		ldi r27,hi8(0)
 6310 2256 282B      		or r18,r24
 6311 2258 392B      		or r19,r25
 6312 225a 4A2B      		or r20,r26
 6313 225c 5B2B      		or r21,r27
 6314 225e 9881      		ld r25,Y
 6315               	.LVL529:
 6316 2260 80E0      		ldi r24,lo8(0)
 6317 2262 A0E0      		ldi r26,lo8(0)
 6318 2264 B0E0      		ldi r27,hi8(0)
 6319 2266 282B      		or r18,r24
 6320 2268 392B      		or r19,r25
 6321 226a 4A2B      		or r20,r26
 6322 226c 5B2B      		or r21,r27
 6323 226e 5070      		andi r21,hhi8(16777215)
 6324 2270 2654      		subi r18,lo8(5521734)
 6325 2272 3144      		sbci r19,hi8(5521734)
 6326 2274 4445      		sbci r20,hlo8(5521734)
 6327 2276 5040      		sbci r21,hhi8(5521734)
 6328 2278 01F0      		breq .L479
 6329 227a 61E0      		ldi r22,lo8(1)
 6330               	.LVL530:
 6331               	.L479:
 6332               	.LM665:
 6333 227c 862F      		mov r24,r22
 6334               	/* epilogue start */
 6335 227e DF91      		pop r29
 6336 2280 CF91      		pop r28
 6337               	.LVL531:
 6338 2282 0F91      		pop r16
 6339 2284 0895      		ret
 6340               	.LFE76:
 6342               	.global	chk_mounted
 6344               	chk_mounted:
 6345               	.LFB77:
 6346               	.LM666:
 6347               	.LVL532:
 6348 2286 6F92      		push r6
 6349 2288 7F92      		push r7
 6350 228a 8F92      		push r8
 6351 228c 9F92      		push r9
 6352 228e AF92      		push r10
 6353 2290 BF92      		push r11
 6354 2292 CF92      		push r12
 6355 2294 DF92      		push r13
 6356 2296 EF92      		push r14
 6357 2298 FF92      		push r15
 6358 229a 0F93      		push r16
 6359 229c 1F93      		push r17
 6360 229e CF93      		push r28
 6361 22a0 DF93      		push r29
 6362               	/* prologue: function */
 6363               	/* frame size = 0 */
 6364 22a2 DC01      		movw r26,r24
 6365 22a4 142F      		mov r17,r20
 6366               	.LM667:
 6367 22a6 ED91      		ld r30,X+
 6368 22a8 FC91      		ld r31,X
 6369 22aa 1197      		sbiw r26,1
 6370               	.LVL533:
 6371               	.LM668:
 6372 22ac 8081      		ld r24,Z
 6373               	.LVL534:
 6374 22ae 282F      		mov r18,r24
 6375               	.LVL535:
 6376 22b0 30E0      		ldi r19,lo8(0)
 6377               	.LVL536:
 6378 22b2 2053      		subi r18,lo8(-(-48))
 6379 22b4 3040      		sbci r19,hi8(-(-48))
 6380               	.LVL537:
 6381               	.LM669:
 6382 22b6 2A30      		cpi r18,10
 6383 22b8 3105      		cpc r19,__zero_reg__
 6384 22ba 00F4      		brsh .L485
 6385               	.LVL538:
 6386 22bc 8181      		ldd r24,Z+1
 6387 22be 8A33      		cpi r24,lo8(58)
 6388 22c0 01F4      		brne .L485
 6389               	.LM670:
 6390 22c2 3296      		adiw r30,2
 6391 22c4 ED93      		st X+,r30
 6392 22c6 FC93      		st X,r31
 6393               	.LM671:
 6394 22c8 232B      		or r18,r19
 6395 22ca 01F0      		breq .L485
 6396 22cc 8BE0      		ldi r24,lo8(11)
 6397 22ce 00C0      		rjmp .L486
 6398               	.L485:
 6399               	.LM672:
 6400 22d0 C091 0000 		lds r28,FatFs
 6401 22d4 D091 0000 		lds r29,(FatFs)+1
 6402               	.LVL539:
 6403 22d8 FB01      		movw r30,r22
 6404               	.LVL540:
 6405 22da C083      		st Z,r28
 6406 22dc D183      		std Z+1,r29
 6407               	.LM673:
 6408 22de 2097      		sbiw r28,0
 6409 22e0 01F4      		brne .L487
 6410 22e2 8CE0      		ldi r24,lo8(12)
 6411 22e4 00C0      		rjmp .L486
 6412               	.L487:
 6413               	.LM674:
 6414 22e6 8881      		ld r24,Y
 6415 22e8 8823      		tst r24
 6416 22ea 01F0      		breq .L488
 6417               	.LBB768:
 6418               	.LBB769:
 6419               	.LM675:
 6420 22ec 8981      		ldd r24,Y+1
 6421 22ee 8823      		tst r24
 6422 22f0 01F0      		breq .L489
 6423 22f2 81E0      		ldi r24,lo8(1)
 6424               	.LVL541:
 6425 22f4 00C0      		rjmp .L490
 6426               	.LVL542:
 6427               	.L489:
 6428               	.LM676:
 6429 22f6 8091 0000 		lds r24,Stat
 6430               	.LVL543:
 6431               	.L490:
 6432               	.LBE769:
 6433               	.LBE768:
 6434               	.LM677:
 6435 22fa 80FD      		sbrc r24,0
 6436 22fc 00C0      		rjmp .L488
 6437               	.LVL544:
 6438               	.LM678:
 6439 22fe 1123      		tst r17
 6440 2300 01F4      		brne .+2
 6441 2302 00C0      		rjmp .L491
 6442 2304 82FD      		sbrc r24,2
 6443 2306 00C0      		rjmp .L492
 6444 2308 00C0      		rjmp .L491
 6445               	.L488:
 6446               	.LM679:
 6447 230a 1882      		st Y,__zero_reg__
 6448               	.LM680:
 6449 230c 1982      		std Y+1,__zero_reg__
 6450               	.LM681:
 6451 230e 80E0      		ldi r24,lo8(0)
 6452 2310 0E94 0000 		call disk_initialize
 6453               	.LVL545:
 6454               	.LM682:
 6455 2314 80FF      		sbrs r24,0
 6456 2316 00C0      		rjmp .L493
 6457 2318 83E0      		ldi r24,lo8(3)
 6458 231a 00C0      		rjmp .L486
 6459               	.L493:
 6460               	.LM683:
 6461 231c 1123      		tst r17
 6462 231e 01F0      		breq .L494
 6463 2320 82FD      		sbrc r24,2
 6464 2322 00C0      		rjmp .L492
 6465               	.L494:
 6466               	.LM684:
 6467 2324 CE01      		movw r24,r28
 6468 2326 40E0      		ldi r20,lo8(0)
 6469 2328 50E0      		ldi r21,hi8(0)
 6470 232a 60E0      		ldi r22,hlo8(0)
 6471 232c 70E0      		ldi r23,hhi8(0)
 6472 232e 0E94 0000 		call check_fs
 6473               	.LM685:
 6474 2332 8130      		cpi r24,lo8(1)
 6475               	.LVL546:
 6476 2334 01F0      		breq .L495
 6477 2336 AA24      		clr r10
 6478 2338 BB24      		clr r11
 6479 233a 6501      		movw r12,r10
 6480               	.LVL547:
 6481 233c 00C0      		rjmp .L496
 6482               	.LVL548:
 6483               	.L495:
 6484               	.LM686:
 6485 233e FE01      		movw r30,r28
 6486               	.LVL549:
 6487 2340 E451      		subi r30,lo8(-(492))
 6488 2342 FE4F      		sbci r31,hi8(-(492))
 6489               	.LM687:
 6490 2344 8481      		ldd r24,Z+4
 6491               	.LVL550:
 6492 2346 8823      		tst r24
 6493 2348 01F4      		brne .+2
 6494 234a 00C0      		rjmp .L497
 6495               	.LM688:
 6496 234c 8385      		ldd r24,Z+11
 6497 234e 90E0      		ldi r25,lo8(0)
 6498 2350 A0E0      		ldi r26,lo8(0)
 6499 2352 B0E0      		ldi r27,hi8(0)
 6500 2354 D82E      		mov r13,r24
 6501 2356 CC24      		clr r12
 6502 2358 BB24      		clr r11
 6503 235a AA24      		clr r10
 6504               	.LVL551:
 6505 235c 8285      		ldd r24,Z+10
 6506 235e 90E0      		ldi r25,lo8(0)
 6507 2360 A0E0      		ldi r26,lo8(0)
 6508 2362 B0E0      		ldi r27,hi8(0)
 6509 2364 DC01      		movw r26,r24
 6510 2366 9927      		clr r25
 6511 2368 8827      		clr r24
 6512 236a A82A      		or r10,r24
 6513 236c B92A      		or r11,r25
 6514 236e CA2A      		or r12,r26
 6515 2370 DB2A      		or r13,r27
 6516 2372 8085      		ldd r24,Z+8
 6517 2374 90E0      		ldi r25,lo8(0)
 6518 2376 A0E0      		ldi r26,lo8(0)
 6519 2378 B0E0      		ldi r27,hi8(0)
 6520 237a A82A      		or r10,r24
 6521 237c B92A      		or r11,r25
 6522 237e CA2A      		or r12,r26
 6523 2380 DB2A      		or r13,r27
 6524 2382 9185      		ldd r25,Z+9
 6525 2384 80E0      		ldi r24,lo8(0)
 6526 2386 A0E0      		ldi r26,lo8(0)
 6527 2388 B0E0      		ldi r27,hi8(0)
 6528 238a A82A      		or r10,r24
 6529 238c B92A      		or r11,r25
 6530 238e CA2A      		or r12,r26
 6531 2390 DB2A      		or r13,r27
 6532               	.LM689:
 6533 2392 CE01      		movw r24,r28
 6534 2394 B601      		movw r22,r12
 6535 2396 A501      		movw r20,r10
 6536 2398 0E94 0000 		call check_fs
 6537               	.LVL552:
 6538               	.L496:
 6539               	.LM690:
 6540 239c 8330      		cpi r24,lo8(3)
 6541 239e 01F4      		brne .L498
 6542 23a0 81E0      		ldi r24,lo8(1)
 6543               	.LVL553:
 6544 23a2 00C0      		rjmp .L486
 6545               	.LVL554:
 6546               	.L498:
 6547               	.LM691:
 6548 23a4 8823      		tst r24
 6549 23a6 01F0      		breq .+2
 6550 23a8 00C0      		rjmp .L497
 6551 23aa 9AAD      		ldd r25,Y+58
 6552 23ac 80E0      		ldi r24,lo8(0)
 6553               	.LVL555:
 6554 23ae 29AD      		ldd r18,Y+57
 6555 23b0 30E0      		ldi r19,lo8(0)
 6556 23b2 822B      		or r24,r18
 6557 23b4 932B      		or r25,r19
 6558 23b6 8050      		subi r24,lo8(512)
 6559 23b8 9240      		sbci r25,hi8(512)
 6560 23ba 01F0      		breq .+2
 6561 23bc 00C0      		rjmp .L497
 6562               	.LM692:
 6563 23be CB5B      		subi r28,lo8(-(69))
 6564 23c0 DF4F      		sbci r29,hi8(-(69))
 6565 23c2 9881      		ld r25,Y
 6566 23c4 80E0      		ldi r24,lo8(0)
 6567 23c6 2A91      		ld r18,-Y
 6568 23c8 C454      		subi r28,lo8(-(-68))
 6569 23ca D040      		sbci r29,hi8(-(-68))
 6570 23cc 30E0      		ldi r19,lo8(0)
 6571 23ce 822B      		or r24,r18
 6572 23d0 932B      		or r25,r19
 6573 23d2 7C01      		movw r14,r24
 6574               	.LVL556:
 6575 23d4 00E0      		ldi r16,lo8(0)
 6576 23d6 10E0      		ldi r17,hi8(0)
 6577               	.LVL557:
 6578               	.LM693:
 6579 23d8 E114      		cp r14,__zero_reg__
 6580 23da F104      		cpc r15,__zero_reg__
 6581 23dc 0105      		cpc r16,__zero_reg__
 6582 23de 1105      		cpc r17,__zero_reg__
 6583 23e0 01F4      		brne .L499
 6584 23e2 CB5A      		subi r28,lo8(-(85))
 6585 23e4 DF4F      		sbci r29,hi8(-(85))
 6586 23e6 8881      		ld r24,Y
 6587 23e8 90E0      		ldi r25,lo8(0)
 6588 23ea A0E0      		ldi r26,lo8(0)
 6589 23ec B0E0      		ldi r27,hi8(0)
 6590 23ee 182F      		mov r17,r24
 6591 23f0 0027      		clr r16
 6592 23f2 FF24      		clr r15
 6593 23f4 EE24      		clr r14
 6594               	.LVL558:
 6595 23f6 8A91      		ld r24,-Y
 6596 23f8 90E0      		ldi r25,lo8(0)
 6597 23fa A0E0      		ldi r26,lo8(0)
 6598 23fc B0E0      		ldi r27,hi8(0)
 6599 23fe DC01      		movw r26,r24
 6600 2400 9927      		clr r25
 6601 2402 8827      		clr r24
 6602 2404 E82A      		or r14,r24
 6603 2406 F92A      		or r15,r25
 6604 2408 0A2B      		or r16,r26
 6605 240a 1B2B      		or r17,r27
 6606 240c 2297      		sbiw r28,2
 6607 240e 8991      		ld r24,Y+
 6608 2410 90E0      		ldi r25,lo8(0)
 6609 2412 A0E0      		ldi r26,lo8(0)
 6610 2414 B0E0      		ldi r27,hi8(0)
 6611 2416 E82A      		or r14,r24
 6612 2418 F92A      		or r15,r25
 6613 241a 0A2B      		or r16,r26
 6614 241c 1B2B      		or r17,r27
 6615 241e 9881      		ld r25,Y
 6616 2420 C355      		subi r28,lo8(-(-83))
 6617 2422 D040      		sbci r29,hi8(-(-83))
 6618 2424 80E0      		ldi r24,lo8(0)
 6619 2426 A0E0      		ldi r26,lo8(0)
 6620 2428 B0E0      		ldi r27,hi8(0)
 6621 242a E82A      		or r14,r24
 6622 242c F92A      		or r15,r25
 6623 242e 0A2B      		or r16,r26
 6624 2430 1B2B      		or r17,r27
 6625               	.L499:
 6626               	.LM694:
 6627 2432 EE8A      		std Y+22,r14
 6628 2434 FF8A      		std Y+23,r15
 6629 2436 088F      		std Y+24,r16
 6630 2438 198F      		std Y+25,r17
 6631               	.LM695:
 6632 243a 2EAD      		ldd r18,Y+62
 6633 243c 2B83      		std Y+3,r18
 6634               	.LM696:
 6635 243e 30E0      		ldi r19,lo8(0)
 6636 2440 40E0      		ldi r20,lo8(0)
 6637 2442 50E0      		ldi r21,hi8(0)
 6638 2444 C801      		movw r24,r16
 6639 2446 B701      		movw r22,r14
 6640 2448 0E94 0000 		call __mulsi3
 6641 244c 3B01      		movw r6,r22
 6642 244e 4C01      		movw r8,r24
 6643               	.LVL559:
 6644               	.LM697:
 6645 2450 9DAD      		ldd r25,Y+61
 6646 2452 80E0      		ldi r24,lo8(0)
 6647 2454 2CAD      		ldd r18,Y+60
 6648 2456 30E0      		ldi r19,lo8(0)
 6649 2458 822B      		or r24,r18
 6650 245a 932B      		or r25,r19
 6651 245c A0E0      		ldi r26,lo8(0)
 6652 245e B0E0      		ldi r27,hi8(0)
 6653 2460 8A0D      		add r24,r10
 6654 2462 9B1D      		adc r25,r11
 6655 2464 AC1D      		adc r26,r12
 6656 2466 BD1D      		adc r27,r13
 6657 2468 8E8F      		std Y+30,r24
 6658 246a 9F8F      		std Y+31,r25
 6659 246c A8A3      		std Y+32,r26
 6660 246e B9A3      		std Y+33,r27
 6661               	.LM698:
 6662 2470 8BAD      		ldd r24,Y+59
 6663 2472 8A83      		std Y+2,r24
 6664               	.LM699:
 6665 2474 C05C      		subi r28,lo8(-(64))
 6666 2476 DF4F      		sbci r29,hi8(-(64))
 6667 2478 9881      		ld r25,Y
 6668 247a C054      		subi r28,lo8(-(-64))
 6669 247c D040      		sbci r29,hi8(-(-64))
 6670 247e 80E0      		ldi r24,lo8(0)
 6671 2480 2FAD      		ldd r18,Y+63
 6672 2482 422F      		mov r20,r18
 6673 2484 50E0      		ldi r21,lo8(0)
 6674 2486 482B      		or r20,r24
 6675 2488 592B      		or r21,r25
 6676 248a 4887      		std Y+8,r20
 6677 248c 5987      		std Y+9,r21
 6678               	.LM700:
 6679 248e CE5B      		subi r28,lo8(-(66))
 6680 2490 DF4F      		sbci r29,hi8(-(66))
 6681 2492 9881      		ld r25,Y
 6682 2494 80E0      		ldi r24,lo8(0)
 6683 2496 2A91      		ld r18,-Y
 6684 2498 C154      		subi r28,lo8(-(-65))
 6685 249a D040      		sbci r29,hi8(-(-65))
 6686 249c 30E0      		ldi r19,lo8(0)
 6687 249e 822B      		or r24,r18
 6688 24a0 932B      		or r25,r19
 6689 24a2 7C01      		movw r14,r24
 6690               	.LVL560:
 6691 24a4 00E0      		ldi r16,lo8(0)
 6692 24a6 10E0      		ldi r17,hi8(0)
 6693               	.LVL561:
 6694               	.LM701:
 6695 24a8 E114      		cp r14,__zero_reg__
 6696 24aa F104      		cpc r15,__zero_reg__
 6697 24ac 0105      		cpc r16,__zero_reg__
 6698 24ae 1105      		cpc r17,__zero_reg__
 6699 24b0 01F4      		brne .L500
 6700 24b2 CF5A      		subi r28,lo8(-(81))
 6701 24b4 DF4F      		sbci r29,hi8(-(81))
 6702 24b6 8881      		ld r24,Y
 6703 24b8 90E0      		ldi r25,lo8(0)
 6704 24ba A0E0      		ldi r26,lo8(0)
 6705 24bc B0E0      		ldi r27,hi8(0)
 6706 24be 182F      		mov r17,r24
 6707 24c0 0027      		clr r16
 6708 24c2 FF24      		clr r15
 6709 24c4 EE24      		clr r14
 6710               	.LVL562:
 6711 24c6 8A91      		ld r24,-Y
 6712 24c8 90E0      		ldi r25,lo8(0)
 6713 24ca A0E0      		ldi r26,lo8(0)
 6714 24cc B0E0      		ldi r27,hi8(0)
 6715 24ce DC01      		movw r26,r24
 6716 24d0 9927      		clr r25
 6717 24d2 8827      		clr r24
 6718 24d4 E82A      		or r14,r24
 6719 24d6 F92A      		or r15,r25
 6720 24d8 0A2B      		or r16,r26
 6721 24da 1B2B      		or r17,r27
 6722 24dc 2297      		sbiw r28,2
 6723 24de 8991      		ld r24,Y+
 6724 24e0 90E0      		ldi r25,lo8(0)
 6725 24e2 A0E0      		ldi r26,lo8(0)
 6726 24e4 B0E0      		ldi r27,hi8(0)
 6727 24e6 E82A      		or r14,r24
 6728 24e8 F92A      		or r15,r25
 6729 24ea 0A2B      		or r16,r26
 6730 24ec 1B2B      		or r17,r27
 6731 24ee 9881      		ld r25,Y
 6732 24f0 CF54      		subi r28,lo8(-(-79))
 6733 24f2 D040      		sbci r29,hi8(-(-79))
 6734 24f4 80E0      		ldi r24,lo8(0)
 6735 24f6 A0E0      		ldi r26,lo8(0)
 6736 24f8 B0E0      		ldi r27,hi8(0)
 6737 24fa E82A      		or r14,r24
 6738 24fc F92A      		or r15,r25
 6739 24fe 0A2B      		or r16,r26
 6740 2500 1B2B      		or r17,r27
 6741               	.L500:
 6742               	.LM702:
 6743 2502 9DAD      		ldd r25,Y+61
 6744 2504 80E0      		ldi r24,lo8(0)
 6745 2506 2CAD      		ldd r18,Y+60
 6746 2508 30E0      		ldi r19,lo8(0)
 6747 250a 822B      		or r24,r18
 6748 250c 932B      		or r25,r19
 6749 250e A0E0      		ldi r26,lo8(0)
 6750 2510 B0E0      		ldi r27,hi8(0)
 6751 2512 E81A      		sub r14,r24
 6752 2514 F90A      		sbc r15,r25
 6753 2516 0A0B      		sbc r16,r26
 6754 2518 1B0B      		sbc r17,r27
 6755               	.LVL563:
 6756 251a E618      		sub r14,r6
 6757 251c F708      		sbc r15,r7
 6758 251e 0809      		sbc r16,r8
 6759 2520 1909      		sbc r17,r9
 6760 2522 F4E0      		ldi r31,4
 6761 2524 5695      	1:	lsr r21
 6762 2526 4795      		ror r20
 6763 2528 FA95      		dec r31
 6764 252a 01F4      		brne 1b
 6765 252c CA01      		movw r24,r20
 6766 252e A0E0      		ldi r26,lo8(0)
 6767 2530 B0E0      		ldi r27,hi8(0)
 6768 2532 E81A      		sub r14,r24
 6769 2534 F90A      		sbc r15,r25
 6770 2536 0A0B      		sbc r16,r26
 6771 2538 1B0B      		sbc r17,r27
 6772 253a 2A81      		ldd r18,Y+2
 6773 253c 30E0      		ldi r19,lo8(0)
 6774 253e 40E0      		ldi r20,lo8(0)
 6775 2540 50E0      		ldi r21,hi8(0)
 6776 2542 C801      		movw r24,r16
 6777 2544 B701      		movw r22,r14
 6778 2546 0E94 0000 		call __udivmodsi4
 6779 254a 2E5F      		subi r18,lo8(-(2))
 6780 254c 3F4F      		sbci r19,hi8(-(2))
 6781 254e 4F4F      		sbci r20,hlo8(-(2))
 6782 2550 5F4F      		sbci r21,hhi8(-(2))
 6783               	.LVL564:
 6784 2552 2A8F      		std Y+26,r18
 6785 2554 3B8F      		std Y+27,r19
 6786 2556 4C8F      		std Y+28,r20
 6787 2558 5D8F      		std Y+29,r21
 6788               	.LM703:
 6789 255a 273F      		cpi r18,lo8(4087)
 6790 255c 8FE0      		ldi r24,hi8(4087)
 6791 255e 3807      		cpc r19,r24
 6792 2560 80E0      		ldi r24,hlo8(4087)
 6793 2562 4807      		cpc r20,r24
 6794 2564 80E0      		ldi r24,hhi8(4087)
 6795 2566 5807      		cpc r21,r24
 6796 2568 00F4      		brsh .L501
 6797 256a 11E0      		ldi r17,lo8(1)
 6798               	.LVL565:
 6799 256c 00C0      		rjmp .L502
 6800               	.LVL566:
 6801               	.L501:
 6802               	.LM704:
 6803 256e 275F      		subi r18,lo8(65527)
 6804 2570 3F4F      		sbci r19,hi8(65527)
 6805 2572 4040      		sbci r20,hlo8(65527)
 6806 2574 5040      		sbci r21,hhi8(65527)
 6807 2576 00F0      		brlo .+2
 6808 2578 00C0      		rjmp .L503
 6809 257a 12E0      		ldi r17,lo8(2)
 6810               	.LVL567:
 6811               	.L502:
 6812               	.LM705:
 6813 257c 8E8D      		ldd r24,Y+30
 6814 257e 9F8D      		ldd r25,Y+31
 6815 2580 A8A1      		ldd r26,Y+32
 6816 2582 B9A1      		ldd r27,Y+33
 6817 2584 860D      		add r24,r6
 6818 2586 971D      		adc r25,r7
 6819 2588 A81D      		adc r26,r8
 6820 258a B91D      		adc r27,r9
 6821 258c 8AA3      		std Y+34,r24
 6822 258e 9BA3      		std Y+35,r25
 6823 2590 ACA3      		std Y+36,r26
 6824 2592 BDA3      		std Y+37,r27
 6825               	.L505:
 6826               	.LM706:
 6827 2594 8885      		ldd r24,Y+8
 6828 2596 9985      		ldd r25,Y+9
 6829 2598 E4E0      		ldi r30,4
 6830 259a 9695      	1:	lsr r25
 6831 259c 8795      		ror r24
 6832 259e EA95      		dec r30
 6833 25a0 01F4      		brne 1b
 6834 25a2 A0E0      		ldi r26,lo8(0)
 6835 25a4 B0E0      		ldi r27,hi8(0)
 6836 25a6 2E8D      		ldd r18,Y+30
 6837 25a8 3F8D      		ldd r19,Y+31
 6838 25aa 48A1      		ldd r20,Y+32
 6839 25ac 59A1      		ldd r21,Y+33
 6840               	.LVL568:
 6841 25ae 820F      		add r24,r18
 6842 25b0 931F      		adc r25,r19
 6843 25b2 A41F      		adc r26,r20
 6844 25b4 B51F      		adc r27,r21
 6845 25b6 860D      		add r24,r6
 6846 25b8 971D      		adc r25,r7
 6847 25ba A81D      		adc r26,r8
 6848 25bc B91D      		adc r27,r9
 6849 25be 8EA3      		std Y+38,r24
 6850 25c0 9FA3      		std Y+39,r25
 6851 25c2 A8A7      		std Y+40,r26
 6852 25c4 B9A7      		std Y+41,r27
 6853               	.LM707:
 6854 25c6 8FEF      		ldi r24,lo8(-1)
 6855 25c8 9FEF      		ldi r25,hi8(-1)
 6856 25ca AFEF      		ldi r26,hlo8(-1)
 6857 25cc BFEF      		ldi r27,hhi8(-1)
 6858 25ce 8E87      		std Y+14,r24
 6859 25d0 9F87      		std Y+15,r25
 6860 25d2 A88B      		std Y+16,r26
 6861 25d4 B98B      		std Y+17,r27
 6862               	.LM708:
 6863 25d6 1C82      		std Y+4,__zero_reg__
 6864               	.LM709:
 6865 25d8 1330      		cpi r17,lo8(3)
 6866 25da 01F0      		breq .+2
 6867 25dc 00C0      		rjmp .L504
 6868               	.LM710:
 6869 25de 1D82      		std Y+5,__zero_reg__
 6870               	.LM711:
 6871 25e0 C15A      		subi r28,lo8(-(95))
 6872 25e2 DF4F      		sbci r29,hi8(-(95))
 6873 25e4 3881      		ld r19,Y
 6874 25e6 20E0      		ldi r18,lo8(0)
 6875 25e8 8A91      		ld r24,-Y
 6876 25ea CE55      		subi r28,lo8(-(-94))
 6877 25ec D040      		sbci r29,hi8(-(-94))
 6878 25ee 90E0      		ldi r25,lo8(0)
 6879 25f0 282B      		or r18,r24
 6880 25f2 392B      		or r19,r25
 6881 25f4 40E0      		ldi r20,lo8(0)
 6882 25f6 50E0      		ldi r21,hi8(0)
 6883 25f8 2A0D      		add r18,r10
 6884 25fa 3B1D      		adc r19,r11
 6885 25fc 4C1D      		adc r20,r12
 6886 25fe 5D1D      		adc r21,r13
 6887 2600 2A8B      		std Y+18,r18
 6888 2602 3B8B      		std Y+19,r19
 6889 2604 4C8B      		std Y+20,r20
 6890 2606 5D8B      		std Y+21,r21
 6891               	.LM712:
 6892 2608 BE01      		movw r22,r28
 6893 260a 625D      		subi r22,lo8(-(46))
 6894 260c 7F4F      		sbci r23,hi8(-(46))
 6895 260e 8981      		ldd r24,Y+1
 6896 2610 01E0      		ldi r16,lo8(1)
 6897               	.LVL569:
 6898 2612 0E94 0000 		call disk_read
 6899 2616 8823      		tst r24
 6900 2618 01F0      		breq .+2
 6901 261a 00C0      		rjmp .L504
 6902 261c C35D      		subi r28,lo8(-(557))
 6903 261e DD4F      		sbci r29,hi8(-(557))
 6904 2620 9881      		ld r25,Y
 6905 2622 80E0      		ldi r24,lo8(0)
 6906 2624 2A91      		ld r18,-Y
 6907 2626 CC52      		subi r28,lo8(-(-556))
 6908 2628 D240      		sbci r29,hi8(-(-556))
 6909 262a 30E0      		ldi r19,lo8(0)
 6910 262c 822B      		or r24,r18
 6911 262e 932B      		or r25,r19
 6912 2630 8555      		subi r24,lo8(-21931)
 6913 2632 9A4A      		sbci r25,hi8(-21931)
 6914 2634 01F0      		breq .+2
 6915 2636 00C0      		rjmp .L504
 6916 2638 29A9      		ldd r18,Y+49
 6917 263a 30E0      		ldi r19,lo8(0)
 6918 263c 40E0      		ldi r20,lo8(0)
 6919 263e 50E0      		ldi r21,hi8(0)
 6920 2640 522F      		mov r21,r18
 6921 2642 4427      		clr r20
 6922 2644 3327      		clr r19
 6923 2646 2227      		clr r18
 6924 2648 88A9      		ldd r24,Y+48
 6925 264a 90E0      		ldi r25,lo8(0)
 6926 264c A0E0      		ldi r26,lo8(0)
 6927 264e B0E0      		ldi r27,hi8(0)
 6928 2650 DC01      		movw r26,r24
 6929 2652 9927      		clr r25
 6930 2654 8827      		clr r24
 6931 2656 282B      		or r18,r24
 6932 2658 392B      		or r19,r25
 6933 265a 4A2B      		or r20,r26
 6934 265c 5B2B      		or r21,r27
 6935 265e 8EA5      		ldd r24,Y+46
 6936 2660 90E0      		ldi r25,lo8(0)
 6937 2662 A0E0      		ldi r26,lo8(0)
 6938 2664 B0E0      		ldi r27,hi8(0)
 6939 2666 282B      		or r18,r24
 6940 2668 392B      		or r19,r25
 6941 266a 4A2B      		or r20,r26
 6942 266c 5B2B      		or r21,r27
 6943 266e 9FA5      		ldd r25,Y+47
 6944 2670 80E0      		ldi r24,lo8(0)
 6945 2672 A0E0      		ldi r26,lo8(0)
 6946 2674 B0E0      		ldi r27,hi8(0)
 6947 2676 282B      		or r18,r24
 6948 2678 392B      		or r19,r25
 6949 267a 4A2B      		or r20,r26
 6950 267c 5B2B      		or r21,r27
 6951 267e 2255      		subi r18,lo8(1096897106)
 6952 2680 3245      		sbci r19,hi8(1096897106)
 6953 2682 4146      		sbci r20,hlo8(1096897106)
 6954 2684 5144      		sbci r21,hhi8(1096897106)
 6955 2686 01F0      		breq .+2
 6956 2688 00C0      		rjmp .L504
 6957 268a CB5E      		subi r28,lo8(-(533))
 6958 268c DD4F      		sbci r29,hi8(-(533))
 6959 268e 2881      		ld r18,Y
 6960 2690 30E0      		ldi r19,lo8(0)
 6961 2692 40E0      		ldi r20,lo8(0)
 6962 2694 50E0      		ldi r21,hi8(0)
 6963 2696 522F      		mov r21,r18
 6964 2698 4427      		clr r20
 6965 269a 3327      		clr r19
 6966 269c 2227      		clr r18
 6967 269e 8A91      		ld r24,-Y
 6968 26a0 90E0      		ldi r25,lo8(0)
 6969 26a2 A0E0      		ldi r26,lo8(0)
 6970 26a4 B0E0      		ldi r27,hi8(0)
 6971 26a6 DC01      		movw r26,r24
 6972 26a8 9927      		clr r25
 6973 26aa 8827      		clr r24
 6974 26ac 282B      		or r18,r24
 6975 26ae 392B      		or r19,r25
 6976 26b0 4A2B      		or r20,r26
 6977 26b2 5B2B      		or r21,r27
 6978 26b4 2297      		sbiw r28,2
 6979 26b6 8991      		ld r24,Y+
 6980 26b8 90E0      		ldi r25,lo8(0)
 6981 26ba A0E0      		ldi r26,lo8(0)
 6982 26bc B0E0      		ldi r27,hi8(0)
 6983 26be 282B      		or r18,r24
 6984 26c0 392B      		or r19,r25
 6985 26c2 4A2B      		or r20,r26
 6986 26c4 5B2B      		or r21,r27
 6987 26c6 9881      		ld r25,Y
 6988 26c8 C351      		subi r28,lo8(-(-531))
 6989 26ca D240      		sbci r29,hi8(-(-531))
 6990 26cc 80E0      		ldi r24,lo8(0)
 6991 26ce A0E0      		ldi r26,lo8(0)
 6992 26d0 B0E0      		ldi r27,hi8(0)
 6993 26d2 282B      		or r18,r24
 6994 26d4 392B      		or r19,r25
 6995 26d6 4A2B      		or r20,r26
 6996 26d8 5B2B      		or r21,r27
 6997 26da 2257      		subi r18,lo8(1631679090)
 6998 26dc 3247      		sbci r19,hi8(1631679090)
 6999 26de 4144      		sbci r20,hlo8(1631679090)
 7000 26e0 5146      		sbci r21,hhi8(1631679090)
 7001 26e2 01F0      		breq .+2
 7002 26e4 00C0      		rjmp .L504
 7003               	.LM713:
 7004 26e6 C35E      		subi r28,lo8(-(541))
 7005 26e8 DD4F      		sbci r29,hi8(-(541))
 7006 26ea 2881      		ld r18,Y
 7007 26ec 30E0      		ldi r19,lo8(0)
 7008 26ee 40E0      		ldi r20,lo8(0)
 7009 26f0 50E0      		ldi r21,hi8(0)
 7010 26f2 522F      		mov r21,r18
 7011 26f4 4427      		clr r20
 7012 26f6 3327      		clr r19
 7013 26f8 2227      		clr r18
 7014 26fa 8A91      		ld r24,-Y
 7015 26fc 90E0      		ldi r25,lo8(0)
 7016 26fe A0E0      		ldi r26,lo8(0)
 7017 2700 B0E0      		ldi r27,hi8(0)
 7018 2702 DC01      		movw r26,r24
 7019 2704 9927      		clr r25
 7020 2706 8827      		clr r24
 7021 2708 282B      		or r18,r24
 7022 270a 392B      		or r19,r25
 7023 270c 4A2B      		or r20,r26
 7024 270e 5B2B      		or r21,r27
 7025 2710 2297      		sbiw r28,2
 7026 2712 8991      		ld r24,Y+
 7027 2714 90E0      		ldi r25,lo8(0)
 7028 2716 A0E0      		ldi r26,lo8(0)
 7029 2718 B0E0      		ldi r27,hi8(0)
 7030 271a 282B      		or r18,r24
 7031 271c 392B      		or r19,r25
 7032 271e 4A2B      		or r20,r26
 7033 2720 5B2B      		or r21,r27
 7034 2722 9881      		ld r25,Y
 7035 2724 CB51      		subi r28,lo8(-(-539))
 7036 2726 D240      		sbci r29,hi8(-(-539))
 7037 2728 80E0      		ldi r24,lo8(0)
 7038 272a A0E0      		ldi r26,lo8(0)
 7039 272c B0E0      		ldi r27,hi8(0)
 7040 272e 282B      		or r18,r24
 7041 2730 392B      		or r19,r25
 7042 2732 4A2B      		or r20,r26
 7043 2734 5B2B      		or r21,r27
 7044 2736 2A87      		std Y+10,r18
 7045 2738 3B87      		std Y+11,r19
 7046 273a 4C87      		std Y+12,r20
 7047 273c 5D87      		std Y+13,r21
 7048               	.LM714:
 7049 273e C75E      		subi r28,lo8(-(537))
 7050 2740 DD4F      		sbci r29,hi8(-(537))
 7051 2742 2881      		ld r18,Y
 7052 2744 30E0      		ldi r19,lo8(0)
 7053 2746 40E0      		ldi r20,lo8(0)
 7054 2748 50E0      		ldi r21,hi8(0)
 7055 274a 522F      		mov r21,r18
 7056 274c 4427      		clr r20
 7057 274e 3327      		clr r19
 7058 2750 2227      		clr r18
 7059 2752 8A91      		ld r24,-Y
 7060 2754 90E0      		ldi r25,lo8(0)
 7061 2756 A0E0      		ldi r26,lo8(0)
 7062 2758 B0E0      		ldi r27,hi8(0)
 7063 275a DC01      		movw r26,r24
 7064 275c 9927      		clr r25
 7065 275e 8827      		clr r24
 7066 2760 282B      		or r18,r24
 7067 2762 392B      		or r19,r25
 7068 2764 4A2B      		or r20,r26
 7069 2766 5B2B      		or r21,r27
 7070 2768 2297      		sbiw r28,2
 7071 276a 8991      		ld r24,Y+
 7072 276c 90E0      		ldi r25,lo8(0)
 7073 276e A0E0      		ldi r26,lo8(0)
 7074 2770 B0E0      		ldi r27,hi8(0)
 7075 2772 282B      		or r18,r24
 7076 2774 392B      		or r19,r25
 7077 2776 4A2B      		or r20,r26
 7078 2778 5B2B      		or r21,r27
 7079 277a 9881      		ld r25,Y
 7080 277c C751      		subi r28,lo8(-(-535))
 7081 277e D240      		sbci r29,hi8(-(-535))
 7082 2780 80E0      		ldi r24,lo8(0)
 7083 2782 A0E0      		ldi r26,lo8(0)
 7084 2784 B0E0      		ldi r27,hi8(0)
 7085 2786 282B      		or r18,r24
 7086 2788 392B      		or r19,r25
 7087 278a 4A2B      		or r20,r26
 7088 278c 5B2B      		or r21,r27
 7089 278e 2E87      		std Y+14,r18
 7090 2790 3F87      		std Y+15,r19
 7091 2792 488B      		std Y+16,r20
 7092 2794 598B      		std Y+17,r21
 7093               	.LVL570:
 7094               	.L504:
 7095               	.LM715:
 7096 2796 1883      		st Y,r17
 7097               	.LM716:
 7098 2798 1AA6      		std Y+42,__zero_reg__
 7099 279a 1BA6      		std Y+43,__zero_reg__
 7100 279c 1CA6      		std Y+44,__zero_reg__
 7101 279e 1DA6      		std Y+45,__zero_reg__
 7102               	.LM717:
 7103 27a0 8091 0000 		lds r24,Fsid
 7104 27a4 9091 0000 		lds r25,(Fsid)+1
 7105 27a8 0196      		adiw r24,1
 7106 27aa 8093 0000 		sts Fsid,r24
 7107 27ae 9093 0000 		sts (Fsid)+1,r25
 7108 27b2 8E83      		std Y+6,r24
 7109 27b4 9F83      		std Y+7,r25
 7110 27b6 00C0      		rjmp .L491
 7111               	.LVL571:
 7112               	.L492:
 7113               	.LM718:
 7114 27b8 8AE0      		ldi r24,lo8(10)
 7115 27ba 00C0      		rjmp .L486
 7116               	.LVL572:
 7117               	.L491:
 7118 27bc 80E0      		ldi r24,lo8(0)
 7119 27be 00C0      		rjmp .L486
 7120               	.LVL573:
 7121               	.L497:
 7122 27c0 8DE0      		ldi r24,lo8(13)
 7123               	.LVL574:
 7124               	.L486:
 7125               	/* epilogue start */
 7126               	.LM719:
 7127 27c2 DF91      		pop r29
 7128 27c4 CF91      		pop r28
 7129               	.LVL575:
 7130 27c6 1F91      		pop r17
 7131               	.LVL576:
 7132 27c8 0F91      		pop r16
 7133               	.LVL577:
 7134 27ca FF90      		pop r15
 7135 27cc EF90      		pop r14
 7136               	.LVL578:
 7137 27ce DF90      		pop r13
 7138 27d0 CF90      		pop r12
 7139 27d2 BF90      		pop r11
 7140 27d4 AF90      		pop r10
 7141               	.LVL579:
 7142 27d6 9F90      		pop r9
 7143 27d8 8F90      		pop r8
 7144 27da 7F90      		pop r7
 7145 27dc 6F90      		pop r6
 7146               	.LVL580:
 7147 27de 0895      		ret
 7148               	.LVL581:
 7149               	.L503:
 7150               	.LM720:
 7151 27e0 C35A      		subi r28,lo8(-(93))
 7152 27e2 DF4F      		sbci r29,hi8(-(93))
 7153 27e4 2881      		ld r18,Y
 7154               	.LVL582:
 7155 27e6 30E0      		ldi r19,lo8(0)
 7156 27e8 40E0      		ldi r20,lo8(0)
 7157 27ea 50E0      		ldi r21,hi8(0)
 7158 27ec 522F      		mov r21,r18
 7159 27ee 4427      		clr r20
 7160 27f0 3327      		clr r19
 7161 27f2 2227      		clr r18
 7162               	.LVL583:
 7163 27f4 8A91      		ld r24,-Y
 7164 27f6 90E0      		ldi r25,lo8(0)
 7165 27f8 A0E0      		ldi r26,lo8(0)
 7166 27fa B0E0      		ldi r27,hi8(0)
 7167 27fc DC01      		movw r26,r24
 7168 27fe 9927      		clr r25
 7169 2800 8827      		clr r24
 7170               	.LVL584:
 7171 2802 282B      		or r18,r24
 7172 2804 392B      		or r19,r25
 7173 2806 4A2B      		or r20,r26
 7174 2808 5B2B      		or r21,r27
 7175 280a 2297      		sbiw r28,2
 7176 280c 8991      		ld r24,Y+
 7177 280e 90E0      		ldi r25,lo8(0)
 7178 2810 A0E0      		ldi r26,lo8(0)
 7179 2812 B0E0      		ldi r27,hi8(0)
 7180 2814 282B      		or r18,r24
 7181 2816 392B      		or r19,r25
 7182 2818 4A2B      		or r20,r26
 7183 281a 5B2B      		or r21,r27
 7184 281c 9881      		ld r25,Y
 7185 281e CB55      		subi r28,lo8(-(-91))
 7186 2820 D040      		sbci r29,hi8(-(-91))
 7187 2822 80E0      		ldi r24,lo8(0)
 7188 2824 A0E0      		ldi r26,lo8(0)
 7189 2826 B0E0      		ldi r27,hi8(0)
 7190 2828 282B      		or r18,r24
 7191 282a 392B      		or r19,r25
 7192 282c 4A2B      		or r20,r26
 7193 282e 5B2B      		or r21,r27
 7194 2830 2AA3      		std Y+34,r18
 7195 2832 3BA3      		std Y+35,r19
 7196 2834 4CA3      		std Y+36,r20
 7197 2836 5DA3      		std Y+37,r21
 7198 2838 13E0      		ldi r17,lo8(3)
 7199               	.LVL585:
 7200 283a 00C0      		rjmp .L505
 7201               	.LFE77:
 7204               	validate:
 7205               	.LFB78:
 7206               	.LM721:
 7207               	.LVL586:
 7208               	/* prologue: function */
 7209               	/* frame size = 0 */
 7210 283c FC01      		movw r30,r24
 7211               	.LM722:
 7212 283e 0097      		sbiw r24,0
 7213 2840 01F0      		breq .L508
 7214 2842 8081      		ld r24,Z
 7215               	.LVL587:
 7216 2844 8823      		tst r24
 7217 2846 01F0      		breq .L508
 7218 2848 8681      		ldd r24,Z+6
 7219 284a 9781      		ldd r25,Z+7
 7220 284c 8617      		cp r24,r22
 7221 284e 9707      		cpc r25,r23
 7222 2850 01F4      		brne .L508
 7223               	.LBB770:
 7224               	.LBB771:
 7225               	.LM723:
 7226 2852 8181      		ldd r24,Z+1
 7227 2854 8823      		tst r24
 7228 2856 01F0      		breq .L509
 7229 2858 81E0      		ldi r24,lo8(1)
 7230 285a 00C0      		rjmp .L510
 7231               	.L509:
 7232               	.LM724:
 7233 285c 8091 0000 		lds r24,Stat
 7234               	.L510:
 7235               	.LBE771:
 7236               	.LBE770:
 7237               	.LM725:
 7238 2860 80FD      		sbrc r24,0
 7239 2862 00C0      		rjmp .L511
 7240 2864 80E0      		ldi r24,lo8(0)
 7241 2866 0895      		ret
 7242               	.L511:
 7243 2868 83E0      		ldi r24,lo8(3)
 7244 286a 0895      		ret
 7245               	.LVL588:
 7246               	.L508:
 7247 286c 89E0      		ldi r24,lo8(9)
 7248               	.LM726:
 7249 286e 0895      		ret
 7250               	.LFE78:
 7252               	.global	f_mount
 7254               	f_mount:
 7255               	.LFB79:
 7256               	.LM727:
 7257               	.LVL589:
 7258               	/* prologue: function */
 7259               	/* frame size = 0 */
 7260 2870 DB01      		movw r26,r22
 7261               	.LM728:
 7262 2872 8823      		tst r24
 7263 2874 01F0      		breq .L515
 7264               	.LVL590:
 7265 2876 8BE0      		ldi r24,lo8(11)
 7266               	.LVL591:
 7267 2878 0895      		ret
 7268               	.LVL592:
 7269               	.L515:
 7270               	.LM729:
 7271 287a E091 0000 		lds r30,FatFs
 7272 287e F091 0000 		lds r31,(FatFs)+1
 7273               	.LVL593:
 7274               	.LM730:
 7275 2882 3097      		sbiw r30,0
 7276 2884 01F0      		breq .L517
 7277               	.LM731:
 7278 2886 1082      		st Z,__zero_reg__
 7279               	.L517:
 7280               	.LM732:
 7281 2888 1097      		sbiw r26,0
 7282 288a 01F0      		breq .L518
 7283               	.LM733:
 7284 288c 1C92      		st X,__zero_reg__
 7285               	.L518:
 7286               	.LM734:
 7287 288e A093 0000 		sts FatFs,r26
 7288 2892 B093 0000 		sts (FatFs)+1,r27
 7289 2896 80E0      		ldi r24,lo8(0)
 7290               	.LVL594:
 7291               	.LM735:
 7292 2898 0895      		ret
 7293               	.LFE79:
 7295               	.global	f_open
 7297               	f_open:
 7298               	.LFB80:
 7299               	.LM736:
 7300               	.LVL595:
 7301 289a 5F92      		push r5
 7302 289c 6F92      		push r6
 7303 289e 7F92      		push r7
 7304 28a0 8F92      		push r8
 7305 28a2 9F92      		push r9
 7306 28a4 AF92      		push r10
 7307 28a6 BF92      		push r11
 7308 28a8 CF92      		push r12
 7309 28aa DF92      		push r13
 7310 28ac EF92      		push r14
 7311 28ae FF92      		push r15
 7312 28b0 0F93      		push r16
 7313 28b2 1F93      		push r17
 7314 28b4 DF93      		push r29
 7315 28b6 CF93      		push r28
 7316 28b8 CDB7      		in r28,__SP_L__
 7317 28ba DEB7      		in r29,__SP_H__
 7318 28bc A497      		sbiw r28,36
 7319 28be CDBF      		out __SP_L__,r28
 7320 28c0 DEBF      		out __SP_H__,r29
 7321               	/* prologue: function */
 7322               	/* frame size = 36 */
 7323 28c2 3C01      		movw r6,r24
 7324 28c4 6BA3      		std Y+35,r22
 7325 28c6 7CA3      		std Y+36,r23
 7326               	.LM737:
 7327 28c8 DC01      		movw r26,r24
 7328 28ca 1D92      		st X+,__zero_reg__
 7329 28cc 1C92      		st X,__zero_reg__
 7330               	.LM738:
 7331 28ce 3FE1      		ldi r19,lo8(31)
 7332 28d0 532E      		mov r5,r19
 7333               	.LVL596:
 7334 28d2 5422      		and r5,r20
 7335               	.LM739:
 7336 28d4 8E01      		movw r16,r28
 7337 28d6 035F      		subi r16,lo8(-(13))
 7338 28d8 1F4F      		sbci r17,hi8(-(13))
 7339 28da 4E71      		andi r20,lo8(30)
 7340               	.LVL597:
 7341 28dc CE01      		movw r24,r28
 7342               	.LVL598:
 7343 28de 8396      		adiw r24,35
 7344 28e0 B801      		movw r22,r16
 7345               	.LVL599:
 7346 28e2 0E94 0000 		call chk_mounted
 7347               	.LVL600:
 7348               	.LM740:
 7349 28e6 8823      		tst r24
 7350               	.LVL601:
 7351 28e8 01F0      		breq .L521
 7352 28ea 282F      		mov r18,r24
 7353 28ec 00C0      		rjmp .L522
 7354               	.LVL602:
 7355               	.L521:
 7356               	.LM741:
 7357 28ee CE01      		movw r24,r28
 7358               	.LVL603:
 7359 28f0 0196      		adiw r24,1
 7360 28f2 89A3      		std Y+33,r24
 7361 28f4 9AA3      		std Y+34,r25
 7362               	.LM742:
 7363 28f6 6BA1      		ldd r22,Y+35
 7364 28f8 7CA1      		ldd r23,Y+36
 7365 28fa C801      		movw r24,r16
 7366 28fc 0E94 0000 		call follow_path
 7367 2900 282F      		mov r18,r24
 7368               	.LVL604:
 7369               	.LM743:
 7370 2902 452D      		mov r20,r5
 7371               	.LVL605:
 7372 2904 50E0      		ldi r21,lo8(0)
 7373 2906 CA01      		movw r24,r20
 7374 2908 8C71      		andi r24,lo8(28)
 7375 290a 9070      		andi r25,hi8(28)
 7376 290c 892B      		or r24,r25
 7377 290e 01F4      		brne .+2
 7378 2910 00C0      		rjmp .L523
 7379               	.LBB772:
 7380               	.LM744:
 7381 2912 2223      		tst r18
 7382 2914 01F0      		breq .L524
 7383               	.LM745:
 7384 2916 2430      		cpi r18,lo8(4)
 7385 2918 01F0      		breq .+2
 7386 291a 00C0      		rjmp .L522
 7387               	.LM746:
 7388 291c C801      		movw r24,r16
 7389 291e 0E94 0000 		call dir_register
 7390               	.LVL606:
 7391 2922 282F      		mov r18,r24
 7392               	.LVL607:
 7393               	.LM747:
 7394 2924 8823      		tst r24
 7395 2926 01F0      		breq .+2
 7396 2928 00C0      		rjmp .L522
 7397               	.LVL608:
 7398               	.LM748:
 7399 292a B8E0      		ldi r27,lo8(8)
 7400 292c 5B2A      		or r5,r27
 7401               	.LM749:
 7402 292e 0F8D      		ldd r16,Y+31
 7403 2930 18A1      		ldd r17,Y+32
 7404               	.LVL609:
 7405 2932 00C0      		rjmp .L525
 7406               	.LVL610:
 7407               	.L524:
 7408               	.LM750:
 7409 2934 52FE      		sbrs r5,2
 7410 2936 00C0      		rjmp .L526
 7411               	.LVL611:
 7412 2938 28E0      		ldi r18,lo8(8)
 7413 293a 00C0      		rjmp .L522
 7414               	.L526:
 7415               	.LM751:
 7416 293c 0F8D      		ldd r16,Y+31
 7417 293e 18A1      		ldd r17,Y+32
 7418               	.LVL612:
 7419               	.LM752:
 7420 2940 0115      		cp r16,__zero_reg__
 7421 2942 1105      		cpc r17,__zero_reg__
 7422 2944 01F4      		brne .+2
 7423 2946 00C0      		rjmp .L527
 7424 2948 F801      		movw r30,r16
 7425 294a 8385      		ldd r24,Z+11
 7426 294c 8171      		andi r24,lo8(17)
 7427 294e 01F0      		breq .+2
 7428 2950 00C0      		rjmp .L527
 7429               	.LM753:
 7430 2952 53FE      		sbrs r5,3
 7431 2954 00C0      		rjmp .L525
 7432               	.LM754:
 7433 2956 9589      		ldd r25,Z+21
 7434 2958 80E0      		ldi r24,lo8(0)
 7435 295a 2489      		ldd r18,Z+20
 7436               	.LVL613:
 7437 295c 30E0      		ldi r19,lo8(0)
 7438 295e 822B      		or r24,r18
 7439 2960 932B      		or r25,r19
 7440 2962 A0E0      		ldi r26,lo8(0)
 7441 2964 B0E0      		ldi r27,hi8(0)
 7442 2966 7C01      		movw r14,r24
 7443 2968 DD24      		clr r13
 7444 296a CC24      		clr r12
 7445               	.LVL614:
 7446 296c 938D      		ldd r25,Z+27
 7447 296e 80E0      		ldi r24,lo8(0)
 7448 2970 228D      		ldd r18,Z+26
 7449 2972 30E0      		ldi r19,lo8(0)
 7450 2974 822B      		or r24,r18
 7451 2976 932B      		or r25,r19
 7452 2978 A0E0      		ldi r26,lo8(0)
 7453 297a B0E0      		ldi r27,hi8(0)
 7454 297c C82A      		or r12,r24
 7455 297e D92A      		or r13,r25
 7456 2980 EA2A      		or r14,r26
 7457 2982 FB2A      		or r15,r27
 7458               	.LM755:
 7459 2984 148A      		std Z+20,__zero_reg__
 7460 2986 158A      		std Z+21,__zero_reg__
 7461               	.LM756:
 7462 2988 128E      		std Z+26,__zero_reg__
 7463 298a 138E      		std Z+27,__zero_reg__
 7464               	.LM757:
 7465 298c 148E      		std Z+28,__zero_reg__
 7466 298e 158E      		std Z+29,__zero_reg__
 7467 2990 168E      		std Z+30,__zero_reg__
 7468 2992 178E      		std Z+31,__zero_reg__
 7469               	.LM758:
 7470 2994 ED85      		ldd r30,Y+13
 7471 2996 FE85      		ldd r31,Y+14
 7472 2998 81E0      		ldi r24,lo8(1)
 7473 299a 8483      		std Z+4,r24
 7474               	.LM759:
 7475 299c 82A4      		ldd r8,Z+42
 7476 299e 93A4      		ldd r9,Z+43
 7477 29a0 A4A4      		ldd r10,Z+44
 7478 29a2 B5A4      		ldd r11,Z+45
 7479               	.LVL615:
 7480               	.LM760:
 7481 29a4 C114      		cp r12,__zero_reg__
 7482 29a6 D104      		cpc r13,__zero_reg__
 7483 29a8 E104      		cpc r14,__zero_reg__
 7484 29aa F104      		cpc r15,__zero_reg__
 7485 29ac 01F0      		breq .L528
 7486               	.LM761:
 7487 29ae CF01      		movw r24,r30
 7488 29b0 B701      		movw r22,r14
 7489 29b2 A601      		movw r20,r12
 7490 29b4 0E94 0000 		call remove_chain
 7491 29b8 282F      		mov r18,r24
 7492               	.LVL616:
 7493               	.LM762:
 7494 29ba 8823      		tst r24
 7495 29bc 01F0      		breq .+2
 7496 29be 00C0      		rjmp .L522
 7497               	.LVL617:
 7498               	.LM763:
 7499 29c0 ED85      		ldd r30,Y+13
 7500 29c2 FE85      		ldd r31,Y+14
 7501 29c4 0894      		sec
 7502 29c6 C108      		sbc r12,__zero_reg__
 7503 29c8 D108      		sbc r13,__zero_reg__
 7504 29ca E108      		sbc r14,__zero_reg__
 7505 29cc F108      		sbc r15,__zero_reg__
 7506 29ce C286      		std Z+10,r12
 7507 29d0 D386      		std Z+11,r13
 7508 29d2 E486      		std Z+12,r14
 7509 29d4 F586      		std Z+13,r15
 7510               	.L528:
 7511               	.LM764:
 7512 29d6 8D85      		ldd r24,Y+13
 7513 29d8 9E85      		ldd r25,Y+14
 7514               	.LVL618:
 7515 29da B501      		movw r22,r10
 7516 29dc A401      		movw r20,r8
 7517 29de 0E94 0000 		call move_window
 7518               	.LVL619:
 7519 29e2 282F      		mov r18,r24
 7520               	.LVL620:
 7521               	.LM765:
 7522 29e4 8823      		tst r24
 7523 29e6 01F0      		breq .+2
 7524 29e8 00C0      		rjmp .L522
 7525               	.LVL621:
 7526               	.L525:
 7527               	.LM766:
 7528 29ea 53FE      		sbrs r5,3
 7529 29ec 00C0      		rjmp .L529
 7530               	.LM767:
 7531 29ee D801      		movw r26,r16
 7532 29f0 1B96      		adiw r26,11
 7533 29f2 1C92      		st X,__zero_reg__
 7534 29f4 1B97      		sbiw r26,11
 7535               	.LM768:
 7536 29f6 1E96      		adiw r26,14
 7537 29f8 1C92      		st X,__zero_reg__
 7538 29fa 1E97      		sbiw r26,14
 7539 29fc 1F96      		adiw r26,15
 7540 29fe 1C92      		st X,__zero_reg__
 7541 2a00 1F97      		sbiw r26,15
 7542 2a02 5096      		adiw r26,16
 7543 2a04 1C92      		st X,__zero_reg__
 7544 2a06 5097      		sbiw r26,16
 7545 2a08 5196      		adiw r26,17
 7546 2a0a 1C92      		st X,__zero_reg__
 7547               	.LM769:
 7548 2a0c ED85      		ldd r30,Y+13
 7549 2a0e FE85      		ldd r31,Y+14
 7550 2a10 81E0      		ldi r24,lo8(1)
 7551 2a12 8483      		std Z+4,r24
 7552               	.LM770:
 7553 2a14 B0E2      		ldi r27,lo8(32)
 7554 2a16 5B2A      		or r5,r27
 7555 2a18 00C0      		rjmp .L529
 7556               	.LVL622:
 7557               	.L523:
 7558               	.LBE772:
 7559               	.LM771:
 7560 2a1a 2223      		tst r18
 7561 2a1c 01F0      		breq .+2
 7562 2a1e 00C0      		rjmp .L522
 7563               	.LM772:
 7564 2a20 0F8D      		ldd r16,Y+31
 7565 2a22 18A1      		ldd r17,Y+32
 7566               	.LVL623:
 7567               	.LM773:
 7568 2a24 0115      		cp r16,__zero_reg__
 7569 2a26 1105      		cpc r17,__zero_reg__
 7570 2a28 01F4      		brne .+2
 7571 2a2a 00C0      		rjmp .L530
 7572 2a2c F801      		movw r30,r16
 7573 2a2e 8385      		ldd r24,Z+11
 7574 2a30 84FD      		sbrc r24,4
 7575 2a32 00C0      		rjmp .L530
 7576               	.LM774:
 7577 2a34 51FE      		sbrs r5,1
 7578 2a36 00C0      		rjmp .L529
 7579               	.LVL624:
 7580 2a38 80FD      		sbrc r24,0
 7581 2a3a 00C0      		rjmp .L527
 7582               	.LVL625:
 7583               	.L529:
 7584               	.LM775:
 7585 2a3c ED85      		ldd r30,Y+13
 7586 2a3e FE85      		ldd r31,Y+14
 7587 2a40 22A5      		ldd r18,Z+42
 7588 2a42 33A5      		ldd r19,Z+43
 7589 2a44 44A5      		ldd r20,Z+44
 7590 2a46 55A5      		ldd r21,Z+45
 7591               	.LVL626:
 7592 2a48 D301      		movw r26,r6
 7593 2a4a 5A96      		adiw r26,26
 7594 2a4c 2D93      		st X+,r18
 7595 2a4e 3D93      		st X+,r19
 7596 2a50 4D93      		st X+,r20
 7597 2a52 5C93      		st X,r21
 7598 2a54 5D97      		sbiw r26,26+3
 7599               	.LM776:
 7600 2a56 8F8D      		ldd r24,Y+31
 7601 2a58 98A1      		ldd r25,Y+32
 7602               	.LVL627:
 7603 2a5a 5E96      		adiw r26,30
 7604 2a5c 8D93      		st X+,r24
 7605 2a5e 9C93      		st X,r25
 7606 2a60 5F97      		sbiw r26,30+1
 7607               	.LM777:
 7608 2a62 1496      		adiw r26,4
 7609 2a64 5C92      		st X,r5
 7610               	.LM778:
 7611 2a66 D801      		movw r26,r16
 7612 2a68 5596      		adiw r26,21
 7613 2a6a 3C91      		ld r19,X
 7614 2a6c 5597      		sbiw r26,21
 7615 2a6e 20E0      		ldi r18,lo8(0)
 7616 2a70 5496      		adiw r26,20
 7617 2a72 8C91      		ld r24,X
 7618 2a74 5497      		sbiw r26,20
 7619 2a76 90E0      		ldi r25,lo8(0)
 7620 2a78 282B      		or r18,r24
 7621 2a7a 392B      		or r19,r25
 7622 2a7c 40E0      		ldi r20,lo8(0)
 7623 2a7e 50E0      		ldi r21,hi8(0)
 7624 2a80 A901      		movw r20,r18
 7625 2a82 3327      		clr r19
 7626 2a84 2227      		clr r18
 7627 2a86 5B96      		adiw r26,27
 7628 2a88 9C91      		ld r25,X
 7629 2a8a 5B97      		sbiw r26,27
 7630 2a8c 80E0      		ldi r24,lo8(0)
 7631 2a8e 5A96      		adiw r26,26
 7632 2a90 6C91      		ld r22,X
 7633 2a92 70E0      		ldi r23,lo8(0)
 7634 2a94 862B      		or r24,r22
 7635 2a96 972B      		or r25,r23
 7636 2a98 A0E0      		ldi r26,lo8(0)
 7637 2a9a B0E0      		ldi r27,hi8(0)
 7638 2a9c 282B      		or r18,r24
 7639 2a9e 392B      		or r19,r25
 7640 2aa0 4A2B      		or r20,r26
 7641 2aa2 5B2B      		or r21,r27
 7642 2aa4 D301      		movw r26,r6
 7643 2aa6 1E96      		adiw r26,14
 7644 2aa8 2D93      		st X+,r18
 7645 2aaa 3D93      		st X+,r19
 7646 2aac 4D93      		st X+,r20
 7647 2aae 5C93      		st X,r21
 7648 2ab0 5197      		sbiw r26,14+3
 7649               	.LM779:
 7650 2ab2 D801      		movw r26,r16
 7651 2ab4 5F96      		adiw r26,31
 7652 2ab6 2C91      		ld r18,X
 7653 2ab8 5F97      		sbiw r26,31
 7654 2aba 30E0      		ldi r19,lo8(0)
 7655 2abc 40E0      		ldi r20,lo8(0)
 7656 2abe 50E0      		ldi r21,hi8(0)
 7657 2ac0 522F      		mov r21,r18
 7658 2ac2 4427      		clr r20
 7659 2ac4 3327      		clr r19
 7660 2ac6 2227      		clr r18
 7661 2ac8 5E96      		adiw r26,30
 7662 2aca 8C91      		ld r24,X
 7663 2acc 90E0      		ldi r25,lo8(0)
 7664 2ace A0E0      		ldi r26,lo8(0)
 7665 2ad0 B0E0      		ldi r27,hi8(0)
 7666 2ad2 DC01      		movw r26,r24
 7667 2ad4 9927      		clr r25
 7668 2ad6 8827      		clr r24
 7669 2ad8 282B      		or r18,r24
 7670 2ada 392B      		or r19,r25
 7671 2adc 4A2B      		or r20,r26
 7672 2ade 5B2B      		or r21,r27
 7673 2ae0 D801      		movw r26,r16
 7674 2ae2 5C96      		adiw r26,28
 7675 2ae4 8C91      		ld r24,X
 7676 2ae6 90E0      		ldi r25,lo8(0)
 7677 2ae8 A0E0      		ldi r26,lo8(0)
 7678 2aea B0E0      		ldi r27,hi8(0)
 7679 2aec 282B      		or r18,r24
 7680 2aee 392B      		or r19,r25
 7681 2af0 4A2B      		or r20,r26
 7682 2af2 5B2B      		or r21,r27
 7683 2af4 D801      		movw r26,r16
 7684 2af6 5D96      		adiw r26,29
 7685 2af8 9C91      		ld r25,X
 7686 2afa 80E0      		ldi r24,lo8(0)
 7687 2afc A0E0      		ldi r26,lo8(0)
 7688 2afe B0E0      		ldi r27,hi8(0)
 7689 2b00 282B      		or r18,r24
 7690 2b02 392B      		or r19,r25
 7691 2b04 4A2B      		or r20,r26
 7692 2b06 5B2B      		or r21,r27
 7693 2b08 D301      		movw r26,r6
 7694 2b0a 1A96      		adiw r26,10
 7695 2b0c 2D93      		st X+,r18
 7696 2b0e 3D93      		st X+,r19
 7697 2b10 4D93      		st X+,r20
 7698 2b12 5C93      		st X,r21
 7699 2b14 1D97      		sbiw r26,10+3
 7700               	.LM780:
 7701 2b16 1696      		adiw r26,6
 7702 2b18 1D92      		st X+,__zero_reg__
 7703 2b1a 1D92      		st X+,__zero_reg__
 7704 2b1c 1D92      		st X+,__zero_reg__
 7705 2b1e 1C92      		st X,__zero_reg__
 7706 2b20 1997      		sbiw r26,6+3
 7707 2b22 8FEF      		ldi r24,lo8(-1)
 7708 2b24 1596      		adiw r26,5
 7709 2b26 8C93      		st X,r24
 7710 2b28 1597      		sbiw r26,5
 7711               	.LM781:
 7712 2b2a 5696      		adiw r26,22
 7713 2b2c 1D92      		st X+,__zero_reg__
 7714 2b2e 1D92      		st X+,__zero_reg__
 7715 2b30 1D92      		st X+,__zero_reg__
 7716 2b32 1C92      		st X,__zero_reg__
 7717 2b34 5997      		sbiw r26,22+3
 7718               	.LM782:
 7719 2b36 ED93      		st X+,r30
 7720 2b38 FC93      		st X,r31
 7721 2b3a 1197      		sbiw r26,1
 7722 2b3c 8681      		ldd r24,Z+6
 7723 2b3e 9781      		ldd r25,Z+7
 7724 2b40 1296      		adiw r26,2
 7725 2b42 8D93      		st X+,r24
 7726 2b44 9C93      		st X,r25
 7727 2b46 1397      		sbiw r26,2+1
 7728 2b48 20E0      		ldi r18,lo8(0)
 7729               	.LVL628:
 7730 2b4a 00C0      		rjmp .L522
 7731               	.LVL629:
 7732               	.L527:
 7733               	.LM783:
 7734 2b4c 27E0      		ldi r18,lo8(7)
 7735 2b4e 00C0      		rjmp .L522
 7736               	.LVL630:
 7737               	.L530:
 7738 2b50 24E0      		ldi r18,lo8(4)
 7739               	.LVL631:
 7740               	.L522:
 7741               	.LM784:
 7742 2b52 822F      		mov r24,r18
 7743               	/* epilogue start */
 7744 2b54 A496      		adiw r28,36
 7745 2b56 CDBF      		out __SP_L__,r28
 7746 2b58 DEBF      		out __SP_H__,r29
 7747 2b5a CF91      		pop r28
 7748 2b5c DF91      		pop r29
 7749 2b5e 1F91      		pop r17
 7750 2b60 0F91      		pop r16
 7751               	.LVL632:
 7752 2b62 FF90      		pop r15
 7753 2b64 EF90      		pop r14
 7754 2b66 DF90      		pop r13
 7755 2b68 CF90      		pop r12
 7756               	.LVL633:
 7757 2b6a BF90      		pop r11
 7758 2b6c AF90      		pop r10
 7759 2b6e 9F90      		pop r9
 7760 2b70 8F90      		pop r8
 7761               	.LVL634:
 7762 2b72 7F90      		pop r7
 7763 2b74 6F90      		pop r6
 7764               	.LVL635:
 7765 2b76 5F90      		pop r5
 7766               	.LVL636:
 7767 2b78 0895      		ret
 7768               	.LFE80:
 7770               	.global	f_read
 7772               	f_read:
 7773               	.LFB81:
 7774               	.LM785:
 7775               	.LVL637:
 7776 2b7a 2F92      		push r2
 7777 2b7c 3F92      		push r3
 7778 2b7e 4F92      		push r4
 7779 2b80 5F92      		push r5
 7780 2b82 6F92      		push r6
 7781 2b84 7F92      		push r7
 7782 2b86 8F92      		push r8
 7783 2b88 9F92      		push r9
 7784 2b8a AF92      		push r10
 7785 2b8c BF92      		push r11
 7786 2b8e CF92      		push r12
 7787 2b90 DF92      		push r13
 7788 2b92 EF92      		push r14
 7789 2b94 FF92      		push r15
 7790 2b96 0F93      		push r16
 7791 2b98 1F93      		push r17
 7792 2b9a DF93      		push r29
 7793 2b9c CF93      		push r28
 7794 2b9e 00D0      		rcall .
 7795 2ba0 0F92      		push __tmp_reg__
 7796 2ba2 CDB7      		in r28,__SP_L__
 7797 2ba4 DEB7      		in r29,__SP_H__
 7798               	/* prologue: function */
 7799               	/* frame size = 4 */
 7800 2ba6 8B83      		std Y+3,r24
 7801 2ba8 9C83      		std Y+4,r25
 7802 2baa 162F      		mov r17,r22
 7803 2bac 072F      		mov r16,r23
 7804               	.LVL638:
 7805 2bae 4A01      		movw r8,r20
 7806 2bb0 2983      		std Y+1,r18
 7807 2bb2 3A83      		std Y+2,r19
 7808               	.LM786:
 7809 2bb4 D901      		movw r26,r18
 7810 2bb6 1D92      		st X+,__zero_reg__
 7811 2bb8 1C92      		st X,__zero_reg__
 7812               	.LM787:
 7813 2bba FC01      		movw r30,r24
 7814 2bbc 6281      		ldd r22,Z+2
 7815 2bbe 7381      		ldd r23,Z+3
 7816               	.LVL639:
 7817 2bc0 8081      		ld r24,Z
 7818 2bc2 9181      		ldd r25,Z+1
 7819               	.LVL640:
 7820 2bc4 0E94 0000 		call validate
 7821               	.LVL641:
 7822 2bc8 782E      		mov r7,r24
 7823               	.LVL642:
 7824               	.LM788:
 7825 2bca 8823      		tst r24
 7826 2bcc 01F0      		breq .+2
 7827 2bce 00C0      		rjmp .L533
 7828               	.LVL643:
 7829               	.LM789:
 7830 2bd0 AB81      		ldd r26,Y+3
 7831 2bd2 BC81      		ldd r27,Y+4
 7832 2bd4 1496      		adiw r26,4
 7833 2bd6 8C91      		ld r24,X
 7834               	.LVL644:
 7835 2bd8 87FD      		sbrc r24,7
 7836 2bda 00C0      		rjmp .L561
 7837               	.L534:
 7838               	.LM790:
 7839 2bdc 80FD      		sbrc r24,0
 7840 2bde 00C0      		rjmp .L535
 7841 2be0 A7E0      		ldi r26,lo8(7)
 7842 2be2 7A2E      		mov r7,r26
 7843 2be4 00C0      		rjmp .L533
 7844               	.L535:
 7845               	.LM791:
 7846 2be6 EB81      		ldd r30,Y+3
 7847 2be8 FC81      		ldd r31,Y+4
 7848 2bea 2285      		ldd r18,Z+10
 7849 2bec 3385      		ldd r19,Z+11
 7850 2bee 4485      		ldd r20,Z+12
 7851 2bf0 5585      		ldd r21,Z+13
 7852               	.LVL645:
 7853 2bf2 8681      		ldd r24,Z+6
 7854 2bf4 9781      		ldd r25,Z+7
 7855 2bf6 A085      		ldd r26,Z+8
 7856 2bf8 B185      		ldd r27,Z+9
 7857 2bfa 281B      		sub r18,r24
 7858 2bfc 390B      		sbc r19,r25
 7859 2bfe 4A0B      		sbc r20,r26
 7860 2c00 5B0B      		sbc r21,r27
 7861               	.LM792:
 7862 2c02 C401      		movw r24,r8
 7863 2c04 A0E0      		ldi r26,lo8(0)
 7864 2c06 B0E0      		ldi r27,hi8(0)
 7865               	.LVL646:
 7866 2c08 2817      		cp r18,r24
 7867 2c0a 3907      		cpc r19,r25
 7868 2c0c 4A07      		cpc r20,r26
 7869 2c0e 5B07      		cpc r21,r27
 7870 2c10 00F4      		brsh .L536
 7871               	.LVL647:
 7872 2c12 4901      		movw r8,r18
 7873               	.LVL648:
 7874               	.L536:
 7875               	.LM793:
 7876 2c14 812F      		mov r24,r17
 7877               	.LVL649:
 7878 2c16 902F      		mov r25,r16
 7879               	.LVL650:
 7880 2c18 9C01      		movw r18,r24
 7881               	.LVL651:
 7882 2c1a 2901      		movw r4,r18
 7883               	.LVL652:
 7884               	.LBB773:
 7885               	.LBB774:
 7886               	.LM794:
 7887 2c1c F0E2      		ldi r31,lo8(32)
 7888 2c1e 2F2E      		mov r2,r31
 7889 2c20 312C      		mov r3,__zero_reg__
 7890               	.LVL653:
 7891 2c22 6B81      		ldd r22,Y+3
 7892 2c24 7C81      		ldd r23,Y+4
 7893 2c26 260E      		add r2,r22
 7894 2c28 371E      		adc r3,r23
 7895 2c2a 00C0      		rjmp .L537
 7896               	.LVL654:
 7897               	.L559:
 7898               	.LBE774:
 7899               	.LBE773:
 7900               	.LM795:
 7901 2c2c AB81      		ldd r26,Y+3
 7902 2c2e BC81      		ldd r27,Y+4
 7903               	.LVL655:
 7904 2c30 1696      		adiw r26,6
 7905 2c32 2D91      		ld r18,X+
 7906 2c34 3D91      		ld r19,X+
 7907 2c36 4D91      		ld r20,X+
 7908 2c38 5C91      		ld r21,X
 7909 2c3a 1997      		sbiw r26,6+3
 7910 2c3c DA01      		movw r26,r20
 7911 2c3e C901      		movw r24,r18
 7912 2c40 9170      		andi r25,hi8(511)
 7913 2c42 A070      		andi r26,hlo8(511)
 7914 2c44 B070      		andi r27,hhi8(511)
 7915 2c46 0097      		sbiw r24,0
 7916 2c48 A105      		cpc r26,__zero_reg__
 7917 2c4a B105      		cpc r27,__zero_reg__
 7918 2c4c 01F0      		breq .+2
 7919 2c4e 00C0      		rjmp .L538
 7920               	.LM796:
 7921 2c50 AB81      		ldd r26,Y+3
 7922 2c52 BC81      		ldd r27,Y+4
 7923 2c54 ED91      		ld r30,X+
 7924 2c56 FC91      		ld r31,X
 7925 2c58 1197      		sbiw r26,1
 7926 2c5a 1596      		adiw r26,5
 7927 2c5c 9C91      		ld r25,X
 7928 2c5e 1597      		sbiw r26,5
 7929               	.LVL656:
 7930 2c60 8281      		ldd r24,Z+2
 7931 2c62 9817      		cp r25,r24
 7932 2c64 00F0      		brlo .L539
 7933               	.LM797:
 7934 2c66 2115      		cp r18,__zero_reg__
 7935 2c68 3105      		cpc r19,__zero_reg__
 7936 2c6a 4105      		cpc r20,__zero_reg__
 7937 2c6c 5105      		cpc r21,__zero_reg__
 7938 2c6e 01F4      		brne .L540
 7939 2c70 1E96      		adiw r26,14
 7940 2c72 6D91      		ld r22,X+
 7941 2c74 7D91      		ld r23,X+
 7942 2c76 8D91      		ld r24,X+
 7943 2c78 9C91      		ld r25,X
 7944 2c7a 5197      		sbiw r26,14+3
 7945               	.LVL657:
 7946 2c7c 00C0      		rjmp .L541
 7947               	.LVL658:
 7948               	.L540:
 7949 2c7e AB81      		ldd r26,Y+3
 7950 2c80 BC81      		ldd r27,Y+4
 7951 2c82 5296      		adiw r26,18
 7952 2c84 4D91      		ld r20,X+
 7953 2c86 5D91      		ld r21,X+
 7954 2c88 6D91      		ld r22,X+
 7955 2c8a 7C91      		ld r23,X
 7956 2c8c 5597      		sbiw r26,18+3
 7957 2c8e CF01      		movw r24,r30
 7958 2c90 0E94 0000 		call get_fat
 7959               	.LVL659:
 7960               	.L541:
 7961               	.LM798:
 7962 2c94 6230      		cpi r22,lo8(2)
 7963 2c96 7105      		cpc r23,__zero_reg__
 7964 2c98 8105      		cpc r24,__zero_reg__
 7965 2c9a 9105      		cpc r25,__zero_reg__
 7966 2c9c 00F4      		brsh .L542
 7967 2c9e EB81      		ldd r30,Y+3
 7968 2ca0 FC81      		ldd r31,Y+4
 7969 2ca2 8481      		ldd r24,Z+4
 7970 2ca4 8068      		ori r24,lo8(-128)
 7971 2ca6 8483      		std Z+4,r24
 7972               	.LVL660:
 7973               	.L561:
 7974 2ca8 E2E0      		ldi r30,lo8(2)
 7975 2caa 7E2E      		mov r7,r30
 7976 2cac 00C0      		rjmp .L533
 7977               	.LVL661:
 7978               	.L542:
 7979               	.LM799:
 7980 2cae 6F3F      		cpi r22,lo8(-1)
 7981 2cb0 FFEF      		ldi r31,hi8(-1)
 7982 2cb2 7F07      		cpc r23,r31
 7983 2cb4 FFEF      		ldi r31,hlo8(-1)
 7984 2cb6 8F07      		cpc r24,r31
 7985 2cb8 FFEF      		ldi r31,hhi8(-1)
 7986 2cba 9F07      		cpc r25,r31
 7987 2cbc 01F4      		brne .+2
 7988 2cbe 00C0      		rjmp .L562
 7989               	.L543:
 7990               	.LM800:
 7991 2cc0 EB81      		ldd r30,Y+3
 7992 2cc2 FC81      		ldd r31,Y+4
 7993 2cc4 628B      		std Z+18,r22
 7994 2cc6 738B      		std Z+19,r23
 7995 2cc8 848B      		std Z+20,r24
 7996 2cca 958B      		std Z+21,r25
 7997               	.LM801:
 7998 2ccc 1582      		std Z+5,__zero_reg__
 7999               	.LVL662:
 8000               	.L539:
 8001               	.LM802:
 8002 2cce AB81      		ldd r26,Y+3
 8003 2cd0 BC81      		ldd r27,Y+4
 8004 2cd2 0D91      		ld r16,X+
 8005 2cd4 1C91      		ld r17,X
 8006 2cd6 1197      		sbiw r26,1
 8007               	.LVL663:
 8008               	.LBB776:
 8009               	.LBB777:
 8010               	.LM803:
 8011 2cd8 5296      		adiw r26,18
 8012 2cda 2D91      		ld r18,X+
 8013 2cdc 3D91      		ld r19,X+
 8014 2cde 4D91      		ld r20,X+
 8015 2ce0 5C91      		ld r21,X
 8016 2ce2 5597      		sbiw r26,18+3
 8017               	.LVL664:
 8018 2ce4 2250      		subi r18,lo8(-(-2))
 8019 2ce6 3040      		sbci r19,hi8(-(-2))
 8020 2ce8 4040      		sbci r20,hlo8(-(-2))
 8021 2cea 5040      		sbci r21,hhi8(-(-2))
 8022               	.LM804:
 8023 2cec F801      		movw r30,r16
 8024 2cee 828D      		ldd r24,Z+26
 8025 2cf0 938D      		ldd r25,Z+27
 8026 2cf2 A48D      		ldd r26,Z+28
 8027 2cf4 B58D      		ldd r27,Z+29
 8028 2cf6 0297      		sbiw r24,2
 8029 2cf8 A109      		sbc r26,__zero_reg__
 8030 2cfa B109      		sbc r27,__zero_reg__
 8031 2cfc 2817      		cp r18,r24
 8032 2cfe 3907      		cpc r19,r25
 8033 2d00 4A07      		cpc r20,r26
 8034 2d02 5B07      		cpc r21,r27
 8035 2d04 00F4      		brsh .L544
 8036               	.LM805:
 8037 2d06 6280      		ldd r6,Z+2
 8038 2d08 662D      		mov r22,r6
 8039               	.LVL665:
 8040 2d0a 70E0      		ldi r23,lo8(0)
 8041 2d0c 80E0      		ldi r24,lo8(0)
 8042 2d0e 90E0      		ldi r25,hi8(0)
 8043 2d10 0E94 0000 		call __mulsi3
 8044               	.LVL666:
 8045 2d14 9B01      		movw r18,r22
 8046 2d16 AC01      		movw r20,r24
 8047               	.LVL667:
 8048 2d18 F801      		movw r30,r16
 8049 2d1a 86A1      		ldd r24,Z+38
 8050 2d1c 97A1      		ldd r25,Z+39
 8051 2d1e A0A5      		ldd r26,Z+40
 8052 2d20 B1A5      		ldd r27,Z+41
 8053 2d22 280F      		add r18,r24
 8054 2d24 391F      		adc r19,r25
 8055 2d26 4A1F      		adc r20,r26
 8056 2d28 5B1F      		adc r21,r27
 8057               	.LBE777:
 8058               	.LBE776:
 8059               	.LM806:
 8060 2d2a 2115      		cp r18,__zero_reg__
 8061 2d2c 3105      		cpc r19,__zero_reg__
 8062 2d2e 4105      		cpc r20,__zero_reg__
 8063 2d30 5105      		cpc r21,__zero_reg__
 8064 2d32 01F4      		brne .L545
 8065               	.LVL668:
 8066               	.L544:
 8067 2d34 AB81      		ldd r26,Y+3
 8068 2d36 BC81      		ldd r27,Y+4
 8069 2d38 1496      		adiw r26,4
 8070 2d3a 8C91      		ld r24,X
 8071 2d3c 1497      		sbiw r26,4
 8072 2d3e 8068      		ori r24,lo8(-128)
 8073 2d40 1496      		adiw r26,4
 8074 2d42 8C93      		st X,r24
 8075 2d44 00C0      		rjmp .L561
 8076               	.LVL669:
 8077               	.L545:
 8078               	.LM807:
 8079 2d46 EB81      		ldd r30,Y+3
 8080 2d48 FC81      		ldd r31,Y+4
 8081 2d4a 8581      		ldd r24,Z+5
 8082 2d4c 5901      		movw r10,r18
 8083 2d4e 6A01      		movw r12,r20
 8084 2d50 A80E      		add r10,r24
 8085 2d52 B11C      		adc r11,__zero_reg__
 8086 2d54 C11C      		adc r12,__zero_reg__
 8087 2d56 D11C      		adc r13,__zero_reg__
 8088               	.LVL670:
 8089               	.LM808:
 8090 2d58 7401      		movw r14,r8
 8091 2d5a EF2C      		mov r14,r15
 8092 2d5c FF24      		clr r15
 8093 2d5e E694      		lsr r14
 8094               	.LM809:
 8095 2d60 E114      		cp r14,__zero_reg__
 8096 2d62 F104      		cpc r15,__zero_reg__
 8097 2d64 01F4      		brne .+2
 8098 2d66 00C0      		rjmp .L546
 8099               	.LM810:
 8100 2d68 282F      		mov r18,r24
 8101 2d6a 30E0      		ldi r19,lo8(0)
 8102 2d6c C701      		movw r24,r14
 8103 2d6e 820F      		add r24,r18
 8104 2d70 931F      		adc r25,r19
 8105 2d72 662D      		mov r22,r6
 8106 2d74 70E0      		ldi r23,lo8(0)
 8107 2d76 6817      		cp r22,r24
 8108 2d78 7907      		cpc r23,r25
 8109 2d7a 00F4      		brsh .L547
 8110               	.LM811:
 8111 2d7c 7B01      		movw r14,r22
 8112 2d7e E21A      		sub r14,r18
 8113 2d80 F30A      		sbc r15,r19
 8114               	.L547:
 8115               	.LM812:
 8116 2d82 D801      		movw r26,r16
 8117 2d84 1196      		adiw r26,1
 8118 2d86 8C91      		ld r24,X
 8119 2d88 B201      		movw r22,r4
 8120 2d8a A601      		movw r20,r12
 8121 2d8c 9501      		movw r18,r10
 8122 2d8e 0E2D      		mov r16,r14
 8123 2d90 0E94 0000 		call disk_read
 8124 2d94 EB81      		ldd r30,Y+3
 8125 2d96 FC81      		ldd r31,Y+4
 8126 2d98 9481      		ldd r25,Z+4
 8127 2d9a 8823      		tst r24
 8128 2d9c 01F0      		breq .L548
 8129               	.LM813:
 8130 2d9e 9068      		ori r25,lo8(-128)
 8131 2da0 9483      		std Z+4,r25
 8132 2da2 00C0      		rjmp .L563
 8133               	.L548:
 8134               	.LM814:
 8135 2da4 96FF      		sbrs r25,6
 8136 2da6 00C0      		rjmp .L549
 8137 2da8 AB81      		ldd r26,Y+3
 8138 2daa BC81      		ldd r27,Y+4
 8139 2dac 5696      		adiw r26,22
 8140 2dae 2D91      		ld r18,X+
 8141 2db0 3D91      		ld r19,X+
 8142 2db2 4D91      		ld r20,X+
 8143 2db4 5C91      		ld r21,X
 8144 2db6 5997      		sbiw r26,22+3
 8145 2db8 2A19      		sub r18,r10
 8146 2dba 3B09      		sbc r19,r11
 8147 2dbc 4C09      		sbc r20,r12
 8148 2dbe 5D09      		sbc r21,r13
 8149 2dc0 C701      		movw r24,r14
 8150 2dc2 A0E0      		ldi r26,lo8(0)
 8151 2dc4 B0E0      		ldi r27,hi8(0)
 8152               	.LVL671:
 8153 2dc6 2817      		cp r18,r24
 8154 2dc8 3907      		cpc r19,r25
 8155 2dca 4A07      		cpc r20,r26
 8156 2dcc 5B07      		cpc r21,r27
 8157 2dce 00F4      		brsh .L549
 8158               	.LVL672:
 8159               	.LBB778:
 8160               	.LBB775:
 8161               	.LM815:
 8162 2dd0 69E0      		ldi r22,9
 8163 2dd2 220F      	1:	lsl r18
 8164 2dd4 331F      		rol r19
 8165 2dd6 441F      		rol r20
 8166 2dd8 551F      		rol r21
 8167 2dda 6A95      		dec r22
 8168 2ddc 01F4      		brne 1b
 8169 2dde C201      		movw r24,r4
 8170               	.LVL673:
 8171 2de0 820F      		add r24,r18
 8172 2de2 931F      		adc r25,r19
 8173 2de4 D101      		movw r26,r2
 8174               	.LVL674:
 8175 2de6 FC01      		movw r30,r24
 8176               	.LM816:
 8177 2de8 9C01      		movw r18,r24
 8178 2dea 2050      		subi r18,lo8(-(512))
 8179 2dec 3E4F      		sbci r19,hi8(-(512))
 8180 2dee 00C0      		rjmp .L550
 8181               	.LVL675:
 8182               	.L551:
 8183 2df0 8D91      		ld r24,X+
 8184 2df2 8193      		st Z+,r24
 8185               	.LVL676:
 8186               	.L550:
 8187 2df4 E217      		cp r30,r18
 8188 2df6 F307      		cpc r31,r19
 8189 2df8 01F4      		brne .L551
 8190               	.LVL677:
 8191               	.L549:
 8192               	.LBE775:
 8193               	.LBE778:
 8194               	.LM817:
 8195 2dfa EB81      		ldd r30,Y+3
 8196 2dfc FC81      		ldd r31,Y+4
 8197               	.LVL678:
 8198 2dfe 8581      		ldd r24,Z+5
 8199               	.LVL679:
 8200 2e00 8E0D      		add r24,r14
 8201 2e02 8583      		std Z+5,r24
 8202               	.LM818:
 8203 2e04 B701      		movw r22,r14
 8204               	.LVL680:
 8205 2e06 762F      		mov r23,r22
 8206 2e08 6627      		clr r22
 8207 2e0a 770F      		lsl r23
 8208 2e0c 00C0      		rjmp .L552
 8209               	.LVL681:
 8210               	.L546:
 8211               	.LM819:
 8212 2e0e AB81      		ldd r26,Y+3
 8213 2e10 BC81      		ldd r27,Y+4
 8214 2e12 1496      		adiw r26,4
 8215 2e14 8C91      		ld r24,X
 8216 2e16 1497      		sbiw r26,4
 8217 2e18 86FF      		sbrs r24,6
 8218 2e1a 00C0      		rjmp .L553
 8219               	.LM820:
 8220 2e1c 5696      		adiw r26,22
 8221 2e1e 2D91      		ld r18,X+
 8222 2e20 3D91      		ld r19,X+
 8223 2e22 4D91      		ld r20,X+
 8224 2e24 5C91      		ld r21,X
 8225 2e26 5997      		sbiw r26,22+3
 8226 2e28 F801      		movw r30,r16
 8227 2e2a 8181      		ldd r24,Z+1
 8228 2e2c B101      		movw r22,r2
 8229 2e2e 01E0      		ldi r16,lo8(1)
 8230 2e30 0E94 0000 		call disk_write
 8231 2e34 AB81      		ldd r26,Y+3
 8232 2e36 BC81      		ldd r27,Y+4
 8233 2e38 1496      		adiw r26,4
 8234 2e3a 9C91      		ld r25,X
 8235 2e3c 1497      		sbiw r26,4
 8236 2e3e 8823      		tst r24
 8237 2e40 01F0      		breq .L554
 8238               	.LM821:
 8239 2e42 9068      		ori r25,lo8(-128)
 8240 2e44 1496      		adiw r26,4
 8241 2e46 9C93      		st X,r25
 8242 2e48 00C0      		rjmp .L563
 8243               	.L554:
 8244               	.LM822:
 8245 2e4a 9F7B      		andi r25,lo8(-65)
 8246 2e4c EB81      		ldd r30,Y+3
 8247 2e4e FC81      		ldd r31,Y+4
 8248 2e50 9483      		std Z+4,r25
 8249               	.L553:
 8250               	.LM823:
 8251 2e52 EB81      		ldd r30,Y+3
 8252 2e54 FC81      		ldd r31,Y+4
 8253 2e56 8689      		ldd r24,Z+22
 8254 2e58 9789      		ldd r25,Z+23
 8255 2e5a A08D      		ldd r26,Z+24
 8256 2e5c B18D      		ldd r27,Z+25
 8257 2e5e 8A15      		cp r24,r10
 8258 2e60 9B05      		cpc r25,r11
 8259 2e62 AC05      		cpc r26,r12
 8260 2e64 BD05      		cpc r27,r13
 8261 2e66 01F0      		breq .L555
 8262               	.LM824:
 8263 2e68 0190      		ld __tmp_reg__,Z+
 8264 2e6a F081      		ld r31,Z
 8265 2e6c E02D      		mov r30,__tmp_reg__
 8266 2e6e 8181      		ldd r24,Z+1
 8267 2e70 B101      		movw r22,r2
 8268 2e72 A601      		movw r20,r12
 8269 2e74 9501      		movw r18,r10
 8270 2e76 01E0      		ldi r16,lo8(1)
 8271 2e78 0E94 0000 		call disk_read
 8272 2e7c 8823      		tst r24
 8273 2e7e 01F0      		breq .L555
 8274               	.LVL682:
 8275               	.L562:
 8276               	.LM825:
 8277 2e80 AB81      		ldd r26,Y+3
 8278 2e82 BC81      		ldd r27,Y+4
 8279 2e84 1496      		adiw r26,4
 8280 2e86 8C91      		ld r24,X
 8281 2e88 1497      		sbiw r26,4
 8282 2e8a 8068      		ori r24,lo8(-128)
 8283 2e8c 1496      		adiw r26,4
 8284 2e8e 8C93      		st X,r24
 8285               	.L563:
 8286 2e90 7724      		clr r7
 8287 2e92 7394      		inc r7
 8288 2e94 00C0      		rjmp .L533
 8289               	.LVL683:
 8290               	.L555:
 8291               	.LM826:
 8292 2e96 EB81      		ldd r30,Y+3
 8293 2e98 FC81      		ldd r31,Y+4
 8294 2e9a A68A      		std Z+22,r10
 8295 2e9c B78A      		std Z+23,r11
 8296 2e9e C08E      		std Z+24,r12
 8297 2ea0 D18E      		std Z+25,r13
 8298               	.LM827:
 8299 2ea2 8581      		ldd r24,Z+5
 8300 2ea4 8F5F      		subi r24,lo8(-(1))
 8301 2ea6 8583      		std Z+5,r24
 8302               	.LVL684:
 8303               	.L538:
 8304               	.LM828:
 8305 2ea8 AB81      		ldd r26,Y+3
 8306 2eaa BC81      		ldd r27,Y+4
 8307 2eac 1696      		adiw r26,6
 8308 2eae 2D91      		ld r18,X+
 8309 2eb0 3D91      		ld r19,X+
 8310 2eb2 4D91      		ld r20,X+
 8311 2eb4 5C91      		ld r21,X
 8312 2eb6 1997      		sbiw r26,6+3
 8313 2eb8 C901      		movw r24,r18
 8314 2eba 9170      		andi r25,hi8(511)
 8315 2ebc E0E0      		ldi r30,lo8(512)
 8316 2ebe F2E0      		ldi r31,hi8(512)
 8317 2ec0 E81B      		sub r30,r24
 8318 2ec2 F90B      		sbc r31,r25
 8319 2ec4 B401      		movw r22,r8
 8320 2ec6 E815      		cp r30,r8
 8321 2ec8 F905      		cpc r31,r9
 8322 2eca 00F4      		brsh .L556
 8323               	.LVL685:
 8324 2ecc BF01      		movw r22,r30
 8325               	.L556:
 8326               	.LM829:
 8327 2ece 8B01      		movw r16,r22
 8328               	.LVL686:
 8329               	.LBB779:
 8330               	.LBB780:
 8331               	.LM830:
 8332 2ed0 F901      		movw r30,r18
 8333               	.LVL687:
 8334 2ed2 F170      		andi r31,hi8(511)
 8335 2ed4 B096      		adiw r30,32
 8336 2ed6 8B81      		ldd r24,Y+3
 8337 2ed8 9C81      		ldd r25,Y+4
 8338 2eda E80F      		add r30,r24
 8339 2edc F91F      		adc r31,r25
 8340 2ede 9201      		movw r18,r4
 8341 2ee0 00C0      		rjmp .L557
 8342               	.LVL688:
 8343               	.L558:
 8344               	.LM831:
 8345 2ee2 8191      		ld r24,Z+
 8346 2ee4 D901      		movw r26,r18
 8347 2ee6 8D93      		st X+,r24
 8348 2ee8 9D01      		movw r18,r26
 8349               	.LVL689:
 8350               	.L557:
 8351 2eea 0150      		subi r16,lo8(-(-1))
 8352 2eec 1040      		sbci r17,hi8(-(-1))
 8353 2eee BFEF      		ldi r27,hi8(-1)
 8354 2ef0 0F3F      		cpi r16,lo8(-1)
 8355 2ef2 1B07      		cpc r17,r27
 8356 2ef4 01F4      		brne .L558
 8357               	.LVL690:
 8358               	.L552:
 8359               	.LBE780:
 8360               	.LBE779:
 8361               	.LM832:
 8362 2ef6 460E      		add r4,r22
 8363 2ef8 571E      		adc r5,r23
 8364 2efa CB01      		movw r24,r22
 8365 2efc A0E0      		ldi r26,lo8(0)
 8366 2efe B0E0      		ldi r27,hi8(0)
 8367               	.LVL691:
 8368 2f00 EB81      		ldd r30,Y+3
 8369 2f02 FC81      		ldd r31,Y+4
 8370               	.LVL692:
 8371 2f04 2681      		ldd r18,Z+6
 8372 2f06 3781      		ldd r19,Z+7
 8373 2f08 4085      		ldd r20,Z+8
 8374 2f0a 5185      		ldd r21,Z+9
 8375 2f0c 280F      		add r18,r24
 8376 2f0e 391F      		adc r19,r25
 8377 2f10 4A1F      		adc r20,r26
 8378 2f12 5B1F      		adc r21,r27
 8379 2f14 2683      		std Z+6,r18
 8380 2f16 3783      		std Z+7,r19
 8381 2f18 4087      		std Z+8,r20
 8382 2f1a 5187      		std Z+9,r21
 8383 2f1c E981      		ldd r30,Y+1
 8384 2f1e FA81      		ldd r31,Y+2
 8385 2f20 8081      		ld r24,Z
 8386 2f22 9181      		ldd r25,Z+1
 8387 2f24 860F      		add r24,r22
 8388 2f26 971F      		adc r25,r23
 8389 2f28 8083      		st Z,r24
 8390 2f2a 9183      		std Z+1,r25
 8391 2f2c 861A      		sub r8,r22
 8392 2f2e 970A      		sbc r9,r23
 8393               	.LVL693:
 8394               	.L537:
 8395               	.LM833:
 8396 2f30 8114      		cp r8,__zero_reg__
 8397 2f32 9104      		cpc r9,__zero_reg__
 8398 2f34 01F0      		breq .+2
 8399 2f36 00C0      		rjmp .L559
 8400               	.LVL694:
 8401               	.L533:
 8402               	.LM834:
 8403 2f38 872D      		mov r24,r7
 8404               	/* epilogue start */
 8405 2f3a 2496      		adiw r28,4
 8406 2f3c CDBF      		out __SP_L__,r28
 8407 2f3e DEBF      		out __SP_H__,r29
 8408 2f40 CF91      		pop r28
 8409 2f42 DF91      		pop r29
 8410 2f44 1F91      		pop r17
 8411               	.LVL695:
 8412 2f46 0F91      		pop r16
 8413               	.LVL696:
 8414 2f48 FF90      		pop r15
 8415 2f4a EF90      		pop r14
 8416               	.LVL697:
 8417 2f4c DF90      		pop r13
 8418 2f4e CF90      		pop r12
 8419 2f50 BF90      		pop r11
 8420 2f52 AF90      		pop r10
 8421               	.LVL698:
 8422 2f54 9F90      		pop r9
 8423 2f56 8F90      		pop r8
 8424               	.LVL699:
 8425 2f58 7F90      		pop r7
 8426               	.LVL700:
 8427 2f5a 6F90      		pop r6
 8428 2f5c 5F90      		pop r5
 8429 2f5e 4F90      		pop r4
 8430               	.LVL701:
 8431 2f60 3F90      		pop r3
 8432 2f62 2F90      		pop r2
 8433               	.LVL702:
 8434 2f64 0895      		ret
 8435               	.LFE81:
 8437               	.global	f_write
 8439               	f_write:
 8440               	.LFB82:
 8441               	.LM835:
 8442               	.LVL703:
 8443 2f66 2F92      		push r2
 8444 2f68 3F92      		push r3
 8445 2f6a 4F92      		push r4
 8446 2f6c 5F92      		push r5
 8447 2f6e 6F92      		push r6
 8448 2f70 7F92      		push r7
 8449 2f72 8F92      		push r8
 8450 2f74 9F92      		push r9
 8451 2f76 AF92      		push r10
 8452 2f78 BF92      		push r11
 8453 2f7a CF92      		push r12
 8454 2f7c DF92      		push r13
 8455 2f7e EF92      		push r14
 8456 2f80 FF92      		push r15
 8457 2f82 0F93      		push r16
 8458 2f84 1F93      		push r17
 8459 2f86 DF93      		push r29
 8460 2f88 CF93      		push r28
 8461 2f8a 00D0      		rcall .
 8462 2f8c 0F92      		push __tmp_reg__
 8463 2f8e CDB7      		in r28,__SP_L__
 8464 2f90 DEB7      		in r29,__SP_H__
 8465               	/* prologue: function */
 8466               	/* frame size = 4 */
 8467 2f92 8B83      		std Y+3,r24
 8468 2f94 9C83      		std Y+4,r25
 8469 2f96 162F      		mov r17,r22
 8470 2f98 072F      		mov r16,r23
 8471               	.LVL704:
 8472 2f9a 4A01      		movw r8,r20
 8473 2f9c 2983      		std Y+1,r18
 8474 2f9e 3A83      		std Y+2,r19
 8475               	.LM836:
 8476 2fa0 D901      		movw r26,r18
 8477 2fa2 1D92      		st X+,__zero_reg__
 8478 2fa4 1C92      		st X,__zero_reg__
 8479               	.LM837:
 8480 2fa6 FC01      		movw r30,r24
 8481 2fa8 6281      		ldd r22,Z+2
 8482 2faa 7381      		ldd r23,Z+3
 8483               	.LVL705:
 8484 2fac 8081      		ld r24,Z
 8485 2fae 9181      		ldd r25,Z+1
 8486               	.LVL706:
 8487 2fb0 0E94 0000 		call validate
 8488               	.LVL707:
 8489 2fb4 682E      		mov r6,r24
 8490               	.LVL708:
 8491               	.LM838:
 8492 2fb6 8823      		tst r24
 8493 2fb8 01F0      		breq .+2
 8494 2fba 00C0      		rjmp .L565
 8495               	.LVL709:
 8496               	.LM839:
 8497 2fbc AB81      		ldd r26,Y+3
 8498 2fbe BC81      		ldd r27,Y+4
 8499 2fc0 1496      		adiw r26,4
 8500 2fc2 8C91      		ld r24,X
 8501               	.LVL710:
 8502 2fc4 87FD      		sbrc r24,7
 8503 2fc6 00C0      		rjmp .L596
 8504               	.L566:
 8505               	.LM840:
 8506 2fc8 81FD      		sbrc r24,1
 8507 2fca 00C0      		rjmp .L567
 8508 2fcc 47E0      		ldi r20,lo8(7)
 8509 2fce 642E      		mov r6,r20
 8510 2fd0 00C0      		rjmp .L565
 8511               	.L567:
 8512               	.LM841:
 8513 2fd2 EB81      		ldd r30,Y+3
 8514 2fd4 FC81      		ldd r31,Y+4
 8515 2fd6 2285      		ldd r18,Z+10
 8516 2fd8 3385      		ldd r19,Z+11
 8517 2fda 4485      		ldd r20,Z+12
 8518 2fdc 5585      		ldd r21,Z+13
 8519 2fde C401      		movw r24,r8
 8520 2fe0 A0E0      		ldi r26,lo8(0)
 8521 2fe2 B0E0      		ldi r27,hi8(0)
 8522               	.LVL711:
 8523 2fe4 820F      		add r24,r18
 8524 2fe6 931F      		adc r25,r19
 8525 2fe8 A41F      		adc r26,r20
 8526 2fea B51F      		adc r27,r21
 8527               	.LVL712:
 8528 2fec 8217      		cp r24,r18
 8529 2fee 9307      		cpc r25,r19
 8530 2ff0 A407      		cpc r26,r20
 8531 2ff2 B507      		cpc r27,r21
 8532 2ff4 00F4      		brsh .L568
 8533 2ff6 8824      		clr r8
 8534 2ff8 9924      		clr r9
 8535               	.LVL713:
 8536               	.L568:
 8537               	.LM842:
 8538 2ffa 812F      		mov r24,r17
 8539               	.LVL714:
 8540 2ffc 902F      		mov r25,r16
 8541               	.LVL715:
 8542 2ffe 9C01      		movw r18,r24
 8543               	.LVL716:
 8544 3000 2901      		movw r4,r18
 8545               	.LVL717:
 8546               	.LM843:
 8547 3002 30E2      		ldi r19,lo8(32)
 8548 3004 232E      		mov r2,r19
 8549 3006 312C      		mov r3,__zero_reg__
 8550               	.LVL718:
 8551 3008 6B81      		ldd r22,Y+3
 8552 300a 7C81      		ldd r23,Y+4
 8553 300c 260E      		add r2,r22
 8554 300e 371E      		adc r3,r23
 8555 3010 00C0      		rjmp .L569
 8556               	.LVL719:
 8557               	.L593:
 8558               	.LM844:
 8559 3012 AB81      		ldd r26,Y+3
 8560 3014 BC81      		ldd r27,Y+4
 8561               	.LVL720:
 8562 3016 1696      		adiw r26,6
 8563 3018 2D91      		ld r18,X+
 8564 301a 3D91      		ld r19,X+
 8565 301c 4D91      		ld r20,X+
 8566 301e 5C91      		ld r21,X
 8567 3020 1997      		sbiw r26,6+3
 8568 3022 DA01      		movw r26,r20
 8569 3024 C901      		movw r24,r18
 8570 3026 9170      		andi r25,hi8(511)
 8571 3028 A070      		andi r26,hlo8(511)
 8572 302a B070      		andi r27,hhi8(511)
 8573 302c 0097      		sbiw r24,0
 8574 302e A105      		cpc r26,__zero_reg__
 8575 3030 B105      		cpc r27,__zero_reg__
 8576 3032 01F0      		breq .+2
 8577 3034 00C0      		rjmp .L570
 8578               	.LM845:
 8579 3036 AB81      		ldd r26,Y+3
 8580 3038 BC81      		ldd r27,Y+4
 8581 303a ED91      		ld r30,X+
 8582 303c FC91      		ld r31,X
 8583 303e 1197      		sbiw r26,1
 8584 3040 1596      		adiw r26,5
 8585 3042 9C91      		ld r25,X
 8586 3044 1597      		sbiw r26,5
 8587               	.LVL721:
 8588 3046 8281      		ldd r24,Z+2
 8589 3048 9817      		cp r25,r24
 8590 304a 00F4      		brsh .+2
 8591 304c 00C0      		rjmp .L571
 8592               	.LM846:
 8593 304e 2115      		cp r18,__zero_reg__
 8594 3050 3105      		cpc r19,__zero_reg__
 8595 3052 4105      		cpc r20,__zero_reg__
 8596 3054 5105      		cpc r21,__zero_reg__
 8597 3056 01F4      		brne .L572
 8598               	.LM847:
 8599 3058 1E96      		adiw r26,14
 8600 305a 6D91      		ld r22,X+
 8601 305c 7D91      		ld r23,X+
 8602 305e 8D91      		ld r24,X+
 8603 3060 9C91      		ld r25,X
 8604 3062 5197      		sbiw r26,14+3
 8605               	.LVL722:
 8606               	.LM848:
 8607 3064 6115      		cp r22,__zero_reg__
 8608 3066 7105      		cpc r23,__zero_reg__
 8609 3068 8105      		cpc r24,__zero_reg__
 8610 306a 9105      		cpc r25,__zero_reg__
 8611 306c 01F4      		brne .L573
 8612               	.LM849:
 8613 306e CF01      		movw r24,r30
 8614 3070 40E0      		ldi r20,lo8(0)
 8615 3072 50E0      		ldi r21,hi8(0)
 8616 3074 60E0      		ldi r22,hlo8(0)
 8617 3076 70E0      		ldi r23,hhi8(0)
 8618 3078 0E94 0000 		call create_chain
 8619               	.LVL723:
 8620 307c EB81      		ldd r30,Y+3
 8621 307e FC81      		ldd r31,Y+4
 8622 3080 6687      		std Z+14,r22
 8623 3082 7787      		std Z+15,r23
 8624 3084 808B      		std Z+16,r24
 8625 3086 918B      		std Z+17,r25
 8626               	.LVL724:
 8627 3088 00C0      		rjmp .L574
 8628               	.LVL725:
 8629               	.L572:
 8630               	.LM850:
 8631 308a AB81      		ldd r26,Y+3
 8632 308c BC81      		ldd r27,Y+4
 8633 308e 5296      		adiw r26,18
 8634 3090 4D91      		ld r20,X+
 8635 3092 5D91      		ld r21,X+
 8636 3094 6D91      		ld r22,X+
 8637 3096 7C91      		ld r23,X
 8638 3098 5597      		sbiw r26,18+3
 8639 309a CF01      		movw r24,r30
 8640 309c 0E94 0000 		call create_chain
 8641               	.LVL726:
 8642               	.L574:
 8643               	.LM851:
 8644 30a0 6115      		cp r22,__zero_reg__
 8645 30a2 7105      		cpc r23,__zero_reg__
 8646 30a4 8105      		cpc r24,__zero_reg__
 8647 30a6 9105      		cpc r25,__zero_reg__
 8648 30a8 01F4      		brne .+2
 8649 30aa 00C0      		rjmp .L575
 8650               	.L573:
 8651               	.LM852:
 8652 30ac 6130      		cpi r22,lo8(1)
 8653 30ae 7105      		cpc r23,__zero_reg__
 8654 30b0 8105      		cpc r24,__zero_reg__
 8655 30b2 9105      		cpc r25,__zero_reg__
 8656 30b4 01F4      		brne .L576
 8657 30b6 EB81      		ldd r30,Y+3
 8658 30b8 FC81      		ldd r31,Y+4
 8659 30ba 8481      		ldd r24,Z+4
 8660 30bc 8068      		ori r24,lo8(-128)
 8661 30be 8483      		std Z+4,r24
 8662               	.LVL727:
 8663               	.L596:
 8664 30c0 22E0      		ldi r18,lo8(2)
 8665 30c2 622E      		mov r6,r18
 8666               	.LVL728:
 8667 30c4 00C0      		rjmp .L565
 8668               	.LVL729:
 8669               	.L576:
 8670               	.LM853:
 8671 30c6 6F3F      		cpi r22,lo8(-1)
 8672 30c8 FFEF      		ldi r31,hi8(-1)
 8673 30ca 7F07      		cpc r23,r31
 8674 30cc FFEF      		ldi r31,hlo8(-1)
 8675 30ce 8F07      		cpc r24,r31
 8676 30d0 FFEF      		ldi r31,hhi8(-1)
 8677 30d2 9F07      		cpc r25,r31
 8678 30d4 01F4      		brne .L577
 8679 30d6 AB81      		ldd r26,Y+3
 8680 30d8 BC81      		ldd r27,Y+4
 8681 30da 1496      		adiw r26,4
 8682 30dc 8C91      		ld r24,X
 8683 30de 1497      		sbiw r26,4
 8684 30e0 8068      		ori r24,lo8(-128)
 8685 30e2 1496      		adiw r26,4
 8686 30e4 8C93      		st X,r24
 8687 30e6 00C0      		rjmp .L597
 8688               	.L577:
 8689               	.LM854:
 8690 30e8 EB81      		ldd r30,Y+3
 8691 30ea FC81      		ldd r31,Y+4
 8692 30ec 628B      		std Z+18,r22
 8693 30ee 738B      		std Z+19,r23
 8694 30f0 848B      		std Z+20,r24
 8695 30f2 958B      		std Z+21,r25
 8696               	.LM855:
 8697 30f4 1582      		std Z+5,__zero_reg__
 8698               	.LVL730:
 8699               	.L571:
 8700               	.LM856:
 8701 30f6 AB81      		ldd r26,Y+3
 8702 30f8 BC81      		ldd r27,Y+4
 8703 30fa 1496      		adiw r26,4
 8704 30fc 8C91      		ld r24,X
 8705 30fe 1497      		sbiw r26,4
 8706 3100 86FF      		sbrs r24,6
 8707 3102 00C0      		rjmp .L578
 8708               	.LM857:
 8709 3104 ED91      		ld r30,X+
 8710 3106 FC91      		ld r31,X
 8711 3108 1197      		sbiw r26,1
 8712 310a 5696      		adiw r26,22
 8713 310c 2D91      		ld r18,X+
 8714 310e 3D91      		ld r19,X+
 8715 3110 4D91      		ld r20,X+
 8716 3112 5C91      		ld r21,X
 8717 3114 5997      		sbiw r26,22+3
 8718 3116 8181      		ldd r24,Z+1
 8719 3118 B101      		movw r22,r2
 8720               	.LVL731:
 8721 311a 01E0      		ldi r16,lo8(1)
 8722               	.LVL732:
 8723 311c 0E94 0000 		call disk_write
 8724 3120 EB81      		ldd r30,Y+3
 8725 3122 FC81      		ldd r31,Y+4
 8726 3124 9481      		ldd r25,Z+4
 8727 3126 8823      		tst r24
 8728 3128 01F0      		breq .L579
 8729               	.LM858:
 8730 312a 9068      		ori r25,lo8(-128)
 8731 312c 9483      		std Z+4,r25
 8732 312e 00C0      		rjmp .L597
 8733               	.L579:
 8734               	.LM859:
 8735 3130 9F7B      		andi r25,lo8(-65)
 8736 3132 AB81      		ldd r26,Y+3
 8737 3134 BC81      		ldd r27,Y+4
 8738 3136 1496      		adiw r26,4
 8739 3138 9C93      		st X,r25
 8740               	.LVL733:
 8741               	.L578:
 8742               	.LM860:
 8743 313a EB81      		ldd r30,Y+3
 8744 313c FC81      		ldd r31,Y+4
 8745 313e 0081      		ld r16,Z
 8746 3140 1181      		ldd r17,Z+1
 8747               	.LVL734:
 8748               	.LBB781:
 8749               	.LBB782:
 8750               	.LM861:
 8751 3142 2289      		ldd r18,Z+18
 8752 3144 3389      		ldd r19,Z+19
 8753 3146 4489      		ldd r20,Z+20
 8754 3148 5589      		ldd r21,Z+21
 8755               	.LVL735:
 8756 314a 2250      		subi r18,lo8(-(-2))
 8757 314c 3040      		sbci r19,hi8(-(-2))
 8758 314e 4040      		sbci r20,hlo8(-(-2))
 8759 3150 5040      		sbci r21,hhi8(-(-2))
 8760               	.LM862:
 8761 3152 F801      		movw r30,r16
 8762 3154 828D      		ldd r24,Z+26
 8763 3156 938D      		ldd r25,Z+27
 8764 3158 A48D      		ldd r26,Z+28
 8765 315a B58D      		ldd r27,Z+29
 8766 315c 0297      		sbiw r24,2
 8767 315e A109      		sbc r26,__zero_reg__
 8768 3160 B109      		sbc r27,__zero_reg__
 8769 3162 2817      		cp r18,r24
 8770 3164 3907      		cpc r19,r25
 8771 3166 4A07      		cpc r20,r26
 8772 3168 5B07      		cpc r21,r27
 8773 316a 00F4      		brsh .L580
 8774               	.LM863:
 8775 316c 7280      		ldd r7,Z+2
 8776 316e 672D      		mov r22,r7
 8777               	.LVL736:
 8778 3170 70E0      		ldi r23,lo8(0)
 8779 3172 80E0      		ldi r24,lo8(0)
 8780 3174 90E0      		ldi r25,hi8(0)
 8781 3176 0E94 0000 		call __mulsi3
 8782               	.LVL737:
 8783 317a 9B01      		movw r18,r22
 8784 317c AC01      		movw r20,r24
 8785               	.LVL738:
 8786 317e F801      		movw r30,r16
 8787 3180 86A1      		ldd r24,Z+38
 8788 3182 97A1      		ldd r25,Z+39
 8789 3184 A0A5      		ldd r26,Z+40
 8790 3186 B1A5      		ldd r27,Z+41
 8791 3188 280F      		add r18,r24
 8792 318a 391F      		adc r19,r25
 8793 318c 4A1F      		adc r20,r26
 8794 318e 5B1F      		adc r21,r27
 8795               	.LBE782:
 8796               	.LBE781:
 8797               	.LM864:
 8798 3190 2115      		cp r18,__zero_reg__
 8799 3192 3105      		cpc r19,__zero_reg__
 8800 3194 4105      		cpc r20,__zero_reg__
 8801 3196 5105      		cpc r21,__zero_reg__
 8802 3198 01F4      		brne .L581
 8803               	.LVL739:
 8804               	.L580:
 8805 319a AB81      		ldd r26,Y+3
 8806 319c BC81      		ldd r27,Y+4
 8807 319e 1496      		adiw r26,4
 8808 31a0 8C91      		ld r24,X
 8809 31a2 1497      		sbiw r26,4
 8810 31a4 8068      		ori r24,lo8(-128)
 8811 31a6 1496      		adiw r26,4
 8812 31a8 8C93      		st X,r24
 8813 31aa 00C0      		rjmp .L596
 8814               	.LVL740:
 8815               	.L581:
 8816               	.LM865:
 8817 31ac EB81      		ldd r30,Y+3
 8818 31ae FC81      		ldd r31,Y+4
 8819 31b0 8581      		ldd r24,Z+5
 8820 31b2 6901      		movw r12,r18
 8821 31b4 7A01      		movw r14,r20
 8822 31b6 C80E      		add r12,r24
 8823 31b8 D11C      		adc r13,__zero_reg__
 8824 31ba E11C      		adc r14,__zero_reg__
 8825 31bc F11C      		adc r15,__zero_reg__
 8826               	.LVL741:
 8827               	.LM866:
 8828 31be 5401      		movw r10,r8
 8829 31c0 AB2C      		mov r10,r11
 8830 31c2 BB24      		clr r11
 8831 31c4 A694      		lsr r10
 8832               	.LM867:
 8833 31c6 A114      		cp r10,__zero_reg__
 8834 31c8 B104      		cpc r11,__zero_reg__
 8835 31ca 01F4      		brne .+2
 8836 31cc 00C0      		rjmp .L582
 8837               	.LM868:
 8838 31ce 282F      		mov r18,r24
 8839 31d0 30E0      		ldi r19,lo8(0)
 8840 31d2 C501      		movw r24,r10
 8841 31d4 820F      		add r24,r18
 8842 31d6 931F      		adc r25,r19
 8843 31d8 672D      		mov r22,r7
 8844 31da 70E0      		ldi r23,lo8(0)
 8845 31dc 6817      		cp r22,r24
 8846 31de 7907      		cpc r23,r25
 8847 31e0 00F4      		brsh .L583
 8848               	.LM869:
 8849 31e2 5B01      		movw r10,r22
 8850 31e4 A21A      		sub r10,r18
 8851 31e6 B30A      		sbc r11,r19
 8852               	.L583:
 8853               	.LM870:
 8854 31e8 D801      		movw r26,r16
 8855 31ea 1196      		adiw r26,1
 8856 31ec 8C91      		ld r24,X
 8857 31ee B201      		movw r22,r4
 8858 31f0 A701      		movw r20,r14
 8859 31f2 9601      		movw r18,r12
 8860 31f4 0A2D      		mov r16,r10
 8861 31f6 0E94 0000 		call disk_write
 8862 31fa 8823      		tst r24
 8863 31fc 01F0      		breq .+2
 8864 31fe 00C0      		rjmp .L598
 8865               	.L584:
 8866               	.LM871:
 8867 3200 AB81      		ldd r26,Y+3
 8868 3202 BC81      		ldd r27,Y+4
 8869 3204 5696      		adiw r26,22
 8870 3206 2D91      		ld r18,X+
 8871 3208 3D91      		ld r19,X+
 8872 320a 4D91      		ld r20,X+
 8873 320c 5C91      		ld r21,X
 8874 320e 5997      		sbiw r26,22+3
 8875 3210 2C19      		sub r18,r12
 8876 3212 3D09      		sbc r19,r13
 8877 3214 4E09      		sbc r20,r14
 8878 3216 5F09      		sbc r21,r15
 8879 3218 C501      		movw r24,r10
 8880 321a A0E0      		ldi r26,lo8(0)
 8881 321c B0E0      		ldi r27,hi8(0)
 8882               	.LVL742:
 8883 321e 2817      		cp r18,r24
 8884 3220 3907      		cpc r19,r25
 8885 3222 4A07      		cpc r20,r26
 8886 3224 5B07      		cpc r21,r27
 8887 3226 00F4      		brsh .L585
 8888               	.LVL743:
 8889               	.LBB783:
 8890               	.LBB784:
 8891               	.LM872:
 8892 3228 19E0      		ldi r17,9
 8893 322a 220F      	1:	lsl r18
 8894 322c 331F      		rol r19
 8895 322e 441F      		rol r20
 8896 3230 551F      		rol r21
 8897 3232 1A95      		dec r17
 8898 3234 01F4      		brne 1b
 8899               	.LVL744:
 8900 3236 F201      		movw r30,r4
 8901               	.LVL745:
 8902 3238 E20F      		add r30,r18
 8903 323a F31F      		adc r31,r19
 8904 323c D101      		movw r26,r2
 8905               	.LVL746:
 8906               	.LM873:
 8907 323e 9F01      		movw r18,r30
 8908 3240 2050      		subi r18,lo8(-(512))
 8909 3242 3E4F      		sbci r19,hi8(-(512))
 8910 3244 00C0      		rjmp .L586
 8911               	.LVL747:
 8912               	.L587:
 8913 3246 8191      		ld r24,Z+
 8914               	.LVL748:
 8915 3248 8D93      		st X+,r24
 8916               	.LVL749:
 8917               	.L586:
 8918 324a E217      		cp r30,r18
 8919 324c F307      		cpc r31,r19
 8920 324e 01F4      		brne .L587
 8921               	.LVL750:
 8922               	.LBE784:
 8923               	.LBE783:
 8924               	.LM874:
 8925 3250 EB81      		ldd r30,Y+3
 8926 3252 FC81      		ldd r31,Y+4
 8927               	.LVL751:
 8928 3254 8481      		ldd r24,Z+4
 8929               	.LVL752:
 8930 3256 8F7B      		andi r24,lo8(-65)
 8931 3258 8483      		std Z+4,r24
 8932               	.LVL753:
 8933               	.L585:
 8934               	.LM875:
 8935 325a AB81      		ldd r26,Y+3
 8936 325c BC81      		ldd r27,Y+4
 8937               	.LVL754:
 8938 325e 1596      		adiw r26,5
 8939 3260 8C91      		ld r24,X
 8940 3262 1597      		sbiw r26,5
 8941 3264 8A0D      		add r24,r10
 8942 3266 1596      		adiw r26,5
 8943 3268 8C93      		st X,r24
 8944               	.LM876:
 8945 326a B501      		movw r22,r10
 8946               	.LVL755:
 8947 326c 762F      		mov r23,r22
 8948 326e 6627      		clr r22
 8949 3270 770F      		lsl r23
 8950 3272 00C0      		rjmp .L588
 8951               	.LVL756:
 8952               	.L582:
 8953               	.LM877:
 8954 3274 EB81      		ldd r30,Y+3
 8955 3276 FC81      		ldd r31,Y+4
 8956 3278 8689      		ldd r24,Z+22
 8957 327a 9789      		ldd r25,Z+23
 8958 327c A08D      		ldd r26,Z+24
 8959 327e B18D      		ldd r27,Z+25
 8960 3280 8C15      		cp r24,r12
 8961 3282 9D05      		cpc r25,r13
 8962 3284 AE05      		cpc r26,r14
 8963 3286 BF05      		cpc r27,r15
 8964 3288 01F0      		breq .L589
 8965               	.LM878:
 8966 328a 2681      		ldd r18,Z+6
 8967 328c 3781      		ldd r19,Z+7
 8968 328e 4085      		ldd r20,Z+8
 8969 3290 5185      		ldd r21,Z+9
 8970 3292 8285      		ldd r24,Z+10
 8971 3294 9385      		ldd r25,Z+11
 8972 3296 A485      		ldd r26,Z+12
 8973 3298 B585      		ldd r27,Z+13
 8974 329a 2817      		cp r18,r24
 8975 329c 3907      		cpc r19,r25
 8976 329e 4A07      		cpc r20,r26
 8977 32a0 5B07      		cpc r21,r27
 8978 32a2 00F4      		brsh .L589
 8979 32a4 D801      		movw r26,r16
 8980 32a6 1196      		adiw r26,1
 8981 32a8 8C91      		ld r24,X
 8982 32aa B101      		movw r22,r2
 8983 32ac A701      		movw r20,r14
 8984 32ae 9601      		movw r18,r12
 8985 32b0 01E0      		ldi r16,lo8(1)
 8986 32b2 0E94 0000 		call disk_read
 8987 32b6 8823      		tst r24
 8988 32b8 01F0      		breq .L589
 8989               	.L598:
 8990               	.LM879:
 8991 32ba EB81      		ldd r30,Y+3
 8992 32bc FC81      		ldd r31,Y+4
 8993 32be 8481      		ldd r24,Z+4
 8994 32c0 8068      		ori r24,lo8(-128)
 8995 32c2 8483      		std Z+4,r24
 8996               	.LVL757:
 8997               	.L597:
 8998 32c4 6624      		clr r6
 8999 32c6 6394      		inc r6
 9000 32c8 00C0      		rjmp .L565
 9001               	.LVL758:
 9002               	.L589:
 9003               	.LM880:
 9004 32ca AB81      		ldd r26,Y+3
 9005 32cc BC81      		ldd r27,Y+4
 9006 32ce 5696      		adiw r26,22
 9007 32d0 CD92      		st X+,r12
 9008 32d2 DD92      		st X+,r13
 9009 32d4 ED92      		st X+,r14
 9010 32d6 FC92      		st X,r15
 9011 32d8 5997      		sbiw r26,22+3
 9012               	.LM881:
 9013 32da 1596      		adiw r26,5
 9014 32dc 8C91      		ld r24,X
 9015 32de 1597      		sbiw r26,5
 9016 32e0 8F5F      		subi r24,lo8(-(1))
 9017 32e2 1596      		adiw r26,5
 9018 32e4 8C93      		st X,r24
 9019               	.LVL759:
 9020               	.L570:
 9021               	.LM882:
 9022 32e6 EB81      		ldd r30,Y+3
 9023 32e8 FC81      		ldd r31,Y+4
 9024 32ea 2681      		ldd r18,Z+6
 9025 32ec 3781      		ldd r19,Z+7
 9026 32ee 4085      		ldd r20,Z+8
 9027 32f0 5185      		ldd r21,Z+9
 9028 32f2 C901      		movw r24,r18
 9029 32f4 9170      		andi r25,hi8(511)
 9030 32f6 60E0      		ldi r22,lo8(512)
 9031 32f8 72E0      		ldi r23,hi8(512)
 9032               	.LVL760:
 9033 32fa 681B      		sub r22,r24
 9034 32fc 790B      		sbc r23,r25
 9035 32fe CB01      		movw r24,r22
 9036               	.LVL761:
 9037 3300 B401      		movw r22,r8
 9038               	.LVL762:
 9039 3302 8815      		cp r24,r8
 9040 3304 9905      		cpc r25,r9
 9041 3306 00F4      		brsh .L590
 9042               	.LVL763:
 9043 3308 BC01      		movw r22,r24
 9044               	.L590:
 9045               	.LM883:
 9046 330a 8B01      		movw r16,r22
 9047               	.LVL764:
 9048               	.LBB785:
 9049               	.LBB786:
 9050               	.LM884:
 9051 330c F901      		movw r30,r18
 9052               	.LVL765:
 9053 330e F170      		andi r31,hi8(511)
 9054 3310 B096      		adiw r30,32
 9055 3312 8B81      		ldd r24,Y+3
 9056 3314 9C81      		ldd r25,Y+4
 9057               	.LVL766:
 9058 3316 E80F      		add r30,r24
 9059 3318 F91F      		adc r31,r25
 9060 331a 9201      		movw r18,r4
 9061 331c 00C0      		rjmp .L591
 9062               	.LVL767:
 9063               	.L592:
 9064               	.LM885:
 9065 331e D901      		movw r26,r18
 9066 3320 8D91      		ld r24,X+
 9067 3322 9D01      		movw r18,r26
 9068 3324 8193      		st Z+,r24
 9069               	.LVL768:
 9070               	.L591:
 9071 3326 0150      		subi r16,lo8(-(-1))
 9072 3328 1040      		sbci r17,hi8(-(-1))
 9073 332a BFEF      		ldi r27,hi8(-1)
 9074 332c 0F3F      		cpi r16,lo8(-1)
 9075 332e 1B07      		cpc r17,r27
 9076 3330 01F4      		brne .L592
 9077               	.LBE786:
 9078               	.LBE785:
 9079               	.LM886:
 9080 3332 EB81      		ldd r30,Y+3
 9081 3334 FC81      		ldd r31,Y+4
 9082               	.LVL769:
 9083 3336 8481      		ldd r24,Z+4
 9084 3338 8064      		ori r24,lo8(64)
 9085 333a 8483      		std Z+4,r24
 9086               	.LVL770:
 9087               	.L588:
 9088               	.LM887:
 9089 333c 460E      		add r4,r22
 9090 333e 571E      		adc r5,r23
 9091 3340 CB01      		movw r24,r22
 9092 3342 A0E0      		ldi r26,lo8(0)
 9093 3344 B0E0      		ldi r27,hi8(0)
 9094               	.LVL771:
 9095 3346 EB81      		ldd r30,Y+3
 9096 3348 FC81      		ldd r31,Y+4
 9097 334a 2681      		ldd r18,Z+6
 9098 334c 3781      		ldd r19,Z+7
 9099 334e 4085      		ldd r20,Z+8
 9100 3350 5185      		ldd r21,Z+9
 9101 3352 280F      		add r18,r24
 9102 3354 391F      		adc r19,r25
 9103 3356 4A1F      		adc r20,r26
 9104 3358 5B1F      		adc r21,r27
 9105 335a 2683      		std Z+6,r18
 9106 335c 3783      		std Z+7,r19
 9107 335e 4087      		std Z+8,r20
 9108 3360 5187      		std Z+9,r21
 9109 3362 E981      		ldd r30,Y+1
 9110 3364 FA81      		ldd r31,Y+2
 9111 3366 8081      		ld r24,Z
 9112 3368 9181      		ldd r25,Z+1
 9113 336a 860F      		add r24,r22
 9114 336c 971F      		adc r25,r23
 9115 336e 8083      		st Z,r24
 9116 3370 9183      		std Z+1,r25
 9117 3372 861A      		sub r8,r22
 9118 3374 970A      		sbc r9,r23
 9119               	.LVL772:
 9120               	.L569:
 9121               	.LM888:
 9122 3376 8114      		cp r8,__zero_reg__
 9123 3378 9104      		cpc r9,__zero_reg__
 9124 337a 01F0      		breq .+2
 9125 337c 00C0      		rjmp .L593
 9126               	.LVL773:
 9127               	.L575:
 9128               	.LM889:
 9129 337e AB81      		ldd r26,Y+3
 9130 3380 BC81      		ldd r27,Y+4
 9131               	.LVL774:
 9132 3382 1696      		adiw r26,6
 9133 3384 2D91      		ld r18,X+
 9134 3386 3D91      		ld r19,X+
 9135 3388 4D91      		ld r20,X+
 9136 338a 5C91      		ld r21,X
 9137 338c 1997      		sbiw r26,6+3
 9138 338e 1A96      		adiw r26,10
 9139 3390 8D91      		ld r24,X+
 9140 3392 9D91      		ld r25,X+
 9141 3394 0D90      		ld __tmp_reg__,X+
 9142 3396 BC91      		ld r27,X
 9143 3398 A02D      		mov r26,__tmp_reg__
 9144 339a 8217      		cp r24,r18
 9145 339c 9307      		cpc r25,r19
 9146 339e A407      		cpc r26,r20
 9147 33a0 B507      		cpc r27,r21
 9148 33a2 00F4      		brsh .L594
 9149 33a4 EB81      		ldd r30,Y+3
 9150 33a6 FC81      		ldd r31,Y+4
 9151 33a8 2287      		std Z+10,r18
 9152 33aa 3387      		std Z+11,r19
 9153 33ac 4487      		std Z+12,r20
 9154 33ae 5587      		std Z+13,r21
 9155               	.L594:
 9156               	.LM890:
 9157 33b0 AB81      		ldd r26,Y+3
 9158 33b2 BC81      		ldd r27,Y+4
 9159 33b4 1496      		adiw r26,4
 9160 33b6 8C91      		ld r24,X
 9161 33b8 1497      		sbiw r26,4
 9162 33ba 8062      		ori r24,lo8(32)
 9163 33bc 1496      		adiw r26,4
 9164 33be 8C93      		st X,r24
 9165               	.LVL775:
 9166               	.L565:
 9167               	.LM891:
 9168 33c0 862D      		mov r24,r6
 9169               	/* epilogue start */
 9170 33c2 2496      		adiw r28,4
 9171 33c4 CDBF      		out __SP_L__,r28
 9172 33c6 DEBF      		out __SP_H__,r29
 9173 33c8 CF91      		pop r28
 9174 33ca DF91      		pop r29
 9175 33cc 1F91      		pop r17
 9176               	.LVL776:
 9177 33ce 0F91      		pop r16
 9178               	.LVL777:
 9179 33d0 FF90      		pop r15
 9180 33d2 EF90      		pop r14
 9181 33d4 DF90      		pop r13
 9182 33d6 CF90      		pop r12
 9183               	.LVL778:
 9184 33d8 BF90      		pop r11
 9185 33da AF90      		pop r10
 9186               	.LVL779:
 9187 33dc 9F90      		pop r9
 9188 33de 8F90      		pop r8
 9189               	.LVL780:
 9190 33e0 7F90      		pop r7
 9191 33e2 6F90      		pop r6
 9192               	.LVL781:
 9193 33e4 5F90      		pop r5
 9194 33e6 4F90      		pop r4
 9195               	.LVL782:
 9196 33e8 3F90      		pop r3
 9197 33ea 2F90      		pop r2
 9198               	.LVL783:
 9199 33ec 0895      		ret
 9200               	.LFE82:
 9202               	.global	f_sync
 9204               	f_sync:
 9205               	.LFB83:
 9206               	.LM892:
 9207               	.LVL784:
 9208 33ee 0F93      		push r16
 9209 33f0 CF93      		push r28
 9210 33f2 DF93      		push r29
 9211               	/* prologue: function */
 9212               	/* frame size = 0 */
 9213 33f4 EC01      		movw r28,r24
 9214               	.LM893:
 9215 33f6 6A81      		ldd r22,Y+2
 9216 33f8 7B81      		ldd r23,Y+3
 9217 33fa 8881      		ld r24,Y
 9218 33fc 9981      		ldd r25,Y+1
 9219               	.LVL785:
 9220 33fe 0E94 0000 		call validate
 9221 3402 982F      		mov r25,r24
 9222               	.LVL786:
 9223               	.LM894:
 9224 3404 8823      		tst r24
 9225 3406 01F0      		breq .+2
 9226 3408 00C0      		rjmp .L600
 9227               	.LVL787:
 9228               	.LM895:
 9229 340a 8C81      		ldd r24,Y+4
 9230               	.LVL788:
 9231 340c 85FF      		sbrs r24,5
 9232 340e 00C0      		rjmp .L600
 9233               	.LM896:
 9234 3410 86FF      		sbrs r24,6
 9235 3412 00C0      		rjmp .L601
 9236               	.LM897:
 9237 3414 E881      		ld r30,Y
 9238 3416 F981      		ldd r31,Y+1
 9239 3418 BE01      		movw r22,r28
 9240 341a 605E      		subi r22,lo8(-(32))
 9241 341c 7F4F      		sbci r23,hi8(-(32))
 9242 341e 2E89      		ldd r18,Y+22
 9243 3420 3F89      		ldd r19,Y+23
 9244 3422 488D      		ldd r20,Y+24
 9245 3424 598D      		ldd r21,Y+25
 9246 3426 8181      		ldd r24,Z+1
 9247 3428 01E0      		ldi r16,lo8(1)
 9248 342a 0E94 0000 		call disk_write
 9249               	.LVL789:
 9250 342e 8823      		tst r24
 9251 3430 01F0      		breq .L602
 9252 3432 91E0      		ldi r25,lo8(1)
 9253               	.LVL790:
 9254 3434 00C0      		rjmp .L600
 9255               	.LVL791:
 9256               	.L602:
 9257               	.LM898:
 9258 3436 8C81      		ldd r24,Y+4
 9259 3438 8F7B      		andi r24,lo8(-65)
 9260 343a 8C83      		std Y+4,r24
 9261               	.LVL792:
 9262               	.L601:
 9263               	.LM899:
 9264 343c 4A8D      		ldd r20,Y+26
 9265 343e 5B8D      		ldd r21,Y+27
 9266 3440 6C8D      		ldd r22,Y+28
 9267 3442 7D8D      		ldd r23,Y+29
 9268 3444 8881      		ld r24,Y
 9269 3446 9981      		ldd r25,Y+1
 9270 3448 0E94 0000 		call move_window
 9271               	.LVL793:
 9272 344c 982F      		mov r25,r24
 9273               	.LVL794:
 9274               	.LM900:
 9275 344e 8823      		tst r24
 9276 3450 01F0      		breq .+2
 9277 3452 00C0      		rjmp .L600
 9278               	.LVL795:
 9279               	.LM901:
 9280 3454 EE8D      		ldd r30,Y+30
 9281 3456 FF8D      		ldd r31,Y+31
 9282               	.LVL796:
 9283               	.LM902:
 9284 3458 8385      		ldd r24,Z+11
 9285               	.LVL797:
 9286 345a 8062      		ori r24,lo8(32)
 9287 345c 8387      		std Z+11,r24
 9288               	.LM903:
 9289 345e 8A85      		ldd r24,Y+10
 9290 3460 848F      		std Z+28,r24
 9291 3462 8B85      		ldd r24,Y+11
 9292 3464 858F      		std Z+29,r24
 9293 3466 8A85      		ldd r24,Y+10
 9294 3468 9B85      		ldd r25,Y+11
 9295 346a AC85      		ldd r26,Y+12
 9296 346c BD85      		ldd r27,Y+13
 9297 346e CD01      		movw r24,r26
 9298 3470 AA27      		clr r26
 9299 3472 BB27      		clr r27
 9300 3474 868F      		std Z+30,r24
 9301 3476 8A85      		ldd r24,Y+10
 9302 3478 9B85      		ldd r25,Y+11
 9303 347a AC85      		ldd r26,Y+12
 9304 347c BD85      		ldd r27,Y+13
 9305 347e 8B2F      		mov r24,r27
 9306 3480 9927      		clr r25
 9307 3482 AA27      		clr r26
 9308 3484 BB27      		clr r27
 9309 3486 878F      		std Z+31,r24
 9310               	.LM904:
 9311 3488 8E85      		ldd r24,Y+14
 9312 348a 828F      		std Z+26,r24
 9313 348c 8F85      		ldd r24,Y+15
 9314 348e 838F      		std Z+27,r24
 9315               	.LM905:
 9316 3490 8E85      		ldd r24,Y+14
 9317 3492 9F85      		ldd r25,Y+15
 9318 3494 A889      		ldd r26,Y+16
 9319 3496 B989      		ldd r27,Y+17
 9320 3498 CD01      		movw r24,r26
 9321 349a AA27      		clr r26
 9322 349c BB27      		clr r27
 9323 349e 848B      		std Z+20,r24
 9324 34a0 8E85      		ldd r24,Y+14
 9325 34a2 9F85      		ldd r25,Y+15
 9326 34a4 A889      		ldd r26,Y+16
 9327 34a6 B989      		ldd r27,Y+17
 9328 34a8 CD01      		movw r24,r26
 9329 34aa AA27      		clr r26
 9330 34ac BB27      		clr r27
 9331 34ae 892F      		mov r24,r25
 9332 34b0 9927      		clr r25
 9333 34b2 858B      		std Z+21,r24
 9334               	.LM906:
 9335 34b4 168A      		std Z+22,__zero_reg__
 9336 34b6 178A      		std Z+23,__zero_reg__
 9337 34b8 108E      		std Z+24,__zero_reg__
 9338 34ba 118E      		std Z+25,__zero_reg__
 9339               	.LM907:
 9340 34bc 8C81      		ldd r24,Y+4
 9341 34be 8F7D      		andi r24,lo8(-33)
 9342 34c0 8C83      		std Y+4,r24
 9343               	.LM908:
 9344 34c2 E881      		ld r30,Y
 9345 34c4 F981      		ldd r31,Y+1
 9346               	.LVL798:
 9347 34c6 81E0      		ldi r24,lo8(1)
 9348 34c8 8483      		std Z+4,r24
 9349               	.LM909:
 9350 34ca 8881      		ld r24,Y
 9351 34cc 9981      		ldd r25,Y+1
 9352 34ce 0E94 0000 		call sync
 9353               	.LVL799:
 9354 34d2 982F      		mov r25,r24
 9355               	.LVL800:
 9356               	.L600:
 9357               	.LM910:
 9358 34d4 892F      		mov r24,r25
 9359               	/* epilogue start */
 9360 34d6 DF91      		pop r29
 9361 34d8 CF91      		pop r28
 9362               	.LVL801:
 9363 34da 0F91      		pop r16
 9364 34dc 0895      		ret
 9365               	.LFE83:
 9367               	.global	f_close
 9369               	f_close:
 9370               	.LFB84:
 9371               	.LM911:
 9372               	.LVL802:
 9373 34de CF93      		push r28
 9374 34e0 DF93      		push r29
 9375               	/* prologue: function */
 9376               	/* frame size = 0 */
 9377 34e2 EC01      		movw r28,r24
 9378               	.LM912:
 9379 34e4 0E94 0000 		call f_sync
 9380               	.LVL803:
 9381               	.LM913:
 9382 34e8 8823      		tst r24
 9383               	.LVL804:
 9384 34ea 01F4      		brne .L605
 9385 34ec 1882      		st Y,__zero_reg__
 9386 34ee 1982      		std Y+1,__zero_reg__
 9387               	.L605:
 9388               	.LVL805:
 9389               	/* epilogue start */
 9390               	.LM914:
 9391 34f0 DF91      		pop r29
 9392 34f2 CF91      		pop r28
 9393               	.LVL806:
 9394 34f4 0895      		ret
 9395               	.LFE84:
 9397               	.global	f_lseek
 9399               	f_lseek:
 9400               	.LFB85:
 9401               	.LM915:
 9402               	.LVL807:
 9403 34f6 2F92      		push r2
 9404 34f8 3F92      		push r3
 9405 34fa 4F92      		push r4
 9406 34fc 5F92      		push r5
 9407 34fe 6F92      		push r6
 9408 3500 7F92      		push r7
 9409 3502 8F92      		push r8
 9410 3504 9F92      		push r9
 9411 3506 AF92      		push r10
 9412 3508 BF92      		push r11
 9413 350a CF92      		push r12
 9414 350c DF92      		push r13
 9415 350e 0F93      		push r16
 9416 3510 1F93      		push r17
 9417 3512 DF93      		push r29
 9418 3514 CF93      		push r28
 9419 3516 CDB7      		in r28,__SP_L__
 9420 3518 DEB7      		in r29,__SP_H__
 9421 351a 2897      		sbiw r28,8
 9422 351c CDBF      		out __SP_L__,r28
 9423 351e DEBF      		out __SP_H__,r29
 9424               	/* prologue: function */
 9425               	/* frame size = 8 */
 9426 3520 8F83      		std Y+7,r24
 9427 3522 9887      		std Y+8,r25
 9428 3524 3A01      		movw r6,r20
 9429 3526 4B01      		movw r8,r22
 9430               	.LM916:
 9431 3528 DC01      		movw r26,r24
 9432 352a 1296      		adiw r26,2
 9433 352c 6D91      		ld r22,X+
 9434 352e 7C91      		ld r23,X
 9435 3530 1397      		sbiw r26,2+1
 9436 3532 8D91      		ld r24,X+
 9437 3534 9C91      		ld r25,X
 9438               	.LVL808:
 9439 3536 0E94 0000 		call validate
 9440               	.LVL809:
 9441 353a 182F      		mov r17,r24
 9442               	.LVL810:
 9443               	.LM917:
 9444 353c 8823      		tst r24
 9445 353e 01F0      		breq .+2
 9446 3540 00C0      		rjmp .L608
 9447               	.LVL811:
 9448               	.LM918:
 9449 3542 EF81      		ldd r30,Y+7
 9450 3544 F885      		ldd r31,Y+8
 9451 3546 8481      		ldd r24,Z+4
 9452               	.LVL812:
 9453 3548 87FD      		sbrc r24,7
 9454 354a 00C0      		rjmp .L635
 9455               	.L609:
 9456               	.LM919:
 9457 354c AF81      		ldd r26,Y+7
 9458 354e B885      		ldd r27,Y+8
 9459 3550 1A96      		adiw r26,10
 9460 3552 AD90      		ld r10,X+
 9461 3554 BD90      		ld r11,X+
 9462 3556 CD90      		ld r12,X+
 9463 3558 DC90      		ld r13,X
 9464 355a 1D97      		sbiw r26,10+3
 9465               	.LVL813:
 9466 355c A614      		cp r10,r6
 9467 355e B704      		cpc r11,r7
 9468 3560 C804      		cpc r12,r8
 9469 3562 D904      		cpc r13,r9
 9470 3564 00F4      		brsh .L610
 9471 3566 81FF      		sbrs r24,1
 9472 3568 00C0      		rjmp .L611
 9473               	.L610:
 9474 356a 6401      		movw r12,r8
 9475 356c 5301      		movw r10,r6
 9476               	.L611:
 9477               	.LM920:
 9478 356e EF81      		ldd r30,Y+7
 9479 3570 F885      		ldd r31,Y+8
 9480 3572 2681      		ldd r18,Z+6
 9481 3574 3781      		ldd r19,Z+7
 9482 3576 4085      		ldd r20,Z+8
 9483 3578 5185      		ldd r21,Z+9
 9484               	.LVL814:
 9485               	.LM921:
 9486 357a 1682      		std Z+6,__zero_reg__
 9487 357c 1782      		std Z+7,__zero_reg__
 9488 357e 1086      		std Z+8,__zero_reg__
 9489 3580 1186      		std Z+9,__zero_reg__
 9490 3582 8FEF      		ldi r24,lo8(-1)
 9491 3584 8583      		std Z+5,r24
 9492               	.LM922:
 9493 3586 A114      		cp r10,__zero_reg__
 9494 3588 B104      		cpc r11,__zero_reg__
 9495 358a C104      		cpc r12,__zero_reg__
 9496 358c D104      		cpc r13,__zero_reg__
 9497 358e 01F4      		brne .+2
 9498 3590 00C0      		rjmp .L612
 9499               	.LM923:
 9500 3592 0190      		ld __tmp_reg__,Z+
 9501 3594 F081      		ld r31,Z
 9502 3596 E02D      		mov r30,__tmp_reg__
 9503 3598 E983      		std Y+1,r30
 9504 359a FA83      		std Y+2,r31
 9505 359c 8281      		ldd r24,Z+2
 9506 359e 682E      		mov r6,r24
 9507               	.LVL815:
 9508 35a0 7724      		clr r7
 9509               	.LVL816:
 9510 35a2 8824      		clr r8
 9511 35a4 9924      		clr r9
 9512               	.LVL817:
 9513 35a6 89E0      		ldi r24,9
 9514 35a8 660C      	1:	lsl r6
 9515 35aa 771C      		rol r7
 9516 35ac 881C      		rol r8
 9517 35ae 991C      		rol r9
 9518 35b0 8A95      		dec r24
 9519 35b2 01F4      		brne 1b
 9520               	.LVL818:
 9521               	.LM924:
 9522 35b4 2115      		cp r18,__zero_reg__
 9523 35b6 3105      		cpc r19,__zero_reg__
 9524 35b8 4105      		cpc r20,__zero_reg__
 9525 35ba 5105      		cpc r21,__zero_reg__
 9526 35bc 01F0      		breq .L613
 9527 35be 1901      		movw r2,r18
 9528 35c0 2A01      		movw r4,r20
 9529 35c2 0894      		sec
 9530 35c4 2108      		sbc r2,__zero_reg__
 9531 35c6 3108      		sbc r3,__zero_reg__
 9532 35c8 4108      		sbc r4,__zero_reg__
 9533 35ca 5108      		sbc r5,__zero_reg__
 9534 35cc C601      		movw r24,r12
 9535 35ce B501      		movw r22,r10
 9536 35d0 6150      		subi r22,lo8(-(-1))
 9537 35d2 7040      		sbci r23,hi8(-(-1))
 9538 35d4 8040      		sbci r24,hlo8(-(-1))
 9539 35d6 9040      		sbci r25,hhi8(-(-1))
 9540 35d8 A401      		movw r20,r8
 9541 35da 9301      		movw r18,r6
 9542               	.LVL819:
 9543 35dc 0E94 0000 		call __udivmodsi4
 9544 35e0 2B83      		std Y+3,r18
 9545 35e2 3C83      		std Y+4,r19
 9546 35e4 4D83      		std Y+5,r20
 9547 35e6 5E83      		std Y+6,r21
 9548 35e8 C201      		movw r24,r4
 9549 35ea B101      		movw r22,r2
 9550 35ec A401      		movw r20,r8
 9551 35ee 9301      		movw r18,r6
 9552 35f0 0E94 0000 		call __udivmodsi4
 9553 35f4 8B81      		ldd r24,Y+3
 9554 35f6 9C81      		ldd r25,Y+4
 9555 35f8 AD81      		ldd r26,Y+5
 9556 35fa BE81      		ldd r27,Y+6
 9557 35fc 8217      		cp r24,r18
 9558 35fe 9307      		cpc r25,r19
 9559 3600 A407      		cpc r26,r20
 9560 3602 B507      		cpc r27,r21
 9561 3604 00F0      		brlo .L613
 9562               	.LM925:
 9563 3606 8827      		clr r24
 9564 3608 9927      		clr r25
 9565 360a DC01      		movw r26,r24
 9566 360c 8619      		sub r24,r6
 9567 360e 9709      		sbc r25,r7
 9568 3610 A809      		sbc r26,r8
 9569 3612 B909      		sbc r27,r9
 9570 3614 8221      		and r24,r2
 9571 3616 9321      		and r25,r3
 9572 3618 A421      		and r26,r4
 9573 361a B521      		and r27,r5
 9574 361c EF81      		ldd r30,Y+7
 9575 361e F885      		ldd r31,Y+8
 9576 3620 8683      		std Z+6,r24
 9577 3622 9783      		std Z+7,r25
 9578 3624 A087      		std Z+8,r26
 9579 3626 B187      		std Z+9,r27
 9580               	.LM926:
 9581 3628 A81A      		sub r10,r24
 9582 362a B90A      		sbc r11,r25
 9583 362c CA0A      		sbc r12,r26
 9584 362e DB0A      		sbc r13,r27
 9585               	.LM927:
 9586 3630 4289      		ldd r20,Z+18
 9587 3632 5389      		ldd r21,Z+19
 9588 3634 6489      		ldd r22,Z+20
 9589 3636 7589      		ldd r23,Z+21
 9590               	.LVL820:
 9591 3638 00C0      		rjmp .L614
 9592               	.LVL821:
 9593               	.L613:
 9594               	.LM928:
 9595 363a AF81      		ldd r26,Y+7
 9596 363c B885      		ldd r27,Y+8
 9597 363e 1E96      		adiw r26,14
 9598 3640 4D91      		ld r20,X+
 9599 3642 5D91      		ld r21,X+
 9600 3644 6D91      		ld r22,X+
 9601 3646 7C91      		ld r23,X
 9602 3648 5197      		sbiw r26,14+3
 9603               	.LVL822:
 9604               	.LM929:
 9605 364a 4115      		cp r20,__zero_reg__
 9606 364c 5105      		cpc r21,__zero_reg__
 9607 364e 6105      		cpc r22,__zero_reg__
 9608 3650 7105      		cpc r23,__zero_reg__
 9609 3652 01F4      		brne .L615
 9610               	.LM930:
 9611 3654 8981      		ldd r24,Y+1
 9612 3656 9A81      		ldd r25,Y+2
 9613 3658 40E0      		ldi r20,lo8(0)
 9614 365a 50E0      		ldi r21,hi8(0)
 9615 365c 60E0      		ldi r22,hlo8(0)
 9616 365e 70E0      		ldi r23,hhi8(0)
 9617               	.LVL823:
 9618 3660 0E94 0000 		call create_chain
 9619               	.LVL824:
 9620 3664 AB01      		movw r20,r22
 9621 3666 BC01      		movw r22,r24
 9622               	.LVL825:
 9623               	.LM931:
 9624 3668 4130      		cpi r20,lo8(1)
 9625 366a 5105      		cpc r21,__zero_reg__
 9626 366c 6105      		cpc r22,__zero_reg__
 9627 366e 7105      		cpc r23,__zero_reg__
 9628 3670 01F4      		brne .L616
 9629               	.L637:
 9630 3672 EF81      		ldd r30,Y+7
 9631 3674 F885      		ldd r31,Y+8
 9632 3676 8481      		ldd r24,Z+4
 9633 3678 8068      		ori r24,lo8(-128)
 9634 367a 8483      		std Z+4,r24
 9635               	.LVL826:
 9636               	.L635:
 9637 367c 12E0      		ldi r17,lo8(2)
 9638 367e 00C0      		rjmp .L608
 9639               	.LVL827:
 9640               	.L616:
 9641               	.LM932:
 9642 3680 4F3F      		cpi r20,lo8(-1)
 9643 3682 FFEF      		ldi r31,hi8(-1)
 9644 3684 5F07      		cpc r21,r31
 9645 3686 FFEF      		ldi r31,hlo8(-1)
 9646 3688 6F07      		cpc r22,r31
 9647 368a FFEF      		ldi r31,hhi8(-1)
 9648 368c 7F07      		cpc r23,r31
 9649 368e 01F0      		breq .L638
 9650               	.L617:
 9651               	.LM933:
 9652 3690 EF81      		ldd r30,Y+7
 9653 3692 F885      		ldd r31,Y+8
 9654 3694 4687      		std Z+14,r20
 9655 3696 5787      		std Z+15,r21
 9656 3698 608B      		std Z+16,r22
 9657 369a 718B      		std Z+17,r23
 9658               	.LVL828:
 9659               	.L615:
 9660               	.LM934:
 9661 369c AF81      		ldd r26,Y+7
 9662 369e B885      		ldd r27,Y+8
 9663 36a0 5296      		adiw r26,18
 9664 36a2 4D93      		st X+,r20
 9665 36a4 5D93      		st X+,r21
 9666 36a6 6D93      		st X+,r22
 9667 36a8 7C93      		st X,r23
 9668 36aa 5597      		sbiw r26,18+3
 9669               	.L614:
 9670               	.LM935:
 9671 36ac 4115      		cp r20,__zero_reg__
 9672 36ae 5105      		cpc r21,__zero_reg__
 9673 36b0 6105      		cpc r22,__zero_reg__
 9674 36b2 7105      		cpc r23,__zero_reg__
 9675 36b4 01F0      		breq .+2
 9676 36b6 00C0      		rjmp .L634
 9677 36b8 00C0      		rjmp .L612
 9678               	.L625:
 9679               	.LM936:
 9680 36ba EF81      		ldd r30,Y+7
 9681 36bc F885      		ldd r31,Y+8
 9682 36be 8481      		ldd r24,Z+4
 9683 36c0 2081      		ld r18,Z
 9684 36c2 3181      		ldd r19,Z+1
 9685               	.LVL829:
 9686 36c4 81FF      		sbrs r24,1
 9687 36c6 00C0      		rjmp .L619
 9688               	.LM937:
 9689 36c8 C901      		movw r24,r18
 9690 36ca 0E94 0000 		call create_chain
 9691               	.LVL830:
 9692 36ce AB01      		movw r20,r22
 9693 36d0 BC01      		movw r22,r24
 9694               	.LVL831:
 9695               	.LM938:
 9696 36d2 4115      		cp r20,__zero_reg__
 9697 36d4 5105      		cpc r21,__zero_reg__
 9698 36d6 6105      		cpc r22,__zero_reg__
 9699 36d8 7105      		cpc r23,__zero_reg__
 9700 36da 01F4      		brne .L620
 9701 36dc 6401      		movw r12,r8
 9702 36de 5301      		movw r10,r6
 9703 36e0 00C0      		rjmp .L621
 9704               	.L619:
 9705               	.LM939:
 9706 36e2 C901      		movw r24,r18
 9707 36e4 0E94 0000 		call get_fat
 9708               	.LVL832:
 9709 36e8 AB01      		movw r20,r22
 9710 36ea BC01      		movw r22,r24
 9711               	.LVL833:
 9712               	.L620:
 9713               	.LM940:
 9714 36ec 4F3F      		cpi r20,lo8(-1)
 9715 36ee FFEF      		ldi r31,hi8(-1)
 9716 36f0 5F07      		cpc r21,r31
 9717 36f2 FFEF      		ldi r31,hlo8(-1)
 9718 36f4 6F07      		cpc r22,r31
 9719 36f6 FFEF      		ldi r31,hhi8(-1)
 9720 36f8 7F07      		cpc r23,r31
 9721 36fa 01F4      		brne .L622
 9722               	.L638:
 9723 36fc AF81      		ldd r26,Y+7
 9724 36fe B885      		ldd r27,Y+8
 9725 3700 1496      		adiw r26,4
 9726 3702 8C91      		ld r24,X
 9727 3704 1497      		sbiw r26,4
 9728 3706 8068      		ori r24,lo8(-128)
 9729 3708 1496      		adiw r26,4
 9730 370a 8C93      		st X,r24
 9731 370c 00C0      		rjmp .L636
 9732               	.L622:
 9733               	.LM941:
 9734 370e 4230      		cpi r20,lo8(2)
 9735 3710 5105      		cpc r21,__zero_reg__
 9736 3712 6105      		cpc r22,__zero_reg__
 9737 3714 7105      		cpc r23,__zero_reg__
 9738 3716 00F4      		brsh .+2
 9739 3718 00C0      		rjmp .L637
 9740 371a AF81      		ldd r26,Y+7
 9741 371c B885      		ldd r27,Y+8
 9742 371e ED91      		ld r30,X+
 9743 3720 FC91      		ld r31,X
 9744 3722 828D      		ldd r24,Z+26
 9745 3724 938D      		ldd r25,Z+27
 9746 3726 A48D      		ldd r26,Z+28
 9747 3728 B58D      		ldd r27,Z+29
 9748 372a 4817      		cp r20,r24
 9749 372c 5907      		cpc r21,r25
 9750 372e 6A07      		cpc r22,r26
 9751 3730 7B07      		cpc r23,r27
 9752 3732 00F0      		brlo .+2
 9753 3734 00C0      		rjmp .L637
 9754               	.L624:
 9755               	.LM942:
 9756 3736 AF81      		ldd r26,Y+7
 9757 3738 B885      		ldd r27,Y+8
 9758 373a 5296      		adiw r26,18
 9759 373c 4D93      		st X+,r20
 9760 373e 5D93      		st X+,r21
 9761 3740 6D93      		st X+,r22
 9762 3742 7C93      		st X,r23
 9763 3744 5597      		sbiw r26,18+3
 9764               	.LM943:
 9765 3746 FD01      		movw r30,r26
 9766 3748 8681      		ldd r24,Z+6
 9767 374a 9781      		ldd r25,Z+7
 9768 374c A085      		ldd r26,Z+8
 9769 374e B185      		ldd r27,Z+9
 9770 3750 860D      		add r24,r6
 9771 3752 971D      		adc r25,r7
 9772 3754 A81D      		adc r26,r8
 9773 3756 B91D      		adc r27,r9
 9774 3758 8683      		std Z+6,r24
 9775 375a 9783      		std Z+7,r25
 9776 375c A087      		std Z+8,r26
 9777 375e B187      		std Z+9,r27
 9778               	.LM944:
 9779 3760 A618      		sub r10,r6
 9780 3762 B708      		sbc r11,r7
 9781 3764 C808      		sbc r12,r8
 9782 3766 D908      		sbc r13,r9
 9783               	.LVL834:
 9784               	.L634:
 9785               	.LM945:
 9786 3768 6A14      		cp r6,r10
 9787 376a 7B04      		cpc r7,r11
 9788 376c 8C04      		cpc r8,r12
 9789 376e 9D04      		cpc r9,r13
 9790 3770 00F4      		brsh .+2
 9791 3772 00C0      		rjmp .L625
 9792               	.L621:
 9793               	.LM946:
 9794 3774 EF81      		ldd r30,Y+7
 9795 3776 F885      		ldd r31,Y+8
 9796 3778 8681      		ldd r24,Z+6
 9797 377a 9781      		ldd r25,Z+7
 9798 377c A085      		ldd r26,Z+8
 9799 377e B185      		ldd r27,Z+9
 9800 3780 8A0D      		add r24,r10
 9801 3782 9B1D      		adc r25,r11
 9802 3784 AC1D      		adc r26,r12
 9803 3786 BD1D      		adc r27,r13
 9804 3788 8683      		std Z+6,r24
 9805 378a 9783      		std Z+7,r25
 9806 378c A087      		std Z+8,r26
 9807 378e B187      		std Z+9,r27
 9808               	.LM947:
 9809 3790 D601      		movw r26,r12
 9810 3792 C501      		movw r24,r10
 9811 3794 09E0      		ldi r16,9
 9812 3796 B695      	1:	lsr r27
 9813 3798 A795      		ror r26
 9814 379a 9795      		ror r25
 9815 379c 8795      		ror r24
 9816 379e 0A95      		dec r16
 9817 37a0 01F4      		brne 1b
 9818 37a2 082F      		mov r16,r24
 9819 37a4 8583      		std Z+5,r24
 9820               	.LM948:
 9821 37a6 8FEF      		ldi r24,lo8(511)
 9822 37a8 91E0      		ldi r25,hi8(511)
 9823 37aa A0E0      		ldi r26,hlo8(511)
 9824 37ac B0E0      		ldi r27,hhi8(511)
 9825 37ae A822      		and r10,r24
 9826 37b0 B922      		and r11,r25
 9827 37b2 CA22      		and r12,r26
 9828 37b4 DB22      		and r13,r27
 9829 37b6 A114      		cp r10,__zero_reg__
 9830 37b8 B104      		cpc r11,__zero_reg__
 9831 37ba C104      		cpc r12,__zero_reg__
 9832 37bc D104      		cpc r13,__zero_reg__
 9833 37be 01F4      		brne .+2
 9834 37c0 00C0      		rjmp .L612
 9835               	.LM949:
 9836 37c2 8080      		ld r8,Z
 9837 37c4 9180      		ldd r9,Z+1
 9838               	.LVL835:
 9839               	.LBB787:
 9840               	.LBB788:
 9841               	.LM950:
 9842 37c6 3EEF      		ldi r19,lo8(-2)
 9843 37c8 A32E      		mov r10,r19
 9844 37ca 3FEF      		ldi r19,hi8(-2)
 9845 37cc B32E      		mov r11,r19
 9846 37ce 3FEF      		ldi r19,hlo8(-2)
 9847 37d0 C32E      		mov r12,r19
 9848 37d2 3FEF      		ldi r19,hhi8(-2)
 9849 37d4 D32E      		mov r13,r19
 9850               	.LVL836:
 9851 37d6 A40E      		add r10,r20
 9852 37d8 B51E      		adc r11,r21
 9853 37da C61E      		adc r12,r22
 9854 37dc D71E      		adc r13,r23
 9855               	.LM951:
 9856 37de F401      		movw r30,r8
 9857 37e0 828D      		ldd r24,Z+26
 9858 37e2 938D      		ldd r25,Z+27
 9859 37e4 A48D      		ldd r26,Z+28
 9860 37e6 B58D      		ldd r27,Z+29
 9861 37e8 0297      		sbiw r24,2
 9862 37ea A109      		sbc r26,__zero_reg__
 9863 37ec B109      		sbc r27,__zero_reg__
 9864 37ee A816      		cp r10,r24
 9865 37f0 B906      		cpc r11,r25
 9866 37f2 CA06      		cpc r12,r26
 9867 37f4 DB06      		cpc r13,r27
 9868 37f6 00F4      		brsh .L626
 9869               	.LM952:
 9870 37f8 2281      		ldd r18,Z+2
 9871               	.LVL837:
 9872 37fa 30E0      		ldi r19,lo8(0)
 9873 37fc 40E0      		ldi r20,lo8(0)
 9874 37fe 50E0      		ldi r21,hi8(0)
 9875               	.LVL838:
 9876 3800 C601      		movw r24,r12
 9877 3802 B501      		movw r22,r10
 9878 3804 0E94 0000 		call __mulsi3
 9879 3808 9B01      		movw r18,r22
 9880 380a AC01      		movw r20,r24
 9881               	.LVL839:
 9882 380c F401      		movw r30,r8
 9883 380e 86A1      		ldd r24,Z+38
 9884 3810 97A1      		ldd r25,Z+39
 9885 3812 A0A5      		ldd r26,Z+40
 9886 3814 B1A5      		ldd r27,Z+41
 9887 3816 280F      		add r18,r24
 9888 3818 391F      		adc r19,r25
 9889 381a 4A1F      		adc r20,r26
 9890 381c 5B1F      		adc r21,r27
 9891               	.LBE788:
 9892               	.LBE787:
 9893               	.LM953:
 9894 381e 2115      		cp r18,__zero_reg__
 9895 3820 3105      		cpc r19,__zero_reg__
 9896 3822 4105      		cpc r20,__zero_reg__
 9897 3824 5105      		cpc r21,__zero_reg__
 9898 3826 01F4      		brne .L627
 9899               	.LVL840:
 9900               	.L626:
 9901 3828 AF81      		ldd r26,Y+7
 9902 382a B885      		ldd r27,Y+8
 9903 382c 1496      		adiw r26,4
 9904 382e 8C91      		ld r24,X
 9905 3830 1497      		sbiw r26,4
 9906 3832 8068      		ori r24,lo8(-128)
 9907 3834 1496      		adiw r26,4
 9908 3836 8C93      		st X,r24
 9909 3838 00C0      		rjmp .L635
 9910               	.LVL841:
 9911               	.L627:
 9912               	.LM954:
 9913 383a 5901      		movw r10,r18
 9914 383c 6A01      		movw r12,r20
 9915               	.LVL842:
 9916 383e A00E      		add r10,r16
 9917 3840 B11C      		adc r11,__zero_reg__
 9918 3842 C11C      		adc r12,__zero_reg__
 9919 3844 D11C      		adc r13,__zero_reg__
 9920               	.LVL843:
 9921               	.LM955:
 9922 3846 0F5F      		subi r16,lo8(-(1))
 9923 3848 EF81      		ldd r30,Y+7
 9924 384a F885      		ldd r31,Y+8
 9925 384c 0583      		std Z+5,r16
 9926 384e 00C0      		rjmp .L628
 9927               	.LVL844:
 9928               	.L612:
 9929 3850 AA24      		clr r10
 9930 3852 BB24      		clr r11
 9931 3854 6501      		movw r12,r10
 9932               	.LVL845:
 9933               	.L628:
 9934               	.LM956:
 9935 3856 EF81      		ldd r30,Y+7
 9936 3858 F885      		ldd r31,Y+8
 9937 385a 8681      		ldd r24,Z+6
 9938 385c 9781      		ldd r25,Z+7
 9939 385e A085      		ldd r26,Z+8
 9940 3860 B185      		ldd r27,Z+9
 9941 3862 9170      		andi r25,hi8(511)
 9942 3864 A070      		andi r26,hlo8(511)
 9943 3866 B070      		andi r27,hhi8(511)
 9944 3868 0097      		sbiw r24,0
 9945 386a A105      		cpc r26,__zero_reg__
 9946 386c B105      		cpc r27,__zero_reg__
 9947 386e 01F4      		brne .+2
 9948 3870 00C0      		rjmp .L629
 9949 3872 2689      		ldd r18,Z+22
 9950 3874 3789      		ldd r19,Z+23
 9951 3876 408D      		ldd r20,Z+24
 9952 3878 518D      		ldd r21,Z+25
 9953               	.LVL846:
 9954 387a A216      		cp r10,r18
 9955 387c B306      		cpc r11,r19
 9956 387e C406      		cpc r12,r20
 9957 3880 D506      		cpc r13,r21
 9958 3882 01F0      		breq .L629
 9959               	.LM957:
 9960 3884 8481      		ldd r24,Z+4
 9961 3886 86FF      		sbrs r24,6
 9962 3888 00C0      		rjmp .L630
 9963               	.LM958:
 9964 388a 0190      		ld __tmp_reg__,Z+
 9965 388c F081      		ld r31,Z
 9966 388e E02D      		mov r30,__tmp_reg__
 9967 3890 6F81      		ldd r22,Y+7
 9968 3892 7885      		ldd r23,Y+8
 9969 3894 605E      		subi r22,lo8(-(32))
 9970 3896 7F4F      		sbci r23,hi8(-(32))
 9971 3898 8181      		ldd r24,Z+1
 9972 389a 01E0      		ldi r16,lo8(1)
 9973 389c 0E94 0000 		call disk_write
 9974               	.LVL847:
 9975 38a0 AF81      		ldd r26,Y+7
 9976 38a2 B885      		ldd r27,Y+8
 9977 38a4 1496      		adiw r26,4
 9978 38a6 9C91      		ld r25,X
 9979 38a8 1497      		sbiw r26,4
 9980 38aa 8823      		tst r24
 9981 38ac 01F0      		breq .L631
 9982               	.LM959:
 9983 38ae 9068      		ori r25,lo8(-128)
 9984 38b0 1496      		adiw r26,4
 9985 38b2 9C93      		st X,r25
 9986 38b4 00C0      		rjmp .L636
 9987               	.L631:
 9988               	.LM960:
 9989 38b6 9F7B      		andi r25,lo8(-65)
 9990 38b8 EF81      		ldd r30,Y+7
 9991 38ba F885      		ldd r31,Y+8
 9992 38bc 9483      		std Z+4,r25
 9993               	.LVL848:
 9994               	.L630:
 9995               	.LM961:
 9996 38be AF81      		ldd r26,Y+7
 9997 38c0 B885      		ldd r27,Y+8
 9998 38c2 ED91      		ld r30,X+
 9999 38c4 FC91      		ld r31,X
 10000 38c6 1197      		sbiw r26,1
 10001 38c8 BD01      		movw r22,r26
 10002 38ca 605E      		subi r22,lo8(-(32))
 10003 38cc 7F4F      		sbci r23,hi8(-(32))
 10004 38ce 8181      		ldd r24,Z+1
 10005 38d0 A601      		movw r20,r12
 10006 38d2 9501      		movw r18,r10
 10007 38d4 01E0      		ldi r16,lo8(1)
 10008 38d6 0E94 0000 		call disk_read
 10009               	.LVL849:
 10010 38da 8823      		tst r24
 10011 38dc 01F0      		breq .L632
 10012               	.LM962:
 10013 38de EF81      		ldd r30,Y+7
 10014 38e0 F885      		ldd r31,Y+8
 10015 38e2 8481      		ldd r24,Z+4
 10016 38e4 8068      		ori r24,lo8(-128)
 10017 38e6 8483      		std Z+4,r24
 10018               	.LVL850:
 10019               	.L636:
 10020 38e8 11E0      		ldi r17,lo8(1)
 10021 38ea 00C0      		rjmp .L608
 10022               	.LVL851:
 10023               	.L632:
 10024               	.LM963:
 10025 38ec AF81      		ldd r26,Y+7
 10026 38ee B885      		ldd r27,Y+8
 10027 38f0 5696      		adiw r26,22
 10028 38f2 AD92      		st X+,r10
 10029 38f4 BD92      		st X+,r11
 10030 38f6 CD92      		st X+,r12
 10031 38f8 DC92      		st X,r13
 10032 38fa 5997      		sbiw r26,22+3
 10033               	.LVL852:
 10034               	.L629:
 10035               	.LM964:
 10036 38fc EF81      		ldd r30,Y+7
 10037 38fe F885      		ldd r31,Y+8
 10038 3900 2681      		ldd r18,Z+6
 10039 3902 3781      		ldd r19,Z+7
 10040 3904 4085      		ldd r20,Z+8
 10041 3906 5185      		ldd r21,Z+9
 10042               	.LVL853:
 10043 3908 8285      		ldd r24,Z+10
 10044 390a 9385      		ldd r25,Z+11
 10045 390c A485      		ldd r26,Z+12
 10046 390e B585      		ldd r27,Z+13
 10047 3910 8217      		cp r24,r18
 10048 3912 9307      		cpc r25,r19
 10049 3914 A407      		cpc r26,r20
 10050 3916 B507      		cpc r27,r21
 10051 3918 00F4      		brsh .L608
 10052               	.LM965:
 10053 391a 2287      		std Z+10,r18
 10054 391c 3387      		std Z+11,r19
 10055 391e 4487      		std Z+12,r20
 10056 3920 5587      		std Z+13,r21
 10057               	.LM966:
 10058 3922 8481      		ldd r24,Z+4
 10059 3924 8062      		ori r24,lo8(32)
 10060 3926 8483      		std Z+4,r24
 10061               	.LVL854:
 10062               	.L608:
 10063               	.LM967:
 10064 3928 812F      		mov r24,r17
 10065               	/* epilogue start */
 10066 392a 2896      		adiw r28,8
 10067 392c CDBF      		out __SP_L__,r28
 10068 392e DEBF      		out __SP_H__,r29
 10069 3930 CF91      		pop r28
 10070 3932 DF91      		pop r29
 10071 3934 1F91      		pop r17
 10072               	.LVL855:
 10073 3936 0F91      		pop r16
 10074 3938 DF90      		pop r13
 10075 393a CF90      		pop r12
 10076 393c BF90      		pop r11
 10077 393e AF90      		pop r10
 10078               	.LVL856:
 10079 3940 9F90      		pop r9
 10080 3942 8F90      		pop r8
 10081               	.LVL857:
 10082 3944 7F90      		pop r7
 10083               	.LVL858:
 10084 3946 6F90      		pop r6
 10085               	.LVL859:
 10086 3948 5F90      		pop r5
 10087 394a 4F90      		pop r4
 10088 394c 3F90      		pop r3
 10089 394e 2F90      		pop r2
 10090 3950 0895      		ret
 10091               	.LFE85:
 10093               	.global	f_opendir
 10095               	f_opendir:
 10096               	.LFB86:
 10097               	.LM968:
 10098               	.LVL860:
 10099 3952 0F93      		push r16
 10100 3954 1F93      		push r17
 10101 3956 DF93      		push r29
 10102 3958 CF93      		push r28
 10103 395a CDB7      		in r28,__SP_L__
 10104 395c DEB7      		in r29,__SP_H__
 10105 395e 2E97      		sbiw r28,14
 10106 3960 CDBF      		out __SP_L__,r28
 10107 3962 DEBF      		out __SP_H__,r29
 10108               	/* prologue: function */
 10109               	/* frame size = 14 */
 10110 3964 8C01      		movw r16,r24
 10111 3966 6D87      		std Y+13,r22
 10112 3968 7E87      		std Y+14,r23
 10113               	.LM969:
 10114 396a CE01      		movw r24,r28
 10115               	.LVL861:
 10116 396c 0D96      		adiw r24,13
 10117 396e B801      		movw r22,r16
 10118               	.LVL862:
 10119 3970 40E0      		ldi r20,lo8(0)
 10120 3972 0E94 0000 		call chk_mounted
 10121               	.LM970:
 10122 3976 8823      		tst r24
 10123               	.LVL863:
 10124 3978 01F0      		breq .+2
 10125 397a 00C0      		rjmp .L640
 10126               	.LM971:
 10127 397c CE01      		movw r24,r28
 10128               	.LVL864:
 10129 397e 0196      		adiw r24,1
 10130 3980 D801      		movw r26,r16
 10131 3982 5496      		adiw r26,20
 10132 3984 8D93      		st X+,r24
 10133 3986 9C93      		st X,r25
 10134 3988 5597      		sbiw r26,20+1
 10135               	.LM972:
 10136 398a 6D85      		ldd r22,Y+13
 10137 398c 7E85      		ldd r23,Y+14
 10138 398e C801      		movw r24,r16
 10139 3990 0E94 0000 		call follow_path
 10140               	.LM973:
 10141 3994 8823      		tst r24
 10142               	.LVL865:
 10143 3996 01F4      		brne .L641
 10144               	.LM974:
 10145 3998 D801      		movw r26,r16
 10146 399a 5296      		adiw r26,18
 10147 399c ED91      		ld r30,X+
 10148 399e FC91      		ld r31,X
 10149 39a0 5397      		sbiw r26,18+1
 10150               	.LVL866:
 10151               	.LM975:
 10152 39a2 3097      		sbiw r30,0
 10153 39a4 01F0      		breq .L642
 10154               	.LM976:
 10155 39a6 8385      		ldd r24,Z+11
 10156               	.LVL867:
 10157 39a8 84FF      		sbrs r24,4
 10158 39aa 00C0      		rjmp .L645
 10159               	.L643:
 10160               	.LM977:
 10161 39ac 3589      		ldd r19,Z+21
 10162 39ae 20E0      		ldi r18,lo8(0)
 10163 39b0 8489      		ldd r24,Z+20
 10164 39b2 90E0      		ldi r25,lo8(0)
 10165 39b4 282B      		or r18,r24
 10166 39b6 392B      		or r19,r25
 10167 39b8 40E0      		ldi r20,lo8(0)
 10168 39ba 50E0      		ldi r21,hi8(0)
 10169 39bc A901      		movw r20,r18
 10170 39be 3327      		clr r19
 10171 39c0 2227      		clr r18
 10172 39c2 938D      		ldd r25,Z+27
 10173 39c4 80E0      		ldi r24,lo8(0)
 10174 39c6 628D      		ldd r22,Z+26
 10175 39c8 70E0      		ldi r23,lo8(0)
 10176 39ca 862B      		or r24,r22
 10177 39cc 972B      		or r25,r23
 10178 39ce A0E0      		ldi r26,lo8(0)
 10179 39d0 B0E0      		ldi r27,hi8(0)
 10180 39d2 282B      		or r18,r24
 10181 39d4 392B      		or r19,r25
 10182 39d6 4A2B      		or r20,r26
 10183 39d8 5B2B      		or r21,r27
 10184 39da F801      		movw r30,r16
 10185               	.LVL868:
 10186 39dc 2683      		std Z+6,r18
 10187 39de 3783      		std Z+7,r19
 10188 39e0 4087      		std Z+8,r20
 10189 39e2 5187      		std Z+9,r21
 10190               	.LVL869:
 10191               	.L642:
 10192               	.LM978:
 10193 39e4 D801      		movw r26,r16
 10194 39e6 ED91      		ld r30,X+
 10195 39e8 FC91      		ld r31,X
 10196 39ea 1197      		sbiw r26,1
 10197               	.LVL870:
 10198 39ec 8681      		ldd r24,Z+6
 10199 39ee 9781      		ldd r25,Z+7
 10200               	.LVL871:
 10201 39f0 1296      		adiw r26,2
 10202 39f2 8D93      		st X+,r24
 10203 39f4 9C93      		st X,r25
 10204 39f6 1397      		sbiw r26,2+1
 10205               	.LM979:
 10206 39f8 C801      		movw r24,r16
 10207 39fa 60E0      		ldi r22,lo8(0)
 10208 39fc 70E0      		ldi r23,hi8(0)
 10209 39fe 0E94 0000 		call dir_seek
 10210               	.LVL872:
 10211               	.L641:
 10212               	.LM980:
 10213 3a02 8430      		cpi r24,lo8(4)
 10214 3a04 01F4      		brne .L640
 10215               	.LVL873:
 10216               	.L645:
 10217 3a06 85E0      		ldi r24,lo8(5)
 10218               	.L640:
 10219               	.LVL874:
 10220               	/* epilogue start */
 10221               	.LM981:
 10222 3a08 2E96      		adiw r28,14
 10223 3a0a CDBF      		out __SP_L__,r28
 10224 3a0c DEBF      		out __SP_H__,r29
 10225 3a0e CF91      		pop r28
 10226 3a10 DF91      		pop r29
 10227 3a12 1F91      		pop r17
 10228 3a14 0F91      		pop r16
 10229               	.LVL875:
 10230 3a16 0895      		ret
 10231               	.LFE86:
 10233               	.global	f_readdir
 10235               	f_readdir:
 10236               	.LFB87:
 10237               	.LM982:
 10238               	.LVL876:
 10239 3a18 EF92      		push r14
 10240 3a1a FF92      		push r15
 10241 3a1c 0F93      		push r16
 10242 3a1e 1F93      		push r17
 10243 3a20 DF93      		push r29
 10244 3a22 CF93      		push r28
 10245 3a24 CDB7      		in r28,__SP_L__
 10246 3a26 DEB7      		in r29,__SP_H__
 10247 3a28 2C97      		sbiw r28,12
 10248 3a2a CDBF      		out __SP_L__,r28
 10249 3a2c DEBF      		out __SP_H__,r29
 10250               	/* prologue: function */
 10251               	/* frame size = 12 */
 10252 3a2e 8C01      		movw r16,r24
 10253 3a30 7B01      		movw r14,r22
 10254               	.LM983:
 10255 3a32 FC01      		movw r30,r24
 10256 3a34 6281      		ldd r22,Z+2
 10257 3a36 7381      		ldd r23,Z+3
 10258               	.LVL877:
 10259 3a38 8081      		ld r24,Z
 10260 3a3a 9181      		ldd r25,Z+1
 10261               	.LVL878:
 10262 3a3c 0E94 0000 		call validate
 10263               	.LM984:
 10264 3a40 8823      		tst r24
 10265               	.LVL879:
 10266 3a42 01F4      		brne .L648
 10267               	.LM985:
 10268 3a44 CE01      		movw r24,r28
 10269               	.LVL880:
 10270 3a46 0196      		adiw r24,1
 10271 3a48 F801      		movw r30,r16
 10272 3a4a 848B      		std Z+20,r24
 10273 3a4c 958B      		std Z+21,r25
 10274               	.LM986:
 10275 3a4e E114      		cp r14,__zero_reg__
 10276 3a50 F104      		cpc r15,__zero_reg__
 10277 3a52 01F4      		brne .L649
 10278               	.LM987:
 10279 3a54 C801      		movw r24,r16
 10280 3a56 60E0      		ldi r22,lo8(0)
 10281 3a58 70E0      		ldi r23,hi8(0)
 10282 3a5a 0E94 0000 		call dir_seek
 10283 3a5e 00C0      		rjmp .L648
 10284               	.L649:
 10285               	.LM988:
 10286 3a60 C801      		movw r24,r16
 10287 3a62 0E94 0000 		call dir_read
 10288               	.LM989:
 10289 3a66 8430      		cpi r24,lo8(4)
 10290               	.LVL881:
 10291 3a68 01F4      		brne .L650
 10292               	.LM990:
 10293 3a6a F801      		movw r30,r16
 10294 3a6c 1686      		std Z+14,__zero_reg__
 10295 3a6e 1786      		std Z+15,__zero_reg__
 10296 3a70 108A      		std Z+16,__zero_reg__
 10297 3a72 118A      		std Z+17,__zero_reg__
 10298 3a74 00C0      		rjmp .L651
 10299               	.L650:
 10300               	.LM991:
 10301 3a76 8823      		tst r24
 10302 3a78 01F4      		brne .L648
 10303               	.L651:
 10304               	.LM992:
 10305 3a7a C801      		movw r24,r16
 10306               	.LVL882:
 10307 3a7c B701      		movw r22,r14
 10308 3a7e 0E94 0000 		call get_fileinfo
 10309               	.LM993:
 10310 3a82 C801      		movw r24,r16
 10311 3a84 60E0      		ldi r22,lo8(0)
 10312 3a86 0E94 0000 		call dir_next
 10313               	.LM994:
 10314 3a8a 8430      		cpi r24,lo8(4)
 10315               	.LVL883:
 10316 3a8c 01F4      		brne .L648
 10317               	.LM995:
 10318 3a8e F801      		movw r30,r16
 10319 3a90 1686      		std Z+14,__zero_reg__
 10320 3a92 1786      		std Z+15,__zero_reg__
 10321 3a94 108A      		std Z+16,__zero_reg__
 10322 3a96 118A      		std Z+17,__zero_reg__
 10323 3a98 80E0      		ldi r24,lo8(0)
 10324               	.L648:
 10325               	.LVL884:
 10326               	/* epilogue start */
 10327               	.LM996:
 10328 3a9a 2C96      		adiw r28,12
 10329 3a9c CDBF      		out __SP_L__,r28
 10330 3a9e DEBF      		out __SP_H__,r29
 10331 3aa0 CF91      		pop r28
 10332 3aa2 DF91      		pop r29
 10333 3aa4 1F91      		pop r17
 10334 3aa6 0F91      		pop r16
 10335               	.LVL885:
 10336 3aa8 FF90      		pop r15
 10337 3aaa EF90      		pop r14
 10338               	.LVL886:
 10339 3aac 0895      		ret
 10340               	.LFE87:
 10342               	.global	f_stat
 10344               	f_stat:
 10345               	.LFB88:
 10346               	.LM997:
 10347               	.LVL887:
 10348 3aae CF92      		push r12
 10349 3ab0 DF92      		push r13
 10350 3ab2 EF92      		push r14
 10351 3ab4 FF92      		push r15
 10352 3ab6 1F93      		push r17
 10353 3ab8 DF93      		push r29
 10354 3aba CF93      		push r28
 10355 3abc CDB7      		in r28,__SP_L__
 10356 3abe DEB7      		in r29,__SP_H__
 10357 3ac0 A497      		sbiw r28,36
 10358 3ac2 CDBF      		out __SP_L__,r28
 10359 3ac4 DEBF      		out __SP_H__,r29
 10360               	/* prologue: function */
 10361               	/* frame size = 36 */
 10362 3ac6 8BA3      		std Y+35,r24
 10363 3ac8 9CA3      		std Y+36,r25
 10364 3aca 6B01      		movw r12,r22
 10365               	.LM998:
 10366 3acc 2DE0      		ldi r18,lo8(13)
 10367 3ace E22E      		mov r14,r18
 10368 3ad0 F12C      		mov r15,__zero_reg__
 10369 3ad2 EC0E      		add r14,r28
 10370 3ad4 FD1E      		adc r15,r29
 10371 3ad6 CE01      		movw r24,r28
 10372               	.LVL888:
 10373 3ad8 8396      		adiw r24,35
 10374 3ada B701      		movw r22,r14
 10375               	.LVL889:
 10376 3adc 40E0      		ldi r20,lo8(0)
 10377 3ade 0E94 0000 		call chk_mounted
 10378 3ae2 182F      		mov r17,r24
 10379               	.LVL890:
 10380               	.LM999:
 10381 3ae4 8823      		tst r24
 10382 3ae6 01F4      		brne .L654
 10383               	.LVL891:
 10384               	.LM1000:
 10385 3ae8 CE01      		movw r24,r28
 10386               	.LVL892:
 10387 3aea 0196      		adiw r24,1
 10388 3aec 89A3      		std Y+33,r24
 10389 3aee 9AA3      		std Y+34,r25
 10390               	.LM1001:
 10391 3af0 6BA1      		ldd r22,Y+35
 10392 3af2 7CA1      		ldd r23,Y+36
 10393 3af4 C701      		movw r24,r14
 10394 3af6 0E94 0000 		call follow_path
 10395 3afa 182F      		mov r17,r24
 10396               	.LM1002:
 10397 3afc 8823      		tst r24
 10398 3afe 01F4      		brne .L654
 10399               	.LVL893:
 10400               	.LM1003:
 10401 3b00 8F8D      		ldd r24,Y+31
 10402 3b02 98A1      		ldd r25,Y+32
 10403               	.LVL894:
 10404 3b04 892B      		or r24,r25
 10405 3b06 01F4      		brne .L655
 10406 3b08 16E0      		ldi r17,lo8(6)
 10407 3b0a 00C0      		rjmp .L654
 10408               	.L655:
 10409               	.LM1004:
 10410 3b0c C701      		movw r24,r14
 10411 3b0e B601      		movw r22,r12
 10412 3b10 0E94 0000 		call get_fileinfo
 10413               	.LVL895:
 10414               	.L654:
 10415               	.LM1005:
 10416 3b14 812F      		mov r24,r17
 10417               	/* epilogue start */
 10418 3b16 A496      		adiw r28,36
 10419 3b18 CDBF      		out __SP_L__,r28
 10420 3b1a DEBF      		out __SP_H__,r29
 10421 3b1c CF91      		pop r28
 10422 3b1e DF91      		pop r29
 10423 3b20 1F91      		pop r17
 10424               	.LVL896:
 10425 3b22 FF90      		pop r15
 10426 3b24 EF90      		pop r14
 10427 3b26 DF90      		pop r13
 10428 3b28 CF90      		pop r12
 10429               	.LVL897:
 10430 3b2a 0895      		ret
 10431               	.LFE88:
 10433               	.global	f_getfree
 10435               	f_getfree:
 10436               	.LFB89:
 10437               	.LM1006:
 10438               	.LVL898:
 10439 3b2c 2F92      		push r2
 10440 3b2e 3F92      		push r3
 10441 3b30 4F92      		push r4
 10442 3b32 5F92      		push r5
 10443 3b34 6F92      		push r6
 10444 3b36 7F92      		push r7
 10445 3b38 8F92      		push r8
 10446 3b3a 9F92      		push r9
 10447 3b3c AF92      		push r10
 10448 3b3e BF92      		push r11
 10449 3b40 CF92      		push r12
 10450 3b42 DF92      		push r13
 10451 3b44 EF92      		push r14
 10452 3b46 FF92      		push r15
 10453 3b48 0F93      		push r16
 10454 3b4a 1F93      		push r17
 10455 3b4c DF93      		push r29
 10456 3b4e CF93      		push r28
 10457 3b50 CDB7      		in r28,__SP_L__
 10458 3b52 DEB7      		in r29,__SP_H__
 10459 3b54 2997      		sbiw r28,9
 10460 3b56 CDBF      		out __SP_L__,r28
 10461 3b58 DEBF      		out __SP_H__,r29
 10462               	/* prologue: function */
 10463               	/* frame size = 9 */
 10464 3b5a 8983      		std Y+1,r24
 10465 3b5c 9A83      		std Y+2,r25
 10466 3b5e 6C83      		std Y+4,r22
 10467 3b60 7D83      		std Y+5,r23
 10468 3b62 2A01      		movw r4,r20
 10469               	.LM1007:
 10470 3b64 CE01      		movw r24,r28
 10471               	.LVL899:
 10472 3b66 0196      		adiw r24,1
 10473 3b68 BA01      		movw r22,r20
 10474               	.LVL900:
 10475 3b6a 40E0      		ldi r20,lo8(0)
 10476               	.LVL901:
 10477 3b6c 0E94 0000 		call chk_mounted
 10478               	.LM1008:
 10479 3b70 8823      		tst r24
 10480               	.LVL902:
 10481 3b72 01F0      		breq .+2
 10482 3b74 00C0      		rjmp .L659
 10483               	.LM1009:
 10484 3b76 D201      		movw r26,r4
 10485 3b78 ED91      		ld r30,X+
 10486 3b7a FC91      		ld r31,X
 10487 3b7c 2685      		ldd r18,Z+14
 10488 3b7e 3785      		ldd r19,Z+15
 10489 3b80 4089      		ldd r20,Z+16
 10490 3b82 5189      		ldd r21,Z+17
 10491 3b84 E28C      		ldd r14,Z+26
 10492 3b86 F38C      		ldd r15,Z+27
 10493 3b88 048D      		ldd r16,Z+28
 10494 3b8a 158D      		ldd r17,Z+29
 10495               	.LVL903:
 10496 3b8c D801      		movw r26,r16
 10497 3b8e C701      		movw r24,r14
 10498               	.LVL904:
 10499 3b90 0297      		sbiw r24,2
 10500 3b92 A109      		sbc r26,__zero_reg__
 10501 3b94 B109      		sbc r27,__zero_reg__
 10502 3b96 8217      		cp r24,r18
 10503 3b98 9307      		cpc r25,r19
 10504 3b9a A407      		cpc r26,r20
 10505 3b9c B507      		cpc r27,r21
 10506 3b9e 00F0      		brlo .L660
 10507               	.LM1010:
 10508 3ba0 EC81      		ldd r30,Y+4
 10509 3ba2 FD81      		ldd r31,Y+5
 10510 3ba4 2083      		st Z,r18
 10511 3ba6 3183      		std Z+1,r19
 10512 3ba8 4283      		std Z+2,r20
 10513 3baa 5383      		std Z+3,r21
 10514 3bac 00C0      		rjmp .L677
 10515               	.L660:
 10516               	.LM1011:
 10517 3bae 3080      		ld r3,Z
 10518 3bb0 3B82      		std Y+3,r3
 10519               	.LVL905:
 10520               	.LM1012:
 10521 3bb2 232D      		mov r18,r3
 10522 3bb4 2130      		cpi r18,lo8(1)
 10523 3bb6 01F4      		brne .L661
 10524 3bb8 AA24      		clr r10
 10525 3bba BB24      		clr r11
 10526 3bbc 6501      		movw r12,r10
 10527               	.LVL906:
 10528 3bbe 92E0      		ldi r25,lo8(2)
 10529 3bc0 E92E      		mov r14,r25
 10530 3bc2 F12C      		mov r15,__zero_reg__
 10531 3bc4 012D      		mov r16,__zero_reg__
 10532 3bc6 112D      		mov r17,__zero_reg__
 10533               	.LVL907:
 10534               	.L665:
 10535               	.LM1013:
 10536 3bc8 D201      		movw r26,r4
 10537 3bca 8D91      		ld r24,X+
 10538 3bcc 9C91      		ld r25,X
 10539 3bce B801      		movw r22,r16
 10540 3bd0 A701      		movw r20,r14
 10541 3bd2 0E94 0000 		call get_fat
 10542               	.LVL908:
 10543               	.LM1014:
 10544 3bd6 6F3F      		cpi r22,lo8(-1)
 10545 3bd8 BFEF      		ldi r27,hi8(-1)
 10546 3bda 7B07      		cpc r23,r27
 10547 3bdc BFEF      		ldi r27,hlo8(-1)
 10548 3bde 8B07      		cpc r24,r27
 10549 3be0 BFEF      		ldi r27,hhi8(-1)
 10550 3be2 9B07      		cpc r25,r27
 10551               	.LVL909:
 10552 3be4 01F4      		brne .L662
 10553 3be6 81E0      		ldi r24,lo8(1)
 10554               	.LVL910:
 10555 3be8 00C0      		rjmp .L659
 10556               	.LVL911:
 10557               	.L662:
 10558               	.LM1015:
 10559 3bea 6130      		cpi r22,lo8(1)
 10560 3bec 7105      		cpc r23,__zero_reg__
 10561 3bee 8105      		cpc r24,__zero_reg__
 10562 3bf0 9105      		cpc r25,__zero_reg__
 10563 3bf2 01F4      		brne .L663
 10564 3bf4 82E0      		ldi r24,lo8(2)
 10565               	.LVL912:
 10566 3bf6 00C0      		rjmp .L659
 10567               	.LVL913:
 10568               	.L663:
 10569               	.LM1016:
 10570 3bf8 6115      		cp r22,__zero_reg__
 10571 3bfa 7105      		cpc r23,__zero_reg__
 10572 3bfc 8105      		cpc r24,__zero_reg__
 10573 3bfe 9105      		cpc r25,__zero_reg__
 10574 3c00 01F4      		brne .L664
 10575 3c02 0894      		sec
 10576 3c04 A11C      		adc r10,__zero_reg__
 10577 3c06 B11C      		adc r11,__zero_reg__
 10578 3c08 C11C      		adc r12,__zero_reg__
 10579 3c0a D11C      		adc r13,__zero_reg__
 10580               	.L664:
 10581               	.LM1017:
 10582 3c0c 0894      		sec
 10583 3c0e E11C      		adc r14,__zero_reg__
 10584 3c10 F11C      		adc r15,__zero_reg__
 10585 3c12 011D      		adc r16,__zero_reg__
 10586 3c14 111D      		adc r17,__zero_reg__
 10587 3c16 D201      		movw r26,r4
 10588 3c18 ED91      		ld r30,X+
 10589 3c1a FC91      		ld r31,X
 10590 3c1c 828D      		ldd r24,Z+26
 10591 3c1e 938D      		ldd r25,Z+27
 10592 3c20 A48D      		ldd r26,Z+28
 10593 3c22 B58D      		ldd r27,Z+29
 10594 3c24 E816      		cp r14,r24
 10595 3c26 F906      		cpc r15,r25
 10596 3c28 0A07      		cpc r16,r26
 10597 3c2a 1B07      		cpc r17,r27
 10598 3c2c 00F0      		brlo .L665
 10599 3c2e 00C0      		rjmp .L666
 10600               	.LVL914:
 10601               	.L661:
 10602               	.LM1018:
 10603 3c30 668C      		ldd r6,Z+30
 10604 3c32 778C      		ldd r7,Z+31
 10605 3c34 80A0      		ldd r8,Z+32
 10606 3c36 91A0      		ldd r9,Z+33
 10607               	.LVL915:
 10608 3c38 AA24      		clr r10
 10609 3c3a BB24      		clr r11
 10610 3c3c 6501      		movw r12,r10
 10611               	.LVL916:
 10612 3c3e 60E0      		ldi r22,lo8(0)
 10613 3c40 70E0      		ldi r23,hi8(0)
 10614               	.LVL917:
 10615 3c42 E0E0      		ldi r30,lo8(0)
 10616 3c44 F0E0      		ldi r31,hi8(0)
 10617               	.LVL918:
 10618               	.L672:
 10619               	.LM1019:
 10620 3c46 6115      		cp r22,__zero_reg__
 10621 3c48 7105      		cpc r23,__zero_reg__
 10622 3c4a 01F4      		brne .L667
 10623               	.LM1020:
 10624 3c4c F201      		movw r30,r4
 10625               	.LVL919:
 10626 3c4e 8081      		ld r24,Z
 10627 3c50 9181      		ldd r25,Z+1
 10628 3c52 B401      		movw r22,r8
 10629 3c54 A301      		movw r20,r6
 10630 3c56 0E94 0000 		call move_window
 10631               	.LVL920:
 10632               	.LM1021:
 10633 3c5a 8823      		tst r24
 10634               	.LVL921:
 10635 3c5c 01F0      		breq .+2
 10636 3c5e 00C0      		rjmp .L659
 10637               	.LM1022:
 10638 3c60 0894      		sec
 10639 3c62 611C      		adc r6,__zero_reg__
 10640 3c64 711C      		adc r7,__zero_reg__
 10641 3c66 811C      		adc r8,__zero_reg__
 10642 3c68 911C      		adc r9,__zero_reg__
 10643               	.LM1023:
 10644 3c6a D201      		movw r26,r4
 10645 3c6c ED91      		ld r30,X+
 10646 3c6e FC91      		ld r31,X
 10647               	.LVL922:
 10648 3c70 BE96      		adiw r30,46
 10649 3c72 60E0      		ldi r22,lo8(512)
 10650 3c74 72E0      		ldi r23,hi8(512)
 10651               	.LVL923:
 10652               	.L667:
 10653 3c76 B181      		ldd r27,Z+1
 10654 3c78 B887      		std Y+8,r27
 10655 3c7a 2081      		ld r18,Z
 10656 3c7c 2987      		std Y+9,r18
 10657               	.LM1024:
 10658 3c7e 3B81      		ldd r19,Y+3
 10659 3c80 3230      		cpi r19,lo8(2)
 10660 3c82 01F4      		brne .L668
 10661               	.LM1025:
 10662 3c84 BF83      		std Y+7,r27
 10663 3c86 1E82      		std Y+6,__zero_reg__
 10664 3c88 822F      		mov r24,r18
 10665               	.LVL924:
 10666 3c8a 90E0      		ldi r25,lo8(0)
 10667 3c8c AE81      		ldd r26,Y+6
 10668 3c8e BF81      		ldd r27,Y+7
 10669 3c90 8A2B      		or r24,r26
 10670 3c92 9B2B      		or r25,r27
 10671 3c94 892B      		or r24,r25
 10672 3c96 01F4      		brne .L669
 10673 3c98 0894      		sec
 10674 3c9a A11C      		adc r10,__zero_reg__
 10675 3c9c B11C      		adc r11,__zero_reg__
 10676 3c9e C11C      		adc r12,__zero_reg__
 10677 3ca0 D11C      		adc r13,__zero_reg__
 10678               	.L669:
 10679               	.LM1026:
 10680 3ca2 3296      		adiw r30,2
 10681 3ca4 6250      		subi r22,lo8(-(-2))
 10682 3ca6 7040      		sbci r23,hi8(-(-2))
 10683 3ca8 00C0      		rjmp .L670
 10684               	.LVL925:
 10685               	.L668:
 10686               	.LM1027:
 10687 3caa 2381      		ldd r18,Z+3
 10688 3cac 30E0      		ldi r19,lo8(0)
 10689 3cae 40E0      		ldi r20,lo8(0)
 10690 3cb0 50E0      		ldi r21,hi8(0)
 10691 3cb2 522F      		mov r21,r18
 10692 3cb4 4427      		clr r20
 10693 3cb6 3327      		clr r19
 10694 3cb8 2227      		clr r18
 10695               	.LVL926:
 10696 3cba 8281      		ldd r24,Z+2
 10697 3cbc 90E0      		ldi r25,lo8(0)
 10698 3cbe A0E0      		ldi r26,lo8(0)
 10699 3cc0 B0E0      		ldi r27,hi8(0)
 10700 3cc2 DC01      		movw r26,r24
 10701 3cc4 9927      		clr r25
 10702 3cc6 8827      		clr r24
 10703 3cc8 282B      		or r18,r24
 10704 3cca 392B      		or r19,r25
 10705 3ccc 4A2B      		or r20,r26
 10706 3cce 5B2B      		or r21,r27
 10707 3cd0 3984      		ldd r3,Y+9
 10708 3cd2 832D      		mov r24,r3
 10709 3cd4 90E0      		ldi r25,lo8(0)
 10710 3cd6 A0E0      		ldi r26,lo8(0)
 10711 3cd8 B0E0      		ldi r27,hi8(0)
 10712 3cda 282B      		or r18,r24
 10713 3cdc 392B      		or r19,r25
 10714 3cde 4A2B      		or r20,r26
 10715 3ce0 5B2B      		or r21,r27
 10716 3ce2 3884      		ldd r3,Y+8
 10717 3ce4 2224      		clr r2
 10718 3ce6 C101      		movw r24,r2
 10719 3ce8 A0E0      		ldi r26,lo8(0)
 10720 3cea B0E0      		ldi r27,hi8(0)
 10721 3cec 282B      		or r18,r24
 10722 3cee 392B      		or r19,r25
 10723 3cf0 4A2B      		or r20,r26
 10724 3cf2 5B2B      		or r21,r27
 10725 3cf4 5F70      		andi r21,hhi8(268435455)
 10726 3cf6 2115      		cp r18,__zero_reg__
 10727 3cf8 3105      		cpc r19,__zero_reg__
 10728 3cfa 4105      		cpc r20,__zero_reg__
 10729 3cfc 5105      		cpc r21,__zero_reg__
 10730 3cfe 01F4      		brne .L671
 10731 3d00 0894      		sec
 10732 3d02 A11C      		adc r10,__zero_reg__
 10733 3d04 B11C      		adc r11,__zero_reg__
 10734 3d06 C11C      		adc r12,__zero_reg__
 10735 3d08 D11C      		adc r13,__zero_reg__
 10736               	.L671:
 10737               	.LM1028:
 10738 3d0a 3496      		adiw r30,4
 10739 3d0c 6450      		subi r22,lo8(-(-4))
 10740 3d0e 7040      		sbci r23,hi8(-(-4))
 10741               	.L670:
 10742               	.LM1029:
 10743 3d10 0894      		sec
 10744 3d12 E108      		sbc r14,__zero_reg__
 10745 3d14 F108      		sbc r15,__zero_reg__
 10746 3d16 0109      		sbc r16,__zero_reg__
 10747 3d18 1109      		sbc r17,__zero_reg__
 10748 3d1a E114      		cp r14,__zero_reg__
 10749 3d1c F104      		cpc r15,__zero_reg__
 10750 3d1e 0105      		cpc r16,__zero_reg__
 10751 3d20 1105      		cpc r17,__zero_reg__
 10752 3d22 01F0      		breq .+2
 10753 3d24 00C0      		rjmp .L672
 10754               	.LVL927:
 10755               	.L666:
 10756               	.LM1030:
 10757 3d26 D201      		movw r26,r4
 10758 3d28 ED91      		ld r30,X+
 10759 3d2a FC91      		ld r31,X
 10760               	.LVL928:
 10761 3d2c A686      		std Z+14,r10
 10762 3d2e B786      		std Z+15,r11
 10763 3d30 C08A      		std Z+16,r12
 10764 3d32 D18A      		std Z+17,r13
 10765               	.LM1031:
 10766 3d34 BB81      		ldd r27,Y+3
 10767 3d36 B330      		cpi r27,lo8(3)
 10768 3d38 01F4      		brne .L673
 10769 3d3a 81E0      		ldi r24,lo8(1)
 10770 3d3c 8583      		std Z+5,r24
 10771               	.L673:
 10772               	.LM1032:
 10773 3d3e EC81      		ldd r30,Y+4
 10774 3d40 FD81      		ldd r31,Y+5
 10775 3d42 A082      		st Z,r10
 10776 3d44 B182      		std Z+1,r11
 10777 3d46 C282      		std Z+2,r12
 10778 3d48 D382      		std Z+3,r13
 10779               	.L677:
 10780 3d4a 80E0      		ldi r24,lo8(0)
 10781               	.LVL929:
 10782               	.L659:
 10783               	.LVL930:
 10784               	/* epilogue start */
 10785               	.LM1033:
 10786 3d4c 2996      		adiw r28,9
 10787 3d4e CDBF      		out __SP_L__,r28
 10788 3d50 DEBF      		out __SP_H__,r29
 10789 3d52 CF91      		pop r28
 10790 3d54 DF91      		pop r29
 10791 3d56 1F91      		pop r17
 10792 3d58 0F91      		pop r16
 10793 3d5a FF90      		pop r15
 10794 3d5c EF90      		pop r14
 10795               	.LVL931:
 10796 3d5e DF90      		pop r13
 10797 3d60 CF90      		pop r12
 10798 3d62 BF90      		pop r11
 10799 3d64 AF90      		pop r10
 10800               	.LVL932:
 10801 3d66 9F90      		pop r9
 10802 3d68 8F90      		pop r8
 10803 3d6a 7F90      		pop r7
 10804 3d6c 6F90      		pop r6
 10805               	.LVL933:
 10806 3d6e 5F90      		pop r5
 10807 3d70 4F90      		pop r4
 10808               	.LVL934:
 10809 3d72 3F90      		pop r3
 10810 3d74 2F90      		pop r2
 10811 3d76 0895      		ret
 10812               	.LFE89:
 10814               	.global	f_truncate
 10816               	f_truncate:
 10817               	.LFB90:
 10818               	.LM1034:
 10819               	.LVL935:
 10820 3d78 CF92      		push r12
 10821 3d7a DF92      		push r13
 10822 3d7c EF92      		push r14
 10823 3d7e FF92      		push r15
 10824 3d80 0F93      		push r16
 10825 3d82 1F93      		push r17
 10826 3d84 CF93      		push r28
 10827 3d86 DF93      		push r29
 10828               	/* prologue: function */
 10829               	/* frame size = 0 */
 10830 3d88 EC01      		movw r28,r24
 10831               	.LM1035:
 10832 3d8a 6A81      		ldd r22,Y+2
 10833 3d8c 7B81      		ldd r23,Y+3
 10834 3d8e 8881      		ld r24,Y
 10835 3d90 9981      		ldd r25,Y+1
 10836               	.LVL936:
 10837 3d92 0E94 0000 		call validate
 10838 3d96 182F      		mov r17,r24
 10839               	.LVL937:
 10840               	.LM1036:
 10841 3d98 8823      		tst r24
 10842 3d9a 01F0      		breq .+2
 10843 3d9c 00C0      		rjmp .L679
 10844               	.LVL938:
 10845               	.LM1037:
 10846 3d9e 6C81      		ldd r22,Y+4
 10847 3da0 67FF      		sbrs r22,7
 10848 3da2 00C0      		rjmp .L680
 10849 3da4 12E0      		ldi r17,lo8(2)
 10850               	.LVL939:
 10851 3da6 00C0      		rjmp .L679
 10852               	.LVL940:
 10853               	.L680:
 10854               	.LM1038:
 10855 3da8 61FD      		sbrc r22,1
 10856 3daa 00C0      		rjmp .L681
 10857 3dac 17E0      		ldi r17,lo8(7)
 10858               	.LVL941:
 10859 3dae 00C0      		rjmp .L679
 10860               	.LVL942:
 10861               	.L681:
 10862               	.LM1039:
 10863 3db0 2E81      		ldd r18,Y+6
 10864 3db2 3F81      		ldd r19,Y+7
 10865 3db4 4885      		ldd r20,Y+8
 10866 3db6 5985      		ldd r21,Y+9
 10867 3db8 8A85      		ldd r24,Y+10
 10868 3dba 9B85      		ldd r25,Y+11
 10869 3dbc AC85      		ldd r26,Y+12
 10870 3dbe BD85      		ldd r27,Y+13
 10871               	.LVL943:
 10872 3dc0 2817      		cp r18,r24
 10873 3dc2 3907      		cpc r19,r25
 10874 3dc4 4A07      		cpc r20,r26
 10875 3dc6 5B07      		cpc r21,r27
 10876 3dc8 00F0      		brlo .+2
 10877 3dca 00C0      		rjmp .L679
 10878               	.LM1040:
 10879 3dcc 2A87      		std Y+10,r18
 10880 3dce 3B87      		std Y+11,r19
 10881 3dd0 4C87      		std Y+12,r20
 10882 3dd2 5D87      		std Y+13,r21
 10883               	.LM1041:
 10884 3dd4 6062      		ori r22,lo8(32)
 10885 3dd6 6C83      		std Y+4,r22
 10886 3dd8 8881      		ld r24,Y
 10887 3dda 9981      		ldd r25,Y+1
 10888               	.LM1042:
 10889 3ddc 2115      		cp r18,__zero_reg__
 10890 3dde 3105      		cpc r19,__zero_reg__
 10891 3de0 4105      		cpc r20,__zero_reg__
 10892 3de2 5105      		cpc r21,__zero_reg__
 10893 3de4 01F4      		brne .L682
 10894               	.LM1043:
 10895 3de6 4E85      		ldd r20,Y+14
 10896 3de8 5F85      		ldd r21,Y+15
 10897 3dea 6889      		ldd r22,Y+16
 10898 3dec 7989      		ldd r23,Y+17
 10899 3dee 0E94 0000 		call remove_chain
 10900 3df2 182F      		mov r17,r24
 10901               	.LM1044:
 10902 3df4 1E86      		std Y+14,__zero_reg__
 10903 3df6 1F86      		std Y+15,__zero_reg__
 10904 3df8 188A      		std Y+16,__zero_reg__
 10905 3dfa 198A      		std Y+17,__zero_reg__
 10906 3dfc 00C0      		rjmp .L683
 10907               	.L682:
 10908               	.LM1045:
 10909 3dfe 4A89      		ldd r20,Y+18
 10910 3e00 5B89      		ldd r21,Y+19
 10911 3e02 6C89      		ldd r22,Y+20
 10912 3e04 7D89      		ldd r23,Y+21
 10913 3e06 0E94 0000 		call get_fat
 10914 3e0a 6B01      		movw r12,r22
 10915 3e0c 7C01      		movw r14,r24
 10916               	.LVL944:
 10917               	.LM1046:
 10918 3e0e 8FEF      		ldi r24,lo8(-1)
 10919 3e10 C816      		cp r12,r24
 10920 3e12 8FEF      		ldi r24,hi8(-1)
 10921 3e14 D806      		cpc r13,r24
 10922 3e16 8FEF      		ldi r24,hlo8(-1)
 10923 3e18 E806      		cpc r14,r24
 10924 3e1a 8FEF      		ldi r24,hhi8(-1)
 10925 3e1c F806      		cpc r15,r24
 10926 3e1e 01F0      		breq .L684
 10927               	.LM1047:
 10928 3e20 81E0      		ldi r24,lo8(1)
 10929 3e22 C816      		cp r12,r24
 10930 3e24 D104      		cpc r13,__zero_reg__
 10931 3e26 E104      		cpc r14,__zero_reg__
 10932 3e28 F104      		cpc r15,__zero_reg__
 10933 3e2a 01F4      		brne .L685
 10934 3e2c 12E0      		ldi r17,lo8(2)
 10935 3e2e 00C0      		rjmp .L686
 10936               	.L685:
 10937               	.LM1048:
 10938 3e30 E881      		ld r30,Y
 10939 3e32 F981      		ldd r31,Y+1
 10940 3e34 828D      		ldd r24,Z+26
 10941 3e36 938D      		ldd r25,Z+27
 10942 3e38 A48D      		ldd r26,Z+28
 10943 3e3a B58D      		ldd r27,Z+29
 10944 3e3c C816      		cp r12,r24
 10945 3e3e D906      		cpc r13,r25
 10946 3e40 EA06      		cpc r14,r26
 10947 3e42 FB06      		cpc r15,r27
 10948 3e44 00F4      		brsh .L679
 10949               	.LM1049:
 10950 3e46 4A89      		ldd r20,Y+18
 10951 3e48 5B89      		ldd r21,Y+19
 10952 3e4a 6C89      		ldd r22,Y+20
 10953 3e4c 7D89      		ldd r23,Y+21
 10954 3e4e CF01      		movw r24,r30
 10955 3e50 0FEF      		ldi r16,lo8(268435455)
 10956 3e52 1FEF      		ldi r17,hi8(268435455)
 10957 3e54 2FEF      		ldi r18,hlo8(268435455)
 10958 3e56 3FE0      		ldi r19,hhi8(268435455)
 10959 3e58 0E94 0000 		call put_fat
 10960 3e5c 182F      		mov r17,r24
 10961               	.LM1050:
 10962 3e5e 8823      		tst r24
 10963 3e60 01F4      		brne .L686
 10964               	.LVL945:
 10965 3e62 8881      		ld r24,Y
 10966 3e64 9981      		ldd r25,Y+1
 10967               	.LVL946:
 10968 3e66 B701      		movw r22,r14
 10969 3e68 A601      		movw r20,r12
 10970 3e6a 0E94 0000 		call remove_chain
 10971 3e6e 182F      		mov r17,r24
 10972               	.L683:
 10973               	.LM1051:
 10974 3e70 1123      		tst r17
 10975 3e72 01F0      		breq .L679
 10976               	.LVL947:
 10977               	.L686:
 10978 3e74 8C81      		ldd r24,Y+4
 10979 3e76 8068      		ori r24,lo8(-128)
 10980 3e78 8C83      		std Y+4,r24
 10981               	.LVL948:
 10982               	.L679:
 10983               	.LM1052:
 10984 3e7a 812F      		mov r24,r17
 10985               	/* epilogue start */
 10986 3e7c DF91      		pop r29
 10987 3e7e CF91      		pop r28
 10988               	.LVL949:
 10989 3e80 1F91      		pop r17
 10990               	.LVL950:
 10991 3e82 0F91      		pop r16
 10992 3e84 FF90      		pop r15
 10993 3e86 EF90      		pop r14
 10994 3e88 DF90      		pop r13
 10995 3e8a CF90      		pop r12
 10996               	.LVL951:
 10997 3e8c 0895      		ret
 10998               	.LVL952:
 10999               	.L684:
 11000               	.LM1053:
 11001 3e8e 11E0      		ldi r17,lo8(1)
 11002 3e90 00C0      		rjmp .L686
 11003               	.LFE90:
 11005               	.global	f_unlink
 11007               	f_unlink:
 11008               	.LFB91:
 11009               	.LM1054:
 11010               	.LVL953:
 11011 3e92 CF92      		push r12
 11012 3e94 DF92      		push r13
 11013 3e96 EF92      		push r14
 11014 3e98 FF92      		push r15
 11015 3e9a 0F93      		push r16
 11016 3e9c 1F93      		push r17
 11017 3e9e DF93      		push r29
 11018 3ea0 CF93      		push r28
 11019 3ea2 CDB7      		in r28,__SP_L__
 11020 3ea4 DEB7      		in r29,__SP_H__
 11021 3ea6 EA97      		sbiw r28,58
 11022 3ea8 CDBF      		out __SP_L__,r28
 11023 3eaa DEBF      		out __SP_H__,r29
 11024               	/* prologue: function */
 11025               	/* frame size = 58 */
 11026 3eac 89AF      		std Y+57,r24
 11027 3eae 9AAF      		std Y+58,r25
 11028               	.LM1055:
 11029 3eb0 4DE0      		ldi r20,lo8(13)
 11030 3eb2 C42E      		mov r12,r20
 11031 3eb4 D12C      		mov r13,__zero_reg__
 11032 3eb6 CC0E      		add r12,r28
 11033 3eb8 DD1E      		adc r13,r29
 11034 3eba CE01      		movw r24,r28
 11035               	.LVL954:
 11036 3ebc C996      		adiw r24,57
 11037 3ebe B601      		movw r22,r12
 11038 3ec0 41E0      		ldi r20,lo8(1)
 11039 3ec2 0E94 0000 		call chk_mounted
 11040               	.LM1056:
 11041 3ec6 8823      		tst r24
 11042               	.LVL955:
 11043 3ec8 01F0      		breq .+2
 11044 3eca 00C0      		rjmp .L689
 11045               	.LM1057:
 11046 3ecc CE01      		movw r24,r28
 11047               	.LVL956:
 11048 3ece 0196      		adiw r24,1
 11049 3ed0 89A3      		std Y+33,r24
 11050 3ed2 9AA3      		std Y+34,r25
 11051               	.LM1058:
 11052 3ed4 69AD      		ldd r22,Y+57
 11053 3ed6 7AAD      		ldd r23,Y+58
 11054 3ed8 C601      		movw r24,r12
 11055 3eda 0E94 0000 		call follow_path
 11056               	.LM1059:
 11057 3ede 8823      		tst r24
 11058               	.LVL957:
 11059 3ee0 01F0      		breq .+2
 11060 3ee2 00C0      		rjmp .L689
 11061               	.LM1060:
 11062 3ee4 EF8D      		ldd r30,Y+31
 11063 3ee6 F8A1      		ldd r31,Y+32
 11064               	.LVL958:
 11065               	.LM1061:
 11066 3ee8 3097      		sbiw r30,0
 11067 3eea 01F4      		brne .L690
 11068 3eec 86E0      		ldi r24,lo8(6)
 11069 3eee 00C0      		rjmp .L689
 11070               	.L690:
 11071               	.LM1062:
 11072 3ef0 8385      		ldd r24,Z+11
 11073               	.LVL959:
 11074 3ef2 482F      		mov r20,r24
 11075 3ef4 80FD      		sbrc r24,0
 11076 3ef6 00C0      		rjmp .L691
 11077               	.LM1063:
 11078 3ef8 9589      		ldd r25,Z+21
 11079 3efa 80E0      		ldi r24,lo8(0)
 11080 3efc 2489      		ldd r18,Z+20
 11081 3efe 30E0      		ldi r19,lo8(0)
 11082 3f00 822B      		or r24,r18
 11083 3f02 932B      		or r25,r19
 11084 3f04 A0E0      		ldi r26,lo8(0)
 11085 3f06 B0E0      		ldi r27,hi8(0)
 11086 3f08 8C01      		movw r16,r24
 11087 3f0a FF24      		clr r15
 11088 3f0c EE24      		clr r14
 11089               	.LVL960:
 11090 3f0e 938D      		ldd r25,Z+27
 11091 3f10 80E0      		ldi r24,lo8(0)
 11092 3f12 228D      		ldd r18,Z+26
 11093 3f14 30E0      		ldi r19,lo8(0)
 11094 3f16 822B      		or r24,r18
 11095 3f18 932B      		or r25,r19
 11096 3f1a A0E0      		ldi r26,lo8(0)
 11097 3f1c B0E0      		ldi r27,hi8(0)
 11098 3f1e E82A      		or r14,r24
 11099 3f20 F92A      		or r15,r25
 11100 3f22 0A2B      		or r16,r26
 11101 3f24 1B2B      		or r17,r27
 11102               	.LM1064:
 11103 3f26 44FF      		sbrs r20,4
 11104 3f28 00C0      		rjmp .L692
 11105               	.LM1065:
 11106 3f2a 82E0      		ldi r24,lo8(2)
 11107 3f2c E816      		cp r14,r24
 11108 3f2e F104      		cpc r15,__zero_reg__
 11109 3f30 0105      		cpc r16,__zero_reg__
 11110 3f32 1105      		cpc r17,__zero_reg__
 11111 3f34 00F4      		brsh .L693
 11112 3f36 82E0      		ldi r24,lo8(2)
 11113               	.LVL961:
 11114 3f38 00C0      		rjmp .L689
 11115               	.LVL962:
 11116               	.L693:
 11117               	.LBB789:
 11118               	.LBB790:
 11119               	.LM1066:
 11120 3f3a DE01      		movw r26,r28
 11121               	.LVL963:
 11122 3f3c 9396      		adiw r26,35
 11123               	.LM1067:
 11124 3f3e F601      		movw r30,r12
 11125               	.LVL964:
 11126               	.LM1068:
 11127 3f40 9D01      		movw r18,r26
 11128 3f42 00C0      		rjmp .L694
 11129               	.L695:
 11130 3f44 8191      		ld r24,Z+
 11131 3f46 8D93      		st X+,r24
 11132               	.L694:
 11133 3f48 E217      		cp r30,r18
 11134 3f4a F307      		cpc r31,r19
 11135 3f4c 01F4      		brne .L695
 11136               	.LBE790:
 11137               	.LBE789:
 11138               	.LM1069:
 11139 3f4e E9A6      		std Y+41,r14
 11140 3f50 FAA6      		std Y+42,r15
 11141 3f52 0BA7      		std Y+43,r16
 11142 3f54 1CA7      		std Y+44,r17
 11143               	.LM1070:
 11144 3f56 23E2      		ldi r18,lo8(35)
 11145 3f58 C22E      		mov r12,r18
 11146 3f5a D12C      		mov r13,__zero_reg__
 11147 3f5c CC0E      		add r12,r28
 11148 3f5e DD1E      		adc r13,r29
 11149 3f60 C601      		movw r24,r12
 11150 3f62 62E0      		ldi r22,lo8(2)
 11151 3f64 70E0      		ldi r23,hi8(2)
 11152 3f66 0E94 0000 		call dir_seek
 11153               	.LVL965:
 11154               	.LM1071:
 11155 3f6a 8823      		tst r24
 11156               	.LVL966:
 11157 3f6c 01F4      		brne .L689
 11158               	.LM1072:
 11159 3f6e C601      		movw r24,r12
 11160               	.LVL967:
 11161 3f70 0E94 0000 		call dir_read
 11162               	.LM1073:
 11163 3f74 8823      		tst r24
 11164               	.LVL968:
 11165 3f76 01F0      		breq .L691
 11166               	.LM1074:
 11167 3f78 8430      		cpi r24,lo8(4)
 11168 3f7a 01F4      		brne .L689
 11169               	.LVL969:
 11170               	.L692:
 11171               	.LM1075:
 11172 3f7c CE01      		movw r24,r28
 11173               	.LVL970:
 11174 3f7e 0D96      		adiw r24,13
 11175 3f80 0E94 0000 		call dir_remove
 11176               	.LVL971:
 11177               	.LM1076:
 11178 3f84 8823      		tst r24
 11179               	.LVL972:
 11180 3f86 01F4      		brne .L689
 11181               	.LM1077:
 11182 3f88 E114      		cp r14,__zero_reg__
 11183 3f8a F104      		cpc r15,__zero_reg__
 11184 3f8c 0105      		cpc r16,__zero_reg__
 11185 3f8e 1105      		cpc r17,__zero_reg__
 11186 3f90 01F0      		breq .L696
 11187               	.LM1078:
 11188 3f92 8D85      		ldd r24,Y+13
 11189 3f94 9E85      		ldd r25,Y+14
 11190               	.LVL973:
 11191 3f96 B801      		movw r22,r16
 11192 3f98 A701      		movw r20,r14
 11193 3f9a 0E94 0000 		call remove_chain
 11194               	.LM1079:
 11195 3f9e 8823      		tst r24
 11196               	.LVL974:
 11197 3fa0 01F4      		brne .L689
 11198               	.L696:
 11199 3fa2 8D85      		ldd r24,Y+13
 11200 3fa4 9E85      		ldd r25,Y+14
 11201               	.LVL975:
 11202 3fa6 0E94 0000 		call sync
 11203 3faa 00C0      		rjmp .L689
 11204               	.LVL976:
 11205               	.L691:
 11206 3fac 87E0      		ldi r24,lo8(7)
 11207               	.L689:
 11208               	.LVL977:
 11209               	/* epilogue start */
 11210               	.LM1080:
 11211 3fae EA96      		adiw r28,58
 11212 3fb0 CDBF      		out __SP_L__,r28
 11213 3fb2 DEBF      		out __SP_H__,r29
 11214 3fb4 CF91      		pop r28
 11215 3fb6 DF91      		pop r29
 11216 3fb8 1F91      		pop r17
 11217 3fba 0F91      		pop r16
 11218 3fbc FF90      		pop r15
 11219 3fbe EF90      		pop r14
 11220               	.LVL978:
 11221 3fc0 DF90      		pop r13
 11222 3fc2 CF90      		pop r12
 11223 3fc4 0895      		ret
 11224               	.LFE91:
 11226               	.global	f_mkdir
 11228               	f_mkdir:
 11229               	.LFB92:
 11230               	.LM1081:
 11231               	.LVL979:
 11232 3fc6 2F92      		push r2
 11233 3fc8 3F92      		push r3
 11234 3fca 4F92      		push r4
 11235 3fcc 5F92      		push r5
 11236 3fce 6F92      		push r6
 11237 3fd0 7F92      		push r7
 11238 3fd2 8F92      		push r8
 11239 3fd4 9F92      		push r9
 11240 3fd6 AF92      		push r10
 11241 3fd8 BF92      		push r11
 11242 3fda CF92      		push r12
 11243 3fdc DF92      		push r13
 11244 3fde EF92      		push r14
 11245 3fe0 FF92      		push r15
 11246 3fe2 0F93      		push r16
 11247 3fe4 1F93      		push r17
 11248 3fe6 DF93      		push r29
 11249 3fe8 CF93      		push r28
 11250 3fea CDB7      		in r28,__SP_L__
 11251 3fec DEB7      		in r29,__SP_H__
 11252 3fee A897      		sbiw r28,40
 11253 3ff0 CDBF      		out __SP_L__,r28
 11254 3ff2 DEBF      		out __SP_H__,r29
 11255               	/* prologue: function */
 11256               	/* frame size = 40 */
 11257 3ff4 8BA3      		std Y+35,r24
 11258 3ff6 9CA3      		std Y+36,r25
 11259               	.LM1082:
 11260 3ff8 3DE0      		ldi r19,lo8(13)
 11261 3ffa E32E      		mov r14,r19
 11262 3ffc F12C      		mov r15,__zero_reg__
 11263 3ffe EC0E      		add r14,r28
 11264 4000 FD1E      		adc r15,r29
 11265 4002 CE01      		movw r24,r28
 11266               	.LVL980:
 11267 4004 8396      		adiw r24,35
 11268 4006 B701      		movw r22,r14
 11269 4008 41E0      		ldi r20,lo8(1)
 11270 400a 0E94 0000 		call chk_mounted
 11271 400e 182F      		mov r17,r24
 11272               	.LVL981:
 11273               	.LM1083:
 11274 4010 8823      		tst r24
 11275 4012 01F0      		breq .+2
 11276 4014 00C0      		rjmp .L699
 11277               	.LVL982:
 11278               	.LM1084:
 11279 4016 CE01      		movw r24,r28
 11280               	.LVL983:
 11281 4018 0196      		adiw r24,1
 11282 401a 89A3      		std Y+33,r24
 11283 401c 9AA3      		std Y+34,r25
 11284               	.LM1085:
 11285 401e 6BA1      		ldd r22,Y+35
 11286 4020 7CA1      		ldd r23,Y+36
 11287 4022 C701      		movw r24,r14
 11288 4024 0E94 0000 		call follow_path
 11289 4028 182F      		mov r17,r24
 11290               	.LM1086:
 11291 402a 8823      		tst r24
 11292 402c 01F4      		brne .L700
 11293               	.LVL984:
 11294 402e 18E0      		ldi r17,lo8(8)
 11295               	.LVL985:
 11296 4030 00C0      		rjmp .L699
 11297               	.LVL986:
 11298               	.L700:
 11299               	.LM1087:
 11300 4032 8430      		cpi r24,lo8(4)
 11301 4034 01F0      		breq .+2
 11302 4036 00C0      		rjmp .L699
 11303               	.LM1088:
 11304 4038 8D85      		ldd r24,Y+13
 11305 403a 9E85      		ldd r25,Y+14
 11306               	.LVL987:
 11307 403c 40E0      		ldi r20,lo8(0)
 11308 403e 50E0      		ldi r21,hi8(0)
 11309 4040 60E0      		ldi r22,hlo8(0)
 11310 4042 70E0      		ldi r23,hhi8(0)
 11311 4044 0E94 0000 		call create_chain
 11312 4048 4B01      		movw r8,r22
 11313 404a 5C01      		movw r10,r24
 11314               	.LVL988:
 11315               	.LM1089:
 11316 404c 6115      		cp r22,__zero_reg__
 11317 404e 7105      		cpc r23,__zero_reg__
 11318 4050 8105      		cpc r24,__zero_reg__
 11319 4052 9105      		cpc r25,__zero_reg__
 11320 4054 01F4      		brne .L701
 11321               	.LVL989:
 11322 4056 17E0      		ldi r17,lo8(7)
 11323 4058 00C0      		rjmp .L699
 11324               	.L701:
 11325               	.LM1090:
 11326 405a 6130      		cpi r22,lo8(1)
 11327 405c 7105      		cpc r23,__zero_reg__
 11328 405e 8105      		cpc r24,__zero_reg__
 11329 4060 9105      		cpc r25,__zero_reg__
 11330 4062 01F4      		brne .L702
 11331 4064 12E0      		ldi r17,lo8(2)
 11332 4066 00C0      		rjmp .L699
 11333               	.L702:
 11334               	.LM1091:
 11335 4068 6F3F      		cpi r22,lo8(-1)
 11336 406a 3FEF      		ldi r19,hi8(-1)
 11337 406c 7307      		cpc r23,r19
 11338 406e 3FEF      		ldi r19,hlo8(-1)
 11339 4070 8307      		cpc r24,r19
 11340 4072 3FEF      		ldi r19,hhi8(-1)
 11341 4074 9307      		cpc r25,r19
 11342 4076 01F4      		brne .+2
 11343 4078 00C0      		rjmp .L703
 11344               	.LM1092:
 11345 407a 8D85      		ldd r24,Y+13
 11346 407c 9E85      		ldd r25,Y+14
 11347 407e 40E0      		ldi r20,lo8(0)
 11348 4080 50E0      		ldi r21,hi8(0)
 11349 4082 60E0      		ldi r22,hlo8(0)
 11350 4084 70E0      		ldi r23,hhi8(0)
 11351 4086 0E94 0000 		call move_window
 11352               	.LVL990:
 11353 408a 182F      		mov r17,r24
 11354               	.LM1093:
 11355 408c 8823      		tst r24
 11356 408e 01F0      		breq .+2
 11357 4090 00C0      		rjmp .L699
 11358               	.LVL991:
 11359               	.LM1094:
 11360 4092 0D85      		ldd r16,Y+13
 11361 4094 1E85      		ldd r17,Y+14
 11362               	.LBB791:
 11363               	.LBB792:
 11364               	.LM1095:
 11365 4096 2EEF      		ldi r18,lo8(-2)
 11366 4098 C22E      		mov r12,r18
 11367 409a 2FEF      		ldi r18,hi8(-2)
 11368 409c D22E      		mov r13,r18
 11369 409e 2FEF      		ldi r18,hlo8(-2)
 11370 40a0 E22E      		mov r14,r18
 11371 40a2 2FEF      		ldi r18,hhi8(-2)
 11372 40a4 F22E      		mov r15,r18
 11373               	.LVL992:
 11374 40a6 C80C      		add r12,r8
 11375 40a8 D91C      		adc r13,r9
 11376 40aa EA1C      		adc r14,r10
 11377 40ac FB1C      		adc r15,r11
 11378               	.LM1096:
 11379 40ae F801      		movw r30,r16
 11380 40b0 828D      		ldd r24,Z+26
 11381 40b2 938D      		ldd r25,Z+27
 11382 40b4 A48D      		ldd r26,Z+28
 11383 40b6 B58D      		ldd r27,Z+29
 11384               	.LVL993:
 11385 40b8 0297      		sbiw r24,2
 11386 40ba A109      		sbc r26,__zero_reg__
 11387 40bc B109      		sbc r27,__zero_reg__
 11388 40be C816      		cp r12,r24
 11389 40c0 D906      		cpc r13,r25
 11390 40c2 EA06      		cpc r14,r26
 11391 40c4 FB06      		cpc r15,r27
 11392 40c6 00F0      		brlo .L704
 11393 40c8 4424      		clr r4
 11394 40ca 5524      		clr r5
 11395 40cc 3201      		movw r6,r4
 11396               	.LVL994:
 11397 40ce 00C0      		rjmp .L705
 11398               	.LVL995:
 11399               	.L704:
 11400               	.LM1097:
 11401 40d0 F801      		movw r30,r16
 11402 40d2 2281      		ldd r18,Z+2
 11403 40d4 30E0      		ldi r19,lo8(0)
 11404 40d6 40E0      		ldi r20,lo8(0)
 11405 40d8 50E0      		ldi r21,hi8(0)
 11406 40da C701      		movw r24,r14
 11407 40dc B601      		movw r22,r12
 11408 40de 0E94 0000 		call __mulsi3
 11409 40e2 2B01      		movw r4,r22
 11410 40e4 3C01      		movw r6,r24
 11411               	.LVL996:
 11412 40e6 F801      		movw r30,r16
 11413 40e8 86A1      		ldd r24,Z+38
 11414 40ea 97A1      		ldd r25,Z+39
 11415 40ec A0A5      		ldd r26,Z+40
 11416 40ee B1A5      		ldd r27,Z+41
 11417 40f0 480E      		add r4,r24
 11418 40f2 591E      		adc r5,r25
 11419 40f4 6A1E      		adc r6,r26
 11420 40f6 7B1E      		adc r7,r27
 11421               	.L705:
 11422               	.LBE792:
 11423               	.LBE791:
 11424               	.LM1098:
 11425 40f8 9EE2      		ldi r25,lo8(46)
 11426 40fa 292E      		mov r2,r25
 11427 40fc 312C      		mov r3,__zero_reg__
 11428               	.LVL997:
 11429 40fe 200E      		add r2,r16
 11430 4100 311E      		adc r3,r17
 11431 4102 F101      		movw r30,r2
 11432 4104 80E0      		ldi r24,lo8(512)
 11433 4106 92E0      		ldi r25,hi8(512)
 11434               	.LVL998:
 11435 4108 00C0      		rjmp .L706
 11436               	.LVL999:
 11437               	.L707:
 11438               	.LBB793:
 11439               	.LBB794:
 11440               	.LM1099:
 11441 410a 1192      		st Z+,__zero_reg__
 11442               	.L706:
 11443 410c 0197      		sbiw r24,1
 11444 410e 2FEF      		ldi r18,hi8(-1)
 11445 4110 8F3F      		cpi r24,lo8(-1)
 11446 4112 9207      		cpc r25,r18
 11447 4114 01F4      		brne .L707
 11448 4116 F101      		movw r30,r2
 11449 4118 8BE0      		ldi r24,lo8(11)
 11450 411a 90E0      		ldi r25,hi8(11)
 11451               	.LVL1000:
 11452               	.LBE794:
 11453               	.LBE793:
 11454               	.LBB795:
 11455               	.LBB796:
 11456 411c 20E2      		ldi r18,lo8(32)
 11457 411e 00C0      		rjmp .L708
 11458               	.L709:
 11459 4120 2193      		st Z+,r18
 11460               	.L708:
 11461 4122 0197      		sbiw r24,1
 11462 4124 3FEF      		ldi r19,hi8(-1)
 11463 4126 8F3F      		cpi r24,lo8(-1)
 11464 4128 9307      		cpc r25,r19
 11465 412a 01F4      		brne .L709
 11466               	.LBE796:
 11467               	.LBE795:
 11468               	.LM1100:
 11469 412c 8EE2      		ldi r24,lo8(46)
 11470               	.LVL1001:
 11471 412e F801      		movw r30,r16
 11472               	.LVL1002:
 11473 4130 86A7      		std Z+46,r24
 11474               	.LM1101:
 11475 4132 80E1      		ldi r24,lo8(16)
 11476 4134 81AF      		std Z+57,r24
 11477               	.LM1102:
 11478 4136 0C5B      		subi r16,lo8(-(68))
 11479 4138 1F4F      		sbci r17,hi8(-(68))
 11480 413a F801      		movw r30,r16
 11481 413c 1192      		st Z+,__zero_reg__
 11482 413e 1192      		st Z+,__zero_reg__
 11483 4140 1192      		st Z+,__zero_reg__
 11484 4142 1192      		st Z+,__zero_reg__
 11485               	.LM1103:
 11486 4144 88A6      		std Y+40,r8
 11487 4146 8192      		st Z+,r8
 11488 4148 8F01      		movw r16,r30
 11489 414a 892D      		mov r24,r9
 11490 414c 9927      		clr r25
 11491 414e 8FA3      		std Y+39,r24
 11492 4150 8083      		st Z,r24
 11493               	.LM1104:
 11494 4152 C501      		movw r24,r10
 11495 4154 AA27      		clr r26
 11496 4156 BB27      		clr r27
 11497 4158 8EA3      		std Y+38,r24
 11498 415a 0750      		subi r16,lo8(-(-7))
 11499 415c 1040      		sbci r17,hi8(-(-7))
 11500 415e F801      		movw r30,r16
 11501 4160 8193      		st Z+,r24
 11502 4162 8F01      		movw r16,r30
 11503 4164 892F      		mov r24,r25
 11504 4166 9927      		clr r25
 11505 4168 8DA3      		std Y+37,r24
 11506 416a 8083      		st Z,r24
 11507 416c 0354      		subi r16,lo8(-(-67))
 11508 416e 1040      		sbci r17,hi8(-(-67))
 11509 4170 F101      		movw r30,r2
 11510               	.LVL1003:
 11511 4172 20E2      		ldi r18,lo8(32)
 11512 4174 30E0      		ldi r19,hi8(32)
 11513               	.LVL1004:
 11514 4176 00C0      		rjmp .L710
 11515               	.L711:
 11516               	.LBB797:
 11517               	.LBB798:
 11518               	.LM1105:
 11519 4178 8081      		ld r24,Z
 11520 417a 80A3      		std Z+32,r24
 11521 417c 3196      		adiw r30,1
 11522               	.L710:
 11523 417e 2150      		subi r18,lo8(-(-1))
 11524 4180 3040      		sbci r19,hi8(-(-1))
 11525 4182 8FEF      		ldi r24,hi8(-1)
 11526 4184 2F3F      		cpi r18,lo8(-1)
 11527 4186 3807      		cpc r19,r24
 11528 4188 01F4      		brne .L711
 11529               	.LBE798:
 11530               	.LBE797:
 11531               	.LM1106:
 11532 418a 015B      		subi r16,lo8(-(79))
 11533 418c 1F4F      		sbci r17,hi8(-(79))
 11534 418e 8EE2      		ldi r24,lo8(46)
 11535 4190 F801      		movw r30,r16
 11536               	.LVL1005:
 11537 4192 8083      		st Z,r24
 11538 4194 0F54      		subi r16,lo8(-(-79))
 11539 4196 1040      		sbci r17,hi8(-(-79))
 11540               	.LM1107:
 11541 4198 2B89      		ldd r18,Y+19
 11542 419a 3C89      		ldd r19,Y+20
 11543 419c 4D89      		ldd r20,Y+21
 11544 419e 5E89      		ldd r21,Y+22
 11545               	.LVL1006:
 11546               	.LM1108:
 11547 41a0 ED85      		ldd r30,Y+13
 11548 41a2 FE85      		ldd r31,Y+14
 11549 41a4 8081      		ld r24,Z
 11550 41a6 8330      		cpi r24,lo8(3)
 11551 41a8 01F4      		brne .L712
 11552 41aa 82A1      		ldd r24,Z+34
 11553 41ac 93A1      		ldd r25,Z+35
 11554 41ae A4A1      		ldd r26,Z+36
 11555 41b0 B5A1      		ldd r27,Z+37
 11556 41b2 2817      		cp r18,r24
 11557 41b4 3907      		cpc r19,r25
 11558 41b6 4A07      		cpc r20,r26
 11559 41b8 5B07      		cpc r21,r27
 11560 41ba 01F4      		brne .L712
 11561 41bc 20E0      		ldi r18,lo8(0)
 11562 41be 30E0      		ldi r19,hi8(0)
 11563 41c0 40E0      		ldi r20,hlo8(0)
 11564 41c2 50E0      		ldi r21,hhi8(0)
 11565               	.L712:
 11566               	.LM1109:
 11567 41c4 0859      		subi r16,lo8(-(104))
 11568 41c6 1F4F      		sbci r17,hi8(-(104))
 11569 41c8 F801      		movw r30,r16
 11570 41ca 2193      		st Z+,r18
 11571 41cc 8F01      		movw r16,r30
 11572 41ce 832F      		mov r24,r19
 11573 41d0 9927      		clr r25
 11574 41d2 8083      		st Z,r24
 11575               	.LM1110:
 11576 41d4 CA01      		movw r24,r20
 11577 41d6 AA27      		clr r26
 11578 41d8 BB27      		clr r27
 11579 41da 0750      		subi r16,lo8(-(-7))
 11580 41dc 1040      		sbci r17,hi8(-(-7))
 11581 41de F801      		movw r30,r16
 11582 41e0 8193      		st Z+,r24
 11583 41e2 892F      		mov r24,r25
 11584 41e4 9927      		clr r25
 11585 41e6 8083      		st Z,r24
 11586 41e8 7301      		movw r14,r6
 11587 41ea 6201      		movw r12,r4
 11588               	.LVL1007:
 11589               	.LM1111:
 11590 41ec 01E0      		ldi r16,lo8(1)
 11591 41ee 00C0      		rjmp .L713
 11592               	.LVL1008:
 11593               	.L716:
 11594               	.LM1112:
 11595 41f0 C2A6      		std Z+42,r12
 11596 41f2 D3A6      		std Z+43,r13
 11597 41f4 E4A6      		std Z+44,r14
 11598 41f6 F5A6      		std Z+45,r15
 11599               	.LM1113:
 11600 41f8 0483      		std Z+4,r16
 11601               	.LM1114:
 11602 41fa CF01      		movw r24,r30
 11603 41fc 40E0      		ldi r20,lo8(0)
 11604 41fe 50E0      		ldi r21,hi8(0)
 11605 4200 60E0      		ldi r22,hlo8(0)
 11606 4202 70E0      		ldi r23,hhi8(0)
 11607 4204 0E94 0000 		call move_window
 11608               	.LVL1009:
 11609 4208 182F      		mov r17,r24
 11610               	.LM1115:
 11611 420a 8823      		tst r24
 11612 420c 01F4      		brne .L699
 11613               	.LVL1010:
 11614 420e F101      		movw r30,r2
 11615 4210 80E0      		ldi r24,lo8(512)
 11616 4212 92E0      		ldi r25,hi8(512)
 11617               	.LVL1011:
 11618 4214 00C0      		rjmp .L714
 11619               	.LVL1012:
 11620               	.L715:
 11621               	.LBB799:
 11622               	.LBB800:
 11623               	.LM1116:
 11624 4216 1192      		st Z+,__zero_reg__
 11625               	.L714:
 11626 4218 0197      		sbiw r24,1
 11627 421a 2FEF      		ldi r18,hi8(-1)
 11628 421c 8F3F      		cpi r24,lo8(-1)
 11629 421e 9207      		cpc r25,r18
 11630 4220 01F4      		brne .L715
 11631               	.LBE800:
 11632               	.LBE799:
 11633               	.LM1117:
 11634 4222 0894      		sec
 11635 4224 C11C      		adc r12,__zero_reg__
 11636 4226 D11C      		adc r13,__zero_reg__
 11637 4228 E11C      		adc r14,__zero_reg__
 11638 422a F11C      		adc r15,__zero_reg__
 11639               	.LVL1013:
 11640               	.L713:
 11641               	.LM1118:
 11642 422c ED85      		ldd r30,Y+13
 11643 422e FE85      		ldd r31,Y+14
 11644 4230 9C2D      		mov r25,r12
 11645               	.LVL1014:
 11646 4232 9419      		sub r25,r4
 11647 4234 8281      		ldd r24,Z+2
 11648               	.LVL1015:
 11649 4236 9817      		cp r25,r24
 11650 4238 00F0      		brlo .L716
 11651               	.LM1119:
 11652 423a CE01      		movw r24,r28
 11653 423c 0D96      		adiw r24,13
 11654 423e 0E94 0000 		call dir_register
 11655               	.LVL1016:
 11656 4242 182F      		mov r17,r24
 11657               	.LM1120:
 11658 4244 8823      		tst r24
 11659 4246 01F0      		breq .L717
 11660               	.LVL1017:
 11661               	.LM1121:
 11662 4248 8D85      		ldd r24,Y+13
 11663 424a 9E85      		ldd r25,Y+14
 11664               	.LVL1018:
 11665 424c B501      		movw r22,r10
 11666 424e A401      		movw r20,r8
 11667 4250 0E94 0000 		call remove_chain
 11668 4254 00C0      		rjmp .L699
 11669               	.LVL1019:
 11670               	.L717:
 11671               	.LM1122:
 11672 4256 EF8D      		ldd r30,Y+31
 11673 4258 F8A1      		ldd r31,Y+32
 11674               	.LVL1020:
 11675               	.LM1123:
 11676 425a 80E1      		ldi r24,lo8(16)
 11677               	.LVL1021:
 11678 425c 8387      		std Z+11,r24
 11679               	.LM1124:
 11680 425e 168A      		std Z+22,__zero_reg__
 11681 4260 178A      		std Z+23,__zero_reg__
 11682 4262 108E      		std Z+24,__zero_reg__
 11683 4264 118E      		std Z+25,__zero_reg__
 11684               	.LM1125:
 11685 4266 38A5      		ldd r19,Y+40
 11686 4268 328F      		std Z+26,r19
 11687 426a 8FA1      		ldd r24,Y+39
 11688 426c 838F      		std Z+27,r24
 11689               	.LM1126:
 11690 426e 2EA1      		ldd r18,Y+38
 11691 4270 248B      		std Z+20,r18
 11692 4272 3DA1      		ldd r19,Y+37
 11693 4274 358B      		std Z+21,r19
 11694               	.LM1127:
 11695 4276 ED85      		ldd r30,Y+13
 11696 4278 FE85      		ldd r31,Y+14
 11697               	.LVL1022:
 11698 427a 81E0      		ldi r24,lo8(1)
 11699 427c 8483      		std Z+4,r24
 11700               	.LM1128:
 11701 427e CF01      		movw r24,r30
 11702 4280 0E94 0000 		call sync
 11703 4284 182F      		mov r17,r24
 11704               	.LVL1023:
 11705               	.L699:
 11706               	.LM1129:
 11707 4286 812F      		mov r24,r17
 11708               	/* epilogue start */
 11709 4288 A896      		adiw r28,40
 11710 428a CDBF      		out __SP_L__,r28
 11711 428c DEBF      		out __SP_H__,r29
 11712 428e CF91      		pop r28
 11713 4290 DF91      		pop r29
 11714 4292 1F91      		pop r17
 11715               	.LVL1024:
 11716 4294 0F91      		pop r16
 11717 4296 FF90      		pop r15
 11718 4298 EF90      		pop r14
 11719 429a DF90      		pop r13
 11720 429c CF90      		pop r12
 11721 429e BF90      		pop r11
 11722 42a0 AF90      		pop r10
 11723 42a2 9F90      		pop r9
 11724 42a4 8F90      		pop r8
 11725               	.LVL1025:
 11726 42a6 7F90      		pop r7
 11727 42a8 6F90      		pop r6
 11728 42aa 5F90      		pop r5
 11729 42ac 4F90      		pop r4
 11730               	.LVL1026:
 11731 42ae 3F90      		pop r3
 11732 42b0 2F90      		pop r2
 11733               	.LVL1027:
 11734 42b2 0895      		ret
 11735               	.LVL1028:
 11736               	.L703:
 11737               	.LM1130:
 11738 42b4 11E0      		ldi r17,lo8(1)
 11739 42b6 00C0      		rjmp .L699
 11740               	.LFE92:
 11742               	.global	f_chmod
 11744               	f_chmod:
 11745               	.LFB93:
 11746               	.LM1131:
 11747               	.LVL1029:
 11748 42b8 EF92      		push r14
 11749 42ba FF92      		push r15
 11750 42bc 0F93      		push r16
 11751 42be 1F93      		push r17
 11752 42c0 DF93      		push r29
 11753 42c2 CF93      		push r28
 11754 42c4 CDB7      		in r28,__SP_L__
 11755 42c6 DEB7      		in r29,__SP_H__
 11756 42c8 A497      		sbiw r28,36
 11757 42ca CDBF      		out __SP_L__,r28
 11758 42cc DEBF      		out __SP_H__,r29
 11759               	/* prologue: function */
 11760               	/* frame size = 36 */
 11761 42ce 8BA3      		std Y+35,r24
 11762 42d0 9CA3      		std Y+36,r25
 11763 42d2 E62E      		mov r14,r22
 11764 42d4 F42E      		mov r15,r20
 11765               	.LM1132:
 11766 42d6 8E01      		movw r16,r28
 11767 42d8 035F      		subi r16,lo8(-(13))
 11768 42da 1F4F      		sbci r17,hi8(-(13))
 11769 42dc CE01      		movw r24,r28
 11770               	.LVL1030:
 11771 42de 8396      		adiw r24,35
 11772 42e0 B801      		movw r22,r16
 11773               	.LVL1031:
 11774 42e2 41E0      		ldi r20,lo8(1)
 11775               	.LVL1032:
 11776 42e4 0E94 0000 		call chk_mounted
 11777               	.LM1133:
 11778 42e8 8823      		tst r24
 11779               	.LVL1033:
 11780 42ea 01F4      		brne .L720
 11781               	.LM1134:
 11782 42ec CE01      		movw r24,r28
 11783               	.LVL1034:
 11784 42ee 0196      		adiw r24,1
 11785 42f0 89A3      		std Y+33,r24
 11786 42f2 9AA3      		std Y+34,r25
 11787               	.LM1135:
 11788 42f4 6BA1      		ldd r22,Y+35
 11789 42f6 7CA1      		ldd r23,Y+36
 11790 42f8 C801      		movw r24,r16
 11791 42fa 0E94 0000 		call follow_path
 11792               	.LM1136:
 11793 42fe 8823      		tst r24
 11794               	.LVL1035:
 11795 4300 01F4      		brne .L720
 11796               	.LM1137:
 11797 4302 EF8D      		ldd r30,Y+31
 11798 4304 F8A1      		ldd r31,Y+32
 11799               	.LVL1036:
 11800               	.LM1138:
 11801 4306 3097      		sbiw r30,0
 11802 4308 01F4      		brne .L721
 11803 430a 86E0      		ldi r24,lo8(6)
 11804 430c 00C0      		rjmp .L720
 11805               	.L721:
 11806               	.LM1139:
 11807 430e 9F2D      		mov r25,r15
 11808 4310 9772      		andi r25,lo8(39)
 11809               	.LVL1037:
 11810               	.LM1140:
 11811 4312 892F      		mov r24,r25
 11812               	.LVL1038:
 11813 4314 8095      		com r24
 11814 4316 2385      		ldd r18,Z+11
 11815 4318 8223      		and r24,r18
 11816 431a 9E21      		and r25,r14
 11817 431c 892B      		or r24,r25
 11818 431e 8387      		std Z+11,r24
 11819               	.LM1141:
 11820 4320 ED85      		ldd r30,Y+13
 11821 4322 FE85      		ldd r31,Y+14
 11822               	.LVL1039:
 11823 4324 81E0      		ldi r24,lo8(1)
 11824 4326 8483      		std Z+4,r24
 11825               	.LM1142:
 11826 4328 CF01      		movw r24,r30
 11827 432a 0E94 0000 		call sync
 11828               	.LVL1040:
 11829               	.L720:
 11830               	.LVL1041:
 11831               	/* epilogue start */
 11832               	.LM1143:
 11833 432e A496      		adiw r28,36
 11834 4330 CDBF      		out __SP_L__,r28
 11835 4332 DEBF      		out __SP_H__,r29
 11836 4334 CF91      		pop r28
 11837 4336 DF91      		pop r29
 11838 4338 1F91      		pop r17
 11839 433a 0F91      		pop r16
 11840 433c FF90      		pop r15
 11841               	.LVL1042:
 11842 433e EF90      		pop r14
 11843               	.LVL1043:
 11844 4340 0895      		ret
 11845               	.LFE93:
 11847               	.global	f_utime
 11849               	f_utime:
 11850               	.LFB94:
 11851               	.LM1144:
 11852               	.LVL1044:
 11853 4342 EF92      		push r14
 11854 4344 FF92      		push r15
 11855 4346 0F93      		push r16
 11856 4348 1F93      		push r17
 11857 434a DF93      		push r29
 11858 434c CF93      		push r28
 11859 434e CDB7      		in r28,__SP_L__
 11860 4350 DEB7      		in r29,__SP_H__
 11861 4352 A497      		sbiw r28,36
 11862 4354 CDBF      		out __SP_L__,r28
 11863 4356 DEBF      		out __SP_H__,r29
 11864               	/* prologue: function */
 11865               	/* frame size = 36 */
 11866 4358 8BA3      		std Y+35,r24
 11867 435a 9CA3      		std Y+36,r25
 11868 435c 8B01      		movw r16,r22
 11869               	.LM1145:
 11870 435e 4DE0      		ldi r20,lo8(13)
 11871 4360 E42E      		mov r14,r20
 11872 4362 F12C      		mov r15,__zero_reg__
 11873 4364 EC0E      		add r14,r28
 11874 4366 FD1E      		adc r15,r29
 11875 4368 CE01      		movw r24,r28
 11876               	.LVL1045:
 11877 436a 8396      		adiw r24,35
 11878 436c B701      		movw r22,r14
 11879               	.LVL1046:
 11880 436e 41E0      		ldi r20,lo8(1)
 11881 4370 0E94 0000 		call chk_mounted
 11882               	.LM1146:
 11883 4374 8823      		tst r24
 11884               	.LVL1047:
 11885 4376 01F4      		brne .L724
 11886               	.LM1147:
 11887 4378 CE01      		movw r24,r28
 11888               	.LVL1048:
 11889 437a 0196      		adiw r24,1
 11890 437c 89A3      		std Y+33,r24
 11891 437e 9AA3      		std Y+34,r25
 11892               	.LM1148:
 11893 4380 6BA1      		ldd r22,Y+35
 11894 4382 7CA1      		ldd r23,Y+36
 11895 4384 C701      		movw r24,r14
 11896 4386 0E94 0000 		call follow_path
 11897               	.LM1149:
 11898 438a 8823      		tst r24
 11899               	.LVL1049:
 11900 438c 01F4      		brne .L724
 11901               	.LM1150:
 11902 438e EF8D      		ldd r30,Y+31
 11903 4390 F8A1      		ldd r31,Y+32
 11904               	.LVL1050:
 11905               	.LM1151:
 11906 4392 3097      		sbiw r30,0
 11907 4394 01F4      		brne .L725
 11908 4396 86E0      		ldi r24,lo8(6)
 11909 4398 00C0      		rjmp .L724
 11910               	.L725:
 11911               	.LM1152:
 11912 439a D801      		movw r26,r16
 11913 439c 1696      		adiw r26,6
 11914 439e 8C91      		ld r24,X
 11915 43a0 1697      		sbiw r26,6
 11916               	.LVL1051:
 11917 43a2 868B      		std Z+22,r24
 11918 43a4 1796      		adiw r26,7
 11919 43a6 8C91      		ld r24,X
 11920 43a8 1797      		sbiw r26,7
 11921 43aa 878B      		std Z+23,r24
 11922               	.LM1153:
 11923 43ac 1496      		adiw r26,4
 11924 43ae 8C91      		ld r24,X
 11925 43b0 1497      		sbiw r26,4
 11926 43b2 808F      		std Z+24,r24
 11927 43b4 1596      		adiw r26,5
 11928 43b6 8C91      		ld r24,X
 11929 43b8 818F      		std Z+25,r24
 11930               	.LM1154:
 11931 43ba ED85      		ldd r30,Y+13
 11932 43bc FE85      		ldd r31,Y+14
 11933               	.LVL1052:
 11934 43be 81E0      		ldi r24,lo8(1)
 11935 43c0 8483      		std Z+4,r24
 11936               	.LM1155:
 11937 43c2 CF01      		movw r24,r30
 11938 43c4 0E94 0000 		call sync
 11939               	.LVL1053:
 11940               	.L724:
 11941               	.LVL1054:
 11942               	/* epilogue start */
 11943               	.LM1156:
 11944 43c8 A496      		adiw r28,36
 11945 43ca CDBF      		out __SP_L__,r28
 11946 43cc DEBF      		out __SP_H__,r29
 11947 43ce CF91      		pop r28
 11948 43d0 DF91      		pop r29
 11949 43d2 1F91      		pop r17
 11950 43d4 0F91      		pop r16
 11951               	.LVL1055:
 11952 43d6 FF90      		pop r15
 11953 43d8 EF90      		pop r14
 11954 43da 0895      		ret
 11955               	.LFE94:
 11957               	.global	f_rename
 11959               	f_rename:
 11960               	.LFB95:
 11961               	.LM1157:
 11962               	.LVL1056:
 11963 43dc CF92      		push r12
 11964 43de DF92      		push r13
 11965 43e0 EF92      		push r14
 11966 43e2 FF92      		push r15
 11967 43e4 0F93      		push r16
 11968 43e6 1F93      		push r17
 11969 43e8 DF93      		push r29
 11970 43ea CF93      		push r28
 11971 43ec CDB7      		in r28,__SP_L__
 11972 43ee DEB7      		in r29,__SP_H__
 11973 43f0 CF54      		subi r28,lo8(-(-79))
 11974 43f2 D040      		sbci r29,hi8(-(-79))
 11975 43f4 CDBF      		out __SP_L__,r28
 11976 43f6 DEBF      		out __SP_H__,r29
 11977               	/* prologue: function */
 11978               	/* frame size = 79 */
 11979 43f8 8E01      		movw r16,r28
 11980 43fa 025B      		subi r16,lo8(-(78))
 11981 43fc 1F4F      		sbci r17,hi8(-(78))
 11982 43fe D801      		movw r26,r16
 11983 4400 8D93      		st X+,r24
 11984 4402 9C93      		st X,r25
 11985 4404 6B01      		movw r12,r22
 11986               	.LM1158:
 11987 4406 CE01      		movw r24,r28
 11988               	.LVL1057:
 11989 4408 0196      		adiw r24,1
 11990 440a 8EAB      		std Y+54,r24
 11991 440c 9FAB      		std Y+55,r25
 11992               	.LM1159:
 11993 440e A2E2      		ldi r26,lo8(34)
 11994 4410 EA2E      		mov r14,r26
 11995 4412 F12C      		mov r15,__zero_reg__
 11996 4414 EC0E      		add r14,r28
 11997 4416 FD1E      		adc r15,r29
 11998 4418 C801      		movw r24,r16
 11999 441a B701      		movw r22,r14
 12000               	.LVL1058:
 12001 441c 41E0      		ldi r20,lo8(1)
 12002 441e 0E94 0000 		call chk_mounted
 12003               	.LM1160:
 12004 4422 8823      		tst r24
 12005               	.LVL1059:
 12006 4424 01F0      		breq .+2
 12007 4426 00C0      		rjmp .L728
 12008               	.LM1161:
 12009 4428 8AA1      		ldd r24,Y+34
 12010 442a 9BA1      		ldd r25,Y+35
 12011               	.LVL1060:
 12012 442c 88AF      		std Y+56,r24
 12013 442e 99AF      		std Y+57,r25
 12014               	.LM1162:
 12015 4430 F801      		movw r30,r16
 12016 4432 6081      		ld r22,Z
 12017 4434 7181      		ldd r23,Z+1
 12018 4436 C701      		movw r24,r14
 12019 4438 0E94 0000 		call follow_path
 12020               	.LM1163:
 12021 443c 8823      		tst r24
 12022               	.LVL1061:
 12023 443e 01F0      		breq .+2
 12024 4440 00C0      		rjmp .L728
 12025               	.LVL1062:
 12026               	.LM1164:
 12027 4442 8CA9      		ldd r24,Y+52
 12028 4444 9DA9      		ldd r25,Y+53
 12029               	.LVL1063:
 12030 4446 0097      		sbiw r24,0
 12031 4448 01F4      		brne .L729
 12032 444a 84E0      		ldi r24,lo8(4)
 12033               	.LVL1064:
 12034 444c 00C0      		rjmp .L728
 12035               	.LVL1065:
 12036               	.L729:
 12037 444e DC01      		movw r26,r24
 12038 4450 FE01      		movw r30,r28
 12039               	.LVL1066:
 12040 4452 3D96      		adiw r30,13
 12041 4454 00C0      		rjmp .L730
 12042               	.L731:
 12043               	.LBB801:
 12044               	.LBB802:
 12045               	.LM1165:
 12046 4456 1A96      		adiw r26,10
 12047 4458 8C91      		ld r24,X
 12048 445a 1A97      		sbiw r26,10
 12049 445c 8193      		st Z+,r24
 12050               	.L730:
 12051 445e 1196      		adiw r26,1
 12052 4460 EE15      		cp r30,r14
 12053 4462 FF05      		cpc r31,r15
 12054 4464 01F4      		brne .L731
 12055               	.LBE802:
 12056               	.LBE801:
 12057               	.LBB803:
 12058               	.LBB804:
 12059               	.LM1166:
 12060 4466 DE01      		movw r26,r28
 12061               	.LVL1067:
 12062 4468 D896      		adiw r26,56
 12063               	.LM1167:
 12064 446a F701      		movw r30,r14
 12065               	.LVL1068:
 12066               	.LM1168:
 12067 446c 9D01      		movw r18,r26
 12068 446e 00C0      		rjmp .L732
 12069               	.L733:
 12070 4470 8191      		ld r24,Z+
 12071 4472 8D93      		st X+,r24
 12072               	.L732:
 12073 4474 E217      		cp r30,r18
 12074 4476 F307      		cpc r31,r19
 12075 4478 01F4      		brne .L733
 12076               	.LBE804:
 12077               	.LBE803:
 12078               	.LM1169:
 12079 447a 8E01      		movw r16,r28
 12080 447c 085C      		subi r16,lo8(-(56))
 12081 447e 1F4F      		sbci r17,hi8(-(56))
 12082 4480 C801      		movw r24,r16
 12083 4482 B601      		movw r22,r12
 12084 4484 0E94 0000 		call follow_path
 12085               	.LVL1069:
 12086               	.LM1170:
 12087 4488 8823      		tst r24
 12088               	.LVL1070:
 12089 448a 01F4      		brne .L734
 12090 448c 88E0      		ldi r24,lo8(8)
 12091 448e 00C0      		rjmp .L728
 12092               	.L734:
 12093               	.LM1171:
 12094 4490 8430      		cpi r24,lo8(4)
 12095 4492 01F0      		breq .+2
 12096 4494 00C0      		rjmp .L728
 12097               	.LM1172:
 12098 4496 C801      		movw r24,r16
 12099               	.LVL1071:
 12100 4498 0E94 0000 		call dir_register
 12101               	.LM1173:
 12102 449c 8823      		tst r24
 12103               	.LVL1072:
 12104 449e 01F0      		breq .+2
 12105 44a0 00C0      		rjmp .L728
 12106               	.LM1174:
 12107 44a2 FE01      		movw r30,r28
 12108 44a4 E65B      		subi r30,lo8(-(74))
 12109 44a6 FF4F      		sbci r31,hi8(-(74))
 12110 44a8 4081      		ld r20,Z
 12111 44aa 5181      		ldd r21,Z+1
 12112               	.LVL1073:
 12113 44ac DA01      		movw r26,r20
 12114 44ae FE01      		movw r30,r28
 12115               	.LVL1074:
 12116 44b0 3F96      		adiw r30,15
 12117 44b2 00C0      		rjmp .L735
 12118               	.L736:
 12119               	.LBB805:
 12120               	.LBB806:
 12121               	.LM1175:
 12122 44b4 8191      		ld r24,Z+
 12123               	.LVL1075:
 12124 44b6 1C96      		adiw r26,12
 12125 44b8 8C93      		st X,r24
 12126 44ba 1C97      		sbiw r26,12
 12127               	.LVL1076:
 12128               	.L735:
 12129 44bc 1196      		adiw r26,1
 12130 44be EE15      		cp r30,r14
 12131 44c0 FF05      		cpc r31,r15
 12132 44c2 01F4      		brne .L736
 12133               	.LBE806:
 12134               	.LBE805:
 12135               	.LM1176:
 12136 44c4 8D85      		ldd r24,Y+13
 12137               	.LVL1077:
 12138 44c6 8062      		ori r24,lo8(32)
 12139 44c8 DA01      		movw r26,r20
 12140 44ca 1B96      		adiw r26,11
 12141 44cc 8C93      		st X,r24
 12142 44ce 1B97      		sbiw r26,11
 12143               	.LM1177:
 12144 44d0 EAA1      		ldd r30,Y+34
 12145 44d2 FBA1      		ldd r31,Y+35
 12146               	.LVL1078:
 12147 44d4 81E0      		ldi r24,lo8(1)
 12148 44d6 8483      		std Z+4,r24
 12149               	.LM1178:
 12150 44d8 1B96      		adiw r26,11
 12151 44da 8C91      		ld r24,X
 12152 44dc 1B97      		sbiw r26,11
 12153 44de 84FF      		sbrs r24,4
 12154 44e0 00C0      		rjmp .L737
 12155               	.LM1179:
 12156 44e2 C8AC      		ldd r12,Y+56
 12157 44e4 D9AC      		ldd r13,Y+57
 12158               	.LVL1079:
 12159               	.LBB807:
 12160               	.LBB808:
 12161               	.LM1180:
 12162 44e6 5A96      		adiw r26,26
 12163 44e8 2C91      		ld r18,X
 12164 44ea 5A97      		sbiw r26,26
 12165 44ec 30E0      		ldi r19,lo8(0)
 12166 44ee 5496      		adiw r26,20
 12167 44f0 8C91      		ld r24,X
 12168 44f2 5497      		sbiw r26,20
 12169 44f4 90E0      		ldi r25,lo8(0)
 12170 44f6 282B      		or r18,r24
 12171 44f8 392B      		or r19,r25
 12172 44fa 5596      		adiw r26,21
 12173 44fc 9C91      		ld r25,X
 12174 44fe 5597      		sbiw r26,21
 12175 4500 80E0      		ldi r24,lo8(0)
 12176 4502 282B      		or r18,r24
 12177 4504 392B      		or r19,r25
 12178 4506 5B96      		adiw r26,27
 12179 4508 9C91      		ld r25,X
 12180 450a 80E0      		ldi r24,lo8(0)
 12181 450c 282B      		or r18,r24
 12182 450e 392B      		or r19,r25
 12183 4510 7901      		movw r14,r18
 12184               	.LVL1080:
 12185 4512 00E0      		ldi r16,lo8(0)
 12186 4514 10E0      		ldi r17,hi8(0)
 12187               	.LVL1081:
 12188 4516 8EEF      		ldi r24,lo8(-2)
 12189 4518 9FEF      		ldi r25,hi8(-2)
 12190 451a AFEF      		ldi r26,hlo8(-2)
 12191 451c BFEF      		ldi r27,hhi8(-2)
 12192 451e E80E      		add r14,r24
 12193 4520 F91E      		adc r15,r25
 12194 4522 0A1F      		adc r16,r26
 12195 4524 1B1F      		adc r17,r27
 12196               	.LVL1082:
 12197               	.LM1181:
 12198 4526 F601      		movw r30,r12
 12199 4528 828D      		ldd r24,Z+26
 12200 452a 938D      		ldd r25,Z+27
 12201 452c A48D      		ldd r26,Z+28
 12202 452e B58D      		ldd r27,Z+29
 12203 4530 0297      		sbiw r24,2
 12204 4532 A109      		sbc r26,__zero_reg__
 12205 4534 B109      		sbc r27,__zero_reg__
 12206 4536 E816      		cp r14,r24
 12207 4538 F906      		cpc r15,r25
 12208 453a 0A07      		cpc r16,r26
 12209 453c 1B07      		cpc r17,r27
 12210 453e 00F0      		brlo .+2
 12211 4540 00C0      		rjmp .L738
 12212               	.LM1182:
 12213 4542 2281      		ldd r18,Z+2
 12214 4544 30E0      		ldi r19,lo8(0)
 12215 4546 40E0      		ldi r20,lo8(0)
 12216 4548 50E0      		ldi r21,hi8(0)
 12217               	.LVL1083:
 12218 454a C801      		movw r24,r16
 12219 454c B701      		movw r22,r14
 12220 454e 0E94 0000 		call __mulsi3
 12221 4552 AB01      		movw r20,r22
 12222 4554 BC01      		movw r22,r24
 12223               	.LVL1084:
 12224 4556 F601      		movw r30,r12
 12225 4558 86A1      		ldd r24,Z+38
 12226 455a 97A1      		ldd r25,Z+39
 12227 455c A0A5      		ldd r26,Z+40
 12228 455e B1A5      		ldd r27,Z+41
 12229 4560 480F      		add r20,r24
 12230 4562 591F      		adc r21,r25
 12231 4564 6A1F      		adc r22,r26
 12232 4566 7B1F      		adc r23,r27
 12233               	.LBE808:
 12234               	.LBE807:
 12235               	.LM1183:
 12236 4568 4115      		cp r20,__zero_reg__
 12237 456a 5105      		cpc r21,__zero_reg__
 12238 456c 6105      		cpc r22,__zero_reg__
 12239 456e 7105      		cpc r23,__zero_reg__
 12240 4570 01F4      		brne .+2
 12241 4572 00C0      		rjmp .L738
 12242               	.LM1184:
 12243 4574 C601      		movw r24,r12
 12244 4576 0E94 0000 		call move_window
 12245               	.LVL1085:
 12246               	.LM1185:
 12247 457a A8AD      		ldd r26,Y+56
 12248 457c B9AD      		ldd r27,Y+57
 12249               	.LM1186:
 12250 457e 8823      		tst r24
 12251               	.LVL1086:
 12252 4580 01F0      		breq .+2
 12253 4582 00C0      		rjmp .L728
 12254               	.LM1187:
 12255 4584 BD01      		movw r22,r26
 12256               	.LVL1087:
 12257 4586 625B      		subi r22,lo8(-(78))
 12258 4588 7F4F      		sbci r23,hi8(-(78))
 12259               	.LM1188:
 12260 458a FB01      		movw r30,r22
 12261 458c 8181      		ldd r24,Z+1
 12262               	.LVL1088:
 12263 458e 8E32      		cpi r24,lo8(46)
 12264 4590 01F4      		brne .L737
 12265               	.LM1189:
 12266 4592 8C91      		ld r24,X
 12267 4594 8330      		cpi r24,lo8(3)
 12268 4596 01F4      		brne .L739
 12269 4598 FE01      		movw r30,r28
 12270 459a FE96      		adiw r30,62
 12271 459c 2081      		ld r18,Z
 12272 459e 3181      		ldd r19,Z+1
 12273 45a0 4281      		ldd r20,Z+2
 12274 45a2 5381      		ldd r21,Z+3
 12275 45a4 9296      		adiw r26,34
 12276 45a6 8D91      		ld r24,X+
 12277 45a8 9D91      		ld r25,X+
 12278 45aa 0D90      		ld __tmp_reg__,X+
 12279 45ac BC91      		ld r27,X
 12280 45ae A02D      		mov r26,__tmp_reg__
 12281 45b0 2817      		cp r18,r24
 12282 45b2 3907      		cpc r19,r25
 12283 45b4 4A07      		cpc r20,r26
 12284 45b6 5B07      		cpc r21,r27
 12285 45b8 01F4      		brne .L739
 12286 45ba 20E0      		ldi r18,lo8(0)
 12287 45bc 30E0      		ldi r19,hi8(0)
 12288 45be 40E0      		ldi r20,hlo8(0)
 12289 45c0 50E0      		ldi r21,hhi8(0)
 12290               	.LVL1089:
 12291 45c2 00C0      		rjmp .L740
 12292               	.LVL1090:
 12293               	.L739:
 12294 45c4 FE01      		movw r30,r28
 12295 45c6 FE96      		adiw r30,62
 12296 45c8 2081      		ld r18,Z
 12297 45ca 3181      		ldd r19,Z+1
 12298 45cc 4281      		ldd r20,Z+2
 12299 45ce 5381      		ldd r21,Z+3
 12300               	.LVL1091:
 12301               	.L740:
 12302               	.LM1190:
 12303 45d0 DB01      		movw r26,r22
 12304 45d2 5A96      		adiw r26,26
 12305 45d4 2C93      		st X,r18
 12306 45d6 5A97      		sbiw r26,26
 12307 45d8 832F      		mov r24,r19
 12308 45da 9927      		clr r25
 12309 45dc 5B96      		adiw r26,27
 12310 45de 8C93      		st X,r24
 12311               	.LM1191:
 12312 45e0 CA01      		movw r24,r20
 12313 45e2 AA27      		clr r26
 12314 45e4 BB27      		clr r27
 12315 45e6 FB01      		movw r30,r22
 12316 45e8 848B      		std Z+20,r24
 12317 45ea 892F      		mov r24,r25
 12318 45ec 9927      		clr r25
 12319 45ee 858B      		std Z+21,r24
 12320               	.LM1192:
 12321 45f0 E8AD      		ldd r30,Y+56
 12322 45f2 F9AD      		ldd r31,Y+57
 12323 45f4 81E0      		ldi r24,lo8(1)
 12324 45f6 8483      		std Z+4,r24
 12325               	.LVL1092:
 12326               	.L737:
 12327               	.LM1193:
 12328 45f8 CE01      		movw r24,r28
 12329 45fa 8296      		adiw r24,34
 12330 45fc 0E94 0000 		call dir_remove
 12331               	.LVL1093:
 12332               	.LM1194:
 12333 4600 8823      		tst r24
 12334               	.LVL1094:
 12335 4602 01F4      		brne .L728
 12336               	.LM1195:
 12337 4604 8AA1      		ldd r24,Y+34
 12338 4606 9BA1      		ldd r25,Y+35
 12339               	.LVL1095:
 12340 4608 0E94 0000 		call sync
 12341 460c 00C0      		rjmp .L728
 12342               	.LVL1096:
 12343               	.L738:
 12344 460e 82E0      		ldi r24,lo8(2)
 12345               	.LVL1097:
 12346               	.L728:
 12347               	.LVL1098:
 12348               	/* epilogue start */
 12349               	.LM1196:
 12350 4610 C15B      		subi r28,lo8(-(79))
 12351 4612 DF4F      		sbci r29,hi8(-(79))
 12352 4614 CDBF      		out __SP_L__,r28
 12353 4616 DEBF      		out __SP_H__,r29
 12354 4618 CF91      		pop r28
 12355 461a DF91      		pop r29
 12356 461c 1F91      		pop r17
 12357 461e 0F91      		pop r16
 12358               	.LVL1099:
 12359 4620 FF90      		pop r15
 12360 4622 EF90      		pop r14
 12361               	.LVL1100:
 12362 4624 DF90      		pop r13
 12363 4626 CF90      		pop r12
 12364               	.LVL1101:
 12365 4628 0895      		ret
 12366               	.LFE95:
 12368               	.global	f_gets
 12370               	f_gets:
 12371               	.LFB96:
 12372               	.LM1197:
 12373               	.LVL1102:
 12374 462a 6F92      		push r6
 12375 462c 7F92      		push r7
 12376 462e 8F92      		push r8
 12377 4630 9F92      		push r9
 12378 4632 AF92      		push r10
 12379 4634 BF92      		push r11
 12380 4636 CF92      		push r12
 12381 4638 DF92      		push r13
 12382 463a EF92      		push r14
 12383 463c FF92      		push r15
 12384 463e 0F93      		push r16
 12385 4640 1F93      		push r17
 12386 4642 DF93      		push r29
 12387 4644 CF93      		push r28
 12388 4646 0F92      		push __tmp_reg__
 12389 4648 0F92      		push __tmp_reg__
 12390 464a CDB7      		in r28,__SP_L__
 12391 464c DEB7      		in r29,__SP_H__
 12392               	/* prologue: function */
 12393               	/* frame size = 2 */
 12394 464e 5C01      		movw r10,r24
 12395 4650 6B01      		movw r12,r22
 12396 4652 4A01      		movw r8,r20
 12397               	.LM1198:
 12398 4654 8C01      		movw r16,r24
 12399               	.LVL1103:
 12400 4656 EE24      		clr r14
 12401 4658 FF24      		clr r15
 12402               	.LVL1104:
 12403               	.LM1199:
 12404 465a 0894      		sec
 12405 465c C108      		sbc r12,__zero_reg__
 12406 465e D108      		sbc r13,__zero_reg__
 12407               	.LM1200:
 12408 4660 3E01      		movw r6,r28
 12409 4662 0894      		sec
 12410 4664 611C      		adc r6,__zero_reg__
 12411 4666 711C      		adc r7,__zero_reg__
 12412 4668 00C0      		rjmp .L743
 12413               	.LVL1105:
 12414               	.L745:
 12415 466a C401      		movw r24,r8
 12416 466c B801      		movw r22,r16
 12417               	.LVL1106:
 12418 466e 41E0      		ldi r20,lo8(1)
 12419 4670 50E0      		ldi r21,hi8(1)
 12420 4672 9301      		movw r18,r6
 12421 4674 0E94 0000 		call f_read
 12422               	.LM1201:
 12423 4678 8981      		ldd r24,Y+1
 12424 467a 9A81      		ldd r25,Y+2
 12425 467c 0197      		sbiw r24,1
 12426 467e 01F4      		brne .L744
 12427               	.LVL1107:
 12428               	.LM1202:
 12429 4680 0894      		sec
 12430 4682 E11C      		adc r14,__zero_reg__
 12431 4684 F11C      		adc r15,__zero_reg__
 12432               	.LM1203:
 12433 4686 F801      		movw r30,r16
 12434 4688 8191      		ld r24,Z+
 12435               	.LVL1108:
 12436 468a 8F01      		movw r16,r30
 12437 468c 8A30      		cpi r24,lo8(10)
 12438 468e 01F0      		breq .L744
 12439               	.LVL1109:
 12440               	.L743:
 12441               	.LM1204:
 12442 4690 EC14      		cp r14,r12
 12443 4692 FD04      		cpc r15,r13
 12444 4694 04F0      		brlt .L745
 12445               	.LVL1110:
 12446               	.L744:
 12447               	.LM1205:
 12448 4696 F801      		movw r30,r16
 12449 4698 1082      		st Z,__zero_reg__
 12450               	.LM1206:
 12451 469a EF28      		or r14,r15
 12452 469c 01F4      		brne .L746
 12453 469e AA24      		clr r10
 12454 46a0 BB24      		clr r11
 12455               	.LVL1111:
 12456               	.L746:
 12457               	.LM1207:
 12458 46a2 C501      		movw r24,r10
 12459               	.LVL1112:
 12460               	/* epilogue start */
 12461 46a4 0F90      		pop __tmp_reg__
 12462 46a6 0F90      		pop __tmp_reg__
 12463 46a8 CF91      		pop r28
 12464 46aa DF91      		pop r29
 12465 46ac 1F91      		pop r17
 12466 46ae 0F91      		pop r16
 12467               	.LVL1113:
 12468 46b0 FF90      		pop r15
 12469 46b2 EF90      		pop r14
 12470               	.LVL1114:
 12471 46b4 DF90      		pop r13
 12472 46b6 CF90      		pop r12
 12473 46b8 BF90      		pop r11
 12474 46ba AF90      		pop r10
 12475 46bc 9F90      		pop r9
 12476 46be 8F90      		pop r8
 12477               	.LVL1115:
 12478 46c0 7F90      		pop r7
 12479 46c2 6F90      		pop r6
 12480 46c4 0895      		ret
 12481               	.LFE96:
 12483               	.global	f_putc
 12485               	f_putc:
 12486               	.LFB97:
 12487               	.LM1208:
 12488               	.LVL1116:
 12489 46c6 0F93      		push r16
 12490 46c8 1F93      		push r17
 12491 46ca DF93      		push r29
 12492 46cc CF93      		push r28
 12493 46ce 00D0      		rcall .
 12494 46d0 CDB7      		in r28,__SP_L__
 12495 46d2 DEB7      		in r29,__SP_H__
 12496               	/* prologue: function */
 12497               	/* frame size = 3 */
 12498 46d4 8C01      		movw r16,r24
 12499               	.LM1209:
 12500 46d6 6115      		cp r22,__zero_reg__
 12501 46d8 7105      		cpc r23,__zero_reg__
 12502 46da 01F0      		breq .L749
 12503               	.LVL1117:
 12504               	.LM1210:
 12505 46dc 8983      		std Y+1,r24
 12506               	.LVL1118:
 12507               	.LM1211:
 12508 46de CB01      		movw r24,r22
 12509 46e0 BE01      		movw r22,r28
 12510               	.LVL1119:
 12511 46e2 6F5F      		subi r22,lo8(-(1))
 12512 46e4 7F4F      		sbci r23,hi8(-(1))
 12513 46e6 41E0      		ldi r20,lo8(1)
 12514 46e8 50E0      		ldi r21,hi8(1)
 12515 46ea 9E01      		movw r18,r28
 12516 46ec 2E5F      		subi r18,lo8(-(2))
 12517 46ee 3F4F      		sbci r19,hi8(-(2))
 12518 46f0 0E94 0000 		call f_write
 12519               	.LM1212:
 12520 46f4 8A81      		ldd r24,Y+2
 12521 46f6 9B81      		ldd r25,Y+3
 12522               	.LVL1120:
 12523 46f8 892B      		or r24,r25
 12524 46fa 01F4      		brne .L749
 12525               	.LVL1121:
 12526 46fc 0FEF      		ldi r16,lo8(-1)
 12527 46fe 1FEF      		ldi r17,hi8(-1)
 12528               	.LVL1122:
 12529               	.L749:
 12530               	.LM1213:
 12531 4700 C801      		movw r24,r16
 12532               	.LVL1123:
 12533               	/* epilogue start */
 12534 4702 2396      		adiw r28,3
 12535 4704 CDBF      		out __SP_L__,r28
 12536 4706 DEBF      		out __SP_H__,r29
 12537 4708 CF91      		pop r28
 12538 470a DF91      		pop r29
 12539 470c 1F91      		pop r17
 12540 470e 0F91      		pop r16
 12541 4710 0895      		ret
 12542               	.LFE97:
 12544               	.global	f_puts
 12546               	f_puts:
 12547               	.LFB98:
 12548               	.LM1214:
 12549               	.LVL1124:
 12550 4712 EF92      		push r14
 12551 4714 FF92      		push r15
 12552 4716 0F93      		push r16
 12553 4718 1F93      		push r17
 12554 471a CF93      		push r28
 12555 471c DF93      		push r29
 12556               	/* prologue: function */
 12557               	/* frame size = 0 */
 12558 471e 8C01      		movw r16,r24
 12559 4720 7B01      		movw r14,r22
 12560               	.LM1215:
 12561 4722 C0E0      		ldi r28,lo8(0)
 12562 4724 D0E0      		ldi r29,hi8(0)
 12563               	.LVL1125:
 12564 4726 00C0      		rjmp .L752
 12565               	.LVL1126:
 12566               	.L755:
 12567               	.LM1216:
 12568 4728 90E0      		ldi r25,lo8(0)
 12569 472a B701      		movw r22,r14
 12570 472c 0E94 0000 		call f_putc
 12571 4730 8F5F      		subi r24,lo8(-1)
 12572 4732 9F4F      		sbci r25,hi8(-1)
 12573 4734 01F4      		brne .L753
 12574 4736 CFEF      		ldi r28,lo8(-1)
 12575 4738 DFEF      		ldi r29,hi8(-1)
 12576 473a 00C0      		rjmp .L754
 12577               	.L753:
 12578               	.LM1217:
 12579 473c 0F5F      		subi r16,lo8(-(1))
 12580 473e 1F4F      		sbci r17,hi8(-(1))
 12581 4740 2196      		adiw r28,1
 12582               	.LVL1127:
 12583               	.L752:
 12584 4742 F801      		movw r30,r16
 12585 4744 8081      		ld r24,Z
 12586 4746 8823      		tst r24
 12587 4748 01F4      		brne .L755
 12588               	.L754:
 12589               	.LM1218:
 12590 474a CE01      		movw r24,r28
 12591               	.LVL1128:
 12592               	/* epilogue start */
 12593 474c DF91      		pop r29
 12594 474e CF91      		pop r28
 12595 4750 1F91      		pop r17
 12596 4752 0F91      		pop r16
 12597               	.LVL1129:
 12598 4754 FF90      		pop r15
 12599 4756 EF90      		pop r14
 12600               	.LVL1130:
 12601 4758 0895      		ret
 12602               	.LFE98:
 12604               	.global	SD_Close
 12606               	SD_Close:
 12607               	.LFB102:
 12608               	.LM1219:
 12609               	/* prologue: function */
 12610               	/* frame size = 0 */
 12611               	.LM1220:
 12612 475a 80E0      		ldi r24,lo8(Log_File)
 12613 475c 90E0      		ldi r25,hi8(Log_File)
 12614 475e 0E94 0000 		call f_close
 12615               	/* epilogue start */
 12616               	.LM1221:
 12617 4762 0895      		ret
 12618               	.LFE102:
 12620               	.global	SD_Inserted
 12622               	SD_Inserted:
 12623               	.LFB103:
 12624               	.LM1222:
 12625               	/* prologue: function */
 12626               	/* frame size = 0 */
 12627               	.LM1223:
 12628 4764 8091 A806 		lds r24,1704
 12629 4768 90E0      		ldi r25,lo8(0)
 12630 476a 80FF      		sbrs r24,0
 12631 476c 91E0      		ldi r25,lo8(1)
 12632               	.L760:
 12633               	.LM1224:
 12634 476e 892F      		mov r24,r25
 12635               	/* epilogue start */
 12636 4770 0895      		ret
 12637               	.LFE103:
 12639               	.global	SD_WriteBuffer
 12641               	SD_WriteBuffer:
 12642               	.LFB108:
 12643               	.LM1225:
 12644               	.LVL1131:
 12645 4772 6F92      		push r6
 12646 4774 7F92      		push r7
 12647 4776 8F92      		push r8
 12648 4778 9F92      		push r9
 12649 477a BF92      		push r11
 12650 477c CF92      		push r12
 12651 477e DF92      		push r13
 12652 4780 EF92      		push r14
 12653 4782 FF92      		push r15
 12654 4784 0F93      		push r16
 12655 4786 1F93      		push r17
 12656 4788 DF93      		push r29
 12657 478a CF93      		push r28
 12658 478c 0F92      		push __tmp_reg__
 12659 478e 0F92      		push __tmp_reg__
 12660 4790 CDB7      		in r28,__SP_L__
 12661 4792 DEB7      		in r29,__SP_H__
 12662               	/* prologue: function */
 12663               	/* frame size = 2 */
 12664 4794 3C01      		movw r6,r24
 12665 4796 4B01      		movw r8,r22
 12666               	.LM1226:
 12667 4798 80E0      		ldi r24,lo8(Log_File)
 12668 479a 90E0      		ldi r25,hi8(Log_File)
 12669               	.LVL1132:
 12670 479c B301      		movw r22,r6
 12671               	.LVL1133:
 12672 479e A401      		movw r20,r8
 12673 47a0 9E01      		movw r18,r28
 12674 47a2 2F5F      		subi r18,lo8(-(1))
 12675 47a4 3F4F      		sbci r19,hi8(-(1))
 12676 47a6 0E94 0000 		call f_write
 12677 47aa CC24      		clr r12
 12678 47ac DD24      		clr r13
 12679               	.LVL1134:
 12680 47ae 00C0      		rjmp .L763
 12681               	.LVL1135:
 12682               	.L765:
 12683               	.LBB809:
 12684               	.LM1227:
 12685 47b0 2091 0000 		lds r18,CRC
 12686 47b4 3091 0000 		lds r19,(CRC)+1
 12687 47b8 4091 0000 		lds r20,(CRC)+2
 12688 47bc 5091 0000 		lds r21,(CRC)+3
 12689 47c0 F301      		movw r30,r6
 12690 47c2 EC0D      		add r30,r12
 12691 47c4 FD1D      		adc r31,r13
 12692 47c6 8081      		ld r24,Z
 12693 47c8 90E0      		ldi r25,lo8(0)
 12694 47ca A0E0      		ldi r26,lo8(0)
 12695 47cc B0E0      		ldi r27,hi8(0)
 12696 47ce 8227      		eor r24,r18
 12697 47d0 9327      		eor r25,r19
 12698 47d2 A427      		eor r26,r20
 12699 47d4 B527      		eor r27,r21
 12700 47d6 8093 0000 		sts CRC,r24
 12701 47da 9093 0000 		sts (CRC)+1,r25
 12702 47de A093 0000 		sts (CRC)+2,r26
 12703 47e2 B093 0000 		sts (CRC)+3,r27
 12704 47e6 BB24      		clr r11
 12705               	.L764:
 12706               	.LBB810:
 12707               	.LM1228:
 12708 47e8 E090 0000 		lds r14,CRC
 12709 47ec F090 0000 		lds r15,(CRC)+1
 12710 47f0 0091 0000 		lds r16,(CRC)+2
 12711 47f4 1091 0000 		lds r17,(CRC)+3
 12712 47f8 6091 0000 		lds r22,CRC
 12713 47fc 7091 0000 		lds r23,(CRC)+1
 12714 4800 8091 0000 		lds r24,(CRC)+2
 12715 4804 9091 0000 		lds r25,(CRC)+3
 12716 4808 6170      		andi r22,lo8(1)
 12717 480a 7070      		andi r23,hi8(1)
 12718 480c 8070      		andi r24,hlo8(1)
 12719 480e 9070      		andi r25,hhi8(1)
 12720 4810 20E2      		ldi r18,lo8(-306674912)
 12721 4812 33E8      		ldi r19,hi8(-306674912)
 12722 4814 48EB      		ldi r20,hlo8(-306674912)
 12723 4816 5DEE      		ldi r21,hhi8(-306674912)
 12724 4818 0E94 0000 		call __mulsi3
 12725 481c 1695      		lsr r17
 12726 481e 0795      		ror r16
 12727 4820 F794      		ror r15
 12728 4822 E794      		ror r14
 12729 4824 E626      		eor r14,r22
 12730 4826 F726      		eor r15,r23
 12731 4828 0827      		eor r16,r24
 12732 482a 1927      		eor r17,r25
 12733 482c E092 0000 		sts CRC,r14
 12734 4830 F092 0000 		sts (CRC)+1,r15
 12735 4834 0093 0000 		sts (CRC)+2,r16
 12736 4838 1093 0000 		sts (CRC)+3,r17
 12737               	.LM1229:
 12738 483c B394      		inc r11
 12739 483e 88E0      		ldi r24,lo8(8)
 12740 4840 B816      		cp r11,r24
 12741 4842 01F4      		brne .L764
 12742               	.LBE810:
 12743               	.LM1230:
 12744 4844 0894      		sec
 12745 4846 C11C      		adc r12,__zero_reg__
 12746 4848 D11C      		adc r13,__zero_reg__
 12747               	.L763:
 12748 484a C814      		cp r12,r8
 12749 484c D904      		cpc r13,r9
 12750 484e 00F4      		brsh .+2
 12751 4850 00C0      		rjmp .L765
 12752               	/* epilogue start */
 12753               	.LBE809:
 12754               	.LM1231:
 12755 4852 0F90      		pop __tmp_reg__
 12756 4854 0F90      		pop __tmp_reg__
 12757 4856 CF91      		pop r28
 12758 4858 DF91      		pop r29
 12759 485a 1F91      		pop r17
 12760 485c 0F91      		pop r16
 12761 485e FF90      		pop r15
 12762 4860 EF90      		pop r14
 12763 4862 DF90      		pop r13
 12764 4864 CF90      		pop r12
 12765               	.LVL1136:
 12766 4866 BF90      		pop r11
 12767               	.LVL1137:
 12768 4868 9F90      		pop r9
 12769 486a 8F90      		pop r8
 12770               	.LVL1138:
 12771 486c 7F90      		pop r7
 12772 486e 6F90      		pop r6
 12773               	.LVL1139:
 12774 4870 0895      		ret
 12775               	.LFE108:
 12777               	.global	SD_Write32
 12779               	SD_Write32:
 12780               	.LFB106:
 12781               	.LM1232:
 12782               	.LVL1140:
 12783               	/* prologue: function */
 12784               	/* frame size = 0 */
 12785               	.LM1233:
 12786 4872 6093 0000 		sts tmp32,r22
 12787               	.LM1234:
 12788 4876 272F      		mov r18,r23
 12789 4878 382F      		mov r19,r24
 12790 487a 492F      		mov r20,r25
 12791 487c 5527      		clr r21
 12792 487e 2093 0000 		sts tmp32+1,r18
 12793               	.LM1235:
 12794 4882 9C01      		movw r18,r24
 12795 4884 4427      		clr r20
 12796 4886 5527      		clr r21
 12797 4888 2093 0000 		sts tmp32+2,r18
 12798               	.LM1236:
 12799 488c 692F      		mov r22,r25
 12800 488e 7727      		clr r23
 12801 4890 8827      		clr r24
 12802 4892 9927      		clr r25
 12803               	.LVL1141:
 12804 4894 6093 0000 		sts tmp32+3,r22
 12805               	.LM1237:
 12806 4898 80E0      		ldi r24,lo8(tmp32)
 12807 489a 90E0      		ldi r25,hi8(tmp32)
 12808 489c 64E0      		ldi r22,lo8(4)
 12809 489e 70E0      		ldi r23,hi8(4)
 12810 48a0 0E94 0000 		call SD_WriteBuffer
 12811               	/* epilogue start */
 12812               	.LM1238:
 12813 48a4 0895      		ret
 12814               	.LFE106:
 12816               	.global	SD_Write16
 12818               	SD_Write16:
 12819               	.LFB105:
 12820               	.LM1239:
 12821               	.LVL1142:
 12822               	/* prologue: function */
 12823               	/* frame size = 0 */
 12824               	.LM1240:
 12825 48a6 8093 0000 		sts tmp16,r24
 12826               	.LM1241:
 12827 48aa 9093 0000 		sts tmp16+1,r25
 12828               	.LVL1143:
 12829               	.LM1242:
 12830 48ae 80E0      		ldi r24,lo8(tmp16)
 12831 48b0 90E0      		ldi r25,hi8(tmp16)
 12832               	.LVL1144:
 12833 48b2 62E0      		ldi r22,lo8(2)
 12834 48b4 70E0      		ldi r23,hi8(2)
 12835 48b6 0E94 0000 		call SD_WriteBuffer
 12836               	.LVL1145:
 12837               	/* epilogue start */
 12838               	.LM1243:
 12839 48ba 0895      		ret
 12840               	.LFE105:
 12842               	.global	SD_Write8
 12844               	SD_Write8:
 12845               	.LFB104:
 12846               	.LM1244:
 12847               	.LVL1146:
 12848               	/* prologue: function */
 12849               	/* frame size = 0 */
 12850               	.LM1245:
 12851 48bc 8093 0000 		sts tmp8,r24
 12852               	.LM1246:
 12853 48c0 80E0      		ldi r24,lo8(tmp8)
 12854 48c2 90E0      		ldi r25,hi8(tmp8)
 12855               	.LVL1147:
 12856 48c4 61E0      		ldi r22,lo8(1)
 12857 48c6 70E0      		ldi r23,hi8(1)
 12858 48c8 0E94 0000 		call SD_WriteBuffer
 12859               	/* epilogue start */
 12860               	.LM1247:
 12861 48cc 0895      		ret
 12862               	.LFE104:
 12864               	.global	SD_ClearCRC
 12866               	SD_ClearCRC:
 12867               	.LFB109:
 12868               	.LM1248:
 12869               	/* prologue: function */
 12870               	/* frame size = 0 */
 12871               	.LM1249:
 12872 48ce 8FEF      		ldi r24,lo8(-1)
 12873 48d0 9FEF      		ldi r25,hi8(-1)
 12874 48d2 AFEF      		ldi r26,hlo8(-1)
 12875 48d4 BFEF      		ldi r27,hhi8(-1)
 12876 48d6 8093 0000 		sts CRC,r24
 12877 48da 9093 0000 		sts (CRC)+1,r25
 12878 48de A093 0000 		sts (CRC)+2,r26
 12879 48e2 B093 0000 		sts (CRC)+3,r27
 12880               	/* epilogue start */
 12881               	.LM1250:
 12882 48e6 0895      		ret
 12883               	.LFE109:
 12885               	.global	SD_WriteCRC
 12887               	SD_WriteCRC:
 12888               	.LFB110:
 12889               	.LM1251:
 12890               	/* prologue: function */
 12891               	/* frame size = 0 */
 12892               	.LM1252:
 12893 48e8 6091 0000 		lds r22,CRC
 12894 48ec 7091 0000 		lds r23,(CRC)+1
 12895 48f0 8091 0000 		lds r24,(CRC)+2
 12896 48f4 9091 0000 		lds r25,(CRC)+3
 12897 48f8 6095      		com r22
 12898 48fa 7095      		com r23
 12899 48fc 8095      		com r24
 12900 48fe 9095      		com r25
 12901 4900 0E94 0000 		call SD_Write32
 12902               	/* epilogue start */
 12903               	.LM1253:
 12904 4904 0895      		ret
 12905               	.LFE110:
 12907               	.global	SD_Timer_Init
 12909               	SD_Timer_Init:
 12910               	.LFB113:
 12911               	.LM1254:
 12912               	/* prologue: function */
 12913               	/* frame size = 0 */
 12914               	.LM1255:
 12915 4906 E0E0      		ldi r30,lo8(2560)
 12916 4908 FAE0      		ldi r31,hi8(2560)
 12917 490a 80E4      		ldi r24,lo8(576)
 12918 490c 92E0      		ldi r25,hi8(576)
 12919 490e 86A3      		std Z+38,r24
 12920 4910 97A3      		std Z+39,r25
 12921               	.LM1256:
 12922 4912 8081      		ld r24,Z
 12923 4914 807F      		andi r24,lo8(-16)
 12924 4916 8660      		ori r24,lo8(6)
 12925 4918 8083      		st Z,r24
 12926               	.LM1257:
 12927 491a 8681      		ldd r24,Z+6
 12928 491c 8C7F      		andi r24,lo8(-4)
 12929 491e 8260      		ori r24,lo8(2)
 12930 4920 8683      		std Z+6,r24
 12931               	/* epilogue start */
 12932               	.LM1258:
 12933 4922 0895      		ret
 12934               	.LFE113:
 12936               	.global	SD_Init
 12938               	SD_Init:
 12939               	.LFB100:
 12940               	.LM1259:
 12941               	/* prologue: function */
 12942               	/* frame size = 0 */
 12943               	.LM1260:
 12944 4924 88E1      		ldi r24,lo8(24)
 12945 4926 E0EA      		ldi r30,lo8(1696)
 12946 4928 F6E0      		ldi r31,hi8(1696)
 12947 492a 808B      		std Z+16,r24
 12948               	.LM1261:
 12949 492c 0E94 0000 		call SD_Timer_Init
 12950               	.LM1262:
 12951 4930 80E0      		ldi r24,lo8(0)
 12952 4932 0E94 0000 		call disk_initialize
 12953               	.LM1263:
 12954 4936 80E0      		ldi r24,lo8(0)
 12955 4938 60E0      		ldi r22,lo8(file_system_object)
 12956 493a 70E0      		ldi r23,hi8(file_system_object)
 12957 493c 0E94 0000 		call f_mount
 12958               	/* epilogue start */
 12959               	.LM1264:
 12960 4940 0895      		ret
 12961               	.LFE100:
 12963               	.global	__vector_47
 12965               	__vector_47:
 12966               	.LFB114:
 12967               	.LM1265:
 12968 4942 1F92      		push __zero_reg__
 12969 4944 0F92      		push r0
 12970 4946 0FB6      		in r0,__SREG__
 12971 4948 0F92      		push r0
 12972 494a 0BB6      		in r0,59-0
 12973 494c 0F92      		push r0
 12974 494e 1124      		clr __zero_reg__
 12975 4950 2F93      		push r18
 12976 4952 3F93      		push r19
 12977 4954 4F93      		push r20
 12978 4956 5F93      		push r21
 12979 4958 6F93      		push r22
 12980 495a 7F93      		push r23
 12981 495c 8F93      		push r24
 12982 495e 9F93      		push r25
 12983 4960 AF93      		push r26
 12984 4962 BF93      		push r27
 12985 4964 EF93      		push r30
 12986 4966 FF93      		push r31
 12987               	/* prologue: Signal */
 12988               	/* frame size = 0 */
 12989               	.LM1266:
 12990 4968 0E94 0000 		call disk_timerproc
 12991               	/* epilogue start */
 12992               	.LM1267:
 12993 496c FF91      		pop r31
 12994 496e EF91      		pop r30
 12995 4970 BF91      		pop r27
 12996 4972 AF91      		pop r26
 12997 4974 9F91      		pop r25
 12998 4976 8F91      		pop r24
 12999 4978 7F91      		pop r23
 13000 497a 6F91      		pop r22
 13001 497c 5F91      		pop r21
 13002 497e 4F91      		pop r20
 13003 4980 3F91      		pop r19
 13004 4982 2F91      		pop r18
 13005 4984 0F90      		pop r0
 13006 4986 0BBE      		out 59-0,r0
 13007 4988 0F90      		pop r0
 13008 498a 0FBE      		out __SREG__,r0
 13009 498c 0F90      		pop r0
 13010 498e 1F90      		pop __zero_reg__
 13011 4990 1895      		reti
 13012               	.LFE114:
 13014               	.global	CCPWrite
 13016               	CCPWrite:
 13017               	.LFB115:
 13018               	.LM1268:
 13019               	.LVL1148:
 13020 4992 0F93      		push r16
 13021 4994 DF93      		push r29
 13022 4996 CF93      		push r28
 13023 4998 0F92      		push __tmp_reg__
 13024 499a CDB7      		in r28,__SP_L__
 13025 499c DEB7      		in r29,__SP_H__
 13026               	/* prologue: function */
 13027               	/* frame size = 1 */
 13028               	.LM1269:
 13029 499e 2FB7      		in r18,__SREG__
 13030               	.LVL1149:
 13031 49a0 2983      		std Y+1,r18
 13032               	.LM1270:
 13033               	/* #APP */
 13034               	 ;  217 "sd.c" 1
 13035 49a2 F894      		cli
 13036               	 ;  0 "" 2
 13037               	.LM1271:
 13038               	/* #NOAPP */
 13039 49a4 1BBE      		out 59-0,__zero_reg__
 13040               	.LM1272:
 13041               	/* #APP */
 13042               	 ;  239 "sd.c" 1
 13043 49a6 FC01      		movw r30,  r24
 13044 49a8 08ED      		ldi  r16,  216
 13045 49aa 04BF      		out   52, r16
 13046 49ac 6083      		st     Z,  r22
 13047               		
 13048               	 ;  0 "" 2
 13049               	.LM1273:
 13050               	/* #NOAPP */
 13051 49ae 8981      		ldd r24,Y+1
 13052               	.LVL1150:
 13053 49b0 8FBF      		out __SREG__,r24
 13054               	/* epilogue start */
 13055               	.LM1274:
 13056 49b2 0F90      		pop __tmp_reg__
 13057 49b4 CF91      		pop r28
 13058 49b6 DF91      		pop r29
 13059 49b8 0F91      		pop r16
 13060 49ba 0895      		ret
 13061               	.LFE115:
 13063               	.global	display_sendCommand
 13065               	display_sendCommand:
 13066               	.LFB117:
 13067               	.LM1275:
 13068               	.LVL1151:
 13069               	/* prologue: function */
 13070               	/* frame size = 0 */
 13071               	.LM1276:
 13072 49bc 94E0      		ldi r25,lo8(4)
 13073 49be E0E2      		ldi r30,lo8(1568)
 13074 49c0 F6E0      		ldi r31,hi8(1568)
 13075 49c2 9683      		std Z+6,r25
 13076               	.LM1277:
 13077 49c4 E0EC      		ldi r30,lo8(2240)
 13078 49c6 F8E0      		ldi r31,hi8(2240)
 13079 49c8 8383      		std Z+3,r24
 13080               	.L787:
 13081               	.LM1278:
 13082 49ca 8091 C208 		lds r24,2242
 13083               	.LVL1152:
 13084 49ce 87FF      		sbrs r24,7
 13085 49d0 00C0      		rjmp .L787
 13086               	/* epilogue start */
 13087               	.LM1279:
 13088 49d2 0895      		ret
 13089               	.LFE117:
 13091               	.global	display_sendData
 13093               	display_sendData:
 13094               	.LFB118:
 13095               	.LM1280:
 13096               	.LVL1153:
 13097               	/* prologue: function */
 13098               	/* frame size = 0 */
 13099               	.LM1281:
 13100 49d4 94E0      		ldi r25,lo8(4)
 13101 49d6 E0E2      		ldi r30,lo8(1568)
 13102 49d8 F6E0      		ldi r31,hi8(1568)
 13103 49da 9583      		std Z+5,r25
 13104               	.LM1282:
 13105 49dc E0EC      		ldi r30,lo8(2240)
 13106 49de F8E0      		ldi r31,hi8(2240)
 13107 49e0 8383      		std Z+3,r24
 13108               	.L791:
 13109               	.LM1283:
 13110 49e2 8091 C208 		lds r24,2242
 13111               	.LVL1154:
 13112 49e6 87FF      		sbrs r24,7
 13113 49e8 00C0      		rjmp .L791
 13114               	/* epilogue start */
 13115               	.LM1284:
 13116 49ea 0895      		ret
 13117               	.LFE118:
 13119               	.global	display_setCursor
 13121               	display_setCursor:
 13122               	.LFB119:
 13123               	.LM1285:
 13124               	.LVL1155:
 13125               	/* prologue: function */
 13126               	/* frame size = 0 */
 13127               	.LM1286:
 13128 49ec 806B      		ori r24,lo8(-80)
 13129               	.LVL1156:
 13130               	.LBB811:
 13131               	.LBB812:
 13132               	.LM1287:
 13133 49ee 94E0      		ldi r25,lo8(4)
 13134 49f0 E0E2      		ldi r30,lo8(1568)
 13135 49f2 F6E0      		ldi r31,hi8(1568)
 13136 49f4 9683      		std Z+6,r25
 13137               	.LM1288:
 13138 49f6 E0EC      		ldi r30,lo8(2240)
 13139 49f8 F8E0      		ldi r31,hi8(2240)
 13140 49fa 8383      		std Z+3,r24
 13141               	.L795:
 13142               	.LM1289:
 13143 49fc 8091 C208 		lds r24,2242
 13144 4a00 87FF      		sbrs r24,7
 13145 4a02 00C0      		rjmp .L795
 13146               	.LBE812:
 13147               	.LBE811:
 13148               	.LM1290:
 13149 4a04 962F      		mov r25,r22
 13150 4a06 9F70      		andi r25,lo8(15)
 13151               	.LBB813:
 13152               	.LBB814:
 13153               	.LM1291:
 13154 4a08 84E0      		ldi r24,lo8(4)
 13155 4a0a E0E2      		ldi r30,lo8(1568)
 13156 4a0c F6E0      		ldi r31,hi8(1568)
 13157 4a0e 8683      		std Z+6,r24
 13158               	.LM1292:
 13159 4a10 E0EC      		ldi r30,lo8(2240)
 13160 4a12 F8E0      		ldi r31,hi8(2240)
 13161 4a14 9383      		std Z+3,r25
 13162               	.L796:
 13163               	.LM1293:
 13164 4a16 8091 C208 		lds r24,2242
 13165 4a1a 87FF      		sbrs r24,7
 13166 4a1c 00C0      		rjmp .L796
 13167               	.LBE814:
 13168               	.LBE813:
 13169               	.LM1294:
 13170 4a1e 6295      		swap r22
 13171               	.LVL1157:
 13172 4a20 6F70      		andi r22,lo8(15)
 13173 4a22 6061      		ori r22,lo8(16)
 13174               	.LBB815:
 13175               	.LBB816:
 13176               	.LM1295:
 13177 4a24 84E0      		ldi r24,lo8(4)
 13178 4a26 E0E2      		ldi r30,lo8(1568)
 13179 4a28 F6E0      		ldi r31,hi8(1568)
 13180 4a2a 8683      		std Z+6,r24
 13181               	.LM1296:
 13182 4a2c E0EC      		ldi r30,lo8(2240)
 13183 4a2e F8E0      		ldi r31,hi8(2240)
 13184 4a30 6383      		std Z+3,r22
 13185               	.L797:
 13186               	.LM1297:
 13187 4a32 8091 C208 		lds r24,2242
 13188 4a36 87FF      		sbrs r24,7
 13189 4a38 00C0      		rjmp .L797
 13190               	/* epilogue start */
 13191               	.LBE816:
 13192               	.LBE815:
 13193               	.LM1298:
 13194 4a3a 0895      		ret
 13195               	.LFE119:
 13197               	.global	display_writeBufferToScreen
 13199               	display_writeBufferToScreen:
 13200               	.LFB120:
 13201               	.LM1299:
 13202 4a3c BF92      		push r11
 13203 4a3e CF92      		push r12
 13204 4a40 DF92      		push r13
 13205 4a42 EF92      		push r14
 13206 4a44 FF92      		push r15
 13207 4a46 0F93      		push r16
 13208 4a48 1F93      		push r17
 13209 4a4a CF93      		push r28
 13210 4a4c DF93      		push r29
 13211               	/* prologue: function */
 13212               	/* frame size = 0 */
 13213               	.LM1300:
 13214 4a4e C0E0      		ldi r28,lo8(0)
 13215 4a50 D0E0      		ldi r29,hi8(0)
 13216               	.LM1301:
 13217 4a52 76E6      		ldi r23,lo8(102)
 13218 4a54 C72E      		mov r12,r23
 13219 4a56 D12C      		mov r13,__zero_reg__
 13220               	.LBB817:
 13221               	.LBB818:
 13222               	.LM1302:
 13223 4a58 60E2      		ldi r22,lo8(1568)
 13224 4a5a E62E      		mov r14,r22
 13225 4a5c 66E0      		ldi r22,hi8(1568)
 13226 4a5e F62E      		mov r15,r22
 13227 4a60 54E0      		ldi r21,lo8(4)
 13228 4a62 B52E      		mov r11,r21
 13229               	.LM1303:
 13230 4a64 00EC      		ldi r16,lo8(2240)
 13231 4a66 18E0      		ldi r17,hi8(2240)
 13232               	.L805:
 13233               	.LBE818:
 13234               	.LBE817:
 13235               	.LM1304:
 13236 4a68 8C2F      		mov r24,r28
 13237 4a6a 60E0      		ldi r22,lo8(0)
 13238 4a6c 0E94 0000 		call display_setCursor
 13239 4a70 20E0      		ldi r18,lo8(0)
 13240 4a72 30E0      		ldi r19,hi8(0)
 13241               	.LM1305:
 13242 4a74 CC9D      		mul r28,r12
 13243 4a76 A001      		movw r20,r0
 13244 4a78 CD9D      		mul r28,r13
 13245 4a7a 500D      		add r21,r0
 13246 4a7c DC9D      		mul r29,r12
 13247 4a7e 500D      		add r21,r0
 13248 4a80 1124      		clr r1
 13249               	.L804:
 13250 4a82 FA01      		movw r30,r20
 13251 4a84 E20F      		add r30,r18
 13252 4a86 F31F      		adc r31,r19
 13253 4a88 E050      		subi r30,lo8(-(displayBuffer))
 13254 4a8a F040      		sbci r31,hi8(-(displayBuffer))
 13255 4a8c 8081      		ld r24,Z
 13256               	.LBB820:
 13257               	.LBB819:
 13258               	.LM1306:
 13259 4a8e F701      		movw r30,r14
 13260 4a90 B582      		std Z+5,r11
 13261               	.LM1307:
 13262 4a92 F801      		movw r30,r16
 13263 4a94 8383      		std Z+3,r24
 13264               	.L803:
 13265               	.LM1308:
 13266 4a96 8091 C208 		lds r24,2242
 13267 4a9a 87FF      		sbrs r24,7
 13268 4a9c 00C0      		rjmp .L803
 13269 4a9e 2F5F      		subi r18,lo8(-(1))
 13270 4aa0 3F4F      		sbci r19,hi8(-(1))
 13271               	.LBE819:
 13272               	.LBE820:
 13273               	.LM1309:
 13274 4aa2 2636      		cpi r18,102
 13275 4aa4 3105      		cpc r19,__zero_reg__
 13276 4aa6 01F4      		brne .L804
 13277 4aa8 2196      		adiw r28,1
 13278               	.LM1310:
 13279 4aaa C830      		cpi r28,8
 13280 4aac D105      		cpc r29,__zero_reg__
 13281 4aae 01F4      		brne .L805
 13282               	/* epilogue start */
 13283               	.LM1311:
 13284 4ab0 DF91      		pop r29
 13285 4ab2 CF91      		pop r28
 13286 4ab4 1F91      		pop r17
 13287 4ab6 0F91      		pop r16
 13288 4ab8 FF90      		pop r15
 13289 4aba EF90      		pop r14
 13290 4abc DF90      		pop r13
 13291 4abe CF90      		pop r12
 13292 4ac0 BF90      		pop r11
 13293 4ac2 0895      		ret
 13294               	.LFE120:
 13296               	.global	display_clearPage
 13298               	display_clearPage:
 13299               	.LFB121:
 13300               	.LM1312:
 13301               	.LVL1158:
 13302               	/* prologue: function */
 13303               	/* frame size = 0 */
 13304               	.LM1313:
 13305 4ac4 40E0      		ldi r20,lo8(0)
 13306 4ac6 50E0      		ldi r21,hi8(0)
 13307               	.LM1314:
 13308 4ac8 90E0      		ldi r25,lo8(0)
 13309 4aca 26E6      		ldi r18,lo8(102)
 13310 4acc 30E0      		ldi r19,hi8(102)
 13311 4ace 829F      		mul r24,r18
 13312 4ad0 B001      		movw r22,r0
 13313 4ad2 839F      		mul r24,r19
 13314 4ad4 700D      		add r23,r0
 13315 4ad6 929F      		mul r25,r18
 13316 4ad8 700D      		add r23,r0
 13317 4ada 1124      		clr r1
 13318               	.LVL1159:
 13319 4adc 8AE0      		ldi r24,lo8(10)
 13320               	.L811:
 13321 4ade FB01      		movw r30,r22
 13322 4ae0 E40F      		add r30,r20
 13323 4ae2 F51F      		adc r31,r21
 13324 4ae4 E050      		subi r30,lo8(-(displayBuffer))
 13325 4ae6 F040      		sbci r31,hi8(-(displayBuffer))
 13326 4ae8 8083      		st Z,r24
 13327 4aea 4F5F      		subi r20,lo8(-(1))
 13328 4aec 5F4F      		sbci r21,hi8(-(1))
 13329 4aee 4636      		cpi r20,102
 13330 4af0 5105      		cpc r21,__zero_reg__
 13331 4af2 01F4      		brne .L811
 13332               	/* epilogue start */
 13333               	.LM1315:
 13334 4af4 0895      		ret
 13335               	.LFE121:
 13337               	.global	display_clearBuffer
 13339               	display_clearBuffer:
 13340               	.LFB122:
 13341               	.LM1316:
 13342               	/* prologue: function */
 13343               	/* frame size = 0 */
 13344               	.LM1317:
 13345 4af6 20E0      		ldi r18,lo8(0)
 13346 4af8 30E0      		ldi r19,hi8(0)
 13347               	.LM1318:
 13348 4afa 66E6      		ldi r22,lo8(102)
 13349 4afc 70E0      		ldi r23,hi8(102)
 13350 4afe 00C0      		rjmp .L815
 13351               	.L816:
 13352 4b00 FA01      		movw r30,r20
 13353 4b02 E80F      		add r30,r24
 13354 4b04 F91F      		adc r31,r25
 13355 4b06 E050      		subi r30,lo8(-(displayBuffer))
 13356 4b08 F040      		sbci r31,hi8(-(displayBuffer))
 13357 4b0a 1082      		st Z,__zero_reg__
 13358 4b0c 0196      		adiw r24,1
 13359               	.LM1319:
 13360 4b0e 8636      		cpi r24,102
 13361 4b10 9105      		cpc r25,__zero_reg__
 13362 4b12 01F4      		brne .L816
 13363 4b14 2F5F      		subi r18,lo8(-(1))
 13364 4b16 3F4F      		sbci r19,hi8(-(1))
 13365               	.LM1320:
 13366 4b18 2830      		cpi r18,8
 13367 4b1a 3105      		cpc r19,__zero_reg__
 13368 4b1c 01F0      		breq .L818
 13369               	.L815:
 13370 4b1e 80E0      		ldi r24,lo8(0)
 13371 4b20 90E0      		ldi r25,hi8(0)
 13372               	.LM1321:
 13373 4b22 269F      		mul r18,r22
 13374 4b24 A001      		movw r20,r0
 13375 4b26 279F      		mul r18,r23
 13376 4b28 500D      		add r21,r0
 13377 4b2a 369F      		mul r19,r22
 13378 4b2c 500D      		add r21,r0
 13379 4b2e 1124      		clr r1
 13380 4b30 00C0      		rjmp .L816
 13381               	.L818:
 13382 4b32 0895      		ret
 13383               	.LFE122:
 13385               	.global	display_init
 13387               	display_init:
 13388               	.LFB116:
 13389               	.LM1322:
 13390 4b34 CF93      		push r28
 13391 4b36 DF93      		push r29
 13392               	/* prologue: function */
 13393               	/* frame size = 0 */
 13394               	.LM1323:
 13395 4b38 40E4      		ldi r20,lo8(1600)
 13396 4b3a 56E0      		ldi r21,hi8(1600)
 13397 4b3c 88E3      		ldi r24,lo8(56)
 13398 4b3e FA01      		movw r30,r20
 13399 4b40 848B      		std Z+20,r24
 13400               	.LM1324:
 13401 4b42 A0E2      		ldi r26,lo8(1568)
 13402 4b44 B6E0      		ldi r27,hi8(1568)
 13403 4b46 5396      		adiw r26,19
 13404 4b48 8C93      		st X,r24
 13405 4b4a 5397      		sbiw r26,19
 13406               	.LM1325:
 13407 4b4c E0E6      		ldi r30,lo8(1632)
 13408 4b4e F6E0      		ldi r31,hi8(1632)
 13409 4b50 21E0      		ldi r18,lo8(1)
 13410 4b52 2183      		std Z+1,r18
 13411               	.LM1326:
 13412 4b54 2583      		std Z+5,r18
 13413               	.LBB821:
 13414               	.LBB822:
 13415               	.LBB823:
 13416               	.LBB824:
 13417               	.LM1327:
 13418 4b56 80E0      		ldi r24,lo8(-28672)
 13419 4b58 90E9      		ldi r25,hi8(-28672)
 13420 4b5a EC01      		movw r28,r24
 13421               	.LVL1160:
 13422               	/* #APP */
 13423               	 ;  105 "/usr/local/CrossPack-AVR-20100115/lib/gcc/avr/4.3.3/../../../../avr/include/util/delay_bas
 13424 4b5c 2197      		1: sbiw r28,1
 13425 4b5e 01F4      		brne 1b
 13426               	 ;  0 "" 2
 13427               	/* #NOAPP */
 13428               	.LBE824:
 13429               	.LBE823:
 13430               	.LBE822:
 13431               	.LBE821:
 13432               	.LM1328:
 13433 4b60 2683      		std Z+6,r18
 13434               	.LBB825:
 13435               	.LBB826:
 13436               	.LBB827:
 13437               	.LBB828:
 13438               	.LM1329:
 13439 4b62 EC01      		movw r28,r24
 13440               	.LVL1161:
 13441               	/* #APP */
 13442               	 ;  105 "/usr/local/CrossPack-AVR-20100115/lib/gcc/avr/4.3.3/../../../../avr/include/util/delay_bas
 13443 4b64 2197      		1: sbiw r28,1
 13444 4b66 01F4      		brne 1b
 13445               	 ;  0 "" 2
 13446               	/* #NOAPP */
 13447               	.LBE828:
 13448               	.LBE827:
 13449               	.LBE826:
 13450               	.LBE825:
 13451               	.LM1330:
 13452 4b68 2583      		std Z+5,r18
 13453               	.LBB829:
 13454               	.LBB830:
 13455               	.LBB831:
 13456               	.LBB832:
 13457               	.LM1331:
 13458               	/* #APP */
 13459               	 ;  105 "/usr/local/CrossPack-AVR-20100115/lib/gcc/avr/4.3.3/../../../../avr/include/util/delay_bas
 13460 4b6a 0197      		1: sbiw r24,1
 13461 4b6c 01F4      		brne 1b
 13462               	 ;  0 "" 2
 13463               	.LVL1162:
 13464               	/* #NOAPP */
 13465               	.LBE832:
 13466               	.LBE831:
 13467               	.LBE830:
 13468               	.LBE829:
 13469               	.LM1332:
 13470 4b6e 8EED      		ldi r24,lo8(-34)
 13471               	.LVL1163:
 13472 4b70 8093 C008 		sts 2240,r24
 13473               	.LM1333:
 13474 4b74 80EB      		ldi r24,lo8(-80)
 13475 4b76 FA01      		movw r30,r20
 13476 4b78 8183      		std Z+1,r24
 13477               	.LM1334:
 13478 4b7a 94E0      		ldi r25,lo8(4)
 13479 4b7c 1196      		adiw r26,1
 13480 4b7e 9C93      		st X,r25
 13481 4b80 1197      		sbiw r26,1
 13482               	.LM1335:
 13483 4b82 80E1      		ldi r24,lo8(16)
 13484 4b84 8683      		std Z+6,r24
 13485               	.LBB833:
 13486               	.LBB834:
 13487               	.LM1336:
 13488 4b86 1696      		adiw r26,6
 13489 4b88 9C93      		st X,r25
 13490               	.LM1337:
 13491 4b8a 80E4      		ldi r24,lo8(64)
 13492 4b8c E0EC      		ldi r30,lo8(2240)
 13493 4b8e F8E0      		ldi r31,hi8(2240)
 13494 4b90 8383      		std Z+3,r24
 13495               	.L821:
 13496               	.LM1338:
 13497 4b92 8091 C208 		lds r24,2242
 13498 4b96 87FF      		sbrs r24,7
 13499 4b98 00C0      		rjmp .L821
 13500               	.LBE834:
 13501               	.LBE833:
 13502               	.LBB835:
 13503               	.LBB836:
 13504               	.LM1339:
 13505 4b9a 84E0      		ldi r24,lo8(4)
 13506 4b9c E0E2      		ldi r30,lo8(1568)
 13507 4b9e F6E0      		ldi r31,hi8(1568)
 13508 4ba0 8683      		std Z+6,r24
 13509               	.LM1340:
 13510 4ba2 81EA      		ldi r24,lo8(-95)
 13511 4ba4 E0EC      		ldi r30,lo8(2240)
 13512 4ba6 F8E0      		ldi r31,hi8(2240)
 13513 4ba8 8383      		std Z+3,r24
 13514               	.L822:
 13515               	.LM1341:
 13516 4baa 8091 C208 		lds r24,2242
 13517 4bae 87FF      		sbrs r24,7
 13518 4bb0 00C0      		rjmp .L822
 13519               	.LBE836:
 13520               	.LBE835:
 13521               	.LBB837:
 13522               	.LBB838:
 13523               	.LM1342:
 13524 4bb2 84E0      		ldi r24,lo8(4)
 13525 4bb4 E0E2      		ldi r30,lo8(1568)
 13526 4bb6 F6E0      		ldi r31,hi8(1568)
 13527 4bb8 8683      		std Z+6,r24
 13528               	.LM1343:
 13529 4bba 80EC      		ldi r24,lo8(-64)
 13530 4bbc E0EC      		ldi r30,lo8(2240)
 13531 4bbe F8E0      		ldi r31,hi8(2240)
 13532 4bc0 8383      		std Z+3,r24
 13533               	.L823:
 13534               	.LM1344:
 13535 4bc2 8091 C208 		lds r24,2242
 13536 4bc6 87FF      		sbrs r24,7
 13537 4bc8 00C0      		rjmp .L823
 13538               	.LBE838:
 13539               	.LBE837:
 13540               	.LBB839:
 13541               	.LBB840:
 13542               	.LM1345:
 13543 4bca 84E0      		ldi r24,lo8(4)
 13544 4bcc E0E2      		ldi r30,lo8(1568)
 13545 4bce F6E0      		ldi r31,hi8(1568)
 13546 4bd0 8683      		std Z+6,r24
 13547               	.LM1346:
 13548 4bd2 84EA      		ldi r24,lo8(-92)
 13549 4bd4 E0EC      		ldi r30,lo8(2240)
 13550 4bd6 F8E0      		ldi r31,hi8(2240)
 13551 4bd8 8383      		std Z+3,r24
 13552               	.L824:
 13553               	.LM1347:
 13554 4bda 8091 C208 		lds r24,2242
 13555 4bde 87FF      		sbrs r24,7
 13556 4be0 00C0      		rjmp .L824
 13557               	.LBE840:
 13558               	.LBE839:
 13559               	.LBB841:
 13560               	.LBB842:
 13561               	.LM1348:
 13562 4be2 84E0      		ldi r24,lo8(4)
 13563 4be4 E0E2      		ldi r30,lo8(1568)
 13564 4be6 F6E0      		ldi r31,hi8(1568)
 13565 4be8 8683      		std Z+6,r24
 13566               	.LM1349:
 13567 4bea 86EA      		ldi r24,lo8(-90)
 13568 4bec E0EC      		ldi r30,lo8(2240)
 13569 4bee F8E0      		ldi r31,hi8(2240)
 13570 4bf0 8383      		std Z+3,r24
 13571               	.L825:
 13572               	.LM1350:
 13573 4bf2 8091 C208 		lds r24,2242
 13574 4bf6 87FF      		sbrs r24,7
 13575 4bf8 00C0      		rjmp .L825
 13576               	.LBE842:
 13577               	.LBE841:
 13578               	.LBB843:
 13579               	.LBB844:
 13580               	.LM1351:
 13581 4bfa 84E0      		ldi r24,lo8(4)
 13582 4bfc E0E2      		ldi r30,lo8(1568)
 13583 4bfe F6E0      		ldi r31,hi8(1568)
 13584 4c00 8683      		std Z+6,r24
 13585               	.LM1352:
 13586 4c02 8FE2      		ldi r24,lo8(47)
 13587 4c04 E0EC      		ldi r30,lo8(2240)
 13588 4c06 F8E0      		ldi r31,hi8(2240)
 13589 4c08 8383      		std Z+3,r24
 13590               	.L826:
 13591               	.LM1353:
 13592 4c0a 8091 C208 		lds r24,2242
 13593 4c0e 87FF      		sbrs r24,7
 13594 4c10 00C0      		rjmp .L826
 13595               	.LBE844:
 13596               	.LBE843:
 13597               	.LBB845:
 13598               	.LBB846:
 13599               	.LM1354:
 13600 4c12 84E0      		ldi r24,lo8(4)
 13601 4c14 E0E2      		ldi r30,lo8(1568)
 13602 4c16 F6E0      		ldi r31,hi8(1568)
 13603 4c18 8683      		std Z+6,r24
 13604               	.LM1355:
 13605 4c1a 87E2      		ldi r24,lo8(39)
 13606 4c1c E0EC      		ldi r30,lo8(2240)
 13607 4c1e F8E0      		ldi r31,hi8(2240)
 13608 4c20 8383      		std Z+3,r24
 13609               	.L827:
 13610               	.LM1356:
 13611 4c22 8091 C208 		lds r24,2242
 13612 4c26 87FF      		sbrs r24,7
 13613 4c28 00C0      		rjmp .L827
 13614               	.LBE846:
 13615               	.LBE845:
 13616               	.LBB847:
 13617               	.LBB848:
 13618               	.LM1357:
 13619 4c2a 84E0      		ldi r24,lo8(4)
 13620 4c2c E0E2      		ldi r30,lo8(1568)
 13621 4c2e F6E0      		ldi r31,hi8(1568)
 13622 4c30 8683      		std Z+6,r24
 13623               	.LM1358:
 13624 4c32 8AEF      		ldi r24,lo8(-6)
 13625 4c34 E0EC      		ldi r30,lo8(2240)
 13626 4c36 F8E0      		ldi r31,hi8(2240)
 13627 4c38 8383      		std Z+3,r24
 13628               	.L828:
 13629               	.LM1359:
 13630 4c3a 8091 C208 		lds r24,2242
 13631 4c3e 87FF      		sbrs r24,7
 13632 4c40 00C0      		rjmp .L828
 13633               	.LBE848:
 13634               	.LBE847:
 13635               	.LBB849:
 13636               	.LBB850:
 13637               	.LM1360:
 13638 4c42 84E0      		ldi r24,lo8(4)
 13639 4c44 E0E2      		ldi r30,lo8(1568)
 13640 4c46 F6E0      		ldi r31,hi8(1568)
 13641 4c48 8683      		std Z+6,r24
 13642               	.LM1361:
 13643 4c4a 80E9      		ldi r24,lo8(-112)
 13644 4c4c E0EC      		ldi r30,lo8(2240)
 13645 4c4e F8E0      		ldi r31,hi8(2240)
 13646 4c50 8383      		std Z+3,r24
 13647               	.L829:
 13648               	.LM1362:
 13649 4c52 8091 C208 		lds r24,2242
 13650 4c56 87FF      		sbrs r24,7
 13651 4c58 00C0      		rjmp .L829
 13652               	.LBE850:
 13653               	.LBE849:
 13654               	.LBB851:
 13655               	.LBB852:
 13656               	.LM1363:
 13657 4c5a 84E0      		ldi r24,lo8(4)
 13658 4c5c E0E2      		ldi r30,lo8(1568)
 13659 4c5e F6E0      		ldi r31,hi8(1568)
 13660 4c60 8683      		std Z+6,r24
 13661               	.LM1364:
 13662 4c62 80E4      		ldi r24,lo8(64)
 13663 4c64 E0EC      		ldi r30,lo8(2240)
 13664 4c66 F8E0      		ldi r31,hi8(2240)
 13665 4c68 8383      		std Z+3,r24
 13666               	.L830:
 13667               	.LM1365:
 13668 4c6a 8091 C208 		lds r24,2242
 13669 4c6e 87FF      		sbrs r24,7
 13670 4c70 00C0      		rjmp .L830
 13671 4c72 8CED      		ldi r24,lo8(1500)
 13672 4c74 95E0      		ldi r25,hi8(1500)
 13673               	.LVL1164:
 13674               	.LBE852:
 13675               	.LBE851:
 13676               	.LBB853:
 13677               	.LBB854:
 13678               	.LBB855:
 13679               	.LBB856:
 13680               	.LM1366:
 13681 4c76 20E7      		ldi r18,lo8(368)
 13682 4c78 31E0      		ldi r19,hi8(368)
 13683               	.L831:
 13684 4c7a F901      		movw r30,r18
 13685               	.LVL1165:
 13686               	/* #APP */
 13687               	 ;  105 "/usr/local/CrossPack-AVR-20100115/lib/gcc/avr/4.3.3/../../../../avr/include/util/delay_bas
 13688 4c7c 3197      		1: sbiw r30,1
 13689 4c7e 01F4      		brne 1b
 13690               	 ;  0 "" 2
 13691               	/* #NOAPP */
 13692               	.LBE856:
 13693               	.LBE855:
 13694               	.LM1367:
 13695 4c80 0197      		sbiw r24,1
 13696               	.LM1368:
 13697 4c82 01F4      		brne .L831
 13698               	.LBE854:
 13699               	.LBE853:
 13700               	.LBB857:
 13701               	.LBB858:
 13702               	.LM1369:
 13703 4c84 84E0      		ldi r24,lo8(4)
 13704               	.LVL1166:
 13705 4c86 E0E2      		ldi r30,lo8(1568)
 13706 4c88 F6E0      		ldi r31,hi8(1568)
 13707               	.LVL1167:
 13708 4c8a 8683      		std Z+6,r24
 13709               	.LM1370:
 13710 4c8c 82EA      		ldi r24,lo8(-94)
 13711 4c8e E0EC      		ldi r30,lo8(2240)
 13712 4c90 F8E0      		ldi r31,hi8(2240)
 13713 4c92 8383      		std Z+3,r24
 13714               	.L832:
 13715               	.LM1371:
 13716 4c94 8091 C208 		lds r24,2242
 13717 4c98 87FF      		sbrs r24,7
 13718 4c9a 00C0      		rjmp .L832
 13719               	.LBE858:
 13720               	.LBE857:
 13721               	.LBB859:
 13722               	.LBB860:
 13723               	.LM1372:
 13724 4c9c 84E0      		ldi r24,lo8(4)
 13725 4c9e E0E2      		ldi r30,lo8(1568)
 13726 4ca0 F6E0      		ldi r31,hi8(1568)
 13727 4ca2 8683      		std Z+6,r24
 13728               	.LM1373:
 13729 4ca4 81E8      		ldi r24,lo8(-127)
 13730 4ca6 E0EC      		ldi r30,lo8(2240)
 13731 4ca8 F8E0      		ldi r31,hi8(2240)
 13732 4caa 8383      		std Z+3,r24
 13733               	.L833:
 13734               	.LM1374:
 13735 4cac 8091 C208 		lds r24,2242
 13736 4cb0 87FF      		sbrs r24,7
 13737 4cb2 00C0      		rjmp .L833
 13738               	.LBE860:
 13739               	.LBE859:
 13740               	.LBB861:
 13741               	.LBB862:
 13742               	.LM1375:
 13743 4cb4 84E0      		ldi r24,lo8(4)
 13744 4cb6 E0E2      		ldi r30,lo8(1568)
 13745 4cb8 F6E0      		ldi r31,hi8(1568)
 13746 4cba 8683      		std Z+6,r24
 13747               	.LM1376:
 13748 4cbc 88E0      		ldi r24,lo8(8)
 13749 4cbe E0EC      		ldi r30,lo8(2240)
 13750 4cc0 F8E0      		ldi r31,hi8(2240)
 13751 4cc2 8383      		std Z+3,r24
 13752               	.L834:
 13753               	.LM1377:
 13754 4cc4 8091 C208 		lds r24,2242
 13755 4cc8 87FF      		sbrs r24,7
 13756 4cca 00C0      		rjmp .L834
 13757               	.LBE862:
 13758               	.LBE861:
 13759               	.LBB863:
 13760               	.LBB864:
 13761               	.LM1378:
 13762 4ccc 84E0      		ldi r24,lo8(4)
 13763 4cce E0E2      		ldi r30,lo8(1568)
 13764 4cd0 F6E0      		ldi r31,hi8(1568)
 13765 4cd2 8683      		std Z+6,r24
 13766               	.LM1379:
 13767 4cd4 8FEA      		ldi r24,lo8(-81)
 13768 4cd6 E0EC      		ldi r30,lo8(2240)
 13769 4cd8 F8E0      		ldi r31,hi8(2240)
 13770 4cda 8383      		std Z+3,r24
 13771               	.L835:
 13772               	.LM1380:
 13773 4cdc 8091 C208 		lds r24,2242
 13774 4ce0 87FF      		sbrs r24,7
 13775 4ce2 00C0      		rjmp .L835
 13776               	.LBE864:
 13777               	.LBE863:
 13778               	.LM1381:
 13779 4ce4 0E94 0000 		call display_clearBuffer
 13780               	.LM1382:
 13781 4ce8 0E94 0000 		call display_writeBufferToScreen
 13782               	/* epilogue start */
 13783               	.LM1383:
 13784 4cec DF91      		pop r29
 13785 4cee CF91      		pop r28
 13786               	.LVL1168:
 13787 4cf0 0895      		ret
 13788               	.LFE116:
 13790               	.global	display_putString
 13792               	display_putString:
 13793               	.LFB123:
 13794               	.LM1384:
 13795               	.LVL1169:
 13796 4cf2 2F92      		push r2
 13797 4cf4 3F92      		push r3
 13798 4cf6 4F92      		push r4
 13799 4cf8 5F92      		push r5
 13800 4cfa 6F92      		push r6
 13801 4cfc 7F92      		push r7
 13802 4cfe 8F92      		push r8
 13803 4d00 9F92      		push r9
 13804 4d02 AF92      		push r10
 13805 4d04 BF92      		push r11
 13806 4d06 CF92      		push r12
 13807 4d08 DF92      		push r13
 13808 4d0a EF92      		push r14
 13809 4d0c FF92      		push r15
 13810 4d0e 0F93      		push r16
 13811 4d10 1F93      		push r17
 13812 4d12 DF93      		push r29
 13813 4d14 CF93      		push r28
 13814 4d16 CDB7      		in r28,__SP_L__
 13815 4d18 DEB7      		in r29,__SP_H__
 13816 4d1a 2897      		sbiw r28,8
 13817 4d1c CDBF      		out __SP_L__,r28
 13818 4d1e DEBF      		out __SP_H__,r29
 13819               	/* prologue: function */
 13820               	/* frame size = 8 */
 13821 4d20 1C01      		movw r2,r24
 13822 4d22 4C83      		std Y+4,r20
 13823 4d24 2F83      		std Y+7,r18
 13824 4d26 3887      		std Y+8,r19
 13825               	.LM1385:
 13826 4d28 D901      		movw r26,r18
 13827 4d2a 1396      		adiw r26,3
 13828 4d2c BC91      		ld r27,X
 13829 4d2e BB83      		std Y+3,r27
 13830               	.LVL1170:
 13831               	.LM1386:
 13832 4d30 F901      		movw r30,r18
 13833 4d32 F481      		ldd r31,Z+4
 13834 4d34 FA83      		std Y+2,r31
 13835               	.LVL1171:
 13836               	.LM1387:
 13837 4d36 D901      		movw r26,r18
 13838 4d38 1596      		adiw r26,5
 13839 4d3a 2C91      		ld r18,X
 13840               	.LVL1172:
 13841               	.LM1388:
 13842 4d3c BB81      		ldd r27,Y+3
 13843 4d3e 0B2F      		mov r16,r27
 13844 4d40 10E0      		ldi r17,lo8(0)
 13845 4d42 C801      		movw r24,r16
 13846               	.LVL1173:
 13847 4d44 0796      		adiw r24,7
 13848 4d46 A3E0      		ldi r26,3
 13849 4d48 9595      	1:	asr r25
 13850 4d4a 8795      		ror r24
 13851 4d4c AA95      		dec r26
 13852 4d4e 01F4      		brne 1b
 13853 4d50 8983      		std Y+1,r24
 13854               	.LVL1174:
 13855 4d52 CC24      		clr r12
 13856               	.LVL1175:
 13857               	.LM1389:
 13858 4d54 E22E      		mov r14,r18
 13859 4d56 FF24      		clr r15
 13860 4d58 E6E0      		ldi r30,lo8(6)
 13861 4d5a F0E0      		ldi r31,hi8(6)
 13862 4d5c EE0E      		add r14,r30
 13863 4d5e FF1E      		adc r15,r31
 13864               	.LM1390:
 13865 4d60 462E      		mov r4,r22
 13866 4d62 5524      		clr r5
 13867               	.LVL1176:
 13868 4d64 00C0      		rjmp .L853
 13869               	.LVL1177:
 13870               	.L861:
 13871               	.LM1391:
 13872 4d66 7E2F      		mov r23,r30
 13873               	.LVL1178:
 13874 4d68 FA81      		ldd r31,Y+2
 13875 4d6a 7F1B      		sub r23,r31
 13876               	.LM1392:
 13877 4d6c AF81      		ldd r26,Y+7
 13878 4d6e B885      		ldd r27,Y+8
 13879 4d70 8C91      		ld r24,X
 13880 4d72 8823      		tst r24
 13881 4d74 01F4      		brne .L854
 13882               	.LM1393:
 13883 4d76 1296      		adiw r26,2
 13884 4d78 4C91      		ld r20,X
 13885               	.LM1394:
 13886 4d7a 749F      		mul r23,r20
 13887 4d7c F001      		movw r30,r0
 13888 4d7e 1124      		clr r1
 13889               	.LVL1179:
 13890 4d80 3696      		adiw r30,6
 13891 4d82 00C0      		rjmp .L855
 13892               	.LVL1180:
 13893               	.L854:
 13894               	.LM1395:
 13895 4d84 EF81      		ldd r30,Y+7
 13896 4d86 F885      		ldd r31,Y+8
 13897 4d88 E70F      		add r30,r23
 13898 4d8a F11D      		adc r31,__zero_reg__
 13899 4d8c 4681      		ldd r20,Z+6
 13900 4d8e EF81      		ldd r30,Y+7
 13901 4d90 F885      		ldd r31,Y+8
 13902 4d92 ED83      		std Y+5,r30
 13903 4d94 FE83      		std Y+6,r31
 13904 4d96 50E0      		ldi r21,lo8(0)
 13905               	.LVL1181:
 13906 4d98 A0E0      		ldi r26,lo8(0)
 13907 4d9a B0E0      		ldi r27,hi8(0)
 13908               	.LVL1182:
 13909 4d9c 00C0      		rjmp .L856
 13910               	.L857:
 13911               	.LM1396:
 13912 4d9e ED81      		ldd r30,Y+5
 13913 4da0 FE81      		ldd r31,Y+6
 13914 4da2 8581      		ldd r24,Z+5
 13915 4da4 F981      		ldd r31,Y+1
 13916 4da6 F89F      		mul r31,r24
 13917 4da8 C001      		movw r24,r0
 13918 4daa 1124      		clr r1
 13919 4dac A80F      		add r26,r24
 13920 4dae B91F      		adc r27,r25
 13921               	.LM1397:
 13922 4db0 5F5F      		subi r21,lo8(-(1))
 13923               	.L856:
 13924 4db2 8D81      		ldd r24,Y+5
 13925 4db4 9E81      		ldd r25,Y+6
 13926 4db6 0196      		adiw r24,1
 13927 4db8 8D83      		std Y+5,r24
 13928 4dba 9E83      		std Y+6,r25
 13929 4dbc 5717      		cp r21,r23
 13930 4dbe 00F0      		brlo .L857
 13931               	.LM1398:
 13932 4dc0 842F      		mov r24,r20
 13933 4dc2 90E0      		ldi r25,lo8(0)
 13934               	.LVL1183:
 13935 4dc4 829F      		mul r24,r18
 13936 4dc6 F001      		movw r30,r0
 13937 4dc8 839F      		mul r24,r19
 13938 4dca F00D      		add r31,r0
 13939 4dcc 929F      		mul r25,r18
 13940 4dce F00D      		add r31,r0
 13941 4dd0 1124      		clr r1
 13942               	.LVL1184:
 13943 4dd2 EE0D      		add r30,r14
 13944 4dd4 FF1D      		adc r31,r15
 13945 4dd6 EA0F      		add r30,r26
 13946 4dd8 FB1F      		adc r31,r27
 13947               	.LVL1185:
 13948               	.L855:
 13949 4dda AF81      		ldd r26,Y+7
 13950 4ddc B885      		ldd r27,Y+8
 13951 4dde AE0F      		add r26,r30
 13952 4de0 BF1F      		adc r27,r31
 13953 4de2 50E0      		ldi r21,lo8(0)
 13954               	.LVL1186:
 13955 4de4 00C0      		rjmp .L858
 13956               	.LVL1187:
 13957               	.L860:
 13958               	.LM1399:
 13959 4de6 8C91      		ld r24,X
 13960               	.LM1400:
 13961 4de8 9B81      		ldd r25,Y+3
 13962               	.LVL1188:
 13963 4dea 9930      		cpi r25,lo8(9)
 13964 4dec 00F0      		brlo .L859
 13965 4dee 0815      		cp r16,r8
 13966 4df0 1905      		cpc r17,r9
 13967 4df2 04F4      		brge .L859
 13968               	.LM1401:
 13969 4df4 90E0      		ldi r25,lo8(0)
 13970               	.LVL1189:
 13971 4df6 062C      		mov r0,r6
 13972 4df8 00C0      		rjmp 2f
 13973 4dfa 9595      	1:	asr r25
 13974 4dfc 8795      		ror r24
 13975 4dfe 0A94      	2:	dec r0
 13976 4e00 02F4      		brpl 1b
 13977               	.LVL1190:
 13978               	.L859:
 13979               	.LM1402:
 13980 4e02 F501      		movw r30,r10
 13981               	.LVL1191:
 13982 4e04 E70F      		add r30,r23
 13983 4e06 F11D      		adc r31,__zero_reg__
 13984 4e08 E050      		subi r30,lo8(-(displayBuffer))
 13985 4e0a F040      		sbci r31,hi8(-(displayBuffer))
 13986 4e0c 8083      		st Z,r24
 13987               	.LM1403:
 13988 4e0e 5F5F      		subi r21,lo8(-(1))
 13989 4e10 1196      		adiw r26,1
 13990               	.LVL1192:
 13991               	.L858:
 13992 4e12 752F      		mov r23,r21
 13993               	.LVL1193:
 13994 4e14 760F      		add r23,r22
 13995 4e16 5417      		cp r21,r20
 13996 4e18 00F0      		brlo .L860
 13997 4e1a 842F      		mov r24,r20
 13998               	.LVL1194:
 13999 4e1c 860F      		add r24,r22
 14000               	.LM1404:
 14001 4e1e F501      		movw r30,r10
 14002               	.LVL1195:
 14003 4e20 E80F      		add r30,r24
 14004 4e22 F11D      		adc r31,__zero_reg__
 14005 4e24 E050      		subi r30,lo8(-(displayBuffer+1))
 14006 4e26 F040      		sbci r31,hi8(-(displayBuffer+1))
 14007 4e28 1082      		st Z,__zero_reg__
 14008               	.LM1405:
 14009 4e2a 682F      		mov r22,r24
 14010 4e2c 6F5F      		subi r22,lo8(-(1))
 14011               	.LVL1196:
 14012               	.LM1406:
 14013 4e2e D394      		inc r13
 14014               	.LVL1197:
 14015               	.L863:
 14016               	.LM1407:
 14017 4e30 F101      		movw r30,r2
 14018 4e32 ED0D      		add r30,r13
 14019 4e34 F11D      		adc r31,__zero_reg__
 14020 4e36 E081      		ld r30,Z
 14021 4e38 EE23      		tst r30
 14022 4e3a 01F0      		breq .+2
 14023 4e3c 00C0      		rjmp .L861
 14024               	.LM1408:
 14025 4e3e C394      		inc r12
 14026               	.LVL1198:
 14027               	.L853:
 14028               	.LM1409:
 14029 4e40 2C2D      		mov r18,r12
 14030               	.LVL1199:
 14031 4e42 30E0      		ldi r19,lo8(0)
 14032 4e44 C901      		movw r24,r18
 14033 4e46 F3E0      		ldi r31,3
 14034 4e48 880F      	1:	lsl r24
 14035 4e4a 991F      		rol r25
 14036 4e4c FA95      		dec r31
 14037 4e4e 01F4      		brne 1b
 14038 4e50 8017      		cp r24,r16
 14039 4e52 9107      		cpc r25,r17
 14040 4e54 04F4      		brge .L864
 14041               	.LM1410:
 14042 4e56 2F5F      		subi r18,lo8(-(1))
 14043 4e58 3F4F      		sbci r19,hi8(-(1))
 14044 4e5a 4901      		movw r8,r18
 14045 4e5c E3E0      		ldi r30,3
 14046 4e5e 880C      	1:	lsl r8
 14047 4e60 991C      		rol r9
 14048 4e62 EA95      		dec r30
 14049 4e64 01F4      		brne 1b
 14050 4e66 2150      		subi r18,lo8(-(-1))
 14051 4e68 3040      		sbci r19,hi8(-(-1))
 14052               	.LM1411:
 14053 4e6a 3401      		movw r6,r8
 14054 4e6c 601A      		sub r6,r16
 14055 4e6e 710A      		sbc r7,r17
 14056 4e70 6C81      		ldd r22,Y+4
 14057 4e72 DD24      		clr r13
 14058               	.LM1412:
 14059 4e74 C901      		movw r24,r18
 14060 4e76 840D      		add r24,r4
 14061 4e78 951D      		adc r25,r5
 14062 4e7a A6E6      		ldi r26,lo8(102)
 14063 4e7c B0E0      		ldi r27,hi8(102)
 14064 4e7e 8A9F      		mul r24,r26
 14065 4e80 5001      		movw r10,r0
 14066 4e82 8B9F      		mul r24,r27
 14067 4e84 B00C      		add r11,r0
 14068 4e86 9A9F      		mul r25,r26
 14069 4e88 B00C      		add r11,r0
 14070 4e8a 1124      		clr r1
 14071 4e8c 00C0      		rjmp .L863
 14072               	.LVL1200:
 14073               	.L864:
 14074               	/* epilogue start */
 14075               	.LM1413:
 14076 4e8e 2896      		adiw r28,8
 14077 4e90 CDBF      		out __SP_L__,r28
 14078 4e92 DEBF      		out __SP_H__,r29
 14079 4e94 CF91      		pop r28
 14080 4e96 DF91      		pop r29
 14081 4e98 1F91      		pop r17
 14082 4e9a 0F91      		pop r16
 14083 4e9c FF90      		pop r15
 14084 4e9e EF90      		pop r14
 14085 4ea0 DF90      		pop r13
 14086               	.LVL1201:
 14087 4ea2 CF90      		pop r12
 14088               	.LVL1202:
 14089 4ea4 BF90      		pop r11
 14090 4ea6 AF90      		pop r10
 14091 4ea8 9F90      		pop r9
 14092 4eaa 8F90      		pop r8
 14093 4eac 7F90      		pop r7
 14094 4eae 6F90      		pop r6
 14095 4eb0 5F90      		pop r5
 14096               	.LVL1203:
 14097 4eb2 4F90      		pop r4
 14098               	.LVL1204:
 14099 4eb4 3F90      		pop r3
 14100 4eb6 2F90      		pop r2
 14101               	.LVL1205:
 14102 4eb8 0895      		ret
 14103               	.LFE123:
 14105               	.global	display_drawPixel
 14107               	display_drawPixel:
 14108               	.LFB124:
 14109               	.LM1414:
 14110               	.LVL1206:
 14111               	/* prologue: function */
 14112               	/* frame size = 0 */
 14113 4eba 282F      		mov r18,r24
 14114 4ebc 2695      		lsr r18
 14115 4ebe 2695      		lsr r18
 14116 4ec0 2695      		lsr r18
 14117 4ec2 70E0      		ldi r23,lo8(0)
 14118 4ec4 A82F      		mov r26,r24
 14119 4ec6 B0E0      		ldi r27,lo8(0)
 14120               	.LVL1207:
 14121               	.LM1415:
 14122 4ec8 4423      		tst r20
 14123 4eca 01F0      		breq .L866
 14124               	.LVL1208:
 14125 4ecc 30E0      		ldi r19,lo8(0)
 14126 4ece 86E6      		ldi r24,lo8(102)
 14127 4ed0 90E0      		ldi r25,hi8(102)
 14128 4ed2 289F      		mul r18,r24
 14129 4ed4 F001      		movw r30,r0
 14130 4ed6 299F      		mul r18,r25
 14131 4ed8 F00D      		add r31,r0
 14132 4eda 389F      		mul r19,r24
 14133 4edc F00D      		add r31,r0
 14134 4ede 1124      		clr r1
 14135 4ee0 E60F      		add r30,r22
 14136 4ee2 F71F      		adc r31,r23
 14137               	.LVL1209:
 14138 4ee4 E050      		subi r30,lo8(-(displayBuffer))
 14139 4ee6 F040      		sbci r31,hi8(-(displayBuffer))
 14140 4ee8 2081      		ld r18,Z
 14141 4eea A770      		andi r26,lo8(7)
 14142 4eec B070      		andi r27,hi8(7)
 14143               	.LVL1210:
 14144 4eee 81E0      		ldi r24,lo8(1)
 14145 4ef0 90E0      		ldi r25,hi8(1)
 14146 4ef2 00C0      		rjmp 2f
 14147 4ef4 880F      	1:	lsl r24
 14148 4ef6 991F      		rol r25
 14149 4ef8 AA95      	2:	dec r26
 14150 4efa 02F4      		brpl 1b
 14151 4efc 282B      		or r18,r24
 14152 4efe 2083      		st Z,r18
 14153 4f00 0895      		ret
 14154               	.LVL1211:
 14155               	.L866:
 14156               	.LM1416:
 14157 4f02 30E0      		ldi r19,lo8(0)
 14158 4f04 86E6      		ldi r24,lo8(102)
 14159 4f06 90E0      		ldi r25,hi8(102)
 14160 4f08 289F      		mul r18,r24
 14161 4f0a F001      		movw r30,r0
 14162 4f0c 299F      		mul r18,r25
 14163 4f0e F00D      		add r31,r0
 14164 4f10 389F      		mul r19,r24
 14165 4f12 F00D      		add r31,r0
 14166 4f14 1124      		clr r1
 14167 4f16 E60F      		add r30,r22
 14168 4f18 F71F      		adc r31,r23
 14169               	.LVL1212:
 14170 4f1a E050      		subi r30,lo8(-(displayBuffer))
 14171 4f1c F040      		sbci r31,hi8(-(displayBuffer))
 14172 4f1e 2081      		ld r18,Z
 14173 4f20 A770      		andi r26,lo8(7)
 14174 4f22 B070      		andi r27,hi8(7)
 14175               	.LVL1213:
 14176 4f24 81E0      		ldi r24,lo8(1)
 14177 4f26 90E0      		ldi r25,hi8(1)
 14178 4f28 00C0      		rjmp 2f
 14179 4f2a 880F      	1:	lsl r24
 14180 4f2c 991F      		rol r25
 14181 4f2e AA95      	2:	dec r26
 14182 4f30 02F4      		brpl 1b
 14183 4f32 8095      		com r24
 14184 4f34 8223      		and r24,r18
 14185 4f36 8083      		st Z,r24
 14186 4f38 0895      		ret
 14187               	.LFE124:
 14189               	.global	swap
 14191               	swap:
 14192               	.LFB125:
 14193               	.LM1417:
 14194               	.LVL1214:
 14195               	/* prologue: function */
 14196               	/* frame size = 0 */
 14197 4f3a DC01      		movw r26,r24
 14198 4f3c FB01      		movw r30,r22
 14199               	.LM1418:
 14200 4f3e 9081      		ld r25,Z
 14201               	.LVL1215:
 14202               	.LM1419:
 14203 4f40 8C91      		ld r24,X
 14204               	.LVL1216:
 14205 4f42 8083      		st Z,r24
 14206               	.LM1420:
 14207 4f44 9C93      		st X,r25
 14208               	/* epilogue start */
 14209               	.LM1421:
 14210 4f46 0895      		ret
 14211               	.LFE125:
 14213               	.global	display_drawLine
 14215               	display_drawLine:
 14216               	.LFB126:
 14217               	.LM1422:
 14218               	.LVL1217:
 14219 4f48 DF92      		push r13
 14220 4f4a EF92      		push r14
 14221 4f4c FF92      		push r15
 14222 4f4e 0F93      		push r16
 14223               	.LVL1218:
 14224 4f50 1F93      		push r17
 14225 4f52 CF93      		push r28
 14226 4f54 DF93      		push r29
 14227               	/* prologue: function */
 14228               	/* frame size = 0 */
 14229 4f56 F82E      		mov r15,r24
 14230 4f58 E62E      		mov r14,r22
 14231               	.LM1423:
 14232 4f5a 8417      		cp r24,r20
 14233 4f5c 01F4      		brne .L872
 14234               	.LVL1219:
 14235               	.LM1424:
 14236 4f5e 2617      		cp r18,r22
 14237 4f60 00F4      		brsh .L873
 14238               	.LVL1220:
 14239 4f62 DD24      		clr r13
 14240 4f64 DA94      		dec r13
 14241               	.LVL1221:
 14242 4f66 00C0      		rjmp .L874
 14243               	.LVL1222:
 14244               	.L873:
 14245 4f68 DD24      		clr r13
 14246 4f6a D394      		inc r13
 14247               	.LVL1223:
 14248               	.L874:
 14249               	.LM1425:
 14250 4f6c 1E2D      		mov r17,r14
 14251               	.LVL1224:
 14252               	.LM1426:
 14253 4f6e C22F      		mov r28,r18
 14254 4f70 D0E0      		ldi r29,lo8(0)
 14255               	.LVL1225:
 14256 4f72 00C0      		rjmp .L875
 14257               	.LVL1226:
 14258               	.L876:
 14259               	.LM1427:
 14260 4f74 8F2D      		mov r24,r15
 14261               	.LVL1227:
 14262 4f76 612F      		mov r22,r17
 14263               	.LVL1228:
 14264 4f78 402F      		mov r20,r16
 14265               	.LVL1229:
 14266 4f7a 0E94 0000 		call display_drawPixel
 14267 4f7e 1D0D      		add r17,r13
 14268               	.LVL1230:
 14269               	.L875:
 14270               	.LM1428:
 14271 4f80 812F      		mov r24,r17
 14272 4f82 9927      		clr r25
 14273 4f84 87FD      		sbrc r24,7
 14274 4f86 9095      		com r25
 14275               	.LVL1231:
 14276 4f88 8C17      		cp r24,r28
 14277 4f8a 9D07      		cpc r25,r29
 14278 4f8c 01F4      		brne .L876
 14279               	.LM1429:
 14280 4f8e 8F2D      		mov r24,r15
 14281               	.LVL1232:
 14282 4f90 612F      		mov r22,r17
 14283               	.LVL1233:
 14284 4f92 00C0      		rjmp .L883
 14285               	.LVL1234:
 14286               	.L872:
 14287               	.LM1430:
 14288 4f94 6217      		cp r22,r18
 14289 4f96 01F4      		brne .L882
 14290               	.LVL1235:
 14291               	.LM1431:
 14292 4f98 4817      		cp r20,r24
 14293 4f9a 00F4      		brsh .L878
 14294 4f9c DD24      		clr r13
 14295 4f9e DA94      		dec r13
 14296               	.LVL1236:
 14297 4fa0 00C0      		rjmp .L879
 14298               	.LVL1237:
 14299               	.L878:
 14300 4fa2 DD24      		clr r13
 14301 4fa4 D394      		inc r13
 14302               	.LVL1238:
 14303               	.L879:
 14304               	.LM1432:
 14305 4fa6 1F2D      		mov r17,r15
 14306               	.LVL1239:
 14307               	.LM1433:
 14308 4fa8 C42F      		mov r28,r20
 14309 4faa D0E0      		ldi r29,lo8(0)
 14310               	.LVL1240:
 14311 4fac 00C0      		rjmp .L880
 14312               	.LVL1241:
 14313               	.L881:
 14314               	.LM1434:
 14315 4fae 812F      		mov r24,r17
 14316               	.LVL1242:
 14317 4fb0 6E2D      		mov r22,r14
 14318 4fb2 402F      		mov r20,r16
 14319 4fb4 0E94 0000 		call display_drawPixel
 14320               	.LVL1243:
 14321 4fb8 1D0D      		add r17,r13
 14322               	.LVL1244:
 14323               	.L880:
 14324               	.LM1435:
 14325 4fba 812F      		mov r24,r17
 14326 4fbc 9927      		clr r25
 14327 4fbe 87FD      		sbrc r24,7
 14328 4fc0 9095      		com r25
 14329               	.LVL1245:
 14330 4fc2 8C17      		cp r24,r28
 14331 4fc4 9D07      		cpc r25,r29
 14332 4fc6 01F4      		brne .L881
 14333               	.LM1436:
 14334 4fc8 812F      		mov r24,r17
 14335               	.LVL1246:
 14336 4fca 6E2D      		mov r22,r14
 14337               	.LVL1247:
 14338               	.L883:
 14339 4fcc 402F      		mov r20,r16
 14340               	.LVL1248:
 14341 4fce 0E94 0000 		call display_drawPixel
 14342               	.LVL1249:
 14343               	.L882:
 14344               	/* epilogue start */
 14345               	.LM1437:
 14346 4fd2 DF91      		pop r29
 14347               	.LVL1250:
 14348 4fd4 CF91      		pop r28
 14349               	.LVL1251:
 14350 4fd6 1F91      		pop r17
 14351               	.LVL1252:
 14352 4fd8 0F91      		pop r16
 14353               	.LVL1253:
 14354 4fda FF90      		pop r15
 14355               	.LVL1254:
 14356 4fdc EF90      		pop r14
 14357               	.LVL1255:
 14358 4fde DF90      		pop r13
 14359               	.LVL1256:
 14360 4fe0 0895      		ret
 14361               	.LFE126:
 14363               	.global	display_drawRectangle
 14365               	display_drawRectangle:
 14366               	.LFB127:
 14367               	.LM1438:
 14368               	.LVL1257:
 14369 4fe2 6F92      		push r6
 14370 4fe4 7F92      		push r7
 14371 4fe6 8F92      		push r8
 14372 4fe8 9F92      		push r9
 14373 4fea BF92      		push r11
 14374 4fec CF92      		push r12
 14375               	.LVL1258:
 14376 4fee DF92      		push r13
 14377 4ff0 EF92      		push r14
 14378               	.LVL1259:
 14379 4ff2 FF92      		push r15
 14380 4ff4 0F93      		push r16
 14381               	.LVL1260:
 14382 4ff6 1F93      		push r17
 14383 4ff8 CF93      		push r28
 14384 4ffa DF93      		push r29
 14385               	/* prologue: function */
 14386               	/* frame size = 0 */
 14387 4ffc 182F      		mov r17,r24
 14388 4ffe B62E      		mov r11,r22
 14389 5000 D22E      		mov r13,r18
 14390               	.LVL1261:
 14391 5002 D60E      		add r13,r22
 14392 5004 F42E      		mov r15,r20
 14393               	.LVL1262:
 14394 5006 F80E      		add r15,r24
 14395               	.LM1439:
 14396 5008 0023      		tst r16
 14397               	.LVL1263:
 14398 500a 01F4      		brne .L885
 14399               	.LM1440:
 14400 500c 412F      		mov r20,r17
 14401               	.LVL1264:
 14402 500e 2D2D      		mov r18,r13
 14403               	.LVL1265:
 14404 5010 0C2D      		mov r16,r12
 14405               	.LVL1266:
 14406 5012 0E94 0000 		call display_drawLine
 14407               	.LVL1267:
 14408               	.LM1441:
 14409 5016 8F2D      		mov r24,r15
 14410 5018 6B2D      		mov r22,r11
 14411 501a 4F2D      		mov r20,r15
 14412 501c 2D2D      		mov r18,r13
 14413 501e 0E94 0000 		call display_drawLine
 14414               	.LM1442:
 14415 5022 812F      		mov r24,r17
 14416 5024 6B2D      		mov r22,r11
 14417 5026 4F2D      		mov r20,r15
 14418 5028 2B2D      		mov r18,r11
 14419 502a 0E94 0000 		call display_drawLine
 14420               	.LM1443:
 14421 502e 812F      		mov r24,r17
 14422 5030 6D2D      		mov r22,r13
 14423 5032 4F2D      		mov r20,r15
 14424 5034 2D2D      		mov r18,r13
 14425 5036 0E94 0000 		call display_drawLine
 14426 503a 00C0      		rjmp .L895
 14427               	.LVL1268:
 14428               	.L885:
 14429               	.LM1444:
 14430 503c 582F      		mov r21,r24
 14431               	.LVL1269:
 14432               	.LM1445:
 14433 503e 082F      		mov r16,r24
 14434               	.LVL1270:
 14435 5040 10E0      		ldi r17,lo8(0)
 14436 5042 040F      		add r16,r20
 14437 5044 111D      		adc r17,__zero_reg__
 14438               	.LM1446:
 14439 5046 CF2D      		mov r28,r15
 14440 5048 D0E0      		ldi r29,lo8(0)
 14441               	.LM1447:
 14442 504a A7E0      		ldi r26,lo8(7)
 14443 504c B0E0      		ldi r27,hi8(7)
 14444 504e AC1B      		sub r26,r28
 14445 5050 BD0B      		sbc r27,r29
 14446 5052 3FEF      		ldi r19,lo8(255)
 14447 5054 832E      		mov r8,r19
 14448 5056 912C      		mov r9,__zero_reg__
 14449               	.LM1448:
 14450 5058 26E6      		ldi r18,lo8(102)
 14451 505a 622E      		mov r6,r18
 14452 505c 712C      		mov r7,__zero_reg__
 14453               	.LVL1271:
 14454               	.LM1449:
 14455 505e 98E0      		ldi r25,lo8(8)
 14456 5060 C92E      		mov r12,r25
 14457 5062 00C0      		rjmp .L887
 14458               	.LVL1272:
 14459               	.L894:
 14460               	.LM1450:
 14461 5064 87E0      		ldi r24,lo8(7)
 14462 5066 F82E      		mov r15,r24
 14463               	.LVL1273:
 14464 5068 F522      		and r15,r21
 14465               	.LM1451:
 14466 506a 6F2D      		mov r22,r15
 14467 506c 70E0      		ldi r23,lo8(0)
 14468 506e C901      		movw r24,r18
 14469 5070 0796      		adiw r24,7
 14470 5072 861B      		sub r24,r22
 14471 5074 970B      		sbc r25,r23
 14472 5076 C817      		cp r28,r24
 14473 5078 D907      		cpc r29,r25
 14474 507a 04F0      		brlt .L888
 14475               	.LM1452:
 14476 507c C401      		movw r24,r8
 14477 507e 0F2C      		mov r0,r15
 14478 5080 00C0      		rjmp 2f
 14479 5082 880F      	1:	lsl r24
 14480 5084 991F      		rol r25
 14481 5086 0A94      	2:	dec r0
 14482 5088 02F4      		brpl 1b
 14483               	.LVL1274:
 14484 508a 00C0      		rjmp .L896
 14485               	.LVL1275:
 14486               	.L888:
 14487               	.LM1453:
 14488 508c 2A0F      		add r18,r26
 14489 508e 3B1F      		adc r19,r27
 14490 5090 C401      		movw r24,r8
 14491 5092 00C0      		rjmp 2f
 14492 5094 9595      	1:	asr r25
 14493 5096 8795      		ror r24
 14494 5098 2A95      	2:	dec r18
 14495 509a 02F4      		brpl 1b
 14496               	.L896:
 14497 509c 282F      		mov r18,r24
 14498               	.LVL1276:
 14499               	.LM1454:
 14500 509e 852F      		mov r24,r21
 14501               	.LVL1277:
 14502 50a0 8695      		lsr r24
 14503 50a2 8695      		lsr r24
 14504 50a4 8695      		lsr r24
 14505 50a6 3B2D      		mov r19,r11
 14506               	.LVL1278:
 14507 50a8 90E0      		ldi r25,lo8(0)
 14508               	.LM1455:
 14509 50aa 869D      		mul r24,r6
 14510 50ac B001      		movw r22,r0
 14511 50ae 879D      		mul r24,r7
 14512 50b0 700D      		add r23,r0
 14513 50b2 969D      		mul r25,r6
 14514 50b4 700D      		add r23,r0
 14515 50b6 1124      		clr r1
 14516               	.LVL1279:
 14517               	.LM1456:
 14518 50b8 422F      		mov r20,r18
 14519               	.LVL1280:
 14520 50ba 4095      		com r20
 14521 50bc 00C0      		rjmp .L890
 14522               	.L893:
 14523 50be E32F      		mov r30,r19
 14524 50c0 F0E0      		ldi r31,lo8(0)
 14525               	.LM1457:
 14526 50c2 EE20      		tst r14
 14527 50c4 01F0      		breq .L891
 14528               	.LM1458:
 14529 50c6 E60F      		add r30,r22
 14530 50c8 F71F      		adc r31,r23
 14531 50ca E050      		subi r30,lo8(-(displayBuffer))
 14532 50cc F040      		sbci r31,hi8(-(displayBuffer))
 14533 50ce 8081      		ld r24,Z
 14534 50d0 9081      		ld r25,Z
 14535 50d2 8223      		and r24,r18
 14536 50d4 8095      		com r24
 14537 50d6 8223      		and r24,r18
 14538 50d8 9423      		and r25,r20
 14539 50da 892B      		or r24,r25
 14540 50dc 8083      		st Z,r24
 14541 50de 00C0      		rjmp .L892
 14542               	.L891:
 14543               	.LM1459:
 14544 50e0 E60F      		add r30,r22
 14545 50e2 F71F      		adc r31,r23
 14546 50e4 E050      		subi r30,lo8(-(displayBuffer))
 14547 50e6 F040      		sbci r31,hi8(-(displayBuffer))
 14548 50e8 2083      		st Z,r18
 14549               	.L892:
 14550               	.LM1460:
 14551 50ea 3F5F      		subi r19,lo8(-(1))
 14552               	.L890:
 14553 50ec D316      		cp r13,r19
 14554 50ee 00F4      		brsh .L893
 14555               	.LM1461:
 14556 50f0 8C2D      		mov r24,r12
 14557 50f2 8F19      		sub r24,r15
 14558 50f4 580F      		add r21,r24
 14559               	.LVL1281:
 14560               	.L887:
 14561               	.LM1462:
 14562 50f6 252F      		mov r18,r21
 14563               	.LVL1282:
 14564 50f8 30E0      		ldi r19,lo8(0)
 14565               	.LVL1283:
 14566 50fa 0217      		cp r16,r18
 14567 50fc 1307      		cpc r17,r19
 14568 50fe 04F0      		brlt .+2
 14569 5100 00C0      		rjmp .L894
 14570               	.LVL1284:
 14571               	.L895:
 14572               	/* epilogue start */
 14573               	.LM1463:
 14574 5102 DF91      		pop r29
 14575 5104 CF91      		pop r28
 14576 5106 1F91      		pop r17
 14577 5108 0F91      		pop r16
 14578 510a FF90      		pop r15
 14579               	.LVL1285:
 14580 510c EF90      		pop r14
 14581               	.LVL1286:
 14582 510e DF90      		pop r13
 14583               	.LVL1287:
 14584 5110 CF90      		pop r12
 14585               	.LVL1288:
 14586 5112 BF90      		pop r11
 14587               	.LVL1289:
 14588 5114 9F90      		pop r9
 14589 5116 8F90      		pop r8
 14590 5118 7F90      		pop r7
 14591 511a 6F90      		pop r6
 14592 511c 0895      		ret
 14593               	.LFE127:
 14595               	.global	Time_Init
 14597               	Time_Init:
 14598               	.LFB128:
 14599               	.LM1464:
 14600               	/* prologue: function */
 14601               	/* frame size = 0 */
 14602               	.LM1465:
 14603 511e E0E0      		ldi r30,lo8(2304)
 14604 5120 F9E0      		ldi r31,hi8(2304)
 14605 5122 80E4      		ldi r24,lo8(14400)
 14606 5124 98E3      		ldi r25,hi8(14400)
 14607 5126 86A3      		std Z+38,r24
 14608 5128 97A3      		std Z+39,r25
 14609               	.LM1466:
 14610 512a 8081      		ld r24,Z
 14611 512c 807F      		andi r24,lo8(-16)
 14612 512e 8760      		ori r24,lo8(7)
 14613 5130 8083      		st Z,r24
 14614               	.LM1467:
 14615 5132 8681      		ldd r24,Z+6
 14616 5134 8C7F      		andi r24,lo8(-4)
 14617 5136 8260      		ori r24,lo8(2)
 14618 5138 8683      		std Z+6,r24
 14619               	.LM1468:
 14620 513a 88E0      		ldi r24,lo8(8)
 14621 513c 8093 4008 		sts 2112,r24
 14622               	.LM1469:
 14623 5140 80EC      		ldi r24,lo8(-64)
 14624 5142 8093 8001 		sts 384,r24
 14625               	.LM1470:
 14626 5146 E0E0      		ldi r30,lo8(2048)
 14627 5148 F8E0      		ldi r31,hi8(2048)
 14628 514a 8FEF      		ldi r24,lo8(-1)
 14629 514c 9FEF      		ldi r25,hi8(-1)
 14630 514e 86A3      		std Z+38,r24
 14631 5150 97A3      		std Z+39,r25
 14632               	.LM1471:
 14633 5152 8081      		ld r24,Z
 14634 5154 807F      		andi r24,lo8(-16)
 14635 5156 8460      		ori r24,lo8(4)
 14636 5158 8083      		st Z,r24
 14637               	/* epilogue start */
 14638               	.LM1472:
 14639 515a 0895      		ret
 14640               	.LFE128:
 14642               	.global	Time_Set
 14644               	Time_Set:
 14645               	.LFB129:
 14646               	.LM1473:
 14647               	.LVL1290:
 14648               	/* prologue: function */
 14649               	/* frame size = 0 */
 14650               	.LM1474:
 14651 515c 6093 0000 		sts UNIX_time,r22
 14652 5160 7093 0000 		sts (UNIX_time)+1,r23
 14653 5164 8093 0000 		sts (UNIX_time)+2,r24
 14654 5168 9093 0000 		sts (UNIX_time)+3,r25
 14655               	/* epilogue start */
 14656               	.LM1475:
 14657 516c 0895      		ret
 14658               	.LFE129:
 14660               	.global	Time_Get32BitTimer
 14662               	Time_Get32BitTimer:
 14663               	.LFB130:
 14664               	.LM1476:
 14665               	/* prologue: function */
 14666               	/* frame size = 0 */
 14667               	.LM1477:
 14668               	/* #APP */
 14669               	 ;  55 "time.c" 1
 14670 516e F894      		cli
 14671               	 ;  0 "" 2
 14672               	.LM1478:
 14673               	/* #NOAPP */
 14674 5170 2091 6008 		lds r18,2144
 14675 5174 3091 6108 		lds r19,(2144)+1
 14676               	.LVL1291:
 14677               	.LM1479:
 14678 5178 6091 2008 		lds r22,2080
 14679 517c 7091 2108 		lds r23,(2080)+1
 14680               	.LVL1292:
 14681               	.LM1480:
 14682 5180 8091 6008 		lds r24,2144
 14683 5184 9091 6108 		lds r25,(2144)+1
 14684 5188 2817      		cp r18,r24
 14685 518a 3907      		cpc r19,r25
 14686 518c 01F0      		breq .L902
 14687               	.LM1481:
 14688 518e 2091 6008 		lds r18,2144
 14689 5192 3091 6108 		lds r19,(2144)+1
 14690               	.LM1482:
 14691 5196 6091 2008 		lds r22,2080
 14692 519a 7091 2108 		lds r23,(2080)+1
 14693               	.L902:
 14694               	.LM1483:
 14695               	/* #APP */
 14696               	 ;  65 "time.c" 1
 14697 519e 7894      		sei
 14698               	 ;  0 "" 2
 14699               	/* #NOAPP */
 14700 51a0 40E0      		ldi r20,lo8(0)
 14701 51a2 50E0      		ldi r21,hi8(0)
 14702               	.LVL1293:
 14703 51a4 A901      		movw r20,r18
 14704 51a6 3327      		clr r19
 14705 51a8 2227      		clr r18
 14706               	.LVL1294:
 14707 51aa CB01      		movw r24,r22
 14708 51ac A0E0      		ldi r26,lo8(0)
 14709 51ae B0E0      		ldi r27,hi8(0)
 14710               	.LVL1295:
 14711 51b0 280F      		add r18,r24
 14712 51b2 391F      		adc r19,r25
 14713 51b4 4A1F      		adc r20,r26
 14714 51b6 5B1F      		adc r21,r27
 14715               	.LM1484:
 14716 51b8 B901      		movw r22,r18
 14717               	.LVL1296:
 14718 51ba CA01      		movw r24,r20
 14719               	.LVL1297:
 14720               	/* epilogue start */
 14721 51bc 0895      		ret
 14722               	.LFE130:
 14724               	.global	__vector_77
 14726               	__vector_77:
 14727               	.LFB131:
 14728               	.LM1485:
 14729 51be 1F92      		push __zero_reg__
 14730 51c0 0F92      		push r0
 14731 51c2 0FB6      		in r0,__SREG__
 14732 51c4 0F92      		push r0
 14733 51c6 1124      		clr __zero_reg__
 14734 51c8 8F93      		push r24
 14735 51ca 9F93      		push r25
 14736 51cc AF93      		push r26
 14737 51ce BF93      		push r27
 14738               	/* prologue: Signal */
 14739               	/* frame size = 0 */
 14740               	.LM1486:
 14741 51d0 8091 0000 		lds r24,UNIX_time
 14742 51d4 9091 0000 		lds r25,(UNIX_time)+1
 14743 51d8 A091 0000 		lds r26,(UNIX_time)+2
 14744 51dc B091 0000 		lds r27,(UNIX_time)+3
 14745 51e0 0196      		adiw r24,1
 14746 51e2 A11D      		adc r26,__zero_reg__
 14747 51e4 B11D      		adc r27,__zero_reg__
 14748 51e6 8093 0000 		sts UNIX_time,r24
 14749 51ea 9093 0000 		sts (UNIX_time)+1,r25
 14750 51ee A093 0000 		sts (UNIX_time)+2,r26
 14751 51f2 B093 0000 		sts (UNIX_time)+3,r27
 14752               	/* epilogue start */
 14753               	.LM1487:
 14754 51f6 BF91      		pop r27
 14755 51f8 AF91      		pop r26
 14756 51fa 9F91      		pop r25
 14757 51fc 8F91      		pop r24
 14758 51fe 0F90      		pop r0
 14759 5200 0FBE      		out __SREG__,r0
 14760 5202 0F90      		pop r0
 14761 5204 1F90      		pop __zero_reg__
 14762 5206 1895      		reti
 14763               	.LFE131:
 14765               	.global	Sensors_Init
 14767               	Sensors_Init:
 14768               	.LFB132:
 14769               	.LM1488:
 14770               	/* prologue: function */
 14771               	/* frame size = 0 */
 14772               	.LM1489:
 14773 5208 E0E0      		ldi r30,lo8(512)
 14774 520a F2E0      		ldi r31,hi8(512)
 14775 520c 92E0      		ldi r25,lo8(2)
 14776 520e 90A3      		std Z+32,r25
 14777               	.LM1490:
 14778 5210 8AE2      		ldi r24,lo8(42)
 14779 5212 81A3      		std Z+33,r24
 14780               	.LM1491:
 14781 5214 90A7      		std Z+40,r25
 14782               	.LM1492:
 14783 5216 83E2      		ldi r24,lo8(35)
 14784 5218 81A7      		std Z+41,r24
 14785               	.LM1493:
 14786 521a 90AF      		std Z+56,r25
 14787               	.LM1494:
 14788 521c 88E3      		ldi r24,lo8(56)
 14789 521e 81AF      		std Z+57,r24
 14790               	.LM1495:
 14791 5220 90AB      		std Z+48,r25
 14792               	.LM1496:
 14793 5222 81E3      		ldi r24,lo8(49)
 14794 5224 81AB      		std Z+49,r24
 14795               	.LM1497:
 14796 5226 8481      		ldd r24,Z+4
 14797 5228 887F      		andi r24,lo8(-8)
 14798 522a 8460      		ori r24,lo8(4)
 14799 522c 8483      		std Z+4,r24
 14800               	.LM1498:
 14801 522e 80E1      		ldi r24,lo8(16)
 14802 5230 8283      		std Z+2,r24
 14803               	.LM1499:
 14804 5232 8381      		ldd r24,Z+3
 14805 5234 806C      		ori r24,lo8(-64)
 14806 5236 8383      		std Z+3,r24
 14807               	.LM1500:
 14808 5238 8181      		ldd r24,Z+1
 14809 523a 8861      		ori r24,lo8(24)
 14810 523c 8183      		std Z+1,r24
 14811               	.LM1501:
 14812 523e 80A1      		ldd r24,Z+32
 14813 5240 8068      		ori r24,lo8(-128)
 14814 5242 80A3      		std Z+32,r24
 14815               	.LM1502:
 14816 5244 80A5      		ldd r24,Z+40
 14817 5246 8068      		ori r24,lo8(-128)
 14818 5248 80A7      		std Z+40,r24
 14819               	.LM1503:
 14820 524a 80AD      		ldd r24,Z+56
 14821 524c 8068      		ori r24,lo8(-128)
 14822 524e 80AF      		std Z+56,r24
 14823               	.LM1504:
 14824 5250 80A9      		ldd r24,Z+48
 14825 5252 8068      		ori r24,lo8(-128)
 14826 5254 80AB      		std Z+48,r24
 14827               	.LM1505:
 14828 5256 81E0      		ldi r24,lo8(1)
 14829 5258 8083      		st Z,r24
 14830               	.LM1506:
 14831 525a E0E4      		ldi r30,lo8(2368)
 14832 525c F9E0      		ldi r31,hi8(2368)
 14833 525e 80E4      		ldi r24,lo8(14400)
 14834 5260 98E3      		ldi r25,hi8(14400)
 14835 5262 86A3      		std Z+38,r24
 14836 5264 97A3      		std Z+39,r25
 14837               	.LM1507:
 14838 5266 8081      		ld r24,Z
 14839 5268 807F      		andi r24,lo8(-16)
 14840 526a 8760      		ori r24,lo8(7)
 14841 526c 8083      		st Z,r24
 14842               	.LM1508:
 14843 526e 8681      		ldd r24,Z+6
 14844 5270 8360      		ori r24,lo8(3)
 14845 5272 8683      		std Z+6,r24
 14846               	.LM1509:
 14847 5274 E0E0      		ldi r30,lo8(2816)
 14848 5276 FBE0      		ldi r31,hi8(2816)
 14849 5278 80E0      		ldi r24,lo8(256)
 14850 527a 91E0      		ldi r25,hi8(256)
 14851 527c 86A3      		std Z+38,r24
 14852 527e 97A3      		std Z+39,r25
 14853               	.LM1510:
 14854 5280 8081      		ld r24,Z
 14855 5282 807F      		andi r24,lo8(-16)
 14856 5284 8460      		ori r24,lo8(4)
 14857 5286 8083      		st Z,r24
 14858               	.LM1511:
 14859 5288 8681      		ldd r24,Z+6
 14860 528a 8360      		ori r24,lo8(3)
 14861 528c 8683      		std Z+6,r24
 14862               	/* epilogue start */
 14863               	.LM1512:
 14864 528e 0895      		ret
 14865               	.LFE132:
 14867               	.global	Sensors_ReadTemperature
 14869               	Sensors_ReadTemperature:
 14870               	.LFB133:
 14871               	.LM1513:
 14872               	/* prologue: function */
 14873               	/* frame size = 0 */
 14874               	.LM1514:
 14875 5290 E0E0      		ldi r30,lo8(512)
 14876 5292 F2E0      		ldi r31,hi8(512)
 14877 5294 6089      		ldd r22,Z+16
 14878 5296 7189      		ldd r23,Z+17
 14879 5298 80E0      		ldi r24,lo8(0)
 14880 529a 90E0      		ldi r25,hi8(0)
 14881               	.LVL1298:
 14882               	.LM1515:
 14883 529c 2AEA      		ldi r18,lo8(206250)
 14884 529e 35E2      		ldi r19,hi8(206250)
 14885 52a0 43E0      		ldi r20,hlo8(206250)
 14886 52a2 50E0      		ldi r21,hhi8(206250)
 14887 52a4 0E94 0000 		call __mulsi3
 14888 52a8 675F      		subi r22,lo8(-(-31984375))
 14889 52aa 7A40      		sbci r23,hi8(-(-31984375))
 14890 52ac 884E      		sbci r24,hlo8(-(-31984375))
 14891 52ae 9140      		sbci r25,hhi8(-(-31984375))
 14892               	.LVL1299:
 14893 52b0 21E5      		ldi r18,lo8(358225)
 14894 52b2 37E7      		ldi r19,hi8(358225)
 14895 52b4 45E0      		ldi r20,hlo8(358225)
 14896 52b6 50E0      		ldi r21,hhi8(358225)
 14897 52b8 0E94 0000 		call __udivmodsi4
 14898               	.LVL1300:
 14899 52bc C901      		movw r24,r18
 14900               	.LVL1301:
 14901               	/* epilogue start */
 14902               	.LM1516:
 14903 52be 0895      		ret
 14904               	.LFE133:
 14906               	.global	Sensors_ReadHumidity
 14908               	Sensors_ReadHumidity:
 14909               	.LFB134:
 14910               	.LM1517:
 14911               	/* prologue: function */
 14912               	/* frame size = 0 */
 14913               	.LM1518:
 14914 52c0 E0E0      		ldi r30,lo8(512)
 14915 52c2 F2E0      		ldi r31,hi8(512)
 14916 52c4 6289      		ldd r22,Z+18
 14917 52c6 7389      		ldd r23,Z+19
 14918 52c8 80E0      		ldi r24,lo8(0)
 14919 52ca 90E0      		ldi r25,hi8(0)
 14920               	.LVL1302:
 14921               	.LM1519:
 14922 52cc 27EC      		ldi r18,lo8(7623)
 14923 52ce 3DE1      		ldi r19,hi8(7623)
 14924 52d0 40E0      		ldi r20,hlo8(7623)
 14925 52d2 50E0      		ldi r21,hhi8(7623)
 14926 52d4 0E94 0000 		call __mulsi3
 14927 52d8 6C59      		subi r22,lo8(-(-1776796))
 14928 52da 7C41      		sbci r23,hi8(-(-1776796))
 14929 52dc 8B41      		sbci r24,hlo8(-(-1776796))
 14930 52de 9040      		sbci r25,hhi8(-(-1776796))
 14931               	.LVL1303:
 14932 52e0 28ED      		ldi r18,lo8(81880)
 14933 52e2 3FE3      		ldi r19,hi8(81880)
 14934 52e4 41E0      		ldi r20,hlo8(81880)
 14935 52e6 50E0      		ldi r21,hhi8(81880)
 14936 52e8 0E94 0000 		call __udivmodsi4
 14937               	.LVL1304:
 14938 52ec 822F      		mov r24,r18
 14939               	.LVL1305:
 14940               	/* epilogue start */
 14941               	.LM1520:
 14942 52ee 0895      		ret
 14943               	.LFE134:
 14945               	.global	Sensors_ReadMicrophone
 14947               	Sensors_ReadMicrophone:
 14948               	.LFB135:
 14949               	.LM1521:
 14950               	/* prologue: function */
 14951               	/* frame size = 0 */
 14952               	.LM1522:
 14953 52f0 E0E0      		ldi r30,lo8(512)
 14954 52f2 F2E0      		ldi r31,hi8(512)
 14955 52f4 8689      		ldd r24,Z+22
 14956 52f6 9789      		ldd r25,Z+23
 14957 52f8 F4E0      		ldi r31,4
 14958 52fa 9695      	1:	lsr r25
 14959 52fc 8795      		ror r24
 14960 52fe FA95      		dec r31
 14961 5300 01F4      		brne 1b
 14962               	/* epilogue start */
 14963               	.LM1523:
 14964 5302 0895      		ret
 14965               	.LFE135:
 14967               	.global	Sensors_ReadPressure
 14969               	Sensors_ReadPressure:
 14970               	.LFB136:
 14971               	.LM1524:
 14972               	/* prologue: function */
 14973               	/* frame size = 0 */
 14974               	.LM1525:
 14975 5304 E0E0      		ldi r30,lo8(512)
 14976 5306 F2E0      		ldi r31,hi8(512)
 14977 5308 6489      		ldd r22,Z+20
 14978 530a 7589      		ldd r23,Z+21
 14979 530c 80E0      		ldi r24,lo8(0)
 14980 530e 90E0      		ldi r25,hi8(0)
 14981               	.LVL1306:
 14982               	.LM1526:
 14983 5310 22E2      		ldi r18,lo8(41250)
 14984 5312 31EA      		ldi r19,hi8(41250)
 14985 5314 40E0      		ldi r20,hlo8(41250)
 14986 5316 50E0      		ldi r21,hhi8(41250)
 14987 5318 0E94 0000 		call __mulsi3
 14988 531c 6F53      		subi r22,lo8(-(6417345))
 14989 531e 7441      		sbci r23,hi8(-(6417345))
 14990 5320 8E49      		sbci r24,hlo8(-(6417345))
 14991 5322 9F4F      		sbci r25,hhi8(-(6417345))
 14992               	.LVL1307:
 14993 5324 27ED      		ldi r18,lo8(607959)
 14994 5326 36E4      		ldi r19,hi8(607959)
 14995 5328 49E0      		ldi r20,hlo8(607959)
 14996 532a 50E0      		ldi r21,hhi8(607959)
 14997 532c 0E94 0000 		call __udivmodsi4
 14998               	.LVL1308:
 14999 5330 822F      		mov r24,r18
 15000               	.LVL1309:
 15001               	/* epilogue start */
 15002               	.LM1527:
 15003 5332 0895      		ret
 15004               	.LFE136:
 15006               	.global	Sensors_ResetTemperatureBuffers
 15008               	Sensors_ResetTemperatureBuffers:
 15009               	.LFB137:
 15010               	.LM1528:
 15011               	/* prologue: function */
 15012               	/* frame size = 0 */
 15013               	.LM1529:
 15014 5334 1092 0000 		sts temperatureBufferCounter,__zero_reg__
 15015               	.LM1530:
 15016 5338 81E0      		ldi r24,lo8(1)
 15017 533a 8093 0000 		sts temperatureBufferToWriteTo,r24
 15018               	.LM1531:
 15019 533e 1092 0000 		sts okToSendTemperatureBuffer1,__zero_reg__
 15020               	.LM1532:
 15021 5342 1092 0000 		sts okToSendTemperatureBuffer2,__zero_reg__
 15022               	/* epilogue start */
 15023               	.LM1533:
 15024 5346 0895      		ret
 15025               	.LFE137:
 15027               	.global	Sensors_ResetPressureBuffers
 15029               	Sensors_ResetPressureBuffers:
 15030               	.LFB138:
 15031               	.LM1534:
 15032               	/* prologue: function */
 15033               	/* frame size = 0 */
 15034               	.LM1535:
 15035 5348 1092 0000 		sts pressureBufferCounter,__zero_reg__
 15036               	.LM1536:
 15037 534c 81E0      		ldi r24,lo8(1)
 15038 534e 8093 0000 		sts pressureBufferToWriteTo,r24
 15039               	.LM1537:
 15040 5352 1092 0000 		sts okToSendPressureBuffer1,__zero_reg__
 15041               	.LM1538:
 15042 5356 1092 0000 		sts okToSendPressureBuffer2,__zero_reg__
 15043               	/* epilogue start */
 15044               	.LM1539:
 15045 535a 0895      		ret
 15046               	.LFE138:
 15048               	.global	Sensors_ResetHumidityBuffers
 15050               	Sensors_ResetHumidityBuffers:
 15051               	.LFB139:
 15052               	.LM1540:
 15053               	/* prologue: function */
 15054               	/* frame size = 0 */
 15055               	.LM1541:
 15056 535c 1092 0000 		sts humidityBufferCounter,__zero_reg__
 15057               	.LM1542:
 15058 5360 81E0      		ldi r24,lo8(1)
 15059 5362 8093 0000 		sts humidityBufferToWriteTo,r24
 15060               	.LM1543:
 15061 5366 1092 0000 		sts okToSendHumidityBuffer1,__zero_reg__
 15062               	.LM1544:
 15063 536a 1092 0000 		sts okToSendHumidityBuffer2,__zero_reg__
 15064               	/* epilogue start */
 15065               	.LM1545:
 15066 536e 0895      		ret
 15067               	.LFE139:
 15069               	.global	Sensors_ResetMicrophoneBuffers
 15071               	Sensors_ResetMicrophoneBuffers:
 15072               	.LFB140:
 15073               	.LM1546:
 15074               	/* prologue: function */
 15075               	/* frame size = 0 */
 15076               	.LM1547:
 15077 5370 1092 0000 		sts microphoneBufferCounter,__zero_reg__
 15078 5374 1092 0000 		sts (microphoneBufferCounter)+1,__zero_reg__
 15079               	.LM1548:
 15080 5378 81E0      		ldi r24,lo8(1)
 15081 537a 8093 0000 		sts microphoneBufferToWriteTo,r24
 15082               	.LM1549:
 15083 537e 1092 0000 		sts okToSendMicrophoneBuffer1,__zero_reg__
 15084               	.LM1550:
 15085 5382 1092 0000 		sts okToSendMicrophoneBuffer2,__zero_reg__
 15086               	/* epilogue start */
 15087               	.LM1551:
 15088 5386 0895      		ret
 15089               	.LFE140:
 15091               	.global	Sensors_ResetLightBuffers
 15093               	Sensors_ResetLightBuffers:
 15094               	.LFB141:
 15095               	.LM1552:
 15096               	/* prologue: function */
 15097               	/* frame size = 0 */
 15098               	.LM1553:
 15099 5388 1092 0000 		sts lightBufferCounter,__zero_reg__
 15100               	.LM1554:
 15101 538c 81E0      		ldi r24,lo8(1)
 15102 538e 8093 0000 		sts lightBufferToWriteTo,r24
 15103               	.LM1555:
 15104 5392 1092 0000 		sts okToSendLightBuffer1,__zero_reg__
 15105               	.LM1556:
 15106 5396 1092 0000 		sts okToSendLightBuffer2,__zero_reg__
 15107               	/* epilogue start */
 15108               	.LM1557:
 15109 539a 0895      		ret
 15110               	.LFE141:
 15112               	.global	__vector_108
 15114               	__vector_108:
 15115               	.LFB143:
 15116               	.LM1558:
 15117 539c 1F92      		push __zero_reg__
 15118 539e 0F92      		push r0
 15119 53a0 0FB6      		in r0,__SREG__
 15120 53a2 0F92      		push r0
 15121 53a4 0BB6      		in r0,59-0
 15122 53a6 0F92      		push r0
 15123 53a8 1124      		clr __zero_reg__
 15124 53aa 0F93      		push r16
 15125 53ac 1F93      		push r17
 15126 53ae 2F93      		push r18
 15127 53b0 3F93      		push r19
 15128 53b2 4F93      		push r20
 15129 53b4 5F93      		push r21
 15130 53b6 6F93      		push r22
 15131 53b8 7F93      		push r23
 15132 53ba 8F93      		push r24
 15133 53bc 9F93      		push r25
 15134 53be AF93      		push r26
 15135 53c0 BF93      		push r27
 15136 53c2 EF93      		push r30
 15137 53c4 FF93      		push r31
 15138               	/* prologue: Signal */
 15139               	/* frame size = 0 */
 15140               	.LM1559:
 15141 53c6 8091 0000 		lds r24,recording
 15142 53ca 8823      		tst r24
 15143 53cc 01F4      		brne .+2
 15144 53ce 00C0      		rjmp .L931
 15145 53d0 8091 0000 		lds r24,wantToRecordMicrophone
 15146 53d4 8823      		tst r24
 15147 53d6 01F4      		brne .+2
 15148 53d8 00C0      		rjmp .L931
 15149               	.LM1560:
 15150 53da 8091 0000 		lds r24,microphoneBufferToWriteTo
 15151 53de 8130      		cpi r24,lo8(1)
 15152 53e0 01F4      		brne .L928
 15153               	.LM1561:
 15154 53e2 8091 0000 		lds r24,microphoneBufferCounter
 15155 53e6 9091 0000 		lds r25,(microphoneBufferCounter)+1
 15156 53ea 892B      		or r24,r25
 15157 53ec 01F4      		brne .L929
 15158               	.LM1562:
 15159 53ee 0E94 0000 		call Time_Get32BitTimer
 15160 53f2 6093 0000 		sts microphoneSampleStartTime1,r22
 15161 53f6 7093 0000 		sts (microphoneSampleStartTime1)+1,r23
 15162 53fa 8093 0000 		sts (microphoneSampleStartTime1)+2,r24
 15163 53fe 9093 0000 		sts (microphoneSampleStartTime1)+3,r25
 15164               	.L929:
 15165               	.LM1563:
 15166 5402 0091 0000 		lds r16,microphoneBufferCounter
 15167 5406 1091 0000 		lds r17,(microphoneBufferCounter)+1
 15168 540a 0E94 0000 		call Sensors_ReadMicrophone
 15169 540e 0050      		subi r16,lo8(-(microphoneBuffer1))
 15170 5410 1040      		sbci r17,hi8(-(microphoneBuffer1))
 15171 5412 F801      		movw r30,r16
 15172 5414 8083      		st Z,r24
 15173               	.LM1564:
 15174 5416 8091 0000 		lds r24,microphoneBufferCounter
 15175 541a 9091 0000 		lds r25,(microphoneBufferCounter)+1
 15176 541e 0196      		adiw r24,1
 15177 5420 8093 0000 		sts microphoneBufferCounter,r24
 15178 5424 9093 0000 		sts (microphoneBufferCounter)+1,r25
 15179               	.LM1565:
 15180 5428 885E      		subi r24,lo8(1000)
 15181 542a 9340      		sbci r25,hi8(1000)
 15182 542c 01F4      		brne .L931
 15183               	.LM1566:
 15184 542e 1092 0000 		sts microphoneBufferCounter,__zero_reg__
 15185 5432 1092 0000 		sts (microphoneBufferCounter)+1,__zero_reg__
 15186               	.LM1567:
 15187 5436 82E0      		ldi r24,lo8(2)
 15188 5438 8093 0000 		sts microphoneBufferToWriteTo,r24
 15189               	.LM1568:
 15190 543c 81E0      		ldi r24,lo8(1)
 15191 543e 8093 0000 		sts okToSendMicrophoneBuffer1,r24
 15192 5442 00C0      		rjmp .L931
 15193               	.L928:
 15194               	.LM1569:
 15195 5444 8230      		cpi r24,lo8(2)
 15196 5446 01F4      		brne .L931
 15197               	.LM1570:
 15198 5448 8091 0000 		lds r24,microphoneBufferCounter
 15199 544c 9091 0000 		lds r25,(microphoneBufferCounter)+1
 15200 5450 892B      		or r24,r25
 15201 5452 01F4      		brne .L930
 15202               	.LM1571:
 15203 5454 0E94 0000 		call Time_Get32BitTimer
 15204 5458 6093 0000 		sts microphoneSampleStartTime2,r22
 15205 545c 7093 0000 		sts (microphoneSampleStartTime2)+1,r23
 15206 5460 8093 0000 		sts (microphoneSampleStartTime2)+2,r24
 15207 5464 9093 0000 		sts (microphoneSampleStartTime2)+3,r25
 15208               	.L930:
 15209               	.LM1572:
 15210 5468 0091 0000 		lds r16,microphoneBufferCounter
 15211 546c 1091 0000 		lds r17,(microphoneBufferCounter)+1
 15212 5470 0E94 0000 		call Sensors_ReadMicrophone
 15213 5474 0050      		subi r16,lo8(-(microphoneBuffer2))
 15214 5476 1040      		sbci r17,hi8(-(microphoneBuffer2))
 15215 5478 F801      		movw r30,r16
 15216 547a 8083      		st Z,r24
 15217               	.LM1573:
 15218 547c 8091 0000 		lds r24,microphoneBufferCounter
 15219 5480 9091 0000 		lds r25,(microphoneBufferCounter)+1
 15220 5484 0196      		adiw r24,1
 15221 5486 8093 0000 		sts microphoneBufferCounter,r24
 15222 548a 9093 0000 		sts (microphoneBufferCounter)+1,r25
 15223               	.LM1574:
 15224 548e 885E      		subi r24,lo8(1000)
 15225 5490 9340      		sbci r25,hi8(1000)
 15226 5492 01F4      		brne .L931
 15227               	.LM1575:
 15228 5494 1092 0000 		sts microphoneBufferCounter,__zero_reg__
 15229 5498 1092 0000 		sts (microphoneBufferCounter)+1,__zero_reg__
 15230               	.LM1576:
 15231 549c 81E0      		ldi r24,lo8(1)
 15232 549e 8093 0000 		sts microphoneBufferToWriteTo,r24
 15233               	.LM1577:
 15234 54a2 8093 0000 		sts okToSendMicrophoneBuffer2,r24
 15235               	.L931:
 15236               	/* epilogue start */
 15237               	.LM1578:
 15238 54a6 FF91      		pop r31
 15239 54a8 EF91      		pop r30
 15240 54aa BF91      		pop r27
 15241 54ac AF91      		pop r26
 15242 54ae 9F91      		pop r25
 15243 54b0 8F91      		pop r24
 15244 54b2 7F91      		pop r23
 15245 54b4 6F91      		pop r22
 15246 54b6 5F91      		pop r21
 15247 54b8 4F91      		pop r20
 15248 54ba 3F91      		pop r19
 15249 54bc 2F91      		pop r18
 15250 54be 1F91      		pop r17
 15251 54c0 0F91      		pop r16
 15252 54c2 0F90      		pop r0
 15253 54c4 0BBE      		out 59-0,r0
 15254 54c6 0F90      		pop r0
 15255 54c8 0FBE      		out __SREG__,r0
 15256 54ca 0F90      		pop r0
 15257 54cc 1F90      		pop __zero_reg__
 15258 54ce 1895      		reti
 15259               	.LFE143:
 15261               	.global	Light_readByte
 15263               	Light_readByte:
 15264               	.LFB145:
 15265               	.LM1579:
 15266               	.LVL1310:
 15267               	/* prologue: function */
 15268               	/* frame size = 0 */
 15269               	.LM1580:
 15270 54d0 3091 0000 		lds r19,deviceAddress
 15271 54d4 932F      		mov r25,r19
 15272 54d6 9E7F      		andi r25,lo8(-2)
 15273               	.LM1581:
 15274 54d8 282F      		mov r18,r24
 15275 54da 2068      		ori r18,lo8(-128)
 15276 54dc 2093 0000 		sts commandCode,r18
 15277               	.LM1582:
 15278 54e0 E0E8      		ldi r30,lo8(1152)
 15279 54e2 F4E0      		ldi r31,hi8(1152)
 15280 54e4 9683      		std Z+6,r25
 15281               	.L933:
 15282               	.LM1583:
 15283 54e6 8091 8404 		lds r24,1156
 15284               	.LVL1311:
 15285 54ea 86FF      		sbrs r24,6
 15286 54ec 00C0      		rjmp .L933
 15287               	.LM1584:
 15288 54ee E0E8      		ldi r30,lo8(1152)
 15289 54f0 F4E0      		ldi r31,hi8(1152)
 15290 54f2 2783      		std Z+7,r18
 15291               	.L934:
 15292               	.LM1585:
 15293 54f4 8091 8404 		lds r24,1156
 15294 54f8 86FF      		sbrs r24,6
 15295 54fa 00C0      		rjmp .L934
 15296               	.LM1586:
 15297 54fc 832F      		mov r24,r19
 15298 54fe 8160      		ori r24,lo8(1)
 15299 5500 8093 0000 		sts writeAddress,r24
 15300               	.LM1587:
 15301 5504 E0E8      		ldi r30,lo8(1152)
 15302 5506 F4E0      		ldi r31,hi8(1152)
 15303 5508 8683      		std Z+6,r24
 15304               	.L935:
 15305               	.LM1588:
 15306 550a 8091 8404 		lds r24,1156
 15307 550e 87FF      		sbrs r24,7
 15308 5510 00C0      		rjmp .L935
 15309               	.LM1589:
 15310 5512 8091 8704 		lds r24,1159
 15311               	.LVL1312:
 15312               	.LM1590:
 15313 5516 97E0      		ldi r25,lo8(7)
 15314 5518 E0E8      		ldi r30,lo8(1152)
 15315 551a F4E0      		ldi r31,hi8(1152)
 15316 551c 9383      		std Z+3,r25
 15317               	.LVL1313:
 15318               	/* epilogue start */
 15319               	.LM1591:
 15320 551e 0895      		ret
 15321               	.LFE145:
 15323               	.global	Light_readColors
 15325               	Light_readColors:
 15326               	.LFB146:
 15327               	.LM1592:
 15328               	/* prologue: function */
 15329               	/* frame size = 0 */
 15330               	.LM1593:
 15331 5520 80E0      		ldi r24,lo8(0)
 15332 5522 0E94 0000 		call Light_readByte
 15333               	.LM1594:
 15334 5526 2091 0000 		lds r18,deviceAddress
 15335 552a 922F      		mov r25,r18
 15336 552c 9E7F      		andi r25,lo8(-2)
 15337               	.LM1595:
 15338 552e 80E9      		ldi r24,lo8(-112)
 15339 5530 8093 0000 		sts commandCode,r24
 15340               	.LM1596:
 15341 5534 E0E8      		ldi r30,lo8(1152)
 15342 5536 F4E0      		ldi r31,hi8(1152)
 15343 5538 9683      		std Z+6,r25
 15344               	.L941:
 15345               	.LM1597:
 15346 553a 8091 8404 		lds r24,1156
 15347 553e 86FF      		sbrs r24,6
 15348 5540 00C0      		rjmp .L941
 15349               	.LM1598:
 15350 5542 80E9      		ldi r24,lo8(-112)
 15351 5544 E0E8      		ldi r30,lo8(1152)
 15352 5546 F4E0      		ldi r31,hi8(1152)
 15353 5548 8783      		std Z+7,r24
 15354               	.L942:
 15355               	.LM1599:
 15356 554a 8091 8404 		lds r24,1156
 15357 554e 86FF      		sbrs r24,6
 15358 5550 00C0      		rjmp .L942
 15359               	.LM1600:
 15360 5552 822F      		mov r24,r18
 15361 5554 8160      		ori r24,lo8(1)
 15362 5556 8093 0000 		sts writeAddress,r24
 15363               	.LM1601:
 15364 555a E0E8      		ldi r30,lo8(1152)
 15365 555c F4E0      		ldi r31,hi8(1152)
 15366 555e 8683      		std Z+6,r24
 15367 5560 E0E0      		ldi r30,lo8(colors8)
 15368 5562 F0E0      		ldi r31,hi8(colors8)
 15369 5564 90E0      		ldi r25,lo8(0)
 15370               	.LVL1314:
 15371               	.LBB865:
 15372               	.LM1602:
 15373 5566 A0E8      		ldi r26,lo8(1152)
 15374 5568 B4E0      		ldi r27,hi8(1152)
 15375               	.LM1603:
 15376 556a 22E0      		ldi r18,lo8(2)
 15377               	.L950:
 15378               	.LM1604:
 15379 556c 8091 8404 		lds r24,1156
 15380 5570 87FF      		sbrs r24,7
 15381 5572 00C0      		rjmp .L950
 15382               	.LM1605:
 15383 5574 8091 8704 		lds r24,1159
 15384 5578 8083      		st Z,r24
 15385               	.LM1606:
 15386 557a 9730      		cpi r25,lo8(7)
 15387 557c 01F0      		breq .L944
 15388               	.LM1607:
 15389 557e 1396      		adiw r26,3
 15390 5580 2C93      		st X,r18
 15391 5582 1397      		sbiw r26,3
 15392               	.L944:
 15393               	.LM1608:
 15394 5584 9F5F      		subi r25,lo8(-(1))
 15395 5586 3196      		adiw r30,1
 15396 5588 9830      		cpi r25,lo8(8)
 15397 558a 01F4      		brne .L950
 15398               	.LBE865:
 15399               	.LM1609:
 15400 558c 87E0      		ldi r24,lo8(7)
 15401 558e E0E8      		ldi r30,lo8(1152)
 15402 5590 F4E0      		ldi r31,hi8(1152)
 15403 5592 8383      		std Z+3,r24
 15404               	.LM1610:
 15405 5594 9091 0000 		lds r25,colors8+1
 15406               	.LVL1315:
 15407 5598 80E0      		ldi r24,lo8(0)
 15408 559a 2091 0000 		lds r18,colors8
 15409 559e 820F      		add r24,r18
 15410 55a0 911D      		adc r25,__zero_reg__
 15411 55a2 8093 0000 		sts colors,r24
 15412 55a6 9093 0000 		sts (colors)+1,r25
 15413               	.LM1611:
 15414 55aa 9091 0000 		lds r25,colors8+3
 15415 55ae 80E0      		ldi r24,lo8(0)
 15416 55b0 2091 0000 		lds r18,colors8+2
 15417 55b4 820F      		add r24,r18
 15418 55b6 911D      		adc r25,__zero_reg__
 15419 55b8 8093 0000 		sts colors+2,r24
 15420 55bc 9093 0000 		sts (colors+2)+1,r25
 15421               	.LM1612:
 15422 55c0 9091 0000 		lds r25,colors8+5
 15423 55c4 80E0      		ldi r24,lo8(0)
 15424 55c6 2091 0000 		lds r18,colors8+4
 15425 55ca 820F      		add r24,r18
 15426 55cc 911D      		adc r25,__zero_reg__
 15427 55ce 8093 0000 		sts colors+4,r24
 15428 55d2 9093 0000 		sts (colors+4)+1,r25
 15429               	.LM1613:
 15430 55d6 9091 0000 		lds r25,colors8+7
 15431 55da 80E0      		ldi r24,lo8(0)
 15432 55dc 2091 0000 		lds r18,colors8+6
 15433 55e0 820F      		add r24,r18
 15434 55e2 911D      		adc r25,__zero_reg__
 15435 55e4 8093 0000 		sts colors+6,r24
 15436 55e8 9093 0000 		sts (colors+6)+1,r25
 15437               	/* epilogue start */
 15438               	.LM1614:
 15439 55ec 0895      		ret
 15440               	.LFE146:
 15442               	.global	Light_returnColor
 15444               	Light_returnColor:
 15445               	.LFB147:
 15446               	.LM1615:
 15447               	.LVL1316:
 15448               	/* prologue: function */
 15449               	/* frame size = 0 */
 15450               	.LM1616:
 15451 55ee E82F      		mov r30,r24
 15452 55f0 F0E0      		ldi r31,lo8(0)
 15453 55f2 EE0F      		lsl r30
 15454 55f4 FF1F      		rol r31
 15455 55f6 E050      		subi r30,lo8(-(colors))
 15456 55f8 F040      		sbci r31,hi8(-(colors))
 15457               	.LM1617:
 15458 55fa 8081      		ld r24,Z
 15459               	.LVL1317:
 15460 55fc 9181      		ldd r25,Z+1
 15461               	/* epilogue start */
 15462 55fe 0895      		ret
 15463               	.LFE147:
 15465               	.global	Light_writeByte
 15467               	Light_writeByte:
 15468               	.LFB148:
 15469               	.LM1618:
 15470               	.LVL1318:
 15471               	/* prologue: function */
 15472               	/* frame size = 0 */
 15473               	.LM1619:
 15474 5600 9091 0000 		lds r25,deviceAddress
 15475 5604 9E7F      		andi r25,lo8(-2)
 15476 5606 9093 0000 		sts writeAddress,r25
 15477               	.LM1620:
 15478 560a 282F      		mov r18,r24
 15479 560c 2068      		ori r18,lo8(-128)
 15480 560e 2093 0000 		sts commandCode,r18
 15481               	.LM1621:
 15482 5612 E0E8      		ldi r30,lo8(1152)
 15483 5614 F4E0      		ldi r31,hi8(1152)
 15484 5616 9683      		std Z+6,r25
 15485               	.L954:
 15486               	.LM1622:
 15487 5618 8091 8404 		lds r24,1156
 15488               	.LVL1319:
 15489 561c 86FF      		sbrs r24,6
 15490 561e 00C0      		rjmp .L954
 15491               	.LM1623:
 15492 5620 E0E8      		ldi r30,lo8(1152)
 15493 5622 F4E0      		ldi r31,hi8(1152)
 15494 5624 2783      		std Z+7,r18
 15495               	.L955:
 15496               	.LM1624:
 15497 5626 8091 8404 		lds r24,1156
 15498 562a 86FF      		sbrs r24,6
 15499 562c 00C0      		rjmp .L955
 15500               	.LM1625:
 15501 562e E0E8      		ldi r30,lo8(1152)
 15502 5630 F4E0      		ldi r31,hi8(1152)
 15503 5632 6783      		std Z+7,r22
 15504               	.L956:
 15505               	.LM1626:
 15506 5634 8091 8404 		lds r24,1156
 15507 5638 86FF      		sbrs r24,6
 15508 563a 00C0      		rjmp .L956
 15509               	.LM1627:
 15510 563c 87E0      		ldi r24,lo8(7)
 15511 563e E0E8      		ldi r30,lo8(1152)
 15512 5640 F4E0      		ldi r31,hi8(1152)
 15513 5642 8383      		std Z+3,r24
 15514               	/* epilogue start */
 15515               	.LM1628:
 15516 5644 0895      		ret
 15517               	.LFE148:
 15519               	.global	Light_setGain
 15521               	Light_setGain:
 15522               	.LFB149:
 15523               	.LM1629:
 15524               	/* prologue: function */
 15525               	/* frame size = 0 */
 15526               	.LM1630:
 15527 5646 80E0      		ldi r24,lo8(0)
 15528 5648 61E0      		ldi r22,lo8(1)
 15529 564a 0E94 0000 		call Light_writeByte
 15530               	.LM1631:
 15531 564e 8091 0000 		lds r24,gainSelector
 15532 5652 E0E0      		ldi r30,lo8(integrationTime)
 15533 5654 F0E0      		ldi r31,hi8(integrationTime)
 15534 5656 E80F      		add r30,r24
 15535 5658 F11D      		adc r31,__zero_reg__
 15536 565a 81E0      		ldi r24,lo8(1)
 15537 565c 6081      		ld r22,Z
 15538 565e 0E94 0000 		call Light_writeByte
 15539               	.LM1632:
 15540 5662 8091 0000 		lds r24,gainSelector
 15541 5666 E0E0      		ldi r30,lo8(gainSetting)
 15542 5668 F0E0      		ldi r31,hi8(gainSetting)
 15543 566a E80F      		add r30,r24
 15544 566c F11D      		adc r31,__zero_reg__
 15545 566e 87E0      		ldi r24,lo8(7)
 15546 5670 6081      		ld r22,Z
 15547 5672 0E94 0000 		call Light_writeByte
 15548               	.LM1633:
 15549 5676 80E0      		ldi r24,lo8(0)
 15550 5678 63E0      		ldi r22,lo8(3)
 15551 567a 0E94 0000 		call Light_writeByte
 15552               	/* epilogue start */
 15553               	.LM1634:
 15554 567e 0895      		ret
 15555               	.LFE149:
 15557               	.global	Light_Init
 15559               	Light_Init:
 15560               	.LFB144:
 15561               	.LM1635:
 15562               	.LVL1320:
 15563               	/* prologue: function */
 15564               	/* frame size = 0 */
 15565               	.LM1636:
 15566 5680 8093 0000 		sts deviceAddress,r24
 15567               	.LM1637:
 15568 5684 E0E8      		ldi r30,lo8(1152)
 15569 5686 F4E0      		ldi r31,hi8(1152)
 15570 5688 88E0      		ldi r24,lo8(8)
 15571               	.LVL1321:
 15572 568a 8183      		std Z+1,r24
 15573               	.LM1638:
 15574 568c 84E0      		ldi r24,lo8(4)
 15575 568e 8383      		std Z+3,r24
 15576               	.LM1639:
 15577 5690 8DE0      		ldi r24,lo8(13)
 15578 5692 8583      		std Z+5,r24
 15579               	.LM1640:
 15580 5694 81E0      		ldi r24,lo8(1)
 15581 5696 8483      		std Z+4,r24
 15582               	.LM1641:
 15583 5698 1092 0000 		sts gainSelector,__zero_reg__
 15584               	.LM1642:
 15585 569c 0E94 0000 		call Light_setGain
 15586               	/* epilogue start */
 15587               	.LM1643:
 15588 56a0 0895      		ret
 15589               	.LFE144:
 15591               	.global	__vector_83
 15593               	__vector_83:
 15594               	.LFB142:
 15595               	.LM1644:
 15596 56a2 1F92      		push __zero_reg__
 15597 56a4 0F92      		push r0
 15598 56a6 0FB6      		in r0,__SREG__
 15599 56a8 0F92      		push r0
 15600 56aa 0BB6      		in r0,59-0
 15601 56ac 0F92      		push r0
 15602 56ae 1124      		clr __zero_reg__
 15603 56b0 6F92      		push r6
 15604 56b2 7F92      		push r7
 15605 56b4 8F92      		push r8
 15606 56b6 9F92      		push r9
 15607 56b8 AF92      		push r10
 15608 56ba BF92      		push r11
 15609 56bc CF92      		push r12
 15610 56be DF92      		push r13
 15611 56c0 EF92      		push r14
 15612 56c2 FF92      		push r15
 15613 56c4 0F93      		push r16
 15614 56c6 1F93      		push r17
 15615 56c8 2F93      		push r18
 15616 56ca 3F93      		push r19
 15617 56cc 4F93      		push r20
 15618 56ce 5F93      		push r21
 15619 56d0 6F93      		push r22
 15620 56d2 7F93      		push r23
 15621 56d4 8F93      		push r24
 15622 56d6 9F93      		push r25
 15623 56d8 AF93      		push r26
 15624 56da BF93      		push r27
 15625 56dc CF93      		push r28
 15626 56de DF93      		push r29
 15627 56e0 EF93      		push r30
 15628 56e2 FF93      		push r31
 15629               	/* prologue: Signal */
 15630               	/* frame size = 0 */
 15631               	.LM1645:
 15632 56e4 8091 0000 		lds r24,recording
 15633 56e8 8823      		tst r24
 15634 56ea 01F4      		brne .+2
 15635 56ec 00C0      		rjmp .L987
 15636               	.LM1646:
 15637 56ee 8091 0000 		lds r24,rtcBlockCounter
 15638 56f2 8F5F      		subi r24,lo8(-(1))
 15639 56f4 8093 0000 		sts rtcBlockCounter,r24
 15640               	.LM1647:
 15641 56f8 8823      		tst r24
 15642 56fa 01F4      		brne .L967
 15643               	.LM1648:
 15644 56fc 81E0      		ldi r24,lo8(1)
 15645 56fe 8093 0000 		sts okToSendRTCBlock,r24
 15646               	.L967:
 15647               	.LM1649:
 15648 5702 8091 0000 		lds r24,wantToRecordTemperature
 15649 5706 8823      		tst r24
 15650 5708 01F4      		brne .+2
 15651 570a 00C0      		rjmp .L968
 15652               	.LM1650:
 15653 570c 8091 0000 		lds r24,temperatureBufferToWriteTo
 15654 5710 8130      		cpi r24,lo8(1)
 15655 5712 01F4      		brne .L969
 15656               	.LM1651:
 15657 5714 8091 0000 		lds r24,temperatureBufferCounter
 15658 5718 8823      		tst r24
 15659 571a 01F4      		brne .L970
 15660               	.LM1652:
 15661 571c 0E94 0000 		call Time_Get32BitTimer
 15662 5720 6093 0000 		sts temperatureSampleStartTime1,r22
 15663 5724 7093 0000 		sts (temperatureSampleStartTime1)+1,r23
 15664 5728 8093 0000 		sts (temperatureSampleStartTime1)+2,r24
 15665 572c 9093 0000 		sts (temperatureSampleStartTime1)+3,r25
 15666               	.L970:
 15667               	.LM1653:
 15668 5730 8091 0000 		lds r24,temperatureBufferCounter
 15669 5734 C82F      		mov r28,r24
 15670 5736 D0E0      		ldi r29,lo8(0)
 15671 5738 0E94 0000 		call Sensors_ReadTemperature
 15672 573c CC0F      		lsl r28
 15673 573e DD1F      		rol r29
 15674 5740 C050      		subi r28,lo8(-(temperatureBuffer1))
 15675 5742 D040      		sbci r29,hi8(-(temperatureBuffer1))
 15676 5744 8883      		st Y,r24
 15677 5746 9983      		std Y+1,r25
 15678               	.LM1654:
 15679 5748 8091 0000 		lds r24,temperatureBufferCounter
 15680 574c 8F5F      		subi r24,lo8(-(1))
 15681 574e 8093 0000 		sts temperatureBufferCounter,r24
 15682               	.LM1655:
 15683 5752 8A30      		cpi r24,lo8(10)
 15684 5754 01F4      		brne .L968
 15685               	.LM1656:
 15686 5756 1092 0000 		sts temperatureBufferCounter,__zero_reg__
 15687               	.LM1657:
 15688 575a 82E0      		ldi r24,lo8(2)
 15689 575c 8093 0000 		sts temperatureBufferToWriteTo,r24
 15690               	.LM1658:
 15691 5760 81E0      		ldi r24,lo8(1)
 15692 5762 8093 0000 		sts okToSendTemperatureBuffer1,r24
 15693 5766 00C0      		rjmp .L968
 15694               	.L969:
 15695               	.LM1659:
 15696 5768 8230      		cpi r24,lo8(2)
 15697 576a 01F4      		brne .L968
 15698               	.LM1660:
 15699 576c 8091 0000 		lds r24,temperatureBufferCounter
 15700 5770 8823      		tst r24
 15701 5772 01F4      		brne .L971
 15702               	.LM1661:
 15703 5774 0E94 0000 		call Time_Get32BitTimer
 15704 5778 6093 0000 		sts temperatureSampleStartTime2,r22
 15705 577c 7093 0000 		sts (temperatureSampleStartTime2)+1,r23
 15706 5780 8093 0000 		sts (temperatureSampleStartTime2)+2,r24
 15707 5784 9093 0000 		sts (temperatureSampleStartTime2)+3,r25
 15708               	.L971:
 15709               	.LM1662:
 15710 5788 8091 0000 		lds r24,temperatureBufferCounter
 15711 578c C82F      		mov r28,r24
 15712 578e D0E0      		ldi r29,lo8(0)
 15713 5790 0E94 0000 		call Sensors_ReadTemperature
 15714 5794 CC0F      		lsl r28
 15715 5796 DD1F      		rol r29
 15716 5798 C050      		subi r28,lo8(-(temperatureBuffer2))
 15717 579a D040      		sbci r29,hi8(-(temperatureBuffer2))
 15718 579c 8883      		st Y,r24
 15719 579e 9983      		std Y+1,r25
 15720               	.LM1663:
 15721 57a0 8091 0000 		lds r24,temperatureBufferCounter
 15722 57a4 8F5F      		subi r24,lo8(-(1))
 15723 57a6 8093 0000 		sts temperatureBufferCounter,r24
 15724               	.LM1664:
 15725 57aa 8A30      		cpi r24,lo8(10)
 15726 57ac 01F4      		brne .L968
 15727               	.LM1665:
 15728 57ae 1092 0000 		sts temperatureBufferCounter,__zero_reg__
 15729               	.LM1666:
 15730 57b2 81E0      		ldi r24,lo8(1)
 15731 57b4 8093 0000 		sts temperatureBufferToWriteTo,r24
 15732               	.LM1667:
 15733 57b8 8093 0000 		sts okToSendTemperatureBuffer2,r24
 15734               	.L968:
 15735               	.LM1668:
 15736 57bc 8091 0000 		lds r24,wantToRecordHumidity
 15737 57c0 8823      		tst r24
 15738 57c2 01F4      		brne .+2
 15739 57c4 00C0      		rjmp .L972
 15740               	.LM1669:
 15741 57c6 8091 0000 		lds r24,humidityBufferToWriteTo
 15742 57ca 8130      		cpi r24,lo8(1)
 15743 57cc 01F4      		brne .L973
 15744               	.LM1670:
 15745 57ce 8091 0000 		lds r24,humidityBufferCounter
 15746 57d2 8823      		tst r24
 15747 57d4 01F4      		brne .L974
 15748               	.LM1671:
 15749 57d6 0E94 0000 		call Time_Get32BitTimer
 15750 57da 6093 0000 		sts humiditySampleStartTime1,r22
 15751 57de 7093 0000 		sts (humiditySampleStartTime1)+1,r23
 15752 57e2 8093 0000 		sts (humiditySampleStartTime1)+2,r24
 15753 57e6 9093 0000 		sts (humiditySampleStartTime1)+3,r25
 15754               	.L974:
 15755               	.LM1672:
 15756 57ea 8091 0000 		lds r24,humidityBufferCounter
 15757 57ee C82F      		mov r28,r24
 15758 57f0 D0E0      		ldi r29,lo8(0)
 15759 57f2 0E94 0000 		call Sensors_ReadHumidity
 15760 57f6 C050      		subi r28,lo8(-(humidityBuffer1))
 15761 57f8 D040      		sbci r29,hi8(-(humidityBuffer1))
 15762 57fa 8883      		st Y,r24
 15763               	.LM1673:
 15764 57fc 8091 0000 		lds r24,humidityBufferCounter
 15765 5800 8F5F      		subi r24,lo8(-(1))
 15766 5802 8093 0000 		sts humidityBufferCounter,r24
 15767               	.LM1674:
 15768 5806 8A30      		cpi r24,lo8(10)
 15769 5808 01F4      		brne .L972
 15770               	.LM1675:
 15771 580a 1092 0000 		sts humidityBufferCounter,__zero_reg__
 15772               	.LM1676:
 15773 580e 82E0      		ldi r24,lo8(2)
 15774 5810 8093 0000 		sts humidityBufferToWriteTo,r24
 15775               	.LM1677:
 15776 5814 81E0      		ldi r24,lo8(1)
 15777 5816 8093 0000 		sts okToSendHumidityBuffer1,r24
 15778 581a 00C0      		rjmp .L972
 15779               	.L973:
 15780               	.LM1678:
 15781 581c 8230      		cpi r24,lo8(2)
 15782 581e 01F4      		brne .L972
 15783               	.LM1679:
 15784 5820 8091 0000 		lds r24,humidityBufferCounter
 15785 5824 8823      		tst r24
 15786 5826 01F4      		brne .L975
 15787               	.LM1680:
 15788 5828 0E94 0000 		call Time_Get32BitTimer
 15789 582c 6093 0000 		sts humiditySampleStartTime2,r22
 15790 5830 7093 0000 		sts (humiditySampleStartTime2)+1,r23
 15791 5834 8093 0000 		sts (humiditySampleStartTime2)+2,r24
 15792 5838 9093 0000 		sts (humiditySampleStartTime2)+3,r25
 15793               	.L975:
 15794               	.LM1681:
 15795 583c 8091 0000 		lds r24,humidityBufferCounter
 15796 5840 C82F      		mov r28,r24
 15797 5842 D0E0      		ldi r29,lo8(0)
 15798 5844 0E94 0000 		call Sensors_ReadHumidity
 15799 5848 C050      		subi r28,lo8(-(humidityBuffer2))
 15800 584a D040      		sbci r29,hi8(-(humidityBuffer2))
 15801 584c 8883      		st Y,r24
 15802               	.LM1682:
 15803 584e 8091 0000 		lds r24,humidityBufferCounter
 15804 5852 8F5F      		subi r24,lo8(-(1))
 15805 5854 8093 0000 		sts humidityBufferCounter,r24
 15806               	.LM1683:
 15807 5858 8A30      		cpi r24,lo8(10)
 15808 585a 01F4      		brne .L972
 15809               	.LM1684:
 15810 585c 1092 0000 		sts humidityBufferCounter,__zero_reg__
 15811               	.LM1685:
 15812 5860 81E0      		ldi r24,lo8(1)
 15813 5862 8093 0000 		sts humidityBufferToWriteTo,r24
 15814               	.LM1686:
 15815 5866 8093 0000 		sts okToSendHumidityBuffer2,r24
 15816               	.L972:
 15817               	.LM1687:
 15818 586a 8091 0000 		lds r24,wantToRecordPressure
 15819 586e 8823      		tst r24
 15820 5870 01F4      		brne .+2
 15821 5872 00C0      		rjmp .L976
 15822               	.LM1688:
 15823 5874 8091 0000 		lds r24,pressureBufferToWriteTo
 15824 5878 8130      		cpi r24,lo8(1)
 15825 587a 01F4      		brne .L977
 15826               	.LM1689:
 15827 587c 8091 0000 		lds r24,pressureBufferCounter
 15828 5880 8823      		tst r24
 15829 5882 01F4      		brne .L978
 15830               	.LM1690:
 15831 5884 0E94 0000 		call Time_Get32BitTimer
 15832 5888 6093 0000 		sts pressureSampleStartTime1,r22
 15833 588c 7093 0000 		sts (pressureSampleStartTime1)+1,r23
 15834 5890 8093 0000 		sts (pressureSampleStartTime1)+2,r24
 15835 5894 9093 0000 		sts (pressureSampleStartTime1)+3,r25
 15836               	.L978:
 15837               	.LM1691:
 15838 5898 8091 0000 		lds r24,pressureBufferCounter
 15839 589c C82F      		mov r28,r24
 15840 589e D0E0      		ldi r29,lo8(0)
 15841 58a0 0E94 0000 		call Sensors_ReadPressure
 15842 58a4 C050      		subi r28,lo8(-(pressureBuffer1))
 15843 58a6 D040      		sbci r29,hi8(-(pressureBuffer1))
 15844 58a8 8883      		st Y,r24
 15845               	.LM1692:
 15846 58aa 8091 0000 		lds r24,pressureBufferCounter
 15847 58ae 8F5F      		subi r24,lo8(-(1))
 15848 58b0 8093 0000 		sts pressureBufferCounter,r24
 15849               	.LM1693:
 15850 58b4 8A30      		cpi r24,lo8(10)
 15851 58b6 01F4      		brne .L976
 15852               	.LM1694:
 15853 58b8 1092 0000 		sts pressureBufferCounter,__zero_reg__
 15854               	.LM1695:
 15855 58bc 82E0      		ldi r24,lo8(2)
 15856 58be 8093 0000 		sts pressureBufferToWriteTo,r24
 15857               	.LM1696:
 15858 58c2 81E0      		ldi r24,lo8(1)
 15859 58c4 8093 0000 		sts okToSendPressureBuffer1,r24
 15860 58c8 00C0      		rjmp .L976
 15861               	.L977:
 15862               	.LM1697:
 15863 58ca 8230      		cpi r24,lo8(2)
 15864 58cc 01F4      		brne .L976
 15865               	.LM1698:
 15866 58ce 8091 0000 		lds r24,pressureBufferCounter
 15867 58d2 8823      		tst r24
 15868 58d4 01F4      		brne .L979
 15869               	.LM1699:
 15870 58d6 0E94 0000 		call Time_Get32BitTimer
 15871 58da 6093 0000 		sts pressureSampleStartTime2,r22
 15872 58de 7093 0000 		sts (pressureSampleStartTime2)+1,r23
 15873 58e2 8093 0000 		sts (pressureSampleStartTime2)+2,r24
 15874 58e6 9093 0000 		sts (pressureSampleStartTime2)+3,r25
 15875               	.L979:
 15876               	.LM1700:
 15877 58ea 8091 0000 		lds r24,pressureBufferCounter
 15878 58ee C82F      		mov r28,r24
 15879 58f0 D0E0      		ldi r29,lo8(0)
 15880 58f2 0E94 0000 		call Sensors_ReadPressure
 15881 58f6 C050      		subi r28,lo8(-(pressureBuffer2))
 15882 58f8 D040      		sbci r29,hi8(-(pressureBuffer2))
 15883 58fa 8883      		st Y,r24
 15884               	.LM1701:
 15885 58fc 8091 0000 		lds r24,pressureBufferCounter
 15886 5900 8F5F      		subi r24,lo8(-(1))
 15887 5902 8093 0000 		sts pressureBufferCounter,r24
 15888               	.LM1702:
 15889 5906 8A30      		cpi r24,lo8(10)
 15890 5908 01F4      		brne .L976
 15891               	.LM1703:
 15892 590a 1092 0000 		sts pressureBufferCounter,__zero_reg__
 15893               	.LM1704:
 15894 590e 81E0      		ldi r24,lo8(1)
 15895 5910 8093 0000 		sts pressureBufferToWriteTo,r24
 15896               	.LM1705:
 15897 5914 8093 0000 		sts okToSendPressureBuffer2,r24
 15898               	.L976:
 15899               	.LM1706:
 15900 5918 8091 0000 		lds r24,wantToRecordLight
 15901 591c 8823      		tst r24
 15902 591e 01F4      		brne .+2
 15903 5920 00C0      		rjmp .L987
 15904               	.LM1707:
 15905 5922 0E94 0000 		call Light_readColors
 15906               	.LM1708:
 15907 5926 0E94 0000 		call Light_readColors
 15908               	.LM1709:
 15909 592a 0E94 0000 		call Light_readColors
 15910               	.LBB866:
 15911               	.LBB867:
 15912               	.LM1710:
 15913 592e E091 0000 		lds r30,gainSelector
 15914 5932 F0E0      		ldi r31,lo8(0)
 15915 5934 EE0F      		lsl r30
 15916 5936 FF1F      		rol r31
 15917 5938 EE0F      		lsl r30
 15918 593a FF1F      		rol r31
 15919 593c E050      		subi r30,lo8(-(resultMultiplier))
 15920 593e F040      		sbci r31,hi8(-(resultMultiplier))
 15921 5940 A080      		ld r10,Z
 15922 5942 B180      		ldd r11,Z+1
 15923 5944 C280      		ldd r12,Z+2
 15924 5946 D380      		ldd r13,Z+3
 15925 5948 E0E0      		ldi r30,lo8(result)
 15926 594a F0E0      		ldi r31,hi8(result)
 15927 594c C0E0      		ldi r28,lo8(colors)
 15928 594e D0E0      		ldi r29,hi8(colors)
 15929               	.L981:
 15930               	.LBE867:
 15931               	.LM1711:
 15932 5950 1082      		st Z,__zero_reg__
 15933 5952 1182      		std Z+1,__zero_reg__
 15934 5954 1282      		std Z+2,__zero_reg__
 15935 5956 1382      		std Z+3,__zero_reg__
 15936               	.LBB868:
 15937               	.LM1712:
 15938 5958 8881      		ld r24,Y
 15939 595a 9981      		ldd r25,Y+1
 15940 595c 3C01      		movw r6,r24
 15941 595e 8824      		clr r8
 15942 5960 9924      		clr r9
 15943 5962 EE24      		clr r14
 15944 5964 FF24      		clr r15
 15945 5966 8701      		movw r16,r14
 15946 5968 A601      		movw r20,r12
 15947 596a 9501      		movw r18,r10
 15948               	.L980:
 15949 596c E60C      		add r14,r6
 15950 596e F71C      		adc r15,r7
 15951 5970 081D      		adc r16,r8
 15952 5972 191D      		adc r17,r9
 15953 5974 2A0D      		add r18,r10
 15954 5976 3B1D      		adc r19,r11
 15955 5978 4C1D      		adc r20,r12
 15956 597a 5D1D      		adc r21,r13
 15957               	.LM1713:
 15958 597c DA01      		movw r26,r20
 15959 597e C901      		movw r24,r18
 15960 5980 8A19      		sub r24,r10
 15961 5982 9B09      		sbc r25,r11
 15962 5984 AC09      		sbc r26,r12
 15963 5986 BD09      		sbc r27,r13
 15964 5988 8050      		subi r24,lo8(76800)
 15965 598a 9C42      		sbci r25,hi8(76800)
 15966 598c A140      		sbci r26,hlo8(76800)
 15967 598e B040      		sbci r27,hhi8(76800)
 15968 5990 00F0      		brlo .L980
 15969 5992 E192      		st Z+,r14
 15970 5994 F192      		st Z+,r15
 15971 5996 0193      		st Z+,r16
 15972 5998 1193      		st Z+,r17
 15973 599a 2296      		adiw r28,2
 15974               	.LBE868:
 15975               	.LM1714:
 15976 599c 80E0      		ldi r24,hi8(result+16)
 15977 599e E030      		cpi r30,lo8(result+16)
 15978 59a0 F807      		cpc r31,r24
 15979 59a2 01F4      		brne .L981
 15980               	.LBE866:
 15981               	.LM1715:
 15982 59a4 8091 0000 		lds r24,lightBufferToWriteTo
 15983 59a8 8130      		cpi r24,lo8(1)
 15984 59aa 01F0      		breq .+2
 15985 59ac 00C0      		rjmp .L982
 15986               	.LM1716:
 15987 59ae 8091 0000 		lds r24,lightBufferCounter
 15988 59b2 8823      		tst r24
 15989 59b4 01F4      		brne .L983
 15990               	.LM1717:
 15991 59b6 0E94 0000 		call Time_Get32BitTimer
 15992 59ba 6093 0000 		sts lightSampleStartTime1,r22
 15993 59be 7093 0000 		sts (lightSampleStartTime1)+1,r23
 15994 59c2 8093 0000 		sts (lightSampleStartTime1)+2,r24
 15995 59c6 9093 0000 		sts (lightSampleStartTime1)+3,r25
 15996               	.L983:
 15997               	.LM1718:
 15998 59ca 2091 0000 		lds r18,lightBufferCounter
 15999 59ce E22F      		mov r30,r18
 16000 59d0 F0E0      		ldi r31,lo8(0)
 16001 59d2 EE0F      		lsl r30
 16002 59d4 FF1F      		rol r31
 16003 59d6 EE0F      		lsl r30
 16004 59d8 FF1F      		rol r31
 16005 59da E050      		subi r30,lo8(-(lightBuffer1))
 16006 59dc F040      		sbci r31,hi8(-(lightBuffer1))
 16007 59de 8091 0000 		lds r24,result
 16008 59e2 9091 0000 		lds r25,(result)+1
 16009 59e6 A091 0000 		lds r26,(result)+2
 16010 59ea B091 0000 		lds r27,(result)+3
 16011 59ee 8083      		st Z,r24
 16012 59f0 9183      		std Z+1,r25
 16013 59f2 A283      		std Z+2,r26
 16014 59f4 B383      		std Z+3,r27
 16015               	.LM1719:
 16016 59f6 2F5F      		subi r18,lo8(-(1))
 16017               	.LM1720:
 16018 59f8 E22F      		mov r30,r18
 16019 59fa F0E0      		ldi r31,lo8(0)
 16020 59fc EE0F      		lsl r30
 16021 59fe FF1F      		rol r31
 16022 5a00 EE0F      		lsl r30
 16023 5a02 FF1F      		rol r31
 16024 5a04 E050      		subi r30,lo8(-(lightBuffer1))
 16025 5a06 F040      		sbci r31,hi8(-(lightBuffer1))
 16026 5a08 8091 0000 		lds r24,result+4
 16027 5a0c 9091 0000 		lds r25,(result+4)+1
 16028 5a10 A091 0000 		lds r26,(result+4)+2
 16029 5a14 B091 0000 		lds r27,(result+4)+3
 16030 5a18 8083      		st Z,r24
 16031 5a1a 9183      		std Z+1,r25
 16032 5a1c A283      		std Z+2,r26
 16033 5a1e B383      		std Z+3,r27
 16034               	.LM1721:
 16035 5a20 2F5F      		subi r18,lo8(-(1))
 16036               	.LM1722:
 16037 5a22 E22F      		mov r30,r18
 16038 5a24 F0E0      		ldi r31,lo8(0)
 16039 5a26 EE0F      		lsl r30
 16040 5a28 FF1F      		rol r31
 16041 5a2a EE0F      		lsl r30
 16042 5a2c FF1F      		rol r31
 16043 5a2e E050      		subi r30,lo8(-(lightBuffer1))
 16044 5a30 F040      		sbci r31,hi8(-(lightBuffer1))
 16045 5a32 8091 0000 		lds r24,result+8
 16046 5a36 9091 0000 		lds r25,(result+8)+1
 16047 5a3a A091 0000 		lds r26,(result+8)+2
 16048 5a3e B091 0000 		lds r27,(result+8)+3
 16049 5a42 8083      		st Z,r24
 16050 5a44 9183      		std Z+1,r25
 16051 5a46 A283      		std Z+2,r26
 16052 5a48 B383      		std Z+3,r27
 16053               	.LM1723:
 16054 5a4a 2F5F      		subi r18,lo8(-(1))
 16055               	.LM1724:
 16056 5a4c E22F      		mov r30,r18
 16057 5a4e F0E0      		ldi r31,lo8(0)
 16058 5a50 EE0F      		lsl r30
 16059 5a52 FF1F      		rol r31
 16060 5a54 EE0F      		lsl r30
 16061 5a56 FF1F      		rol r31
 16062 5a58 E050      		subi r30,lo8(-(lightBuffer1))
 16063 5a5a F040      		sbci r31,hi8(-(lightBuffer1))
 16064 5a5c 8091 0000 		lds r24,result+12
 16065 5a60 9091 0000 		lds r25,(result+12)+1
 16066 5a64 A091 0000 		lds r26,(result+12)+2
 16067 5a68 B091 0000 		lds r27,(result+12)+3
 16068 5a6c 8083      		st Z,r24
 16069 5a6e 9183      		std Z+1,r25
 16070 5a70 A283      		std Z+2,r26
 16071 5a72 B383      		std Z+3,r27
 16072               	.LM1725:
 16073 5a74 2F5F      		subi r18,lo8(-(1))
 16074 5a76 2093 0000 		sts lightBufferCounter,r18
 16075               	.LM1726:
 16076 5a7a 2832      		cpi r18,lo8(40)
 16077 5a7c 01F0      		breq .+2
 16078 5a7e 00C0      		rjmp .L984
 16079               	.LM1727:
 16080 5a80 1092 0000 		sts lightBufferCounter,__zero_reg__
 16081               	.LM1728:
 16082 5a84 82E0      		ldi r24,lo8(2)
 16083 5a86 8093 0000 		sts lightBufferToWriteTo,r24
 16084               	.LM1729:
 16085 5a8a 81E0      		ldi r24,lo8(1)
 16086 5a8c 8093 0000 		sts okToSendLightBuffer1,r24
 16087 5a90 00C0      		rjmp .L984
 16088               	.L982:
 16089               	.LM1730:
 16090 5a92 8230      		cpi r24,lo8(2)
 16091 5a94 01F0      		breq .+2
 16092 5a96 00C0      		rjmp .L984
 16093               	.LM1731:
 16094 5a98 8091 0000 		lds r24,lightBufferCounter
 16095 5a9c 8823      		tst r24
 16096 5a9e 01F4      		brne .L985
 16097               	.LM1732:
 16098 5aa0 0E94 0000 		call Time_Get32BitTimer
 16099 5aa4 6093 0000 		sts lightSampleStartTime2,r22
 16100 5aa8 7093 0000 		sts (lightSampleStartTime2)+1,r23
 16101 5aac 8093 0000 		sts (lightSampleStartTime2)+2,r24
 16102 5ab0 9093 0000 		sts (lightSampleStartTime2)+3,r25
 16103               	.L985:
 16104               	.LM1733:
 16105 5ab4 2091 0000 		lds r18,lightBufferCounter
 16106 5ab8 E22F      		mov r30,r18
 16107 5aba F0E0      		ldi r31,lo8(0)
 16108 5abc EE0F      		lsl r30
 16109 5abe FF1F      		rol r31
 16110 5ac0 EE0F      		lsl r30
 16111 5ac2 FF1F      		rol r31
 16112 5ac4 E050      		subi r30,lo8(-(lightBuffer2))
 16113 5ac6 F040      		sbci r31,hi8(-(lightBuffer2))
 16114 5ac8 8091 0000 		lds r24,result
 16115 5acc 9091 0000 		lds r25,(result)+1
 16116 5ad0 A091 0000 		lds r26,(result)+2
 16117 5ad4 B091 0000 		lds r27,(result)+3
 16118 5ad8 8083      		st Z,r24
 16119 5ada 9183      		std Z+1,r25
 16120 5adc A283      		std Z+2,r26
 16121 5ade B383      		std Z+3,r27
 16122               	.LM1734:
 16123 5ae0 2F5F      		subi r18,lo8(-(1))
 16124               	.LM1735:
 16125 5ae2 E22F      		mov r30,r18
 16126 5ae4 F0E0      		ldi r31,lo8(0)
 16127 5ae6 EE0F      		lsl r30
 16128 5ae8 FF1F      		rol r31
 16129 5aea EE0F      		lsl r30
 16130 5aec FF1F      		rol r31
 16131 5aee E050      		subi r30,lo8(-(lightBuffer2))
 16132 5af0 F040      		sbci r31,hi8(-(lightBuffer2))
 16133 5af2 8091 0000 		lds r24,result+4
 16134 5af6 9091 0000 		lds r25,(result+4)+1
 16135 5afa A091 0000 		lds r26,(result+4)+2
 16136 5afe B091 0000 		lds r27,(result+4)+3
 16137 5b02 8083      		st Z,r24
 16138 5b04 9183      		std Z+1,r25
 16139 5b06 A283      		std Z+2,r26
 16140 5b08 B383      		std Z+3,r27
 16141               	.LM1736:
 16142 5b0a 2F5F      		subi r18,lo8(-(1))
 16143               	.LM1737:
 16144 5b0c E22F      		mov r30,r18
 16145 5b0e F0E0      		ldi r31,lo8(0)
 16146 5b10 EE0F      		lsl r30
 16147 5b12 FF1F      		rol r31
 16148 5b14 EE0F      		lsl r30
 16149 5b16 FF1F      		rol r31
 16150 5b18 E050      		subi r30,lo8(-(lightBuffer2))
 16151 5b1a F040      		sbci r31,hi8(-(lightBuffer2))
 16152 5b1c 8091 0000 		lds r24,result+8
 16153 5b20 9091 0000 		lds r25,(result+8)+1
 16154 5b24 A091 0000 		lds r26,(result+8)+2
 16155 5b28 B091 0000 		lds r27,(result+8)+3
 16156 5b2c 8083      		st Z,r24
 16157 5b2e 9183      		std Z+1,r25
 16158 5b30 A283      		std Z+2,r26
 16159 5b32 B383      		std Z+3,r27
 16160               	.LM1738:
 16161 5b34 2F5F      		subi r18,lo8(-(1))
 16162               	.LM1739:
 16163 5b36 E22F      		mov r30,r18
 16164 5b38 F0E0      		ldi r31,lo8(0)
 16165 5b3a EE0F      		lsl r30
 16166 5b3c FF1F      		rol r31
 16167 5b3e EE0F      		lsl r30
 16168 5b40 FF1F      		rol r31
 16169 5b42 E050      		subi r30,lo8(-(lightBuffer2))
 16170 5b44 F040      		sbci r31,hi8(-(lightBuffer2))
 16171 5b46 8091 0000 		lds r24,result+12
 16172 5b4a 9091 0000 		lds r25,(result+12)+1
 16173 5b4e A091 0000 		lds r26,(result+12)+2
 16174 5b52 B091 0000 		lds r27,(result+12)+3
 16175 5b56 8083      		st Z,r24
 16176 5b58 9183      		std Z+1,r25
 16177 5b5a A283      		std Z+2,r26
 16178 5b5c B383      		std Z+3,r27
 16179               	.LM1740:
 16180 5b5e 2F5F      		subi r18,lo8(-(1))
 16181 5b60 2093 0000 		sts lightBufferCounter,r18
 16182               	.LM1741:
 16183 5b64 2832      		cpi r18,lo8(40)
 16184 5b66 01F4      		brne .L984
 16185               	.LM1742:
 16186 5b68 1092 0000 		sts lightBufferCounter,__zero_reg__
 16187               	.LM1743:
 16188 5b6c 81E0      		ldi r24,lo8(1)
 16189 5b6e 8093 0000 		sts lightBufferToWriteTo,r24
 16190               	.LM1744:
 16191 5b72 8093 0000 		sts okToSendLightBuffer2,r24
 16192               	.L984:
 16193               	.LBB869:
 16194               	.LBB870:
 16195               	.LM1745:
 16196 5b76 2091 0000 		lds r18,colors+6
 16197 5b7a 3091 0000 		lds r19,(colors+6)+1
 16198               	.LBE870:
 16199               	.LBE869:
 16200               	.LM1746:
 16201 5b7e 6FEB      		ldi r22,hi8(-16535)
 16202 5b80 2936      		cpi r18,lo8(-16535)
 16203 5b82 3607      		cpc r19,r22
 16204 5b84 00F0      		brlo .L986
 16205 5b86 8091 0000 		lds r24,gainSelector
 16206 5b8a 8823      		tst r24
 16207 5b8c 01F0      		breq .L986
 16208               	.LM1747:
 16209 5b8e 8150      		subi r24,lo8(-(-1))
 16210 5b90 00C0      		rjmp .L990
 16211               	.L986:
 16212               	.LM1748:
 16213 5b92 2058      		subi r18,lo8(16000)
 16214 5b94 3E43      		sbci r19,hi8(16000)
 16215 5b96 00F4      		brsh .L987
 16216 5b98 8091 0000 		lds r24,gainSelector
 16217 5b9c 8830      		cpi r24,lo8(8)
 16218 5b9e 01F0      		breq .L987
 16219               	.LM1749:
 16220 5ba0 8F5F      		subi r24,lo8(-(1))
 16221               	.L990:
 16222 5ba2 8093 0000 		sts gainSelector,r24
 16223               	.LM1750:
 16224 5ba6 0E94 0000 		call Light_setGain
 16225               	.L987:
 16226               	/* epilogue start */
 16227               	.LM1751:
 16228 5baa FF91      		pop r31
 16229 5bac EF91      		pop r30
 16230 5bae DF91      		pop r29
 16231 5bb0 CF91      		pop r28
 16232 5bb2 BF91      		pop r27
 16233 5bb4 AF91      		pop r26
 16234 5bb6 9F91      		pop r25
 16235 5bb8 8F91      		pop r24
 16236 5bba 7F91      		pop r23
 16237 5bbc 6F91      		pop r22
 16238 5bbe 5F91      		pop r21
 16239 5bc0 4F91      		pop r20
 16240 5bc2 3F91      		pop r19
 16241 5bc4 2F91      		pop r18
 16242 5bc6 1F91      		pop r17
 16243 5bc8 0F91      		pop r16
 16244 5bca FF90      		pop r15
 16245 5bcc EF90      		pop r14
 16246 5bce DF90      		pop r13
 16247 5bd0 CF90      		pop r12
 16248 5bd2 BF90      		pop r11
 16249 5bd4 AF90      		pop r10
 16250 5bd6 9F90      		pop r9
 16251 5bd8 8F90      		pop r8
 16252 5bda 7F90      		pop r7
 16253 5bdc 6F90      		pop r6
 16254 5bde 0F90      		pop r0
 16255 5be0 0BBE      		out 59-0,r0
 16256 5be2 0F90      		pop r0
 16257 5be4 0FBE      		out __SREG__,r0
 16258 5be6 0F90      		pop r0
 16259 5be8 1F90      		pop __zero_reg__
 16260 5bea 1895      		reti
 16261               	.LFE142:
 16263               	.global	RTC_UTCSecsToTime
 16265               	RTC_UTCSecsToTime:
 16266               	.LFB151:
 16267               	.LM1752:
 16268               	.LVL1322:
 16269 5bec 8F92      		push r8
 16270 5bee 9F92      		push r9
 16271 5bf0 AF92      		push r10
 16272 5bf2 BF92      		push r11
 16273 5bf4 CF92      		push r12
 16274 5bf6 DF92      		push r13
 16275 5bf8 EF92      		push r14
 16276 5bfa FF92      		push r15
 16277 5bfc 0F93      		push r16
 16278 5bfe 1F93      		push r17
 16279 5c00 CF93      		push r28
 16280 5c02 DF93      		push r29
 16281               	/* prologue: function */
 16282               	/* frame size = 0 */
 16283 5c04 7B01      		movw r14,r22
 16284 5c06 8C01      		movw r16,r24
 16285 5c08 EA01      		movw r28,r20
 16286               	.LM1753:
 16287 5c0a 2CE3      		ldi r18,lo8(60)
 16288 5c0c 30E0      		ldi r19,hi8(60)
 16289 5c0e 40E0      		ldi r20,hlo8(60)
 16290 5c10 50E0      		ldi r21,hhi8(60)
 16291 5c12 0E94 0000 		call __udivmodsi4
 16292               	.LVL1323:
 16293 5c16 6983      		std Y+1,r22
 16294               	.LM1754:
 16295 5c18 C801      		movw r24,r16
 16296 5c1a B701      		movw r22,r14
 16297 5c1c 2CE3      		ldi r18,lo8(60)
 16298 5c1e 30E0      		ldi r19,hi8(60)
 16299 5c20 40E0      		ldi r20,hlo8(60)
 16300 5c22 50E0      		ldi r21,hhi8(60)
 16301 5c24 0E94 0000 		call __udivmodsi4
 16302 5c28 122F      		mov r17,r18
 16303 5c2a 032F      		mov r16,r19
 16304 5c2c F42E      		mov r15,r20
 16305               	.LVL1324:
 16306 5c2e E52E      		mov r14,r21
 16307               	.LVL1325:
 16308               	.LM1755:
 16309 5c30 622F      		mov r22,r18
 16310 5c32 732F      		mov r23,r19
 16311 5c34 842F      		mov r24,r20
 16312 5c36 952F      		mov r25,r21
 16313 5c38 2CE3      		ldi r18,lo8(60)
 16314 5c3a 30E0      		ldi r19,hi8(60)
 16315 5c3c 40E0      		ldi r20,hlo8(60)
 16316 5c3e 50E0      		ldi r21,hhi8(60)
 16317 5c40 0E94 0000 		call __udivmodsi4
 16318 5c44 6A83      		std Y+2,r22
 16319               	.LM1756:
 16320 5c46 612F      		mov r22,r17
 16321 5c48 702F      		mov r23,r16
 16322 5c4a 8F2D      		mov r24,r15
 16323 5c4c 9E2D      		mov r25,r14
 16324 5c4e 2CE3      		ldi r18,lo8(60)
 16325 5c50 30E0      		ldi r19,hi8(60)
 16326 5c52 40E0      		ldi r20,hlo8(60)
 16327 5c54 50E0      		ldi r21,hhi8(60)
 16328 5c56 0E94 0000 		call __udivmodsi4
 16329 5c5a 122F      		mov r17,r18
 16330 5c5c 032F      		mov r16,r19
 16331 5c5e F42E      		mov r15,r20
 16332 5c60 E52E      		mov r14,r21
 16333               	.LM1757:
 16334 5c62 622F      		mov r22,r18
 16335 5c64 732F      		mov r23,r19
 16336 5c66 842F      		mov r24,r20
 16337 5c68 952F      		mov r25,r21
 16338 5c6a 28E1      		ldi r18,lo8(24)
 16339 5c6c 30E0      		ldi r19,hi8(24)
 16340 5c6e 40E0      		ldi r20,hlo8(24)
 16341 5c70 50E0      		ldi r21,hhi8(24)
 16342 5c72 0E94 0000 		call __udivmodsi4
 16343 5c76 6B83      		std Y+3,r22
 16344               	.LM1758:
 16345 5c78 612F      		mov r22,r17
 16346 5c7a 702F      		mov r23,r16
 16347 5c7c 8F2D      		mov r24,r15
 16348 5c7e 9E2D      		mov r25,r14
 16349 5c80 28E1      		ldi r18,lo8(24)
 16350 5c82 30E0      		ldi r19,hi8(24)
 16351 5c84 40E0      		ldi r20,hlo8(24)
 16352 5c86 50E0      		ldi r21,hhi8(24)
 16353 5c88 0E94 0000 		call __udivmodsi4
 16354 5c8c 7901      		movw r14,r18
 16355 5c8e 8A01      		movw r16,r20
 16356               	.LM1759:
 16357 5c90 C801      		movw r24,r16
 16358 5c92 B701      		movw r22,r14
 16359               	.LVL1326:
 16360 5c94 6C5F      		subi r22,lo8(-(4))
 16361 5c96 7F4F      		sbci r23,hi8(-(4))
 16362 5c98 8F4F      		sbci r24,hlo8(-(4))
 16363 5c9a 9F4F      		sbci r25,hhi8(-(4))
 16364 5c9c 27E0      		ldi r18,lo8(7)
 16365 5c9e 30E0      		ldi r19,hi8(7)
 16366 5ca0 40E0      		ldi r20,hlo8(7)
 16367 5ca2 50E0      		ldi r21,hhi8(7)
 16368 5ca4 0E94 0000 		call __udivmodsi4
 16369 5ca8 6F5F      		subi r22,lo8(-(1))
 16370 5caa 6C83      		std Y+4,r22
 16371 5cac 20E0      		ldi r18,lo8(0)
 16372               	.LVL1327:
 16373 5cae AA24      		clr r10
 16374 5cb0 BB24      		clr r11
 16375 5cb2 6501      		movw r12,r10
 16376               	.LVL1328:
 16377 5cb4 00C0      		rjmp .L992
 16378               	.LVL1329:
 16379               	.L996:
 16380               	.LM1760:
 16381 5cb6 2F5F      		subi r18,lo8(-(1))
 16382               	.LVL1330:
 16383               	.L992:
 16384               	.LM1761:
 16385 5cb8 822E      		mov r8,r18
 16386 5cba 9924      		clr r9
 16387 5cbc F401      		movw r30,r8
 16388 5cbe EE54      		subi r30,lo8(-(1970))
 16389 5cc0 F84F      		sbci r31,hi8(-(1970))
 16390 5cc2 CF01      		movw r24,r30
 16391 5cc4 8370      		andi r24,lo8(3)
 16392 5cc6 9070      		andi r25,hi8(3)
 16393 5cc8 892B      		or r24,r25
 16394 5cca 01F4      		brne .L993
 16395 5ccc CF01      		movw r24,r30
 16396 5cce 64E6      		ldi r22,lo8(100)
 16397 5cd0 70E0      		ldi r23,hi8(100)
 16398 5cd2 0E94 0000 		call __divmodhi4
 16399               	.LVL1331:
 16400 5cd6 892B      		or r24,r25
 16401 5cd8 01F4      		brne .L994
 16402 5cda CF01      		movw r24,r30
 16403 5cdc 60E9      		ldi r22,lo8(400)
 16404 5cde 71E0      		ldi r23,hi8(400)
 16405 5ce0 0E94 0000 		call __divmodhi4
 16406 5ce4 892B      		or r24,r25
 16407 5ce6 01F4      		brne .L993
 16408               	.L994:
 16409 5ce8 8EE6      		ldi r24,lo8(366)
 16410 5cea 91E0      		ldi r25,hi8(366)
 16411 5cec A0E0      		ldi r26,hlo8(366)
 16412 5cee B0E0      		ldi r27,hhi8(366)
 16413 5cf0 00C0      		rjmp .L995
 16414               	.LVL1332:
 16415               	.L993:
 16416 5cf2 8DE6      		ldi r24,lo8(365)
 16417 5cf4 91E0      		ldi r25,hi8(365)
 16418 5cf6 A0E0      		ldi r26,hlo8(365)
 16419 5cf8 B0E0      		ldi r27,hhi8(365)
 16420               	.L995:
 16421 5cfa A80E      		add r10,r24
 16422 5cfc B91E      		adc r11,r25
 16423 5cfe CA1E      		adc r12,r26
 16424 5d00 DB1E      		adc r13,r27
 16425 5d02 C501      		movw r24,r10
 16426 5d04 A0E0      		ldi r26,lo8(0)
 16427 5d06 B0E0      		ldi r27,hi8(0)
 16428 5d08 E816      		cp r14,r24
 16429 5d0a F906      		cpc r15,r25
 16430 5d0c 0A07      		cpc r16,r26
 16431 5d0e 1B07      		cpc r17,r27
 16432 5d10 00F4      		brsh .L996
 16433               	.LVL1333:
 16434               	.LM1762:
 16435 5d12 2F83      		std Y+7,r18
 16436               	.LM1763:
 16437 5d14 F401      		movw r30,r8
 16438 5d16 EE54      		subi r30,lo8(-(1970))
 16439 5d18 F84F      		sbci r31,hi8(-(1970))
 16440 5d1a A3E0      		ldi r26,lo8(3)
 16441 5d1c 8A2E      		mov r8,r26
 16442 5d1e 912C      		mov r9,__zero_reg__
 16443               	.LVL1334:
 16444 5d20 8E22      		and r8,r30
 16445 5d22 9F22      		and r9,r31
 16446 5d24 8114      		cp r8,__zero_reg__
 16447 5d26 9104      		cpc r9,__zero_reg__
 16448 5d28 01F4      		brne .L997
 16449 5d2a CF01      		movw r24,r30
 16450               	.LVL1335:
 16451 5d2c 64E6      		ldi r22,lo8(100)
 16452 5d2e 70E0      		ldi r23,hi8(100)
 16453 5d30 0E94 0000 		call __divmodhi4
 16454 5d34 892B      		or r24,r25
 16455 5d36 01F4      		brne .L998
 16456 5d38 CF01      		movw r24,r30
 16457 5d3a 60E9      		ldi r22,lo8(400)
 16458 5d3c 71E0      		ldi r23,hi8(400)
 16459 5d3e 0E94 0000 		call __divmodhi4
 16460 5d42 892B      		or r24,r25
 16461 5d44 01F4      		brne .L997
 16462               	.L998:
 16463 5d46 8EE6      		ldi r24,lo8(366)
 16464 5d48 91E0      		ldi r25,hi8(366)
 16465 5d4a A0E0      		ldi r26,hlo8(366)
 16466 5d4c B0E0      		ldi r27,hhi8(366)
 16467 5d4e 00C0      		rjmp .L999
 16468               	.LVL1336:
 16469               	.L997:
 16470 5d50 8DE6      		ldi r24,lo8(365)
 16471 5d52 91E0      		ldi r25,hi8(365)
 16472 5d54 A0E0      		ldi r26,hlo8(365)
 16473 5d56 B0E0      		ldi r27,hhi8(365)
 16474               	.L999:
 16475               	.LM1764:
 16476 5d58 A81A      		sub r10,r24
 16477 5d5a B90A      		sbc r11,r25
 16478 5d5c CA0A      		sbc r12,r26
 16479 5d5e DB0A      		sbc r13,r27
 16480 5d60 9801      		movw r18,r16
 16481 5d62 8701      		movw r16,r14
 16482 5d64 0A19      		sub r16,r10
 16483 5d66 1B09      		sbc r17,r11
 16484 5d68 2C09      		sbc r18,r12
 16485 5d6a 3D09      		sbc r19,r13
 16486               	.LVL1337:
 16487               	.LM1765:
 16488 5d6c CF01      		movw r24,r30
 16489 5d6e 64E6      		ldi r22,lo8(100)
 16490 5d70 70E0      		ldi r23,hi8(100)
 16491 5d72 0E94 0000 		call __divmodhi4
 16492 5d76 7C01      		movw r14,r24
 16493 5d78 CF01      		movw r24,r30
 16494 5d7a 60E9      		ldi r22,lo8(400)
 16495 5d7c 71E0      		ldi r23,hi8(400)
 16496 5d7e 0E94 0000 		call __divmodhi4
 16497 5d82 AC01      		movw r20,r24
 16498 5d84 E0E0      		ldi r30,lo8(monthDays)
 16499 5d86 F0E0      		ldi r31,hi8(monthDays)
 16500 5d88 60E0      		ldi r22,lo8(0)
 16501               	.LVL1338:
 16502               	.L1005:
 16503               	.LM1766:
 16504 5d8a 6130      		cpi r22,lo8(1)
 16505 5d8c 01F4      		brne .L1000
 16506               	.LM1767:
 16507 5d8e 8114      		cp r8,__zero_reg__
 16508 5d90 9104      		cpc r9,__zero_reg__
 16509 5d92 01F4      		brne .L1001
 16510 5d94 E114      		cp r14,__zero_reg__
 16511 5d96 F104      		cpc r15,__zero_reg__
 16512 5d98 01F4      		brne .L1002
 16513 5d9a 4115      		cp r20,__zero_reg__
 16514 5d9c 5105      		cpc r21,__zero_reg__
 16515 5d9e 01F0      		breq .L1002
 16516 5da0 00C0      		rjmp .L1001
 16517               	.L1000:
 16518               	.LM1768:
 16519 5da2 8081      		ld r24,Z
 16520               	.LVL1339:
 16521 5da4 00C0      		rjmp .L1003
 16522               	.LVL1340:
 16523               	.L1001:
 16524 5da6 8CE1      		ldi r24,lo8(28)
 16525               	.LVL1341:
 16526 5da8 00C0      		rjmp .L1003
 16527               	.LVL1342:
 16528               	.L1002:
 16529 5daa 8DE1      		ldi r24,lo8(29)
 16530               	.LVL1343:
 16531               	.L1003:
 16532               	.LM1769:
 16533 5dac 90E0      		ldi r25,lo8(0)
 16534 5dae A0E0      		ldi r26,lo8(0)
 16535 5db0 B0E0      		ldi r27,hi8(0)
 16536 5db2 0817      		cp r16,r24
 16537 5db4 1907      		cpc r17,r25
 16538 5db6 2A07      		cpc r18,r26
 16539 5db8 3B07      		cpc r19,r27
 16540               	.LVL1344:
 16541 5dba 00F0      		brlo .L1004
 16542               	.LM1770:
 16543 5dbc 081B      		sub r16,r24
 16544 5dbe 190B      		sbc r17,r25
 16545 5dc0 2A0B      		sbc r18,r26
 16546 5dc2 3B0B      		sbc r19,r27
 16547               	.LM1771:
 16548 5dc4 6F5F      		subi r22,lo8(-(1))
 16549 5dc6 3196      		adiw r30,1
 16550 5dc8 6C30      		cpi r22,lo8(12)
 16551 5dca 01F4      		brne .L1005
 16552               	.L1004:
 16553               	.LM1772:
 16554 5dcc 6F5F      		subi r22,lo8(-(1))
 16555 5dce 6E83      		std Y+6,r22
 16556               	.LM1773:
 16557 5dd0 802F      		mov r24,r16
 16558               	.LVL1345:
 16559 5dd2 8F5F      		subi r24,lo8(-(1))
 16560 5dd4 8D83      		std Y+5,r24
 16561               	.LM1774:
 16562 5dd6 CE01      		movw r24,r28
 16563               	.LVL1346:
 16564               	/* epilogue start */
 16565 5dd8 DF91      		pop r29
 16566 5dda CF91      		pop r28
 16567 5ddc 1F91      		pop r17
 16568 5dde 0F91      		pop r16
 16569 5de0 FF90      		pop r15
 16570 5de2 EF90      		pop r14
 16571 5de4 DF90      		pop r13
 16572 5de6 CF90      		pop r12
 16573 5de8 BF90      		pop r11
 16574 5dea AF90      		pop r10
 16575               	.LVL1347:
 16576 5dec 9F90      		pop r9
 16577 5dee 8F90      		pop r8
 16578 5df0 0895      		ret
 16579               	.LFE151:
 16581               	.global	RTC_TimeToUTCSecs
 16583               	RTC_TimeToUTCSecs:
 16584               	.LFB152:
 16585               	.LM1775:
 16586               	.LVL1348:
 16587 5df2 4F92      		push r4
 16588 5df4 5F92      		push r5
 16589 5df6 6F92      		push r6
 16590 5df8 7F92      		push r7
 16591 5dfa 8F92      		push r8
 16592 5dfc 9F92      		push r9
 16593 5dfe AF92      		push r10
 16594 5e00 BF92      		push r11
 16595 5e02 CF92      		push r12
 16596 5e04 DF92      		push r13
 16597 5e06 EF92      		push r14
 16598 5e08 FF92      		push r15
 16599 5e0a 0F93      		push r16
 16600 5e0c 1F93      		push r17
 16601 5e0e CF93      		push r28
 16602 5e10 DF93      		push r29
 16603               	/* prologue: function */
 16604               	/* frame size = 0 */
 16605 5e12 4C01      		movw r8,r24
 16606               	.LM1776:
 16607 5e14 DC01      		movw r26,r24
 16608 5e16 1796      		adiw r26,7
 16609 5e18 1C91      		ld r17,X
 16610 5e1a 612F      		mov r22,r17
 16611 5e1c 70E0      		ldi r23,lo8(0)
 16612 5e1e 80E0      		ldi r24,lo8(0)
 16613 5e20 90E0      		ldi r25,hi8(0)
 16614               	.LVL1349:
 16615 5e22 20E8      		ldi r18,lo8(31536000)
 16616 5e24 33E3      		ldi r19,hi8(31536000)
 16617 5e26 41EE      		ldi r20,hlo8(31536000)
 16618 5e28 51E0      		ldi r21,hhi8(31536000)
 16619 5e2a 0E94 0000 		call __mulsi3
 16620 5e2e 5B01      		movw r10,r22
 16621 5e30 6C01      		movw r12,r24
 16622               	.LVL1350:
 16623 5e32 22EB      		ldi r18,lo8(1970)
 16624 5e34 37E0      		ldi r19,hi8(1970)
 16625               	.LM1777:
 16626 5e36 E12F      		mov r30,r17
 16627 5e38 F0E0      		ldi r31,lo8(0)
 16628 5e3a EE54      		subi r30,lo8(-(1970))
 16629 5e3c F84F      		sbci r31,hi8(-(1970))
 16630 5e3e 00C0      		rjmp .L1009
 16631               	.L1012:
 16632               	.LM1778:
 16633 5e40 C901      		movw r24,r18
 16634 5e42 8370      		andi r24,lo8(3)
 16635 5e44 9070      		andi r25,hi8(3)
 16636 5e46 892B      		or r24,r25
 16637 5e48 01F4      		brne .L1010
 16638 5e4a C901      		movw r24,r18
 16639 5e4c 64E6      		ldi r22,lo8(100)
 16640 5e4e 70E0      		ldi r23,hi8(100)
 16641 5e50 0E94 0000 		call __divmodhi4
 16642 5e54 892B      		or r24,r25
 16643 5e56 01F4      		brne .L1011
 16644 5e58 C901      		movw r24,r18
 16645 5e5a 60E9      		ldi r22,lo8(400)
 16646 5e5c 71E0      		ldi r23,hi8(400)
 16647 5e5e 0E94 0000 		call __divmodhi4
 16648 5e62 892B      		or r24,r25
 16649 5e64 01F4      		brne .L1010
 16650               	.L1011:
 16651               	.LM1779:
 16652 5e66 80E8      		ldi r24,lo8(86400)
 16653 5e68 91E5      		ldi r25,hi8(86400)
 16654 5e6a A1E0      		ldi r26,hlo8(86400)
 16655 5e6c B0E0      		ldi r27,hhi8(86400)
 16656 5e6e A80E      		add r10,r24
 16657 5e70 B91E      		adc r11,r25
 16658 5e72 CA1E      		adc r12,r26
 16659 5e74 DB1E      		adc r13,r27
 16660               	.L1010:
 16661 5e76 2F5F      		subi r18,lo8(-(1))
 16662 5e78 3F4F      		sbci r19,hi8(-(1))
 16663               	.L1009:
 16664               	.LM1780:
 16665 5e7a 2E17      		cp r18,r30
 16666 5e7c 3F07      		cpc r19,r31
 16667 5e7e 01F4      		brne .L1012
 16668               	.LM1781:
 16669 5e80 D401      		movw r26,r8
 16670 5e82 1696      		adiw r26,6
 16671 5e84 8C91      		ld r24,X
 16672 5e86 482E      		mov r4,r24
 16673 5e88 5524      		clr r5
 16674               	.LM1782:
 16675 5e8a C901      		movw r24,r18
 16676 5e8c 64E6      		ldi r22,lo8(100)
 16677 5e8e 70E0      		ldi r23,hi8(100)
 16678 5e90 0E94 0000 		call __divmodhi4
 16679 5e94 7C01      		movw r14,r24
 16680 5e96 C901      		movw r24,r18
 16681 5e98 60E9      		ldi r22,lo8(400)
 16682 5e9a 71E0      		ldi r23,hi8(400)
 16683 5e9c 0E94 0000 		call __divmodhi4
 16684 5ea0 8C01      		movw r16,r24
 16685 5ea2 C1E0      		ldi r28,lo8(1)
 16686 5ea4 D0E0      		ldi r29,hi8(1)
 16687               	.LVL1351:
 16688 5ea6 B3E0      		ldi r27,lo8(3)
 16689 5ea8 6B2E      		mov r6,r27
 16690 5eaa 712C      		mov r7,__zero_reg__
 16691 5eac 6222      		and r6,r18
 16692 5eae 7322      		and r7,r19
 16693 5eb0 00C0      		rjmp .L1013
 16694               	.L1017:
 16695 5eb2 C230      		cpi r28,2
 16696 5eb4 D105      		cpc r29,__zero_reg__
 16697 5eb6 01F4      		brne .L1014
 16698 5eb8 6114      		cp r6,__zero_reg__
 16699 5eba 7104      		cpc r7,__zero_reg__
 16700 5ebc 01F4      		brne .L1014
 16701 5ebe E114      		cp r14,__zero_reg__
 16702 5ec0 F104      		cpc r15,__zero_reg__
 16703 5ec2 01F4      		brne .L1015
 16704 5ec4 0115      		cp r16,__zero_reg__
 16705 5ec6 1105      		cpc r17,__zero_reg__
 16706 5ec8 01F4      		brne .L1014
 16707               	.L1015:
 16708               	.LM1783:
 16709 5eca 80E8      		ldi r24,lo8(2505600)
 16710 5ecc 9BE3      		ldi r25,hi8(2505600)
 16711 5ece A6E2      		ldi r26,hlo8(2505600)
 16712 5ed0 B0E0      		ldi r27,hhi8(2505600)
 16713 5ed2 A80E      		add r10,r24
 16714 5ed4 B91E      		adc r11,r25
 16715 5ed6 CA1E      		adc r12,r26
 16716 5ed8 DB1E      		adc r13,r27
 16717 5eda 00C0      		rjmp .L1016
 16718               	.L1014:
 16719               	.LM1784:
 16720 5edc FE01      		movw r30,r28
 16721 5ede E050      		subi r30,lo8(-(monthDays-1))
 16722 5ee0 F040      		sbci r31,hi8(-(monthDays-1))
 16723 5ee2 6081      		ld r22,Z
 16724 5ee4 70E0      		ldi r23,lo8(0)
 16725 5ee6 80E0      		ldi r24,lo8(0)
 16726 5ee8 90E0      		ldi r25,hi8(0)
 16727 5eea 20E8      		ldi r18,lo8(86400)
 16728 5eec 31E5      		ldi r19,hi8(86400)
 16729 5eee 41E0      		ldi r20,hlo8(86400)
 16730 5ef0 50E0      		ldi r21,hhi8(86400)
 16731 5ef2 0E94 0000 		call __mulsi3
 16732 5ef6 A60E      		add r10,r22
 16733 5ef8 B71E      		adc r11,r23
 16734 5efa C81E      		adc r12,r24
 16735 5efc D91E      		adc r13,r25
 16736               	.L1016:
 16737               	.LM1785:
 16738 5efe 2196      		adiw r28,1
 16739               	.L1013:
 16740 5f00 C415      		cp r28,r4
 16741 5f02 D505      		cpc r29,r5
 16742 5f04 04F0      		brlt .L1017
 16743               	.LM1786:
 16744 5f06 D401      		movw r26,r8
 16745 5f08 1396      		adiw r26,3
 16746 5f0a 6C91      		ld r22,X
 16747 5f0c 70E0      		ldi r23,lo8(0)
 16748 5f0e 80E0      		ldi r24,lo8(0)
 16749 5f10 90E0      		ldi r25,hi8(0)
 16750 5f12 20E1      		ldi r18,lo8(3600)
 16751 5f14 3EE0      		ldi r19,hi8(3600)
 16752 5f16 40E0      		ldi r20,hlo8(3600)
 16753 5f18 50E0      		ldi r21,hhi8(3600)
 16754 5f1a 0E94 0000 		call __mulsi3
 16755 5f1e 7B01      		movw r14,r22
 16756 5f20 8C01      		movw r16,r24
 16757 5f22 F401      		movw r30,r8
 16758 5f24 6281      		ldd r22,Z+2
 16759 5f26 70E0      		ldi r23,lo8(0)
 16760 5f28 80E0      		ldi r24,lo8(0)
 16761 5f2a 90E0      		ldi r25,hi8(0)
 16762 5f2c 2CE3      		ldi r18,lo8(60)
 16763 5f2e 30E0      		ldi r19,hi8(60)
 16764 5f30 40E0      		ldi r20,hlo8(60)
 16765 5f32 50E0      		ldi r21,hhi8(60)
 16766 5f34 0E94 0000 		call __mulsi3
 16767 5f38 E60E      		add r14,r22
 16768 5f3a F71E      		adc r15,r23
 16769 5f3c 081F      		adc r16,r24
 16770 5f3e 191F      		adc r17,r25
 16771               	.LM1787:
 16772 5f40 D401      		movw r26,r8
 16773 5f42 1196      		adiw r26,1
 16774 5f44 8C91      		ld r24,X
 16775 5f46 1197      		sbiw r26,1
 16776 5f48 E80E      		add r14,r24
 16777 5f4a F11C      		adc r15,__zero_reg__
 16778 5f4c 011D      		adc r16,__zero_reg__
 16779 5f4e 111D      		adc r17,__zero_reg__
 16780               	.LM1788:
 16781 5f50 1596      		adiw r26,5
 16782 5f52 6C91      		ld r22,X
 16783 5f54 70E0      		ldi r23,lo8(0)
 16784 5f56 6150      		subi r22,lo8(-(-1))
 16785 5f58 7040      		sbci r23,hi8(-(-1))
 16786 5f5a 8827      		clr r24
 16787 5f5c 77FD      		sbrc r23,7
 16788 5f5e 8095      		com r24
 16789 5f60 982F      		mov r25,r24
 16790 5f62 20E8      		ldi r18,lo8(86400)
 16791 5f64 31E5      		ldi r19,hi8(86400)
 16792 5f66 41E0      		ldi r20,hlo8(86400)
 16793 5f68 50E0      		ldi r21,hhi8(86400)
 16794 5f6a 0E94 0000 		call __mulsi3
 16795 5f6e E60E      		add r14,r22
 16796 5f70 F71E      		adc r15,r23
 16797 5f72 081F      		adc r16,r24
 16798 5f74 191F      		adc r17,r25
 16799 5f76 EA0C      		add r14,r10
 16800 5f78 FB1C      		adc r15,r11
 16801 5f7a 0C1D      		adc r16,r12
 16802 5f7c 1D1D      		adc r17,r13
 16803               	.LM1789:
 16804 5f7e B701      		movw r22,r14
 16805 5f80 C801      		movw r24,r16
 16806               	/* epilogue start */
 16807 5f82 DF91      		pop r29
 16808 5f84 CF91      		pop r28
 16809               	.LVL1352:
 16810 5f86 1F91      		pop r17
 16811 5f88 0F91      		pop r16
 16812 5f8a FF90      		pop r15
 16813 5f8c EF90      		pop r14
 16814 5f8e DF90      		pop r13
 16815 5f90 CF90      		pop r12
 16816 5f92 BF90      		pop r11
 16817 5f94 AF90      		pop r10
 16818               	.LVL1353:
 16819 5f96 9F90      		pop r9
 16820 5f98 8F90      		pop r8
 16821               	.LVL1354:
 16822 5f9a 7F90      		pop r7
 16823 5f9c 6F90      		pop r6
 16824 5f9e 5F90      		pop r5
 16825 5fa0 4F90      		pop r4
 16826 5fa2 0895      		ret
 16827               	.LFE152:
 16829               	.global	RTC_sendBytes
 16831               	RTC_sendBytes:
 16832               	.LFB157:
 16833               	.LM1790:
 16834               	.LVL1355:
 16835               	/* prologue: function */
 16836               	/* frame size = 0 */
 16837 5fa4 582F      		mov r21,r24
 16838               	.LM1791:
 16839 5fa6 4E7F      		andi r20,lo8(-2)
 16840               	.LVL1356:
 16841               	.LM1792:
 16842 5fa8 E0EA      		ldi r30,lo8(1184)
 16843 5faa F4E0      		ldi r31,hi8(1184)
 16844 5fac 4683      		std Z+6,r20
 16845 5fae FB01      		movw r30,r22
 16846               	.LVL1357:
 16847 5fb0 90E0      		ldi r25,lo8(0)
 16848               	.LVL1358:
 16849               	.LM1793:
 16850 5fb2 A0EA      		ldi r26,lo8(1184)
 16851 5fb4 B4E0      		ldi r27,hi8(1184)
 16852 5fb6 00C0      		rjmp .L1020
 16853               	.LVL1359:
 16854               	.L1024:
 16855 5fb8 8091 A404 		lds r24,1188
 16856 5fbc 86FF      		sbrs r24,6
 16857 5fbe 00C0      		rjmp .L1024
 16858               	.LM1794:
 16859 5fc0 8091 A404 		lds r24,1188
 16860 5fc4 84FD      		sbrc r24,4
 16861 5fc6 00C0      		rjmp .L1023
 16862               	.LM1795:
 16863 5fc8 8191      		ld r24,Z+
 16864 5fca 1796      		adiw r26,7
 16865 5fcc 8C93      		st X,r24
 16866 5fce 1797      		sbiw r26,7
 16867               	.LM1796:
 16868 5fd0 9F5F      		subi r25,lo8(-(1))
 16869               	.LVL1360:
 16870               	.L1020:
 16871               	.LM1797:
 16872 5fd2 9517      		cp r25,r21
 16873 5fd4 00F0      		brlo .L1024
 16874               	.L1023:
 16875 5fd6 0895      		ret
 16876               	.LFE157:
 16878               	.global	RTC_setTime
 16880               	RTC_setTime:
 16881               	.LFB156:
 16882               	.LM1798:
 16883 5fd8 DF93      		push r29
 16884 5fda CF93      		push r28
 16885 5fdc CDB7      		in r28,__SP_L__
 16886 5fde DEB7      		in r29,__SP_H__
 16887 5fe0 2997      		sbiw r28,9
 16888 5fe2 CDBF      		out __SP_L__,r28
 16889 5fe4 DEBF      		out __SP_H__,r29
 16890               	/* prologue: function */
 16891               	/* frame size = 9 */
 16892               	.LM1799:
 16893 5fe6 5091 0000 		lds r21,time+7
 16894               	.LVL1361:
 16895 5fea 5E51      		subi r21,lo8(-(-30))
 16896               	.LM1800:
 16897 5fec 1982      		std Y+1,__zero_reg__
 16898               	.LM1801:
 16899 5fee 4091 0000 		lds r20,time
 16900 5ff2 842F      		mov r24,r20
 16901 5ff4 6AE0      		ldi r22,lo8(10)
 16902 5ff6 0E94 0000 		call __udivmodqi4
 16903 5ffa 282F      		mov r18,r24
 16904 5ffc 30E0      		ldi r19,lo8(0)
 16905 5ffe A4E0      		ldi r26,4
 16906 6000 220F      	1:	lsl r18
 16907 6002 331F      		rol r19
 16908 6004 AA95      		dec r26
 16909 6006 01F4      		brne 1b
 16910 6008 842F      		mov r24,r20
 16911 600a 0E94 0000 		call __udivmodqi4
 16912 600e 922B      		or r25,r18
 16913 6010 9A83      		std Y+2,r25
 16914               	.LM1802:
 16915 6012 4091 0000 		lds r20,time+1
 16916 6016 842F      		mov r24,r20
 16917 6018 0E94 0000 		call __udivmodqi4
 16918 601c 282F      		mov r18,r24
 16919 601e 30E0      		ldi r19,lo8(0)
 16920 6020 F4E0      		ldi r31,4
 16921 6022 220F      	1:	lsl r18
 16922 6024 331F      		rol r19
 16923 6026 FA95      		dec r31
 16924 6028 01F4      		brne 1b
 16925 602a 842F      		mov r24,r20
 16926 602c 0E94 0000 		call __udivmodqi4
 16927 6030 922B      		or r25,r18
 16928 6032 9B83      		std Y+3,r25
 16929               	.LM1803:
 16930 6034 4091 0000 		lds r20,time+2
 16931 6038 842F      		mov r24,r20
 16932 603a 0E94 0000 		call __udivmodqi4
 16933 603e 282F      		mov r18,r24
 16934 6040 30E0      		ldi r19,lo8(0)
 16935 6042 E4E0      		ldi r30,4
 16936 6044 220F      	1:	lsl r18
 16937 6046 331F      		rol r19
 16938 6048 EA95      		dec r30
 16939 604a 01F4      		brne 1b
 16940 604c 842F      		mov r24,r20
 16941 604e 0E94 0000 		call __udivmodqi4
 16942 6052 922B      		or r25,r18
 16943 6054 9C83      		std Y+4,r25
 16944               	.LM1804:
 16945 6056 3091 0000 		lds r19,time+3
 16946 605a 832F      		mov r24,r19
 16947 605c 0E94 0000 		call __udivmodqi4
 16948 6060 292F      		mov r18,r25
 16949 6062 2068      		ori r18,lo8(-128)
 16950 6064 832F      		mov r24,r19
 16951 6066 0E94 0000 		call __udivmodqi4
 16952 606a 8295      		swap r24
 16953 606c 807F      		andi r24,lo8(-16)
 16954 606e 282B      		or r18,r24
 16955 6070 852F      		mov r24,r21
 16956 6072 64E6      		ldi r22,lo8(100)
 16957 6074 0E94 0000 		call __udivmodqi4
 16958 6078 8295      		swap r24
 16959 607a 880F      		lsl r24
 16960 607c 880F      		lsl r24
 16961 607e 807C      		andi r24,lo8(-64)
 16962 6080 282B      		or r18,r24
 16963 6082 2D83      		std Y+5,r18
 16964               	.LM1805:
 16965 6084 8091 0000 		lds r24,time+4
 16966 6088 8E83      		std Y+6,r24
 16967               	.LM1806:
 16968 608a 4091 0000 		lds r20,time+5
 16969 608e 842F      		mov r24,r20
 16970 6090 6AE0      		ldi r22,lo8(10)
 16971 6092 0E94 0000 		call __udivmodqi4
 16972 6096 282F      		mov r18,r24
 16973 6098 30E0      		ldi r19,lo8(0)
 16974 609a 74E0      		ldi r23,4
 16975 609c 220F      	1:	lsl r18
 16976 609e 331F      		rol r19
 16977 60a0 7A95      		dec r23
 16978 60a2 01F4      		brne 1b
 16979 60a4 842F      		mov r24,r20
 16980 60a6 0E94 0000 		call __udivmodqi4
 16981 60aa 922B      		or r25,r18
 16982 60ac 9F83      		std Y+7,r25
 16983               	.LM1807:
 16984 60ae 4091 0000 		lds r20,time+6
 16985 60b2 842F      		mov r24,r20
 16986 60b4 0E94 0000 		call __udivmodqi4
 16987 60b8 282F      		mov r18,r24
 16988 60ba 30E0      		ldi r19,lo8(0)
 16989 60bc 94E0      		ldi r25,4
 16990 60be 220F      	1:	lsl r18
 16991 60c0 331F      		rol r19
 16992 60c2 9A95      		dec r25
 16993 60c4 01F4      		brne 1b
 16994 60c6 842F      		mov r24,r20
 16995 60c8 0E94 0000 		call __udivmodqi4
 16996 60cc 922B      		or r25,r18
 16997 60ce 9887      		std Y+8,r25
 16998               	.LM1808:
 16999 60d0 852F      		mov r24,r21
 17000 60d2 0E94 0000 		call __udivmodqi4
 17001 60d6 282F      		mov r18,r24
 17002 60d8 30E0      		ldi r19,lo8(0)
 17003 60da 84E0      		ldi r24,4
 17004 60dc 220F      	1:	lsl r18
 17005 60de 331F      		rol r19
 17006 60e0 8A95      		dec r24
 17007 60e2 01F4      		brne 1b
 17008 60e4 852F      		mov r24,r21
 17009 60e6 0E94 0000 		call __udivmodqi4
 17010 60ea 922B      		or r25,r18
 17011 60ec 9987      		std Y+9,r25
 17012               	.LM1809:
 17013 60ee 89E0      		ldi r24,lo8(9)
 17014 60f0 BE01      		movw r22,r28
 17015 60f2 6F5F      		subi r22,lo8(-(1))
 17016 60f4 7F4F      		sbci r23,hi8(-(1))
 17017 60f6 40ED      		ldi r20,lo8(-48)
 17018 60f8 0E94 0000 		call RTC_sendBytes
 17019               	.LVL1362:
 17020               	/* epilogue start */
 17021               	.LM1810:
 17022 60fc 2996      		adiw r28,9
 17023 60fe CDBF      		out __SP_L__,r28
 17024 6100 DEBF      		out __SP_H__,r29
 17025 6102 CF91      		pop r28
 17026 6104 DF91      		pop r29
 17027 6106 0895      		ret
 17028               	.LFE156:
 17030               	.global	RTC_setUTCSecs
 17032               	RTC_setUTCSecs:
 17033               	.LFB153:
 17034               	.LM1811:
 17035               	.LVL1363:
 17036               	/* prologue: function */
 17037               	/* frame size = 0 */
 17038               	.LM1812:
 17039 6108 40E0      		ldi r20,lo8(time)
 17040 610a 50E0      		ldi r21,hi8(time)
 17041 610c 0E94 0000 		call RTC_UTCSecsToTime
 17042               	.LVL1364:
 17043               	.LM1813:
 17044 6110 0E94 0000 		call RTC_setTime
 17045               	/* epilogue start */
 17046               	.LM1814:
 17047 6114 0895      		ret
 17048               	.LFE153:
 17050               	.global	RTC_init
 17052               	RTC_init:
 17053               	.LFB150:
 17054               	.LM1815:
 17055 6116 DF93      		push r29
 17056 6118 CF93      		push r28
 17057 611a CDB7      		in r28,__SP_L__
 17058 611c DEB7      		in r29,__SP_H__
 17059 611e E297      		sbiw r28,50
 17060 6120 CDBF      		out __SP_L__,r28
 17061 6122 DEBF      		out __SP_H__,r29
 17062               	/* prologue: function */
 17063               	/* frame size = 50 */
 17064               	.LM1816:
 17065 6124 E0EA      		ldi r30,lo8(1184)
 17066 6126 F4E0      		ldi r31,hi8(1184)
 17067 6128 88E0      		ldi r24,lo8(8)
 17068 612a 8183      		std Z+1,r24
 17069               	.LM1817:
 17070 612c 84E0      		ldi r24,lo8(4)
 17071 612e 8383      		std Z+3,r24
 17072               	.LM1818:
 17073 6130 8FE0      		ldi r24,lo8(15)
 17074 6132 8583      		std Z+5,r24
 17075               	.LM1819:
 17076 6134 81E0      		ldi r24,lo8(1)
 17077 6136 8483      		std Z+4,r24
 17078 6138 FE01      		movw r30,r28
 17079 613a 3196      		adiw r30,1
 17080               	.LM1820:
 17081 613c CE01      		movw r24,r28
 17082 613e 4296      		adiw r24,18
 17083               	.L1031:
 17084               	.LM1821:
 17085 6140 1192      		st Z+,__zero_reg__
 17086               	.LM1822:
 17087 6142 E817      		cp r30,r24
 17088 6144 F907      		cpc r31,r25
 17089 6146 01F4      		brne .L1031
 17090               	.LM1823:
 17091 6148 81E1      		ldi r24,lo8(17)
 17092 614a BE01      		movw r22,r28
 17093 614c 6F5F      		subi r22,lo8(-(1))
 17094 614e 7F4F      		sbci r23,hi8(-(1))
 17095 6150 40ED      		ldi r20,lo8(-48)
 17096 6152 0E94 0000 		call RTC_sendBytes
 17097               	/* epilogue start */
 17098               	.LM1824:
 17099 6156 E296      		adiw r28,50
 17100 6158 CDBF      		out __SP_L__,r28
 17101 615a DEBF      		out __SP_H__,r29
 17102 615c CF91      		pop r28
 17103 615e DF91      		pop r29
 17104 6160 0895      		ret
 17105               	.LFE150:
 17107               	.global	RTC_receiveBytes
 17109               	RTC_receiveBytes:
 17110               	.LFB158:
 17111               	.LM1825:
 17112               	.LVL1365:
 17113               	/* prologue: function */
 17114               	/* frame size = 0 */
 17115 6162 582F      		mov r21,r24
 17116               	.LM1826:
 17117 6164 4160      		ori r20,lo8(1)
 17118               	.LVL1366:
 17119               	.LM1827:
 17120 6166 E0EA      		ldi r30,lo8(1184)
 17121 6168 F4E0      		ldi r31,hi8(1184)
 17122 616a 4683      		std Z+6,r20
 17123 616c FB01      		movw r30,r22
 17124               	.LVL1367:
 17125 616e 90E0      		ldi r25,lo8(0)
 17126               	.LVL1368:
 17127               	.LM1828:
 17128 6170 A0EA      		ldi r26,lo8(1184)
 17129 6172 B4E0      		ldi r27,hi8(1184)
 17130               	.LM1829:
 17131 6174 22E0      		ldi r18,lo8(2)
 17132 6176 00C0      		rjmp .L1035
 17133               	.LVL1369:
 17134               	.L1038:
 17135               	.LM1830:
 17136 6178 8091 A404 		lds r24,1188
 17137 617c 87FF      		sbrs r24,7
 17138 617e 00C0      		rjmp .L1038
 17139               	.LM1831:
 17140 6180 8091 A704 		lds r24,1191
 17141 6184 8193      		st Z+,r24
 17142               	.LM1832:
 17143 6186 1396      		adiw r26,3
 17144 6188 2C93      		st X,r18
 17145 618a 1397      		sbiw r26,3
 17146               	.LM1833:
 17147 618c 9F5F      		subi r25,lo8(-(1))
 17148               	.LVL1370:
 17149               	.L1035:
 17150               	.LM1834:
 17151 618e 9517      		cp r25,r21
 17152 6190 00F0      		brlo .L1038
 17153               	.LM1835:
 17154 6192 87E0      		ldi r24,lo8(7)
 17155 6194 E0EA      		ldi r30,lo8(1184)
 17156 6196 F4E0      		ldi r31,hi8(1184)
 17157 6198 8383      		std Z+3,r24
 17158               	/* epilogue start */
 17159               	.LM1836:
 17160 619a 0895      		ret
 17161               	.LFE158:
 17163               	.global	RTC_getTime
 17165               	RTC_getTime:
 17166               	.LFB155:
 17167               	.LM1837:
 17168 619c 0F93      		push r16
 17169 619e 1F93      		push r17
 17170 61a0 DF93      		push r29
 17171 61a2 CF93      		push r28
 17172 61a4 CDB7      		in r28,__SP_L__
 17173 61a6 DEB7      		in r29,__SP_H__
 17174 61a8 2897      		sbiw r28,8
 17175 61aa CDBF      		out __SP_L__,r28
 17176 61ac DEBF      		out __SP_H__,r29
 17177               	/* prologue: function */
 17178               	/* frame size = 8 */
 17179               	.LM1838:
 17180 61ae 1982      		std Y+1,__zero_reg__
 17181               	.LM1839:
 17182 61b0 81E0      		ldi r24,lo8(1)
 17183 61b2 8E01      		movw r16,r28
 17184 61b4 0F5F      		subi r16,lo8(-(1))
 17185 61b6 1F4F      		sbci r17,hi8(-(1))
 17186 61b8 B801      		movw r22,r16
 17187 61ba 40ED      		ldi r20,lo8(-48)
 17188 61bc 0E94 0000 		call RTC_sendBytes
 17189               	.LM1840:
 17190 61c0 88E0      		ldi r24,lo8(8)
 17191 61c2 B801      		movw r22,r16
 17192 61c4 40ED      		ldi r20,lo8(-48)
 17193 61c6 0E94 0000 		call RTC_receiveBytes
 17194               	.LM1841:
 17195 61ca 4981      		ldd r20,Y+1
 17196 61cc 842F      		mov r24,r20
 17197 61ce 8295      		swap r24
 17198 61d0 8F70      		andi r24,lo8(15)
 17199 61d2 90E0      		ldi r25,lo8(0)
 17200 61d4 9C01      		movw r18,r24
 17201 61d6 63E0      		ldi r22,3
 17202 61d8 220F      	1:	lsl r18
 17203 61da 331F      		rol r19
 17204 61dc 6A95      		dec r22
 17205 61de 01F4      		brne 1b
 17206 61e0 880F      		lsl r24
 17207 61e2 991F      		rol r25
 17208 61e4 280F      		add r18,r24
 17209 61e6 391F      		adc r19,r25
 17210 61e8 4F70      		andi r20,lo8(15)
 17211 61ea 420F      		add r20,r18
 17212 61ec 4093 0000 		sts time,r20
 17213               	.LM1842:
 17214 61f0 4A81      		ldd r20,Y+2
 17215 61f2 842F      		mov r24,r20
 17216 61f4 90E0      		ldi r25,lo8(0)
 17217 61f6 8077      		andi r24,lo8(112)
 17218 61f8 9070      		andi r25,hi8(112)
 17219 61fa 24E0      		ldi r18,4
 17220 61fc 9595      	1:	asr r25
 17221 61fe 8795      		ror r24
 17222 6200 2A95      		dec r18
 17223 6202 01F4      		brne 1b
 17224 6204 9C01      		movw r18,r24
 17225 6206 03E0      		ldi r16,3
 17226 6208 220F      	1:	lsl r18
 17227 620a 331F      		rol r19
 17228 620c 0A95      		dec r16
 17229 620e 01F4      		brne 1b
 17230 6210 880F      		lsl r24
 17231 6212 991F      		rol r25
 17232 6214 280F      		add r18,r24
 17233 6216 391F      		adc r19,r25
 17234 6218 4F70      		andi r20,lo8(15)
 17235 621a 420F      		add r20,r18
 17236 621c 4093 0000 		sts time+1,r20
 17237               	.LM1843:
 17238 6220 4B81      		ldd r20,Y+3
 17239 6222 842F      		mov r24,r20
 17240 6224 90E0      		ldi r25,lo8(0)
 17241 6226 8077      		andi r24,lo8(112)
 17242 6228 9070      		andi r25,hi8(112)
 17243 622a B4E0      		ldi r27,4
 17244 622c 9595      	1:	asr r25
 17245 622e 8795      		ror r24
 17246 6230 BA95      		dec r27
 17247 6232 01F4      		brne 1b
 17248 6234 9C01      		movw r18,r24
 17249 6236 A3E0      		ldi r26,3
 17250 6238 220F      	1:	lsl r18
 17251 623a 331F      		rol r19
 17252 623c AA95      		dec r26
 17253 623e 01F4      		brne 1b
 17254 6240 880F      		lsl r24
 17255 6242 991F      		rol r25
 17256 6244 280F      		add r18,r24
 17257 6246 391F      		adc r19,r25
 17258 6248 4F70      		andi r20,lo8(15)
 17259 624a 420F      		add r20,r18
 17260 624c 4093 0000 		sts time+2,r20
 17261               	.LM1844:
 17262 6250 4C81      		ldd r20,Y+4
 17263 6252 642F      		mov r22,r20
 17264 6254 70E0      		ldi r23,lo8(0)
 17265 6256 CB01      		movw r24,r22
 17266 6258 8073      		andi r24,lo8(48)
 17267 625a 9070      		andi r25,hi8(48)
 17268 625c E4E0      		ldi r30,4
 17269 625e 9595      	1:	asr r25
 17270 6260 8795      		ror r24
 17271 6262 EA95      		dec r30
 17272 6264 01F4      		brne 1b
 17273 6266 9C01      		movw r18,r24
 17274 6268 53E0      		ldi r21,3
 17275 626a 220F      	1:	lsl r18
 17276 626c 331F      		rol r19
 17277 626e 5A95      		dec r21
 17278 6270 01F4      		brne 1b
 17279 6272 880F      		lsl r24
 17280 6274 991F      		rol r25
 17281 6276 280F      		add r18,r24
 17282 6278 391F      		adc r19,r25
 17283 627a 4F70      		andi r20,lo8(15)
 17284 627c 420F      		add r20,r18
 17285 627e 4093 0000 		sts time+3,r20
 17286               	.LM1845:
 17287 6282 8D81      		ldd r24,Y+5
 17288 6284 8093 0000 		sts time+4,r24
 17289               	.LM1846:
 17290 6288 4E81      		ldd r20,Y+6
 17291 628a 842F      		mov r24,r20
 17292 628c 90E0      		ldi r25,lo8(0)
 17293 628e 8073      		andi r24,lo8(48)
 17294 6290 9070      		andi r25,hi8(48)
 17295 6292 14E0      		ldi r17,4
 17296 6294 9595      	1:	asr r25
 17297 6296 8795      		ror r24
 17298 6298 1A95      		dec r17
 17299 629a 01F4      		brne 1b
 17300 629c 9C01      		movw r18,r24
 17301 629e B3E0      		ldi r27,3
 17302 62a0 220F      	1:	lsl r18
 17303 62a2 331F      		rol r19
 17304 62a4 BA95      		dec r27
 17305 62a6 01F4      		brne 1b
 17306 62a8 880F      		lsl r24
 17307 62aa 991F      		rol r25
 17308 62ac 280F      		add r18,r24
 17309 62ae 391F      		adc r19,r25
 17310 62b0 4F70      		andi r20,lo8(15)
 17311 62b2 420F      		add r20,r18
 17312 62b4 4093 0000 		sts time+5,r20
 17313               	.LM1847:
 17314 62b8 4F81      		ldd r20,Y+7
 17315 62ba 842F      		mov r24,r20
 17316 62bc 90E0      		ldi r25,lo8(0)
 17317 62be 8071      		andi r24,lo8(16)
 17318 62c0 9070      		andi r25,hi8(16)
 17319 62c2 F4E0      		ldi r31,4
 17320 62c4 9595      	1:	asr r25
 17321 62c6 8795      		ror r24
 17322 62c8 FA95      		dec r31
 17323 62ca 01F4      		brne 1b
 17324 62cc 9C01      		movw r18,r24
 17325 62ce E3E0      		ldi r30,3
 17326 62d0 220F      	1:	lsl r18
 17327 62d2 331F      		rol r19
 17328 62d4 EA95      		dec r30
 17329 62d6 01F4      		brne 1b
 17330 62d8 880F      		lsl r24
 17331 62da 991F      		rol r25
 17332 62dc 280F      		add r18,r24
 17333 62de 391F      		adc r19,r25
 17334 62e0 4F70      		andi r20,lo8(15)
 17335 62e2 420F      		add r20,r18
 17336 62e4 4093 0000 		sts time+6,r20
 17337               	.LM1848:
 17338 62e8 2885      		ldd r18,Y+8
 17339               	.LM1849:
 17340 62ea 422F      		mov r20,r18
 17341 62ec 4F70      		andi r20,lo8(15)
 17342 62ee 425E      		subi r20,lo8(-(30))
 17343 62f0 6075      		andi r22,lo8(80)
 17344 62f2 7070      		andi r23,hi8(80)
 17345 62f4 06E0      		ldi r16,6
 17346 62f6 7595      	1:	asr r23
 17347 62f8 6795      		ror r22
 17348 62fa 0A95      		dec r16
 17349 62fc 01F4      		brne 1b
 17350 62fe 84E6      		ldi r24,lo8(100)
 17351 6300 90E0      		ldi r25,hi8(100)
 17352 6302 FC01      		movw r30,r24
 17353 6304 6E9F      		mul r22,r30
 17354 6306 C001      		movw r24,r0
 17355 6308 6F9F      		mul r22,r31
 17356 630a 900D      		add r25,r0
 17357 630c 7E9F      		mul r23,r30
 17358 630e 900D      		add r25,r0
 17359 6310 1124      		clr r1
 17360 6312 480F      		add r20,r24
 17361 6314 2295      		swap r18
 17362 6316 2F70      		andi r18,lo8(15)
 17363 6318 30E0      		ldi r19,lo8(0)
 17364 631a C901      		movw r24,r18
 17365 631c 13E0      		ldi r17,3
 17366 631e 880F      	1:	lsl r24
 17367 6320 991F      		rol r25
 17368 6322 1A95      		dec r17
 17369 6324 01F4      		brne 1b
 17370 6326 220F      		lsl r18
 17371 6328 331F      		rol r19
 17372 632a 820F      		add r24,r18
 17373 632c 931F      		adc r25,r19
 17374 632e 480F      		add r20,r24
 17375 6330 4093 0000 		sts time+7,r20
 17376               	/* epilogue start */
 17377               	.LM1850:
 17378 6334 2896      		adiw r28,8
 17379 6336 CDBF      		out __SP_L__,r28
 17380 6338 DEBF      		out __SP_H__,r29
 17381 633a CF91      		pop r28
 17382 633c DF91      		pop r29
 17383 633e 1F91      		pop r17
 17384 6340 0F91      		pop r16
 17385 6342 0895      		ret
 17386               	.LFE155:
 17388               	.global	RTC_getUTCSecs
 17390               	RTC_getUTCSecs:
 17391               	.LFB154:
 17392               	.LM1851:
 17393               	/* prologue: function */
 17394               	/* frame size = 0 */
 17395               	.LM1852:
 17396 6344 0E94 0000 		call RTC_getTime
 17397               	.LM1853:
 17398 6348 80E0      		ldi r24,lo8(time)
 17399 634a 90E0      		ldi r25,hi8(time)
 17400 634c 0E94 0000 		call RTC_TimeToUTCSecs
 17401               	/* epilogue start */
 17402               	.LM1854:
 17403 6350 0895      		ret
 17404               	.LFE154:
 17406               	.global	Clock_Init
 17408               	Clock_Init:
 17409               	.LFB160:
 17410               	.LM1855:
 17411 6352 0F93      		push r16
 17412 6354 DF93      		push r29
 17413 6356 CF93      		push r28
 17414 6358 0F92      		push __tmp_reg__
 17415 635a CDB7      		in r28,__SP_L__
 17416 635c DEB7      		in r29,__SP_H__
 17417               	/* prologue: function */
 17418               	/* frame size = 1 */
 17419               	.LM1856:
 17420 635e 80EC      		ldi r24,lo8(-64)
 17421 6360 E0E5      		ldi r30,lo8(80)
 17422 6362 F0E0      		ldi r31,hi8(80)
 17423 6364 8283      		std Z+2,r24
 17424               	.LM1857:
 17425 6366 8091 5000 		lds r24,80
 17426 636a 8860      		ori r24,lo8(8)
 17427 636c 8093 5000 		sts 80,r24
 17428               	.L1045:
 17429               	.LM1858:
 17430 6370 8091 5100 		lds r24,81
 17431 6374 83FF      		sbrs r24,3
 17432 6376 00C0      		rjmp .L1045
 17433               	.LM1859:
 17434 6378 2091 4000 		lds r18,64
 17435               	.LBB871:
 17436               	.LBB872:
 17437               	.LM1860:
 17438 637c 8FB7      		in r24,__SREG__
 17439 637e 8983      		std Y+1,r24
 17440               	.LVL1371:
 17441               	.LM1861:
 17442               	/* #APP */
 17443               	 ;  217 "sd.c" 1
 17444 6380 F894      		cli
 17445               	 ;  0 "" 2
 17446               	.LM1862:
 17447               	/* #NOAPP */
 17448 6382 1BBE      		out 59-0,__zero_reg__
 17449               	.LM1863:
 17450 6384 287F      		andi r18,lo8(-8)
 17451 6386 2360      		ori r18,lo8(3)
 17452 6388 80E4      		ldi r24,lo8(64)
 17453 638a 90E0      		ldi r25,hi8(64)
 17454               	/* #APP */
 17455               	 ;  239 "sd.c" 1
 17456 638c FC01      		movw r30,  r24
 17457 638e 08ED      		ldi  r16,  216
 17458 6390 04BF      		out   52, r16
 17459 6392 2083      		st     Z,  r18
 17460               		
 17461               	 ;  0 "" 2
 17462               	.LM1864:
 17463               	/* #NOAPP */
 17464 6394 8981      		ldd r24,Y+1
 17465 6396 8FBF      		out __SREG__,r24
 17466               	.LBE872:
 17467               	.LBE871:
 17468               	.LM1865:
 17469 6398 8091 5000 		lds r24,80
 17470 639c 8E7F      		andi r24,lo8(-2)
 17471 639e 8093 5000 		sts 80,r24
 17472               	/* epilogue start */
 17473               	.LM1866:
 17474 63a2 0F90      		pop __tmp_reg__
 17475 63a4 CF91      		pop r28
 17476 63a6 DF91      		pop r29
 17477 63a8 0F91      		pop r16
 17478 63aa 0895      		ret
 17479               	.LFE160:
 17481               	.global	Disable_JTAG
 17483               	Disable_JTAG:
 17484               	.LFB161:
 17485               	.LM1867:
 17486 63ac 0F93      		push r16
 17487 63ae DF93      		push r29
 17488 63b0 CF93      		push r28
 17489 63b2 0F92      		push __tmp_reg__
 17490 63b4 CDB7      		in r28,__SP_L__
 17491 63b6 DEB7      		in r29,__SP_H__
 17492               	/* prologue: function */
 17493               	/* frame size = 1 */
 17494               	.LBB873:
 17495               	.LBB874:
 17496               	.LM1868:
 17497 63b8 8FB7      		in r24,__SREG__
 17498 63ba 8983      		std Y+1,r24
 17499               	.LVL1372:
 17500               	.LM1869:
 17501               	/* #APP */
 17502               	 ;  217 "sd.c" 1
 17503 63bc F894      		cli
 17504               	 ;  0 "" 2
 17505               	.LM1870:
 17506               	/* #NOAPP */
 17507 63be 1BBE      		out 59-0,__zero_reg__
 17508               	.LM1871:
 17509 63c0 21E0      		ldi r18,lo8(1)
 17510 63c2 86E9      		ldi r24,lo8(150)
 17511 63c4 90E0      		ldi r25,hi8(150)
 17512               	/* #APP */
 17513               	 ;  239 "sd.c" 1
 17514 63c6 FC01      		movw r30,  r24
 17515 63c8 08ED      		ldi  r16,  216
 17516 63ca 04BF      		out   52, r16
 17517 63cc 2083      		st     Z,  r18
 17518               		
 17519               	 ;  0 "" 2
 17520               	.LM1872:
 17521               	/* #NOAPP */
 17522 63ce 8981      		ldd r24,Y+1
 17523 63d0 8FBF      		out __SREG__,r24
 17524               	/* epilogue start */
 17525               	.LBE874:
 17526               	.LBE873:
 17527               	.LM1873:
 17528 63d2 0F90      		pop __tmp_reg__
 17529 63d4 CF91      		pop r28
 17530 63d6 DF91      		pop r29
 17531 63d8 0F91      		pop r16
 17532 63da 0895      		ret
 17533               	.LFE161:
 17535               	.global	DMA_Init
 17537               	DMA_Init:
 17538               	.LFB162:
 17539               	.LM1874:
 17540               	/* prologue: function */
 17541               	/* frame size = 0 */
 17542               	.LM1875:
 17543 63dc E0E0      		ldi r30,lo8(256)
 17544 63de F1E0      		ldi r31,hi8(256)
 17545 63e0 8081      		ld r24,Z
 17546 63e2 8068      		ori r24,lo8(-128)
 17547 63e4 8083      		st Z,r24
 17548               	.LM1876:
 17549 63e6 8289      		ldd r24,Z+18
 17550 63e8 8560      		ori r24,lo8(5)
 17551 63ea 828B      		std Z+18,r24
 17552               	.LM1877:
 17553 63ec 8BE8      		ldi r24,lo8(-117)
 17554 63ee 838B      		std Z+19,r24
 17555               	.LM1878:
 17556 63f0 80E0      		ldi r24,lo8(1024)
 17557 63f2 94E0      		ldi r25,hi8(1024)
 17558 63f4 848B      		std Z+20,r24
 17559 63f6 958B      		std Z+21,r25
 17560               	.LM1879:
 17561 63f8 168A      		std Z+22,__zero_reg__
 17562               	.LM1880:
 17563 63fa 80EA      		ldi r24,lo8(-96)
 17564 63fc 808F      		std Z+24,r24
 17565               	.LM1881:
 17566 63fe 8AE0      		ldi r24,lo8(10)
 17567 6400 818F      		std Z+25,r24
 17568               	.LM1882:
 17569 6402 128E      		std Z+26,__zero_reg__
 17570               	.LM1883:
 17571 6404 80E0      		ldi r24,lo8(WifiBuffer)
 17572 6406 90E0      		ldi r25,hi8(WifiBuffer)
 17573 6408 848F      		std Z+28,r24
 17574               	.LM1884:
 17575 640a 958F      		std Z+29,r25
 17576               	.LM1885:
 17577 640c 168E      		std Z+30,__zero_reg__
 17578               	.LM1886:
 17579 640e 8089      		ldd r24,Z+16
 17580 6410 846A      		ori r24,lo8(-92)
 17581 6412 808B      		std Z+16,r24
 17582               	/* epilogue start */
 17583               	.LM1887:
 17584 6414 0895      		ret
 17585               	.LFE162:
 17587               	.global	Interrupt_Init
 17589               	Interrupt_Init:
 17590               	.LFB163:
 17591               	.LM1888:
 17592               	/* prologue: function */
 17593               	/* frame size = 0 */
 17594               	.LM1889:
 17595 6416 E0EA      		ldi r30,lo8(160)
 17596 6418 F0E0      		ldi r31,hi8(160)
 17597 641a 8281      		ldd r24,Z+2
 17598 641c 8760      		ori r24,lo8(7)
 17599 641e 8283      		std Z+2,r24
 17600               	.LM1890:
 17601               	/* #APP */
 17602               	 ;  341 "main.c" 1
 17603 6420 7894      		sei
 17604               	 ;  0 "" 2
 17605               	/* epilogue start */
 17606               	.LM1891:
 17607               	/* #NOAPP */
 17608 6422 0895      		ret
 17609               	.LFE163:
 17611               	.global	SD_BackroundWriter_Init
 17613               	SD_BackroundWriter_Init:
 17614               	.LFB164:
 17615               	.LM1892:
 17616               	/* prologue: function */
 17617               	/* frame size = 0 */
 17618               	.LM1893:
 17619 6424 E0E4      		ldi r30,lo8(2624)
 17620 6426 FAE0      		ldi r31,hi8(2624)
 17621 6428 80E0      		ldi r24,lo8(2304)
 17622 642a 99E0      		ldi r25,hi8(2304)
 17623 642c 86A3      		std Z+38,r24
 17624 642e 97A3      		std Z+39,r25
 17625               	.LM1894:
 17626 6430 8081      		ld r24,Z
 17627 6432 807F      		andi r24,lo8(-16)
 17628 6434 8560      		ori r24,lo8(5)
 17629 6436 8083      		st Z,r24
 17630               	.LM1895:
 17631 6438 8681      		ldd r24,Z+6
 17632 643a 8C7F      		andi r24,lo8(-4)
 17633 643c 8160      		ori r24,lo8(1)
 17634 643e 8683      		std Z+6,r24
 17635               	/* epilogue start */
 17636               	.LM1896:
 17637 6440 0895      		ret
 17638               	.LFE164:
 17640               	.global	SD_WriteRTCBlock
 17642               	SD_WriteRTCBlock:
 17643               	.LFB166:
 17644               	.LM1897:
 17645               	.LVL1373:
 17646 6442 AF92      		push r10
 17647 6444 BF92      		push r11
 17648 6446 CF92      		push r12
 17649 6448 DF92      		push r13
 17650 644a EF92      		push r14
 17651 644c FF92      		push r15
 17652 644e 0F93      		push r16
 17653 6450 1F93      		push r17
 17654               	/* prologue: function */
 17655               	/* frame size = 0 */
 17656 6452 7B01      		movw r14,r22
 17657 6454 8C01      		movw r16,r24
 17658 6456 5901      		movw r10,r18
 17659 6458 6A01      		movw r12,r20
 17660               	.LBB875:
 17661               	.LBB876:
 17662               	.LM1898:
 17663 645a 8FEF      		ldi r24,lo8(-1)
 17664 645c 9FEF      		ldi r25,hi8(-1)
 17665 645e AFEF      		ldi r26,hlo8(-1)
 17666 6460 BFEF      		ldi r27,hhi8(-1)
 17667 6462 8093 0000 		sts CRC,r24
 17668 6466 9093 0000 		sts (CRC)+1,r25
 17669 646a A093 0000 		sts (CRC)+2,r26
 17670 646e B093 0000 		sts (CRC)+3,r27
 17671               	.LBE876:
 17672               	.LBE875:
 17673               	.LM1899:
 17674 6472 6CE4      		ldi r22,lo8(-1327598516)
 17675 6474 74E7      		ldi r23,hi8(-1327598516)
 17676 6476 8EED      		ldi r24,hlo8(-1327598516)
 17677 6478 90EB      		ldi r25,hhi8(-1327598516)
 17678               	.LVL1374:
 17679 647a 0E94 0000 		call SD_Write32
 17680               	.LVL1375:
 17681               	.LM1900:
 17682 647e 6BE1      		ldi r22,lo8(27)
 17683 6480 70E0      		ldi r23,hi8(27)
 17684 6482 80E0      		ldi r24,hlo8(27)
 17685 6484 90E0      		ldi r25,hhi8(27)
 17686 6486 0E94 0000 		call SD_Write32
 17687               	.LM1901:
 17688 648a 82E0      		ldi r24,lo8(2)
 17689 648c 90E0      		ldi r25,hi8(2)
 17690 648e 0E94 0000 		call SD_Write16
 17691               	.LM1902:
 17692 6492 C801      		movw r24,r16
 17693 6494 B701      		movw r22,r14
 17694 6496 0E94 0000 		call SD_Write32
 17695               	.LM1903:
 17696 649a C601      		movw r24,r12
 17697 649c B501      		movw r22,r10
 17698 649e 0E94 0000 		call SD_Write32
 17699               	.LM1904:
 17700 64a2 80E0      		ldi r24,lo8(0)
 17701 64a4 0E94 0000 		call SD_Write8
 17702               	.LM1905:
 17703 64a8 60E0      		ldi r22,lo8(0)
 17704 64aa 70E0      		ldi r23,hi8(0)
 17705 64ac 80E0      		ldi r24,hlo8(0)
 17706 64ae 90E0      		ldi r25,hhi8(0)
 17707 64b0 0E94 0000 		call SD_Write32
 17708               	.LM1906:
 17709 64b4 0E94 0000 		call SD_WriteCRC
 17710               	.LM1907:
 17711 64b8 80E0      		ldi r24,lo8(Log_File)
 17712 64ba 90E0      		ldi r25,hi8(Log_File)
 17713 64bc 0E94 0000 		call f_sync
 17714               	/* epilogue start */
 17715               	.LM1908:
 17716 64c0 1F91      		pop r17
 17717 64c2 0F91      		pop r16
 17718 64c4 FF90      		pop r15
 17719 64c6 EF90      		pop r14
 17720               	.LVL1376:
 17721 64c8 DF90      		pop r13
 17722 64ca CF90      		pop r12
 17723 64cc BF90      		pop r11
 17724 64ce AF90      		pop r10
 17725               	.LVL1377:
 17726 64d0 0895      		ret
 17727               	.LFE166:
 17729               	.global	Rs232_To_Debug
 17731               	Rs232_To_Debug:
 17732               	.LFB175:
 17733               	.LM1909:
 17734               	/* prologue: function */
 17735               	/* frame size = 0 */
 17736               	.L1066:
 17737               	.LBB877:
 17738               	.LBB878:
 17739               	.LM1910:
 17740 64d2 2091 0000 		lds r18,Rs232_writeLocation
 17741 64d6 3091 0000 		lds r19,(Rs232_writeLocation)+1
 17742 64da 8091 0000 		lds r24,Rs232_readLocation
 17743 64de 9091 0000 		lds r25,(Rs232_readLocation)+1
 17744 64e2 2817      		cp r18,r24
 17745 64e4 3907      		cpc r19,r25
 17746 64e6 01F4      		brne .L1067
 17747 64e8 00C0      		rjmp .L1066
 17748               	.L1061:
 17749               	.LBE878:
 17750               	.LBE877:
 17751               	.LBB879:
 17752               	.LBB880:
 17753               	.LM1911:
 17754 64ea 8091 A108 		lds r24,2209
 17755 64ee 85FF      		sbrs r24,5
 17756 64f0 00C0      		rjmp .L1061
 17757               	.LM1912:
 17758 64f2 9093 A008 		sts 2208,r25
 17759 64f6 00C0      		rjmp .L1066
 17760               	.L1067:
 17761               	.LBE880:
 17762               	.LBE879:
 17763               	.LM1913:
 17764 64f8 81E0      		ldi r24,lo8(1)
 17765 64fa 0E94 0000 		call Rs232_GetByte
 17766 64fe 982F      		mov r25,r24
 17767 6500 00C0      		rjmp .L1061
 17768               	.LFE175:
 17770               	.global	Debug_To_Wifi
 17772               	Debug_To_Wifi:
 17773               	.LFB176:
 17774               	.LM1914:
 17775               	/* prologue: function */
 17776               	/* frame size = 0 */
 17777               	.L1079:
 17778               	.LBB881:
 17779               	.LBB882:
 17780               	.LM1915:
 17781 6502 2091 0000 		lds r18,Debug_writeLocation
 17782 6506 3091 0000 		lds r19,(Debug_writeLocation)+1
 17783 650a 8091 0000 		lds r24,Debug_readLocation
 17784 650e 9091 0000 		lds r25,(Debug_readLocation)+1
 17785 6512 2817      		cp r18,r24
 17786 6514 3907      		cpc r19,r25
 17787 6516 01F4      		brne .L1080
 17788 6518 00C0      		rjmp .L1069
 17789               	.L1071:
 17790               	.LBE882:
 17791               	.LBE881:
 17792               	.LBB883:
 17793               	.LBB884:
 17794               	.LM1916:
 17795 651a 8091 A10A 		lds r24,2721
 17796 651e 85FF      		sbrs r24,5
 17797 6520 00C0      		rjmp .L1071
 17798               	.LM1917:
 17799 6522 9093 A00A 		sts 2720,r25
 17800               	.L1069:
 17801               	.LBE884:
 17802               	.LBE883:
 17803               	.LM1918:
 17804 6526 0E94 0000 		call Wifi_CharReadyToRead
 17805 652a 8823      		tst r24
 17806 652c 01F0      		breq .L1079
 17807               	.LM1919:
 17808 652e 81E0      		ldi r24,lo8(1)
 17809 6530 0E94 0000 		call Wifi_GetByte
 17810 6534 982F      		mov r25,r24
 17811               	.L1073:
 17812               	.LBB885:
 17813               	.LBB886:
 17814               	.LM1920:
 17815 6536 8091 A108 		lds r24,2209
 17816 653a 85FF      		sbrs r24,5
 17817 653c 00C0      		rjmp .L1073
 17818               	.LM1921:
 17819 653e 9093 A008 		sts 2208,r25
 17820 6542 00C0      		rjmp .L1079
 17821               	.L1080:
 17822               	.LBE886:
 17823               	.LBE885:
 17824               	.LM1922:
 17825 6544 81E0      		ldi r24,lo8(1)
 17826 6546 0E94 0000 		call Debug_GetByte
 17827 654a 982F      		mov r25,r24
 17828 654c 00C0      		rjmp .L1071
 17829               	.LFE176:
 17831               		.data
 17832               	.LC1:
 17833 000b 2E62 7400 		.string	".bt"
 17834               		.text
 17835               	.global	SD_MakeFileName
 17837               	SD_MakeFileName:
 17838               	.LFB111:
 17839               	.LM1923:
 17840               	.LVL1378:
 17841 654e 0F93      		push r16
 17842 6550 1F93      		push r17
 17843               	/* prologue: function */
 17844               	/* frame size = 0 */
 17845               	.LM1924:
 17846 6552 00E0      		ldi r16,lo8(fileName)
 17847 6554 10E0      		ldi r17,hi8(fileName)
 17848 6556 2FE2      		ldi r18,lo8(47)
 17849 6558 2093 0000 		sts fileName,r18
 17850               	.LM1925:
 17851 655c A801      		movw r20,r16
 17852 655e 4F5F      		subi r20,lo8(-(1))
 17853 6560 5F4F      		sbci r21,hi8(-(1))
 17854 6562 20E1      		ldi r18,lo8(16)
 17855 6564 30E0      		ldi r19,hi8(16)
 17856 6566 0E94 0000 		call ltoa
 17857               	.LVL1379:
 17858               	.LM1926:
 17859 656a C801      		movw r24,r16
 17860 656c 60E0      		ldi r22,lo8(.LC1)
 17861 656e 70E0      		ldi r23,hi8(.LC1)
 17862 6570 0E94 0000 		call strcat
 17863               	/* epilogue start */
 17864               	.LM1927:
 17865 6574 1F91      		pop r17
 17866 6576 0F91      		pop r16
 17867 6578 0895      		ret
 17868               	.LFE111:
 17870               	.global	SD_WriteString
 17872               	SD_WriteString:
 17873               	.LFB107:
 17874               	.LM1928:
 17875               	.LVL1380:
 17876 657a AF92      		push r10
 17877 657c BF92      		push r11
 17878 657e CF92      		push r12
 17879 6580 DF92      		push r13
 17880 6582 EF92      		push r14
 17881 6584 FF92      		push r15
 17882 6586 0F93      		push r16
 17883 6588 1F93      		push r17
 17884 658a CF93      		push r28
 17885 658c DF93      		push r29
 17886               	/* prologue: function */
 17887               	/* frame size = 0 */
 17888 658e 6C01      		movw r12,r24
 17889               	.LM1929:
 17890 6590 60E0      		ldi r22,lo8(Log_File)
 17891 6592 70E0      		ldi r23,hi8(Log_File)
 17892 6594 0E94 0000 		call f_puts
 17893               	.LVL1381:
 17894 6598 AA24      		clr r10
 17895               	.LVL1382:
 17896 659a 00C0      		rjmp .L1084
 17897               	.LVL1383:
 17898               	.L1086:
 17899               	.LBB887:
 17900               	.LM1930:
 17901 659c 2091 0000 		lds r18,CRC
 17902 65a0 3091 0000 		lds r19,(CRC)+1
 17903 65a4 4091 0000 		lds r20,(CRC)+2
 17904 65a8 5091 0000 		lds r21,(CRC)+3
 17905 65ac CC0D      		add r28,r12
 17906 65ae DD1D      		adc r29,r13
 17907 65b0 8881      		ld r24,Y
 17908 65b2 90E0      		ldi r25,lo8(0)
 17909 65b4 A0E0      		ldi r26,lo8(0)
 17910 65b6 B0E0      		ldi r27,hi8(0)
 17911 65b8 8227      		eor r24,r18
 17912 65ba 9327      		eor r25,r19
 17913 65bc A427      		eor r26,r20
 17914 65be B527      		eor r27,r21
 17915 65c0 8093 0000 		sts CRC,r24
 17916 65c4 9093 0000 		sts (CRC)+1,r25
 17917 65c8 A093 0000 		sts (CRC)+2,r26
 17918 65cc B093 0000 		sts (CRC)+3,r27
 17919 65d0 BB24      		clr r11
 17920               	.L1085:
 17921               	.LBB888:
 17922               	.LM1931:
 17923 65d2 E090 0000 		lds r14,CRC
 17924 65d6 F090 0000 		lds r15,(CRC)+1
 17925 65da 0091 0000 		lds r16,(CRC)+2
 17926 65de 1091 0000 		lds r17,(CRC)+3
 17927 65e2 6091 0000 		lds r22,CRC
 17928 65e6 7091 0000 		lds r23,(CRC)+1
 17929 65ea 8091 0000 		lds r24,(CRC)+2
 17930 65ee 9091 0000 		lds r25,(CRC)+3
 17931 65f2 6170      		andi r22,lo8(1)
 17932 65f4 7070      		andi r23,hi8(1)
 17933 65f6 8070      		andi r24,hlo8(1)
 17934 65f8 9070      		andi r25,hhi8(1)
 17935 65fa 20E2      		ldi r18,lo8(-306674912)
 17936 65fc 33E8      		ldi r19,hi8(-306674912)
 17937 65fe 48EB      		ldi r20,hlo8(-306674912)
 17938 6600 5DEE      		ldi r21,hhi8(-306674912)
 17939 6602 0E94 0000 		call __mulsi3
 17940 6606 1695      		lsr r17
 17941 6608 0795      		ror r16
 17942 660a F794      		ror r15
 17943 660c E794      		ror r14
 17944 660e E626      		eor r14,r22
 17945 6610 F726      		eor r15,r23
 17946 6612 0827      		eor r16,r24
 17947 6614 1927      		eor r17,r25
 17948 6616 E092 0000 		sts CRC,r14
 17949 661a F092 0000 		sts (CRC)+1,r15
 17950 661e 0093 0000 		sts (CRC)+2,r16
 17951 6622 1093 0000 		sts (CRC)+3,r17
 17952               	.LM1932:
 17953 6626 B394      		inc r11
 17954 6628 88E0      		ldi r24,lo8(8)
 17955 662a B816      		cp r11,r24
 17956 662c 01F4      		brne .L1085
 17957               	.LBE888:
 17958               	.LM1933:
 17959 662e A394      		inc r10
 17960               	.L1084:
 17961 6630 CA2D      		mov r28,r10
 17962 6632 D0E0      		ldi r29,lo8(0)
 17963 6634 F601      		movw r30,r12
 17964 6636 0190      		ld __tmp_reg__,Z+
 17965 6638 0020      		tst __tmp_reg__
 17966 663a 01F4      		brne .-6
 17967 663c 3197      		sbiw r30,1
 17968 663e EC19      		sub r30,r12
 17969 6640 FD09      		sbc r31,r13
 17970 6642 CE17      		cp r28,r30
 17971 6644 DF07      		cpc r29,r31
 17972 6646 00F4      		brsh .+2
 17973 6648 00C0      		rjmp .L1086
 17974               	/* epilogue start */
 17975               	.LBE887:
 17976               	.LM1934:
 17977 664a DF91      		pop r29
 17978 664c CF91      		pop r28
 17979 664e 1F91      		pop r17
 17980 6650 0F91      		pop r16
 17981 6652 FF90      		pop r15
 17982 6654 EF90      		pop r14
 17983 6656 DF90      		pop r13
 17984 6658 CF90      		pop r12
 17985               	.LVL1384:
 17986 665a BF90      		pop r11
 17987               	.LVL1385:
 17988 665c AF90      		pop r10
 17989               	.LVL1386:
 17990 665e 0895      		ret
 17991               	.LFE107:
 17993               		.data
 17994               	.LC2:
 17995 000f 4169 725F 		.string	"Air_Small"
 17995      536D 616C 
 17995      6C00 
 17996               	.LC3:
 17997 0019 3332 00   		.string	"32"
 17998               	.LC4:
 17999 001c 4169 725F 		.string	"Air_Large"
 17999      4C61 7267 
 17999      6500 
 18000               		.text
 18001               	.global	SD_WriteAirSample
 18003               	SD_WriteAirSample:
 18004               	.LFB172:
 18005               	.LM1935:
 18006 6660 0F93      		push r16
 18007 6662 1F93      		push r17
 18008               	/* prologue: function */
 18009               	/* frame size = 0 */
 18010               	.LBB889:
 18011               	.LBB890:
 18012               	.LM1936:
 18013 6664 8FEF      		ldi r24,lo8(-1)
 18014 6666 9FEF      		ldi r25,hi8(-1)
 18015 6668 AFEF      		ldi r26,hlo8(-1)
 18016 666a BFEF      		ldi r27,hhi8(-1)
 18017 666c 8093 0000 		sts CRC,r24
 18018 6670 9093 0000 		sts (CRC)+1,r25
 18019 6674 A093 0000 		sts (CRC)+2,r26
 18020 6678 B093 0000 		sts (CRC)+3,r27
 18021               	.LBE890:
 18022               	.LBE889:
 18023               	.LM1937:
 18024 667c 6CE4      		ldi r22,lo8(-1327598516)
 18025 667e 74E7      		ldi r23,hi8(-1327598516)
 18026 6680 8EED      		ldi r24,hlo8(-1327598516)
 18027 6682 90EB      		ldi r25,hhi8(-1327598516)
 18028 6684 0E94 0000 		call SD_Write32
 18029               	.LM1938:
 18030 6688 6DE3      		ldi r22,lo8(61)
 18031 668a 70E0      		ldi r23,hi8(61)
 18032 668c 80E0      		ldi r24,hlo8(61)
 18033 668e 90E0      		ldi r25,hhi8(61)
 18034 6690 0E94 0000 		call SD_Write32
 18035               	.LM1939:
 18036 6694 83E0      		ldi r24,lo8(3)
 18037 6696 90E0      		ldi r25,hi8(3)
 18038 6698 0E94 0000 		call SD_Write16
 18039               	.LM1940:
 18040 669c 6091 0000 		lds r22,airSampleTime
 18041 66a0 7091 0000 		lds r23,(airSampleTime)+1
 18042 66a4 8091 0000 		lds r24,(airSampleTime)+2
 18043 66a8 9091 0000 		lds r25,(airSampleTime)+3
 18044 66ac 0E94 0000 		call SD_Write32
 18045               	.LM1941:
 18046 66b0 60E0      		ldi r22,lo8(110592000)
 18047 66b2 70E8      		ldi r23,hi8(110592000)
 18048 66b4 87E9      		ldi r24,hlo8(110592000)
 18049 66b6 96E0      		ldi r25,hhi8(110592000)
 18050 66b8 0E94 0000 		call SD_Write32
 18051               	.LM1942:
 18052 66bc 61E0      		ldi r22,lo8(1)
 18053 66be 70E0      		ldi r23,hi8(1)
 18054 66c0 80E0      		ldi r24,hlo8(1)
 18055 66c2 90E0      		ldi r25,hhi8(1)
 18056 66c4 0E94 0000 		call SD_Write32
 18057               	.LM1943:
 18058 66c8 80E0      		ldi r24,lo8(.LC2)
 18059 66ca 90E0      		ldi r25,hi8(.LC2)
 18060 66cc 0E94 0000 		call SD_WriteString
 18061               	.LM1944:
 18062 66d0 89E0      		ldi r24,lo8(9)
 18063 66d2 0E94 0000 		call SD_Write8
 18064               	.LM1945:
 18065 66d6 00E0      		ldi r16,lo8(.LC3)
 18066 66d8 10E0      		ldi r17,hi8(.LC3)
 18067 66da C801      		movw r24,r16
 18068 66dc 0E94 0000 		call SD_WriteString
 18069               	.LM1946:
 18070 66e0 8AE0      		ldi r24,lo8(10)
 18071 66e2 0E94 0000 		call SD_Write8
 18072               	.LM1947:
 18073 66e6 80E0      		ldi r24,lo8(.LC4)
 18074 66e8 90E0      		ldi r25,hi8(.LC4)
 18075 66ea 0E94 0000 		call SD_WriteString
 18076               	.LM1948:
 18077 66ee 89E0      		ldi r24,lo8(9)
 18078 66f0 0E94 0000 		call SD_Write8
 18079               	.LM1949:
 18080 66f4 C801      		movw r24,r16
 18081 66f6 0E94 0000 		call SD_WriteString
 18082               	.LM1950:
 18083 66fa 8AE0      		ldi r24,lo8(10)
 18084 66fc 0E94 0000 		call SD_Write8
 18085               	.LM1951:
 18086 6700 80E0      		ldi r24,lo8(0)
 18087 6702 0E94 0000 		call SD_Write8
 18088               	.LM1952:
 18089 6706 6091 0000 		lds r22,smallCount
 18090 670a 7091 0000 		lds r23,(smallCount)+1
 18091 670e 8091 0000 		lds r24,(smallCount)+2
 18092 6712 9091 0000 		lds r25,(smallCount)+3
 18093 6716 0E94 0000 		call SD_Write32
 18094               	.LM1953:
 18095 671a 6091 0000 		lds r22,largeCount
 18096 671e 7091 0000 		lds r23,(largeCount)+1
 18097 6722 8091 0000 		lds r24,(largeCount)+2
 18098 6726 9091 0000 		lds r25,(largeCount)+3
 18099 672a 0E94 0000 		call SD_Write32
 18100               	.LM1954:
 18101 672e 0E94 0000 		call SD_WriteCRC
 18102               	.LM1955:
 18103 6732 80E0      		ldi r24,lo8(Log_File)
 18104 6734 90E0      		ldi r25,hi8(Log_File)
 18105 6736 0E94 0000 		call f_sync
 18106               	/* epilogue start */
 18107               	.LM1956:
 18108 673a 1F91      		pop r17
 18109 673c 0F91      		pop r16
 18110 673e 0895      		ret
 18111               	.LFE172:
 18113               		.data
 18114               	.LC5:
 18115 0026 4C69 6768 		.string	"Light_Green"
 18115      745F 4772 
 18115      6565 6E00 
 18116               	.LC6:
 18117 0032 4C69 6768 		.string	"Light_Red"
 18117      745F 5265 
 18117      6400 
 18118               	.LC7:
 18119 003c 4C69 6768 		.string	"Light_Blue"
 18119      745F 426C 
 18119      7565 00
 18120               	.LC8:
 18121 0047 4C69 6768 		.string	"Light_Clear"
 18121      745F 436C 
 18121      6561 7200 
 18122               		.text
 18123               	.global	SD_WriteLightBuffer
 18125               	SD_WriteLightBuffer:
 18126               	.LFB171:
 18127               	.LM1957:
 18128               	.LVL1387:
 18129 6740 1F93      		push r17
 18130 6742 CF93      		push r28
 18131 6744 DF93      		push r29
 18132               	/* prologue: function */
 18133               	/* frame size = 0 */
 18134 6746 182F      		mov r17,r24
 18135               	.LBB891:
 18136               	.LBB892:
 18137               	.LM1958:
 18138 6748 8FEF      		ldi r24,lo8(-1)
 18139 674a 9FEF      		ldi r25,hi8(-1)
 18140 674c AFEF      		ldi r26,hlo8(-1)
 18141 674e BFEF      		ldi r27,hhi8(-1)
 18142               	.LVL1388:
 18143 6750 8093 0000 		sts CRC,r24
 18144 6754 9093 0000 		sts (CRC)+1,r25
 18145 6758 A093 0000 		sts (CRC)+2,r26
 18146 675c B093 0000 		sts (CRC)+3,r27
 18147               	.LBE892:
 18148               	.LBE891:
 18149               	.LM1959:
 18150 6760 6CE4      		ldi r22,lo8(-1327598516)
 18151 6762 74E7      		ldi r23,hi8(-1327598516)
 18152 6764 8EED      		ldi r24,hlo8(-1327598516)
 18153 6766 90EB      		ldi r25,hhi8(-1327598516)
 18154 6768 0E94 0000 		call SD_Write32
 18155               	.LM1960:
 18156 676c 64EF      		ldi r22,lo8(244)
 18157 676e 70E0      		ldi r23,hi8(244)
 18158 6770 80E0      		ldi r24,hlo8(244)
 18159 6772 90E0      		ldi r25,hhi8(244)
 18160 6774 0E94 0000 		call SD_Write32
 18161               	.LM1961:
 18162 6778 83E0      		ldi r24,lo8(3)
 18163 677a 90E0      		ldi r25,hi8(3)
 18164 677c 0E94 0000 		call SD_Write16
 18165               	.LM1962:
 18166 6780 1130      		cpi r17,lo8(1)
 18167 6782 01F4      		brne .L1092
 18168               	.LM1963:
 18169 6784 6091 0000 		lds r22,lightSampleStartTime1
 18170 6788 7091 0000 		lds r23,(lightSampleStartTime1)+1
 18171 678c 8091 0000 		lds r24,(lightSampleStartTime1)+2
 18172 6790 9091 0000 		lds r25,(lightSampleStartTime1)+3
 18173 6794 00C0      		rjmp .L1101
 18174               	.L1092:
 18175               	.LM1964:
 18176 6796 6091 0000 		lds r22,lightSampleStartTime2
 18177 679a 7091 0000 		lds r23,(lightSampleStartTime2)+1
 18178 679e 8091 0000 		lds r24,(lightSampleStartTime2)+2
 18179 67a2 9091 0000 		lds r25,(lightSampleStartTime2)+3
 18180               	.L1101:
 18181 67a6 0E94 0000 		call SD_Write32
 18182               	.LM1965:
 18183 67aa 60E0      		ldi r22,lo8(1843200)
 18184 67ac 70E2      		ldi r23,hi8(1843200)
 18185 67ae 8CE1      		ldi r24,hlo8(1843200)
 18186 67b0 90E0      		ldi r25,hhi8(1843200)
 18187 67b2 0E94 0000 		call SD_Write32
 18188               	.LM1966:
 18189 67b6 6AE0      		ldi r22,lo8(10)
 18190 67b8 70E0      		ldi r23,hi8(10)
 18191 67ba 80E0      		ldi r24,hlo8(10)
 18192 67bc 90E0      		ldi r25,hhi8(10)
 18193 67be 0E94 0000 		call SD_Write32
 18194               	.LM1967:
 18195 67c2 80E0      		ldi r24,lo8(.LC5)
 18196 67c4 90E0      		ldi r25,hi8(.LC5)
 18197 67c6 0E94 0000 		call SD_WriteString
 18198               	.LM1968:
 18199 67ca 89E0      		ldi r24,lo8(9)
 18200 67cc 0E94 0000 		call SD_Write8
 18201               	.LM1969:
 18202 67d0 80E0      		ldi r24,lo8(.LC3)
 18203 67d2 90E0      		ldi r25,hi8(.LC3)
 18204 67d4 0E94 0000 		call SD_WriteString
 18205               	.LM1970:
 18206 67d8 8AE0      		ldi r24,lo8(10)
 18207 67da 0E94 0000 		call SD_Write8
 18208               	.LM1971:
 18209 67de 80E0      		ldi r24,lo8(.LC6)
 18210 67e0 90E0      		ldi r25,hi8(.LC6)
 18211 67e2 0E94 0000 		call SD_WriteString
 18212               	.LM1972:
 18213 67e6 89E0      		ldi r24,lo8(9)
 18214 67e8 0E94 0000 		call SD_Write8
 18215               	.LM1973:
 18216 67ec 80E0      		ldi r24,lo8(.LC3)
 18217 67ee 90E0      		ldi r25,hi8(.LC3)
 18218 67f0 0E94 0000 		call SD_WriteString
 18219               	.LM1974:
 18220 67f4 8AE0      		ldi r24,lo8(10)
 18221 67f6 0E94 0000 		call SD_Write8
 18222               	.LM1975:
 18223 67fa 80E0      		ldi r24,lo8(.LC7)
 18224 67fc 90E0      		ldi r25,hi8(.LC7)
 18225 67fe 0E94 0000 		call SD_WriteString
 18226               	.LM1976:
 18227 6802 89E0      		ldi r24,lo8(9)
 18228 6804 0E94 0000 		call SD_Write8
 18229               	.LM1977:
 18230 6808 80E0      		ldi r24,lo8(.LC3)
 18231 680a 90E0      		ldi r25,hi8(.LC3)
 18232 680c 0E94 0000 		call SD_WriteString
 18233               	.LM1978:
 18234 6810 8AE0      		ldi r24,lo8(10)
 18235 6812 0E94 0000 		call SD_Write8
 18236               	.LM1979:
 18237 6816 80E0      		ldi r24,lo8(.LC8)
 18238 6818 90E0      		ldi r25,hi8(.LC8)
 18239 681a 0E94 0000 		call SD_WriteString
 18240               	.LM1980:
 18241 681e 89E0      		ldi r24,lo8(9)
 18242 6820 0E94 0000 		call SD_Write8
 18243               	.LM1981:
 18244 6824 80E0      		ldi r24,lo8(.LC3)
 18245 6826 90E0      		ldi r25,hi8(.LC3)
 18246 6828 0E94 0000 		call SD_WriteString
 18247               	.LM1982:
 18248 682c 8AE0      		ldi r24,lo8(10)
 18249 682e 0E94 0000 		call SD_Write8
 18250               	.LM1983:
 18251 6832 80E0      		ldi r24,lo8(0)
 18252 6834 0E94 0000 		call SD_Write8
 18253               	.LM1984:
 18254 6838 1130      		cpi r17,lo8(1)
 18255 683a 01F4      		brne .L1094
 18256 683c C0E0      		ldi r28,lo8(lightBuffer1)
 18257 683e D0E0      		ldi r29,hi8(lightBuffer1)
 18258               	.L1095:
 18259               	.LBB893:
 18260               	.LM1985:
 18261 6840 6991      		ld r22,Y+
 18262 6842 7991      		ld r23,Y+
 18263 6844 8991      		ld r24,Y+
 18264 6846 9991      		ld r25,Y+
 18265 6848 0E94 0000 		call SD_Write32
 18266               	.LM1986:
 18267 684c 80E0      		ldi r24,hi8(lightBuffer1+160)
 18268 684e C030      		cpi r28,lo8(lightBuffer1+160)
 18269 6850 D807      		cpc r29,r24
 18270 6852 01F4      		brne .L1095
 18271 6854 00C0      		rjmp .L1096
 18272               	.L1094:
 18273 6856 C0E0      		ldi r28,lo8(lightBuffer2)
 18274 6858 D0E0      		ldi r29,hi8(lightBuffer2)
 18275               	.L1097:
 18276               	.LBE893:
 18277               	.LBB894:
 18278               	.LM1987:
 18279 685a 6991      		ld r22,Y+
 18280 685c 7991      		ld r23,Y+
 18281 685e 8991      		ld r24,Y+
 18282 6860 9991      		ld r25,Y+
 18283 6862 0E94 0000 		call SD_Write32
 18284               	.LM1988:
 18285 6866 80E0      		ldi r24,hi8(lightBuffer2+160)
 18286 6868 C030      		cpi r28,lo8(lightBuffer2+160)
 18287 686a D807      		cpc r29,r24
 18288 686c 01F4      		brne .L1097
 18289               	.L1096:
 18290               	.LBE894:
 18291               	.LM1989:
 18292 686e 0E94 0000 		call SD_WriteCRC
 18293               	.LM1990:
 18294 6872 80E0      		ldi r24,lo8(Log_File)
 18295 6874 90E0      		ldi r25,hi8(Log_File)
 18296 6876 0E94 0000 		call f_sync
 18297               	/* epilogue start */
 18298               	.LM1991:
 18299 687a DF91      		pop r29
 18300 687c CF91      		pop r28
 18301 687e 1F91      		pop r17
 18302               	.LVL1389:
 18303 6880 0895      		ret
 18304               	.LFE171:
 18306               		.data
 18307               	.LC9:
 18308 0053 4D69 6372 		.string	"Microphone"
 18308      6F70 686F 
 18308      6E65 00
 18309               	.LC10:
 18310 005e 3800      		.string	"8"
 18311               		.text
 18312               	.global	SD_WriteMicrophoneBuffer
 18314               	SD_WriteMicrophoneBuffer:
 18315               	.LFB170:
 18316               	.LM1992:
 18317               	.LVL1390:
 18318 6882 1F93      		push r17
 18319               	/* prologue: function */
 18320               	/* frame size = 0 */
 18321 6884 182F      		mov r17,r24
 18322               	.LBB895:
 18323               	.LBB896:
 18324               	.LM1993:
 18325 6886 8FEF      		ldi r24,lo8(-1)
 18326 6888 9FEF      		ldi r25,hi8(-1)
 18327 688a AFEF      		ldi r26,hlo8(-1)
 18328 688c BFEF      		ldi r27,hhi8(-1)
 18329               	.LVL1391:
 18330 688e 8093 0000 		sts CRC,r24
 18331 6892 9093 0000 		sts (CRC)+1,r25
 18332 6896 A093 0000 		sts (CRC)+2,r26
 18333 689a B093 0000 		sts (CRC)+3,r27
 18334               	.LBE896:
 18335               	.LBE895:
 18336               	.LM1994:
 18337 689e 6CE4      		ldi r22,lo8(-1327598516)
 18338 68a0 74E7      		ldi r23,hi8(-1327598516)
 18339 68a2 8EED      		ldi r24,hlo8(-1327598516)
 18340 68a4 90EB      		ldi r25,hhi8(-1327598516)
 18341 68a6 0E94 0000 		call SD_Write32
 18342               	.LM1995:
 18343 68aa 60E1      		ldi r22,lo8(1040)
 18344 68ac 74E0      		ldi r23,hi8(1040)
 18345 68ae 80E0      		ldi r24,hlo8(1040)
 18346 68b0 90E0      		ldi r25,hhi8(1040)
 18347 68b2 0E94 0000 		call SD_Write32
 18348               	.LM1996:
 18349 68b6 83E0      		ldi r24,lo8(3)
 18350 68b8 90E0      		ldi r25,hi8(3)
 18351 68ba 0E94 0000 		call SD_Write16
 18352               	.LM1997:
 18353 68be 1130      		cpi r17,lo8(1)
 18354 68c0 01F4      		brne .L1103
 18355               	.LM1998:
 18356 68c2 6091 0000 		lds r22,microphoneSampleStartTime1
 18357 68c6 7091 0000 		lds r23,(microphoneSampleStartTime1)+1
 18358 68ca 8091 0000 		lds r24,(microphoneSampleStartTime1)+2
 18359 68ce 9091 0000 		lds r25,(microphoneSampleStartTime1)+3
 18360 68d2 00C0      		rjmp .L1108
 18361               	.L1103:
 18362               	.LM1999:
 18363 68d4 6091 0000 		lds r22,microphoneSampleStartTime2
 18364 68d8 7091 0000 		lds r23,(microphoneSampleStartTime2)+1
 18365 68dc 8091 0000 		lds r24,(microphoneSampleStartTime2)+2
 18366 68e0 9091 0000 		lds r25,(microphoneSampleStartTime2)+3
 18367               	.L1108:
 18368 68e4 0E94 0000 		call SD_Write32
 18369               	.LM2000:
 18370 68e8 60E0      		ldi r22,lo8(256)
 18371 68ea 71E0      		ldi r23,hi8(256)
 18372 68ec 80E0      		ldi r24,hlo8(256)
 18373 68ee 90E0      		ldi r25,hhi8(256)
 18374 68f0 0E94 0000 		call SD_Write32
 18375               	.LM2001:
 18376 68f4 68EE      		ldi r22,lo8(1000)
 18377 68f6 73E0      		ldi r23,hi8(1000)
 18378 68f8 80E0      		ldi r24,hlo8(1000)
 18379 68fa 90E0      		ldi r25,hhi8(1000)
 18380 68fc 0E94 0000 		call SD_Write32
 18381               	.LM2002:
 18382 6900 80E0      		ldi r24,lo8(.LC9)
 18383 6902 90E0      		ldi r25,hi8(.LC9)
 18384 6904 0E94 0000 		call SD_WriteString
 18385               	.LM2003:
 18386 6908 89E0      		ldi r24,lo8(9)
 18387 690a 0E94 0000 		call SD_Write8
 18388               	.LM2004:
 18389 690e 80E0      		ldi r24,lo8(.LC10)
 18390 6910 90E0      		ldi r25,hi8(.LC10)
 18391 6912 0E94 0000 		call SD_WriteString
 18392               	.LM2005:
 18393 6916 8AE0      		ldi r24,lo8(10)
 18394 6918 0E94 0000 		call SD_Write8
 18395               	.LM2006:
 18396 691c 80E0      		ldi r24,lo8(0)
 18397 691e 0E94 0000 		call SD_Write8
 18398               	.LM2007:
 18399 6922 1130      		cpi r17,lo8(1)
 18400 6924 01F4      		brne .L1105
 18401               	.LM2008:
 18402 6926 80E0      		ldi r24,lo8(microphoneBuffer1)
 18403 6928 90E0      		ldi r25,hi8(microphoneBuffer1)
 18404 692a 00C0      		rjmp .L1109
 18405               	.L1105:
 18406               	.LM2009:
 18407 692c 80E0      		ldi r24,lo8(microphoneBuffer2)
 18408 692e 90E0      		ldi r25,hi8(microphoneBuffer2)
 18409               	.L1109:
 18410 6930 68EE      		ldi r22,lo8(1000)
 18411 6932 73E0      		ldi r23,hi8(1000)
 18412 6934 0E94 0000 		call SD_WriteBuffer
 18413               	.LM2010:
 18414 6938 0E94 0000 		call SD_WriteCRC
 18415               	.LM2011:
 18416 693c 80E0      		ldi r24,lo8(Log_File)
 18417 693e 90E0      		ldi r25,hi8(Log_File)
 18418 6940 0E94 0000 		call f_sync
 18419               	/* epilogue start */
 18420               	.LM2012:
 18421 6944 1F91      		pop r17
 18422               	.LVL1392:
 18423 6946 0895      		ret
 18424               	.LFE170:
 18426               		.data
 18427               	.LC11:
 18428 0060 5072 6573 		.string	"Pressure"
 18428      7375 7265 
 18428      00
 18429               		.text
 18430               	.global	SD_WritePressureBuffer
 18432               	SD_WritePressureBuffer:
 18433               	.LFB169:
 18434               	.LM2013:
 18435               	.LVL1393:
 18436 6948 1F93      		push r17
 18437 694a CF93      		push r28
 18438 694c DF93      		push r29
 18439               	/* prologue: function */
 18440               	/* frame size = 0 */
 18441 694e 182F      		mov r17,r24
 18442               	.LBB897:
 18443               	.LBB898:
 18444               	.LM2014:
 18445 6950 8FEF      		ldi r24,lo8(-1)
 18446 6952 9FEF      		ldi r25,hi8(-1)
 18447 6954 AFEF      		ldi r26,hlo8(-1)
 18448 6956 BFEF      		ldi r27,hhi8(-1)
 18449               	.LVL1394:
 18450 6958 8093 0000 		sts CRC,r24
 18451 695c 9093 0000 		sts (CRC)+1,r25
 18452 6960 A093 0000 		sts (CRC)+2,r26
 18453 6964 B093 0000 		sts (CRC)+3,r27
 18454               	.LBE898:
 18455               	.LBE897:
 18456               	.LM2015:
 18457 6968 6CE4      		ldi r22,lo8(-1327598516)
 18458 696a 74E7      		ldi r23,hi8(-1327598516)
 18459 696c 8EED      		ldi r24,hlo8(-1327598516)
 18460 696e 90EB      		ldi r25,hhi8(-1327598516)
 18461 6970 0E94 0000 		call SD_Write32
 18462               	.LM2016:
 18463 6974 60E3      		ldi r22,lo8(48)
 18464 6976 70E0      		ldi r23,hi8(48)
 18465 6978 80E0      		ldi r24,hlo8(48)
 18466 697a 90E0      		ldi r25,hhi8(48)
 18467 697c 0E94 0000 		call SD_Write32
 18468               	.LM2017:
 18469 6980 83E0      		ldi r24,lo8(3)
 18470 6982 90E0      		ldi r25,hi8(3)
 18471 6984 0E94 0000 		call SD_Write16
 18472               	.LM2018:
 18473 6988 1130      		cpi r17,lo8(1)
 18474 698a 01F4      		brne .L1111
 18475               	.LM2019:
 18476 698c 6091 0000 		lds r22,pressureSampleStartTime1
 18477 6990 7091 0000 		lds r23,(pressureSampleStartTime1)+1
 18478 6994 8091 0000 		lds r24,(pressureSampleStartTime1)+2
 18479 6998 9091 0000 		lds r25,(pressureSampleStartTime1)+3
 18480 699c 00C0      		rjmp .L1120
 18481               	.L1111:
 18482               	.LM2020:
 18483 699e 6091 0000 		lds r22,pressureSampleStartTime2
 18484 69a2 7091 0000 		lds r23,(pressureSampleStartTime2)+1
 18485 69a6 8091 0000 		lds r24,(pressureSampleStartTime2)+2
 18486 69aa 9091 0000 		lds r25,(pressureSampleStartTime2)+3
 18487               	.L1120:
 18488 69ae 0E94 0000 		call SD_Write32
 18489               	.LM2021:
 18490 69b2 60E0      		ldi r22,lo8(1843200)
 18491 69b4 70E2      		ldi r23,hi8(1843200)
 18492 69b6 8CE1      		ldi r24,hlo8(1843200)
 18493 69b8 90E0      		ldi r25,hhi8(1843200)
 18494 69ba 0E94 0000 		call SD_Write32
 18495               	.LM2022:
 18496 69be 6AE0      		ldi r22,lo8(10)
 18497 69c0 70E0      		ldi r23,hi8(10)
 18498 69c2 80E0      		ldi r24,hlo8(10)
 18499 69c4 90E0      		ldi r25,hhi8(10)
 18500 69c6 0E94 0000 		call SD_Write32
 18501               	.LM2023:
 18502 69ca 80E0      		ldi r24,lo8(.LC11)
 18503 69cc 90E0      		ldi r25,hi8(.LC11)
 18504 69ce 0E94 0000 		call SD_WriteString
 18505               	.LM2024:
 18506 69d2 89E0      		ldi r24,lo8(9)
 18507 69d4 0E94 0000 		call SD_Write8
 18508               	.LM2025:
 18509 69d8 80E0      		ldi r24,lo8(.LC10)
 18510 69da 90E0      		ldi r25,hi8(.LC10)
 18511 69dc 0E94 0000 		call SD_WriteString
 18512               	.LM2026:
 18513 69e0 8AE0      		ldi r24,lo8(10)
 18514 69e2 0E94 0000 		call SD_Write8
 18515               	.LM2027:
 18516 69e6 80E0      		ldi r24,lo8(0)
 18517 69e8 0E94 0000 		call SD_Write8
 18518               	.LM2028:
 18519 69ec 1130      		cpi r17,lo8(1)
 18520 69ee 01F4      		brne .L1113
 18521 69f0 C0E0      		ldi r28,lo8(pressureBuffer1)
 18522 69f2 D0E0      		ldi r29,hi8(pressureBuffer1)
 18523               	.L1114:
 18524               	.LBB899:
 18525               	.LM2029:
 18526 69f4 8991      		ld r24,Y+
 18527 69f6 0E94 0000 		call SD_Write8
 18528               	.LM2030:
 18529 69fa 80E0      		ldi r24,hi8(pressureBuffer1+10)
 18530 69fc C030      		cpi r28,lo8(pressureBuffer1+10)
 18531 69fe D807      		cpc r29,r24
 18532 6a00 01F4      		brne .L1114
 18533 6a02 00C0      		rjmp .L1115
 18534               	.L1113:
 18535 6a04 C0E0      		ldi r28,lo8(pressureBuffer2)
 18536 6a06 D0E0      		ldi r29,hi8(pressureBuffer2)
 18537               	.L1116:
 18538               	.LBE899:
 18539               	.LBB900:
 18540               	.LM2031:
 18541 6a08 8991      		ld r24,Y+
 18542 6a0a 0E94 0000 		call SD_Write8
 18543               	.LM2032:
 18544 6a0e 80E0      		ldi r24,hi8(pressureBuffer2+10)
 18545 6a10 C030      		cpi r28,lo8(pressureBuffer2+10)
 18546 6a12 D807      		cpc r29,r24
 18547 6a14 01F4      		brne .L1116
 18548               	.L1115:
 18549               	.LBE900:
 18550               	.LM2033:
 18551 6a16 0E94 0000 		call SD_WriteCRC
 18552               	.LM2034:
 18553 6a1a 80E0      		ldi r24,lo8(Log_File)
 18554 6a1c 90E0      		ldi r25,hi8(Log_File)
 18555 6a1e 0E94 0000 		call f_sync
 18556               	/* epilogue start */
 18557               	.LM2035:
 18558 6a22 DF91      		pop r29
 18559 6a24 CF91      		pop r28
 18560 6a26 1F91      		pop r17
 18561               	.LVL1395:
 18562 6a28 0895      		ret
 18563               	.LFE169:
 18565               		.data
 18566               	.LC12:
 18567 0069 4875 6D69 		.string	"Humidity"
 18567      6469 7479 
 18567      00
 18568               		.text
 18569               	.global	SD_WriteHumidityBuffer
 18571               	SD_WriteHumidityBuffer:
 18572               	.LFB168:
 18573               	.LM2036:
 18574               	.LVL1396:
 18575 6a2a 1F93      		push r17
 18576 6a2c CF93      		push r28
 18577 6a2e DF93      		push r29
 18578               	/* prologue: function */
 18579               	/* frame size = 0 */
 18580 6a30 182F      		mov r17,r24
 18581               	.LBB901:
 18582               	.LBB902:
 18583               	.LM2037:
 18584 6a32 8FEF      		ldi r24,lo8(-1)
 18585 6a34 9FEF      		ldi r25,hi8(-1)
 18586 6a36 AFEF      		ldi r26,hlo8(-1)
 18587 6a38 BFEF      		ldi r27,hhi8(-1)
 18588               	.LVL1397:
 18589 6a3a 8093 0000 		sts CRC,r24
 18590 6a3e 9093 0000 		sts (CRC)+1,r25
 18591 6a42 A093 0000 		sts (CRC)+2,r26
 18592 6a46 B093 0000 		sts (CRC)+3,r27
 18593               	.LBE902:
 18594               	.LBE901:
 18595               	.LM2038:
 18596 6a4a 6CE4      		ldi r22,lo8(-1327598516)
 18597 6a4c 74E7      		ldi r23,hi8(-1327598516)
 18598 6a4e 8EED      		ldi r24,hlo8(-1327598516)
 18599 6a50 90EB      		ldi r25,hhi8(-1327598516)
 18600 6a52 0E94 0000 		call SD_Write32
 18601               	.LM2039:
 18602 6a56 60E3      		ldi r22,lo8(48)
 18603 6a58 70E0      		ldi r23,hi8(48)
 18604 6a5a 80E0      		ldi r24,hlo8(48)
 18605 6a5c 90E0      		ldi r25,hhi8(48)
 18606 6a5e 0E94 0000 		call SD_Write32
 18607               	.LM2040:
 18608 6a62 83E0      		ldi r24,lo8(3)
 18609 6a64 90E0      		ldi r25,hi8(3)
 18610 6a66 0E94 0000 		call SD_Write16
 18611               	.LM2041:
 18612 6a6a 1130      		cpi r17,lo8(1)
 18613 6a6c 01F4      		brne .L1122
 18614               	.LM2042:
 18615 6a6e 6091 0000 		lds r22,humiditySampleStartTime1
 18616 6a72 7091 0000 		lds r23,(humiditySampleStartTime1)+1
 18617 6a76 8091 0000 		lds r24,(humiditySampleStartTime1)+2
 18618 6a7a 9091 0000 		lds r25,(humiditySampleStartTime1)+3
 18619 6a7e 00C0      		rjmp .L1131
 18620               	.L1122:
 18621               	.LM2043:
 18622 6a80 6091 0000 		lds r22,humiditySampleStartTime2
 18623 6a84 7091 0000 		lds r23,(humiditySampleStartTime2)+1
 18624 6a88 8091 0000 		lds r24,(humiditySampleStartTime2)+2
 18625 6a8c 9091 0000 		lds r25,(humiditySampleStartTime2)+3
 18626               	.L1131:
 18627 6a90 0E94 0000 		call SD_Write32
 18628               	.LM2044:
 18629 6a94 60E0      		ldi r22,lo8(1843200)
 18630 6a96 70E2      		ldi r23,hi8(1843200)
 18631 6a98 8CE1      		ldi r24,hlo8(1843200)
 18632 6a9a 90E0      		ldi r25,hhi8(1843200)
 18633 6a9c 0E94 0000 		call SD_Write32
 18634               	.LM2045:
 18635 6aa0 6AE0      		ldi r22,lo8(10)
 18636 6aa2 70E0      		ldi r23,hi8(10)
 18637 6aa4 80E0      		ldi r24,hlo8(10)
 18638 6aa6 90E0      		ldi r25,hhi8(10)
 18639 6aa8 0E94 0000 		call SD_Write32
 18640               	.LM2046:
 18641 6aac 80E0      		ldi r24,lo8(.LC12)
 18642 6aae 90E0      		ldi r25,hi8(.LC12)
 18643 6ab0 0E94 0000 		call SD_WriteString
 18644               	.LM2047:
 18645 6ab4 89E0      		ldi r24,lo8(9)
 18646 6ab6 0E94 0000 		call SD_Write8
 18647               	.LM2048:
 18648 6aba 80E0      		ldi r24,lo8(.LC10)
 18649 6abc 90E0      		ldi r25,hi8(.LC10)
 18650 6abe 0E94 0000 		call SD_WriteString
 18651               	.LM2049:
 18652 6ac2 8AE0      		ldi r24,lo8(10)
 18653 6ac4 0E94 0000 		call SD_Write8
 18654               	.LM2050:
 18655 6ac8 80E0      		ldi r24,lo8(0)
 18656 6aca 0E94 0000 		call SD_Write8
 18657               	.LM2051:
 18658 6ace 1130      		cpi r17,lo8(1)
 18659 6ad0 01F4      		brne .L1124
 18660 6ad2 C0E0      		ldi r28,lo8(humidityBuffer1)
 18661 6ad4 D0E0      		ldi r29,hi8(humidityBuffer1)
 18662               	.L1125:
 18663               	.LBB903:
 18664               	.LM2052:
 18665 6ad6 8991      		ld r24,Y+
 18666 6ad8 0E94 0000 		call SD_Write8
 18667               	.LM2053:
 18668 6adc 80E0      		ldi r24,hi8(humidityBuffer1+10)
 18669 6ade C030      		cpi r28,lo8(humidityBuffer1+10)
 18670 6ae0 D807      		cpc r29,r24
 18671 6ae2 01F4      		brne .L1125
 18672 6ae4 00C0      		rjmp .L1126
 18673               	.L1124:
 18674 6ae6 C0E0      		ldi r28,lo8(humidityBuffer2)
 18675 6ae8 D0E0      		ldi r29,hi8(humidityBuffer2)
 18676               	.L1127:
 18677               	.LBE903:
 18678               	.LBB904:
 18679               	.LM2054:
 18680 6aea 8991      		ld r24,Y+
 18681 6aec 0E94 0000 		call SD_Write8
 18682               	.LM2055:
 18683 6af0 80E0      		ldi r24,hi8(humidityBuffer2+10)
 18684 6af2 C030      		cpi r28,lo8(humidityBuffer2+10)
 18685 6af4 D807      		cpc r29,r24
 18686 6af6 01F4      		brne .L1127
 18687               	.L1126:
 18688               	.LBE904:
 18689               	.LM2056:
 18690 6af8 0E94 0000 		call SD_WriteCRC
 18691               	.LM2057:
 18692 6afc 80E0      		ldi r24,lo8(Log_File)
 18693 6afe 90E0      		ldi r25,hi8(Log_File)
 18694 6b00 0E94 0000 		call f_sync
 18695               	/* epilogue start */
 18696               	.LM2058:
 18697 6b04 DF91      		pop r29
 18698 6b06 CF91      		pop r28
 18699 6b08 1F91      		pop r17
 18700               	.LVL1398:
 18701 6b0a 0895      		ret
 18702               	.LFE168:
 18704               		.data
 18705               	.LC13:
 18706 0072 5465 6D70 		.string	"Temperature"
 18706      6572 6174 
 18706      7572 6500 
 18707               	.LC14:
 18708 007e 3136 00   		.string	"16"
 18709               		.text
 18710               	.global	SD_WriteTemperatureBuffer
 18712               	SD_WriteTemperatureBuffer:
 18713               	.LFB167:
 18714               	.LM2059:
 18715               	.LVL1399:
 18716 6b0c 1F93      		push r17
 18717 6b0e CF93      		push r28
 18718 6b10 DF93      		push r29
 18719               	/* prologue: function */
 18720               	/* frame size = 0 */
 18721 6b12 182F      		mov r17,r24
 18722               	.LBB905:
 18723               	.LBB906:
 18724               	.LM2060:
 18725 6b14 8FEF      		ldi r24,lo8(-1)
 18726 6b16 9FEF      		ldi r25,hi8(-1)
 18727 6b18 AFEF      		ldi r26,hlo8(-1)
 18728 6b1a BFEF      		ldi r27,hhi8(-1)
 18729               	.LVL1400:
 18730 6b1c 8093 0000 		sts CRC,r24
 18731 6b20 9093 0000 		sts (CRC)+1,r25
 18732 6b24 A093 0000 		sts (CRC)+2,r26
 18733 6b28 B093 0000 		sts (CRC)+3,r27
 18734               	.LBE906:
 18735               	.LBE905:
 18736               	.LM2061:
 18737 6b2c 6CE4      		ldi r22,lo8(-1327598516)
 18738 6b2e 74E7      		ldi r23,hi8(-1327598516)
 18739 6b30 8EED      		ldi r24,hlo8(-1327598516)
 18740 6b32 90EB      		ldi r25,hhi8(-1327598516)
 18741 6b34 0E94 0000 		call SD_Write32
 18742               	.LM2062:
 18743 6b38 6EE3      		ldi r22,lo8(62)
 18744 6b3a 70E0      		ldi r23,hi8(62)
 18745 6b3c 80E0      		ldi r24,hlo8(62)
 18746 6b3e 90E0      		ldi r25,hhi8(62)
 18747 6b40 0E94 0000 		call SD_Write32
 18748               	.LM2063:
 18749 6b44 83E0      		ldi r24,lo8(3)
 18750 6b46 90E0      		ldi r25,hi8(3)
 18751 6b48 0E94 0000 		call SD_Write16
 18752               	.LM2064:
 18753 6b4c 1130      		cpi r17,lo8(1)
 18754 6b4e 01F4      		brne .L1133
 18755               	.LM2065:
 18756 6b50 6091 0000 		lds r22,temperatureSampleStartTime1
 18757 6b54 7091 0000 		lds r23,(temperatureSampleStartTime1)+1
 18758 6b58 8091 0000 		lds r24,(temperatureSampleStartTime1)+2
 18759 6b5c 9091 0000 		lds r25,(temperatureSampleStartTime1)+3
 18760 6b60 00C0      		rjmp .L1142
 18761               	.L1133:
 18762               	.LM2066:
 18763 6b62 6091 0000 		lds r22,temperatureSampleStartTime2
 18764 6b66 7091 0000 		lds r23,(temperatureSampleStartTime2)+1
 18765 6b6a 8091 0000 		lds r24,(temperatureSampleStartTime2)+2
 18766 6b6e 9091 0000 		lds r25,(temperatureSampleStartTime2)+3
 18767               	.L1142:
 18768 6b72 0E94 0000 		call SD_Write32
 18769               	.LM2067:
 18770 6b76 60E0      		ldi r22,lo8(1843200)
 18771 6b78 70E2      		ldi r23,hi8(1843200)
 18772 6b7a 8CE1      		ldi r24,hlo8(1843200)
 18773 6b7c 90E0      		ldi r25,hhi8(1843200)
 18774 6b7e 0E94 0000 		call SD_Write32
 18775               	.LM2068:
 18776 6b82 6AE0      		ldi r22,lo8(10)
 18777 6b84 70E0      		ldi r23,hi8(10)
 18778 6b86 80E0      		ldi r24,hlo8(10)
 18779 6b88 90E0      		ldi r25,hhi8(10)
 18780 6b8a 0E94 0000 		call SD_Write32
 18781               	.LM2069:
 18782 6b8e 80E0      		ldi r24,lo8(.LC13)
 18783 6b90 90E0      		ldi r25,hi8(.LC13)
 18784 6b92 0E94 0000 		call SD_WriteString
 18785               	.LM2070:
 18786 6b96 89E0      		ldi r24,lo8(9)
 18787 6b98 0E94 0000 		call SD_Write8
 18788               	.LM2071:
 18789 6b9c 80E0      		ldi r24,lo8(.LC14)
 18790 6b9e 90E0      		ldi r25,hi8(.LC14)
 18791 6ba0 0E94 0000 		call SD_WriteString
 18792               	.LM2072:
 18793 6ba4 8AE0      		ldi r24,lo8(10)
 18794 6ba6 0E94 0000 		call SD_Write8
 18795               	.LM2073:
 18796 6baa 80E0      		ldi r24,lo8(0)
 18797 6bac 0E94 0000 		call SD_Write8
 18798               	.LM2074:
 18799 6bb0 1130      		cpi r17,lo8(1)
 18800 6bb2 01F4      		brne .L1135
 18801 6bb4 C0E0      		ldi r28,lo8(temperatureBuffer1)
 18802 6bb6 D0E0      		ldi r29,hi8(temperatureBuffer1)
 18803               	.L1136:
 18804               	.LBB907:
 18805               	.LM2075:
 18806 6bb8 8991      		ld r24,Y+
 18807 6bba 9991      		ld r25,Y+
 18808 6bbc 0E94 0000 		call SD_Write16
 18809               	.LM2076:
 18810 6bc0 80E0      		ldi r24,hi8(temperatureBuffer1+20)
 18811 6bc2 C030      		cpi r28,lo8(temperatureBuffer1+20)
 18812 6bc4 D807      		cpc r29,r24
 18813 6bc6 01F4      		brne .L1136
 18814 6bc8 00C0      		rjmp .L1137
 18815               	.L1135:
 18816 6bca C0E0      		ldi r28,lo8(temperatureBuffer2)
 18817 6bcc D0E0      		ldi r29,hi8(temperatureBuffer2)
 18818               	.L1138:
 18819               	.LBE907:
 18820               	.LBB908:
 18821               	.LM2077:
 18822 6bce 8991      		ld r24,Y+
 18823 6bd0 9991      		ld r25,Y+
 18824 6bd2 0E94 0000 		call SD_Write16
 18825               	.LM2078:
 18826 6bd6 80E0      		ldi r24,hi8(temperatureBuffer2+20)
 18827 6bd8 C030      		cpi r28,lo8(temperatureBuffer2+20)
 18828 6bda D807      		cpc r29,r24
 18829 6bdc 01F4      		brne .L1138
 18830               	.L1137:
 18831               	.LBE908:
 18832               	.LM2079:
 18833 6bde 0E94 0000 		call SD_WriteCRC
 18834               	.LM2080:
 18835 6be2 80E0      		ldi r24,lo8(Log_File)
 18836 6be4 90E0      		ldi r25,hi8(Log_File)
 18837 6be6 0E94 0000 		call f_sync
 18838               	/* epilogue start */
 18839               	.LM2081:
 18840 6bea DF91      		pop r29
 18841 6bec CF91      		pop r28
 18842 6bee 1F91      		pop r17
 18843               	.LVL1401:
 18844 6bf0 0895      		ret
 18845               	.LFE167:
 18847               	.global	Rs232_SendString
 18849               	Rs232_SendString:
 18850               	.LFB37:
 18851               	.LM2082:
 18852               	.LVL1402:
 18853               	/* prologue: function */
 18854               	/* frame size = 0 */
 18855 6bf2 9C01      		movw r18,r24
 18856               	.LBB909:
 18857               	.LM2083:
 18858 6bf4 DC01      		movw r26,r24
 18859 6bf6 0D90      		ld __tmp_reg__,X+
 18860 6bf8 0020      		tst __tmp_reg__
 18861 6bfa 01F4      		brne .-6
 18862 6bfc 1197      		sbiw r26,1
 18863 6bfe A81B      		sub r26,r24
 18864 6c00 B90B      		sbc r27,r25
 18865 6c02 90E0      		ldi r25,lo8(0)
 18866               	.LVL1403:
 18867 6c04 00C0      		rjmp .L1144
 18868               	.L1146:
 18869               	.LM2084:
 18870 6c06 E20F      		add r30,r18
 18871 6c08 F31F      		adc r31,r19
 18872 6c0a 4081      		ld r20,Z
 18873               	.LVL1404:
 18874               	.L1145:
 18875               	.LBB910:
 18876               	.LBB911:
 18877               	.LM2085:
 18878 6c0c 8091 A109 		lds r24,2465
 18879 6c10 85FF      		sbrs r24,5
 18880 6c12 00C0      		rjmp .L1145
 18881               	.LM2086:
 18882 6c14 4093 A009 		sts 2464,r20
 18883               	.LBE911:
 18884               	.LBE910:
 18885               	.LM2087:
 18886 6c18 9F5F      		subi r25,lo8(-(1))
 18887               	.LVL1405:
 18888               	.L1144:
 18889 6c1a E92F      		mov r30,r25
 18890 6c1c F0E0      		ldi r31,lo8(0)
 18891 6c1e EA17      		cp r30,r26
 18892 6c20 FB07      		cpc r31,r27
 18893 6c22 00F0      		brlo .L1146
 18894               	.LVL1406:
 18895               	.LBE909:
 18896               	.LM2088:
 18897 6c24 6623      		tst r22
 18898 6c26 01F0      		breq .L1150
 18899               	.L1151:
 18900               	.LBB912:
 18901               	.LBB913:
 18902               	.LM2089:
 18903 6c28 8091 A109 		lds r24,2465
 18904               	.LVL1407:
 18905 6c2c 85FF      		sbrs r24,5
 18906 6c2e 00C0      		rjmp .L1151
 18907               	.LM2090:
 18908 6c30 8DE0      		ldi r24,lo8(13)
 18909 6c32 8093 A009 		sts 2464,r24
 18910               	.L1149:
 18911               	.LBE913:
 18912               	.LBE912:
 18913               	.LBB914:
 18914               	.LBB915:
 18915               	.LM2091:
 18916 6c36 8091 A109 		lds r24,2465
 18917 6c3a 85FF      		sbrs r24,5
 18918 6c3c 00C0      		rjmp .L1149
 18919               	.LM2092:
 18920 6c3e 8AE0      		ldi r24,lo8(10)
 18921 6c40 8093 A009 		sts 2464,r24
 18922               	.LVL1408:
 18923               	.L1150:
 18924 6c44 0895      		ret
 18925               	.LBE915:
 18926               	.LBE914:
 18927               	.LFE37:
 18929               	.global	Wifi_SendString
 18931               	Wifi_SendString:
 18932               	.LFB18:
 18933               	.LM2093:
 18934               	.LVL1409:
 18935               	/* prologue: function */
 18936               	/* frame size = 0 */
 18937 6c46 9C01      		movw r18,r24
 18938               	.LBB916:
 18939               	.LM2094:
 18940 6c48 DC01      		movw r26,r24
 18941 6c4a 0D90      		ld __tmp_reg__,X+
 18942 6c4c 0020      		tst __tmp_reg__
 18943 6c4e 01F4      		brne .-6
 18944 6c50 1197      		sbiw r26,1
 18945 6c52 A81B      		sub r26,r24
 18946 6c54 B90B      		sbc r27,r25
 18947 6c56 90E0      		ldi r25,lo8(0)
 18948               	.LVL1410:
 18949 6c58 00C0      		rjmp .L1156
 18950               	.L1158:
 18951               	.LM2095:
 18952 6c5a E20F      		add r30,r18
 18953 6c5c F31F      		adc r31,r19
 18954 6c5e 4081      		ld r20,Z
 18955               	.LVL1411:
 18956               	.L1157:
 18957               	.LBB917:
 18958               	.LBB918:
 18959               	.LM2096:
 18960 6c60 8091 A10A 		lds r24,2721
 18961 6c64 85FF      		sbrs r24,5
 18962 6c66 00C0      		rjmp .L1157
 18963               	.LM2097:
 18964 6c68 4093 A00A 		sts 2720,r20
 18965               	.LBE918:
 18966               	.LBE917:
 18967               	.LM2098:
 18968 6c6c 9F5F      		subi r25,lo8(-(1))
 18969               	.LVL1412:
 18970               	.L1156:
 18971 6c6e E92F      		mov r30,r25
 18972 6c70 F0E0      		ldi r31,lo8(0)
 18973 6c72 EA17      		cp r30,r26
 18974 6c74 FB07      		cpc r31,r27
 18975 6c76 00F0      		brlo .L1158
 18976               	.LVL1413:
 18977               	.LBE916:
 18978               	.LM2099:
 18979 6c78 6623      		tst r22
 18980 6c7a 01F0      		breq .L1162
 18981               	.L1163:
 18982               	.LBB919:
 18983               	.LBB920:
 18984               	.LM2100:
 18985 6c7c 8091 A10A 		lds r24,2721
 18986               	.LVL1414:
 18987 6c80 85FF      		sbrs r24,5
 18988 6c82 00C0      		rjmp .L1163
 18989               	.LM2101:
 18990 6c84 8DE0      		ldi r24,lo8(13)
 18991 6c86 8093 A00A 		sts 2720,r24
 18992               	.L1161:
 18993               	.LBE920:
 18994               	.LBE919:
 18995               	.LBB921:
 18996               	.LBB922:
 18997               	.LM2102:
 18998 6c8a 8091 A10A 		lds r24,2721
 18999 6c8e 85FF      		sbrs r24,5
 19000 6c90 00C0      		rjmp .L1161
 19001               	.LM2103:
 19002 6c92 8AE0      		ldi r24,lo8(10)
 19003 6c94 8093 A00A 		sts 2720,r24
 19004               	.LVL1415:
 19005               	.L1162:
 19006 6c98 0895      		ret
 19007               	.LBE922:
 19008               	.LBE921:
 19009               	.LFE18:
 19011               		.data
 19012               	.LC16:
 19013 0081 2424 2400 		.string	"$$$"
 19014               	.LC15:
 19015 0085 434D 4400 		.string	"CMD"
 19016               		.text
 19017               	.global	Wifi_EnterCMDMode
 19019               	Wifi_EnterCMDMode:
 19020               	.LFB19:
 19021               	.LM2104:
 19022               	.LVL1416:
 19023 6c9a 8F92      		push r8
 19024 6c9c 9F92      		push r9
 19025 6c9e AF92      		push r10
 19026 6ca0 BF92      		push r11
 19027 6ca2 CF92      		push r12
 19028 6ca4 DF92      		push r13
 19029 6ca6 FF92      		push r15
 19030 6ca8 0F93      		push r16
 19031 6caa 1F93      		push r17
 19032 6cac DF93      		push r29
 19033 6cae CF93      		push r28
 19034 6cb0 00D0      		rcall .
 19035 6cb2 00D0      		rcall .
 19036 6cb4 CDB7      		in r28,__SP_L__
 19037 6cb6 DEB7      		in r29,__SP_H__
 19038               	/* prologue: function */
 19039               	/* frame size = 6 */
 19040 6cb8 6C01      		movw r12,r24
 19041               	.LM2105:
 19042 6cba DE01      		movw r26,r28
 19043 6cbc 1496      		adiw r26,4
 19044 6cbe E0E0      		ldi r30,lo8(.LC15)
 19045 6cc0 F0E0      		ldi r31,hi8(.LC15)
 19046 6cc2 83E0      		ldi r24,lo8(3)
 19047               	.LVL1417:
 19048               	.L1168:
 19049 6cc4 0190      		ld r0,Z+
 19050 6cc6 0D92      		st X+,r0
 19051 6cc8 8150      		subi r24,lo8(-(-1))
 19052 6cca 01F4      		brne .L1168
 19053               	.LM2106:
 19054 6ccc 0E94 0000 		call Wifi_ClearBuffer
 19055               	.LM2107:
 19056 6cd0 80E0      		ldi r24,lo8(.LC16)
 19057 6cd2 90E0      		ldi r25,hi8(.LC16)
 19058 6cd4 60E0      		ldi r22,lo8(0)
 19059 6cd6 0E94 0000 		call Wifi_SendString
 19060 6cda FF24      		clr r15
 19061               	.LVL1418:
 19062 6cdc 00E0      		ldi r16,lo8(0)
 19063 6cde 10E0      		ldi r17,hi8(0)
 19064               	.LVL1419:
 19065               	.LBB923:
 19066               	.LM2108:
 19067 6ce0 4E01      		movw r8,r28
 19068 6ce2 0894      		sec
 19069 6ce4 811C      		adc r8,__zero_reg__
 19070 6ce6 911C      		adc r9,__zero_reg__
 19071               	.LBB924:
 19072               	.LBB925:
 19073               	.LBB926:
 19074               	.LBB927:
 19075               	.LM2109:
 19076 6ce8 F6E6      		ldi r31,lo8(3686)
 19077 6cea AF2E      		mov r10,r31
 19078 6cec FEE0      		ldi r31,hi8(3686)
 19079 6cee BF2E      		mov r11,r31
 19080 6cf0 00C0      		rjmp .L1169
 19081               	.LVL1420:
 19082               	.L1174:
 19083               	.LBE927:
 19084               	.LBE926:
 19085               	.LBE925:
 19086               	.LBE924:
 19087               	.LM2110:
 19088 6cf2 0E94 0000 		call Wifi_CharReadyToRead
 19089               	.LVL1421:
 19090 6cf6 8823      		tst r24
 19091 6cf8 01F0      		breq .L1170
 19092               	.LM2111:
 19093 6cfa 80E0      		ldi r24,lo8(0)
 19094 6cfc 0E94 0000 		call Wifi_GetByte
 19095 6d00 F401      		movw r30,r8
 19096 6d02 EF0D      		add r30,r15
 19097 6d04 F11D      		adc r31,__zero_reg__
 19098 6d06 8083      		st Z,r24
 19099               	.LM2112:
 19100 6d08 F394      		inc r15
 19101               	.LM2113:
 19102 6d0a 82E0      		ldi r24,lo8(2)
 19103 6d0c 8F15      		cp r24,r15
 19104 6d0e 00F4      		brsh .L1170
 19105               	.LBB931:
 19106               	.LM2114:
 19107 6d10 9981      		ldd r25,Y+1
 19108 6d12 8C81      		ldd r24,Y+4
 19109 6d14 9817      		cp r25,r24
 19110 6d16 01F4      		brne .L1171
 19111 6d18 9A81      		ldd r25,Y+2
 19112 6d1a 8D81      		ldd r24,Y+5
 19113 6d1c 9817      		cp r25,r24
 19114 6d1e 01F4      		brne .L1171
 19115 6d20 20E0      		ldi r18,lo8(0)
 19116 6d22 9B81      		ldd r25,Y+3
 19117 6d24 8E81      		ldd r24,Y+6
 19118 6d26 9817      		cp r25,r24
 19119 6d28 01F4      		brne .L1173
 19120 6d2a 21E0      		ldi r18,lo8(1)
 19121 6d2c 00C0      		rjmp .L1173
 19122               	.L1170:
 19123               	.LBE931:
 19124               	.LBB932:
 19125               	.LBB930:
 19126               	.LBB929:
 19127               	.LBB928:
 19128               	.LM2115:
 19129 6d2e C501      		movw r24,r10
 19130               	.LVL1422:
 19131               	/* #APP */
 19132               	 ;  105 "/usr/local/CrossPack-AVR-20100115/lib/gcc/avr/4.3.3/../../../../avr/include/util/delay_bas
 19133 6d30 0197      		1: sbiw r24,1
 19134 6d32 01F4      		brne 1b
 19135               	 ;  0 "" 2
 19136               	/* #NOAPP */
 19137               	.LBE928:
 19138               	.LBE929:
 19139               	.LBE930:
 19140               	.LBE932:
 19141               	.LM2116:
 19142 6d34 0F5F      		subi r16,lo8(-(1))
 19143 6d36 1F4F      		sbci r17,hi8(-(1))
 19144               	.L1169:
 19145 6d38 0C15      		cp r16,r12
 19146 6d3a 1D05      		cpc r17,r13
 19147 6d3c 00F0      		brlo .L1174
 19148               	.L1171:
 19149 6d3e 20E0      		ldi r18,lo8(0)
 19150               	.L1173:
 19151               	.LBE923:
 19152               	.LM2117:
 19153 6d40 822F      		mov r24,r18
 19154               	.LVL1423:
 19155               	/* epilogue start */
 19156 6d42 2696      		adiw r28,6
 19157 6d44 CDBF      		out __SP_L__,r28
 19158 6d46 DEBF      		out __SP_H__,r29
 19159 6d48 CF91      		pop r28
 19160 6d4a DF91      		pop r29
 19161 6d4c 1F91      		pop r17
 19162 6d4e 0F91      		pop r16
 19163               	.LVL1424:
 19164 6d50 FF90      		pop r15
 19165               	.LVL1425:
 19166 6d52 DF90      		pop r13
 19167 6d54 CF90      		pop r12
 19168               	.LVL1426:
 19169 6d56 BF90      		pop r11
 19170 6d58 AF90      		pop r10
 19171 6d5a 9F90      		pop r9
 19172 6d5c 8F90      		pop r8
 19173 6d5e 0895      		ret
 19174               	.LFE19:
 19176               	.global	Debug_SendString
 19178               	Debug_SendString:
 19179               	.LFB11:
 19180               	.LM2118:
 19181               	.LVL1427:
 19182               	/* prologue: function */
 19183               	/* frame size = 0 */
 19184 6d60 9C01      		movw r18,r24
 19185               	.LBB933:
 19186               	.LM2119:
 19187 6d62 DC01      		movw r26,r24
 19188 6d64 0D90      		ld __tmp_reg__,X+
 19189 6d66 0020      		tst __tmp_reg__
 19190 6d68 01F4      		brne .-6
 19191 6d6a 1197      		sbiw r26,1
 19192 6d6c A81B      		sub r26,r24
 19193 6d6e B90B      		sbc r27,r25
 19194 6d70 90E0      		ldi r25,lo8(0)
 19195               	.LVL1428:
 19196 6d72 00C0      		rjmp .L1178
 19197               	.L1180:
 19198               	.LM2120:
 19199 6d74 E20F      		add r30,r18
 19200 6d76 F31F      		adc r31,r19
 19201 6d78 4081      		ld r20,Z
 19202               	.LVL1429:
 19203               	.L1179:
 19204               	.LBB934:
 19205               	.LBB935:
 19206               	.LM2121:
 19207 6d7a 8091 A108 		lds r24,2209
 19208 6d7e 85FF      		sbrs r24,5
 19209 6d80 00C0      		rjmp .L1179
 19210               	.LM2122:
 19211 6d82 4093 A008 		sts 2208,r20
 19212               	.LBE935:
 19213               	.LBE934:
 19214               	.LM2123:
 19215 6d86 9F5F      		subi r25,lo8(-(1))
 19216               	.LVL1430:
 19217               	.L1178:
 19218 6d88 E92F      		mov r30,r25
 19219 6d8a F0E0      		ldi r31,lo8(0)
 19220 6d8c EA17      		cp r30,r26
 19221 6d8e FB07      		cpc r31,r27
 19222 6d90 00F0      		brlo .L1180
 19223               	.LVL1431:
 19224               	.LBE933:
 19225               	.LM2124:
 19226 6d92 6623      		tst r22
 19227 6d94 01F0      		breq .L1184
 19228               	.L1185:
 19229               	.LBB936:
 19230               	.LBB937:
 19231               	.LM2125:
 19232 6d96 8091 A108 		lds r24,2209
 19233               	.LVL1432:
 19234 6d9a 85FF      		sbrs r24,5
 19235 6d9c 00C0      		rjmp .L1185
 19236               	.LM2126:
 19237 6d9e 8DE0      		ldi r24,lo8(13)
 19238 6da0 8093 A008 		sts 2208,r24
 19239               	.L1183:
 19240               	.LBE937:
 19241               	.LBE936:
 19242               	.LBB938:
 19243               	.LBB939:
 19244               	.LM2127:
 19245 6da4 8091 A108 		lds r24,2209
 19246 6da8 85FF      		sbrs r24,5
 19247 6daa 00C0      		rjmp .L1183
 19248               	.LM2128:
 19249 6dac 8AE0      		ldi r24,lo8(10)
 19250 6dae 8093 A008 		sts 2208,r24
 19251               	.LVL1433:
 19252               	.L1184:
 19253 6db2 0895      		ret
 19254               	.LBE939:
 19255               	.LBE938:
 19256               	.LFE11:
 19258               		.data
 19259               	.LC17:
 19260 0089 5420 4275 		.string	"T Buffer1"
 19260      6666 6572 
 19260      3100 
 19261               	.LC18:
 19262 0093 5420 4275 		.string	"T Buffer2"
 19262      6666 6572 
 19262      3200 
 19263               	.LC19:
 19264 009d 4820 4275 		.string	"H Buffer1"
 19264      6666 6572 
 19264      3100 
 19265               	.LC20:
 19266 00a7 4820 4275 		.string	"H Buffer2"
 19266      6666 6572 
 19266      3200 
 19267               	.LC21:
 19268 00b1 5020 4275 		.string	"P Buffer1"
 19268      6666 6572 
 19268      3100 
 19269               	.LC22:
 19270 00bb 5020 4275 		.string	"P Buffer2"
 19270      6666 6572 
 19270      3200 
 19271               	.LC23:
 19272 00c5 4C20 4275 		.string	"L Buffer1"
 19272      6666 6572 
 19272      3100 
 19273               	.LC24:
 19274 00cf 4C20 4275 		.string	"L Buffer2"
 19274      6666 6572 
 19274      3200 
 19275               	.LC25:
 19276 00d9 4120 4275 		.string	"A Buffer"
 19276      6666 6572 
 19276      00
 19277               	.LC26:
 19278 00e2 5254 4320 		.string	"RTC Block: "
 19278      426C 6F63 
 19278      6B3A 2000 
 19279               	.LC27:
 19280 00ee 2C20 00   		.string	", "
 19281               		.text
 19282               	.global	__vector_53
 19284               	__vector_53:
 19285               	.LFB165:
 19286               	.LM2129:
 19287 6db4 1F92      		push __zero_reg__
 19288 6db6 0F92      		push r0
 19289 6db8 0FB6      		in r0,__SREG__
 19290 6dba 0F92      		push r0
 19291 6dbc 0BB6      		in r0,59-0
 19292 6dbe 0F92      		push r0
 19293 6dc0 1124      		clr __zero_reg__
 19294 6dc2 2F93      		push r18
 19295 6dc4 3F93      		push r19
 19296 6dc6 4F93      		push r20
 19297 6dc8 5F93      		push r21
 19298 6dca 6F93      		push r22
 19299 6dcc 7F93      		push r23
 19300 6dce 8F93      		push r24
 19301 6dd0 9F93      		push r25
 19302 6dd2 AF93      		push r26
 19303 6dd4 BF93      		push r27
 19304 6dd6 EF93      		push r30
 19305 6dd8 FF93      		push r31
 19306               	/* prologue: Signal */
 19307               	/* frame size = 0 */
 19308               	.LM2130:
 19309 6dda 8091 0000 		lds r24,okToSendMicrophoneBuffer1
 19310 6dde 8823      		tst r24
 19311 6de0 01F0      		breq .L1190
 19312               	.LM2131:
 19313 6de2 81E0      		ldi r24,lo8(1)
 19314 6de4 0E94 0000 		call SD_WriteMicrophoneBuffer
 19315               	.LM2132:
 19316 6de8 1092 0000 		sts okToSendMicrophoneBuffer1,__zero_reg__
 19317 6dec 00C0      		rjmp .L1191
 19318               	.L1190:
 19319               	.LM2133:
 19320 6dee 8091 0000 		lds r24,okToSendMicrophoneBuffer2
 19321 6df2 8823      		tst r24
 19322 6df4 01F0      		breq .L1191
 19323               	.LM2134:
 19324 6df6 82E0      		ldi r24,lo8(2)
 19325 6df8 0E94 0000 		call SD_WriteMicrophoneBuffer
 19326               	.LM2135:
 19327 6dfc 1092 0000 		sts okToSendMicrophoneBuffer2,__zero_reg__
 19328               	.L1191:
 19329               	.LM2136:
 19330 6e00 8091 0000 		lds r24,okToSendTemperatureBuffer1
 19331 6e04 8823      		tst r24
 19332 6e06 01F0      		breq .L1192
 19333               	.LM2137:
 19334 6e08 80E0      		ldi r24,lo8(.LC17)
 19335 6e0a 90E0      		ldi r25,hi8(.LC17)
 19336 6e0c 61E0      		ldi r22,lo8(1)
 19337 6e0e 0E94 0000 		call Debug_SendString
 19338               	.LM2138:
 19339 6e12 81E0      		ldi r24,lo8(1)
 19340 6e14 0E94 0000 		call SD_WriteTemperatureBuffer
 19341               	.LM2139:
 19342 6e18 1092 0000 		sts okToSendTemperatureBuffer1,__zero_reg__
 19343 6e1c 00C0      		rjmp .L1193
 19344               	.L1192:
 19345               	.LM2140:
 19346 6e1e 8091 0000 		lds r24,okToSendTemperatureBuffer2
 19347 6e22 8823      		tst r24
 19348 6e24 01F0      		breq .L1193
 19349               	.LM2141:
 19350 6e26 80E0      		ldi r24,lo8(.LC18)
 19351 6e28 90E0      		ldi r25,hi8(.LC18)
 19352 6e2a 61E0      		ldi r22,lo8(1)
 19353 6e2c 0E94 0000 		call Debug_SendString
 19354               	.LM2142:
 19355 6e30 82E0      		ldi r24,lo8(2)
 19356 6e32 0E94 0000 		call SD_WriteTemperatureBuffer
 19357               	.LM2143:
 19358 6e36 1092 0000 		sts okToSendTemperatureBuffer2,__zero_reg__
 19359               	.L1193:
 19360               	.LM2144:
 19361 6e3a 8091 0000 		lds r24,okToSendHumidityBuffer1
 19362 6e3e 8823      		tst r24
 19363 6e40 01F0      		breq .L1194
 19364               	.LM2145:
 19365 6e42 80E0      		ldi r24,lo8(.LC19)
 19366 6e44 90E0      		ldi r25,hi8(.LC19)
 19367 6e46 61E0      		ldi r22,lo8(1)
 19368 6e48 0E94 0000 		call Debug_SendString
 19369               	.LM2146:
 19370 6e4c 81E0      		ldi r24,lo8(1)
 19371 6e4e 0E94 0000 		call SD_WriteHumidityBuffer
 19372               	.LM2147:
 19373 6e52 1092 0000 		sts okToSendHumidityBuffer1,__zero_reg__
 19374 6e56 00C0      		rjmp .L1195
 19375               	.L1194:
 19376               	.LM2148:
 19377 6e58 8091 0000 		lds r24,okToSendHumidityBuffer2
 19378 6e5c 8823      		tst r24
 19379 6e5e 01F0      		breq .L1195
 19380               	.LM2149:
 19381 6e60 80E0      		ldi r24,lo8(.LC20)
 19382 6e62 90E0      		ldi r25,hi8(.LC20)
 19383 6e64 61E0      		ldi r22,lo8(1)
 19384 6e66 0E94 0000 		call Debug_SendString
 19385               	.LM2150:
 19386 6e6a 82E0      		ldi r24,lo8(2)
 19387 6e6c 0E94 0000 		call SD_WriteHumidityBuffer
 19388               	.LM2151:
 19389 6e70 1092 0000 		sts okToSendHumidityBuffer2,__zero_reg__
 19390               	.L1195:
 19391               	.LM2152:
 19392 6e74 8091 0000 		lds r24,okToSendPressureBuffer1
 19393 6e78 8823      		tst r24
 19394 6e7a 01F0      		breq .L1196
 19395               	.LM2153:
 19396 6e7c 80E0      		ldi r24,lo8(.LC21)
 19397 6e7e 90E0      		ldi r25,hi8(.LC21)
 19398 6e80 61E0      		ldi r22,lo8(1)
 19399 6e82 0E94 0000 		call Debug_SendString
 19400               	.LM2154:
 19401 6e86 81E0      		ldi r24,lo8(1)
 19402 6e88 0E94 0000 		call SD_WritePressureBuffer
 19403               	.LM2155:
 19404 6e8c 1092 0000 		sts okToSendPressureBuffer1,__zero_reg__
 19405 6e90 00C0      		rjmp .L1197
 19406               	.L1196:
 19407               	.LM2156:
 19408 6e92 8091 0000 		lds r24,okToSendPressureBuffer2
 19409 6e96 8823      		tst r24
 19410 6e98 01F0      		breq .L1197
 19411               	.LM2157:
 19412 6e9a 80E0      		ldi r24,lo8(.LC22)
 19413 6e9c 90E0      		ldi r25,hi8(.LC22)
 19414 6e9e 61E0      		ldi r22,lo8(1)
 19415 6ea0 0E94 0000 		call Debug_SendString
 19416               	.LM2158:
 19417 6ea4 82E0      		ldi r24,lo8(2)
 19418 6ea6 0E94 0000 		call SD_WritePressureBuffer
 19419               	.LM2159:
 19420 6eaa 1092 0000 		sts okToSendPressureBuffer2,__zero_reg__
 19421               	.L1197:
 19422               	.LM2160:
 19423 6eae 8091 0000 		lds r24,okToSendLightBuffer1
 19424 6eb2 8823      		tst r24
 19425 6eb4 01F0      		breq .L1198
 19426               	.LM2161:
 19427 6eb6 80E0      		ldi r24,lo8(.LC23)
 19428 6eb8 90E0      		ldi r25,hi8(.LC23)
 19429 6eba 61E0      		ldi r22,lo8(1)
 19430 6ebc 0E94 0000 		call Debug_SendString
 19431               	.LM2162:
 19432 6ec0 81E0      		ldi r24,lo8(1)
 19433 6ec2 0E94 0000 		call SD_WriteLightBuffer
 19434               	.LM2163:
 19435 6ec6 1092 0000 		sts okToSendLightBuffer1,__zero_reg__
 19436 6eca 00C0      		rjmp .L1199
 19437               	.L1198:
 19438               	.LM2164:
 19439 6ecc 8091 0000 		lds r24,okToSendLightBuffer2
 19440 6ed0 8823      		tst r24
 19441 6ed2 01F0      		breq .L1199
 19442               	.LM2165:
 19443 6ed4 80E0      		ldi r24,lo8(.LC24)
 19444 6ed6 90E0      		ldi r25,hi8(.LC24)
 19445 6ed8 61E0      		ldi r22,lo8(1)
 19446 6eda 0E94 0000 		call Debug_SendString
 19447               	.LM2166:
 19448 6ede 82E0      		ldi r24,lo8(2)
 19449 6ee0 0E94 0000 		call SD_WriteLightBuffer
 19450               	.LM2167:
 19451 6ee4 1092 0000 		sts okToSendLightBuffer2,__zero_reg__
 19452               	.L1199:
 19453               	.LM2168:
 19454 6ee8 8091 0000 		lds r24,okToSendAirQuality
 19455 6eec 8823      		tst r24
 19456 6eee 01F0      		breq .L1200
 19457 6ef0 8091 0000 		lds r24,recording
 19458 6ef4 8823      		tst r24
 19459 6ef6 01F0      		breq .L1200
 19460               	.LM2169:
 19461 6ef8 80E0      		ldi r24,lo8(.LC25)
 19462 6efa 90E0      		ldi r25,hi8(.LC25)
 19463 6efc 61E0      		ldi r22,lo8(1)
 19464 6efe 0E94 0000 		call Debug_SendString
 19465               	.LM2170:
 19466 6f02 0E94 0000 		call SD_WriteAirSample
 19467               	.LM2171:
 19468 6f06 1092 0000 		sts okToSendAirQuality,__zero_reg__
 19469               	.L1200:
 19470               	.LM2172:
 19471 6f0a 8091 0000 		lds r24,okToSendRTCBlock
 19472 6f0e 8823      		tst r24
 19473 6f10 01F0      		breq .L1202
 19474               	.LM2173:
 19475 6f12 80E0      		ldi r24,lo8(.LC26)
 19476 6f14 90E0      		ldi r25,hi8(.LC26)
 19477 6f16 60E0      		ldi r22,lo8(0)
 19478 6f18 0E94 0000 		call Debug_SendString
 19479               	.LM2174:
 19480 6f1c 0E94 0000 		call Time_Get32BitTimer
 19481 6f20 2091 0000 		lds r18,UNIX_time
 19482 6f24 3091 0000 		lds r19,(UNIX_time)+1
 19483 6f28 4091 0000 		lds r20,(UNIX_time)+2
 19484 6f2c 5091 0000 		lds r21,(UNIX_time)+3
 19485 6f30 0E94 0000 		call SD_WriteRTCBlock
 19486               	.LM2175:
 19487 6f34 6091 0000 		lds r22,UNIX_time
 19488 6f38 7091 0000 		lds r23,(UNIX_time)+1
 19489 6f3c 8091 0000 		lds r24,(UNIX_time)+2
 19490 6f40 9091 0000 		lds r25,(UNIX_time)+3
 19491 6f44 40E0      		ldi r20,lo8(temp)
 19492 6f46 50E0      		ldi r21,hi8(temp)
 19493 6f48 2AE0      		ldi r18,lo8(10)
 19494 6f4a 30E0      		ldi r19,hi8(10)
 19495 6f4c 0E94 0000 		call ltoa
 19496 6f50 60E0      		ldi r22,lo8(0)
 19497 6f52 0E94 0000 		call Debug_SendString
 19498               	.LM2176:
 19499 6f56 80E0      		ldi r24,lo8(.LC27)
 19500 6f58 90E0      		ldi r25,hi8(.LC27)
 19501 6f5a 60E0      		ldi r22,lo8(0)
 19502 6f5c 0E94 0000 		call Debug_SendString
 19503               	.LM2177:
 19504 6f60 0E94 0000 		call Time_Get32BitTimer
 19505 6f64 40E0      		ldi r20,lo8(temp)
 19506 6f66 50E0      		ldi r21,hi8(temp)
 19507 6f68 2AE0      		ldi r18,lo8(10)
 19508 6f6a 30E0      		ldi r19,hi8(10)
 19509 6f6c 0E94 0000 		call ltoa
 19510 6f70 61E0      		ldi r22,lo8(1)
 19511 6f72 0E94 0000 		call Debug_SendString
 19512               	.LM2178:
 19513 6f76 1092 0000 		sts okToSendRTCBlock,__zero_reg__
 19514               	.L1202:
 19515               	/* epilogue start */
 19516               	.LM2179:
 19517 6f7a FF91      		pop r31
 19518 6f7c EF91      		pop r30
 19519 6f7e BF91      		pop r27
 19520 6f80 AF91      		pop r26
 19521 6f82 9F91      		pop r25
 19522 6f84 8F91      		pop r24
 19523 6f86 7F91      		pop r23
 19524 6f88 6F91      		pop r22
 19525 6f8a 5F91      		pop r21
 19526 6f8c 4F91      		pop r20
 19527 6f8e 3F91      		pop r19
 19528 6f90 2F91      		pop r18
 19529 6f92 0F90      		pop r0
 19530 6f94 0BBE      		out 59-0,r0
 19531 6f96 0F90      		pop r0
 19532 6f98 0FBE      		out __SREG__,r0
 19533 6f9a 0F90      		pop r0
 19534 6f9c 1F90      		pop __zero_reg__
 19535 6f9e 1895      		reti
 19536               	.LFE165:
 19538               		.data
 19539               	.LC28:
 19540 00f1 4669 6C65 		.string	"File Name= "
 19540      204E 616D 
 19540      653D 2000 
 19541               		.text
 19542               	.global	SD_Open
 19544               	SD_Open:
 19545               	.LFB101:
 19546               	.LM2180:
 19547               	.LVL1434:
 19548 6fa0 0F93      		push r16
 19549 6fa2 1F93      		push r17
 19550               	/* prologue: function */
 19551               	/* frame size = 0 */
 19552 6fa4 8C01      		movw r16,r24
 19553               	.LM2181:
 19554 6fa6 80E0      		ldi r24,lo8(.LC28)
 19555 6fa8 90E0      		ldi r25,hi8(.LC28)
 19556               	.LVL1435:
 19557 6faa 60E0      		ldi r22,lo8(0)
 19558 6fac 0E94 0000 		call Debug_SendString
 19559               	.LM2182:
 19560 6fb0 C801      		movw r24,r16
 19561 6fb2 61E0      		ldi r22,lo8(1)
 19562 6fb4 0E94 0000 		call Debug_SendString
 19563               	.LM2183:
 19564 6fb8 80E0      		ldi r24,lo8(Log_File)
 19565 6fba 90E0      		ldi r25,hi8(Log_File)
 19566 6fbc B801      		movw r22,r16
 19567 6fbe 43E1      		ldi r20,lo8(19)
 19568 6fc0 0E94 0000 		call f_open
 19569               	/* epilogue start */
 19570               	.LM2184:
 19571 6fc4 1F91      		pop r17
 19572 6fc6 0F91      		pop r16
 19573               	.LVL1436:
 19574 6fc8 0895      		ret
 19575               	.LFE101:
 19577               		.data
 19578               	.LC29:
 19579 00fd 2F63 6F6E 		.string	"/config.txt"
 19579      6669 672E 
 19579      7478 7400 
 19580               	.LC30:
 19581 0109 7373 6964 		.string	"ssid"
 19581      00
 19582               	.LC31:
 19583 010e 3D00      		.string	"="
 19584               	.LC32:
 19585 0110 7068 7261 		.string	"phrase"
 19585      7365 00
 19586               	.LC33:
 19587 0117 706F 7274 		.string	"port"
 19587      00
 19588               	.LC34:
 19589 011c 6175 7468 		.string	"auth"
 19589      00
 19590               		.text
 19591               	.global	Read_config_file
 19593               	Read_config_file:
 19594               	.LFB173:
 19595               	.LM2185:
 19596 6fca 1F93      		push r17
 19597               	/* prologue: function */
 19598               	/* frame size = 0 */
 19599               	.LBB940:
 19600               	.LBB941:
 19601               	.LM2186:
 19602 6fcc A0E2      		ldi r26,lo8(1568)
 19603 6fce B6E0      		ldi r27,hi8(1568)
 19604 6fd0 40E2      		ldi r20,lo8(32)
 19605               	.LBE941:
 19606               	.LBE940:
 19607               	.LBB943:
 19608               	.LBB944:
 19609               	.LBB945:
 19610               	.LBB946:
 19611               	.LM2187:
 19612 6fd2 20E7      		ldi r18,lo8(368)
 19613 6fd4 31E0      		ldi r19,hi8(368)
 19614 6fd6 00C0      		rjmp .L1206
 19615               	.LVL1437:
 19616               	.L1207:
 19617 6fd8 F901      		movw r30,r18
 19618               	/* #APP */
 19619               	 ;  105 "/usr/local/CrossPack-AVR-20100115/lib/gcc/avr/4.3.3/../../../../avr/include/util/delay_bas
 19620 6fda 3197      		1: sbiw r30,1
 19621 6fdc 01F4      		brne 1b
 19622               	 ;  0 "" 2
 19623               	/* #NOAPP */
 19624               	.LBE946:
 19625               	.LBE945:
 19626               	.LM2188:
 19627 6fde 0197      		sbiw r24,1
 19628               	.LM2189:
 19629 6fe0 01F4      		brne .L1207
 19630               	.L1206:
 19631               	.LBE944:
 19632               	.LBE943:
 19633               	.LBB947:
 19634               	.LBB948:
 19635               	.LM2190:
 19636 6fe2 8091 A806 		lds r24,1704
 19637               	.LVL1438:
 19638 6fe6 80FF      		sbrs r24,0
 19639 6fe8 00C0      		rjmp .L1208
 19640               	.LBE948:
 19641               	.LBE947:
 19642               	.LBB949:
 19643               	.LBB942:
 19644               	.LM2191:
 19645 6fea 1796      		adiw r26,7
 19646 6fec 4C93      		st X,r20
 19647 6fee 1797      		sbiw r26,7
 19648 6ff0 88E8      		ldi r24,lo8(5000)
 19649 6ff2 93E1      		ldi r25,hi8(5000)
 19650               	.LVL1439:
 19651 6ff4 00C0      		rjmp .L1207
 19652               	.LVL1440:
 19653               	.L1209:
 19654               	.LBE942:
 19655               	.LBE949:
 19656               	.LBB950:
 19657               	.LBB951:
 19658               	.LBB952:
 19659               	.LBB953:
 19660               	.LM2192:
 19661 6ff6 CA01      		movw r24,r20
 19662               	.LVL1441:
 19663               	/* #APP */
 19664               	 ;  105 "/usr/local/CrossPack-AVR-20100115/lib/gcc/avr/4.3.3/../../../../avr/include/util/delay_bas
 19665 6ff8 0197      		1: sbiw r24,1
 19666 6ffa 01F4      		brne 1b
 19667               	 ;  0 "" 2
 19668               	/* #NOAPP */
 19669               	.LBE953:
 19670               	.LBE952:
 19671               	.LM2193:
 19672 6ffc 2150      		subi r18,lo8(-(-1))
 19673 6ffe 3040      		sbci r19,hi8(-(-1))
 19674               	.LM2194:
 19675 7000 01F4      		brne .L1209
 19676               	.LBE951:
 19677               	.LBE950:
 19678               	.LM2195:
 19679 7002 80E0      		ldi r24,lo8(.LC29)
 19680 7004 90E0      		ldi r25,hi8(.LC29)
 19681               	.LVL1442:
 19682 7006 0E94 0000 		call SD_Open
 19683               	.LVL1443:
 19684               	.LM2196:
 19685 700a 11E0      		ldi r17,lo8(1)
 19686               	.L1220:
 19687               	.LM2197:
 19688 700c 80E0      		ldi r24,lo8(temp)
 19689 700e 90E0      		ldi r25,hi8(temp)
 19690 7010 62E3      		ldi r22,lo8(50)
 19691 7012 70E0      		ldi r23,hi8(50)
 19692 7014 40E0      		ldi r20,lo8(Log_File)
 19693 7016 50E0      		ldi r21,hi8(Log_File)
 19694 7018 0E94 0000 		call f_gets
 19695               	.LM2198:
 19696 701c 8091 0000 		lds r24,temp
 19697 7020 8823      		tst r24
 19698 7022 01F4      		brne .+2
 19699 7024 00C0      		rjmp .L1215
 19700               	.LM2199:
 19701 7026 80E0      		ldi r24,lo8(temp)
 19702 7028 90E0      		ldi r25,hi8(temp)
 19703 702a 60E0      		ldi r22,lo8(.LC30)
 19704 702c 70E0      		ldi r23,hi8(.LC30)
 19705 702e 0E94 0000 		call strstr
 19706 7032 0097      		sbiw r24,0
 19707 7034 01F0      		breq .L1211
 19708               	.LM2200:
 19709 7036 80E0      		ldi r24,lo8(temp)
 19710 7038 90E0      		ldi r25,hi8(temp)
 19711 703a 60E0      		ldi r22,lo8(.LC31)
 19712 703c 70E0      		ldi r23,hi8(.LC31)
 19713 703e 0E94 0000 		call strtok
 19714               	.LM2201:
 19715 7042 80E0      		ldi r24,lo8(0)
 19716 7044 90E0      		ldi r25,hi8(0)
 19717 7046 60E0      		ldi r22,lo8(.LC31)
 19718 7048 70E0      		ldi r23,hi8(.LC31)
 19719 704a 0E94 0000 		call strtok
 19720 704e BC01      		movw r22,r24
 19721 7050 80E0      		ldi r24,lo8(ssid)
 19722 7052 90E0      		ldi r25,hi8(ssid)
 19723 7054 0E94 0000 		call strcat
 19724               	.LM2202:
 19725 7058 1093 0000 		sts ssidRead,r17
 19726 705c 00C0      		rjmp .L1220
 19727               	.L1211:
 19728               	.LM2203:
 19729 705e 80E0      		ldi r24,lo8(temp)
 19730 7060 90E0      		ldi r25,hi8(temp)
 19731 7062 60E0      		ldi r22,lo8(.LC32)
 19732 7064 70E0      		ldi r23,hi8(.LC32)
 19733 7066 0E94 0000 		call strstr
 19734 706a 0097      		sbiw r24,0
 19735 706c 01F0      		breq .L1213
 19736               	.LM2204:
 19737 706e 80E0      		ldi r24,lo8(temp)
 19738 7070 90E0      		ldi r25,hi8(temp)
 19739 7072 60E0      		ldi r22,lo8(.LC31)
 19740 7074 70E0      		ldi r23,hi8(.LC31)
 19741 7076 0E94 0000 		call strtok
 19742               	.LM2205:
 19743 707a 80E0      		ldi r24,lo8(0)
 19744 707c 90E0      		ldi r25,hi8(0)
 19745 707e 60E0      		ldi r22,lo8(.LC31)
 19746 7080 70E0      		ldi r23,hi8(.LC31)
 19747 7082 0E94 0000 		call strtok
 19748 7086 BC01      		movw r22,r24
 19749 7088 80E0      		ldi r24,lo8(phrase)
 19750 708a 90E0      		ldi r25,hi8(phrase)
 19751 708c 0E94 0000 		call strcat
 19752               	.LM2206:
 19753 7090 1093 0000 		sts phraseRead,r17
 19754 7094 00C0      		rjmp .L1220
 19755               	.L1213:
 19756               	.LM2207:
 19757 7096 80E0      		ldi r24,lo8(temp)
 19758 7098 90E0      		ldi r25,hi8(temp)
 19759 709a 60E0      		ldi r22,lo8(.LC33)
 19760 709c 70E0      		ldi r23,hi8(.LC33)
 19761 709e 0E94 0000 		call strstr
 19762 70a2 0097      		sbiw r24,0
 19763 70a4 01F0      		breq .L1214
 19764               	.LM2208:
 19765 70a6 80E0      		ldi r24,lo8(temp)
 19766 70a8 90E0      		ldi r25,hi8(temp)
 19767 70aa 60E0      		ldi r22,lo8(.LC31)
 19768 70ac 70E0      		ldi r23,hi8(.LC31)
 19769 70ae 0E94 0000 		call strtok
 19770               	.LM2209:
 19771 70b2 80E0      		ldi r24,lo8(0)
 19772 70b4 90E0      		ldi r25,hi8(0)
 19773 70b6 60E0      		ldi r22,lo8(.LC31)
 19774 70b8 70E0      		ldi r23,hi8(.LC31)
 19775 70ba 0E94 0000 		call strtok
 19776 70be BC01      		movw r22,r24
 19777 70c0 80E0      		ldi r24,lo8(port)
 19778 70c2 90E0      		ldi r25,hi8(port)
 19779 70c4 0E94 0000 		call strcat
 19780               	.LM2210:
 19781 70c8 1093 0000 		sts portRead,r17
 19782 70cc 00C0      		rjmp .L1220
 19783               	.L1214:
 19784               	.LM2211:
 19785 70ce 80E0      		ldi r24,lo8(temp)
 19786 70d0 90E0      		ldi r25,hi8(temp)
 19787 70d2 60E0      		ldi r22,lo8(.LC34)
 19788 70d4 70E0      		ldi r23,hi8(.LC34)
 19789 70d6 0E94 0000 		call strstr
 19790 70da 0097      		sbiw r24,0
 19791 70dc 01F4      		brne .+2
 19792 70de 00C0      		rjmp .L1220
 19793               	.LM2212:
 19794 70e0 80E0      		ldi r24,lo8(temp)
 19795 70e2 90E0      		ldi r25,hi8(temp)
 19796 70e4 60E0      		ldi r22,lo8(.LC31)
 19797 70e6 70E0      		ldi r23,hi8(.LC31)
 19798 70e8 0E94 0000 		call strtok
 19799               	.LM2213:
 19800 70ec 80E0      		ldi r24,lo8(0)
 19801 70ee 90E0      		ldi r25,hi8(0)
 19802 70f0 60E0      		ldi r22,lo8(.LC31)
 19803 70f2 70E0      		ldi r23,hi8(.LC31)
 19804 70f4 0E94 0000 		call strtok
 19805 70f8 BC01      		movw r22,r24
 19806 70fa 80E0      		ldi r24,lo8(auth)
 19807 70fc 90E0      		ldi r25,hi8(auth)
 19808 70fe 0E94 0000 		call strcat
 19809               	.LM2214:
 19810 7102 1093 0000 		sts authRead,r17
 19811 7106 00C0      		rjmp .L1220
 19812               	.LVL1444:
 19813               	.L1208:
 19814               	.LBB957:
 19815               	.LBB958:
 19816               	.LM2215:
 19817 7108 E0E2      		ldi r30,lo8(1568)
 19818 710a F6E0      		ldi r31,hi8(1568)
 19819               	.LVL1445:
 19820 710c 80E2      		ldi r24,lo8(32)
 19821 710e 8683      		std Z+6,r24
 19822               	.LBE958:
 19823               	.LBE957:
 19824               	.LBB959:
 19825               	.LBB960:
 19826               	.LM2216:
 19827 7110 80E1      		ldi r24,lo8(16)
 19828 7112 8583      		std Z+5,r24
 19829 7114 20E1      		ldi r18,lo8(10000)
 19830 7116 37E2      		ldi r19,hi8(10000)
 19831               	.LVL1446:
 19832               	.LBE960:
 19833               	.LBE959:
 19834               	.LBB961:
 19835               	.LBB956:
 19836               	.LBB955:
 19837               	.LBB954:
 19838               	.LM2217:
 19839 7118 40E7      		ldi r20,lo8(368)
 19840 711a 51E0      		ldi r21,hi8(368)
 19841 711c 00C0      		rjmp .L1209
 19842               	.LVL1447:
 19843               	.L1215:
 19844               	/* epilogue start */
 19845               	.LBE954:
 19846               	.LBE955:
 19847               	.LBE956:
 19848               	.LBE961:
 19849               	.LM2218:
 19850 711e 1F91      		pop r17
 19851 7120 0895      		ret
 19852               	.LFE173:
 19854               		.data
 19855               	.LC35:
 19856 0121 4F70 656E 		.string	"Opening Log File"
 19856      696E 6720 
 19856      4C6F 6720 
 19856      4669 6C65 
 19856      00
 19857               	.LC36:
 19858 0132 6465 7669 		.string	"device_class"
 19858      6365 5F63 
 19858      6C61 7373 
 19858      00
 19859               	.LC37:
 19860 013f 4261 7365 		.string	"BaseStation"
 19860      5374 6174 
 19860      696F 6E00 
 19861               	.LC38:
 19862 014b 6465 7669 		.string	"device_id"
 19862      6365 5F69 
 19862      6400 
 19863               	.LC39:
 19864 0155 6669 726D 		.string	"firmware_version"
 19864      7761 7265 
 19864      5F76 6572 
 19864      7369 6F6E 
 19864      00
 19865               	.LC40:
 19866 0166 322E 3030 		.string	"2.00"
 19866      00
 19867               	.LC41:
 19868 016b 6861 7264 		.string	"hardware_version"
 19868      7761 7265 
 19868      5F76 6572 
 19868      7369 6F6E 
 19868      00
 19869               	.LC42:
 19870 017c 3200      		.string	"2"
 19871               	.LC43:
 19872 017e 6368 616E 		.string	"channel_specs"
 19872      6E65 6C5F 
 19872      7370 6563 
 19872      7300 
 19873               	.LC44:
 19874 018c 7B22 5465 		.string	"{\"Temperature\":{\"units\": \"deg C\", \"scale\": 0.1},"
 19874      6D70 6572 
 19874      6174 7572 
 19874      6522 3A7B 
 19874      2275 6E69 
 19875               	.LC45:
 19876 01bd 2248 756D 		.string	"\"Humidity\":{\"units\": \"%RH\", \"scale\": 1},"
 19876      6964 6974 
 19876      7922 3A7B 
 19876      2275 6E69 
 19876      7473 223A 
 19877               	.LC46:
 19878 01e6 2250 7265 		.string	"\"Pressure\":{\"units\": \"kPa\", \"scale\": 1},"
 19878      7373 7572 
 19878      6522 3A7B 
 19878      2275 6E69 
 19878      7473 223A 
 19879               	.LC47:
 19880 020f 224C 6967 		.string	"\"Light_Green\":{\"units\": \"bits\", \"scale\": 1},"
 19880      6874 5F47 
 19880      7265 656E 
 19880      223A 7B22 
 19880      756E 6974 
 19881               	.LC48:
 19882 023c 224C 6967 		.string	"\"Light_Red\":{\"units\": \"bits\", \"scale\": 1},"
 19882      6874 5F52 
 19882      6564 223A 
 19882      7B22 756E 
 19882      6974 7322 
 19883               	.LC49:
 19884 0267 224C 6967 		.string	"\"Light_Blue\":{\"units\": \"bits\", \"scale\": 1},"
 19884      6874 5F42 
 19884      6C75 6522 
 19884      3A7B 2275 
 19884      6E69 7473 
 19885               	.LC50:
 19886 0293 224C 6967 		.string	"\"Light_Clear\":{\"units\": \"bits\", \"scale\": 1},"
 19886      6874 5F43 
 19886      6C65 6172 
 19886      223A 7B22 
 19886      756E 6974 
 19887               	.LC51:
 19888 02c0 2241 6972 		.string	"\"Air_Small\":{\"units\": \"#particles\", \"scale\": 1},"
 19888      5F53 6D61 
 19888      6C6C 223A 
 19888      7B22 756E 
 19888      6974 7322 
 19889               	.LC52:
 19890 02f1 2241 6972 		.string	"\"Air_Large\":{\"units\": \"#particles\", \"scale\": 1},"
 19890      5F4C 6172 
 19890      6765 223A 
 19890      7B22 756E 
 19890      6974 7322 
 19891               	.LC53:
 19892 0322 224D 6963 		.string	"\"Microphone\":{\"units\": \"bits\", \"scale\": 1}}"
 19892      726F 7068 
 19892      6F6E 6522 
 19892      3A7B 2275 
 19892      6E69 7473 
 19893               		.text
 19894               	.global	SD_StartLogFile
 19896               	SD_StartLogFile:
 19897               	.LFB112:
 19898               	.LM2219:
 19899               	.LVL1448:
 19900 7122 EF92      		push r14
 19901 7124 FF92      		push r15
 19902 7126 0F93      		push r16
 19903 7128 1F93      		push r17
 19904               	/* prologue: function */
 19905               	/* frame size = 0 */
 19906 712a 7B01      		movw r14,r22
 19907 712c 8C01      		movw r16,r24
 19908               	.LM2220:
 19909 712e 80E0      		ldi r24,lo8(.LC35)
 19910 7130 90E0      		ldi r25,hi8(.LC35)
 19911 7132 61E0      		ldi r22,lo8(1)
 19912               	.LVL1449:
 19913 7134 0E94 0000 		call Debug_SendString
 19914               	.LM2221:
 19915 7138 C801      		movw r24,r16
 19916 713a B701      		movw r22,r14
 19917 713c 0E94 0000 		call SD_MakeFileName
 19918               	.LM2222:
 19919 7140 80E0      		ldi r24,lo8(fileName)
 19920 7142 90E0      		ldi r25,hi8(fileName)
 19921 7144 0E94 0000 		call SD_Open
 19922 7148 182F      		mov r17,r24
 19923               	.LVL1450:
 19924               	.LBB962:
 19925               	.LBB963:
 19926               	.LM2223:
 19927 714a 8FEF      		ldi r24,lo8(-1)
 19928 714c 9FEF      		ldi r25,hi8(-1)
 19929 714e AFEF      		ldi r26,hlo8(-1)
 19930 7150 BFEF      		ldi r27,hhi8(-1)
 19931 7152 8093 0000 		sts CRC,r24
 19932 7156 9093 0000 		sts (CRC)+1,r25
 19933 715a A093 0000 		sts (CRC)+2,r26
 19934 715e B093 0000 		sts (CRC)+3,r27
 19935               	.LBE963:
 19936               	.LBE962:
 19937               	.LM2224:
 19938 7162 6CE4      		ldi r22,lo8(-1327598516)
 19939 7164 74E7      		ldi r23,hi8(-1327598516)
 19940 7166 8EED      		ldi r24,hlo8(-1327598516)
 19941 7168 90EB      		ldi r25,hhi8(-1327598516)
 19942 716a 0E94 0000 		call SD_Write32
 19943               	.LM2225:
 19944 716e 61E4      		ldi r22,lo8(577)
 19945 7170 72E0      		ldi r23,hi8(577)
 19946 7172 80E0      		ldi r24,hlo8(577)
 19947 7174 90E0      		ldi r25,hhi8(577)
 19948 7176 0E94 0000 		call SD_Write32
 19949               	.LM2226:
 19950 717a 81E0      		ldi r24,lo8(1)
 19951 717c 90E0      		ldi r25,hi8(1)
 19952 717e 0E94 0000 		call SD_Write16
 19953               	.LM2227:
 19954 7182 80E0      		ldi r24,lo8(256)
 19955 7184 91E0      		ldi r25,hi8(256)
 19956 7186 0E94 0000 		call SD_Write16
 19957               	.LM2228:
 19958 718a 82E0      		ldi r24,lo8(2)
 19959 718c 0E94 0000 		call SD_Write8
 19960               	.LM2229:
 19961 7190 0E94 0000 		call Time_Get32BitTimer
 19962 7194 0E94 0000 		call SD_Write32
 19963               	.LM2230:
 19964 7198 60E0      		ldi r22,lo8(460800)
 19965 719a 78E0      		ldi r23,hi8(460800)
 19966 719c 87E0      		ldi r24,hlo8(460800)
 19967 719e 90E0      		ldi r25,hhi8(460800)
 19968 71a0 0E94 0000 		call SD_Write32
 19969               	.LM2231:
 19970 71a4 80E0      		ldi r24,lo8(0)
 19971 71a6 90E0      		ldi r25,hi8(0)
 19972 71a8 0E94 0000 		call SD_Write16
 19973               	.LM2232:
 19974 71ac 80E0      		ldi r24,lo8(.LC36)
 19975 71ae 90E0      		ldi r25,hi8(.LC36)
 19976 71b0 0E94 0000 		call SD_WriteString
 19977               	.LM2233:
 19978 71b4 89E0      		ldi r24,lo8(9)
 19979 71b6 0E94 0000 		call SD_Write8
 19980               	.LM2234:
 19981 71ba 80E0      		ldi r24,lo8(.LC37)
 19982 71bc 90E0      		ldi r25,hi8(.LC37)
 19983 71be 0E94 0000 		call SD_WriteString
 19984               	.LM2235:
 19985 71c2 8AE0      		ldi r24,lo8(10)
 19986 71c4 0E94 0000 		call SD_Write8
 19987               	.LM2236:
 19988 71c8 80E0      		ldi r24,lo8(.LC38)
 19989 71ca 90E0      		ldi r25,hi8(.LC38)
 19990 71cc 0E94 0000 		call SD_WriteString
 19991               	.LM2237:
 19992 71d0 89E0      		ldi r24,lo8(9)
 19993 71d2 0E94 0000 		call SD_Write8
 19994               	.LM2238:
 19995 71d6 80E0      		ldi r24,lo8(macAddr)
 19996 71d8 90E0      		ldi r25,hi8(macAddr)
 19997 71da 0E94 0000 		call SD_WriteString
 19998               	.LM2239:
 19999 71de 8AE0      		ldi r24,lo8(10)
 20000 71e0 0E94 0000 		call SD_Write8
 20001               	.LM2240:
 20002 71e4 80E0      		ldi r24,lo8(.LC39)
 20003 71e6 90E0      		ldi r25,hi8(.LC39)
 20004 71e8 0E94 0000 		call SD_WriteString
 20005               	.LM2241:
 20006 71ec 89E0      		ldi r24,lo8(9)
 20007 71ee 0E94 0000 		call SD_Write8
 20008               	.LM2242:
 20009 71f2 80E0      		ldi r24,lo8(.LC40)
 20010 71f4 90E0      		ldi r25,hi8(.LC40)
 20011 71f6 0E94 0000 		call SD_WriteString
 20012               	.LM2243:
 20013 71fa 8AE0      		ldi r24,lo8(10)
 20014 71fc 0E94 0000 		call SD_Write8
 20015               	.LM2244:
 20016 7200 80E0      		ldi r24,lo8(.LC41)
 20017 7202 90E0      		ldi r25,hi8(.LC41)
 20018 7204 0E94 0000 		call SD_WriteString
 20019               	.LM2245:
 20020 7208 89E0      		ldi r24,lo8(9)
 20021 720a 0E94 0000 		call SD_Write8
 20022               	.LM2246:
 20023 720e 80E0      		ldi r24,lo8(.LC42)
 20024 7210 90E0      		ldi r25,hi8(.LC42)
 20025 7212 0E94 0000 		call SD_WriteString
 20026               	.LM2247:
 20027 7216 8AE0      		ldi r24,lo8(10)
 20028 7218 0E94 0000 		call SD_Write8
 20029               	.LM2248:
 20030 721c 80E0      		ldi r24,lo8(.LC43)
 20031 721e 90E0      		ldi r25,hi8(.LC43)
 20032 7220 0E94 0000 		call SD_WriteString
 20033               	.LM2249:
 20034 7224 89E0      		ldi r24,lo8(9)
 20035 7226 0E94 0000 		call SD_Write8
 20036               	.LM2250:
 20037 722a 80E0      		ldi r24,lo8(.LC44)
 20038 722c 90E0      		ldi r25,hi8(.LC44)
 20039 722e 0E94 0000 		call SD_WriteString
 20040               	.LM2251:
 20041 7232 80E0      		ldi r24,lo8(.LC45)
 20042 7234 90E0      		ldi r25,hi8(.LC45)
 20043 7236 0E94 0000 		call SD_WriteString
 20044               	.LM2252:
 20045 723a 80E0      		ldi r24,lo8(.LC46)
 20046 723c 90E0      		ldi r25,hi8(.LC46)
 20047 723e 0E94 0000 		call SD_WriteString
 20048               	.LM2253:
 20049 7242 80E0      		ldi r24,lo8(.LC47)
 20050 7244 90E0      		ldi r25,hi8(.LC47)
 20051 7246 0E94 0000 		call SD_WriteString
 20052               	.LM2254:
 20053 724a 80E0      		ldi r24,lo8(.LC48)
 20054 724c 90E0      		ldi r25,hi8(.LC48)
 20055 724e 0E94 0000 		call SD_WriteString
 20056               	.LM2255:
 20057 7252 80E0      		ldi r24,lo8(.LC49)
 20058 7254 90E0      		ldi r25,hi8(.LC49)
 20059 7256 0E94 0000 		call SD_WriteString
 20060               	.LM2256:
 20061 725a 80E0      		ldi r24,lo8(.LC50)
 20062 725c 90E0      		ldi r25,hi8(.LC50)
 20063 725e 0E94 0000 		call SD_WriteString
 20064               	.LM2257:
 20065 7262 80E0      		ldi r24,lo8(.LC51)
 20066 7264 90E0      		ldi r25,hi8(.LC51)
 20067 7266 0E94 0000 		call SD_WriteString
 20068               	.LM2258:
 20069 726a 80E0      		ldi r24,lo8(.LC52)
 20070 726c 90E0      		ldi r25,hi8(.LC52)
 20071 726e 0E94 0000 		call SD_WriteString
 20072               	.LM2259:
 20073 7272 80E0      		ldi r24,lo8(.LC53)
 20074 7274 90E0      		ldi r25,hi8(.LC53)
 20075 7276 0E94 0000 		call SD_WriteString
 20076               	.LM2260:
 20077 727a 8AE0      		ldi r24,lo8(10)
 20078 727c 0E94 0000 		call SD_Write8
 20079               	.LM2261:
 20080 7280 80E0      		ldi r24,lo8(0)
 20081 7282 0E94 0000 		call SD_Write8
 20082               	.LM2262:
 20083 7286 0E94 0000 		call SD_WriteCRC
 20084               	.LM2263:
 20085 728a 80E0      		ldi r24,lo8(Log_File)
 20086 728c 90E0      		ldi r25,hi8(Log_File)
 20087 728e 0E94 0000 		call f_sync
 20088               	.LM2264:
 20089 7292 812F      		mov r24,r17
 20090               	/* epilogue start */
 20091 7294 1F91      		pop r17
 20092               	.LVL1451:
 20093 7296 0F91      		pop r16
 20094 7298 FF90      		pop r15
 20095 729a EF90      		pop r14
 20096               	.LVL1452:
 20097 729c 0895      		ret
 20098               	.LFE112:
 20100               		.data
 20101               	.LC54:
 20102 034e 2D2D 2D2D 		.string	"-----------------"
 20102      2D2D 2D2D 
 20102      2D2D 2D2D 
 20102      2D2D 2D2D 
 20102      2D00 
 20103               	.LC55:
 20104 0360 436F 6D6D 		.string	"Command: "
 20104      616E 643A 
 20104      2000 
 20105               	.LC56:
 20106 036a 5265 7370 		.string	"Responce: "
 20106      6F6E 6365 
 20106      3A20 00
 20107               	.LC57:
 20108 0375 2C77 616E 		.string	",want: "
 20108      743A 2000 
 20109               		.text
 20110               	.global	Wifi_SendCommand
 20112               	Wifi_SendCommand:
 20113               	.LFB21:
 20114               	.LM2265:
 20115               	.LVL1453:
 20116 729e 6F92      		push r6
 20117 72a0 7F92      		push r7
 20118 72a2 8F92      		push r8
 20119 72a4 9F92      		push r9
 20120 72a6 AF92      		push r10
 20121 72a8 BF92      		push r11
 20122 72aa CF92      		push r12
 20123 72ac DF92      		push r13
 20124 72ae EF92      		push r14
 20125 72b0 FF92      		push r15
 20126 72b2 0F93      		push r16
 20127 72b4 1F93      		push r17
 20128 72b6 CF93      		push r28
 20129 72b8 DF93      		push r29
 20130               	/* prologue: function */
 20131               	/* frame size = 0 */
 20132 72ba 7C01      		movw r14,r24
 20133 72bc 6B01      		movw r12,r22
 20134 72be 5A01      		movw r10,r20
 20135 72c0 3901      		movw r6,r18
 20136               	.LM2266:
 20137 72c2 1092 0000 		sts respLen,__zero_reg__
 20138               	.LM2267:
 20139 72c6 FC01      		movw r30,r24
 20140 72c8 0190      		ld __tmp_reg__,Z+
 20141 72ca 0020      		tst __tmp_reg__
 20142 72cc 01F4      		brne .-6
 20143 72ce 3197      		sbiw r30,1
 20144 72d0 E81B      		sub r30,r24
 20145 72d2 F90B      		sbc r31,r25
 20146 72d4 E093 0000 		sts toSendLen,r30
 20147               	.LM2268:
 20148 72d8 EB01      		movw r28,r22
 20149 72da 0990      		ld __tmp_reg__,Y+
 20150 72dc 0020      		tst __tmp_reg__
 20151 72de 01F4      		brne .-6
 20152 72e0 2197      		sbiw r28,1
 20153 72e2 C61B      		sub r28,r22
 20154 72e4 D70B      		sbc r29,r23
 20155 72e6 DA01      		movw r26,r20
 20156 72e8 0D90      		ld __tmp_reg__,X+
 20157 72ea 0020      		tst __tmp_reg__
 20158 72ec 01F4      		brne .-6
 20159 72ee 1197      		sbiw r26,1
 20160 72f0 A41B      		sub r26,r20
 20161 72f2 B50B      		sbc r27,r21
 20162 72f4 AC17      		cp r26,r28
 20163 72f6 BD07      		cpc r27,r29
 20164 72f8 00F4      		brsh .L1224
 20165               	.LVL1454:
 20166               	.LM2269:
 20167 72fa A093 0000 		sts okLen,r26
 20168 72fe 00C0      		rjmp .L1225
 20169               	.L1224:
 20170               	.LM2270:
 20171 7300 C093 0000 		sts okLen,r28
 20172               	.L1225:
 20173               	.LM2271:
 20174 7304 80E0      		ldi r24,lo8(.LC54)
 20175 7306 90E0      		ldi r25,hi8(.LC54)
 20176               	.LVL1455:
 20177 7308 61E0      		ldi r22,lo8(1)
 20178               	.LVL1456:
 20179 730a 0E94 0000 		call Debug_SendString
 20180               	.LVL1457:
 20181               	.LM2272:
 20182 730e 80E0      		ldi r24,lo8(.LC55)
 20183 7310 90E0      		ldi r25,hi8(.LC55)
 20184 7312 60E0      		ldi r22,lo8(0)
 20185 7314 0E94 0000 		call Debug_SendString
 20186               	.LM2273:
 20187 7318 C701      		movw r24,r14
 20188 731a 61E0      		ldi r22,lo8(1)
 20189 731c 0E94 0000 		call Debug_SendString
 20190               	.LM2274:
 20191 7320 0E94 0000 		call Wifi_ClearBuffer
 20192               	.LM2275:
 20193 7324 C701      		movw r24,r14
 20194 7326 61E0      		ldi r22,lo8(1)
 20195 7328 0E94 0000 		call Wifi_SendString
 20196 732c 00E0      		ldi r16,lo8(0)
 20197 732e 10E0      		ldi r17,hi8(0)
 20198               	.LVL1458:
 20199               	.LBB964:
 20200               	.LBB965:
 20201               	.LBB966:
 20202               	.LBB967:
 20203               	.LBB968:
 20204               	.LM2276:
 20205 7330 A6E6      		ldi r26,lo8(3686)
 20206 7332 8A2E      		mov r8,r26
 20207 7334 AEE0      		ldi r26,hi8(3686)
 20208 7336 9A2E      		mov r9,r26
 20209 7338 00C0      		rjmp .L1226
 20210               	.LVL1459:
 20211               	.L1239:
 20212               	.LBE968:
 20213               	.LBE967:
 20214               	.LBE966:
 20215               	.LBE965:
 20216               	.LM2277:
 20217 733a 0E94 0000 		call Wifi_CharReadyToRead
 20218               	.LVL1460:
 20219 733e 8823      		tst r24
 20220 7340 01F4      		brne .+2
 20221 7342 00C0      		rjmp .L1227
 20222               	.LM2278:
 20223 7344 8091 0000 		lds r24,respLen
 20224 7348 C82F      		mov r28,r24
 20225 734a D0E0      		ldi r29,lo8(0)
 20226 734c 80E0      		ldi r24,lo8(0)
 20227 734e 0E94 0000 		call Wifi_GetByte
 20228 7352 C050      		subi r28,lo8(-(resp))
 20229 7354 D040      		sbci r29,hi8(-(resp))
 20230 7356 8883      		st Y,r24
 20231               	.LM2279:
 20232 7358 8091 0000 		lds r24,respLen
 20233 735c 8F5F      		subi r24,lo8(-(1))
 20234 735e 8093 0000 		sts respLen,r24
 20235               	.LM2280:
 20236 7362 2091 0000 		lds r18,respLen
 20237 7366 4091 0000 		lds r20,okLen
 20238 736a 8091 0000 		lds r24,toSendLen
 20239 736e 30E0      		ldi r19,lo8(0)
 20240 7370 90E0      		ldi r25,lo8(0)
 20241 7372 840F      		add r24,r20
 20242 7374 911D      		adc r25,__zero_reg__
 20243 7376 0396      		adiw r24,3
 20244 7378 2817      		cp r18,r24
 20245 737a 3907      		cpc r19,r25
 20246 737c 01F0      		breq .+2
 20247 737e 00C0      		rjmp .L1227
 20248               	.LM2281:
 20249 7380 80E0      		ldi r24,lo8(.LC56)
 20250 7382 90E0      		ldi r25,hi8(.LC56)
 20251 7384 60E0      		ldi r22,lo8(0)
 20252 7386 0E94 0000 		call Debug_SendString
 20253 738a 90E0      		ldi r25,lo8(0)
 20254               	.LVL1461:
 20255 738c 00C0      		rjmp .L1228
 20256               	.L1230:
 20257               	.LBB972:
 20258               	.LM2282:
 20259 738e E92F      		mov r30,r25
 20260 7390 F0E0      		ldi r31,lo8(0)
 20261 7392 E050      		subi r30,lo8(-(resp))
 20262 7394 F040      		sbci r31,hi8(-(resp))
 20263 7396 E081      		ld r30,Z
 20264               	.L1229:
 20265               	.LBB973:
 20266               	.LBB974:
 20267               	.LM2283:
 20268 7398 8091 A108 		lds r24,2209
 20269 739c 85FF      		sbrs r24,5
 20270 739e 00C0      		rjmp .L1229
 20271               	.LM2284:
 20272 73a0 E093 A008 		sts 2208,r30
 20273               	.LBE974:
 20274               	.LBE973:
 20275               	.LM2285:
 20276 73a4 9F5F      		subi r25,lo8(-(1))
 20277               	.L1228:
 20278 73a6 8091 0000 		lds r24,respLen
 20279 73aa 9817      		cp r25,r24
 20280 73ac 00F0      		brlo .L1230
 20281               	.LBE972:
 20282               	.LM2286:
 20283 73ae 80E0      		ldi r24,lo8(.LC57)
 20284 73b0 90E0      		ldi r25,hi8(.LC57)
 20285 73b2 60E0      		ldi r22,lo8(0)
 20286 73b4 0E94 0000 		call Debug_SendString
 20287               	.LVL1462:
 20288               	.LM2287:
 20289 73b8 C601      		movw r24,r12
 20290 73ba 61E0      		ldi r22,lo8(1)
 20291 73bc 0E94 0000 		call Debug_SendString
 20292 73c0 20E0      		ldi r18,lo8(0)
 20293               	.LVL1463:
 20294 73c2 00C0      		rjmp .L1231
 20295               	.L1233:
 20296               	.LBB975:
 20297               	.LM2288:
 20298 73c4 E22F      		mov r30,r18
 20299 73c6 F0E0      		ldi r31,lo8(0)
 20300 73c8 DF01      		movw r26,r30
 20301 73ca A050      		subi r26,lo8(-(resp))
 20302 73cc B040      		sbci r27,hi8(-(resp))
 20303 73ce 9C91      		ld r25,X
 20304 73d0 EE0D      		add r30,r14
 20305 73d2 FF1D      		adc r31,r15
 20306 73d4 8081      		ld r24,Z
 20307 73d6 9817      		cp r25,r24
 20308 73d8 01F0      		breq .+2
 20309 73da 00C0      		rjmp .L1232
 20310               	.LM2289:
 20311 73dc 2F5F      		subi r18,lo8(-(1))
 20312               	.L1231:
 20313 73de 8091 0000 		lds r24,toSendLen
 20314 73e2 2817      		cp r18,r24
 20315 73e4 00F0      		brlo .L1233
 20316               	.LBE975:
 20317               	.LBB976:
 20318               	.LM2290:
 20319 73e6 2091 0000 		lds r18,toSendLen
 20320               	.LVL1464:
 20321 73ea 2D5F      		subi r18,lo8(-(3))
 20322 73ec 00C0      		rjmp .L1234
 20323               	.L1236:
 20324               	.LM2291:
 20325 73ee ED01      		movw r28,r26
 20326 73f0 C050      		subi r28,lo8(-(resp))
 20327 73f2 D040      		sbci r29,hi8(-(resp))
 20328 73f4 9881      		ld r25,Y
 20329 73f6 8091 0000 		lds r24,toSendLen
 20330 73fa FD01      		movw r30,r26
 20331 73fc E81B      		sub r30,r24
 20332 73fe F109      		sbc r31,__zero_reg__
 20333 7400 EC0D      		add r30,r12
 20334 7402 FD1D      		adc r31,r13
 20335 7404 3397      		sbiw r30,3
 20336 7406 8081      		ld r24,Z
 20337 7408 9817      		cp r25,r24
 20338 740a 01F0      		breq .L1235
 20339               	.LM2292:
 20340 740c 8881      		ld r24,Y
 20341 740e 9091 0000 		lds r25,toSendLen
 20342 7412 A91B      		sub r26,r25
 20343 7414 B109      		sbc r27,__zero_reg__
 20344 7416 AA0D      		add r26,r10
 20345 7418 BB1D      		adc r27,r11
 20346 741a 1397      		sbiw r26,3
 20347 741c 9C91      		ld r25,X
 20348 741e 8917      		cp r24,r25
 20349 7420 01F4      		brne .L1232
 20350               	.L1235:
 20351               	.LM2293:
 20352 7422 2F5F      		subi r18,lo8(-(1))
 20353               	.L1234:
 20354 7424 A22F      		mov r26,r18
 20355 7426 B0E0      		ldi r27,lo8(0)
 20356 7428 8091 0000 		lds r24,respLen
 20357 742c 90E0      		ldi r25,lo8(0)
 20358 742e 0397      		sbiw r24,3
 20359 7430 A817      		cp r26,r24
 20360 7432 B907      		cpc r27,r25
 20361 7434 04F0      		brlt .L1236
 20362               	.L1241:
 20363               	.LBE976:
 20364               	.LBB977:
 20365               	.LBB978:
 20366               	.LM2294:
 20367 7436 8091 A108 		lds r24,2209
 20368 743a 85FF      		sbrs r24,5
 20369 743c 00C0      		rjmp .L1241
 20370               	.LM2295:
 20371 743e 8DE0      		ldi r24,lo8(13)
 20372 7440 8093 A008 		sts 2208,r24
 20373 7444 81E0      		ldi r24,lo8(1)
 20374 7446 00C0      		rjmp .L1238
 20375               	.LVL1465:
 20376               	.L1227:
 20377               	.LBE978:
 20378               	.LBE977:
 20379               	.LBB979:
 20380               	.LBB971:
 20381               	.LBB970:
 20382               	.LBB969:
 20383               	.LM2296:
 20384 7448 C401      		movw r24,r8
 20385               	.LVL1466:
 20386               	/* #APP */
 20387               	 ;  105 "/usr/local/CrossPack-AVR-20100115/lib/gcc/avr/4.3.3/../../../../avr/include/util/delay_bas
 20388 744a 0197      		1: sbiw r24,1
 20389 744c 01F4      		brne 1b
 20390               	 ;  0 "" 2
 20391               	/* #NOAPP */
 20392               	.LBE969:
 20393               	.LBE970:
 20394               	.LBE971:
 20395               	.LBE979:
 20396               	.LM2297:
 20397 744e 0F5F      		subi r16,lo8(-(1))
 20398 7450 1F4F      		sbci r17,hi8(-(1))
 20399               	.L1226:
 20400 7452 0615      		cp r16,r6
 20401 7454 1705      		cpc r17,r7
 20402 7456 00F4      		brsh .+2
 20403 7458 00C0      		rjmp .L1239
 20404               	.LVL1467:
 20405               	.L1232:
 20406 745a 80E0      		ldi r24,lo8(0)
 20407               	.LVL1468:
 20408               	.L1238:
 20409               	/* epilogue start */
 20410               	.LBE964:
 20411               	.LM2298:
 20412 745c DF91      		pop r29
 20413 745e CF91      		pop r28
 20414 7460 1F91      		pop r17
 20415 7462 0F91      		pop r16
 20416               	.LVL1469:
 20417 7464 FF90      		pop r15
 20418 7466 EF90      		pop r14
 20419               	.LVL1470:
 20420 7468 DF90      		pop r13
 20421 746a CF90      		pop r12
 20422               	.LVL1471:
 20423 746c BF90      		pop r11
 20424 746e AF90      		pop r10
 20425               	.LVL1472:
 20426 7470 9F90      		pop r9
 20427 7472 8F90      		pop r8
 20428 7474 7F90      		pop r7
 20429 7476 6F90      		pop r6
 20430               	.LVL1473:
 20431 7478 0895      		ret
 20432               	.LFE21:
 20434               		.data
 20435               	.LC58:
 20436 037d 6765 7420 		.string	"get mac"
 20436      6D61 6300 
 20437               	.LC59:
 20438 0385 4D61 6320 		.string	"Mac Addr="
 20438      4164 6472 
 20438      3D00 
 20439               	.LC60:
 20440 038f 476F 7420 		.string	"Got Mac="
 20440      4D61 633D 
 20440      00
 20441               		.text
 20442               	.global	Wifi_GetMac
 20444               	Wifi_GetMac:
 20445               	.LFB24:
 20446               	.LM2299:
 20447               	.LVL1474:
 20448 747a EF92      		push r14
 20449 747c FF92      		push r15
 20450 747e 0F93      		push r16
 20451 7480 1F93      		push r17
 20452 7482 CF93      		push r28
 20453 7484 DF93      		push r29
 20454               	/* prologue: function */
 20455               	/* frame size = 0 */
 20456 7486 EC01      		movw r28,r24
 20457               	.LM2300:
 20458 7488 0E94 0000 		call Wifi_ClearBuffer
 20459               	.LVL1475:
 20460               	.LM2301:
 20461 748c 80E0      		ldi r24,lo8(.LC58)
 20462 748e 90E0      		ldi r25,hi8(.LC58)
 20463 7490 60E0      		ldi r22,lo8(.LC59)
 20464 7492 70E0      		ldi r23,hi8(.LC59)
 20465 7494 AB01      		movw r20,r22
 20466 7496 9E01      		movw r18,r28
 20467 7498 0E94 0000 		call Wifi_SendCommand
 20468 749c 10E0      		ldi r17,lo8(0)
 20469               	.LVL1476:
 20470 749e 00E0      		ldi r16,lo8(0)
 20471               	.LVL1477:
 20472               	.LBB980:
 20473               	.LBB981:
 20474               	.LBB982:
 20475               	.LBB983:
 20476               	.LBB984:
 20477               	.LM2302:
 20478 74a0 B6E6      		ldi r27,lo8(3686)
 20479 74a2 EB2E      		mov r14,r27
 20480 74a4 BEE0      		ldi r27,hi8(3686)
 20481 74a6 FB2E      		mov r15,r27
 20482 74a8 00C0      		rjmp .L1245
 20483               	.LVL1478:
 20484               	.L1248:
 20485               	.LBE984:
 20486               	.LBE983:
 20487               	.LBE982:
 20488               	.LBE981:
 20489               	.LM2303:
 20490 74aa 0E94 0000 		call Wifi_CharReadyToRead
 20491               	.LVL1479:
 20492 74ae 8823      		tst r24
 20493 74b0 01F0      		breq .L1246
 20494               	.LM2304:
 20495 74b2 80E0      		ldi r24,lo8(0)
 20496 74b4 0E94 0000 		call Wifi_GetByte
 20497 74b8 E12F      		mov r30,r17
 20498 74ba F0E0      		ldi r31,lo8(0)
 20499               	.LVL1480:
 20500 74bc E050      		subi r30,lo8(-(macAddr))
 20501 74be F040      		sbci r31,hi8(-(macAddr))
 20502               	.LVL1481:
 20503 74c0 8083      		st Z,r24
 20504               	.LM2305:
 20505 74c2 1F5F      		subi r17,lo8(-(1))
 20506               	.LVL1482:
 20507               	.LM2306:
 20508 74c4 1131      		cpi r17,lo8(17)
 20509 74c6 01F4      		brne .L1246
 20510               	.LM2307:
 20511 74c8 80E0      		ldi r24,lo8(.LC60)
 20512 74ca 90E0      		ldi r25,hi8(.LC60)
 20513 74cc 60E0      		ldi r22,lo8(0)
 20514 74ce 0E94 0000 		call Debug_SendString
 20515               	.LVL1483:
 20516               	.LM2308:
 20517 74d2 80E0      		ldi r24,lo8(macAddr)
 20518 74d4 90E0      		ldi r25,hi8(macAddr)
 20519 74d6 61E0      		ldi r22,lo8(1)
 20520 74d8 0E94 0000 		call Debug_SendString
 20521 74dc 81E0      		ldi r24,lo8(1)
 20522 74de 00C0      		rjmp .L1247
 20523               	.LVL1484:
 20524               	.L1246:
 20525               	.LBB988:
 20526               	.LBB987:
 20527               	.LBB986:
 20528               	.LBB985:
 20529               	.LM2309:
 20530 74e0 C701      		movw r24,r14
 20531               	.LVL1485:
 20532               	/* #APP */
 20533               	 ;  105 "/usr/local/CrossPack-AVR-20100115/lib/gcc/avr/4.3.3/../../../../avr/include/util/delay_bas
 20534 74e2 0197      		1: sbiw r24,1
 20535 74e4 01F4      		brne 1b
 20536               	 ;  0 "" 2
 20537               	/* #NOAPP */
 20538               	.LBE985:
 20539               	.LBE986:
 20540               	.LBE987:
 20541               	.LBE988:
 20542               	.LM2310:
 20543 74e6 0F5F      		subi r16,lo8(-(1))
 20544               	.L1245:
 20545 74e8 802F      		mov r24,r16
 20546               	.LVL1486:
 20547 74ea 90E0      		ldi r25,lo8(0)
 20548               	.LVL1487:
 20549 74ec 8C17      		cp r24,r28
 20550 74ee 9D07      		cpc r25,r29
 20551 74f0 00F0      		brlo .L1248
 20552               	.LVL1488:
 20553 74f2 80E0      		ldi r24,lo8(0)
 20554               	.LVL1489:
 20555               	.L1247:
 20556               	/* epilogue start */
 20557               	.LBE980:
 20558               	.LM2311:
 20559 74f4 DF91      		pop r29
 20560 74f6 CF91      		pop r28
 20561               	.LVL1490:
 20562 74f8 1F91      		pop r17
 20563               	.LVL1491:
 20564 74fa 0F91      		pop r16
 20565               	.LVL1492:
 20566 74fc FF90      		pop r15
 20567 74fe EF90      		pop r14
 20568 7500 0895      		ret
 20569               	.LFE24:
 20571               		.data
 20572               	.LC61:
 20573 0398 7368 6F77 		.string	"show connection"
 20573      2063 6F6E 
 20573      6E65 6374 
 20573      696F 6E00 
 20574               		.text
 20575               	.global	Wifi_Connected
 20577               	Wifi_Connected:
 20578               	.LFB23:
 20579               	.LM2312:
 20580               	.LVL1493:
 20581 7502 CF92      		push r12
 20582 7504 DF92      		push r13
 20583 7506 EF92      		push r14
 20584 7508 FF92      		push r15
 20585 750a 0F93      		push r16
 20586 750c 1F93      		push r17
 20587 750e CF93      		push r28
 20588 7510 DF93      		push r29
 20589               	/* prologue: function */
 20590               	/* frame size = 0 */
 20591 7512 EC01      		movw r28,r24
 20592               	.LM2313:
 20593 7514 0E94 0000 		call Wifi_ClearBuffer
 20594               	.LVL1494:
 20595               	.LM2314:
 20596 7518 80E0      		ldi r24,lo8(.LC61)
 20597 751a 90E0      		ldi r25,hi8(.LC61)
 20598 751c 60E0      		ldi r22,lo8(.LC10)
 20599 751e 70E0      		ldi r23,hi8(.LC10)
 20600 7520 AB01      		movw r20,r22
 20601 7522 9E01      		movw r18,r28
 20602 7524 0E94 0000 		call Wifi_SendCommand
 20603 7528 FF24      		clr r15
 20604               	.LVL1495:
 20605 752a EE24      		clr r14
 20606               	.LVL1496:
 20607               	.LBB989:
 20608               	.LBB990:
 20609               	.LBB991:
 20610               	.LBB992:
 20611               	.LBB993:
 20612               	.LM2315:
 20613 752c 16E6      		ldi r17,lo8(3686)
 20614 752e C12E      		mov r12,r17
 20615 7530 1EE0      		ldi r17,hi8(3686)
 20616 7532 D12E      		mov r13,r17
 20617 7534 00C0      		rjmp .L1251
 20618               	.LVL1497:
 20619               	.L1255:
 20620               	.LBE993:
 20621               	.LBE992:
 20622               	.LBE991:
 20623               	.LBE990:
 20624               	.LM2316:
 20625 7536 0E94 0000 		call Wifi_CharReadyToRead
 20626               	.LVL1498:
 20627 753a 8823      		tst r24
 20628 753c 01F0      		breq .L1252
 20629               	.LM2317:
 20630 753e 0F2D      		mov r16,r15
 20631 7540 10E0      		ldi r17,lo8(0)
 20632 7542 80E0      		ldi r24,lo8(0)
 20633 7544 0E94 0000 		call Wifi_GetByte
 20634 7548 0050      		subi r16,lo8(-(connectionStatus))
 20635 754a 1040      		sbci r17,hi8(-(connectionStatus))
 20636 754c F801      		movw r30,r16
 20637 754e 8083      		st Z,r24
 20638               	.LM2318:
 20639 7550 F394      		inc r15
 20640               	.LM2319:
 20641 7552 F3E0      		ldi r31,lo8(3)
 20642 7554 FF16      		cp r15,r31
 20643 7556 01F4      		brne .L1252
 20644               	.LM2320:
 20645 7558 8091 0000 		lds r24,connectionStatus+2
 20646 755c 8333      		cpi r24,lo8(51)
 20647 755e 01F0      		breq .L1257
 20648               	.L1253:
 20649               	.LM2321:
 20650 7560 81E0      		ldi r24,lo8(1)
 20651 7562 8093 0000 		sts connected,r24
 20652 7566 00C0      		rjmp .L1254
 20653               	.L1252:
 20654               	.LBB997:
 20655               	.LBB996:
 20656               	.LBB995:
 20657               	.LBB994:
 20658               	.LM2322:
 20659 7568 C601      		movw r24,r12
 20660               	.LVL1499:
 20661               	/* #APP */
 20662               	 ;  105 "/usr/local/CrossPack-AVR-20100115/lib/gcc/avr/4.3.3/../../../../avr/include/util/delay_bas
 20663 756a 0197      		1: sbiw r24,1
 20664 756c 01F4      		brne 1b
 20665               	 ;  0 "" 2
 20666               	/* #NOAPP */
 20667               	.LBE994:
 20668               	.LBE995:
 20669               	.LBE996:
 20670               	.LBE997:
 20671               	.LM2323:
 20672 756e E394      		inc r14
 20673               	.L1251:
 20674 7570 8E2D      		mov r24,r14
 20675               	.LVL1500:
 20676 7572 90E0      		ldi r25,lo8(0)
 20677               	.LVL1501:
 20678 7574 8C17      		cp r24,r28
 20679 7576 9D07      		cpc r25,r29
 20680 7578 00F0      		brlo .L1255
 20681               	.L1257:
 20682               	.LBE989:
 20683               	.LM2324:
 20684 757a 1092 0000 		sts connected,__zero_reg__
 20685 757e 80E0      		ldi r24,lo8(0)
 20686               	.L1254:
 20687               	/* epilogue start */
 20688               	.LM2325:
 20689 7580 DF91      		pop r29
 20690 7582 CF91      		pop r28
 20691               	.LVL1502:
 20692 7584 1F91      		pop r17
 20693 7586 0F91      		pop r16
 20694 7588 FF90      		pop r15
 20695               	.LVL1503:
 20696 758a EF90      		pop r14
 20697               	.LVL1504:
 20698 758c DF90      		pop r13
 20699 758e CF90      		pop r12
 20700 7590 0895      		ret
 20701               	.LFE23:
 20703               		.data
 20704               	.LC62:
 20705 03a8 6578 6974 		.string	"exit"
 20705      00
 20706               	.LC63:
 20707 03ad 4558 4954 		.string	"EXIT"
 20707      00
 20708               		.text
 20709               	.global	Wifi_ExitCMDMode
 20711               	Wifi_ExitCMDMode:
 20712               	.LFB20:
 20713               	.LM2326:
 20714               	.LVL1505:
 20715               	/* prologue: function */
 20716               	/* frame size = 0 */
 20717 7592 9C01      		movw r18,r24
 20718               	.LM2327:
 20719 7594 40E0      		ldi r20,lo8(.LC63)
 20720 7596 50E0      		ldi r21,hi8(.LC63)
 20721 7598 80E0      		ldi r24,lo8(.LC62)
 20722 759a 90E0      		ldi r25,hi8(.LC62)
 20723               	.LVL1506:
 20724 759c BA01      		movw r22,r20
 20725 759e 0E94 0000 		call Wifi_SendCommand
 20726               	.LVL1507:
 20727               	/* epilogue start */
 20728               	.LM2328:
 20729 75a2 0895      		ret
 20730               	.LFE20:
 20732               	.global	f_printf
 20734               	f_printf:
 20735               	.LFB99:
 20736               	.LM2329:
 20737               	.LVL1508:
 20738 75a4 2F92      		push r2
 20739 75a6 3F92      		push r3
 20740 75a8 4F92      		push r4
 20741 75aa 5F92      		push r5
 20742 75ac 6F92      		push r6
 20743 75ae 7F92      		push r7
 20744 75b0 8F92      		push r8
 20745 75b2 9F92      		push r9
 20746 75b4 AF92      		push r10
 20747 75b6 BF92      		push r11
 20748 75b8 CF92      		push r12
 20749 75ba DF92      		push r13
 20750 75bc EF92      		push r14
 20751 75be FF92      		push r15
 20752 75c0 0F93      		push r16
 20753 75c2 1F93      		push r17
 20754 75c4 DF93      		push r29
 20755 75c6 CF93      		push r28
 20756 75c8 CDB7      		in r28,__SP_L__
 20757 75ca DEB7      		in r29,__SP_H__
 20758 75cc 6397      		sbiw r28,19
 20759 75ce CDBF      		out __SP_L__,r28
 20760 75d0 DEBF      		out __SP_H__,r29
 20761               	/* prologue: function */
 20762               	/* frame size = 19 */
 20763 75d2 6BA4      		ldd r6,Y+43
 20764 75d4 7CA4      		ldd r7,Y+44
 20765               	.LM2330:
 20766 75d6 8E01      		movw r16,r28
 20767               	.LVL1509:
 20768 75d8 035D      		subi r16,lo8(-(45))
 20769 75da 1F4F      		sbci r17,hi8(-(45))
 20770 75dc 198A      		std Y+17,__zero_reg__
 20771 75de 1A8A      		std Y+18,__zero_reg__
 20772               	.LVL1510:
 20773 75e0 20E0      		ldi r18,lo8(0)
 20774 75e2 30E0      		ldi r19,hi8(0)
 20775               	.LVL1511:
 20776               	.LVL1512:
 20777               	.L1288:
 20778               	.LM2331:
 20779 75e4 D301      		movw r26,r6
 20780 75e6 8C91      		ld r24,X
 20781               	.LVL1513:
 20782               	.LM2332:
 20783 75e8 8823      		tst r24
 20784 75ea 01F4      		brne .+2
 20785 75ec 00C0      		rjmp .L1261
 20786               	.LM2333:
 20787 75ee 0894      		sec
 20788 75f0 611C      		adc r6,__zero_reg__
 20789 75f2 711C      		adc r7,__zero_reg__
 20790               	.LM2334:
 20791 75f4 8532      		cpi r24,lo8(37)
 20792 75f6 01F0      		breq .L1262
 20793               	.LM2335:
 20794 75f8 90E0      		ldi r25,lo8(0)
 20795 75fa 69A5      		ldd r22,Y+41
 20796 75fc 7AA5      		ldd r23,Y+42
 20797 75fe 0E94 0000 		call f_putc
 20798               	.LVL1514:
 20799 7602 9C01      		movw r18,r24
 20800               	.LVL1515:
 20801               	.LM2336:
 20802 7604 BFEF      		ldi r27,hi8(-1)
 20803 7606 8F3F      		cpi r24,lo8(-1)
 20804 7608 9B07      		cpc r25,r27
 20805 760a 01F4      		brne .L1263
 20806               	.LVL1516:
 20807 760c 4801      		movw r8,r16
 20808 760e 00C0      		rjmp .L1264
 20809               	.L1263:
 20810 7610 4801      		movw r8,r16
 20811 7612 00C0      		rjmp .L1291
 20812               	.LVL1517:
 20813               	.L1262:
 20814               	.LM2337:
 20815 7614 D301      		movw r26,r6
 20816 7616 ED91      		ld r30,X+
 20817               	.LVL1518:
 20818 7618 3D01      		movw r6,r26
 20819               	.LM2338:
 20820 761a E033      		cpi r30,lo8(48)
 20821 761c 01F0      		breq .L1265
 20822 761e 1B8A      		std Y+19,__zero_reg__
 20823               	.LVL1519:
 20824 7620 00C0      		rjmp .L1266
 20825               	.L1265:
 20826               	.LM2339:
 20827 7622 ED91      		ld r30,X+
 20828 7624 3D01      		movw r6,r26
 20829 7626 B1E0      		ldi r27,lo8(1)
 20830 7628 BB8B      		std Y+19,r27
 20831               	.LVL1520:
 20832               	.L1266:
 20833 762a AA24      		clr r10
 20834 762c BB24      		clr r11
 20835 762e 00C0      		rjmp .L1267
 20836               	.L1268:
 20837               	.LM2340:
 20838 7630 C501      		movw r24,r10
 20839 7632 53E0      		ldi r21,3
 20840 7634 880F      	1:	lsl r24
 20841 7636 991F      		rol r25
 20842 7638 5A95      		dec r21
 20843 763a 01F4      		brne 1b
 20844 763c AA0C      		lsl r10
 20845 763e BB1C      		rol r11
 20846 7640 A80E      		add r10,r24
 20847 7642 B91E      		adc r11,r25
 20848 7644 AE0E      		add r10,r30
 20849 7646 B11C      		adc r11,__zero_reg__
 20850 7648 E0ED      		ldi r30,lo8(-48)
 20851 764a FFEF      		ldi r31,hi8(-48)
 20852               	.LVL1521:
 20853 764c AE0E      		add r10,r30
 20854 764e BF1E      		adc r11,r31
 20855               	.LM2341:
 20856 7650 D301      		movw r26,r6
 20857 7652 ED91      		ld r30,X+
 20858               	.LVL1522:
 20859 7654 3D01      		movw r6,r26
 20860               	.L1267:
 20861               	.LM2342:
 20862 7656 8E2F      		mov r24,r30
 20863 7658 8053      		subi r24,lo8(-(-48))
 20864 765a 8A30      		cpi r24,lo8(10)
 20865 765c 00F0      		brlo .L1268
 20866               	.LM2343:
 20867 765e EC36      		cpi r30,lo8(108)
 20868 7660 01F4      		brne .L1269
 20869               	.LM2344:
 20870 7662 BB89      		ldd r27,Y+19
 20871 7664 B260      		ori r27,lo8(2)
 20872 7666 BB8B      		std Y+19,r27
 20873               	.LVL1523:
 20874 7668 D301      		movw r26,r6
 20875 766a ED91      		ld r30,X+
 20876 766c 3D01      		movw r6,r26
 20877               	.L1269:
 20878               	.LM2345:
 20879 766e E337      		cpi r30,lo8(115)
 20880 7670 01F4      		brne .L1270
 20881               	.LM2346:
 20882 7672 32E0      		ldi r19,lo8(2)
 20883 7674 832E      		mov r8,r19
 20884 7676 912C      		mov r9,__zero_reg__
 20885               	.LVL1524:
 20886 7678 800E      		add r8,r16
 20887 767a 911E      		adc r9,r17
 20888 767c F801      		movw r30,r16
 20889               	.LVL1525:
 20890 767e 8081      		ld r24,Z
 20891 7680 9181      		ldd r25,Z+1
 20892 7682 00C0      		rjmp .L1292
 20893               	.LVL1526:
 20894               	.L1270:
 20895               	.LM2347:
 20896 7684 E336      		cpi r30,lo8(99)
 20897 7686 01F4      		brne .L1271
 20898               	.LM2348:
 20899 7688 22E0      		ldi r18,lo8(2)
 20900 768a 822E      		mov r8,r18
 20901 768c 912C      		mov r9,__zero_reg__
 20902               	.LVL1527:
 20903 768e 800E      		add r8,r16
 20904 7690 911E      		adc r9,r17
 20905 7692 D801      		movw r26,r16
 20906 7694 8D91      		ld r24,X+
 20907 7696 9C91      		ld r25,X
 20908 7698 69A5      		ldd r22,Y+41
 20909 769a 7AA5      		ldd r23,Y+42
 20910 769c 0E94 0000 		call f_putc
 20911               	.LVL1528:
 20912 76a0 9C01      		movw r18,r24
 20913               	.LVL1529:
 20914               	.LM2349:
 20915 76a2 BFEF      		ldi r27,hi8(-1)
 20916 76a4 8F3F      		cpi r24,lo8(-1)
 20917 76a6 9B07      		cpc r25,r27
 20918 76a8 01F4      		brne .+2
 20919 76aa 00C0      		rjmp .L1264
 20920               	.LVL1530:
 20921               	.L1291:
 20922 76ac 21E0      		ldi r18,lo8(1)
 20923 76ae 30E0      		ldi r19,hi8(1)
 20924               	.LVL1531:
 20925 76b0 00C0      		rjmp .L1264
 20926               	.LVL1532:
 20927               	.L1271:
 20928               	.LM2350:
 20929 76b2 E436      		cpi r30,lo8(100)
 20930 76b4 01F0      		breq .L1272
 20931               	.LM2351:
 20932 76b6 E537      		cpi r30,lo8(117)
 20933 76b8 01F0      		breq .L1272
 20934               	.LM2352:
 20935 76ba E835      		cpi r30,lo8(88)
 20936 76bc 01F0      		breq .+2
 20937 76be 00C0      		rjmp .L1261
 20938 76c0 20E1      		ldi r18,lo8(16)
 20939               	.LVL1533:
 20940 76c2 00C0      		rjmp .L1273
 20941               	.LVL1534:
 20942               	.L1272:
 20943 76c4 2AE0      		ldi r18,lo8(10)
 20944               	.LVL1535:
 20945               	.L1273:
 20946               	.LM2353:
 20947 76c6 FB89      		ldd r31,Y+19
 20948 76c8 F1FF      		sbrs r31,1
 20949 76ca 00C0      		rjmp .L1274
 20950               	.LM2354:
 20951 76cc 94E0      		ldi r25,lo8(4)
 20952 76ce 892E      		mov r8,r25
 20953 76d0 912C      		mov r9,__zero_reg__
 20954               	.LVL1536:
 20955 76d2 800E      		add r8,r16
 20956 76d4 911E      		adc r9,r17
 20957 76d6 D801      		movw r26,r16
 20958 76d8 ED90      		ld r14,X+
 20959 76da FD90      		ld r15,X+
 20960 76dc 0D91      		ld r16,X+
 20961 76de 1C91      		ld r17,X
 20962               	.LM2355:
 20963 76e0 E436      		cpi r30,lo8(100)
 20964 76e2 01F4      		brne .L1276
 20965               	.LVL1537:
 20966 76e4 00C0      		rjmp .L1275
 20967               	.L1274:
 20968 76e6 C801      		movw r24,r16
 20969 76e8 0296      		adiw r24,2
 20970               	.LVL1538:
 20971 76ea D801      		movw r26,r16
 20972 76ec 6D91      		ld r22,X+
 20973 76ee 7C91      		ld r23,X
 20974               	.LM2356:
 20975 76f0 E436      		cpi r30,lo8(100)
 20976 76f2 01F4      		brne .L1277
 20977               	.LVL1539:
 20978 76f4 4C01      		movw r8,r24
 20979 76f6 7B01      		movw r14,r22
 20980 76f8 0027      		clr r16
 20981 76fa F7FC      		sbrc r15,7
 20982 76fc 0095      		com r16
 20983 76fe 102F      		mov r17,r16
 20984 7700 00C0      		rjmp .L1275
 20985               	.LVL1540:
 20986               	.L1277:
 20987 7702 4C01      		movw r8,r24
 20988 7704 7B01      		movw r14,r22
 20989               	.LVL1541:
 20990 7706 00E0      		ldi r16,lo8(0)
 20991 7708 10E0      		ldi r17,hi8(0)
 20992               	.LVL1542:
 20993 770a 00C0      		rjmp .L1276
 20994               	.LVL1543:
 20995               	.L1275:
 20996               	.LM2357:
 20997 770c 17FF      		sbrs r17,7
 20998 770e 00C0      		rjmp .L1276
 20999               	.LM2358:
 21000 7710 1095      		com r17
 21001 7712 0095      		com r16
 21002 7714 F094      		com r15
 21003 7716 E094      		com r14
 21004 7718 E11C      		adc r14,__zero_reg__
 21005 771a F11C      		adc r15,__zero_reg__
 21006 771c 011D      		adc r16,__zero_reg__
 21007 771e 111D      		adc r17,__zero_reg__
 21008               	.LM2359:
 21009 7720 BB89      		ldd r27,Y+19
 21010 7722 B460      		ori r27,lo8(4)
 21011 7724 BB8B      		std Y+19,r27
 21012               	.LVL1544:
 21013               	.L1276:
 21014               	.LM2360:
 21015 7726 188A      		std Y+16,__zero_reg__
 21016 7728 8FE0      		ldi r24,lo8(15)
 21017 772a C82E      		mov r12,r24
 21018 772c D12C      		mov r13,__zero_reg__
 21019               	.LM2361:
 21020 772e 222E      		mov r2,r18
 21021 7730 3324      		clr r3
 21022 7732 4424      		clr r4
 21023 7734 5524      		clr r5
 21024               	.LVL1545:
 21025               	.L1281:
 21026 7736 C801      		movw r24,r16
 21027 7738 B701      		movw r22,r14
 21028 773a A201      		movw r20,r4
 21029 773c 9101      		movw r18,r2
 21030               	.LVL1546:
 21031 773e 0E94 0000 		call __udivmodsi4
 21032               	.LVL1547:
 21033 7742 862F      		mov r24,r22
 21034               	.LVL1548:
 21035 7744 805D      		subi r24,lo8(-(48))
 21036               	.LM2362:
 21037 7746 8A33      		cpi r24,lo8(58)
 21038 7748 00F0      		brlo .L1278
 21039 774a 895F      		subi r24,lo8(-(7))
 21040               	.L1278:
 21041               	.LM2363:
 21042 774c 0894      		sec
 21043 774e C108      		sbc r12,__zero_reg__
 21044 7750 D108      		sbc r13,__zero_reg__
 21045 7752 E1E0      		ldi r30,lo8(1)
 21046 7754 F0E0      		ldi r31,hi8(1)
 21047 7756 EC0F      		add r30,r28
 21048 7758 FD1F      		adc r31,r29
 21049 775a EC0D      		add r30,r12
 21050 775c FD1D      		adc r31,r13
 21051 775e 8083      		st Z,r24
 21052               	.LM2364:
 21053 7760 C114      		cp r12,__zero_reg__
 21054 7762 D104      		cpc r13,__zero_reg__
 21055 7764 01F0      		breq .L1280
 21056               	.LM2365:
 21057 7766 C801      		movw r24,r16
 21058 7768 B701      		movw r22,r14
 21059 776a A201      		movw r20,r4
 21060 776c 9101      		movw r18,r2
 21061 776e 0E94 0000 		call __udivmodsi4
 21062 7772 C901      		movw r24,r18
 21063               	.LVL1549:
 21064 7774 DA01      		movw r26,r20
 21065 7776 7C01      		movw r14,r24
 21066 7778 8D01      		movw r16,r26
 21067               	.LM2366:
 21068 777a E114      		cp r14,__zero_reg__
 21069 777c F104      		cpc r15,__zero_reg__
 21070 777e 0105      		cpc r16,__zero_reg__
 21071 7780 1105      		cpc r17,__zero_reg__
 21072 7782 01F4      		brne .L1281
 21073               	.LM2367:
 21074 7784 EB89      		ldd r30,Y+19
 21075 7786 E2FF      		sbrs r30,2
 21076 7788 00C0      		rjmp .L1280
 21077 778a 0894      		sec
 21078 778c C108      		sbc r12,__zero_reg__
 21079 778e D108      		sbc r13,__zero_reg__
 21080 7790 E1E0      		ldi r30,lo8(1)
 21081 7792 F0E0      		ldi r31,hi8(1)
 21082 7794 EC0F      		add r30,r28
 21083 7796 FD1F      		adc r31,r29
 21084 7798 EC0D      		add r30,r12
 21085 779a FD1D      		adc r31,r13
 21086 779c 4DE2      		ldi r20,lo8(45)
 21087 779e 4083      		st Z,r20
 21088               	.LVL1550:
 21089               	.L1280:
 21090               	.LM2368:
 21091 77a0 8FE0      		ldi r24,lo8(15)
 21092 77a2 90E0      		ldi r25,hi8(15)
 21093               	.LVL1551:
 21094 77a4 8A19      		sub r24,r10
 21095 77a6 9B09      		sbc r25,r11
 21096 77a8 0894      		sec
 21097 77aa C108      		sbc r12,__zero_reg__
 21098 77ac D108      		sbc r13,__zero_reg__
 21099 77ae E1E0      		ldi r30,lo8(1)
 21100 77b0 F0E0      		ldi r31,hi8(1)
 21101 77b2 EC0F      		add r30,r28
 21102 77b4 FD1F      		adc r31,r29
 21103 77b6 EC0D      		add r30,r12
 21104 77b8 FD1D      		adc r31,r13
 21105 77ba 0894      		sec
 21106 77bc C11C      		adc r12,__zero_reg__
 21107 77be D11C      		adc r13,__zero_reg__
 21108               	.LM2369:
 21109 77c0 AB89      		ldd r26,Y+19
 21110 77c2 2A2F      		mov r18,r26
 21111 77c4 30E0      		ldi r19,lo8(0)
 21112 77c6 2170      		andi r18,lo8(1)
 21113 77c8 3070      		andi r19,hi8(1)
 21114 77ca 00C0      		rjmp .L1282
 21115               	.L1286:
 21116 77cc 0894      		sec
 21117 77ce C108      		sbc r12,__zero_reg__
 21118 77d0 D108      		sbc r13,__zero_reg__
 21119 77d2 2115      		cp r18,__zero_reg__
 21120 77d4 3105      		cpc r19,__zero_reg__
 21121 77d6 01F4      		brne .L1283
 21122 77d8 40E2      		ldi r20,lo8(32)
 21123 77da 00C0      		rjmp .L1284
 21124               	.L1283:
 21125 77dc 40E3      		ldi r20,lo8(48)
 21126               	.L1284:
 21127 77de 4083      		st Z,r20
 21128 77e0 3197      		sbiw r30,1
 21129               	.L1282:
 21130 77e2 C114      		cp r12,__zero_reg__
 21131 77e4 D104      		cpc r13,__zero_reg__
 21132 77e6 01F0      		breq .L1285
 21133 77e8 8C15      		cp r24,r12
 21134 77ea 9D05      		cpc r25,r13
 21135 77ec 04F0      		brlt .L1286
 21136               	.L1285:
 21137               	.LM2370:
 21138 77ee 81E0      		ldi r24,lo8(1)
 21139 77f0 90E0      		ldi r25,hi8(1)
 21140               	.LVL1552:
 21141 77f2 8C0F      		add r24,r28
 21142 77f4 9D1F      		adc r25,r29
 21143 77f6 8C0D      		add r24,r12
 21144 77f8 9D1D      		adc r25,r13
 21145               	.LVL1553:
 21146               	.L1292:
 21147 77fa 69A5      		ldd r22,Y+41
 21148 77fc 7AA5      		ldd r23,Y+42
 21149 77fe 0E94 0000 		call f_puts
 21150               	.LVL1554:
 21151 7802 9C01      		movw r18,r24
 21152               	.LVL1555:
 21153               	.L1264:
 21154               	.LM2371:
 21155 7804 E989      		ldd r30,Y+17
 21156 7806 FA89      		ldd r31,Y+18
 21157 7808 E20F      		add r30,r18
 21158 780a F31F      		adc r31,r19
 21159 780c E98B      		std Y+17,r30
 21160 780e FA8B      		std Y+18,r31
 21161               	.LVL1556:
 21162 7810 FFEF      		ldi r31,hi8(-1)
 21163 7812 2F3F      		cpi r18,lo8(-1)
 21164 7814 3F07      		cpc r19,r31
 21165 7816 01F0      		breq .L1287
 21166 7818 8401      		movw r16,r8
 21167               	.LVL1557:
 21168 781a 00C0      		rjmp .L1288
 21169               	.LVL1558:
 21170               	.L1261:
 21171               	.LM2372:
 21172 781c 4FEF      		ldi r20,hi8(-1)
 21173 781e 2F3F      		cpi r18,lo8(-1)
 21174 7820 3407      		cpc r19,r20
 21175 7822 01F0      		breq .L1287
 21176 7824 2989      		ldd r18,Y+17
 21177 7826 3A89      		ldd r19,Y+18
 21178               	.LVL1559:
 21179               	.L1287:
 21180               	.LM2373:
 21181 7828 C901      		movw r24,r18
 21182               	.LVL1560:
 21183               	/* epilogue start */
 21184 782a 6396      		adiw r28,19
 21185 782c CDBF      		out __SP_L__,r28
 21186 782e DEBF      		out __SP_H__,r29
 21187 7830 CF91      		pop r28
 21188 7832 DF91      		pop r29
 21189 7834 1F91      		pop r17
 21190 7836 0F91      		pop r16
 21191               	.LVL1561:
 21192 7838 FF90      		pop r15
 21193 783a EF90      		pop r14
 21194               	.LVL1562:
 21195 783c DF90      		pop r13
 21196 783e CF90      		pop r12
 21197               	.LVL1563:
 21198 7840 BF90      		pop r11
 21199 7842 AF90      		pop r10
 21200               	.LVL1564:
 21201 7844 9F90      		pop r9
 21202 7846 8F90      		pop r8
 21203               	.LVL1565:
 21204 7848 7F90      		pop r7
 21205 784a 6F90      		pop r6
 21206               	.LVL1566:
 21207 784c 5F90      		pop r5
 21208 784e 4F90      		pop r4
 21209 7850 3F90      		pop r3
 21210 7852 2F90      		pop r2
 21211 7854 0895      		ret
 21212               	.LFE99:
 21214               		.data
 21215               	.LC64:
 21216 03b2 4479 6C6F 		.string	"Dylos"
 21216      7300 
 21217               	.LC65:
 21218 03b8 2C00      		.string	","
 21219               		.text
 21220               	.global	__vector_88
 21222               	__vector_88:
 21223               	.LFB38:
 21224               	.LM2374:
 21225 7856 1F92      		push __zero_reg__
 21226 7858 0F92      		push r0
 21227 785a 0FB6      		in r0,__SREG__
 21228 785c 0F92      		push r0
 21229 785e 0BB6      		in r0,59-0
 21230 7860 0F92      		push r0
 21231 7862 1124      		clr __zero_reg__
 21232 7864 1F93      		push r17
 21233 7866 2F93      		push r18
 21234 7868 3F93      		push r19
 21235 786a 4F93      		push r20
 21236 786c 5F93      		push r21
 21237 786e 6F93      		push r22
 21238 7870 7F93      		push r23
 21239 7872 8F93      		push r24
 21240 7874 9F93      		push r25
 21241 7876 AF93      		push r26
 21242 7878 BF93      		push r27
 21243 787a EF93      		push r30
 21244 787c FF93      		push r31
 21245               	/* prologue: Signal */
 21246               	/* frame size = 0 */
 21247               	.LM2375:
 21248 787e E091 0000 		lds r30,Rs232_writeLocation
 21249 7882 F091 0000 		lds r31,(Rs232_writeLocation)+1
 21250 7886 8091 A009 		lds r24,2464
 21251 788a E050      		subi r30,lo8(-(Rs232Buffer))
 21252 788c F040      		sbci r31,hi8(-(Rs232Buffer))
 21253 788e 8083      		st Z,r24
 21254               	.LM2376:
 21255 7890 8091 0000 		lds r24,rs232Recording
 21256 7894 8823      		tst r24
 21257 7896 01F4      		brne .+2
 21258 7898 00C0      		rjmp .L1294
 21259               	.LM2377:
 21260 789a E091 0000 		lds r30,Rs232_writeLocation
 21261 789e F091 0000 		lds r31,(Rs232_writeLocation)+1
 21262 78a2 E050      		subi r30,lo8(-(Rs232Buffer))
 21263 78a4 F040      		sbci r31,hi8(-(Rs232Buffer))
 21264 78a6 8081      		ld r24,Z
 21265 78a8 8A30      		cpi r24,lo8(10)
 21266 78aa 01F0      		breq .+2
 21267 78ac 00C0      		rjmp .L1294
 21268 78ae 10E0      		ldi r17,lo8(0)
 21269               	.LVL1567:
 21270               	.L1297:
 21271               	.LBB998:
 21272               	.LBB999:
 21273               	.LBB1000:
 21274               	.LM2378:
 21275 78b0 2091 0000 		lds r18,Rs232_writeLocation
 21276 78b4 3091 0000 		lds r19,(Rs232_writeLocation)+1
 21277 78b8 8091 0000 		lds r24,Rs232_readLocation
 21278 78bc 9091 0000 		lds r25,(Rs232_readLocation)+1
 21279 78c0 2817      		cp r18,r24
 21280 78c2 3907      		cpc r19,r25
 21281 78c4 01F0      		breq .+2
 21282 78c6 00C0      		rjmp .L1295
 21283               	.LBE1000:
 21284               	.LBE999:
 21285               	.LM2379:
 21286 78c8 80E0      		ldi r24,lo8(airQualityString)
 21287 78ca 90E0      		ldi r25,hi8(airQualityString)
 21288 78cc 60E0      		ldi r22,lo8(.LC64)
 21289 78ce 70E0      		ldi r23,hi8(.LC64)
 21290 78d0 0E94 0000 		call strstr
 21291               	.LVL1568:
 21292 78d4 0097      		sbiw r24,0
 21293 78d6 01F4      		brne .L1294
 21294               	.LM2380:
 21295 78d8 0E94 0000 		call Time_Get32BitTimer
 21296 78dc 6093 0000 		sts airSampleTime,r22
 21297 78e0 7093 0000 		sts (airSampleTime)+1,r23
 21298 78e4 8093 0000 		sts (airSampleTime)+2,r24
 21299 78e8 9093 0000 		sts (airSampleTime)+3,r25
 21300               	.LM2381:
 21301 78ec 80E0      		ldi r24,lo8(airQualityString)
 21302 78ee 90E0      		ldi r25,hi8(airQualityString)
 21303 78f0 60E0      		ldi r22,lo8(.LC65)
 21304 78f2 70E0      		ldi r23,hi8(.LC65)
 21305 78f4 0E94 0000 		call strtok
 21306 78f8 0E94 0000 		call atol
 21307 78fc 6093 0000 		sts smallCount,r22
 21308 7900 7093 0000 		sts (smallCount)+1,r23
 21309 7904 8093 0000 		sts (smallCount)+2,r24
 21310 7908 9093 0000 		sts (smallCount)+3,r25
 21311               	.LM2382:
 21312 790c 80E0      		ldi r24,lo8(0)
 21313 790e 90E0      		ldi r25,hi8(0)
 21314 7910 60E0      		ldi r22,lo8(.LC65)
 21315 7912 70E0      		ldi r23,hi8(.LC65)
 21316 7914 0E94 0000 		call strtok
 21317 7918 0E94 0000 		call atol
 21318 791c 6093 0000 		sts largeCount,r22
 21319 7920 7093 0000 		sts (largeCount)+1,r23
 21320 7924 8093 0000 		sts (largeCount)+2,r24
 21321 7928 9093 0000 		sts (largeCount)+3,r25
 21322               	.LM2383:
 21323 792c 81E0      		ldi r24,lo8(1)
 21324 792e 8093 0000 		sts okToSendAirQuality,r24
 21325               	.L1294:
 21326               	.LBE998:
 21327               	.LM2384:
 21328 7932 8091 0000 		lds r24,Rs232_writeLocation
 21329 7936 9091 0000 		lds r25,(Rs232_writeLocation)+1
 21330 793a 0196      		adiw r24,1
 21331 793c 8093 0000 		sts Rs232_writeLocation,r24
 21332 7940 9093 0000 		sts (Rs232_writeLocation)+1,r25
 21333               	.LM2385:
 21334 7944 8091 0000 		lds r24,Rs232_writeLocation
 21335 7948 9091 0000 		lds r25,(Rs232_writeLocation)+1
 21336 794c 8050      		subi r24,lo8(1024)
 21337 794e 9440      		sbci r25,hi8(1024)
 21338 7950 00F0      		brlo .L1298
 21339               	.LM2386:
 21340 7952 1092 0000 		sts Rs232_writeLocation,__zero_reg__
 21341 7956 1092 0000 		sts (Rs232_writeLocation)+1,__zero_reg__
 21342 795a 00C0      		rjmp .L1298
 21343               	.LVL1569:
 21344               	.L1295:
 21345               	.LBB1001:
 21346               	.LM2387:
 21347 795c 80E0      		ldi r24,lo8(0)
 21348 795e 0E94 0000 		call Rs232_GetByte
 21349               	.LVL1570:
 21350 7962 E12F      		mov r30,r17
 21351 7964 F0E0      		ldi r31,lo8(0)
 21352               	.LVL1571:
 21353 7966 E050      		subi r30,lo8(-(airQualityString))
 21354 7968 F040      		sbci r31,hi8(-(airQualityString))
 21355               	.LVL1572:
 21356 796a 8083      		st Z,r24
 21357               	.LM2388:
 21358 796c 1F5F      		subi r17,lo8(-(1))
 21359               	.LVL1573:
 21360 796e 00C0      		rjmp .L1297
 21361               	.LVL1574:
 21362               	.L1298:
 21363               	/* epilogue start */
 21364               	.LBE1001:
 21365               	.LM2389:
 21366 7970 FF91      		pop r31
 21367 7972 EF91      		pop r30
 21368 7974 BF91      		pop r27
 21369 7976 AF91      		pop r26
 21370 7978 9F91      		pop r25
 21371 797a 8F91      		pop r24
 21372 797c 7F91      		pop r23
 21373 797e 6F91      		pop r22
 21374 7980 5F91      		pop r21
 21375 7982 4F91      		pop r20
 21376 7984 3F91      		pop r19
 21377 7986 2F91      		pop r18
 21378 7988 1F91      		pop r17
 21379               	.LVL1575:
 21380 798a 0F90      		pop r0
 21381 798c 0BBE      		out 59-0,r0
 21382 798e 0F90      		pop r0
 21383 7990 0FBE      		out __SREG__,r0
 21384 7992 0F90      		pop r0
 21385 7994 1F90      		pop __zero_reg__
 21386 7996 1895      		reti
 21387               	.LFE38:
 21389               		.data
 21390               	.LC66:
 21391 03ba 7368 6F77 		.string	"show t t"
 21391      2074 2074 
 21391      00
 21392               	.LC67:
 21393 03c3 5469 6D65 		.string	"Time="
 21393      3D00 
 21394               	.LC68:
 21395 03c9 2000      		.string	" "
 21396               		.text
 21397               	.global	Wifi_GetTime
 21399               	Wifi_GetTime:
 21400               	.LFB22:
 21401               	.LM2390:
 21402               	.LVL1576:
 21403 7998 EF92      		push r14
 21404 799a FF92      		push r15
 21405 799c 0F93      		push r16
 21406 799e 1F93      		push r17
 21407 79a0 CF93      		push r28
 21408 79a2 DF93      		push r29
 21409               	/* prologue: function */
 21410               	/* frame size = 0 */
 21411               	.LM2391:
 21412 79a4 0E94 0000 		call Wifi_ClearBuffer
 21413               	.LVL1577:
 21414               	.LM2392:
 21415 79a8 80E0      		ldi r24,lo8(.LC66)
 21416 79aa 90E0      		ldi r25,hi8(.LC66)
 21417 79ac 60E0      		ldi r22,lo8(.LC67)
 21418 79ae 70E0      		ldi r23,hi8(.LC67)
 21419 79b0 AB01      		movw r20,r22
 21420 79b2 24EF      		ldi r18,lo8(500)
 21421 79b4 31E0      		ldi r19,hi8(500)
 21422 79b6 0E94 0000 		call Wifi_SendCommand
 21423               	.LBB1002:
 21424               	.LBB1003:
 21425               	.LBB1004:
 21426               	.LBB1005:
 21427               	.LM2393:
 21428 79ba 80E0      		ldi r24,lo8(-28672)
 21429 79bc 90E9      		ldi r25,hi8(-28672)
 21430               	.LVL1578:
 21431               	/* #APP */
 21432               	 ;  105 "/usr/local/CrossPack-AVR-20100115/lib/gcc/avr/4.3.3/../../../../avr/include/util/delay_bas
 21433 79be 0197      		1: sbiw r24,1
 21434 79c0 01F4      		brne 1b
 21435               	 ;  0 "" 2
 21436               	/* #NOAPP */
 21437 79c2 C0E0      		ldi r28,lo8(string)
 21438 79c4 D0E0      		ldi r29,hi8(string)
 21439 79c6 10E0      		ldi r17,lo8(0)
 21440               	.LVL1579:
 21441 79c8 00C0      		rjmp .L1300
 21442               	.LVL1580:
 21443               	.L1302:
 21444               	.LBE1005:
 21445               	.LBE1004:
 21446               	.LBE1003:
 21447               	.LBE1002:
 21448               	.LM2394:
 21449 79ca 1233      		cpi r17,lo8(50)
 21450 79cc 01F0      		breq .L1308
 21451               	.LM2395:
 21452 79ce 80E0      		ldi r24,lo8(0)
 21453 79d0 0E94 0000 		call Wifi_GetByte
 21454 79d4 8993      		st Y+,r24
 21455               	.LM2396:
 21456 79d6 1F5F      		subi r17,lo8(-(1))
 21457               	.LVL1581:
 21458               	.L1300:
 21459               	.LM2397:
 21460 79d8 0E94 0000 		call Wifi_CharReadyToRead
 21461               	.LVL1582:
 21462 79dc 8823      		tst r24
 21463 79de 01F4      		brne .L1302
 21464               	.L1308:
 21465               	.LBB1006:
 21466               	.LBB1007:
 21467               	.LM2398:
 21468 79e0 8091 A108 		lds r24,2209
 21469 79e4 85FF      		sbrs r24,5
 21470 79e6 00C0      		rjmp .L1308
 21471               	.LM2399:
 21472 79e8 8DE0      		ldi r24,lo8(13)
 21473 79ea 8093 A008 		sts 2208,r24
 21474               	.LBE1007:
 21475               	.LBE1006:
 21476               	.LM2400:
 21477 79ee 1430      		cpi r17,lo8(4)
 21478 79f0 00F4      		brsh .+2
 21479 79f2 00C0      		rjmp .L1303
 21480               	.LM2401:
 21481 79f4 8091 0000 		lds r24,string
 21482 79f8 8E34      		cpi r24,lo8(78)
 21483 79fa 01F4      		brne .+2
 21484 79fc 00C0      		rjmp .L1303
 21485               	.LM2402:
 21486 79fe 80E0      		ldi r24,lo8(string)
 21487 7a00 90E0      		ldi r25,hi8(string)
 21488 7a02 60E0      		ldi r22,lo8(.LC31)
 21489 7a04 70E0      		ldi r23,hi8(.LC31)
 21490 7a06 0E94 0000 		call strtok
 21491               	.LM2403:
 21492 7a0a 80E0      		ldi r24,lo8(0)
 21493 7a0c 90E0      		ldi r25,hi8(0)
 21494 7a0e 60E0      		ldi r22,lo8(.LC31)
 21495 7a10 70E0      		ldi r23,hi8(.LC31)
 21496 7a12 0E94 0000 		call strtok
 21497               	.LM2404:
 21498 7a16 80E0      		ldi r24,lo8(0)
 21499 7a18 90E0      		ldi r25,hi8(0)
 21500 7a1a 60E0      		ldi r22,lo8(.LC68)
 21501 7a1c 70E0      		ldi r23,hi8(.LC68)
 21502 7a1e 0E94 0000 		call strtok
 21503 7a22 BC01      		movw r22,r24
 21504 7a24 80E0      		ldi r24,lo8(timeString)
 21505 7a26 90E0      		ldi r25,hi8(timeString)
 21506 7a28 0E94 0000 		call strcat
 21507 7a2c 20E0      		ldi r18,lo8(0)
 21508 7a2e 30E0      		ldi r19,hi8(0)
 21509               	.L1304:
 21510               	.LBB1008:
 21511               	.LM2405:
 21512 7a30 F901      		movw r30,r18
 21513 7a32 E050      		subi r30,lo8(-(timeUpper))
 21514 7a34 F040      		sbci r31,hi8(-(timeUpper))
 21515 7a36 D901      		movw r26,r18
 21516 7a38 A050      		subi r26,lo8(-(timeString))
 21517 7a3a B040      		sbci r27,hi8(-(timeString))
 21518 7a3c 8C91      		ld r24,X
 21519 7a3e 8083      		st Z,r24
 21520 7a40 2F5F      		subi r18,lo8(-(1))
 21521 7a42 3F4F      		sbci r19,hi8(-(1))
 21522               	.LM2406:
 21523 7a44 2830      		cpi r18,8
 21524 7a46 3105      		cpc r19,__zero_reg__
 21525 7a48 01F4      		brne .L1304
 21526 7a4a A0E0      		ldi r26,lo8(timeString+8)
 21527 7a4c B0E0      		ldi r27,hi8(timeString+8)
 21528 7a4e 20E0      		ldi r18,lo8(0)
 21529 7a50 30E0      		ldi r19,hi8(0)
 21530               	.L1305:
 21531               	.LBE1008:
 21532               	.LBB1009:
 21533               	.LM2407:
 21534 7a52 8D91      		ld r24,X+
 21535 7a54 F901      		movw r30,r18
 21536 7a56 E050      		subi r30,lo8(-(timeLower))
 21537 7a58 F040      		sbci r31,hi8(-(timeLower))
 21538 7a5a 8083      		st Z,r24
 21539 7a5c 2F5F      		subi r18,lo8(-(1))
 21540 7a5e 3F4F      		sbci r19,hi8(-(1))
 21541               	.LM2408:
 21542 7a60 2530      		cpi r18,5
 21543 7a62 3105      		cpc r19,__zero_reg__
 21544 7a64 01F4      		brne .L1305
 21545               	.LBE1009:
 21546               	.LM2409:
 21547 7a66 80E0      		ldi r24,lo8(timeUpper)
 21548 7a68 90E0      		ldi r25,hi8(timeUpper)
 21549 7a6a 0E94 0000 		call atol
 21550 7a6e 9B01      		movw r18,r22
 21551 7a70 AC01      		movw r20,r24
 21552               	.LM2410:
 21553 7a72 205A      		subi r18,lo8(-(-22089888))
 21554 7a74 3041      		sbci r19,hi8(-(-22089888))
 21555 7a76 4145      		sbci r20,hlo8(-(-22089888))
 21556 7a78 5140      		sbci r21,hhi8(-(-22089888))
 21557               	.LVL1583:
 21558               	.LM2411:
 21559 7a7a CA01      		movw r24,r20
 21560 7a7c B901      		movw r22,r18
 21561 7a7e 24E6      		ldi r18,lo8(100)
 21562 7a80 30E0      		ldi r19,hi8(100)
 21563 7a82 40E0      		ldi r20,hlo8(100)
 21564 7a84 50E0      		ldi r21,hhi8(100)
 21565               	.LVL1584:
 21566 7a86 0E94 0000 		call __mulsi3
 21567               	.LM2412:
 21568 7a8a E091 0000 		lds r30,timeLower
 21569               	.LM2413:
 21570 7a8e 2091 0000 		lds r18,timeLower+1
 21571               	.LM2414:
 21572 7a92 30E0      		ldi r19,lo8(0)
 21573 7a94 2053      		subi r18,lo8(-(-48))
 21574 7a96 3040      		sbci r19,hi8(-(-48))
 21575 7a98 4427      		clr r20
 21576 7a9a 37FD      		sbrc r19,7
 21577 7a9c 4095      		com r20
 21578 7a9e 542F      		mov r21,r20
 21579 7aa0 260F      		add r18,r22
 21580 7aa2 371F      		adc r19,r23
 21581 7aa4 481F      		adc r20,r24
 21582 7aa6 591F      		adc r21,r25
 21583               	.LVL1585:
 21584               	.LM2415:
 21585 7aa8 8AE0      		ldi r24,lo8(10)
 21586 7aaa E89F      		mul r30,r24
 21587 7aac C001      		movw r24,r0
 21588 7aae 1124      		clr r1
 21589 7ab0 805E      		subi r24,lo8(-(-480))
 21590 7ab2 9140      		sbci r25,hi8(-(-480))
 21591 7ab4 7C01      		movw r14,r24
 21592 7ab6 0027      		clr r16
 21593 7ab8 F7FC      		sbrc r15,7
 21594 7aba 0095      		com r16
 21595 7abc 102F      		mov r17,r16
 21596 7abe 2E0D      		add r18,r14
 21597 7ac0 3F1D      		adc r19,r15
 21598 7ac2 401F      		adc r20,r16
 21599 7ac4 511F      		adc r21,r17
 21600               	.LM2416:
 21601 7ac6 2093 0000 		sts time_secs,r18
 21602 7aca 3093 0000 		sts (time_secs)+1,r19
 21603 7ace 4093 0000 		sts (time_secs)+2,r20
 21604 7ad2 5093 0000 		sts (time_secs)+3,r21
 21605 7ad6 81E0      		ldi r24,lo8(1)
 21606 7ad8 00C0      		rjmp .L1306
 21607               	.LVL1586:
 21608               	.L1303:
 21609               	.LM2417:
 21610 7ada 80E0      		ldi r24,lo8(0)
 21611               	.LVL1587:
 21612               	.L1306:
 21613               	/* epilogue start */
 21614               	.LM2418:
 21615 7adc DF91      		pop r29
 21616 7ade CF91      		pop r28
 21617 7ae0 1F91      		pop r17
 21618               	.LVL1588:
 21619 7ae2 0F91      		pop r16
 21620 7ae4 FF90      		pop r15
 21621 7ae6 EF90      		pop r14
 21622 7ae8 0895      		ret
 21623               	.LFE22:
 21625               		.data
 21626               	.LC69:
 21627 03cb 6661 6374 		.string	"factory RESET"
 21627      6F72 7920 
 21627      5245 5345 
 21627      5400 
 21628               	.LC70:
 21629 03d9 5365 7420 		.string	"Set Factory Defaults"
 21629      4661 6374 
 21629      6F72 7920 
 21629      4465 6661 
 21629      756C 7473 
 21630               	.LC71:
 21631 03ee 7265 7365 		.string	"reset..........OK"
 21631      742E 2E2E 
 21631      2E2E 2E2E 
 21631      2E2E 2E4F 
 21631      4B00 
 21632               	.LC72:
 21633 0400 7265 7365 		.string	"reset........FAIL"
 21633      742E 2E2E 
 21633      2E2E 2E2E 
 21633      2E46 4149 
 21633      4C00 
 21634               	.LC73:
 21635 0412 7365 7420 		.string	"set comm remote 0"
 21635      636F 6D6D 
 21635      2072 656D 
 21635      6F74 6520 
 21635      3000 
 21636               	.LC74:
 21637 0424 414F 4B00 		.string	"AOK"
 21638               	.LC75:
 21639 0428 7365 7420 		.string	"set comm open 0"
 21639      636F 6D6D 
 21639      206F 7065 
 21639      6E20 3000 
 21640               	.LC76:
 21641 0438 7365 7420 		.string	"set comm close AOK"
 21641      636F 6D6D 
 21641      2063 6C6F 
 21641      7365 2041 
 21641      4F4B 00
 21642               	.LC77:
 21643 044b 7365 7420 		.string	"set time enable 1"
 21643      7469 6D65 
 21643      2065 6E61 
 21643      626C 6520 
 21643      3100 
 21644               	.LC78:
 21645 045d 656E 6162 		.string	"enable time....OK"
 21645      6C65 2074 
 21645      696D 652E 
 21645      2E2E 2E4F 
 21645      4B00 
 21646               	.LC79:
 21647 046f 656E 6162 		.string	"enable time..FAIL"
 21647      6C65 2074 
 21647      696D 652E 
 21647      2E46 4149 
 21647      4C00 
 21648               	.LC80:
 21649 0481 656E 6372 		.string	"encryption.....OK"
 21649      7970 7469 
 21649      6F6E 2E2E 
 21649      2E2E 2E4F 
 21649      4B00 
 21650               	.LC81:
 21651 0493 656E 6372 		.string	"encryption...FAIL"
 21651      7970 7469 
 21651      6F6E 2E2E 
 21651      2E46 4149 
 21651      4C00 
 21652               	.LC82:
 21653 04a5 7068 7261 		.string	"phrase.........OK"
 21653      7365 2E2E 
 21653      2E2E 2E2E 
 21653      2E2E 2E4F 
 21653      4B00 
 21654               	.LC83:
 21655 04b7 7068 7261 		.string	"phrase.......FAIL"
 21655      7365 2E2E 
 21655      2E2E 2E2E 
 21655      2E46 4149 
 21655      4C00 
 21656               	.LC84:
 21657 04c9 706F 7274 		.string	"port...........OK"
 21657      2E2E 2E2E 
 21657      2E2E 2E2E 
 21657      2E2E 2E4F 
 21657      4B00 
 21658               	.LC85:
 21659 04db 706F 7274 		.string	"port.........FAIL"
 21659      2E2E 2E2E 
 21659      2E2E 2E2E 
 21659      2E46 4149 
 21659      4C00 
 21660               	.LC86:
 21661 04ed 4465 4175 		.string	"DeAut"
 21661      7400 
 21662               	.LC87:
 21663 04f3 4175 746F 		.string	"Auto+"
 21663      2B00 
 21664               	.LC88:
 21665 04f9 7373 6964 		.string	"ssid...........OK"
 21665      2E2E 2E2E 
 21665      2E2E 2E2E 
 21665      2E2E 2E4F 
 21665      4B00 
 21666               	.LC89:
 21667 050b 7373 6964 		.string	"ssid.........FAIL"
 21667      2E2E 2E2E 
 21667      2E2E 2E2E 
 21667      2E46 4149 
 21667      4C00 
 21668               	.LC90:
 21669 051d 6765 7420 		.string	"get time"
 21669      7469 6D65 
 21669      00
 21670               	.LC91:
 21671 0526 5469 6D65 		.string	"TimeEna=1"
 21671      456E 613D 
 21671      3100 
 21672               	.LC92:
 21673 0530 636F 6E6E 		.string	"connection.....OK"
 21673      6563 7469 
 21673      6F6E 2E2E 
 21673      2E2E 2E4F 
 21673      4B00 
 21674               	.LC93:
 21675 0542 636F 6E6E 		.string	"connection...FAIL"
 21675      6563 7469 
 21675      6F6E 2E2E 
 21675      2E46 4149 
 21675      4C00 
 21676               	.LC94:
 21677 0554 696E 7465 		.string	"internet.......OK"
 21677      726E 6574 
 21677      2E2E 2E2E 
 21677      2E2E 2E4F 
 21677      4B00 
 21678               	.LC95:
 21679 0566 696E 7465 		.string	"internet.....FAIL"
 21679      726E 6574 
 21679      2E2E 2E2E 
 21679      2E46 4149 
 21679      4C00 
 21680               		.text
 21681               	.global	Config_Wifi
 21683               	Config_Wifi:
 21684               	.LFB174:
 21685               	.LM2419:
 21686 7aea 1F93      		push r17
 21687               	/* prologue: function */
 21688               	/* frame size = 0 */
 21689               	.LM2420:
 21690 7aec 0E94 0000 		call Wifi_ClearBuffer
 21691               	.LM2421:
 21692 7af0 88EE      		ldi r24,lo8(1000)
 21693 7af2 93E0      		ldi r25,hi8(1000)
 21694 7af4 0E94 0000 		call Wifi_EnterCMDMode
 21695 7af8 80E1      		ldi r24,lo8(10000)
 21696 7afa 97E2      		ldi r25,hi8(10000)
 21697               	.LVL1589:
 21698               	.LBB1010:
 21699               	.LBB1011:
 21700               	.LBB1012:
 21701               	.LBB1013:
 21702               	.LM2422:
 21703 7afc 20E7      		ldi r18,lo8(368)
 21704 7afe 31E0      		ldi r19,hi8(368)
 21705               	.L1313:
 21706 7b00 F901      		movw r30,r18
 21707               	.LVL1590:
 21708               	/* #APP */
 21709               	 ;  105 "/usr/local/CrossPack-AVR-20100115/lib/gcc/avr/4.3.3/../../../../avr/include/util/delay_bas
 21710 7b02 3197      		1: sbiw r30,1
 21711 7b04 01F4      		brne 1b
 21712               	 ;  0 "" 2
 21713               	/* #NOAPP */
 21714               	.LBE1013:
 21715               	.LBE1012:
 21716               	.LM2423:
 21717 7b06 0197      		sbiw r24,1
 21718               	.LM2424:
 21719 7b08 01F4      		brne .L1313
 21720               	.LBE1011:
 21721               	.LBE1010:
 21722               	.LM2425:
 21723 7b0a 0E94 0000 		call display_clearBuffer
 21724               	.LVL1591:
 21725               	.LM2426:
 21726 7b0e 0E94 0000 		call display_writeBufferToScreen
 21727               	.LM2427:
 21728 7b12 80E0      		ldi r24,lo8(.LC69)
 21729 7b14 90E0      		ldi r25,hi8(.LC69)
 21730 7b16 60E0      		ldi r22,lo8(.LC70)
 21731 7b18 70E0      		ldi r23,hi8(.LC70)
 21732 7b1a AB01      		movw r20,r22
 21733 7b1c 24EF      		ldi r18,lo8(500)
 21734 7b1e 31E0      		ldi r19,hi8(500)
 21735 7b20 0E94 0000 		call Wifi_SendCommand
 21736 7b24 8823      		tst r24
 21737 7b26 01F0      		breq .L1314
 21738               	.LM2428:
 21739 7b28 80E0      		ldi r24,lo8(.LC71)
 21740 7b2a 90E0      		ldi r25,hi8(.LC71)
 21741 7b2c 00C0      		rjmp .L1367
 21742               	.L1314:
 21743               	.LM2429:
 21744 7b2e 80E0      		ldi r24,lo8(.LC72)
 21745 7b30 90E0      		ldi r25,hi8(.LC72)
 21746               	.L1367:
 21747 7b32 60E0      		ldi r22,lo8(0)
 21748 7b34 40E0      		ldi r20,lo8(0)
 21749 7b36 20E0      		ldi r18,lo8(System5x7)
 21750 7b38 30E0      		ldi r19,hi8(System5x7)
 21751 7b3a 0E94 0000 		call display_putString
 21752               	.LM2430:
 21753 7b3e 0E94 0000 		call display_writeBufferToScreen
 21754 7b42 80E1      		ldi r24,lo8(10000)
 21755 7b44 97E2      		ldi r25,hi8(10000)
 21756               	.LVL1592:
 21757               	.LBB1014:
 21758               	.LBB1015:
 21759               	.LBB1016:
 21760               	.LBB1017:
 21761               	.LM2431:
 21762 7b46 20E7      		ldi r18,lo8(368)
 21763 7b48 31E0      		ldi r19,hi8(368)
 21764               	.L1316:
 21765 7b4a F901      		movw r30,r18
 21766               	.LVL1593:
 21767               	/* #APP */
 21768               	 ;  105 "/usr/local/CrossPack-AVR-20100115/lib/gcc/avr/4.3.3/../../../../avr/include/util/delay_bas
 21769 7b4c 3197      		1: sbiw r30,1
 21770 7b4e 01F4      		brne 1b
 21771               	 ;  0 "" 2
 21772               	/* #NOAPP */
 21773               	.LBE1017:
 21774               	.LBE1016:
 21775               	.LM2432:
 21776 7b50 0197      		sbiw r24,1
 21777               	.LM2433:
 21778 7b52 01F4      		brne .L1316
 21779               	.LBE1015:
 21780               	.LBE1014:
 21781               	.LM2434:
 21782 7b54 0E94 0000 		call Wifi_ClearBuffer
 21783               	.LVL1594:
 21784               	.LM2435:
 21785 7b58 80E0      		ldi r24,lo8(.LC73)
 21786 7b5a 90E0      		ldi r25,hi8(.LC73)
 21787 7b5c 60E0      		ldi r22,lo8(.LC74)
 21788 7b5e 70E0      		ldi r23,hi8(.LC74)
 21789 7b60 AB01      		movw r20,r22
 21790 7b62 24EF      		ldi r18,lo8(500)
 21791 7b64 31E0      		ldi r19,hi8(500)
 21792 7b66 0E94 0000 		call Wifi_SendCommand
 21793 7b6a 80E1      		ldi r24,lo8(10000)
 21794 7b6c 97E2      		ldi r25,hi8(10000)
 21795               	.LVL1595:
 21796               	.LBB1018:
 21797               	.LBB1019:
 21798               	.LBB1020:
 21799               	.LBB1021:
 21800               	.LM2436:
 21801 7b6e 20E7      		ldi r18,lo8(368)
 21802 7b70 31E0      		ldi r19,hi8(368)
 21803               	.L1317:
 21804 7b72 F901      		movw r30,r18
 21805               	.LVL1596:
 21806               	/* #APP */
 21807               	 ;  105 "/usr/local/CrossPack-AVR-20100115/lib/gcc/avr/4.3.3/../../../../avr/include/util/delay_bas
 21808 7b74 3197      		1: sbiw r30,1
 21809 7b76 01F4      		brne 1b
 21810               	 ;  0 "" 2
 21811               	/* #NOAPP */
 21812               	.LBE1021:
 21813               	.LBE1020:
 21814               	.LM2437:
 21815 7b78 0197      		sbiw r24,1
 21816               	.LM2438:
 21817 7b7a 01F4      		brne .L1317
 21818               	.LBE1019:
 21819               	.LBE1018:
 21820               	.LM2439:
 21821 7b7c 80E0      		ldi r24,lo8(.LC75)
 21822 7b7e 90E0      		ldi r25,hi8(.LC75)
 21823               	.LVL1597:
 21824 7b80 60E0      		ldi r22,lo8(.LC74)
 21825 7b82 70E0      		ldi r23,hi8(.LC74)
 21826 7b84 AB01      		movw r20,r22
 21827 7b86 24EF      		ldi r18,lo8(500)
 21828 7b88 31E0      		ldi r19,hi8(500)
 21829 7b8a 0E94 0000 		call Wifi_SendCommand
 21830               	.LVL1598:
 21831 7b8e 80E1      		ldi r24,lo8(10000)
 21832 7b90 97E2      		ldi r25,hi8(10000)
 21833               	.LVL1599:
 21834               	.LBB1022:
 21835               	.LBB1023:
 21836               	.LBB1024:
 21837               	.LBB1025:
 21838               	.LM2440:
 21839 7b92 20E7      		ldi r18,lo8(368)
 21840 7b94 31E0      		ldi r19,hi8(368)
 21841               	.L1318:
 21842 7b96 F901      		movw r30,r18
 21843               	.LVL1600:
 21844               	/* #APP */
 21845               	 ;  105 "/usr/local/CrossPack-AVR-20100115/lib/gcc/avr/4.3.3/../../../../avr/include/util/delay_bas
 21846 7b98 3197      		1: sbiw r30,1
 21847 7b9a 01F4      		brne 1b
 21848               	 ;  0 "" 2
 21849               	/* #NOAPP */
 21850               	.LBE1025:
 21851               	.LBE1024:
 21852               	.LM2441:
 21853 7b9c 0197      		sbiw r24,1
 21854               	.LM2442:
 21855 7b9e 01F4      		brne .L1318
 21856               	.LBE1023:
 21857               	.LBE1022:
 21858               	.LM2443:
 21859 7ba0 80E0      		ldi r24,lo8(.LC76)
 21860 7ba2 90E0      		ldi r25,hi8(.LC76)
 21861               	.LVL1601:
 21862 7ba4 60E0      		ldi r22,lo8(.LC74)
 21863 7ba6 70E0      		ldi r23,hi8(.LC74)
 21864 7ba8 AB01      		movw r20,r22
 21865 7baa 24EF      		ldi r18,lo8(500)
 21866 7bac 31E0      		ldi r19,hi8(500)
 21867 7bae 0E94 0000 		call Wifi_SendCommand
 21868               	.LVL1602:
 21869 7bb2 80E1      		ldi r24,lo8(10000)
 21870 7bb4 97E2      		ldi r25,hi8(10000)
 21871               	.LVL1603:
 21872               	.LBB1026:
 21873               	.LBB1027:
 21874               	.LBB1028:
 21875               	.LBB1029:
 21876               	.LM2444:
 21877 7bb6 20E7      		ldi r18,lo8(368)
 21878 7bb8 31E0      		ldi r19,hi8(368)
 21879               	.L1319:
 21880 7bba F901      		movw r30,r18
 21881               	.LVL1604:
 21882               	/* #APP */
 21883               	 ;  105 "/usr/local/CrossPack-AVR-20100115/lib/gcc/avr/4.3.3/../../../../avr/include/util/delay_bas
 21884 7bbc 3197      		1: sbiw r30,1
 21885 7bbe 01F4      		brne 1b
 21886               	 ;  0 "" 2
 21887               	/* #NOAPP */
 21888               	.LBE1029:
 21889               	.LBE1028:
 21890               	.LM2445:
 21891 7bc0 0197      		sbiw r24,1
 21892               	.LM2446:
 21893 7bc2 01F4      		brne .L1319
 21894               	.LBE1027:
 21895               	.LBE1026:
 21896               	.LM2447:
 21897 7bc4 80E0      		ldi r24,lo8(.LC77)
 21898 7bc6 90E0      		ldi r25,hi8(.LC77)
 21899               	.LVL1605:
 21900 7bc8 60E0      		ldi r22,lo8(.LC74)
 21901 7bca 70E0      		ldi r23,hi8(.LC74)
 21902 7bcc AB01      		movw r20,r22
 21903 7bce 24EF      		ldi r18,lo8(500)
 21904 7bd0 31E0      		ldi r19,hi8(500)
 21905 7bd2 0E94 0000 		call Wifi_SendCommand
 21906               	.LVL1606:
 21907 7bd6 8823      		tst r24
 21908 7bd8 01F0      		breq .L1320
 21909               	.LM2448:
 21910 7bda 80E0      		ldi r24,lo8(.LC78)
 21911 7bdc 90E0      		ldi r25,hi8(.LC78)
 21912 7bde 00C0      		rjmp .L1368
 21913               	.L1320:
 21914               	.LM2449:
 21915 7be0 80E0      		ldi r24,lo8(.LC79)
 21916 7be2 90E0      		ldi r25,hi8(.LC79)
 21917               	.L1368:
 21918 7be4 61E0      		ldi r22,lo8(1)
 21919 7be6 40E0      		ldi r20,lo8(0)
 21920 7be8 20E0      		ldi r18,lo8(System5x7)
 21921 7bea 30E0      		ldi r19,hi8(System5x7)
 21922 7bec 0E94 0000 		call display_putString
 21923               	.LM2450:
 21924 7bf0 0E94 0000 		call display_writeBufferToScreen
 21925 7bf4 80E1      		ldi r24,lo8(10000)
 21926 7bf6 97E2      		ldi r25,hi8(10000)
 21927               	.LVL1607:
 21928               	.LBB1030:
 21929               	.LBB1031:
 21930               	.LBB1032:
 21931               	.LBB1033:
 21932               	.LM2451:
 21933 7bf8 20E7      		ldi r18,lo8(368)
 21934 7bfa 31E0      		ldi r19,hi8(368)
 21935               	.L1322:
 21936 7bfc F901      		movw r30,r18
 21937               	.LVL1608:
 21938               	/* #APP */
 21939               	 ;  105 "/usr/local/CrossPack-AVR-20100115/lib/gcc/avr/4.3.3/../../../../avr/include/util/delay_bas
 21940 7bfe 3197      		1: sbiw r30,1
 21941 7c00 01F4      		brne 1b
 21942               	 ;  0 "" 2
 21943               	/* #NOAPP */
 21944               	.LBE1033:
 21945               	.LBE1032:
 21946               	.LM2452:
 21947 7c02 0197      		sbiw r24,1
 21948               	.LM2453:
 21949 7c04 01F4      		brne .L1322
 21950               	.LBE1031:
 21951               	.LBE1030:
 21952               	.LM2454:
 21953 7c06 8091 0000 		lds r24,authRead
 21954               	.LVL1609:
 21955 7c0a 8823      		tst r24
 21956 7c0c 01F4      		brne .L1323
 21957 7c0e 12E0      		ldi r17,lo8(2)
 21958               	.LVL1610:
 21959 7c10 00C0      		rjmp .L1324
 21960               	.LVL1611:
 21961               	.L1323:
 21962               	.LM2455:
 21963 7c12 80E0      		ldi r24,lo8(auth)
 21964 7c14 90E0      		ldi r25,hi8(auth)
 21965 7c16 60E0      		ldi r22,lo8(.LC74)
 21966 7c18 70E0      		ldi r23,hi8(.LC74)
 21967 7c1a AB01      		movw r20,r22
 21968 7c1c 24EF      		ldi r18,lo8(500)
 21969 7c1e 31E0      		ldi r19,hi8(500)
 21970 7c20 0E94 0000 		call Wifi_SendCommand
 21971               	.LVL1612:
 21972 7c24 8823      		tst r24
 21973 7c26 01F0      		breq .L1325
 21974               	.LM2456:
 21975 7c28 80E0      		ldi r24,lo8(.LC80)
 21976 7c2a 90E0      		ldi r25,hi8(.LC80)
 21977 7c2c 00C0      		rjmp .L1369
 21978               	.L1325:
 21979               	.LM2457:
 21980 7c2e 80E0      		ldi r24,lo8(.LC81)
 21981 7c30 90E0      		ldi r25,hi8(.LC81)
 21982               	.L1369:
 21983 7c32 62E0      		ldi r22,lo8(2)
 21984 7c34 40E0      		ldi r20,lo8(0)
 21985 7c36 20E0      		ldi r18,lo8(System5x7)
 21986 7c38 30E0      		ldi r19,hi8(System5x7)
 21987 7c3a 0E94 0000 		call display_putString
 21988               	.LM2458:
 21989 7c3e 0E94 0000 		call display_writeBufferToScreen
 21990 7c42 80E1      		ldi r24,lo8(10000)
 21991 7c44 97E2      		ldi r25,hi8(10000)
 21992               	.LVL1613:
 21993               	.LBB1034:
 21994               	.LBB1035:
 21995               	.LBB1036:
 21996               	.LBB1037:
 21997               	.LM2459:
 21998 7c46 20E7      		ldi r18,lo8(368)
 21999 7c48 31E0      		ldi r19,hi8(368)
 22000               	.L1327:
 22001 7c4a F901      		movw r30,r18
 22002               	.LVL1614:
 22003               	/* #APP */
 22004               	 ;  105 "/usr/local/CrossPack-AVR-20100115/lib/gcc/avr/4.3.3/../../../../avr/include/util/delay_bas
 22005 7c4c 3197      		1: sbiw r30,1
 22006 7c4e 01F4      		brne 1b
 22007               	 ;  0 "" 2
 22008               	/* #NOAPP */
 22009               	.LBE1037:
 22010               	.LBE1036:
 22011               	.LM2460:
 22012 7c50 0197      		sbiw r24,1
 22013               	.LM2461:
 22014 7c52 01F4      		brne .L1327
 22015 7c54 13E0      		ldi r17,lo8(3)
 22016               	.LVL1615:
 22017               	.L1324:
 22018               	.LBE1035:
 22019               	.LBE1034:
 22020               	.LM2462:
 22021 7c56 8091 0000 		lds r24,phraseRead
 22022               	.LVL1616:
 22023 7c5a 8823      		tst r24
 22024 7c5c 01F0      		breq .L1328
 22025               	.LM2463:
 22026 7c5e 80E0      		ldi r24,lo8(phrase)
 22027 7c60 90E0      		ldi r25,hi8(phrase)
 22028 7c62 60E0      		ldi r22,lo8(.LC74)
 22029 7c64 70E0      		ldi r23,hi8(.LC74)
 22030 7c66 AB01      		movw r20,r22
 22031 7c68 24EF      		ldi r18,lo8(500)
 22032 7c6a 31E0      		ldi r19,hi8(500)
 22033 7c6c 0E94 0000 		call Wifi_SendCommand
 22034               	.LVL1617:
 22035 7c70 8823      		tst r24
 22036 7c72 01F0      		breq .L1329
 22037               	.LM2464:
 22038 7c74 80E0      		ldi r24,lo8(.LC82)
 22039 7c76 90E0      		ldi r25,hi8(.LC82)
 22040 7c78 00C0      		rjmp .L1370
 22041               	.L1329:
 22042               	.LM2465:
 22043 7c7a 80E0      		ldi r24,lo8(.LC83)
 22044 7c7c 90E0      		ldi r25,hi8(.LC83)
 22045               	.L1370:
 22046 7c7e 612F      		mov r22,r17
 22047 7c80 40E0      		ldi r20,lo8(0)
 22048 7c82 20E0      		ldi r18,lo8(System5x7)
 22049 7c84 30E0      		ldi r19,hi8(System5x7)
 22050 7c86 0E94 0000 		call display_putString
 22051               	.LM2466:
 22052 7c8a 0E94 0000 		call display_writeBufferToScreen
 22053 7c8e 80E1      		ldi r24,lo8(10000)
 22054 7c90 97E2      		ldi r25,hi8(10000)
 22055               	.LVL1618:
 22056               	.LBB1038:
 22057               	.LBB1039:
 22058               	.LBB1040:
 22059               	.LBB1041:
 22060               	.LM2467:
 22061 7c92 20E7      		ldi r18,lo8(368)
 22062 7c94 31E0      		ldi r19,hi8(368)
 22063               	.L1331:
 22064 7c96 F901      		movw r30,r18
 22065               	.LVL1619:
 22066               	/* #APP */
 22067               	 ;  105 "/usr/local/CrossPack-AVR-20100115/lib/gcc/avr/4.3.3/../../../../avr/include/util/delay_bas
 22068 7c98 3197      		1: sbiw r30,1
 22069 7c9a 01F4      		brne 1b
 22070               	 ;  0 "" 2
 22071               	/* #NOAPP */
 22072               	.LBE1041:
 22073               	.LBE1040:
 22074               	.LM2468:
 22075 7c9c 0197      		sbiw r24,1
 22076               	.LM2469:
 22077 7c9e 01F4      		brne .L1331
 22078               	.LBE1039:
 22079               	.LBE1038:
 22080               	.LM2470:
 22081 7ca0 1F5F      		subi r17,lo8(-(1))
 22082               	.LVL1620:
 22083               	.L1328:
 22084               	.LM2471:
 22085 7ca2 8091 0000 		lds r24,portRead
 22086               	.LVL1621:
 22087 7ca6 8823      		tst r24
 22088 7ca8 01F0      		breq .L1332
 22089               	.LM2472:
 22090 7caa 80E0      		ldi r24,lo8(port)
 22091 7cac 90E0      		ldi r25,hi8(port)
 22092 7cae 60E0      		ldi r22,lo8(.LC74)
 22093 7cb0 70E0      		ldi r23,hi8(.LC74)
 22094 7cb2 AB01      		movw r20,r22
 22095 7cb4 24EF      		ldi r18,lo8(500)
 22096 7cb6 31E0      		ldi r19,hi8(500)
 22097 7cb8 0E94 0000 		call Wifi_SendCommand
 22098               	.LVL1622:
 22099 7cbc 8823      		tst r24
 22100 7cbe 01F0      		breq .L1333
 22101               	.LM2473:
 22102 7cc0 80E0      		ldi r24,lo8(.LC84)
 22103 7cc2 90E0      		ldi r25,hi8(.LC84)
 22104 7cc4 00C0      		rjmp .L1371
 22105               	.L1333:
 22106               	.LM2474:
 22107 7cc6 80E0      		ldi r24,lo8(.LC85)
 22108 7cc8 90E0      		ldi r25,hi8(.LC85)
 22109               	.L1371:
 22110 7cca 612F      		mov r22,r17
 22111 7ccc 40E0      		ldi r20,lo8(0)
 22112 7cce 20E0      		ldi r18,lo8(System5x7)
 22113 7cd0 30E0      		ldi r19,hi8(System5x7)
 22114 7cd2 0E94 0000 		call display_putString
 22115               	.LM2475:
 22116 7cd6 0E94 0000 		call display_writeBufferToScreen
 22117 7cda 80E1      		ldi r24,lo8(10000)
 22118 7cdc 97E2      		ldi r25,hi8(10000)
 22119               	.LVL1623:
 22120               	.LBB1042:
 22121               	.LBB1043:
 22122               	.LBB1044:
 22123               	.LBB1045:
 22124               	.LM2476:
 22125 7cde 20E7      		ldi r18,lo8(368)
 22126 7ce0 31E0      		ldi r19,hi8(368)
 22127               	.L1335:
 22128 7ce2 F901      		movw r30,r18
 22129               	.LVL1624:
 22130               	/* #APP */
 22131               	 ;  105 "/usr/local/CrossPack-AVR-20100115/lib/gcc/avr/4.3.3/../../../../avr/include/util/delay_bas
 22132 7ce4 3197      		1: sbiw r30,1
 22133 7ce6 01F4      		brne 1b
 22134               	 ;  0 "" 2
 22135               	/* #NOAPP */
 22136               	.LBE1045:
 22137               	.LBE1044:
 22138               	.LM2477:
 22139 7ce8 0197      		sbiw r24,1
 22140               	.LM2478:
 22141 7cea 01F4      		brne .L1335
 22142               	.LBE1043:
 22143               	.LBE1042:
 22144               	.LM2479:
 22145 7cec 1F5F      		subi r17,lo8(-(1))
 22146               	.LVL1625:
 22147               	.L1332:
 22148               	.LM2480:
 22149 7cee 8091 0000 		lds r24,ssidRead
 22150               	.LVL1626:
 22151 7cf2 8823      		tst r24
 22152 7cf4 01F0      		breq .L1336
 22153               	.LM2481:
 22154 7cf6 80E0      		ldi r24,lo8(ssid)
 22155 7cf8 90E0      		ldi r25,hi8(ssid)
 22156 7cfa 60E0      		ldi r22,lo8(.LC86)
 22157 7cfc 70E0      		ldi r23,hi8(.LC86)
 22158 7cfe 40E0      		ldi r20,lo8(.LC87)
 22159 7d00 50E0      		ldi r21,hi8(.LC87)
 22160 7d02 20ED      		ldi r18,lo8(2000)
 22161 7d04 37E0      		ldi r19,hi8(2000)
 22162 7d06 0E94 0000 		call Wifi_SendCommand
 22163               	.LVL1627:
 22164 7d0a 8823      		tst r24
 22165 7d0c 01F0      		breq .L1337
 22166               	.LM2482:
 22167 7d0e 80E0      		ldi r24,lo8(.LC88)
 22168 7d10 90E0      		ldi r25,hi8(.LC88)
 22169 7d12 00C0      		rjmp .L1372
 22170               	.L1337:
 22171               	.LM2483:
 22172 7d14 80E0      		ldi r24,lo8(.LC89)
 22173 7d16 90E0      		ldi r25,hi8(.LC89)
 22174               	.L1372:
 22175 7d18 612F      		mov r22,r17
 22176 7d1a 40E0      		ldi r20,lo8(0)
 22177 7d1c 20E0      		ldi r18,lo8(System5x7)
 22178 7d1e 30E0      		ldi r19,hi8(System5x7)
 22179 7d20 0E94 0000 		call display_putString
 22180               	.LM2484:
 22181 7d24 0E94 0000 		call display_writeBufferToScreen
 22182 7d28 80E1      		ldi r24,lo8(10000)
 22183 7d2a 97E2      		ldi r25,hi8(10000)
 22184               	.LVL1628:
 22185               	.LBB1046:
 22186               	.LBB1047:
 22187               	.LBB1048:
 22188               	.LBB1049:
 22189               	.LM2485:
 22190 7d2c 20E7      		ldi r18,lo8(368)
 22191 7d2e 31E0      		ldi r19,hi8(368)
 22192               	.L1339:
 22193 7d30 F901      		movw r30,r18
 22194               	.LVL1629:
 22195               	/* #APP */
 22196               	 ;  105 "/usr/local/CrossPack-AVR-20100115/lib/gcc/avr/4.3.3/../../../../avr/include/util/delay_bas
 22197 7d32 3197      		1: sbiw r30,1
 22198 7d34 01F4      		brne 1b
 22199               	 ;  0 "" 2
 22200               	/* #NOAPP */
 22201               	.LBE1049:
 22202               	.LBE1048:
 22203               	.LM2486:
 22204 7d36 0197      		sbiw r24,1
 22205               	.LM2487:
 22206 7d38 01F4      		brne .L1339
 22207               	.LBE1047:
 22208               	.LBE1046:
 22209               	.LM2488:
 22210 7d3a 1F5F      		subi r17,lo8(-(1))
 22211               	.LVL1630:
 22212               	.L1336:
 22213               	.LM2489:
 22214 7d3c 80E0      		ldi r24,lo8(.LC90)
 22215 7d3e 90E0      		ldi r25,hi8(.LC90)
 22216               	.LVL1631:
 22217 7d40 60E0      		ldi r22,lo8(.LC91)
 22218 7d42 70E0      		ldi r23,hi8(.LC91)
 22219 7d44 AB01      		movw r20,r22
 22220 7d46 24EF      		ldi r18,lo8(500)
 22221 7d48 31E0      		ldi r19,hi8(500)
 22222 7d4a 0E94 0000 		call Wifi_SendCommand
 22223               	.LVL1632:
 22224 7d4e 80E1      		ldi r24,lo8(10000)
 22225 7d50 97E2      		ldi r25,hi8(10000)
 22226               	.LVL1633:
 22227               	.LBB1050:
 22228               	.LBB1051:
 22229               	.LBB1052:
 22230               	.LBB1053:
 22231               	.LM2490:
 22232 7d52 20E7      		ldi r18,lo8(368)
 22233 7d54 31E0      		ldi r19,hi8(368)
 22234               	.L1340:
 22235 7d56 F901      		movw r30,r18
 22236               	.LVL1634:
 22237               	/* #APP */
 22238               	 ;  105 "/usr/local/CrossPack-AVR-20100115/lib/gcc/avr/4.3.3/../../../../avr/include/util/delay_bas
 22239 7d58 3197      		1: sbiw r30,1
 22240 7d5a 01F4      		brne 1b
 22241               	 ;  0 "" 2
 22242               	/* #NOAPP */
 22243               	.LBE1053:
 22244               	.LBE1052:
 22245               	.LM2491:
 22246 7d5c 0197      		sbiw r24,1
 22247               	.LM2492:
 22248 7d5e 01F4      		brne .L1340
 22249               	.LBE1051:
 22250               	.LBE1050:
 22251               	.LM2493:
 22252 7d60 84EF      		ldi r24,lo8(500)
 22253 7d62 91E0      		ldi r25,hi8(500)
 22254               	.LVL1635:
 22255 7d64 0E94 0000 		call Wifi_ExitCMDMode
 22256               	.LVL1636:
 22257 7d68 80E1      		ldi r24,lo8(10000)
 22258 7d6a 97E2      		ldi r25,hi8(10000)
 22259               	.LVL1637:
 22260               	.LBB1054:
 22261               	.LBB1055:
 22262               	.LBB1056:
 22263               	.LBB1057:
 22264               	.LM2494:
 22265 7d6c 20E7      		ldi r18,lo8(368)
 22266 7d6e 31E0      		ldi r19,hi8(368)
 22267               	.L1341:
 22268 7d70 F901      		movw r30,r18
 22269               	.LVL1638:
 22270               	/* #APP */
 22271               	 ;  105 "/usr/local/CrossPack-AVR-20100115/lib/gcc/avr/4.3.3/../../../../avr/include/util/delay_bas
 22272 7d72 3197      		1: sbiw r30,1
 22273 7d74 01F4      		brne 1b
 22274               	 ;  0 "" 2
 22275               	/* #NOAPP */
 22276               	.LBE1057:
 22277               	.LBE1056:
 22278               	.LM2495:
 22279 7d76 0197      		sbiw r24,1
 22280               	.LM2496:
 22281 7d78 01F4      		brne .L1341
 22282               	.LBE1055:
 22283               	.LBE1054:
 22284               	.LM2497:
 22285 7d7a 84EF      		ldi r24,lo8(500)
 22286 7d7c 91E0      		ldi r25,hi8(500)
 22287               	.LVL1639:
 22288 7d7e 0E94 0000 		call Wifi_EnterCMDMode
 22289               	.LVL1640:
 22290 7d82 80E1      		ldi r24,lo8(10000)
 22291 7d84 97E2      		ldi r25,hi8(10000)
 22292               	.LVL1641:
 22293               	.LBB1058:
 22294               	.LBB1059:
 22295               	.LBB1060:
 22296               	.LBB1061:
 22297               	.LM2498:
 22298 7d86 20E7      		ldi r18,lo8(368)
 22299 7d88 31E0      		ldi r19,hi8(368)
 22300               	.L1342:
 22301 7d8a F901      		movw r30,r18
 22302               	.LVL1642:
 22303               	/* #APP */
 22304               	 ;  105 "/usr/local/CrossPack-AVR-20100115/lib/gcc/avr/4.3.3/../../../../avr/include/util/delay_bas
 22305 7d8c 3197      		1: sbiw r30,1
 22306 7d8e 01F4      		brne 1b
 22307               	 ;  0 "" 2
 22308               	/* #NOAPP */
 22309               	.LBE1061:
 22310               	.LBE1060:
 22311               	.LM2499:
 22312 7d90 0197      		sbiw r24,1
 22313               	.LM2500:
 22314 7d92 01F4      		brne .L1342
 22315               	.LBE1059:
 22316               	.LBE1058:
 22317               	.LM2501:
 22318 7d94 88EE      		ldi r24,lo8(1000)
 22319 7d96 93E0      		ldi r25,hi8(1000)
 22320               	.LVL1643:
 22321 7d98 0E94 0000 		call Wifi_Connected
 22322               	.LVL1644:
 22323 7d9c 8823      		tst r24
 22324 7d9e 01F0      		breq .L1343
 22325               	.LM2502:
 22326 7da0 80E0      		ldi r24,lo8(.LC92)
 22327 7da2 90E0      		ldi r25,hi8(.LC92)
 22328 7da4 612F      		mov r22,r17
 22329 7da6 40E0      		ldi r20,lo8(0)
 22330 7da8 20E0      		ldi r18,lo8(System5x7)
 22331 7daa 30E0      		ldi r19,hi8(System5x7)
 22332 7dac 0E94 0000 		call display_putString
 22333               	.LM2503:
 22334 7db0 81E0      		ldi r24,lo8(1)
 22335 7db2 8093 0000 		sts connected,r24
 22336 7db6 00C0      		rjmp .L1344
 22337               	.L1343:
 22338               	.LM2504:
 22339 7db8 80E0      		ldi r24,lo8(.LC93)
 22340 7dba 90E0      		ldi r25,hi8(.LC93)
 22341 7dbc 612F      		mov r22,r17
 22342 7dbe 40E0      		ldi r20,lo8(0)
 22343 7dc0 20E0      		ldi r18,lo8(System5x7)
 22344 7dc2 30E0      		ldi r19,hi8(System5x7)
 22345 7dc4 0E94 0000 		call display_putString
 22346               	.LM2505:
 22347 7dc8 1092 0000 		sts connected,__zero_reg__
 22348               	.L1344:
 22349               	.LM2506:
 22350 7dcc 0E94 0000 		call display_writeBufferToScreen
 22351 7dd0 80E1      		ldi r24,lo8(10000)
 22352 7dd2 97E2      		ldi r25,hi8(10000)
 22353               	.LVL1645:
 22354               	.LBB1062:
 22355               	.LBB1063:
 22356               	.LBB1064:
 22357               	.LBB1065:
 22358               	.LM2507:
 22359 7dd4 20E7      		ldi r18,lo8(368)
 22360 7dd6 31E0      		ldi r19,hi8(368)
 22361               	.L1345:
 22362 7dd8 F901      		movw r30,r18
 22363               	.LVL1646:
 22364               	/* #APP */
 22365               	 ;  105 "/usr/local/CrossPack-AVR-20100115/lib/gcc/avr/4.3.3/../../../../avr/include/util/delay_bas
 22366 7dda 3197      		1: sbiw r30,1
 22367 7ddc 01F4      		brne 1b
 22368               	 ;  0 "" 2
 22369               	/* #NOAPP */
 22370               	.LBE1065:
 22371               	.LBE1064:
 22372               	.LM2508:
 22373 7dde 0197      		sbiw r24,1
 22374               	.LM2509:
 22375 7de0 01F4      		brne .L1345
 22376               	.LBE1063:
 22377               	.LBE1062:
 22378               	.LM2510:
 22379 7de2 1F5F      		subi r17,lo8(-(1))
 22380               	.LVL1647:
 22381               	.LM2511:
 22382 7de4 84EF      		ldi r24,lo8(500)
 22383 7de6 91E0      		ldi r25,hi8(500)
 22384               	.LVL1648:
 22385 7de8 0E94 0000 		call Wifi_ExitCMDMode
 22386               	.LVL1649:
 22387               	.LM2512:
 22388 7dec 8091 0000 		lds r24,connected
 22389 7df0 8823      		tst r24
 22390 7df2 01F0      		breq .L1346
 22391 7df4 80E1      		ldi r24,lo8(10000)
 22392 7df6 97E2      		ldi r25,hi8(10000)
 22393               	.LVL1650:
 22394               	.LBB1066:
 22395               	.LBB1067:
 22396               	.LBB1068:
 22397               	.LBB1069:
 22398               	.LM2513:
 22399 7df8 20E7      		ldi r18,lo8(368)
 22400 7dfa 31E0      		ldi r19,hi8(368)
 22401               	.L1347:
 22402 7dfc F901      		movw r30,r18
 22403               	.LVL1651:
 22404               	/* #APP */
 22405               	 ;  105 "/usr/local/CrossPack-AVR-20100115/lib/gcc/avr/4.3.3/../../../../avr/include/util/delay_bas
 22406 7dfe 3197      		1: sbiw r30,1
 22407 7e00 01F4      		brne 1b
 22408               	 ;  0 "" 2
 22409               	/* #NOAPP */
 22410               	.LBE1069:
 22411               	.LBE1068:
 22412               	.LM2514:
 22413 7e02 0197      		sbiw r24,1
 22414               	.LM2515:
 22415 7e04 01F4      		brne .L1347
 22416               	.LBE1067:
 22417               	.LBE1066:
 22418               	.LM2516:
 22419 7e06 84EF      		ldi r24,lo8(500)
 22420 7e08 91E0      		ldi r25,hi8(500)
 22421               	.LVL1652:
 22422 7e0a 0E94 0000 		call Wifi_EnterCMDMode
 22423               	.LVL1653:
 22424               	.LM2517:
 22425 7e0e 88EE      		ldi r24,lo8(1000)
 22426 7e10 93E0      		ldi r25,hi8(1000)
 22427 7e12 0E94 0000 		call Wifi_GetTime
 22428 7e16 8823      		tst r24
 22429 7e18 01F0      		breq .L1348
 22430               	.LM2518:
 22431 7e1a 80E0      		ldi r24,lo8(.LC94)
 22432 7e1c 90E0      		ldi r25,hi8(.LC94)
 22433 7e1e 612F      		mov r22,r17
 22434 7e20 40E0      		ldi r20,lo8(0)
 22435 7e22 20E0      		ldi r18,lo8(System5x7)
 22436 7e24 30E0      		ldi r19,hi8(System5x7)
 22437 7e26 0E94 0000 		call display_putString
 22438               	.LBB1070:
 22439               	.LBB1071:
 22440               	.LM2519:
 22441 7e2a 81E0      		ldi r24,lo8(1)
 22442 7e2c E0E2      		ldi r30,lo8(1568)
 22443 7e2e F6E0      		ldi r31,hi8(1568)
 22444 7e30 8583      		std Z+5,r24
 22445 7e32 00C0      		rjmp .L1349
 22446               	.L1348:
 22447               	.LBE1071:
 22448               	.LBE1070:
 22449               	.LM2520:
 22450 7e34 80E0      		ldi r24,lo8(.LC95)
 22451 7e36 90E0      		ldi r25,hi8(.LC95)
 22452 7e38 612F      		mov r22,r17
 22453 7e3a 40E0      		ldi r20,lo8(0)
 22454 7e3c 20E0      		ldi r18,lo8(System5x7)
 22455 7e3e 30E0      		ldi r19,hi8(System5x7)
 22456 7e40 0E94 0000 		call display_putString
 22457               	.LBB1072:
 22458               	.LBB1073:
 22459               	.LM2521:
 22460 7e44 82E0      		ldi r24,lo8(2)
 22461 7e46 E0E2      		ldi r30,lo8(1568)
 22462 7e48 F6E0      		ldi r31,hi8(1568)
 22463 7e4a 8583      		std Z+5,r24
 22464               	.LBE1073:
 22465               	.LBE1072:
 22466               	.LM2522:
 22467 7e4c 1092 0000 		sts connected,__zero_reg__
 22468               	.L1349:
 22469               	.LM2523:
 22470 7e50 0E94 0000 		call display_writeBufferToScreen
 22471               	.LM2524:
 22472 7e54 88EE      		ldi r24,lo8(1000)
 22473 7e56 93E0      		ldi r25,hi8(1000)
 22474 7e58 0E94 0000 		call Wifi_GetMac
 22475               	.LM2525:
 22476 7e5c 88EE      		ldi r24,lo8(1000)
 22477 7e5e 93E0      		ldi r25,hi8(1000)
 22478 7e60 0E94 0000 		call Wifi_ExitCMDMode
 22479 7e64 00C0      		rjmp .L1351
 22480               	.L1346:
 22481               	.LM2526:
 22482 7e66 80E0      		ldi r24,lo8(.LC95)
 22483 7e68 90E0      		ldi r25,hi8(.LC95)
 22484 7e6a 612F      		mov r22,r17
 22485 7e6c 40E0      		ldi r20,lo8(0)
 22486 7e6e 20E0      		ldi r18,lo8(System5x7)
 22487 7e70 30E0      		ldi r19,hi8(System5x7)
 22488 7e72 0E94 0000 		call display_putString
 22489               	.LM2527:
 22490 7e76 0E94 0000 		call display_writeBufferToScreen
 22491               	.LBB1074:
 22492               	.LBB1075:
 22493               	.LM2528:
 22494 7e7a 82E0      		ldi r24,lo8(2)
 22495 7e7c E0E2      		ldi r30,lo8(1568)
 22496 7e7e F6E0      		ldi r31,hi8(1568)
 22497 7e80 8583      		std Z+5,r24
 22498               	.L1351:
 22499               	/* epilogue start */
 22500               	.LBE1075:
 22501               	.LBE1074:
 22502               	.LM2529:
 22503 7e82 1F91      		pop r17
 22504               	.LVL1654:
 22505 7e84 0895      		ret
 22506               	.LFE174:
 22508               		.data
 22509               	.LC96:
 22510 0578 626F 6F74 		.string	"booting up"
 22510      696E 6720 
 22510      7570 00
 22511               	.LC97:
 22512 0583 626F 6F74 		.string	"booting up..."
 22512      696E 6720 
 22512      7570 2E2E 
 22512      2E00 
 22513               	.LC98:
 22514 0591 2E00      		.string	"."
 22515               	.LC99:
 22516 0593 5344 3F00 		.string	"SD?"
 22517               	.LC100:
 22518 0597 2020 2020 		.string	"    RECORDING!   "
 22518      5245 434F 
 22518      5244 494E 
 22518      4721 2020 
 22518      2000 
 22519               	.LC101:
 22520 05a9 2070 7265 		.string	" press select to "
 22520      7373 2073 
 22520      656C 6563 
 22520      7420 746F 
 22520      2000 
 22521               	.LC102:
 22522 05bb 2073 746F 		.string	" stop recording "
 22522      7020 7265 
 22522      636F 7264 
 22522      696E 6720 
 22522      00
 22523               	.LC103:
 22524 05cc 2020 2020 		.string	"    uSD Error    "
 22524      7553 4420 
 22524      4572 726F 
 22524      7220 2020 
 22524      2000 
 22525               	.LC104:
 22526 05de 2050 6C65 		.string	" Please Remove & "
 22526      6173 6520 
 22526      5265 6D6F 
 22526      7665 2026 
 22526      2000 
 22527               	.LC105:
 22528 05f0 2020 5265 		.string	"  Reinsert Card  "
 22528      696E 7365 
 22528      7274 2043 
 22528      6172 6420 
 22528      2000 
 22529               	.LC106:
 22530 0602 5254 4320 		.string	"RTC connected... "
 22530      636F 6E6E 
 22530      6563 7465 
 22530      642E 2E2E 
 22530      2000 
 22531               	.LC107:
 22532 0614 5254 4320 		.string	"RTC synced... "
 22532      7379 6E63 
 22532      6564 2E2E 
 22532      2E20 00
 22533               	.LC108:
 22534 0623 5469 6D65 		.string	"Time: %lu"
 22534      3A20 256C 
 22534      7500 
 22535               	.LC109:
 22536 062d 2020 506C 		.string	"  Please Replace "
 22536      6561 7365 
 22536      2052 6570 
 22536      6C61 6365 
 22536      2000 
 22537               	.LC110:
 22538 063f 2020 5468 		.string	"  The uSD card   "
 22538      6520 7553 
 22538      4420 6361 
 22538      7264 2020 
 22538      2000 
 22539               	.LC111:
 22540 0651 456E 7465 		.string	"Entering Debug to Wifi function"
 22540      7269 6E67 
 22540      2044 6562 
 22540      7567 2074 
 22540      6F20 5769 
 22541               	.LC112:
 22542 0671 2044 6F6E 		.string	" Done Recording! "
 22542      6520 5265 
 22542      636F 7264 
 22542      696E 6721 
 22542      2000 
 22543               	.LC113:
 22544 0683 2020 2054 		.string	"   Thank You!    "
 22544      6861 6E6B 
 22544      2059 6F75 
 22544      2120 2020 
 22544      2000 
 22545               	.LC114:
 22546 0695 2050 7265 		.string	" Press Select To "
 22546      7373 2053 
 22546      656C 6563 
 22546      7420 546F 
 22546      2000 
 22547               	.LC115:
 22548 06a7 2020 5265 		.string	"  Record Again   "
 22548      636F 7264 
 22548      2041 6761 
 22548      696E 2020 
 22548      2000 
 22549               		.text
 22550               	.global	main
 22552               	main:
 22553               	.LFB159:
 22554               	.LM2530:
 22555 7e86 8F92      		push r8
 22556 7e88 9F92      		push r9
 22557 7e8a AF92      		push r10
 22558 7e8c BF92      		push r11
 22559 7e8e CF92      		push r12
 22560 7e90 DF92      		push r13
 22561 7e92 EF92      		push r14
 22562 7e94 FF92      		push r15
 22563 7e96 0F93      		push r16
 22564 7e98 1F93      		push r17
 22565 7e9a DF93      		push r29
 22566 7e9c CF93      		push r28
 22567 7e9e 0F92      		push __tmp_reg__
 22568 7ea0 CDB7      		in r28,__SP_L__
 22569 7ea2 DEB7      		in r29,__SP_H__
 22570               	/* prologue: function */
 22571               	/* frame size = 1 */
 22572               	.LBB1076:
 22573               	.LBB1077:
 22574               	.LBB1078:
 22575               	.LBB1079:
 22576               	.LM2531:
 22577 7ea4 80E0      		ldi r24,lo8(18432)
 22578 7ea6 98E4      		ldi r25,hi8(18432)
 22579               	.LVL1655:
 22580               	/* #APP */
 22581               	 ;  105 "/usr/local/CrossPack-AVR-20100115/lib/gcc/avr/4.3.3/../../../../avr/include/util/delay_bas
 22582 7ea8 0197      		1: sbiw r24,1
 22583 7eaa 01F4      		brne 1b
 22584               	 ;  0 "" 2
 22585               	/* #NOAPP */
 22586               	.LBE1079:
 22587               	.LBE1078:
 22588               	.LBE1077:
 22589               	.LBE1076:
 22590               	.LM2532:
 22591 7eac 0E94 0000 		call Clock_Init
 22592               	.LVL1656:
 22593               	.LM2533:
 22594 7eb0 0E94 0000 		call display_init
 22595               	.LM2534:
 22596 7eb4 0E94 0000 		call Time_Init
 22597               	.LM2535:
 22598 7eb8 0E94 0000 		call Sensors_Init
 22599               	.LBB1080:
 22600               	.LBB1081:
 22601               	.LM2536:
 22602 7ebc 8091 2106 		lds r24,1569
 22603 7ec0 836F      		ori r24,lo8(-13)
 22604 7ec2 E0E2      		ldi r30,lo8(1568)
 22605 7ec4 F6E0      		ldi r31,hi8(1568)
 22606 7ec6 8183      		std Z+1,r24
 22607               	.LBE1081:
 22608               	.LBE1080:
 22609               	.LM2537:
 22610 7ec8 0E94 0000 		call Dpad_Init
 22611               	.LM2538:
 22612 7ecc 0E94 0000 		call Debug_Init
 22613               	.LM2539:
 22614 7ed0 0E94 0000 		call Rs232_Init
 22615               	.LM2540:
 22616 7ed4 60E8      		ldi r22,lo8(9600)
 22617 7ed6 75E2      		ldi r23,hi8(9600)
 22618 7ed8 80E0      		ldi r24,hlo8(9600)
 22619 7eda 90E0      		ldi r25,hhi8(9600)
 22620 7edc 0E94 0000 		call Wifi_Init
 22621               	.LM2541:
 22622 7ee0 82E7      		ldi r24,lo8(114)
 22623 7ee2 0E94 0000 		call Light_Init
 22624               	.LM2542:
 22625 7ee6 0E94 0000 		call SD_Init
 22626               	.LM2543:
 22627 7eea 0E94 0000 		call SD_BackroundWriter_Init
 22628               	.LM2544:
 22629 7eee 0E94 0000 		call DMA_Init
 22630               	.LBB1082:
 22631               	.LBB1083:
 22632               	.LM2545:
 22633 7ef2 8091 A200 		lds r24,162
 22634 7ef6 8760      		ori r24,lo8(7)
 22635 7ef8 E0EA      		ldi r30,lo8(160)
 22636 7efa F0E0      		ldi r31,hi8(160)
 22637 7efc 8283      		std Z+2,r24
 22638               	.LM2546:
 22639               	/* #APP */
 22640               	 ;  341 "main.c" 1
 22641 7efe 7894      		sei
 22642               	 ;  0 "" 2
 22643               	/* #NOAPP */
 22644               	.LBE1083:
 22645               	.LBE1082:
 22646               	.LBB1084:
 22647               	.LBB1085:
 22648               	.LBB1086:
 22649               	.LBB1087:
 22650               	.LM2547:
 22651 7f00 8FB7      		in r24,__SREG__
 22652 7f02 8983      		std Y+1,r24
 22653               	.LVL1657:
 22654               	.LM2548:
 22655               	/* #APP */
 22656               	 ;  217 "sd.c" 1
 22657 7f04 F894      		cli
 22658               	 ;  0 "" 2
 22659               	.LM2549:
 22660               	/* #NOAPP */
 22661 7f06 1BBE      		out 59-0,__zero_reg__
 22662               	.LM2550:
 22663 7f08 21E0      		ldi r18,lo8(1)
 22664 7f0a 86E9      		ldi r24,lo8(150)
 22665 7f0c 90E0      		ldi r25,hi8(150)
 22666               	/* #APP */
 22667               	 ;  239 "sd.c" 1
 22668 7f0e FC01      		movw r30,  r24
 22669 7f10 08ED      		ldi  r16,  216
 22670 7f12 04BF      		out   52, r16
 22671 7f14 2083      		st     Z,  r18
 22672               		
 22673               	 ;  0 "" 2
 22674               	.LM2551:
 22675               	/* #NOAPP */
 22676 7f16 8981      		ldd r24,Y+1
 22677 7f18 8FBF      		out __SREG__,r24
 22678               	.LBE1087:
 22679               	.LBE1086:
 22680               	.LBE1085:
 22681               	.LBE1084:
 22682               	.LBB1088:
 22683               	.LBB1089:
 22684               	.LBB1090:
 22685               	.LBB1091:
 22686               	.LM2552:
 22687 7f1a 8091 A806 		lds r24,1704
 22688               	.LBE1091:
 22689               	.LBE1090:
 22690               	.LM2553:
 22691 7f1e 8C77      		andi r24,lo8(124)
 22692 7f20 86FF      		sbrs r24,6
 22693 7f22 00C0      		rjmp .L1374
 22694               	.L1406:
 22695               	.LBE1089:
 22696               	.LBE1088:
 22697               	.LM2554:
 22698 7f24 80E0      		ldi r24,lo8(.LC96)
 22699 7f26 90E0      		ldi r25,hi8(.LC96)
 22700 7f28 60E0      		ldi r22,lo8(0)
 22701 7f2a 40E0      		ldi r20,lo8(0)
 22702 7f2c 20E0      		ldi r18,lo8(System5x7)
 22703 7f2e 30E0      		ldi r19,hi8(System5x7)
 22704 7f30 0E94 0000 		call display_putString
 22705               	.LM2555:
 22706 7f34 0E94 0000 		call display_writeBufferToScreen
 22707               	.LM2556:
 22708 7f38 80E0      		ldi r24,lo8(.LC97)
 22709 7f3a 90E0      		ldi r25,hi8(.LC97)
 22710 7f3c 61E0      		ldi r22,lo8(1)
 22711 7f3e 0E94 0000 		call Debug_SendString
 22712 7f42 1CE3      		ldi r17,lo8(60)
 22713               	.LVL1658:
 22714               	.LBB1092:
 22715               	.LBB1093:
 22716               	.LBB1094:
 22717               	.LBB1095:
 22718               	.LBB1096:
 22719               	.LM2557:
 22720 7f44 90E7      		ldi r25,lo8(368)
 22721 7f46 E92E      		mov r14,r25
 22722 7f48 91E0      		ldi r25,hi8(368)
 22723 7f4a F92E      		mov r15,r25
 22724               	.LVL1659:
 22725               	.L1376:
 22726               	.LBE1096:
 22727               	.LBE1095:
 22728               	.LBE1094:
 22729               	.LBE1093:
 22730               	.LM2558:
 22731 7f4c 80E0      		ldi r24,lo8(.LC98)
 22732 7f4e 90E0      		ldi r25,hi8(.LC98)
 22733               	.LVL1660:
 22734 7f50 60E0      		ldi r22,lo8(0)
 22735 7f52 412F      		mov r20,r17
 22736 7f54 20E0      		ldi r18,lo8(System5x7)
 22737 7f56 30E0      		ldi r19,hi8(System5x7)
 22738 7f58 0E94 0000 		call display_putString
 22739               	.LVL1661:
 22740               	.LM2559:
 22741 7f5c 0E94 0000 		call display_writeBufferToScreen
 22742 7f60 80E1      		ldi r24,lo8(10000)
 22743 7f62 97E2      		ldi r25,hi8(10000)
 22744               	.LVL1662:
 22745               	.L1375:
 22746               	.LBB1100:
 22747               	.LBB1099:
 22748               	.LBB1098:
 22749               	.LBB1097:
 22750               	.LM2560:
 22751 7f64 F701      		movw r30,r14
 22752               	.LVL1663:
 22753               	/* #APP */
 22754               	 ;  105 "/usr/local/CrossPack-AVR-20100115/lib/gcc/avr/4.3.3/../../../../avr/include/util/delay_bas
 22755 7f66 3197      		1: sbiw r30,1
 22756 7f68 01F4      		brne 1b
 22757               	 ;  0 "" 2
 22758               	/* #NOAPP */
 22759               	.LBE1097:
 22760               	.LBE1098:
 22761               	.LM2561:
 22762 7f6a 0197      		sbiw r24,1
 22763               	.LM2562:
 22764 7f6c 01F4      		brne .L1375
 22765               	.LBE1099:
 22766               	.LBE1100:
 22767               	.LM2563:
 22768 7f6e 1A5F      		subi r17,lo8(-(6))
 22769 7f70 1A35      		cpi r17,lo8(90)
 22770 7f72 01F4      		brne .L1376
 22771               	.LBE1092:
 22772               	.LM2564:
 22773 7f74 88E1      		ldi r24,lo8(24)
 22774               	.LVL1664:
 22775 7f76 E0EA      		ldi r30,lo8(1696)
 22776 7f78 F6E0      		ldi r31,hi8(1696)
 22777               	.LVL1665:
 22778 7f7a 818B      		std Z+17,r24
 22779               	.LBB1101:
 22780               	.LBB1102:
 22781               	.LM2565:
 22782 7f7c 80E2      		ldi r24,lo8(1568)
 22783 7f7e E82E      		mov r14,r24
 22784 7f80 86E0      		ldi r24,hi8(1568)
 22785 7f82 F82E      		mov r15,r24
 22786 7f84 00E2      		ldi r16,lo8(32)
 22787 7f86 D02E      		mov r13,r16
 22788               	.LBE1102:
 22789               	.LBE1101:
 22790               	.LBB1104:
 22791               	.LBB1105:
 22792               	.LBB1106:
 22793               	.LBB1107:
 22794               	.LM2566:
 22795 7f88 00E7      		ldi r16,lo8(368)
 22796 7f8a 11E0      		ldi r17,hi8(368)
 22797 7f8c 00C0      		rjmp .L1377
 22798               	.LVL1666:
 22799               	.L1378:
 22800 7f8e F801      		movw r30,r16
 22801               	.LVL1667:
 22802               	/* #APP */
 22803               	 ;  105 "/usr/local/CrossPack-AVR-20100115/lib/gcc/avr/4.3.3/../../../../avr/include/util/delay_bas
 22804 7f90 3197      		1: sbiw r30,1
 22805 7f92 01F4      		brne 1b
 22806               	 ;  0 "" 2
 22807               	/* #NOAPP */
 22808               	.LBE1107:
 22809               	.LBE1106:
 22810               	.LM2567:
 22811 7f94 0197      		sbiw r24,1
 22812               	.LM2568:
 22813 7f96 01F4      		brne .L1378
 22814               	.L1377:
 22815               	.LBE1105:
 22816               	.LBE1104:
 22817               	.LBB1108:
 22818               	.LBB1109:
 22819               	.LM2569:
 22820 7f98 8091 A806 		lds r24,1704
 22821               	.LVL1668:
 22822 7f9c 80FF      		sbrs r24,0
 22823 7f9e 00C0      		rjmp .L1379
 22824               	.LBE1109:
 22825               	.LBE1108:
 22826               	.LM2570:
 22827 7fa0 80E0      		ldi r24,lo8(.LC99)
 22828 7fa2 90E0      		ldi r25,hi8(.LC99)
 22829 7fa4 61E0      		ldi r22,lo8(1)
 22830 7fa6 0E94 0000 		call Debug_SendString
 22831               	.LVL1669:
 22832               	.LBB1110:
 22833               	.LBB1103:
 22834               	.LM2571:
 22835 7faa D701      		movw r26,r14
 22836 7fac 1796      		adiw r26,7
 22837 7fae DC92      		st X,r13
 22838 7fb0 88E8      		ldi r24,lo8(5000)
 22839 7fb2 93E1      		ldi r25,hi8(5000)
 22840               	.LVL1670:
 22841 7fb4 00C0      		rjmp .L1378
 22842               	.LVL1671:
 22843               	.L1380:
 22844               	.LBE1103:
 22845               	.LBE1110:
 22846               	.LBB1111:
 22847               	.LBB1112:
 22848               	.LBB1113:
 22849               	.LBB1114:
 22850               	.LM2572:
 22851 7fb6 CA01      		movw r24,r20
 22852               	.LVL1672:
 22853               	/* #APP */
 22854               	 ;  105 "/usr/local/CrossPack-AVR-20100115/lib/gcc/avr/4.3.3/../../../../avr/include/util/delay_bas
 22855 7fb8 0197      		1: sbiw r24,1
 22856 7fba 01F4      		brne 1b
 22857               	 ;  0 "" 2
 22858               	/* #NOAPP */
 22859               	.LBE1114:
 22860               	.LBE1113:
 22861               	.LM2573:
 22862 7fbc 2150      		subi r18,lo8(-(-1))
 22863 7fbe 3040      		sbci r19,hi8(-(-1))
 22864               	.LM2574:
 22865 7fc0 01F4      		brne .L1380
 22866               	.LBE1112:
 22867               	.LBE1111:
 22868               	.LM2575:
 22869 7fc2 0E94 0000 		call Read_config_file
 22870               	.LVL1673:
 22871               	.LBB1118:
 22872               	.LBB1119:
 22873               	.LBB1120:
 22874               	.LBB1121:
 22875               	.LM2576:
 22876 7fc6 00E7      		ldi r16,lo8(368)
 22877 7fc8 11E0      		ldi r17,hi8(368)
 22878 7fca 00C0      		rjmp .L1381
 22879               	.LVL1674:
 22880               	.L1383:
 22881               	.LBE1121:
 22882               	.LBE1120:
 22883               	.LBE1119:
 22884               	.LBE1118:
 22885               	.LM2577:
 22886 7fcc 0E94 0000 		call Config_Wifi
 22887               	.LVL1675:
 22888 7fd0 88E8      		ldi r24,lo8(5000)
 22889 7fd2 93E1      		ldi r25,hi8(5000)
 22890               	.LVL1676:
 22891               	.L1382:
 22892               	.LBB1125:
 22893               	.LBB1124:
 22894               	.LBB1123:
 22895               	.LBB1122:
 22896               	.LM2578:
 22897 7fd4 F801      		movw r30,r16
 22898               	.LVL1677:
 22899               	/* #APP */
 22900               	 ;  105 "/usr/local/CrossPack-AVR-20100115/lib/gcc/avr/4.3.3/../../../../avr/include/util/delay_bas
 22901 7fd6 3197      		1: sbiw r30,1
 22902 7fd8 01F4      		brne 1b
 22903               	 ;  0 "" 2
 22904               	/* #NOAPP */
 22905               	.LBE1122:
 22906               	.LBE1123:
 22907               	.LM2579:
 22908 7fda 0197      		sbiw r24,1
 22909               	.LM2580:
 22910 7fdc 01F4      		brne .L1382
 22911               	.L1381:
 22912               	.LBE1124:
 22913               	.LBE1125:
 22914               	.LM2581:
 22915 7fde 8091 0000 		lds r24,connected
 22916               	.LVL1678:
 22917 7fe2 8823      		tst r24
 22918 7fe4 01F0      		breq .L1383
 22919               	.LBB1126:
 22920               	.LBB1127:
 22921               	.LM2582:
 22922 7fe6 82E0      		ldi r24,lo8(2)
 22923 7fe8 E0E2      		ldi r30,lo8(1568)
 22924 7fea F6E0      		ldi r31,hi8(1568)
 22925               	.LVL1679:
 22926 7fec 8683      		std Z+6,r24
 22927               	.LBE1127:
 22928               	.LBE1126:
 22929               	.LM2583:
 22930 7fee 8091 0000 		lds r24,time_secs
 22931 7ff2 9091 0000 		lds r25,(time_secs)+1
 22932 7ff6 A091 0000 		lds r26,(time_secs)+2
 22933 7ffa B091 0000 		lds r27,(time_secs)+3
 22934               	.LBB1128:
 22935               	.LBB1129:
 22936               	.LM2584:
 22937 7ffe 8093 0000 		sts UNIX_time,r24
 22938 8002 9093 0000 		sts (UNIX_time)+1,r25
 22939 8006 A093 0000 		sts (UNIX_time)+2,r26
 22940 800a B093 0000 		sts (UNIX_time)+3,r27
 22941 800e 88E8      		ldi r24,lo8(5000)
 22942 8010 93E1      		ldi r25,hi8(5000)
 22943               	.LVL1680:
 22944               	.LBE1129:
 22945               	.LBE1128:
 22946               	.LBB1130:
 22947               	.LBB1131:
 22948               	.LBB1132:
 22949               	.LBB1133:
 22950               	.LM2585:
 22951 8012 20E7      		ldi r18,lo8(368)
 22952 8014 31E0      		ldi r19,hi8(368)
 22953               	.L1384:
 22954 8016 F901      		movw r30,r18
 22955               	.LVL1681:
 22956               	/* #APP */
 22957               	 ;  105 "/usr/local/CrossPack-AVR-20100115/lib/gcc/avr/4.3.3/../../../../avr/include/util/delay_bas
 22958 8018 3197      		1: sbiw r30,1
 22959 801a 01F4      		brne 1b
 22960               	 ;  0 "" 2
 22961               	/* #NOAPP */
 22962               	.LBE1133:
 22963               	.LBE1132:
 22964               	.LM2586:
 22965 801c 0197      		sbiw r24,1
 22966               	.LM2587:
 22967 801e 01F4      		brne .L1384
 22968               	.LBE1131:
 22969               	.LBE1130:
 22970               	.LBB1134:
 22971               	.LBB1135:
 22972               	.LBB1136:
 22973               	.LBB1137:
 22974               	.LM2588:
 22975 8020 8091 A806 		lds r24,1704
 22976               	.LVL1682:
 22977               	.LBE1137:
 22978               	.LBE1136:
 22979               	.LM2589:
 22980 8024 8C77      		andi r24,lo8(124)
 22981 8026 84FF      		sbrs r24,4
 22982 8028 00C0      		rjmp .L1385
 22983               	.L1435:
 22984               	.LBE1135:
 22985               	.LBE1134:
 22986               	.LBB1138:
 22987               	.LBB1139:
 22988               	.LBB1140:
 22989               	.LBB1141:
 22990               	.LM2590:
 22991 802a 10E7      		ldi r17,lo8(368)
 22992 802c E12E      		mov r14,r17
 22993 802e 11E0      		ldi r17,hi8(368)
 22994 8030 F12E      		mov r15,r17
 22995               	.LVL1683:
 22996               	.LBE1141:
 22997               	.LBE1140:
 22998               	.LBE1139:
 22999               	.LBE1138:
 23000               	.LM2591:
 23001 8032 B0E0      		ldi r27,lo8(temp)
 23002 8034 AB2E      		mov r10,r27
 23003 8036 B0E0      		ldi r27,hi8(temp)
 23004 8038 BB2E      		mov r11,r27
 23005               	.LM2592:
 23006 803a A0E0      		ldi r26,lo8(.LC108)
 23007 803c 8A2E      		mov r8,r26
 23008 803e A0E0      		ldi r26,hi8(.LC108)
 23009 8040 9A2E      		mov r9,r26
 23010               	.LVL1684:
 23011               	.L1432:
 23012               	.LM2593:
 23013 8042 6091 0000 		lds r22,UNIX_time
 23014 8046 7091 0000 		lds r23,(UNIX_time)+1
 23015 804a 8091 0000 		lds r24,(UNIX_time)+2
 23016 804e 9091 0000 		lds r25,(UNIX_time)+3
 23017 8052 0E94 0000 		call SD_StartLogFile
 23018               	.LVL1685:
 23019 8056 8823      		tst r24
 23020 8058 01F0      		breq .+2
 23021 805a 00C0      		rjmp .L1386
 23022               	.LBB1145:
 23023               	.LBB1146:
 23024               	.LM2594:
 23025 805c E0E2      		ldi r30,lo8(1568)
 23026 805e F6E0      		ldi r31,hi8(1568)
 23027 8060 80E2      		ldi r24,lo8(32)
 23028 8062 8683      		std Z+6,r24
 23029               	.LBE1146:
 23030               	.LBE1145:
 23031               	.LBB1147:
 23032               	.LBB1148:
 23033 8064 80E1      		ldi r24,lo8(16)
 23034 8066 8683      		std Z+6,r24
 23035               	.LBE1148:
 23036               	.LBE1147:
 23037               	.LBB1149:
 23038               	.LBB1150:
 23039 8068 11E0      		ldi r17,lo8(1)
 23040 806a 1683      		std Z+6,r17
 23041               	.LBE1150:
 23042               	.LBE1149:
 23043               	.LM2595:
 23044 806c 0E94 0000 		call display_clearBuffer
 23045               	.LM2596:
 23046 8070 0E94 0000 		call display_writeBufferToScreen
 23047               	.LM2597:
 23048 8074 80E0      		ldi r24,lo8(.LC100)
 23049 8076 90E0      		ldi r25,hi8(.LC100)
 23050 8078 63E0      		ldi r22,lo8(3)
 23051 807a 40E0      		ldi r20,lo8(0)
 23052 807c 20E0      		ldi r18,lo8(System5x7)
 23053 807e 30E0      		ldi r19,hi8(System5x7)
 23054 8080 0E94 0000 		call display_putString
 23055               	.LM2598:
 23056 8084 80E0      		ldi r24,lo8(.LC101)
 23057 8086 90E0      		ldi r25,hi8(.LC101)
 23058 8088 66E0      		ldi r22,lo8(6)
 23059 808a 40E0      		ldi r20,lo8(0)
 23060 808c 20E0      		ldi r18,lo8(System5x7)
 23061 808e 30E0      		ldi r19,hi8(System5x7)
 23062 8090 0E94 0000 		call display_putString
 23063               	.LM2599:
 23064 8094 80E0      		ldi r24,lo8(.LC102)
 23065 8096 90E0      		ldi r25,hi8(.LC102)
 23066 8098 67E0      		ldi r22,lo8(7)
 23067 809a 40E0      		ldi r20,lo8(0)
 23068 809c 20E0      		ldi r18,lo8(System5x7)
 23069 809e 30E0      		ldi r19,hi8(System5x7)
 23070 80a0 0E94 0000 		call display_putString
 23071               	.LM2600:
 23072 80a4 0E94 0000 		call display_writeBufferToScreen
 23073               	.LM2601:
 23074 80a8 80E0      		ldi r24,lo8(.LC26)
 23075 80aa 90E0      		ldi r25,hi8(.LC26)
 23076 80ac 60E0      		ldi r22,lo8(0)
 23077 80ae 0E94 0000 		call Debug_SendString
 23078               	.LM2602:
 23079 80b2 0E94 0000 		call Time_Get32BitTimer
 23080 80b6 2091 0000 		lds r18,UNIX_time
 23081 80ba 3091 0000 		lds r19,(UNIX_time)+1
 23082 80be 4091 0000 		lds r20,(UNIX_time)+2
 23083 80c2 5091 0000 		lds r21,(UNIX_time)+3
 23084 80c6 0E94 0000 		call SD_WriteRTCBlock
 23085               	.LM2603:
 23086 80ca 6091 0000 		lds r22,UNIX_time
 23087 80ce 7091 0000 		lds r23,(UNIX_time)+1
 23088 80d2 8091 0000 		lds r24,(UNIX_time)+2
 23089 80d6 9091 0000 		lds r25,(UNIX_time)+3
 23090 80da 40E0      		ldi r20,lo8(temp)
 23091 80dc 50E0      		ldi r21,hi8(temp)
 23092 80de 2AE0      		ldi r18,lo8(10)
 23093 80e0 30E0      		ldi r19,hi8(10)
 23094 80e2 0E94 0000 		call ltoa
 23095 80e6 60E0      		ldi r22,lo8(0)
 23096 80e8 0E94 0000 		call Debug_SendString
 23097               	.LM2604:
 23098 80ec 80E0      		ldi r24,lo8(.LC27)
 23099 80ee 90E0      		ldi r25,hi8(.LC27)
 23100 80f0 60E0      		ldi r22,lo8(0)
 23101 80f2 0E94 0000 		call Debug_SendString
 23102               	.LM2605:
 23103 80f6 0E94 0000 		call Time_Get32BitTimer
 23104 80fa 40E0      		ldi r20,lo8(temp)
 23105 80fc 50E0      		ldi r21,hi8(temp)
 23106 80fe 2AE0      		ldi r18,lo8(10)
 23107 8100 30E0      		ldi r19,hi8(10)
 23108 8102 0E94 0000 		call ltoa
 23109 8106 61E0      		ldi r22,lo8(1)
 23110 8108 0E94 0000 		call Debug_SendString
 23111               	.LBB1151:
 23112               	.LBB1152:
 23113               	.LM2606:
 23114 810c 8091 0000 		lds r24,Rs232_writeLocation
 23115 8110 9091 0000 		lds r25,(Rs232_writeLocation)+1
 23116 8114 8093 0000 		sts Rs232_readLocation,r24
 23117 8118 9093 0000 		sts (Rs232_readLocation)+1,r25
 23118               	.LBE1152:
 23119               	.LBE1151:
 23120               	.LM2607:
 23121 811c 1093 0000 		sts rs232Recording,r17
 23122               	.LM2608:
 23123 8120 1093 0000 		sts recording,r17
 23124 8124 80E2      		ldi r24,lo8(20000)
 23125 8126 9EE4      		ldi r25,hi8(20000)
 23126               	.LVL1686:
 23127               	.L1387:
 23128               	.LBB1153:
 23129               	.LBB1154:
 23130               	.LBB1155:
 23131               	.LBB1156:
 23132               	.LM2609:
 23133 8128 F701      		movw r30,r14
 23134               	.LVL1687:
 23135               	/* #APP */
 23136               	 ;  105 "/usr/local/CrossPack-AVR-20100115/lib/gcc/avr/4.3.3/../../../../avr/include/util/delay_bas
 23137 812a 3197      		1: sbiw r30,1
 23138 812c 01F4      		brne 1b
 23139               	 ;  0 "" 2
 23140               	/* #NOAPP */
 23141               	.LBE1156:
 23142               	.LBE1155:
 23143               	.LM2610:
 23144 812e 0197      		sbiw r24,1
 23145               	.LM2611:
 23146 8130 01F4      		brne .L1387
 23147 8132 00C0      		rjmp .L1436
 23148               	.LVL1688:
 23149               	.L1386:
 23150               	.LBE1154:
 23151               	.LBE1153:
 23152               	.LBB1157:
 23153               	.LBB1158:
 23154               	.LM2612:
 23155 8134 80E2      		ldi r24,lo8(32)
 23156 8136 E0E2      		ldi r30,lo8(1568)
 23157 8138 F6E0      		ldi r31,hi8(1568)
 23158 813a 8583      		std Z+5,r24
 23159               	.LBE1158:
 23160               	.LBE1157:
 23161               	.LM2613:
 23162 813c 0E94 0000 		call display_clearBuffer
 23163               	.LM2614:
 23164 8140 0E94 0000 		call display_writeBufferToScreen
 23165               	.LM2615:
 23166 8144 80E0      		ldi r24,lo8(.LC103)
 23167 8146 90E0      		ldi r25,hi8(.LC103)
 23168 8148 63E0      		ldi r22,lo8(3)
 23169 814a 40E0      		ldi r20,lo8(0)
 23170 814c 20E0      		ldi r18,lo8(System5x7)
 23171 814e 30E0      		ldi r19,hi8(System5x7)
 23172 8150 0E94 0000 		call display_putString
 23173               	.LM2616:
 23174 8154 80E0      		ldi r24,lo8(.LC104)
 23175 8156 90E0      		ldi r25,hi8(.LC104)
 23176 8158 66E0      		ldi r22,lo8(6)
 23177 815a 40E0      		ldi r20,lo8(0)
 23178 815c 20E0      		ldi r18,lo8(System5x7)
 23179 815e 30E0      		ldi r19,hi8(System5x7)
 23180 8160 0E94 0000 		call display_putString
 23181               	.LM2617:
 23182 8164 80E0      		ldi r24,lo8(.LC105)
 23183 8166 90E0      		ldi r25,hi8(.LC105)
 23184 8168 67E0      		ldi r22,lo8(7)
 23185 816a 40E0      		ldi r20,lo8(0)
 23186 816c 20E0      		ldi r18,lo8(System5x7)
 23187 816e 30E0      		ldi r19,hi8(System5x7)
 23188 8170 0E94 0000 		call display_putString
 23189               	.LM2618:
 23190 8174 0E94 0000 		call display_writeBufferToScreen
 23191               	.L1389:
 23192               	.LBB1159:
 23193               	.LBB1160:
 23194               	.LM2619:
 23195 8178 8091 A806 		lds r24,1704
 23196 817c 80FF      		sbrs r24,0
 23197 817e 00C0      		rjmp .L1389
 23198 8180 88EE      		ldi r24,lo8(1000)
 23199 8182 93E0      		ldi r25,hi8(1000)
 23200               	.LVL1689:
 23201               	.L1390:
 23202               	.LBE1160:
 23203               	.LBE1159:
 23204               	.LBB1161:
 23205               	.LBB1144:
 23206               	.LBB1143:
 23207               	.LBB1142:
 23208               	.LM2620:
 23209 8184 F701      		movw r30,r14
 23210               	.LVL1690:
 23211               	/* #APP */
 23212               	 ;  105 "/usr/local/CrossPack-AVR-20100115/lib/gcc/avr/4.3.3/../../../../avr/include/util/delay_bas
 23213 8186 3197      		1: sbiw r30,1
 23214 8188 01F4      		brne 1b
 23215               	 ;  0 "" 2
 23216               	/* #NOAPP */
 23217               	.LBE1142:
 23218               	.LBE1143:
 23219               	.LM2621:
 23220 818a 0197      		sbiw r24,1
 23221               	.LM2622:
 23222 818c 01F4      		brne .L1390
 23223               	.L1410:
 23224               	.LBE1144:
 23225               	.LBE1161:
 23226               	.LBB1162:
 23227               	.LBB1163:
 23228               	.LM2623:
 23229 818e 8091 A806 		lds r24,1704
 23230               	.LVL1691:
 23231 8192 80FD      		sbrc r24,0
 23232 8194 00C0      		rjmp .L1410
 23233 8196 88EE      		ldi r24,lo8(1000)
 23234 8198 93E0      		ldi r25,hi8(1000)
 23235               	.LVL1692:
 23236               	.L1392:
 23237               	.LBE1163:
 23238               	.LBE1162:
 23239               	.LBB1164:
 23240               	.LBB1165:
 23241               	.LBB1166:
 23242               	.LBB1167:
 23243               	.LM2624:
 23244 819a F701      		movw r30,r14
 23245               	.LVL1693:
 23246               	/* #APP */
 23247               	 ;  105 "/usr/local/CrossPack-AVR-20100115/lib/gcc/avr/4.3.3/../../../../avr/include/util/delay_bas
 23248 819c 3197      		1: sbiw r30,1
 23249 819e 01F4      		brne 1b
 23250               	 ;  0 "" 2
 23251               	/* #NOAPP */
 23252               	.LBE1167:
 23253               	.LBE1166:
 23254               	.LM2625:
 23255 81a0 0197      		sbiw r24,1
 23256               	.LM2626:
 23257 81a2 01F4      		brne .L1392
 23258               	.LBE1165:
 23259               	.LBE1164:
 23260               	.LM2627:
 23261 81a4 0E94 0000 		call SD_Init
 23262               	.LVL1694:
 23263 81a8 00C0      		rjmp .L1432
 23264               	.LVL1695:
 23265               	.L1436:
 23266               	.LBB1168:
 23267               	.LBB1169:
 23268               	.LM2628:
 23269 81aa 00E2      		ldi r16,lo8(1568)
 23270 81ac 16E0      		ldi r17,hi8(1568)
 23271 81ae F0E4      		ldi r31,lo8(64)
 23272 81b0 CF2E      		mov r12,r31
 23273               	.LBE1169:
 23274               	.LBE1168:
 23275               	.LBB1171:
 23276               	.LBB1172:
 23277 81b2 E0E8      		ldi r30,lo8(-128)
 23278 81b4 DE2E      		mov r13,r30
 23279               	.LVL1696:
 23280               	.L1409:
 23281               	.LBE1172:
 23282               	.LBE1171:
 23283               	.LM2629:
 23284 81b6 8091 A806 		lds r24,1704
 23285               	.LVL1697:
 23286 81ba 81FD      		sbrc r24,1
 23287 81bc 00C0      		rjmp .L1394
 23288               	.LM2630:
 23289 81be 0E94 0000 		call display_clearBuffer
 23290               	.LM2631:
 23291 81c2 0E94 0000 		call display_writeBufferToScreen
 23292               	.LBB1174:
 23293               	.LBB1170:
 23294               	.LM2632:
 23295 81c6 F801      		movw r30,r16
 23296 81c8 C582      		std Z+5,r12
 23297               	.LBE1170:
 23298               	.LBE1174:
 23299               	.LBB1175:
 23300               	.LBB1173:
 23301 81ca D582      		std Z+5,r13
 23302               	.LBE1173:
 23303               	.LBE1175:
 23304               	.LM2633:
 23305 81cc 80E0      		ldi r24,lo8(.LC106)
 23306 81ce 90E0      		ldi r25,hi8(.LC106)
 23307 81d0 63E0      		ldi r22,lo8(3)
 23308 81d2 40E0      		ldi r20,lo8(0)
 23309 81d4 20E0      		ldi r18,lo8(System5x7)
 23310 81d6 30E0      		ldi r19,hi8(System5x7)
 23311 81d8 0E94 0000 		call display_putString
 23312               	.LM2634:
 23313 81dc 0E94 0000 		call display_writeBufferToScreen
 23314 81e0 80E1      		ldi r24,lo8(10000)
 23315 81e2 97E2      		ldi r25,hi8(10000)
 23316               	.LVL1698:
 23317               	.L1395:
 23318               	.LBB1176:
 23319               	.LBB1177:
 23320               	.LBB1178:
 23321               	.LBB1179:
 23322               	.LM2635:
 23323 81e4 F701      		movw r30,r14
 23324               	.LVL1699:
 23325               	/* #APP */
 23326               	 ;  105 "/usr/local/CrossPack-AVR-20100115/lib/gcc/avr/4.3.3/../../../../avr/include/util/delay_bas
 23327 81e6 3197      		1: sbiw r30,1
 23328 81e8 01F4      		brne 1b
 23329               	 ;  0 "" 2
 23330               	/* #NOAPP */
 23331               	.LBE1179:
 23332               	.LBE1178:
 23333               	.LM2636:
 23334 81ea 0197      		sbiw r24,1
 23335               	.LM2637:
 23336 81ec 01F4      		brne .L1395
 23337               	.LBE1177:
 23338               	.LBE1176:
 23339               	.LM2638:
 23340 81ee 0E94 0000 		call RTC_init
 23341               	.LVL1700:
 23342               	.LM2639:
 23343 81f2 6091 0000 		lds r22,UNIX_time
 23344 81f6 7091 0000 		lds r23,(UNIX_time)+1
 23345 81fa 8091 0000 		lds r24,(UNIX_time)+2
 23346 81fe 9091 0000 		lds r25,(UNIX_time)+3
 23347 8202 0E94 0000 		call RTC_setUTCSecs
 23348               	.LM2640:
 23349 8206 80E0      		ldi r24,lo8(.LC107)
 23350 8208 90E0      		ldi r25,hi8(.LC107)
 23351 820a 65E0      		ldi r22,lo8(5)
 23352 820c 40E0      		ldi r20,lo8(0)
 23353 820e 20E0      		ldi r18,lo8(System5x7)
 23354 8210 30E0      		ldi r19,hi8(System5x7)
 23355 8212 0E94 0000 		call display_putString
 23356               	.LM2641:
 23357 8216 0E94 0000 		call display_writeBufferToScreen
 23358               	.LBB1180:
 23359               	.LBB1181:
 23360               	.LM2642:
 23361 821a D801      		movw r26,r16
 23362 821c 1696      		adiw r26,6
 23363 821e DC92      		st X,r13
 23364 8220 80E1      		ldi r24,lo8(10000)
 23365 8222 97E2      		ldi r25,hi8(10000)
 23366               	.LVL1701:
 23367               	.L1396:
 23368               	.LBE1181:
 23369               	.LBE1180:
 23370               	.LBB1182:
 23371               	.LBB1183:
 23372               	.LBB1184:
 23373               	.LBB1185:
 23374               	.LM2643:
 23375 8224 F701      		movw r30,r14
 23376               	.LVL1702:
 23377               	/* #APP */
 23378               	 ;  105 "/usr/local/CrossPack-AVR-20100115/lib/gcc/avr/4.3.3/../../../../avr/include/util/delay_bas
 23379 8226 3197      		1: sbiw r30,1
 23380 8228 01F4      		brne 1b
 23381               	 ;  0 "" 2
 23382               	/* #NOAPP */
 23383               	.LBE1185:
 23384               	.LBE1184:
 23385               	.LM2644:
 23386 822a 0197      		sbiw r24,1
 23387               	.LM2645:
 23388 822c 01F4      		brne .L1396
 23389 822e 00C0      		rjmp .L1433
 23390               	.LVL1703:
 23391               	.L1399:
 23392               	.LBE1183:
 23393               	.LBE1182:
 23394               	.LM2646:
 23395 8230 0E94 0000 		call RTC_getUTCSecs
 23396               	.LVL1704:
 23397 8234 EDB7      		in r30,__SP_L__
 23398 8236 FEB7      		in r31,__SP_H__
 23399 8238 3897      		sbiw r30,8
 23400 823a EDBF      		out __SP_L__,r30
 23401 823c FEBF      		out __SP_H__,r31
 23402 823e 3196      		adiw r30,1
 23403 8240 ADB7      		in r26,__SP_L__
 23404 8242 BEB7      		in r27,__SP_H__
 23405 8244 1196      		adiw r26,1
 23406 8246 AD92      		st X+,r10
 23407 8248 BC92      		st X,r11
 23408 824a 1297      		sbiw r26,1+1
 23409 824c 8282      		std Z+2,r8
 23410 824e 9382      		std Z+3,r9
 23411 8250 6483      		std Z+4,r22
 23412 8252 7583      		std Z+5,r23
 23413 8254 8683      		std Z+6,r24
 23414 8256 9783      		std Z+7,r25
 23415 8258 0E94 0000 		call sprintf
 23416               	.LM2647:
 23417 825c EDB7      		in r30,__SP_L__
 23418 825e FEB7      		in r31,__SP_H__
 23419 8260 3896      		adiw r30,8
 23420 8262 EDBF      		out __SP_L__,r30
 23421 8264 FEBF      		out __SP_H__,r31
 23422 8266 C501      		movw r24,r10
 23423 8268 67E0      		ldi r22,lo8(7)
 23424 826a 40E0      		ldi r20,lo8(0)
 23425 826c 20E0      		ldi r18,lo8(System5x7)
 23426 826e 30E0      		ldi r19,hi8(System5x7)
 23427 8270 0E94 0000 		call display_putString
 23428               	.LM2648:
 23429 8274 0E94 0000 		call display_writeBufferToScreen
 23430 8278 88E8      		ldi r24,lo8(5000)
 23431 827a 93E1      		ldi r25,hi8(5000)
 23432               	.LVL1705:
 23433               	.L1398:
 23434               	.LBB1186:
 23435               	.LBB1187:
 23436               	.LBB1188:
 23437               	.LBB1189:
 23438               	.LM2649:
 23439 827c F701      		movw r30,r14
 23440               	.LVL1706:
 23441               	/* #APP */
 23442               	 ;  105 "/usr/local/CrossPack-AVR-20100115/lib/gcc/avr/4.3.3/../../../../avr/include/util/delay_bas
 23443 827e 3197      		1: sbiw r30,1
 23444 8280 01F4      		brne 1b
 23445               	 ;  0 "" 2
 23446               	/* #NOAPP */
 23447               	.LBE1189:
 23448               	.LBE1188:
 23449               	.LM2650:
 23450 8282 0197      		sbiw r24,1
 23451               	.LM2651:
 23452 8284 01F4      		brne .L1398
 23453               	.LVL1707:
 23454               	.L1433:
 23455               	.LBE1187:
 23456               	.LBE1186:
 23457               	.LM2652:
 23458 8286 8091 A806 		lds r24,1704
 23459               	.LVL1708:
 23460 828a 81FF      		sbrs r24,1
 23461 828c 00C0      		rjmp .L1399
 23462               	.LBB1190:
 23463               	.LBB1191:
 23464               	.LM2653:
 23465 828e D801      		movw r26,r16
 23466 8290 1696      		adiw r26,6
 23467 8292 CC92      		st X,r12
 23468               	.LBE1191:
 23469               	.LBE1190:
 23470               	.LM2654:
 23471 8294 0E94 0000 		call display_clearBuffer
 23472               	.LVL1709:
 23473               	.LM2655:
 23474 8298 0E94 0000 		call display_writeBufferToScreen
 23475               	.LM2656:
 23476 829c 80E0      		ldi r24,lo8(.LC100)
 23477 829e 90E0      		ldi r25,hi8(.LC100)
 23478 82a0 63E0      		ldi r22,lo8(3)
 23479 82a2 40E0      		ldi r20,lo8(0)
 23480 82a4 20E0      		ldi r18,lo8(System5x7)
 23481 82a6 30E0      		ldi r19,hi8(System5x7)
 23482 82a8 0E94 0000 		call display_putString
 23483               	.LM2657:
 23484 82ac 80E0      		ldi r24,lo8(.LC101)
 23485 82ae 90E0      		ldi r25,hi8(.LC101)
 23486 82b0 66E0      		ldi r22,lo8(6)
 23487 82b2 40E0      		ldi r20,lo8(0)
 23488 82b4 20E0      		ldi r18,lo8(System5x7)
 23489 82b6 30E0      		ldi r19,hi8(System5x7)
 23490 82b8 0E94 0000 		call display_putString
 23491               	.LM2658:
 23492 82bc 80E0      		ldi r24,lo8(.LC102)
 23493 82be 90E0      		ldi r25,hi8(.LC102)
 23494 82c0 67E0      		ldi r22,lo8(7)
 23495 82c2 40E0      		ldi r20,lo8(0)
 23496 82c4 20E0      		ldi r18,lo8(System5x7)
 23497 82c6 30E0      		ldi r19,hi8(System5x7)
 23498 82c8 0E94 0000 		call display_putString
 23499               	.LM2659:
 23500 82cc 0E94 0000 		call display_writeBufferToScreen
 23501               	.L1394:
 23502               	.LBB1192:
 23503               	.LBB1193:
 23504               	.LBB1194:
 23505               	.LBB1195:
 23506               	.LM2660:
 23507 82d0 8091 A806 		lds r24,1704
 23508               	.LBE1195:
 23509               	.LBE1194:
 23510               	.LM2661:
 23511 82d4 8C77      		andi r24,lo8(124)
 23512 82d6 86FD      		sbrc r24,6
 23513 82d8 00C0      		rjmp .L1409
 23514 82da 00C0      		rjmp .L1437
 23515               	.LVL1710:
 23516               	.L1401:
 23517               	.LBE1193:
 23518               	.LBE1192:
 23519               	.LBB1196:
 23520               	.LBB1197:
 23521               	.LBB1198:
 23522               	.LBB1199:
 23523               	.LM2662:
 23524 82dc F701      		movw r30,r14
 23525               	.LVL1711:
 23526               	/* #APP */
 23527               	 ;  105 "/usr/local/CrossPack-AVR-20100115/lib/gcc/avr/4.3.3/../../../../avr/include/util/delay_bas
 23528 82de 3197      		1: sbiw r30,1
 23529 82e0 01F4      		brne 1b
 23530               	 ;  0 "" 2
 23531               	/* #NOAPP */
 23532               	.LBE1199:
 23533               	.LBE1198:
 23534               	.LM2663:
 23535 82e2 0197      		sbiw r24,1
 23536               	.LM2664:
 23537 82e4 01F4      		brne .L1401
 23538               	.LBE1197:
 23539               	.LBE1196:
 23540               	.LBB1200:
 23541               	.LBB1201:
 23542               	.LM2665:
 23543 82e6 81E0      		ldi r24,lo8(1)
 23544               	.LVL1712:
 23545 82e8 E0E2      		ldi r30,lo8(1568)
 23546 82ea F6E0      		ldi r31,hi8(1568)
 23547               	.LVL1713:
 23548 82ec 8583      		std Z+5,r24
 23549               	.LBE1201:
 23550               	.LBE1200:
 23551               	.LBB1202:
 23552               	.LBB1203:
 23553               	.LM2666:
 23554 82ee 00E2      		ldi r16,lo8(1568)
 23555 82f0 16E0      		ldi r17,hi8(1568)
 23556 82f2 70E1      		ldi r23,lo8(16)
 23557 82f4 C72E      		mov r12,r23
 23558               	.LBE1203:
 23559               	.LBE1202:
 23560               	.LBB1205:
 23561               	.LBB1206:
 23562               	.LM2667:
 23563 82f6 60E2      		ldi r22,lo8(32)
 23564 82f8 D62E      		mov r13,r22
 23565               	.LVL1714:
 23566               	.L1430:
 23567               	.LBE1206:
 23568               	.LBE1205:
 23569               	.LBB1208:
 23570               	.LBB1209:
 23571               	.LM2668:
 23572 82fa 8091 A806 		lds r24,1704
 23573 82fe 80FF      		sbrs r24,0
 23574 8300 00C0      		rjmp .L1402
 23575               	.LBE1209:
 23576               	.LBE1208:
 23577               	.LBB1210:
 23578               	.LBB1204:
 23579               	.LM2669:
 23580 8302 F801      		movw r30,r16
 23581               	.LVL1715:
 23582 8304 C682      		std Z+6,r12
 23583               	.LBE1204:
 23584               	.LBE1210:
 23585               	.LBB1211:
 23586               	.LBB1207:
 23587               	.LM2670:
 23588 8306 D582      		std Z+5,r13
 23589               	.LBE1207:
 23590               	.LBE1211:
 23591               	.LM2671:
 23592 8308 0E94 0000 		call display_writeBufferToScreen
 23593               	.LM2672:
 23594 830c 80E0      		ldi r24,lo8(.LC109)
 23595 830e 90E0      		ldi r25,hi8(.LC109)
 23596 8310 63E0      		ldi r22,lo8(3)
 23597 8312 40E0      		ldi r20,lo8(0)
 23598 8314 20E0      		ldi r18,lo8(System5x7)
 23599 8316 30E0      		ldi r19,hi8(System5x7)
 23600 8318 0E94 0000 		call display_putString
 23601               	.LM2673:
 23602 831c 80E0      		ldi r24,lo8(.LC110)
 23603 831e 90E0      		ldi r25,hi8(.LC110)
 23604 8320 64E0      		ldi r22,lo8(4)
 23605 8322 40E0      		ldi r20,lo8(0)
 23606 8324 20E0      		ldi r18,lo8(System5x7)
 23607 8326 30E0      		ldi r19,hi8(System5x7)
 23608 8328 0E94 0000 		call display_putString
 23609               	.LM2674:
 23610 832c 0E94 0000 		call display_writeBufferToScreen
 23611 8330 84EC      		ldi r24,lo8(2500)
 23612 8332 99E0      		ldi r25,hi8(2500)
 23613               	.LVL1716:
 23614 8334 00C0      		rjmp .L1403
 23615               	.LVL1717:
 23616               	.L1404:
 23617               	.LBB1212:
 23618               	.LBB1213:
 23619               	.LBB1214:
 23620               	.LBB1215:
 23621               	.LM2675:
 23622 8336 F701      		movw r30,r14
 23623               	.LVL1718:
 23624               	/* #APP */
 23625               	 ;  105 "/usr/local/CrossPack-AVR-20100115/lib/gcc/avr/4.3.3/../../../../avr/include/util/delay_bas
 23626 8338 3197      		1: sbiw r30,1
 23627 833a 01F4      		brne 1b
 23628               	 ;  0 "" 2
 23629               	/* #NOAPP */
 23630               	.LBE1215:
 23631               	.LBE1214:
 23632               	.LM2676:
 23633 833c 0197      		sbiw r24,1
 23634               	.LM2677:
 23635 833e 01F4      		brne .L1404
 23636               	.LBE1213:
 23637               	.LBE1212:
 23638               	.LBB1216:
 23639               	.LBB1217:
 23640               	.LBB1218:
 23641               	.LBB1219:
 23642               	.LM2678:
 23643 8340 8091 A806 		lds r24,1704
 23644               	.LVL1719:
 23645               	.LBE1219:
 23646               	.LBE1218:
 23647               	.LM2679:
 23648 8344 8C77      		andi r24,lo8(124)
 23649 8346 86FD      		sbrc r24,6
 23650 8348 00C0      		rjmp .L1430
 23651 834a 00C0      		rjmp .L1432
 23652               	.LVL1720:
 23653               	.L1403:
 23654               	.LBE1217:
 23655               	.LBE1216:
 23656               	.LBB1220:
 23657               	.LBB1221:
 23658               	.LBB1222:
 23659               	.LBB1223:
 23660               	.LM2680:
 23661 834c F701      		movw r30,r14
 23662               	.LVL1721:
 23663               	/* #APP */
 23664               	 ;  105 "/usr/local/CrossPack-AVR-20100115/lib/gcc/avr/4.3.3/../../../../avr/include/util/delay_bas
 23665 834e 3197      		1: sbiw r30,1
 23666 8350 01F4      		brne 1b
 23667               	 ;  0 "" 2
 23668               	/* #NOAPP */
 23669               	.LBE1223:
 23670               	.LBE1222:
 23671               	.LM2681:
 23672 8352 0197      		sbiw r24,1
 23673               	.LM2682:
 23674 8354 01F4      		brne .L1403
 23675               	.LBE1221:
 23676               	.LBE1220:
 23677               	.LM2683:
 23678 8356 0E94 0000 		call SD_Init
 23679               	.LVL1722:
 23680 835a 00C0      		rjmp .L1430
 23681               	.L1374:
 23682               	.LM2684:
 23683 835c 80E0      		ldi r24,lo8(.LC111)
 23684 835e 90E0      		ldi r25,hi8(.LC111)
 23685 8360 61E0      		ldi r22,lo8(1)
 23686 8362 0E94 0000 		call Debug_SendString
 23687               	.LM2685:
 23688 8366 0E94 0000 		call Debug_To_Wifi
 23689 836a 00C0      		rjmp .L1406
 23690               	.LVL1723:
 23691               	.L1379:
 23692               	.LBB1224:
 23693               	.LBB1225:
 23694               	.LM2686:
 23695 836c E0E2      		ldi r30,lo8(1568)
 23696 836e F6E0      		ldi r31,hi8(1568)
 23697               	.LVL1724:
 23698 8370 80E2      		ldi r24,lo8(32)
 23699 8372 8683      		std Z+6,r24
 23700               	.LBE1225:
 23701               	.LBE1224:
 23702               	.LBB1226:
 23703               	.LBB1227:
 23704               	.LM2687:
 23705 8374 80E1      		ldi r24,lo8(16)
 23706 8376 8583      		std Z+5,r24
 23707 8378 20E1      		ldi r18,lo8(10000)
 23708 837a 37E2      		ldi r19,hi8(10000)
 23709               	.LVL1725:
 23710               	.LBE1227:
 23711               	.LBE1226:
 23712               	.LBB1228:
 23713               	.LBB1117:
 23714               	.LBB1116:
 23715               	.LBB1115:
 23716               	.LM2688:
 23717 837c 40E7      		ldi r20,lo8(368)
 23718 837e 51E0      		ldi r21,hi8(368)
 23719 8380 00C0      		rjmp .L1380
 23720               	.LVL1726:
 23721               	.L1385:
 23722               	.LBE1115:
 23723               	.LBE1116:
 23724               	.LBE1117:
 23725               	.LBE1228:
 23726               	.LM2689:
 23727 8382 80E0      		ldi r24,lo8(.LC111)
 23728 8384 90E0      		ldi r25,hi8(.LC111)
 23729 8386 61E0      		ldi r22,lo8(1)
 23730 8388 0E94 0000 		call Debug_SendString
 23731               	.LVL1727:
 23732               	.LM2690:
 23733 838c 0E94 0000 		call Debug_To_Wifi
 23734 8390 00C0      		rjmp .L1435
 23735               	.LVL1728:
 23736               	.L1437:
 23737               	.LM2691:
 23738 8392 1092 0000 		sts rs232Recording,__zero_reg__
 23739               	.LM2692:
 23740 8396 1092 0000 		sts recording,__zero_reg__
 23741               	.LM2693:
 23742 839a 0E94 0000 		call display_clearBuffer
 23743               	.LM2694:
 23744 839e 0E94 0000 		call display_writeBufferToScreen
 23745               	.LM2695:
 23746 83a2 80E0      		ldi r24,lo8(.LC112)
 23747 83a4 90E0      		ldi r25,hi8(.LC112)
 23748 83a6 63E0      		ldi r22,lo8(3)
 23749 83a8 40E0      		ldi r20,lo8(0)
 23750 83aa 20E0      		ldi r18,lo8(System5x7)
 23751 83ac 30E0      		ldi r19,hi8(System5x7)
 23752 83ae 0E94 0000 		call display_putString
 23753               	.LM2696:
 23754 83b2 80E0      		ldi r24,lo8(.LC113)
 23755 83b4 90E0      		ldi r25,hi8(.LC113)
 23756 83b6 64E0      		ldi r22,lo8(4)
 23757 83b8 40E0      		ldi r20,lo8(0)
 23758 83ba 20E0      		ldi r18,lo8(System5x7)
 23759 83bc 30E0      		ldi r19,hi8(System5x7)
 23760 83be 0E94 0000 		call display_putString
 23761               	.LM2697:
 23762 83c2 0E94 0000 		call display_writeBufferToScreen
 23763               	.LBB1229:
 23764               	.LBB1230:
 23765               	.LM2698:
 23766 83c6 1092 0000 		sts temperatureBufferCounter,__zero_reg__
 23767               	.LM2699:
 23768 83ca 81E0      		ldi r24,lo8(1)
 23769 83cc 8093 0000 		sts temperatureBufferToWriteTo,r24
 23770               	.LM2700:
 23771 83d0 1092 0000 		sts okToSendTemperatureBuffer1,__zero_reg__
 23772               	.LM2701:
 23773 83d4 1092 0000 		sts okToSendTemperatureBuffer2,__zero_reg__
 23774               	.LBE1230:
 23775               	.LBE1229:
 23776               	.LBB1231:
 23777               	.LBB1232:
 23778               	.LM2702:
 23779 83d8 1092 0000 		sts humidityBufferCounter,__zero_reg__
 23780               	.LM2703:
 23781 83dc 8093 0000 		sts humidityBufferToWriteTo,r24
 23782               	.LM2704:
 23783 83e0 1092 0000 		sts okToSendHumidityBuffer1,__zero_reg__
 23784               	.LM2705:
 23785 83e4 1092 0000 		sts okToSendHumidityBuffer2,__zero_reg__
 23786               	.LBE1232:
 23787               	.LBE1231:
 23788               	.LBB1233:
 23789               	.LBB1234:
 23790               	.LM2706:
 23791 83e8 1092 0000 		sts pressureBufferCounter,__zero_reg__
 23792               	.LM2707:
 23793 83ec 8093 0000 		sts pressureBufferToWriteTo,r24
 23794               	.LM2708:
 23795 83f0 1092 0000 		sts okToSendPressureBuffer1,__zero_reg__
 23796               	.LM2709:
 23797 83f4 1092 0000 		sts okToSendPressureBuffer2,__zero_reg__
 23798               	.LBE1234:
 23799               	.LBE1233:
 23800               	.LBB1235:
 23801               	.LBB1236:
 23802               	.LM2710:
 23803 83f8 1092 0000 		sts microphoneBufferCounter,__zero_reg__
 23804 83fc 1092 0000 		sts (microphoneBufferCounter)+1,__zero_reg__
 23805               	.LM2711:
 23806 8400 8093 0000 		sts microphoneBufferToWriteTo,r24
 23807               	.LM2712:
 23808 8404 1092 0000 		sts okToSendMicrophoneBuffer1,__zero_reg__
 23809               	.LM2713:
 23810 8408 1092 0000 		sts okToSendMicrophoneBuffer2,__zero_reg__
 23811               	.LBE1236:
 23812               	.LBE1235:
 23813               	.LBB1237:
 23814               	.LBB1238:
 23815               	.LM2714:
 23816 840c 1092 0000 		sts lightBufferCounter,__zero_reg__
 23817               	.LM2715:
 23818 8410 8093 0000 		sts lightBufferToWriteTo,r24
 23819               	.LM2716:
 23820 8414 1092 0000 		sts okToSendLightBuffer1,__zero_reg__
 23821               	.LM2717:
 23822 8418 1092 0000 		sts okToSendLightBuffer2,__zero_reg__
 23823               	.LBE1238:
 23824               	.LBE1237:
 23825               	.LM2718:
 23826 841c 0E94 0000 		call SD_Close
 23827 8420 80E2      		ldi r24,lo8(20000)
 23828 8422 9EE4      		ldi r25,hi8(20000)
 23829               	.LVL1729:
 23830 8424 00C0      		rjmp .L1401
 23831               	.LVL1730:
 23832               	.L1402:
 23833               	.LBB1239:
 23834               	.LBB1240:
 23835               	.LM2719:
 23836 8426 D801      		movw r26,r16
 23837 8428 1596      		adiw r26,5
 23838 842a CC92      		st X,r12
 23839 842c 1597      		sbiw r26,5
 23840               	.LBE1240:
 23841               	.LBE1239:
 23842               	.LBB1241:
 23843               	.LBB1242:
 23844               	.LM2720:
 23845 842e 1696      		adiw r26,6
 23846 8430 DC92      		st X,r13
 23847               	.LBE1242:
 23848               	.LBE1241:
 23849               	.LM2721:
 23850 8432 0E94 0000 		call display_writeBufferToScreen
 23851               	.LVL1731:
 23852               	.LM2722:
 23853 8436 80E0      		ldi r24,lo8(.LC114)
 23854 8438 90E0      		ldi r25,hi8(.LC114)
 23855 843a 63E0      		ldi r22,lo8(3)
 23856 843c 40E0      		ldi r20,lo8(0)
 23857 843e 20E0      		ldi r18,lo8(System5x7)
 23858 8440 30E0      		ldi r19,hi8(System5x7)
 23859 8442 0E94 0000 		call display_putString
 23860               	.LM2723:
 23861 8446 80E0      		ldi r24,lo8(.LC115)
 23862 8448 90E0      		ldi r25,hi8(.LC115)
 23863 844a 64E0      		ldi r22,lo8(4)
 23864 844c 40E0      		ldi r20,lo8(0)
 23865 844e 20E0      		ldi r18,lo8(System5x7)
 23866 8450 30E0      		ldi r19,hi8(System5x7)
 23867 8452 0E94 0000 		call display_putString
 23868               	.LM2724:
 23869 8456 0E94 0000 		call display_writeBufferToScreen
 23870 845a 88EE      		ldi r24,lo8(1000)
 23871 845c 93E0      		ldi r25,hi8(1000)
 23872               	.LVL1732:
 23873 845e 00C0      		rjmp .L1404
 23874               	.LFE159:
 23876               	.global	temperatureSampleStartTime1
 23877               	.global	temperatureSampleStartTime1
 23878               		.section .bss
 23881               	temperatureSampleStartTime1:
 23882 0000 0000 0000 		.skip 4,0
 23883               	.global	temperatureSampleStartTime2
 23884               	.global	temperatureSampleStartTime2
 23887               	temperatureSampleStartTime2:
 23888 0004 0000 0000 		.skip 4,0
 23889               	.global	humiditySampleStartTime1
 23890               	.global	humiditySampleStartTime1
 23893               	humiditySampleStartTime1:
 23894 0008 0000 0000 		.skip 4,0
 23895               	.global	humiditySampleStartTime2
 23896               	.global	humiditySampleStartTime2
 23899               	humiditySampleStartTime2:
 23900 000c 0000 0000 		.skip 4,0
 23901               	.global	pressureSampleStartTime1
 23902               	.global	pressureSampleStartTime1
 23905               	pressureSampleStartTime1:
 23906 0010 0000 0000 		.skip 4,0
 23907               	.global	pressureSampleStartTime2
 23908               	.global	pressureSampleStartTime2
 23911               	pressureSampleStartTime2:
 23912 0014 0000 0000 		.skip 4,0
 23913               	.global	microphoneSampleStartTime1
 23914               	.global	microphoneSampleStartTime1
 23917               	microphoneSampleStartTime1:
 23918 0018 0000 0000 		.skip 4,0
 23919               	.global	microphoneSampleStartTime2
 23920               	.global	microphoneSampleStartTime2
 23923               	microphoneSampleStartTime2:
 23924 001c 0000 0000 		.skip 4,0
 23925               	.global	lightSampleStartTime1
 23926               	.global	lightSampleStartTime1
 23929               	lightSampleStartTime1:
 23930 0020 0000 0000 		.skip 4,0
 23931               	.global	lightSampleStartTime2
 23932               	.global	lightSampleStartTime2
 23935               	lightSampleStartTime2:
 23936 0024 0000 0000 		.skip 4,0
 23937               	.global	airSampleTime
 23938               	.global	airSampleTime
 23941               	airSampleTime:
 23942 0028 0000 0000 		.skip 4,0
 23943               	.global	Debug_readLocation
 23944               	.global	Debug_readLocation
 23947               	Debug_readLocation:
 23948 002c 0000      		.skip 2,0
 23949               	.global	Debug_writeLocation
 23950               	.global	Debug_writeLocation
 23953               	Debug_writeLocation:
 23954 002e 0000      		.skip 2,0
 23955               	.global	Wifi_readLocation
 23956               	.global	Wifi_readLocation
 23959               	Wifi_readLocation:
 23960 0030 0000      		.skip 2,0
 23961               	.global	Wifi_writeLocation
 23962               	.global	Wifi_writeLocation
 23965               	Wifi_writeLocation:
 23966 0032 0000      		.skip 2,0
 23967               	.global	respLen
 23968               	.global	respLen
 23971               	respLen:
 23972 0034 00        		.skip 1,0
 23973               	.global	toSendLen
 23974               	.global	toSendLen
 23977               	toSendLen:
 23978 0035 00        		.skip 1,0
 23979               	.global	okLen
 23980               	.global	okLen
 23983               	okLen:
 23984 0036 00        		.skip 1,0
 23985               	.global	timeLength
 23986               	.global	timeLength
 23989               	timeLength:
 23990 0037 00        		.skip 1,0
 23991               	.global	time_secs
 23992               	.global	time_secs
 23995               	time_secs:
 23996 0038 0000 0000 		.skip 4,0
 23997               	.global	time_nanos
 23998               	.global	time_nanos
 24001               	time_nanos:
 24002 003c 0000 0000 		.skip 4,0
 24003               	.global	connected
 24004               	.global	connected
 24007               	connected:
 24008 0040 00        		.skip 1,0
 24009               	.global	Rs232_readLocation
 24010               	.global	Rs232_readLocation
 24013               	Rs232_readLocation:
 24014 0041 0000      		.skip 2,0
 24015               	.global	Rs232_writeLocation
 24016               	.global	Rs232_writeLocation
 24019               	Rs232_writeLocation:
 24020 0043 0000      		.skip 2,0
 24021               	.global	okToSendAirQuality
 24022               	.global	okToSendAirQuality
 24025               	okToSendAirQuality:
 24026 0045 00        		.skip 1,0
 24027               	.global	rs232Recording
 24028               	.global	rs232Recording
 24031               	rs232Recording:
 24032 0046 00        		.skip 1,0
 24033               	.global	UNIX_time
 24034               	.global	UNIX_time
 24037               	UNIX_time:
 24038 0047 0000 0000 		.skip 4,0
 24039               	.global	gainSelector
 24040               	.global	gainSelector
 24043               	gainSelector:
 24044 004b 00        		.skip 1,0
 24045               	.global	integrationTime
 24046               		.data
 24049               	integrationTime:
 24050 06b9 00        		.byte	0
 24051 06ba 00        		.byte	0
 24052 06bb 01        		.byte	1
 24053 06bc 00        		.byte	0
 24054 06bd 02        		.byte	2
 24055 06be 00        		.byte	0
 24056 06bf 02        		.byte	2
 24057 06c0 02        		.byte	2
 24058 06c1 02        		.byte	2
 24059               	.global	gainSetting
 24062               	gainSetting:
 24063 06c2 00        		.byte	0
 24064 06c3 10        		.byte	16
 24065 06c4 00        		.byte	0
 24066 06c5 20        		.byte	32
 24067 06c6 00        		.byte	0
 24068 06c7 30        		.byte	48
 24069 06c8 10        		.byte	16
 24070 06c9 20        		.byte	32
 24071 06ca 30        		.byte	48
 24072               	.global	resultMultiplier
 24075               	resultMultiplier:
 24076 06cb 0C        		.byte	12
 24077 06cc 00        		.byte	0
 24078 06cd 00        		.byte	0
 24079 06ce 00        		.byte	0
 24080 06cf 30        		.byte	48
 24081 06d0 00        		.byte	0
 24082 06d1 00        		.byte	0
 24083 06d2 00        		.byte	0
 24084 06d3 64        		.byte	100
 24085 06d4 00        		.byte	0
 24086 06d5 00        		.byte	0
 24087 06d6 00        		.byte	0
 24088 06d7 C0        		.byte	-64
 24089 06d8 00        		.byte	0
 24090 06d9 00        		.byte	0
 24091 06da 00        		.byte	0
 24092 06db 90        		.byte	-112
 24093 06dc 01        		.byte	1
 24094 06dd 00        		.byte	0
 24095 06de 00        		.byte	0
 24096 06df 00        		.byte	0
 24097 06e0 03        		.byte	3
 24098 06e1 00        		.byte	0
 24099 06e2 00        		.byte	0
 24100 06e3 40        		.byte	64
 24101 06e4 06        		.byte	6
 24102 06e5 00        		.byte	0
 24103 06e6 00        		.byte	0
 24104 06e7 00        		.byte	0
 24105 06e8 19        		.byte	25
 24106 06e9 00        		.byte	0
 24107 06ea 00        		.byte	0
 24108 06eb 00        		.byte	0
 24109 06ec 64        		.byte	100
 24110 06ed 00        		.byte	0
 24111 06ee 00        		.byte	0
 24112               	.global	recording
 24113               	.global	recording
 24114               		.section .bss
 24117               	recording:
 24118 004c 00        		.skip 1,0
 24119               	.global	requestToStopRecording
 24120               	.global	requestToStopRecording
 24123               	requestToStopRecording:
 24124 004d 00        		.skip 1,0
 24125               	.global	okToSendTemperatureBuffer1
 24126               	.global	okToSendTemperatureBuffer1
 24129               	okToSendTemperatureBuffer1:
 24130 004e 00        		.skip 1,0
 24131               	.global	okToSendTemperatureBuffer2
 24132               	.global	okToSendTemperatureBuffer2
 24135               	okToSendTemperatureBuffer2:
 24136 004f 00        		.skip 1,0
 24137               	.global	temperatureBufferToWriteTo
 24138               		.data
 24141               	temperatureBufferToWriteTo:
 24142 06ef 01        		.byte	1
 24143               	.global	temperatureBufferCounter
 24144               	.global	temperatureBufferCounter
 24145               		.section .bss
 24148               	temperatureBufferCounter:
 24149 0050 00        		.skip 1,0
 24150               	.global	okToSendPressureBuffer1
 24151               	.global	okToSendPressureBuffer1
 24154               	okToSendPressureBuffer1:
 24155 0051 00        		.skip 1,0
 24156               	.global	okToSendPressureBuffer2
 24157               	.global	okToSendPressureBuffer2
 24160               	okToSendPressureBuffer2:
 24161 0052 00        		.skip 1,0
 24162               	.global	pressureBufferToWriteTo
 24163               		.data
 24166               	pressureBufferToWriteTo:
 24167 06f0 01        		.byte	1
 24168               	.global	pressureBufferCounter
 24169               	.global	pressureBufferCounter
 24170               		.section .bss
 24173               	pressureBufferCounter:
 24174 0053 00        		.skip 1,0
 24175               	.global	okToSendHumidityBuffer1
 24176               	.global	okToSendHumidityBuffer1
 24179               	okToSendHumidityBuffer1:
 24180 0054 00        		.skip 1,0
 24181               	.global	okToSendHumidityBuffer2
 24182               	.global	okToSendHumidityBuffer2
 24185               	okToSendHumidityBuffer2:
 24186 0055 00        		.skip 1,0
 24187               	.global	humidityBufferToWriteTo
 24188               		.data
 24191               	humidityBufferToWriteTo:
 24192 06f1 01        		.byte	1
 24193               	.global	humidityBufferCounter
 24194               	.global	humidityBufferCounter
 24195               		.section .bss
 24198               	humidityBufferCounter:
 24199 0056 00        		.skip 1,0
 24200               	.global	okToSendMicrophoneBuffer1
 24201               	.global	okToSendMicrophoneBuffer1
 24204               	okToSendMicrophoneBuffer1:
 24205 0057 00        		.skip 1,0
 24206               	.global	okToSendMicrophoneBuffer2
 24207               	.global	okToSendMicrophoneBuffer2
 24210               	okToSendMicrophoneBuffer2:
 24211 0058 00        		.skip 1,0
 24212               	.global	microphoneBufferToWriteTo
 24213               		.data
 24216               	microphoneBufferToWriteTo:
 24217 06f2 01        		.byte	1
 24218               	.global	microphoneBufferCounter
 24219               	.global	microphoneBufferCounter
 24220               		.section .bss
 24223               	microphoneBufferCounter:
 24224 0059 0000      		.skip 2,0
 24225               	.global	okToSendLightBuffer1
 24226               	.global	okToSendLightBuffer1
 24229               	okToSendLightBuffer1:
 24230 005b 00        		.skip 1,0
 24231               	.global	okToSendLightBuffer2
 24232               	.global	okToSendLightBuffer2
 24235               	okToSendLightBuffer2:
 24236 005c 00        		.skip 1,0
 24237               	.global	lightBufferToWriteTo
 24238               		.data
 24241               	lightBufferToWriteTo:
 24242 06f3 01        		.byte	1
 24243               	.global	lightBufferCounter
 24244               	.global	lightBufferCounter
 24245               		.section .bss
 24248               	lightBufferCounter:
 24249 005d 00        		.skip 1,0
 24250               	.global	okToSendRTCBlock
 24251               	.global	okToSendRTCBlock
 24254               	okToSendRTCBlock:
 24255 005e 00        		.skip 1,0
 24256               	.global	rtcBlockCounter
 24257               	.global	rtcBlockCounter
 24260               	rtcBlockCounter:
 24261 005f 00        		.skip 1,0
 24262               	.global	wantToRecordTemperature
 24263               		.data
 24266               	wantToRecordTemperature:
 24267 06f4 01        		.byte	1
 24268               	.global	wantToRecordPressure
 24271               	wantToRecordPressure:
 24272 06f5 01        		.byte	1
 24273               	.global	wantToRecordHumidity
 24276               	wantToRecordHumidity:
 24277 06f6 01        		.byte	1
 24278               	.global	wantToRecordMicrophone
 24281               	wantToRecordMicrophone:
 24282 06f7 01        		.byte	1
 24283               	.global	wantToRecordLight
 24286               	wantToRecordLight:
 24287 06f8 01        		.byte	1
 24288               	.global	wantToRecordAirQuality
 24291               	wantToRecordAirQuality:
 24292 06f9 01        		.byte	1
 24293               	.global	auth
 24296               	auth:
 24297 06fa 7365 7420 		.string	"set wlan auth "
 24297      776C 616E 
 24297      2061 7574 
 24297      6820 00
 24298 0709 0000 0000 		.skip 35,0
 24298      0000 0000 
 24298      0000 0000 
 24298      0000 0000 
 24298      0000 0000 
 24299               	.global	phrase
 24302               	phrase:
 24303 072c 7365 7420 		.string	"set wlan phrase "
 24303      776C 616E 
 24303      2070 6872 
 24303      6173 6520 
 24303      00
 24304 073d 0000 0000 		.skip 33,0
 24304      0000 0000 
 24304      0000 0000 
 24304      0000 0000 
 24304      0000 0000 
 24305               	.global	port
 24308               	port:
 24309 075e 7365 7420 		.string	"set ip localport "
 24309      6970 206C 
 24309      6F63 616C 
 24309      706F 7274 
 24309      2000 
 24310 0770 0000 0000 		.skip 32,0
 24310      0000 0000 
 24310      0000 0000 
 24310      0000 0000 
 24310      0000 0000 
 24311               	.global	ssid
 24314               	ssid:
 24315 0790 6A6F 696E 		.string	"join "
 24315      2000 
 24316 0796 0000 0000 		.skip 44,0
 24316      0000 0000 
 24316      0000 0000 
 24316      0000 0000 
 24316      0000 0000 
 24317               	.global	authRead
 24318               	.global	authRead
 24319               		.section .bss
 24322               	authRead:
 24323 0060 00        		.skip 1,0
 24324               	.global	phraseRead
 24325               	.global	phraseRead
 24328               	phraseRead:
 24329 0061 00        		.skip 1,0
 24330               	.global	portRead
 24331               	.global	portRead
 24334               	portRead:
 24335 0062 00        		.skip 1,0
 24336               	.global	ssidRead
 24337               	.global	ssidRead
 24340               	ssidRead:
 24341 0063 00        		.skip 1,0
 24342               		.data
 24345               	System5x7:
 24346 07c2 00        		.byte	0
 24347 07c3 00        		.byte	0
 24348 07c4 05        		.byte	5
 24349 07c5 07        		.byte	7
 24350 07c6 20        		.byte	32
 24351 07c7 7F        		.byte	127
 24352 07c8 00        		.byte	0
 24353 07c9 00        		.byte	0
 24354 07ca 00        		.byte	0
 24355 07cb 00        		.byte	0
 24356 07cc 00        		.byte	0
 24357 07cd 00        		.byte	0
 24358 07ce 00        		.byte	0
 24359 07cf 5F        		.byte	95
 24360 07d0 00        		.byte	0
 24361 07d1 00        		.byte	0
 24362 07d2 00        		.byte	0
 24363 07d3 07        		.byte	7
 24364 07d4 00        		.byte	0
 24365 07d5 07        		.byte	7
 24366 07d6 00        		.byte	0
 24367 07d7 14        		.byte	20
 24368 07d8 7F        		.byte	127
 24369 07d9 14        		.byte	20
 24370 07da 7F        		.byte	127
 24371 07db 14        		.byte	20
 24372 07dc 24        		.byte	36
 24373 07dd 2A        		.byte	42
 24374 07de 7F        		.byte	127
 24375 07df 2A        		.byte	42
 24376 07e0 12        		.byte	18
 24377 07e1 23        		.byte	35
 24378 07e2 13        		.byte	19
 24379 07e3 08        		.byte	8
 24380 07e4 64        		.byte	100
 24381 07e5 62        		.byte	98
 24382 07e6 36        		.byte	54
 24383 07e7 49        		.byte	73
 24384 07e8 55        		.byte	85
 24385 07e9 22        		.byte	34
 24386 07ea 50        		.byte	80
 24387 07eb 00        		.byte	0
 24388 07ec 05        		.byte	5
 24389 07ed 03        		.byte	3
 24390 07ee 00        		.byte	0
 24391 07ef 00        		.byte	0
 24392 07f0 00        		.byte	0
 24393 07f1 1C        		.byte	28
 24394 07f2 22        		.byte	34
 24395 07f3 41        		.byte	65
 24396 07f4 00        		.byte	0
 24397 07f5 00        		.byte	0
 24398 07f6 41        		.byte	65
 24399 07f7 22        		.byte	34
 24400 07f8 1C        		.byte	28
 24401 07f9 00        		.byte	0
 24402 07fa 08        		.byte	8
 24403 07fb 2A        		.byte	42
 24404 07fc 1C        		.byte	28
 24405 07fd 2A        		.byte	42
 24406 07fe 08        		.byte	8
 24407 07ff 08        		.byte	8
 24408 0800 08        		.byte	8
 24409 0801 3E        		.byte	62
 24410 0802 08        		.byte	8
 24411 0803 08        		.byte	8
 24412 0804 00        		.byte	0
 24413 0805 50        		.byte	80
 24414 0806 30        		.byte	48
 24415 0807 00        		.byte	0
 24416 0808 00        		.byte	0
 24417 0809 08        		.byte	8
 24418 080a 08        		.byte	8
 24419 080b 08        		.byte	8
 24420 080c 08        		.byte	8
 24421 080d 08        		.byte	8
 24422 080e 00        		.byte	0
 24423 080f 60        		.byte	96
 24424 0810 60        		.byte	96
 24425 0811 00        		.byte	0
 24426 0812 00        		.byte	0
 24427 0813 20        		.byte	32
 24428 0814 10        		.byte	16
 24429 0815 08        		.byte	8
 24430 0816 04        		.byte	4
 24431 0817 02        		.byte	2
 24432 0818 3E        		.byte	62
 24433 0819 51        		.byte	81
 24434 081a 49        		.byte	73
 24435 081b 45        		.byte	69
 24436 081c 3E        		.byte	62
 24437 081d 00        		.byte	0
 24438 081e 42        		.byte	66
 24439 081f 7F        		.byte	127
 24440 0820 40        		.byte	64
 24441 0821 00        		.byte	0
 24442 0822 42        		.byte	66
 24443 0823 61        		.byte	97
 24444 0824 51        		.byte	81
 24445 0825 49        		.byte	73
 24446 0826 46        		.byte	70
 24447 0827 21        		.byte	33
 24448 0828 41        		.byte	65
 24449 0829 45        		.byte	69
 24450 082a 4B        		.byte	75
 24451 082b 31        		.byte	49
 24452 082c 18        		.byte	24
 24453 082d 14        		.byte	20
 24454 082e 12        		.byte	18
 24455 082f 7F        		.byte	127
 24456 0830 10        		.byte	16
 24457 0831 27        		.byte	39
 24458 0832 45        		.byte	69
 24459 0833 45        		.byte	69
 24460 0834 45        		.byte	69
 24461 0835 39        		.byte	57
 24462 0836 3C        		.byte	60
 24463 0837 4A        		.byte	74
 24464 0838 49        		.byte	73
 24465 0839 49        		.byte	73
 24466 083a 30        		.byte	48
 24467 083b 01        		.byte	1
 24468 083c 71        		.byte	113
 24469 083d 09        		.byte	9
 24470 083e 05        		.byte	5
 24471 083f 03        		.byte	3
 24472 0840 36        		.byte	54
 24473 0841 49        		.byte	73
 24474 0842 49        		.byte	73
 24475 0843 49        		.byte	73
 24476 0844 36        		.byte	54
 24477 0845 06        		.byte	6
 24478 0846 49        		.byte	73
 24479 0847 49        		.byte	73
 24480 0848 29        		.byte	41
 24481 0849 1E        		.byte	30
 24482 084a 00        		.byte	0
 24483 084b 36        		.byte	54
 24484 084c 36        		.byte	54
 24485 084d 00        		.byte	0
 24486 084e 00        		.byte	0
 24487 084f 00        		.byte	0
 24488 0850 56        		.byte	86
 24489 0851 36        		.byte	54
 24490 0852 00        		.byte	0
 24491 0853 00        		.byte	0
 24492 0854 00        		.byte	0
 24493 0855 08        		.byte	8
 24494 0856 14        		.byte	20
 24495 0857 22        		.byte	34
 24496 0858 41        		.byte	65
 24497 0859 14        		.byte	20
 24498 085a 14        		.byte	20
 24499 085b 14        		.byte	20
 24500 085c 14        		.byte	20
 24501 085d 14        		.byte	20
 24502 085e 41        		.byte	65
 24503 085f 22        		.byte	34
 24504 0860 14        		.byte	20
 24505 0861 08        		.byte	8
 24506 0862 00        		.byte	0
 24507 0863 02        		.byte	2
 24508 0864 01        		.byte	1
 24509 0865 51        		.byte	81
 24510 0866 09        		.byte	9
 24511 0867 06        		.byte	6
 24512 0868 32        		.byte	50
 24513 0869 49        		.byte	73
 24514 086a 79        		.byte	121
 24515 086b 41        		.byte	65
 24516 086c 3E        		.byte	62
 24517 086d 7E        		.byte	126
 24518 086e 11        		.byte	17
 24519 086f 11        		.byte	17
 24520 0870 11        		.byte	17
 24521 0871 7E        		.byte	126
 24522 0872 7F        		.byte	127
 24523 0873 49        		.byte	73
 24524 0874 49        		.byte	73
 24525 0875 49        		.byte	73
 24526 0876 36        		.byte	54
 24527 0877 3E        		.byte	62
 24528 0878 41        		.byte	65
 24529 0879 41        		.byte	65
 24530 087a 41        		.byte	65
 24531 087b 22        		.byte	34
 24532 087c 7F        		.byte	127
 24533 087d 41        		.byte	65
 24534 087e 41        		.byte	65
 24535 087f 22        		.byte	34
 24536 0880 1C        		.byte	28
 24537 0881 7F        		.byte	127
 24538 0882 49        		.byte	73
 24539 0883 49        		.byte	73
 24540 0884 49        		.byte	73
 24541 0885 41        		.byte	65
 24542 0886 7F        		.byte	127
 24543 0887 09        		.byte	9
 24544 0888 09        		.byte	9
 24545 0889 01        		.byte	1
 24546 088a 01        		.byte	1
 24547 088b 3E        		.byte	62
 24548 088c 41        		.byte	65
 24549 088d 41        		.byte	65
 24550 088e 51        		.byte	81
 24551 088f 32        		.byte	50
 24552 0890 7F        		.byte	127
 24553 0891 08        		.byte	8
 24554 0892 08        		.byte	8
 24555 0893 08        		.byte	8
 24556 0894 7F        		.byte	127
 24557 0895 00        		.byte	0
 24558 0896 41        		.byte	65
 24559 0897 7F        		.byte	127
 24560 0898 41        		.byte	65
 24561 0899 00        		.byte	0
 24562 089a 20        		.byte	32
 24563 089b 40        		.byte	64
 24564 089c 41        		.byte	65
 24565 089d 3F        		.byte	63
 24566 089e 01        		.byte	1
 24567 089f 7F        		.byte	127
 24568 08a0 08        		.byte	8
 24569 08a1 14        		.byte	20
 24570 08a2 22        		.byte	34
 24571 08a3 41        		.byte	65
 24572 08a4 7F        		.byte	127
 24573 08a5 40        		.byte	64
 24574 08a6 40        		.byte	64
 24575 08a7 40        		.byte	64
 24576 08a8 40        		.byte	64
 24577 08a9 7F        		.byte	127
 24578 08aa 02        		.byte	2
 24579 08ab 04        		.byte	4
 24580 08ac 02        		.byte	2
 24581 08ad 7F        		.byte	127
 24582 08ae 7F        		.byte	127
 24583 08af 04        		.byte	4
 24584 08b0 08        		.byte	8
 24585 08b1 10        		.byte	16
 24586 08b2 7F        		.byte	127
 24587 08b3 3E        		.byte	62
 24588 08b4 41        		.byte	65
 24589 08b5 41        		.byte	65
 24590 08b6 41        		.byte	65
 24591 08b7 3E        		.byte	62
 24592 08b8 7F        		.byte	127
 24593 08b9 09        		.byte	9
 24594 08ba 09        		.byte	9
 24595 08bb 09        		.byte	9
 24596 08bc 06        		.byte	6
 24597 08bd 3E        		.byte	62
 24598 08be 41        		.byte	65
 24599 08bf 51        		.byte	81
 24600 08c0 21        		.byte	33
 24601 08c1 5E        		.byte	94
 24602 08c2 7F        		.byte	127
 24603 08c3 09        		.byte	9
 24604 08c4 19        		.byte	25
 24605 08c5 29        		.byte	41
 24606 08c6 46        		.byte	70
 24607 08c7 46        		.byte	70
 24608 08c8 49        		.byte	73
 24609 08c9 49        		.byte	73
 24610 08ca 49        		.byte	73
 24611 08cb 31        		.byte	49
 24612 08cc 01        		.byte	1
 24613 08cd 01        		.byte	1
 24614 08ce 7F        		.byte	127
 24615 08cf 01        		.byte	1
 24616 08d0 01        		.byte	1
 24617 08d1 3F        		.byte	63
 24618 08d2 40        		.byte	64
 24619 08d3 40        		.byte	64
 24620 08d4 40        		.byte	64
 24621 08d5 3F        		.byte	63
 24622 08d6 1F        		.byte	31
 24623 08d7 20        		.byte	32
 24624 08d8 40        		.byte	64
 24625 08d9 20        		.byte	32
 24626 08da 1F        		.byte	31
 24627 08db 7F        		.byte	127
 24628 08dc 20        		.byte	32
 24629 08dd 18        		.byte	24
 24630 08de 20        		.byte	32
 24631 08df 7F        		.byte	127
 24632 08e0 63        		.byte	99
 24633 08e1 14        		.byte	20
 24634 08e2 08        		.byte	8
 24635 08e3 14        		.byte	20
 24636 08e4 63        		.byte	99
 24637 08e5 03        		.byte	3
 24638 08e6 04        		.byte	4
 24639 08e7 78        		.byte	120
 24640 08e8 04        		.byte	4
 24641 08e9 03        		.byte	3
 24642 08ea 61        		.byte	97
 24643 08eb 51        		.byte	81
 24644 08ec 49        		.byte	73
 24645 08ed 45        		.byte	69
 24646 08ee 43        		.byte	67
 24647 08ef 00        		.byte	0
 24648 08f0 00        		.byte	0
 24649 08f1 7F        		.byte	127
 24650 08f2 41        		.byte	65
 24651 08f3 41        		.byte	65
 24652 08f4 02        		.byte	2
 24653 08f5 04        		.byte	4
 24654 08f6 08        		.byte	8
 24655 08f7 10        		.byte	16
 24656 08f8 20        		.byte	32
 24657 08f9 41        		.byte	65
 24658 08fa 41        		.byte	65
 24659 08fb 7F        		.byte	127
 24660 08fc 00        		.byte	0
 24661 08fd 00        		.byte	0
 24662 08fe 04        		.byte	4
 24663 08ff 02        		.byte	2
 24664 0900 01        		.byte	1
 24665 0901 02        		.byte	2
 24666 0902 04        		.byte	4
 24667 0903 40        		.byte	64
 24668 0904 40        		.byte	64
 24669 0905 40        		.byte	64
 24670 0906 40        		.byte	64
 24671 0907 40        		.byte	64
 24672 0908 00        		.byte	0
 24673 0909 01        		.byte	1
 24674 090a 02        		.byte	2
 24675 090b 04        		.byte	4
 24676 090c 00        		.byte	0
 24677 090d 20        		.byte	32
 24678 090e 54        		.byte	84
 24679 090f 54        		.byte	84
 24680 0910 54        		.byte	84
 24681 0911 78        		.byte	120
 24682 0912 7F        		.byte	127
 24683 0913 48        		.byte	72
 24684 0914 44        		.byte	68
 24685 0915 44        		.byte	68
 24686 0916 38        		.byte	56
 24687 0917 38        		.byte	56
 24688 0918 44        		.byte	68
 24689 0919 44        		.byte	68
 24690 091a 44        		.byte	68
 24691 091b 20        		.byte	32
 24692 091c 38        		.byte	56
 24693 091d 44        		.byte	68
 24694 091e 44        		.byte	68
 24695 091f 48        		.byte	72
 24696 0920 7F        		.byte	127
 24697 0921 38        		.byte	56
 24698 0922 54        		.byte	84
 24699 0923 54        		.byte	84
 24700 0924 54        		.byte	84
 24701 0925 18        		.byte	24
 24702 0926 08        		.byte	8
 24703 0927 7E        		.byte	126
 24704 0928 09        		.byte	9
 24705 0929 01        		.byte	1
 24706 092a 02        		.byte	2
 24707 092b 08        		.byte	8
 24708 092c 14        		.byte	20
 24709 092d 54        		.byte	84
 24710 092e 54        		.byte	84
 24711 092f 3C        		.byte	60
 24712 0930 7F        		.byte	127
 24713 0931 08        		.byte	8
 24714 0932 04        		.byte	4
 24715 0933 04        		.byte	4
 24716 0934 78        		.byte	120
 24717 0935 00        		.byte	0
 24718 0936 44        		.byte	68
 24719 0937 7D        		.byte	125
 24720 0938 40        		.byte	64
 24721 0939 00        		.byte	0
 24722 093a 20        		.byte	32
 24723 093b 40        		.byte	64
 24724 093c 44        		.byte	68
 24725 093d 3D        		.byte	61
 24726 093e 00        		.byte	0
 24727 093f 00        		.byte	0
 24728 0940 7F        		.byte	127
 24729 0941 10        		.byte	16
 24730 0942 28        		.byte	40
 24731 0943 44        		.byte	68
 24732 0944 00        		.byte	0
 24733 0945 41        		.byte	65
 24734 0946 7F        		.byte	127
 24735 0947 40        		.byte	64
 24736 0948 00        		.byte	0
 24737 0949 7C        		.byte	124
 24738 094a 04        		.byte	4
 24739 094b 18        		.byte	24
 24740 094c 04        		.byte	4
 24741 094d 78        		.byte	120
 24742 094e 7C        		.byte	124
 24743 094f 08        		.byte	8
 24744 0950 04        		.byte	4
 24745 0951 04        		.byte	4
 24746 0952 78        		.byte	120
 24747 0953 38        		.byte	56
 24748 0954 44        		.byte	68
 24749 0955 44        		.byte	68
 24750 0956 44        		.byte	68
 24751 0957 38        		.byte	56
 24752 0958 7C        		.byte	124
 24753 0959 14        		.byte	20
 24754 095a 14        		.byte	20
 24755 095b 14        		.byte	20
 24756 095c 08        		.byte	8
 24757 095d 08        		.byte	8
 24758 095e 14        		.byte	20
 24759 095f 14        		.byte	20
 24760 0960 18        		.byte	24
 24761 0961 7C        		.byte	124
 24762 0962 7C        		.byte	124
 24763 0963 08        		.byte	8
 24764 0964 04        		.byte	4
 24765 0965 04        		.byte	4
 24766 0966 08        		.byte	8
 24767 0967 48        		.byte	72
 24768 0968 54        		.byte	84
 24769 0969 54        		.byte	84
 24770 096a 54        		.byte	84
 24771 096b 20        		.byte	32
 24772 096c 04        		.byte	4
 24773 096d 3F        		.byte	63
 24774 096e 44        		.byte	68
 24775 096f 40        		.byte	64
 24776 0970 20        		.byte	32
 24777 0971 3C        		.byte	60
 24778 0972 40        		.byte	64
 24779 0973 40        		.byte	64
 24780 0974 20        		.byte	32
 24781 0975 7C        		.byte	124
 24782 0976 1C        		.byte	28
 24783 0977 20        		.byte	32
 24784 0978 40        		.byte	64
 24785 0979 20        		.byte	32
 24786 097a 1C        		.byte	28
 24787 097b 3C        		.byte	60
 24788 097c 40        		.byte	64
 24789 097d 30        		.byte	48
 24790 097e 40        		.byte	64
 24791 097f 3C        		.byte	60
 24792 0980 44        		.byte	68
 24793 0981 28        		.byte	40
 24794 0982 10        		.byte	16
 24795 0983 28        		.byte	40
 24796 0984 44        		.byte	68
 24797 0985 0C        		.byte	12
 24798 0986 50        		.byte	80
 24799 0987 50        		.byte	80
 24800 0988 50        		.byte	80
 24801 0989 3C        		.byte	60
 24802 098a 44        		.byte	68
 24803 098b 64        		.byte	100
 24804 098c 54        		.byte	84
 24805 098d 4C        		.byte	76
 24806 098e 44        		.byte	68
 24807 098f 00        		.byte	0
 24808 0990 08        		.byte	8
 24809 0991 36        		.byte	54
 24810 0992 41        		.byte	65
 24811 0993 00        		.byte	0
 24812 0994 00        		.byte	0
 24813 0995 00        		.byte	0
 24814 0996 7F        		.byte	127
 24815 0997 00        		.byte	0
 24816 0998 00        		.byte	0
 24817 0999 00        		.byte	0
 24818 099a 41        		.byte	65
 24819 099b 36        		.byte	54
 24820 099c 08        		.byte	8
 24821 099d 00        		.byte	0
 24822 099e 08        		.byte	8
 24823 099f 08        		.byte	8
 24824 09a0 2A        		.byte	42
 24825 09a1 1C        		.byte	28
 24826 09a2 08        		.byte	8
 24827 09a3 08        		.byte	8
 24828 09a4 1C        		.byte	28
 24829 09a5 2A        		.byte	42
 24830 09a6 08        		.byte	8
 24831 09a7 08        		.byte	8
 24834               	monthDays:
 24835 09a8 1F        		.byte	31
 24836 09a9 1C        		.byte	28
 24837 09aa 1F        		.byte	31
 24838 09ab 1E        		.byte	30
 24839 09ac 1F        		.byte	31
 24840 09ad 1E        		.byte	30
 24841 09ae 1F        		.byte	31
 24842 09af 1F        		.byte	31
 24843 09b0 1E        		.byte	30
 24844 09b1 1F        		.byte	31
 24845 09b2 1E        		.byte	30
 24846 09b3 1F        		.byte	31
 24849               	Stat:
 24850 09b4 01        		.byte	1
 24851               		.lcomm Timer1,1
 24852               		.lcomm Timer2,1
 24853               		.lcomm CardType,1
 24854               		.lcomm FatFs,2
 24855               		.lcomm Fsid,2
 24856               		.lcomm file_system_object,558
 24857               		.comm temperatureBuffer1,20,1
 24858               		.comm temperatureBuffer2,20,1
 24859               		.comm humidityBuffer1,10,1
 24860               		.comm humidityBuffer2,10,1
 24861               		.comm pressureBuffer1,10,1
 24862               		.comm pressureBuffer2,10,1
 24863               		.comm microphoneBuffer1,1000,1
 24864               		.comm microphoneBuffer2,1000,1
 24865               		.comm lightBuffer1,160,1
 24866               		.comm lightBuffer2,160,1
 24867               		.comm DebugBuffer,1024,1
 24868               		.comm WifiBuffer,1024,1
 24869               		.comm resp,50,1
 24870               		.comm string,50,1
 24871               		.comm timeUpper,10,1
 24872               		.comm timeLower,10,1
 24873               		.comm ip,20,1
 24874               		.comm timeString,15,1
 24875               		.comm connectionStatus,3,1
 24876               		.comm macAddr,20,1
 24877               		.comm Rs232Buffer,1024,1
 24878               		.comm airQualityString,50,1
 24879               		.comm largeCount,4,1
 24880               		.comm smallCount,4,1
 24881               		.comm Log_File,544,1
 24882               		.comm fileName,20,1
 24883               		.comm tmp8,1,1
 24884               		.comm tmp16,2,1
 24885               		.comm tmp32,4,1
 24886               		.comm tmpArray,20,1
 24887               		.comm CRC,4,1
 24888               		.comm displayBuffer,816,1
 24889               		.comm result,16,1
 24890               		.comm deviceAddress,1,1
 24891               		.comm writeAddress,1,1
 24892               		.comm commandCode,1,1
 24893               		.comm colors,8,1
 24894               		.comm colors8,8,1
 24895               		.comm time,8,1
 24896               		.comm temp,50,1
 24897               		.comm debugMsg,150,1
 26186               	.Letext0:
DEFINED SYMBOLS
                            *ABS*:00000000 main.c
/var/folders/wz/wzM13vx1HuGiQAygYPOM9k+++TI/-Tmp-//ccNkkwwz.s:2      *ABS*:0000003f __SREG__
/var/folders/wz/wzM13vx1HuGiQAygYPOM9k+++TI/-Tmp-//ccNkkwwz.s:3      *ABS*:0000003e __SP_H__
/var/folders/wz/wzM13vx1HuGiQAygYPOM9k+++TI/-Tmp-//ccNkkwwz.s:4      *ABS*:0000003d __SP_L__
/var/folders/wz/wzM13vx1HuGiQAygYPOM9k+++TI/-Tmp-//ccNkkwwz.s:5      *ABS*:00000034 __CCP__
/var/folders/wz/wzM13vx1HuGiQAygYPOM9k+++TI/-Tmp-//ccNkkwwz.s:6      *ABS*:00000000 __tmp_reg__
/var/folders/wz/wzM13vx1HuGiQAygYPOM9k+++TI/-Tmp-//ccNkkwwz.s:7      *ABS*:00000001 __zero_reg__
/var/folders/wz/wzM13vx1HuGiQAygYPOM9k+++TI/-Tmp-//ccNkkwwz.s:18     .text:00000000 Debug_Init
/var/folders/wz/wzM13vx1HuGiQAygYPOM9k+++TI/-Tmp-//ccNkkwwz.s:60     .text:0000002e Debug_CharReadyToRead
/var/folders/wz/wzM13vx1HuGiQAygYPOM9k+++TI/-Tmp-//ccNkkwwz.s:23953  .bss:0000002e Debug_writeLocation
/var/folders/wz/wzM13vx1HuGiQAygYPOM9k+++TI/-Tmp-//ccNkkwwz.s:23947  .bss:0000002c Debug_readLocation
/var/folders/wz/wzM13vx1HuGiQAygYPOM9k+++TI/-Tmp-//ccNkkwwz.s:84     .text:0000004c Debug_GetByte
                            *COM*:00000400 DebugBuffer
/var/folders/wz/wzM13vx1HuGiQAygYPOM9k+++TI/-Tmp-//ccNkkwwz.s:141    .text:000000a0 Debug_SendByte
/var/folders/wz/wzM13vx1HuGiQAygYPOM9k+++TI/-Tmp-//ccNkkwwz.s:163    .text:000000b0 __vector_25
/var/folders/wz/wzM13vx1HuGiQAygYPOM9k+++TI/-Tmp-//ccNkkwwz.s:221    .text:0000011a Wifi_Init
/var/folders/wz/wzM13vx1HuGiQAygYPOM9k+++TI/-Tmp-//ccNkkwwz.s:299    .text:0000016c Wifi_CharReadyToRead
/var/folders/wz/wzM13vx1HuGiQAygYPOM9k+++TI/-Tmp-//ccNkkwwz.s:23965  .bss:00000032 Wifi_writeLocation
                            *COM*:00000400 WifiBuffer
/var/folders/wz/wzM13vx1HuGiQAygYPOM9k+++TI/-Tmp-//ccNkkwwz.s:23959  .bss:00000030 Wifi_readLocation
/var/folders/wz/wzM13vx1HuGiQAygYPOM9k+++TI/-Tmp-//ccNkkwwz.s:344    .text:000001c6 Wifi_ClearBuffer
/var/folders/wz/wzM13vx1HuGiQAygYPOM9k+++TI/-Tmp-//ccNkkwwz.s:385    .text:0000021c Wifi_GetByte
/var/folders/wz/wzM13vx1HuGiQAygYPOM9k+++TI/-Tmp-//ccNkkwwz.s:434    .text:00000262 Wifi_SendByte
/var/folders/wz/wzM13vx1HuGiQAygYPOM9k+++TI/-Tmp-//ccNkkwwz.s:456    .text:00000272 Dpad_Init
/var/folders/wz/wzM13vx1HuGiQAygYPOM9k+++TI/-Tmp-//ccNkkwwz.s:485    .text:0000028a Dpad_Read
/var/folders/wz/wzM13vx1HuGiQAygYPOM9k+++TI/-Tmp-//ccNkkwwz.s:502    .text:00000294 Dpad_CheckButton
/var/folders/wz/wzM13vx1HuGiQAygYPOM9k+++TI/-Tmp-//ccNkkwwz.s:540    .text:000002bc Leds_Init
/var/folders/wz/wzM13vx1HuGiQAygYPOM9k+++TI/-Tmp-//ccNkkwwz.s:558    .text:000002c8 Leds_Set
/var/folders/wz/wzM13vx1HuGiQAygYPOM9k+++TI/-Tmp-//ccNkkwwz.s:582    .text:000002de Leds_Clear
/var/folders/wz/wzM13vx1HuGiQAygYPOM9k+++TI/-Tmp-//ccNkkwwz.s:606    .text:000002f4 Leds_Toggle
/var/folders/wz/wzM13vx1HuGiQAygYPOM9k+++TI/-Tmp-//ccNkkwwz.s:630    .text:0000030a Rs232_Init
/var/folders/wz/wzM13vx1HuGiQAygYPOM9k+++TI/-Tmp-//ccNkkwwz.s:672    .text:00000338 Rs232_CharReadyToRead
/var/folders/wz/wzM13vx1HuGiQAygYPOM9k+++TI/-Tmp-//ccNkkwwz.s:24019  .bss:00000043 Rs232_writeLocation
/var/folders/wz/wzM13vx1HuGiQAygYPOM9k+++TI/-Tmp-//ccNkkwwz.s:24013  .bss:00000041 Rs232_readLocation
/var/folders/wz/wzM13vx1HuGiQAygYPOM9k+++TI/-Tmp-//ccNkkwwz.s:696    .text:00000356 Rs232_GetByte
                            *COM*:00000400 Rs232Buffer
/var/folders/wz/wzM13vx1HuGiQAygYPOM9k+++TI/-Tmp-//ccNkkwwz.s:753    .text:000003aa Rs232_ClearBuffer
/var/folders/wz/wzM13vx1HuGiQAygYPOM9k+++TI/-Tmp-//ccNkkwwz.s:770    .text:000003bc Rs232_SendByte
/var/folders/wz/wzM13vx1HuGiQAygYPOM9k+++TI/-Tmp-//ccNkkwwz.s:791    .text:000003cc wait_ready
/var/folders/wz/wzM13vx1HuGiQAygYPOM9k+++TI/-Tmp-//ccNkkwwz.s:24851  .bss:00000065 Timer2
/var/folders/wz/wzM13vx1HuGiQAygYPOM9k+++TI/-Tmp-//ccNkkwwz.s:847    .text:0000040a select
/var/folders/wz/wzM13vx1HuGiQAygYPOM9k+++TI/-Tmp-//ccNkkwwz.s:900    .text:00000444 rcvr_datablock
                             .bss:00000064 Timer1
/var/folders/wz/wzM13vx1HuGiQAygYPOM9k+++TI/-Tmp-//ccNkkwwz.s:1044   .text:00000508 xmit_datablock
/var/folders/wz/wzM13vx1HuGiQAygYPOM9k+++TI/-Tmp-//ccNkkwwz.s:1161   .text:000005a6 send_cmd
/var/folders/wz/wzM13vx1HuGiQAygYPOM9k+++TI/-Tmp-//ccNkkwwz.s:1378   .text:000006be disk_initialize
/var/folders/wz/wzM13vx1HuGiQAygYPOM9k+++TI/-Tmp-//ccNkkwwz.s:24849  .data:000009b4 Stat
/var/folders/wz/wzM13vx1HuGiQAygYPOM9k+++TI/-Tmp-//ccNkkwwz.s:24852  .bss:00000066 CardType
/var/folders/wz/wzM13vx1HuGiQAygYPOM9k+++TI/-Tmp-//ccNkkwwz.s:1787   .text:000008ca disk_status
/var/folders/wz/wzM13vx1HuGiQAygYPOM9k+++TI/-Tmp-//ccNkkwwz.s:1810   .text:000008d8 disk_read
/var/folders/wz/wzM13vx1HuGiQAygYPOM9k+++TI/-Tmp-//ccNkkwwz.s:1956   .text:00000998 disk_write
/var/folders/wz/wzM13vx1HuGiQAygYPOM9k+++TI/-Tmp-//ccNkkwwz.s:2133   .text:00000a88 disk_ioctl
/var/folders/wz/wzM13vx1HuGiQAygYPOM9k+++TI/-Tmp-//ccNkkwwz.s:2773   .text:00000e2e disk_timerproc
/var/folders/wz/wzM13vx1HuGiQAygYPOM9k+++TI/-Tmp-//ccNkkwwz.s:2810   .text:00000e56 get_fattime
/var/folders/wz/wzM13vx1HuGiQAygYPOM9k+++TI/-Tmp-//ccNkkwwz.s:2825   .text:00000e60 move_window
/var/folders/wz/wzM13vx1HuGiQAygYPOM9k+++TI/-Tmp-//ccNkkwwz.s:2986   .text:00000f52 sync
/var/folders/wz/wzM13vx1HuGiQAygYPOM9k+++TI/-Tmp-//ccNkkwwz.s:3172   .text:00001070 get_fat
/var/folders/wz/wzM13vx1HuGiQAygYPOM9k+++TI/-Tmp-//ccNkkwwz.s:3460   .text:00001244 put_fat
/var/folders/wz/wzM13vx1HuGiQAygYPOM9k+++TI/-Tmp-//ccNkkwwz.s:3777   .text:0000141c remove_chain
/var/folders/wz/wzM13vx1HuGiQAygYPOM9k+++TI/-Tmp-//ccNkkwwz.s:3946   .text:00001512 create_chain
/var/folders/wz/wzM13vx1HuGiQAygYPOM9k+++TI/-Tmp-//ccNkkwwz.s:4267   .text:000016f8 clust2sect
/var/folders/wz/wzM13vx1HuGiQAygYPOM9k+++TI/-Tmp-//ccNkkwwz.s:4347   .text:00001772 dir_seek
/var/folders/wz/wzM13vx1HuGiQAygYPOM9k+++TI/-Tmp-//ccNkkwwz.s:4667   .text:0000196a dir_next
/var/folders/wz/wzM13vx1HuGiQAygYPOM9k+++TI/-Tmp-//ccNkkwwz.s:5148   .text:00001c64 dir_read
/var/folders/wz/wzM13vx1HuGiQAygYPOM9k+++TI/-Tmp-//ccNkkwwz.s:5244   .text:00001ccc dir_register
/var/folders/wz/wzM13vx1HuGiQAygYPOM9k+++TI/-Tmp-//ccNkkwwz.s:5395   .text:00001d7a dir_remove
/var/folders/wz/wzM13vx1HuGiQAygYPOM9k+++TI/-Tmp-//ccNkkwwz.s:5454   .text:00001dbc get_fileinfo
/var/folders/wz/wzM13vx1HuGiQAygYPOM9k+++TI/-Tmp-//ccNkkwwz.s:5653   .text:00001ed4 follow_path
/var/folders/wz/wzM13vx1HuGiQAygYPOM9k+++TI/-Tmp-//ccNkkwwz.s:6190   .text:00002180 check_fs
/var/folders/wz/wzM13vx1HuGiQAygYPOM9k+++TI/-Tmp-//ccNkkwwz.s:6344   .text:00002286 chk_mounted
/var/folders/wz/wzM13vx1HuGiQAygYPOM9k+++TI/-Tmp-//ccNkkwwz.s:24853  .bss:00000067 FatFs
/var/folders/wz/wzM13vx1HuGiQAygYPOM9k+++TI/-Tmp-//ccNkkwwz.s:24854  .bss:00000069 Fsid
/var/folders/wz/wzM13vx1HuGiQAygYPOM9k+++TI/-Tmp-//ccNkkwwz.s:7204   .text:0000283c validate
/var/folders/wz/wzM13vx1HuGiQAygYPOM9k+++TI/-Tmp-//ccNkkwwz.s:7254   .text:00002870 f_mount
/var/folders/wz/wzM13vx1HuGiQAygYPOM9k+++TI/-Tmp-//ccNkkwwz.s:7297   .text:0000289a f_open
/var/folders/wz/wzM13vx1HuGiQAygYPOM9k+++TI/-Tmp-//ccNkkwwz.s:7772   .text:00002b7a f_read
/var/folders/wz/wzM13vx1HuGiQAygYPOM9k+++TI/-Tmp-//ccNkkwwz.s:8439   .text:00002f66 f_write
/var/folders/wz/wzM13vx1HuGiQAygYPOM9k+++TI/-Tmp-//ccNkkwwz.s:9204   .text:000033ee f_sync
/var/folders/wz/wzM13vx1HuGiQAygYPOM9k+++TI/-Tmp-//ccNkkwwz.s:9369   .text:000034de f_close
/var/folders/wz/wzM13vx1HuGiQAygYPOM9k+++TI/-Tmp-//ccNkkwwz.s:9399   .text:000034f6 f_lseek
/var/folders/wz/wzM13vx1HuGiQAygYPOM9k+++TI/-Tmp-//ccNkkwwz.s:10095  .text:00003952 f_opendir
/var/folders/wz/wzM13vx1HuGiQAygYPOM9k+++TI/-Tmp-//ccNkkwwz.s:10235  .text:00003a18 f_readdir
/var/folders/wz/wzM13vx1HuGiQAygYPOM9k+++TI/-Tmp-//ccNkkwwz.s:10344  .text:00003aae f_stat
/var/folders/wz/wzM13vx1HuGiQAygYPOM9k+++TI/-Tmp-//ccNkkwwz.s:10435  .text:00003b2c f_getfree
/var/folders/wz/wzM13vx1HuGiQAygYPOM9k+++TI/-Tmp-//ccNkkwwz.s:10816  .text:00003d78 f_truncate
/var/folders/wz/wzM13vx1HuGiQAygYPOM9k+++TI/-Tmp-//ccNkkwwz.s:11007  .text:00003e92 f_unlink
/var/folders/wz/wzM13vx1HuGiQAygYPOM9k+++TI/-Tmp-//ccNkkwwz.s:11228  .text:00003fc6 f_mkdir
/var/folders/wz/wzM13vx1HuGiQAygYPOM9k+++TI/-Tmp-//ccNkkwwz.s:11744  .text:000042b8 f_chmod
/var/folders/wz/wzM13vx1HuGiQAygYPOM9k+++TI/-Tmp-//ccNkkwwz.s:11849  .text:00004342 f_utime
/var/folders/wz/wzM13vx1HuGiQAygYPOM9k+++TI/-Tmp-//ccNkkwwz.s:11959  .text:000043dc f_rename
/var/folders/wz/wzM13vx1HuGiQAygYPOM9k+++TI/-Tmp-//ccNkkwwz.s:12370  .text:0000462a f_gets
/var/folders/wz/wzM13vx1HuGiQAygYPOM9k+++TI/-Tmp-//ccNkkwwz.s:12485  .text:000046c6 f_putc
/var/folders/wz/wzM13vx1HuGiQAygYPOM9k+++TI/-Tmp-//ccNkkwwz.s:12546  .text:00004712 f_puts
/var/folders/wz/wzM13vx1HuGiQAygYPOM9k+++TI/-Tmp-//ccNkkwwz.s:12606  .text:0000475a SD_Close
                            *COM*:00000220 Log_File
/var/folders/wz/wzM13vx1HuGiQAygYPOM9k+++TI/-Tmp-//ccNkkwwz.s:12622  .text:00004764 SD_Inserted
/var/folders/wz/wzM13vx1HuGiQAygYPOM9k+++TI/-Tmp-//ccNkkwwz.s:12641  .text:00004772 SD_WriteBuffer
                            *COM*:00000004 CRC
/var/folders/wz/wzM13vx1HuGiQAygYPOM9k+++TI/-Tmp-//ccNkkwwz.s:12779  .text:00004872 SD_Write32
                            *COM*:00000004 tmp32
/var/folders/wz/wzM13vx1HuGiQAygYPOM9k+++TI/-Tmp-//ccNkkwwz.s:12818  .text:000048a6 SD_Write16
                            *COM*:00000002 tmp16
/var/folders/wz/wzM13vx1HuGiQAygYPOM9k+++TI/-Tmp-//ccNkkwwz.s:12844  .text:000048bc SD_Write8
                            *COM*:00000001 tmp8
/var/folders/wz/wzM13vx1HuGiQAygYPOM9k+++TI/-Tmp-//ccNkkwwz.s:12866  .text:000048ce SD_ClearCRC
/var/folders/wz/wzM13vx1HuGiQAygYPOM9k+++TI/-Tmp-//ccNkkwwz.s:12887  .text:000048e8 SD_WriteCRC
/var/folders/wz/wzM13vx1HuGiQAygYPOM9k+++TI/-Tmp-//ccNkkwwz.s:12909  .text:00004906 SD_Timer_Init
/var/folders/wz/wzM13vx1HuGiQAygYPOM9k+++TI/-Tmp-//ccNkkwwz.s:12938  .text:00004924 SD_Init
/var/folders/wz/wzM13vx1HuGiQAygYPOM9k+++TI/-Tmp-//ccNkkwwz.s:24855  .bss:0000006b file_system_object
/var/folders/wz/wzM13vx1HuGiQAygYPOM9k+++TI/-Tmp-//ccNkkwwz.s:12965  .text:00004942 __vector_47
/var/folders/wz/wzM13vx1HuGiQAygYPOM9k+++TI/-Tmp-//ccNkkwwz.s:13016  .text:00004992 CCPWrite
/var/folders/wz/wzM13vx1HuGiQAygYPOM9k+++TI/-Tmp-//ccNkkwwz.s:13065  .text:000049bc display_sendCommand
/var/folders/wz/wzM13vx1HuGiQAygYPOM9k+++TI/-Tmp-//ccNkkwwz.s:13093  .text:000049d4 display_sendData
/var/folders/wz/wzM13vx1HuGiQAygYPOM9k+++TI/-Tmp-//ccNkkwwz.s:13121  .text:000049ec display_setCursor
/var/folders/wz/wzM13vx1HuGiQAygYPOM9k+++TI/-Tmp-//ccNkkwwz.s:13199  .text:00004a3c display_writeBufferToScreen
                            *COM*:00000330 displayBuffer
/var/folders/wz/wzM13vx1HuGiQAygYPOM9k+++TI/-Tmp-//ccNkkwwz.s:13298  .text:00004ac4 display_clearPage
/var/folders/wz/wzM13vx1HuGiQAygYPOM9k+++TI/-Tmp-//ccNkkwwz.s:13339  .text:00004af6 display_clearBuffer
/var/folders/wz/wzM13vx1HuGiQAygYPOM9k+++TI/-Tmp-//ccNkkwwz.s:13387  .text:00004b34 display_init
/var/folders/wz/wzM13vx1HuGiQAygYPOM9k+++TI/-Tmp-//ccNkkwwz.s:13792  .text:00004cf2 display_putString
/var/folders/wz/wzM13vx1HuGiQAygYPOM9k+++TI/-Tmp-//ccNkkwwz.s:14107  .text:00004eba display_drawPixel
/var/folders/wz/wzM13vx1HuGiQAygYPOM9k+++TI/-Tmp-//ccNkkwwz.s:14191  .text:00004f3a swap
/var/folders/wz/wzM13vx1HuGiQAygYPOM9k+++TI/-Tmp-//ccNkkwwz.s:14215  .text:00004f48 display_drawLine
/var/folders/wz/wzM13vx1HuGiQAygYPOM9k+++TI/-Tmp-//ccNkkwwz.s:14365  .text:00004fe2 display_drawRectangle
/var/folders/wz/wzM13vx1HuGiQAygYPOM9k+++TI/-Tmp-//ccNkkwwz.s:14597  .text:0000511e Time_Init
/var/folders/wz/wzM13vx1HuGiQAygYPOM9k+++TI/-Tmp-//ccNkkwwz.s:14644  .text:0000515c Time_Set
/var/folders/wz/wzM13vx1HuGiQAygYPOM9k+++TI/-Tmp-//ccNkkwwz.s:24037  .bss:00000047 UNIX_time
/var/folders/wz/wzM13vx1HuGiQAygYPOM9k+++TI/-Tmp-//ccNkkwwz.s:14662  .text:0000516e Time_Get32BitTimer
/var/folders/wz/wzM13vx1HuGiQAygYPOM9k+++TI/-Tmp-//ccNkkwwz.s:14726  .text:000051be __vector_77
/var/folders/wz/wzM13vx1HuGiQAygYPOM9k+++TI/-Tmp-//ccNkkwwz.s:14767  .text:00005208 Sensors_Init
/var/folders/wz/wzM13vx1HuGiQAygYPOM9k+++TI/-Tmp-//ccNkkwwz.s:14869  .text:00005290 Sensors_ReadTemperature
/var/folders/wz/wzM13vx1HuGiQAygYPOM9k+++TI/-Tmp-//ccNkkwwz.s:14908  .text:000052c0 Sensors_ReadHumidity
/var/folders/wz/wzM13vx1HuGiQAygYPOM9k+++TI/-Tmp-//ccNkkwwz.s:14947  .text:000052f0 Sensors_ReadMicrophone
/var/folders/wz/wzM13vx1HuGiQAygYPOM9k+++TI/-Tmp-//ccNkkwwz.s:14969  .text:00005304 Sensors_ReadPressure
/var/folders/wz/wzM13vx1HuGiQAygYPOM9k+++TI/-Tmp-//ccNkkwwz.s:15008  .text:00005334 Sensors_ResetTemperatureBuffers
/var/folders/wz/wzM13vx1HuGiQAygYPOM9k+++TI/-Tmp-//ccNkkwwz.s:24148  .bss:00000050 temperatureBufferCounter
/var/folders/wz/wzM13vx1HuGiQAygYPOM9k+++TI/-Tmp-//ccNkkwwz.s:24141  .data:000006ef temperatureBufferToWriteTo
/var/folders/wz/wzM13vx1HuGiQAygYPOM9k+++TI/-Tmp-//ccNkkwwz.s:24129  .bss:0000004e okToSendTemperatureBuffer1
/var/folders/wz/wzM13vx1HuGiQAygYPOM9k+++TI/-Tmp-//ccNkkwwz.s:24135  .bss:0000004f okToSendTemperatureBuffer2
/var/folders/wz/wzM13vx1HuGiQAygYPOM9k+++TI/-Tmp-//ccNkkwwz.s:15029  .text:00005348 Sensors_ResetPressureBuffers
/var/folders/wz/wzM13vx1HuGiQAygYPOM9k+++TI/-Tmp-//ccNkkwwz.s:24173  .bss:00000053 pressureBufferCounter
/var/folders/wz/wzM13vx1HuGiQAygYPOM9k+++TI/-Tmp-//ccNkkwwz.s:24166  .data:000006f0 pressureBufferToWriteTo
/var/folders/wz/wzM13vx1HuGiQAygYPOM9k+++TI/-Tmp-//ccNkkwwz.s:24154  .bss:00000051 okToSendPressureBuffer1
/var/folders/wz/wzM13vx1HuGiQAygYPOM9k+++TI/-Tmp-//ccNkkwwz.s:24160  .bss:00000052 okToSendPressureBuffer2
/var/folders/wz/wzM13vx1HuGiQAygYPOM9k+++TI/-Tmp-//ccNkkwwz.s:15050  .text:0000535c Sensors_ResetHumidityBuffers
/var/folders/wz/wzM13vx1HuGiQAygYPOM9k+++TI/-Tmp-//ccNkkwwz.s:24198  .bss:00000056 humidityBufferCounter
/var/folders/wz/wzM13vx1HuGiQAygYPOM9k+++TI/-Tmp-//ccNkkwwz.s:24191  .data:000006f1 humidityBufferToWriteTo
/var/folders/wz/wzM13vx1HuGiQAygYPOM9k+++TI/-Tmp-//ccNkkwwz.s:24179  .bss:00000054 okToSendHumidityBuffer1
/var/folders/wz/wzM13vx1HuGiQAygYPOM9k+++TI/-Tmp-//ccNkkwwz.s:24185  .bss:00000055 okToSendHumidityBuffer2
/var/folders/wz/wzM13vx1HuGiQAygYPOM9k+++TI/-Tmp-//ccNkkwwz.s:15071  .text:00005370 Sensors_ResetMicrophoneBuffers
/var/folders/wz/wzM13vx1HuGiQAygYPOM9k+++TI/-Tmp-//ccNkkwwz.s:24223  .bss:00000059 microphoneBufferCounter
/var/folders/wz/wzM13vx1HuGiQAygYPOM9k+++TI/-Tmp-//ccNkkwwz.s:24216  .data:000006f2 microphoneBufferToWriteTo
/var/folders/wz/wzM13vx1HuGiQAygYPOM9k+++TI/-Tmp-//ccNkkwwz.s:24204  .bss:00000057 okToSendMicrophoneBuffer1
/var/folders/wz/wzM13vx1HuGiQAygYPOM9k+++TI/-Tmp-//ccNkkwwz.s:24210  .bss:00000058 okToSendMicrophoneBuffer2
/var/folders/wz/wzM13vx1HuGiQAygYPOM9k+++TI/-Tmp-//ccNkkwwz.s:15093  .text:00005388 Sensors_ResetLightBuffers
/var/folders/wz/wzM13vx1HuGiQAygYPOM9k+++TI/-Tmp-//ccNkkwwz.s:24248  .bss:0000005d lightBufferCounter
/var/folders/wz/wzM13vx1HuGiQAygYPOM9k+++TI/-Tmp-//ccNkkwwz.s:24241  .data:000006f3 lightBufferToWriteTo
/var/folders/wz/wzM13vx1HuGiQAygYPOM9k+++TI/-Tmp-//ccNkkwwz.s:24229  .bss:0000005b okToSendLightBuffer1
/var/folders/wz/wzM13vx1HuGiQAygYPOM9k+++TI/-Tmp-//ccNkkwwz.s:24235  .bss:0000005c okToSendLightBuffer2
/var/folders/wz/wzM13vx1HuGiQAygYPOM9k+++TI/-Tmp-//ccNkkwwz.s:15114  .text:0000539c __vector_108
/var/folders/wz/wzM13vx1HuGiQAygYPOM9k+++TI/-Tmp-//ccNkkwwz.s:24117  .bss:0000004c recording
/var/folders/wz/wzM13vx1HuGiQAygYPOM9k+++TI/-Tmp-//ccNkkwwz.s:24281  .data:000006f7 wantToRecordMicrophone
/var/folders/wz/wzM13vx1HuGiQAygYPOM9k+++TI/-Tmp-//ccNkkwwz.s:23917  .bss:00000018 microphoneSampleStartTime1
                            *COM*:000003e8 microphoneBuffer1
/var/folders/wz/wzM13vx1HuGiQAygYPOM9k+++TI/-Tmp-//ccNkkwwz.s:23923  .bss:0000001c microphoneSampleStartTime2
                            *COM*:000003e8 microphoneBuffer2
/var/folders/wz/wzM13vx1HuGiQAygYPOM9k+++TI/-Tmp-//ccNkkwwz.s:15263  .text:000054d0 Light_readByte
                            *COM*:00000001 deviceAddress
                            *COM*:00000001 commandCode
                            *COM*:00000001 writeAddress
/var/folders/wz/wzM13vx1HuGiQAygYPOM9k+++TI/-Tmp-//ccNkkwwz.s:15325  .text:00005520 Light_readColors
                            *COM*:00000008 colors8
                            *COM*:00000008 colors
/var/folders/wz/wzM13vx1HuGiQAygYPOM9k+++TI/-Tmp-//ccNkkwwz.s:15444  .text:000055ee Light_returnColor
/var/folders/wz/wzM13vx1HuGiQAygYPOM9k+++TI/-Tmp-//ccNkkwwz.s:15467  .text:00005600 Light_writeByte
/var/folders/wz/wzM13vx1HuGiQAygYPOM9k+++TI/-Tmp-//ccNkkwwz.s:15521  .text:00005646 Light_setGain
/var/folders/wz/wzM13vx1HuGiQAygYPOM9k+++TI/-Tmp-//ccNkkwwz.s:24043  .bss:0000004b gainSelector
/var/folders/wz/wzM13vx1HuGiQAygYPOM9k+++TI/-Tmp-//ccNkkwwz.s:24049  .data:000006b9 integrationTime
/var/folders/wz/wzM13vx1HuGiQAygYPOM9k+++TI/-Tmp-//ccNkkwwz.s:24062  .data:000006c2 gainSetting
/var/folders/wz/wzM13vx1HuGiQAygYPOM9k+++TI/-Tmp-//ccNkkwwz.s:15559  .text:00005680 Light_Init
/var/folders/wz/wzM13vx1HuGiQAygYPOM9k+++TI/-Tmp-//ccNkkwwz.s:15593  .text:000056a2 __vector_83
/var/folders/wz/wzM13vx1HuGiQAygYPOM9k+++TI/-Tmp-//ccNkkwwz.s:24260  .bss:0000005f rtcBlockCounter
/var/folders/wz/wzM13vx1HuGiQAygYPOM9k+++TI/-Tmp-//ccNkkwwz.s:24254  .bss:0000005e okToSendRTCBlock
/var/folders/wz/wzM13vx1HuGiQAygYPOM9k+++TI/-Tmp-//ccNkkwwz.s:24266  .data:000006f4 wantToRecordTemperature
/var/folders/wz/wzM13vx1HuGiQAygYPOM9k+++TI/-Tmp-//ccNkkwwz.s:23881  .bss:00000000 temperatureSampleStartTime1
                            *COM*:00000014 temperatureBuffer1
/var/folders/wz/wzM13vx1HuGiQAygYPOM9k+++TI/-Tmp-//ccNkkwwz.s:23887  .bss:00000004 temperatureSampleStartTime2
                            *COM*:00000014 temperatureBuffer2
/var/folders/wz/wzM13vx1HuGiQAygYPOM9k+++TI/-Tmp-//ccNkkwwz.s:24276  .data:000006f6 wantToRecordHumidity
/var/folders/wz/wzM13vx1HuGiQAygYPOM9k+++TI/-Tmp-//ccNkkwwz.s:23893  .bss:00000008 humiditySampleStartTime1
                            *COM*:0000000a humidityBuffer1
/var/folders/wz/wzM13vx1HuGiQAygYPOM9k+++TI/-Tmp-//ccNkkwwz.s:23899  .bss:0000000c humiditySampleStartTime2
                            *COM*:0000000a humidityBuffer2
/var/folders/wz/wzM13vx1HuGiQAygYPOM9k+++TI/-Tmp-//ccNkkwwz.s:24271  .data:000006f5 wantToRecordPressure
/var/folders/wz/wzM13vx1HuGiQAygYPOM9k+++TI/-Tmp-//ccNkkwwz.s:23905  .bss:00000010 pressureSampleStartTime1
                            *COM*:0000000a pressureBuffer1
/var/folders/wz/wzM13vx1HuGiQAygYPOM9k+++TI/-Tmp-//ccNkkwwz.s:23911  .bss:00000014 pressureSampleStartTime2
                            *COM*:0000000a pressureBuffer2
/var/folders/wz/wzM13vx1HuGiQAygYPOM9k+++TI/-Tmp-//ccNkkwwz.s:24286  .data:000006f8 wantToRecordLight
/var/folders/wz/wzM13vx1HuGiQAygYPOM9k+++TI/-Tmp-//ccNkkwwz.s:24075  .data:000006cb resultMultiplier
                            *COM*:00000010 result
/var/folders/wz/wzM13vx1HuGiQAygYPOM9k+++TI/-Tmp-//ccNkkwwz.s:23929  .bss:00000020 lightSampleStartTime1
                            *COM*:000000a0 lightBuffer1
/var/folders/wz/wzM13vx1HuGiQAygYPOM9k+++TI/-Tmp-//ccNkkwwz.s:23935  .bss:00000024 lightSampleStartTime2
                            *COM*:000000a0 lightBuffer2
/var/folders/wz/wzM13vx1HuGiQAygYPOM9k+++TI/-Tmp-//ccNkkwwz.s:16265  .text:00005bec RTC_UTCSecsToTime
/var/folders/wz/wzM13vx1HuGiQAygYPOM9k+++TI/-Tmp-//ccNkkwwz.s:24834  .data:000009a8 monthDays
/var/folders/wz/wzM13vx1HuGiQAygYPOM9k+++TI/-Tmp-//ccNkkwwz.s:16583  .text:00005df2 RTC_TimeToUTCSecs
/var/folders/wz/wzM13vx1HuGiQAygYPOM9k+++TI/-Tmp-//ccNkkwwz.s:16831  .text:00005fa4 RTC_sendBytes
/var/folders/wz/wzM13vx1HuGiQAygYPOM9k+++TI/-Tmp-//ccNkkwwz.s:16880  .text:00005fd8 RTC_setTime
                            *COM*:00000008 time
/var/folders/wz/wzM13vx1HuGiQAygYPOM9k+++TI/-Tmp-//ccNkkwwz.s:17032  .text:00006108 RTC_setUTCSecs
/var/folders/wz/wzM13vx1HuGiQAygYPOM9k+++TI/-Tmp-//ccNkkwwz.s:17052  .text:00006116 RTC_init
/var/folders/wz/wzM13vx1HuGiQAygYPOM9k+++TI/-Tmp-//ccNkkwwz.s:17109  .text:00006162 RTC_receiveBytes
/var/folders/wz/wzM13vx1HuGiQAygYPOM9k+++TI/-Tmp-//ccNkkwwz.s:17165  .text:0000619c RTC_getTime
/var/folders/wz/wzM13vx1HuGiQAygYPOM9k+++TI/-Tmp-//ccNkkwwz.s:17390  .text:00006344 RTC_getUTCSecs
/var/folders/wz/wzM13vx1HuGiQAygYPOM9k+++TI/-Tmp-//ccNkkwwz.s:17408  .text:00006352 Clock_Init
/var/folders/wz/wzM13vx1HuGiQAygYPOM9k+++TI/-Tmp-//ccNkkwwz.s:17483  .text:000063ac Disable_JTAG
/var/folders/wz/wzM13vx1HuGiQAygYPOM9k+++TI/-Tmp-//ccNkkwwz.s:17537  .text:000063dc DMA_Init
/var/folders/wz/wzM13vx1HuGiQAygYPOM9k+++TI/-Tmp-//ccNkkwwz.s:17589  .text:00006416 Interrupt_Init
/var/folders/wz/wzM13vx1HuGiQAygYPOM9k+++TI/-Tmp-//ccNkkwwz.s:17613  .text:00006424 SD_BackroundWriter_Init
/var/folders/wz/wzM13vx1HuGiQAygYPOM9k+++TI/-Tmp-//ccNkkwwz.s:17642  .text:00006442 SD_WriteRTCBlock
/var/folders/wz/wzM13vx1HuGiQAygYPOM9k+++TI/-Tmp-//ccNkkwwz.s:17731  .text:000064d2 Rs232_To_Debug
/var/folders/wz/wzM13vx1HuGiQAygYPOM9k+++TI/-Tmp-//ccNkkwwz.s:17772  .text:00006502 Debug_To_Wifi
/var/folders/wz/wzM13vx1HuGiQAygYPOM9k+++TI/-Tmp-//ccNkkwwz.s:17837  .text:0000654e SD_MakeFileName
                            *COM*:00000014 fileName
/var/folders/wz/wzM13vx1HuGiQAygYPOM9k+++TI/-Tmp-//ccNkkwwz.s:17872  .text:0000657a SD_WriteString
/var/folders/wz/wzM13vx1HuGiQAygYPOM9k+++TI/-Tmp-//ccNkkwwz.s:18003  .text:00006660 SD_WriteAirSample
/var/folders/wz/wzM13vx1HuGiQAygYPOM9k+++TI/-Tmp-//ccNkkwwz.s:23941  .bss:00000028 airSampleTime
                            *COM*:00000004 smallCount
                            *COM*:00000004 largeCount
/var/folders/wz/wzM13vx1HuGiQAygYPOM9k+++TI/-Tmp-//ccNkkwwz.s:18125  .text:00006740 SD_WriteLightBuffer
/var/folders/wz/wzM13vx1HuGiQAygYPOM9k+++TI/-Tmp-//ccNkkwwz.s:18314  .text:00006882 SD_WriteMicrophoneBuffer
/var/folders/wz/wzM13vx1HuGiQAygYPOM9k+++TI/-Tmp-//ccNkkwwz.s:18432  .text:00006948 SD_WritePressureBuffer
/var/folders/wz/wzM13vx1HuGiQAygYPOM9k+++TI/-Tmp-//ccNkkwwz.s:18571  .text:00006a2a SD_WriteHumidityBuffer
/var/folders/wz/wzM13vx1HuGiQAygYPOM9k+++TI/-Tmp-//ccNkkwwz.s:18712  .text:00006b0c SD_WriteTemperatureBuffer
/var/folders/wz/wzM13vx1HuGiQAygYPOM9k+++TI/-Tmp-//ccNkkwwz.s:18849  .text:00006bf2 Rs232_SendString
/var/folders/wz/wzM13vx1HuGiQAygYPOM9k+++TI/-Tmp-//ccNkkwwz.s:18931  .text:00006c46 Wifi_SendString
/var/folders/wz/wzM13vx1HuGiQAygYPOM9k+++TI/-Tmp-//ccNkkwwz.s:19019  .text:00006c9a Wifi_EnterCMDMode
/var/folders/wz/wzM13vx1HuGiQAygYPOM9k+++TI/-Tmp-//ccNkkwwz.s:19178  .text:00006d60 Debug_SendString
/var/folders/wz/wzM13vx1HuGiQAygYPOM9k+++TI/-Tmp-//ccNkkwwz.s:19284  .text:00006db4 __vector_53
/var/folders/wz/wzM13vx1HuGiQAygYPOM9k+++TI/-Tmp-//ccNkkwwz.s:24025  .bss:00000045 okToSendAirQuality
                            *COM*:00000032 temp
/var/folders/wz/wzM13vx1HuGiQAygYPOM9k+++TI/-Tmp-//ccNkkwwz.s:19544  .text:00006fa0 SD_Open
/var/folders/wz/wzM13vx1HuGiQAygYPOM9k+++TI/-Tmp-//ccNkkwwz.s:19593  .text:00006fca Read_config_file
/var/folders/wz/wzM13vx1HuGiQAygYPOM9k+++TI/-Tmp-//ccNkkwwz.s:24314  .data:00000790 ssid
/var/folders/wz/wzM13vx1HuGiQAygYPOM9k+++TI/-Tmp-//ccNkkwwz.s:24340  .bss:00000063 ssidRead
/var/folders/wz/wzM13vx1HuGiQAygYPOM9k+++TI/-Tmp-//ccNkkwwz.s:24302  .data:0000072c phrase
/var/folders/wz/wzM13vx1HuGiQAygYPOM9k+++TI/-Tmp-//ccNkkwwz.s:24328  .bss:00000061 phraseRead
/var/folders/wz/wzM13vx1HuGiQAygYPOM9k+++TI/-Tmp-//ccNkkwwz.s:24308  .data:0000075e port
/var/folders/wz/wzM13vx1HuGiQAygYPOM9k+++TI/-Tmp-//ccNkkwwz.s:24334  .bss:00000062 portRead
/var/folders/wz/wzM13vx1HuGiQAygYPOM9k+++TI/-Tmp-//ccNkkwwz.s:24296  .data:000006fa auth
/var/folders/wz/wzM13vx1HuGiQAygYPOM9k+++TI/-Tmp-//ccNkkwwz.s:24322  .bss:00000060 authRead
/var/folders/wz/wzM13vx1HuGiQAygYPOM9k+++TI/-Tmp-//ccNkkwwz.s:19896  .text:00007122 SD_StartLogFile
                            *COM*:00000014 macAddr
/var/folders/wz/wzM13vx1HuGiQAygYPOM9k+++TI/-Tmp-//ccNkkwwz.s:20112  .text:0000729e Wifi_SendCommand
/var/folders/wz/wzM13vx1HuGiQAygYPOM9k+++TI/-Tmp-//ccNkkwwz.s:23971  .bss:00000034 respLen
/var/folders/wz/wzM13vx1HuGiQAygYPOM9k+++TI/-Tmp-//ccNkkwwz.s:23977  .bss:00000035 toSendLen
/var/folders/wz/wzM13vx1HuGiQAygYPOM9k+++TI/-Tmp-//ccNkkwwz.s:23983  .bss:00000036 okLen
                            *COM*:00000032 resp
/var/folders/wz/wzM13vx1HuGiQAygYPOM9k+++TI/-Tmp-//ccNkkwwz.s:20444  .text:0000747a Wifi_GetMac
/var/folders/wz/wzM13vx1HuGiQAygYPOM9k+++TI/-Tmp-//ccNkkwwz.s:20577  .text:00007502 Wifi_Connected
                            *COM*:00000003 connectionStatus
/var/folders/wz/wzM13vx1HuGiQAygYPOM9k+++TI/-Tmp-//ccNkkwwz.s:24007  .bss:00000040 connected
/var/folders/wz/wzM13vx1HuGiQAygYPOM9k+++TI/-Tmp-//ccNkkwwz.s:20711  .text:00007592 Wifi_ExitCMDMode
/var/folders/wz/wzM13vx1HuGiQAygYPOM9k+++TI/-Tmp-//ccNkkwwz.s:20734  .text:000075a4 f_printf
/var/folders/wz/wzM13vx1HuGiQAygYPOM9k+++TI/-Tmp-//ccNkkwwz.s:21222  .text:00007856 __vector_88
/var/folders/wz/wzM13vx1HuGiQAygYPOM9k+++TI/-Tmp-//ccNkkwwz.s:24031  .bss:00000046 rs232Recording
                            *COM*:00000032 airQualityString
/var/folders/wz/wzM13vx1HuGiQAygYPOM9k+++TI/-Tmp-//ccNkkwwz.s:21399  .text:00007998 Wifi_GetTime
                            *COM*:00000032 string
                            *COM*:0000000f timeString
                            *COM*:0000000a timeUpper
                            *COM*:0000000a timeLower
/var/folders/wz/wzM13vx1HuGiQAygYPOM9k+++TI/-Tmp-//ccNkkwwz.s:23995  .bss:00000038 time_secs
/var/folders/wz/wzM13vx1HuGiQAygYPOM9k+++TI/-Tmp-//ccNkkwwz.s:21683  .text:00007aea Config_Wifi
/var/folders/wz/wzM13vx1HuGiQAygYPOM9k+++TI/-Tmp-//ccNkkwwz.s:24345  .data:000007c2 System5x7
/var/folders/wz/wzM13vx1HuGiQAygYPOM9k+++TI/-Tmp-//ccNkkwwz.s:22552  .text:00007e86 main
/var/folders/wz/wzM13vx1HuGiQAygYPOM9k+++TI/-Tmp-//ccNkkwwz.s:23989  .bss:00000037 timeLength
/var/folders/wz/wzM13vx1HuGiQAygYPOM9k+++TI/-Tmp-//ccNkkwwz.s:24001  .bss:0000003c time_nanos
/var/folders/wz/wzM13vx1HuGiQAygYPOM9k+++TI/-Tmp-//ccNkkwwz.s:24123  .bss:0000004d requestToStopRecording
/var/folders/wz/wzM13vx1HuGiQAygYPOM9k+++TI/-Tmp-//ccNkkwwz.s:24291  .data:000006f9 wantToRecordAirQuality
                            *COM*:00000014 ip
                            *COM*:00000014 tmpArray
                            *COM*:00000096 debugMsg

UNDEFINED SYMBOLS
__mulsi3
__udivmodsi4
__divmodhi4
__udivmodqi4
ltoa
strcat
strstr
strtok
atol
sprintf
__do_copy_data
__do_clear_bss
