   1               		.file	"mainChestStrap.c"
   2               	__SREG__ = 0x3f
   3               	__SP_H__ = 0x3e
   4               	__SP_L__ = 0x3d
   5               	__CCP__  = 0x34
   6               	__tmp_reg__ = 0
   7               	__zero_reg__ = 1
  15               	.Ltext0:
  16               	.global	CCPWrite
  18               	CCPWrite:
  19               	.LFB7:
  20               	.LM1:
  21               	.LVL0:
  22 0000 0F93      		push r16
  23 0002 DF93      		push r29
  24 0004 CF93      		push r28
  25 0006 0F92      		push __tmp_reg__
  26 0008 CDB7      		in r28,__SP_L__
  27 000a DEB7      		in r29,__SP_H__
  28               	/* prologue: function */
  29               	/* frame size = 1 */
  30               	.LM2:
  31 000c 2FB7      		in r18,__SREG__
  32               	.LVL1:
  33 000e 2983      		std Y+1,r18
  34               	.LM3:
  35               	/* #APP */
  36               	 ;  83 "mainChestStrap.h" 1
  37 0010 F894      		cli
  38               	 ;  0 "" 2
  39               	.LM4:
  40               	/* #NOAPP */
  41 0012 1BBE      		out 59-0,__zero_reg__
  42               	.LM5:
  43               	/* #APP */
  44               	 ;  105 "mainChestStrap.h" 1
  45 0014 FC01      		movw r30,  r24
  46 0016 08ED      		ldi  r16,  216
  47 0018 04BF      		out   52, r16
  48 001a 6083      		st     Z,  r22
  49               		
  50               	 ;  0 "" 2
  51               	.LM6:
  52               	/* #NOAPP */
  53 001c 8981      		ldd r24,Y+1
  54               	.LVL2:
  55 001e 8FBF      		out __SREG__,r24
  56               	/* epilogue start */
  57               	.LM7:
  58 0020 0F90      		pop __tmp_reg__
  59 0022 CF91      		pop r28
  60 0024 DF91      		pop r29
  61 0026 0F91      		pop r16
  62 0028 0895      		ret
  63               	.LFE7:
  65               	.global	Debug_CharReadyToRead
  67               	Debug_CharReadyToRead:
  68               	.LFB10:
  69               	.LM8:
  70               	/* prologue: function */
  71               	/* frame size = 0 */
  72               	.LM9:
  73 002a 2091 1D01 		lds r18,285
  74 002e 922F      		mov r25,r18
  75 0030 80E0      		ldi r24,lo8(0)
  76 0032 8093 0000 		sts Debug_writeLocation,r24
  77 0036 9093 0000 		sts (Debug_writeLocation)+1,r25
  78               	.LM10:
  79 003a 8091 0000 		lds r24,Debug_writeLocation
  80 003e 9091 0000 		lds r25,(Debug_writeLocation)+1
  81 0042 2091 1C01 		lds r18,284
  82 0046 820F      		add r24,r18
  83 0048 911D      		adc r25,__zero_reg__
  84 004a 8093 0000 		sts Debug_writeLocation,r24
  85 004e 9093 0000 		sts (Debug_writeLocation)+1,r25
  86               	.LM11:
  87 0052 8091 0000 		lds r24,Debug_writeLocation
  88 0056 9091 0000 		lds r25,(Debug_writeLocation)+1
  89 005a 8050      		subi r24,lo8(DebugBuffer)
  90 005c 9040      		sbci r25,hi8(DebugBuffer)
  91 005e 8093 0000 		sts Debug_writeLocation,r24
  92 0062 9093 0000 		sts (Debug_writeLocation)+1,r25
  93               	.LM12:
  94 0066 2091 0000 		lds r18,Debug_writeLocation
  95 006a 3091 0000 		lds r19,(Debug_writeLocation)+1
  96 006e 8091 0000 		lds r24,Debug_readLocation
  97 0072 9091 0000 		lds r25,(Debug_readLocation)+1
  98 0076 40E0      		ldi r20,lo8(0)
  99 0078 2817      		cp r18,r24
 100 007a 3907      		cpc r19,r25
 101 007c 01F0      		breq .L4
 102 007e 41E0      		ldi r20,lo8(1)
 103               	.L4:
 104               	.LM13:
 105 0080 842F      		mov r24,r20
 106               	/* epilogue start */
 107 0082 0895      		ret
 108               	.LFE10:
 110               	.global	Debug_ClearBuffer
 112               	Debug_ClearBuffer:
 113               	.LFB9:
 114               	.LM14:
 115               	/* prologue: function */
 116               	/* frame size = 0 */
 117               	.LM15:
 118 0084 0E94 0000 		call Debug_CharReadyToRead
 119 0088 8823      		tst r24
 120 008a 01F0      		breq .L8
 121               	.LM16:
 122 008c 2091 1D01 		lds r18,285
 123 0090 922F      		mov r25,r18
 124 0092 80E0      		ldi r24,lo8(0)
 125 0094 8093 0000 		sts Debug_writeLocation,r24
 126 0098 9093 0000 		sts (Debug_writeLocation)+1,r25
 127               	.LM17:
 128 009c 8091 0000 		lds r24,Debug_writeLocation
 129 00a0 9091 0000 		lds r25,(Debug_writeLocation)+1
 130 00a4 2091 1C01 		lds r18,284
 131 00a8 820F      		add r24,r18
 132 00aa 911D      		adc r25,__zero_reg__
 133 00ac 8093 0000 		sts Debug_writeLocation,r24
 134 00b0 9093 0000 		sts (Debug_writeLocation)+1,r25
 135               	.LM18:
 136 00b4 8091 0000 		lds r24,Debug_writeLocation
 137 00b8 9091 0000 		lds r25,(Debug_writeLocation)+1
 138 00bc 8050      		subi r24,lo8(DebugBuffer)
 139 00be 9040      		sbci r25,hi8(DebugBuffer)
 140 00c0 8093 0000 		sts Debug_writeLocation,r24
 141 00c4 9093 0000 		sts (Debug_writeLocation)+1,r25
 142               	.LM19:
 143 00c8 8091 0000 		lds r24,Debug_writeLocation
 144 00cc 9091 0000 		lds r25,(Debug_writeLocation)+1
 145 00d0 8093 0000 		sts Debug_readLocation,r24
 146 00d4 9093 0000 		sts (Debug_readLocation)+1,r25
 147               	.L8:
 148 00d8 0895      		ret
 149               	.LFE9:
 151               	.global	Debug_Init
 153               	Debug_Init:
 154               	.LFB8:
 155               	.LM20:
 156               	.LVL3:
 157               	/* prologue: function */
 158               	/* frame size = 0 */
 159 00da AB01      		movw r20,r22
 160 00dc BC01      		movw r22,r24
 161               	.LM21:
 162 00de E0E0      		ldi r30,lo8(256)
 163 00e0 F1E0      		ldi r31,hi8(256)
 164 00e2 8091 0001 		lds r24,256
 165 00e6 8068      		ori r24,lo8(-128)
 166 00e8 8093 0001 		sts 256,r24
 167               	.LM22:
 168 00ec 8091 1201 		lds r24,274
 169 00f0 8560      		ori r24,lo8(5)
 170 00f2 828B      		std Z+18,r24
 171               	.LM23:
 172 00f4 8BE4      		ldi r24,lo8(75)
 173 00f6 838B      		std Z+19,r24
 174               	.LM24:
 175 00f8 84E6      		ldi r24,lo8(100)
 176 00fa 90E0      		ldi r25,hi8(100)
 177 00fc 848B      		std Z+20,r24
 178 00fe 958B      		std Z+21,r25
 179               	.LM25:
 180 0100 168A      		std Z+22,__zero_reg__
 181               	.LM26:
 182 0102 80EA      		ldi r24,lo8(-96)
 183 0104 808F      		std Z+24,r24
 184               	.LM27:
 185 0106 28E0      		ldi r18,lo8(8)
 186 0108 218F      		std Z+25,r18
 187               	.LM28:
 188 010a 128E      		std Z+26,__zero_reg__
 189               	.LM29:
 190 010c 80E0      		ldi r24,lo8(DebugBuffer)
 191 010e 90E0      		ldi r25,hi8(DebugBuffer)
 192 0110 848F      		std Z+28,r24
 193               	.LM30:
 194 0112 958F      		std Z+29,r25
 195               	.LM31:
 196 0114 168E      		std Z+30,__zero_reg__
 197               	.LM32:
 198 0116 8091 1001 		lds r24,272
 199 011a 846A      		ori r24,lo8(-92)
 200 011c 808B      		std Z+16,r24
 201               	.LM33:
 202 011e E0E4      		ldi r30,lo8(1600)
 203 0120 F6E0      		ldi r31,hi8(1600)
 204 0122 2183      		std Z+1,r18
 205               	.LM34:
 206 0124 84E0      		ldi r24,lo8(4)
 207 0126 8283      		std Z+2,r24
 208               	.LM35:
 209 0128 91E0      		ldi r25,lo8(1)
 210 012a 9283      		std Z+2,r25
 211               	.LM36:
 212 012c 82E0      		ldi r24,lo8(2)
 213 012e 8183      		std Z+1,r24
 214               	.LM37:
 215 0130 8683      		std Z+6,r24
 216               	.LM38:
 217 0132 E0EA      		ldi r30,lo8(2208)
 218 0134 F8E0      		ldi r31,hi8(2208)
 219 0136 83E0      		ldi r24,lo8(3)
 220 0138 8583      		std Z+5,r24
 221               	.LM39:
 222 013a 4038      		cpi r20,lo8(9600)
 223 013c 25E2      		ldi r18,hi8(9600)
 224 013e 5207      		cpc r21,r18
 225 0140 20E0      		ldi r18,hlo8(9600)
 226 0142 6207      		cpc r22,r18
 227 0144 20E0      		ldi r18,hhi8(9600)
 228 0146 7207      		cpc r23,r18
 229 0148 01F4      		brne .L10
 230               	.LVL4:
 231               	.LM40:
 232 014a 8FE5      		ldi r24,lo8(95)
 233 014c 00C0      		rjmp .L17
 234               	.L10:
 235               	.LM41:
 236 014e 4030      		cpi r20,lo8(115200)
 237 0150 22EC      		ldi r18,hi8(115200)
 238 0152 5207      		cpc r21,r18
 239 0154 21E0      		ldi r18,hlo8(115200)
 240 0156 6207      		cpc r22,r18
 241 0158 20E0      		ldi r18,hhi8(115200)
 242 015a 7207      		cpc r23,r18
 243 015c 01F4      		brne .L12
 244               	.LM42:
 245 015e 87E0      		ldi r24,lo8(7)
 246               	.L17:
 247 0160 8683      		std Z+6,r24
 248 0162 00C0      		rjmp .L16
 249               	.L12:
 250               	.LM43:
 251 0164 4030      		cpi r20,lo8(230400)
 252 0166 24E8      		ldi r18,hi8(230400)
 253 0168 5207      		cpc r21,r18
 254 016a 23E0      		ldi r18,hlo8(230400)
 255 016c 6207      		cpc r22,r18
 256 016e 20E0      		ldi r18,hhi8(230400)
 257 0170 7207      		cpc r23,r18
 258 0172 01F0      		breq .L17
 259               	.L13:
 260               	.LM44:
 261 0174 4030      		cpi r20,lo8(460800)
 262 0176 88E0      		ldi r24,hi8(460800)
 263 0178 5807      		cpc r21,r24
 264 017a 87E0      		ldi r24,hlo8(460800)
 265 017c 6807      		cpc r22,r24
 266 017e 80E0      		ldi r24,hhi8(460800)
 267 0180 7807      		cpc r23,r24
 268 0182 01F4      		brne .L14
 269               	.LM45:
 270 0184 9683      		std Z+6,r25
 271 0186 00C0      		rjmp .L16
 272               	.L14:
 273               	.LM46:
 274 0188 4050      		subi r20,lo8(921600)
 275 018a 5041      		sbci r21,hi8(921600)
 276 018c 6E40      		sbci r22,hlo8(921600)
 277 018e 7040      		sbci r23,hhi8(921600)
 278 0190 01F4      		brne .L11
 279               	.LM47:
 280 0192 1682      		std Z+6,__zero_reg__
 281               	.L16:
 282               	.LM48:
 283 0194 1782      		std Z+7,__zero_reg__
 284               	.L11:
 285               	.LM49:
 286 0196 E0EA      		ldi r30,lo8(2208)
 287 0198 F8E0      		ldi r31,hi8(2208)
 288 019a 8091 A408 		lds r24,2212
 289 019e 8061      		ori r24,lo8(16)
 290 01a0 8483      		std Z+4,r24
 291               	.LM50:
 292 01a2 8091 A408 		lds r24,2212
 293 01a6 8860      		ori r24,lo8(8)
 294 01a8 8483      		std Z+4,r24
 295               	.LM51:
 296 01aa 0E94 0000 		call Debug_ClearBuffer
 297               	.LVL5:
 298               	/* epilogue start */
 299               	.LM52:
 300 01ae 0895      		ret
 301               	.LFE8:
 303               	.global	Debug_GetByte
 305               	Debug_GetByte:
 306               	.LFB11:
 307               	.LM53:
 308               	.LVL6:
 309               	/* prologue: function */
 310               	/* frame size = 0 */
 311               	.LM54:
 312 01b0 8823      		tst r24
 313 01b2 01F0      		breq .L19
 314               	.L23:
 315               	.LM55:
 316 01b4 0E94 0000 		call Debug_CharReadyToRead
 317               	.LVL7:
 318 01b8 8823      		tst r24
 319 01ba 01F0      		breq .L23
 320               	.LVL8:
 321               	.L19:
 322               	.LM56:
 323 01bc E091 0000 		lds r30,Debug_readLocation
 324 01c0 F091 0000 		lds r31,(Debug_readLocation)+1
 325 01c4 E050      		subi r30,lo8(-(DebugBuffer))
 326 01c6 F040      		sbci r31,hi8(-(DebugBuffer))
 327 01c8 E081      		ld r30,Z
 328               	.LVL9:
 329               	.LM57:
 330 01ca 8091 0000 		lds r24,Debug_readLocation
 331 01ce 9091 0000 		lds r25,(Debug_readLocation)+1
 332               	.LVL10:
 333 01d2 0196      		adiw r24,1
 334 01d4 8093 0000 		sts Debug_readLocation,r24
 335 01d8 9093 0000 		sts (Debug_readLocation)+1,r25
 336               	.LM58:
 337 01dc 8091 0000 		lds r24,Debug_readLocation
 338 01e0 9091 0000 		lds r25,(Debug_readLocation)+1
 339 01e4 8436      		cpi r24,100
 340 01e6 9105      		cpc r25,__zero_reg__
 341 01e8 00F0      		brlo .L21
 342               	.LM59:
 343 01ea 1092 0000 		sts Debug_readLocation,__zero_reg__
 344 01ee 1092 0000 		sts (Debug_readLocation)+1,__zero_reg__
 345               	.L21:
 346               	.LM60:
 347 01f2 8E2F      		mov r24,r30
 348               	/* epilogue start */
 349 01f4 0895      		ret
 350               	.LFE11:
 352               	.global	Debug_SendByte
 354               	Debug_SendByte:
 355               	.LFB12:
 356               	.LM61:
 357               	.LVL11:
 358               	/* prologue: function */
 359               	/* frame size = 0 */
 360 01f6 482F      		mov r20,r24
 361               	.LVL12:
 362               	.L26:
 363               	.LM62:
 364 01f8 8091 A108 		lds r24,2209
 365 01fc 85FF      		sbrs r24,5
 366 01fe 00C0      		rjmp .L26
 367 0200 00C0      		rjmp .L35
 368               	.L30:
 369               	.LM63:
 370 0202 8091 0000 		lds r24,Debug_timeOutCounter
 371 0206 9091 0000 		lds r25,(Debug_timeOutCounter)+1
 372 020a A091 0000 		lds r26,(Debug_timeOutCounter)+2
 373 020e B091 0000 		lds r27,(Debug_timeOutCounter)+3
 374 0212 0196      		adiw r24,1
 375 0214 A11D      		adc r26,__zero_reg__
 376 0216 B11D      		adc r27,__zero_reg__
 377 0218 8093 0000 		sts Debug_timeOutCounter,r24
 378 021c 9093 0000 		sts (Debug_timeOutCounter)+1,r25
 379 0220 A093 0000 		sts (Debug_timeOutCounter)+2,r26
 380 0224 B093 0000 		sts (Debug_timeOutCounter)+3,r27
 381               	.LM64:
 382 0228 8091 0000 		lds r24,Debug_timeOutCounter
 383 022c 9091 0000 		lds r25,(Debug_timeOutCounter)+1
 384 0230 A091 0000 		lds r26,(Debug_timeOutCounter)+2
 385 0234 B091 0000 		lds r27,(Debug_timeOutCounter)+3
 386 0238 8151      		subi r24,lo8(10001)
 387 023a 9742      		sbci r25,hi8(10001)
 388 023c A040      		sbci r26,hlo8(10001)
 389 023e B040      		sbci r27,hhi8(10001)
 390 0240 00F0      		brlo .L28
 391               	.LM65:
 392 0242 1092 0000 		sts Debug_timeOutCounter,__zero_reg__
 393 0246 1092 0000 		sts (Debug_timeOutCounter)+1,__zero_reg__
 394 024a 1092 0000 		sts (Debug_timeOutCounter)+2,__zero_reg__
 395 024e 1092 0000 		sts (Debug_timeOutCounter)+3,__zero_reg__
 396 0252 80E0      		ldi r24,lo8(0)
 397 0254 0895      		ret
 398               	.L28:
 399               	.LBB474:
 400               	.LBB475:
 401               	.LBB476:
 402               	.LBB477:
 403               	.LM66:
 404 0256 C901      		movw r24,r18
 405               	.LVL13:
 406               	/* #APP */
 407               	 ;  105 "/usr/local/CrossPack-AVR-20100115/lib/gcc/avr/4.3.3/../../../../avr/include/util/delay_bas
 408 0258 0197      		1: sbiw r24,1
 409 025a 01F4      		brne 1b
 410               	 ;  0 "" 2
 411               	/* #NOAPP */
 412 025c 00C0      		rjmp .L34
 413               	.LVL14:
 414               	.L35:
 415 025e 26E6      		ldi r18,lo8(3686)
 416 0260 3EE0      		ldi r19,hi8(3686)
 417               	.LVL15:
 418               	.L34:
 419               	.LBE477:
 420               	.LBE476:
 421               	.LBE475:
 422               	.LBE474:
 423               	.LM67:
 424 0262 8091 4806 		lds r24,1608
 425               	.LVL16:
 426 0266 80FD      		sbrc r24,0
 427 0268 00C0      		rjmp .L30
 428               	.LM68:
 429 026a 4093 A008 		sts 2208,r20
 430 026e 81E0      		ldi r24,lo8(1)
 431               	.LM69:
 432 0270 0895      		ret
 433               	.LFE12:
 435               	.global	Leds_Init
 437               	Leds_Init:
 438               	.LFB14:
 439               	.LM70:
 440               	.LVL17:
 441               	/* prologue: function */
 442               	/* frame size = 0 */
 443               	.LM71:
 444 0272 E82F      		mov r30,r24
 445 0274 F0E0      		ldi r31,lo8(0)
 446 0276 81E0      		ldi r24,lo8(1)
 447 0278 90E0      		ldi r25,hi8(1)
 448               	.LVL18:
 449 027a 0E2E      		mov r0,r30
 450 027c 00C0      		rjmp 2f
 451 027e 880F      	1:	lsl r24
 452 0280 991F      		rol r25
 453 0282 0A94      	2:	dec r0
 454 0284 02F4      		brpl 1b
 455 0286 A0EA      		ldi r26,lo8(1696)
 456 0288 B6E0      		ldi r27,hi8(1696)
 457 028a 1196      		adiw r26,1
 458 028c 8C93      		st X,r24
 459               	.LBB478:
 460               	.LBB479:
 461               	.LM72:
 462 028e E050      		subi r30,lo8(-(ledState))
 463 0290 F040      		sbci r31,hi8(-(ledState))
 464 0292 1082      		st Z,__zero_reg__
 465               	/* epilogue start */
 466               	.LBE479:
 467               	.LBE478:
 468               	.LM73:
 469 0294 0895      		ret
 470               	.LFE14:
 472               	.global	Leds_State
 474               	Leds_State:
 475               	.LFB15:
 476               	.LM74:
 477               	.LVL19:
 478               	/* prologue: function */
 479               	/* frame size = 0 */
 480               	.LM75:
 481 0296 E0E0      		ldi r30,lo8(ledState)
 482 0298 F0E0      		ldi r31,hi8(ledState)
 483 029a E80F      		add r30,r24
 484 029c F11D      		adc r31,__zero_reg__
 485 029e 6083      		st Z,r22
 486               	/* epilogue start */
 487               	.LM76:
 488 02a0 0895      		ret
 489               	.LFE15:
 491               	.global	Leds_Set
 493               	Leds_Set:
 494               	.LFB16:
 495               	.LM77:
 496               	.LVL20:
 497               	/* prologue: function */
 498               	/* frame size = 0 */
 499               	.LM78:
 500 02a2 21E0      		ldi r18,lo8(1)
 501 02a4 30E0      		ldi r19,hi8(1)
 502 02a6 00C0      		rjmp 2f
 503 02a8 220F      	1:	lsl r18
 504 02aa 331F      		rol r19
 505 02ac 8A95      	2:	dec r24
 506 02ae 02F4      		brpl 1b
 507 02b0 E0EA      		ldi r30,lo8(1696)
 508 02b2 F6E0      		ldi r31,hi8(1696)
 509 02b4 2583      		std Z+5,r18
 510               	/* epilogue start */
 511               	.LM79:
 512 02b6 0895      		ret
 513               	.LFE16:
 515               	.global	Leds_Clear
 517               	Leds_Clear:
 518               	.LFB17:
 519               	.LM80:
 520               	.LVL21:
 521               	/* prologue: function */
 522               	/* frame size = 0 */
 523               	.LM81:
 524 02b8 21E0      		ldi r18,lo8(1)
 525 02ba 30E0      		ldi r19,hi8(1)
 526 02bc 00C0      		rjmp 2f
 527 02be 220F      	1:	lsl r18
 528 02c0 331F      		rol r19
 529 02c2 8A95      	2:	dec r24
 530 02c4 02F4      		brpl 1b
 531 02c6 E0EA      		ldi r30,lo8(1696)
 532 02c8 F6E0      		ldi r31,hi8(1696)
 533 02ca 2683      		std Z+6,r18
 534               	/* epilogue start */
 535               	.LM82:
 536 02cc 0895      		ret
 537               	.LFE17:
 539               	.global	Leds_Toggle
 541               	Leds_Toggle:
 542               	.LFB18:
 543               	.LM83:
 544               	.LVL22:
 545               	/* prologue: function */
 546               	/* frame size = 0 */
 547               	.LM84:
 548 02ce 21E0      		ldi r18,lo8(1)
 549 02d0 30E0      		ldi r19,hi8(1)
 550 02d2 00C0      		rjmp 2f
 551 02d4 220F      	1:	lsl r18
 552 02d6 331F      		rol r19
 553 02d8 8A95      	2:	dec r24
 554 02da 02F4      		brpl 1b
 555 02dc E0EA      		ldi r30,lo8(1696)
 556 02de F6E0      		ldi r31,hi8(1696)
 557 02e0 2783      		std Z+7,r18
 558               	/* epilogue start */
 559               	.LM85:
 560 02e2 0895      		ret
 561               	.LFE18:
 563               	.global	Time_Init
 565               	Time_Init:
 566               	.LFB19:
 567               	.LM86:
 568               	/* prologue: function */
 569               	/* frame size = 0 */
 570               	.LM87:
 571 02e4 88E0      		ldi r24,lo8(8)
 572 02e6 8093 4008 		sts 2112,r24
 573               	.LM88:
 574 02ea 80EC      		ldi r24,lo8(-64)
 575 02ec 8093 8001 		sts 384,r24
 576               	.LM89:
 577 02f0 E0E0      		ldi r30,lo8(2048)
 578 02f2 F8E0      		ldi r31,hi8(2048)
 579 02f4 8FEF      		ldi r24,lo8(-1)
 580 02f6 9FEF      		ldi r25,hi8(-1)
 581 02f8 86A3      		std Z+38,r24
 582 02fa 97A3      		std Z+39,r25
 583               	.LM90:
 584 02fc 8081      		ld r24,Z
 585 02fe 807F      		andi r24,lo8(-16)
 586 0300 8460      		ori r24,lo8(4)
 587 0302 8083      		st Z,r24
 588               	/* epilogue start */
 589               	.LM91:
 590 0304 0895      		ret
 591               	.LFE19:
 593               	.global	Time_Set
 595               	Time_Set:
 596               	.LFB20:
 597               	.LM92:
 598               	.LVL23:
 599 0306 0F93      		push r16
 600 0308 DF93      		push r29
 601 030a CF93      		push r28
 602 030c 0F92      		push __tmp_reg__
 603 030e CDB7      		in r28,__SP_L__
 604 0310 DEB7      		in r29,__SP_H__
 605               	/* prologue: function */
 606               	/* frame size = 1 */
 607 0312 AB01      		movw r20,r22
 608 0314 BC01      		movw r22,r24
 609               	.LM93:
 610               	/* #APP */
 611               	 ;  70 "time.c" 1
 612 0316 F894      		cli
 613               	 ;  0 "" 2
 614               	.LM94:
 615               	/* #NOAPP */
 616 0318 82E0      		ldi r24,lo8(2)
 617 031a 8093 F000 		sts 240,r24
 618               	.LBB480:
 619               	.LBB481:
 620               	.LM95:
 621 031e 8FB7      		in r24,__SREG__
 622 0320 8983      		std Y+1,r24
 623               	.LVL24:
 624               	.LM96:
 625               	/* #APP */
 626               	 ;  83 "mainChestStrap.h" 1
 627 0322 F894      		cli
 628               	 ;  0 "" 2
 629               	.LM97:
 630               	/* #NOAPP */
 631 0324 1BBE      		out 59-0,__zero_reg__
 632               	.LM98:
 633 0326 21E0      		ldi r18,lo8(1)
 634 0328 80EF      		ldi r24,lo8(240)
 635 032a 90E0      		ldi r25,hi8(240)
 636               	/* #APP */
 637               	 ;  105 "mainChestStrap.h" 1
 638 032c FC01      		movw r30,  r24
 639 032e 08ED      		ldi  r16,  216
 640 0330 04BF      		out   52, r16
 641 0332 2083      		st     Z,  r18
 642               		
 643               	 ;  0 "" 2
 644               	.LM99:
 645               	/* #NOAPP */
 646 0334 8981      		ldd r24,Y+1
 647 0336 8FBF      		out __SREG__,r24
 648               	.LBE481:
 649               	.LBE480:
 650               	.LM100:
 651 0338 8091 F000 		lds r24,240
 652 033c 8460      		ori r24,lo8(4)
 653 033e 8093 F000 		sts 240,r24
 654               	.LM101:
 655 0342 8091 F000 		lds r24,240
 656 0346 8860      		ori r24,lo8(8)
 657 0348 8093 F000 		sts 240,r24
 658               	.LM102:
 659 034c 8091 2004 		lds r24,1056
 660 0350 8E7F      		andi r24,lo8(-2)
 661 0352 8093 2004 		sts 1056,r24
 662               	.LVL25:
 663               	.L49:
 664               	.LM103:
 665 0356 E0E2      		ldi r30,lo8(1056)
 666 0358 F4E0      		ldi r31,hi8(1056)
 667 035a 8091 2104 		lds r24,1057
 668 035e 80FD      		sbrc r24,0
 669 0360 00C0      		rjmp .L49
 670               	.LM104:
 671 0362 8EEF      		ldi r24,lo8(-2)
 672 0364 9FEF      		ldi r25,hi8(-2)
 673 0366 AFEF      		ldi r26,hlo8(-2)
 674 0368 BFEF      		ldi r27,hhi8(-2)
 675 036a 8087      		std Z+8,r24
 676 036c 9187      		std Z+9,r25
 677 036e A287      		std Z+10,r26
 678 0370 B387      		std Z+11,r27
 679               	.LM105:
 680 0372 1486      		std Z+12,__zero_reg__
 681 0374 1586      		std Z+13,__zero_reg__
 682 0376 1686      		std Z+14,__zero_reg__
 683 0378 1786      		std Z+15,__zero_reg__
 684               	.LM106:
 685 037a 4483      		std Z+4,r20
 686 037c 5583      		std Z+5,r21
 687 037e 6683      		std Z+6,r22
 688 0380 7783      		std Z+7,r23
 689               	.LBB482:
 690               	.LBB483:
 691               	.LBB484:
 692               	.LBB485:
 693               	.LM107:
 694 0382 80E0      		ldi r24,lo8(-28672)
 695 0384 90E9      		ldi r25,hi8(-28672)
 696               	.LVL26:
 697               	/* #APP */
 698               	 ;  105 "/usr/local/CrossPack-AVR-20100115/lib/gcc/avr/4.3.3/../../../../avr/include/util/delay_bas
 699 0386 0197      		1: sbiw r24,1
 700 0388 01F4      		brne 1b
 701               	 ;  0 "" 2
 702               	/* #NOAPP */
 703               	.LBE485:
 704               	.LBE484:
 705               	.LBE483:
 706               	.LBE482:
 707               	.LM108:
 708 038a 81E0      		ldi r24,lo8(1)
 709               	.LVL27:
 710 038c 8093 2004 		sts 1056,r24
 711               	.L50:
 712               	.LM109:
 713 0390 8091 2104 		lds r24,1057
 714 0394 80FD      		sbrc r24,0
 715 0396 00C0      		rjmp .L50
 716               	.LM110:
 717 0398 8091 2204 		lds r24,1058
 718 039c 837F      		andi r24,lo8(-13)
 719 039e 8460      		ori r24,lo8(4)
 720 03a0 E0E2      		ldi r30,lo8(1056)
 721 03a2 F4E0      		ldi r31,hi8(1056)
 722 03a4 8283      		std Z+2,r24
 723               	.LM111:
 724               	/* #APP */
 725               	 ;  91 "time.c" 1
 726 03a6 7894      		sei
 727               	 ;  0 "" 2
 728               	/* epilogue start */
 729               	.LM112:
 730               	/* #NOAPP */
 731 03a8 0F90      		pop __tmp_reg__
 732 03aa CF91      		pop r28
 733 03ac DF91      		pop r29
 734 03ae 0F91      		pop r16
 735 03b0 0895      		ret
 736               	.LFE20:
 738               	.global	Time_CheckVBatSystem
 740               	Time_CheckVBatSystem:
 741               	.LFB21:
 742               	.LM113:
 743               	/* prologue: function */
 744               	/* frame size = 0 */
 745               	.LM114:
 746 03b2 8091 F100 		lds r24,241
 747 03b6 87FD      		sbrc r24,7
 748 03b8 00C0      		rjmp .L55
 749               	.LM115:
 750 03ba 8091 F100 		lds r24,241
 751 03be 80FD      		sbrc r24,0
 752 03c0 00C0      		rjmp .L55
 753               	.LM116:
 754 03c2 8091 F100 		lds r24,241
 755 03c6 81FD      		sbrc r24,1
 756 03c8 00C0      		rjmp .L55
 757               	.LM117:
 758 03ca 82E0      		ldi r24,lo8(2)
 759 03cc 8093 F000 		sts 240,r24
 760               	.LM118:
 761 03d0 8091 F100 		lds r24,241
 762 03d4 8695      		lsr r24
 763 03d6 8695      		lsr r24
 764 03d8 8095      		com r24
 765 03da 8170      		andi r24,lo8(1)
 766 03dc 0895      		ret
 767               	.L55:
 768 03de 80E0      		ldi r24,lo8(0)
 769               	.LM119:
 770 03e0 0895      		ret
 771               	.LFE21:
 773               	.global	Time_Get
 775               	Time_Get:
 776               	.LFB22:
 777               	.LM120:
 778               	/* prologue: function */
 779               	/* frame size = 0 */
 780               	.LM121:
 781 03e2 8091 2104 		lds r24,1057
 782 03e6 8061      		ori r24,lo8(16)
 783 03e8 E0E2      		ldi r30,lo8(1056)
 784 03ea F4E0      		ldi r31,hi8(1056)
 785 03ec 8183      		std Z+1,r24
 786               	.L59:
 787               	.LM122:
 788 03ee 8091 2104 		lds r24,1057
 789 03f2 84FD      		sbrc r24,4
 790 03f4 00C0      		rjmp .L59
 791               	.LM123:
 792 03f6 2091 2404 		lds r18,1060
 793 03fa 3091 2504 		lds r19,(1060)+1
 794 03fe 4091 2604 		lds r20,(1060)+2
 795 0402 5091 2704 		lds r21,(1060)+3
 796               	.LM124:
 797 0406 B901      		movw r22,r18
 798 0408 CA01      		movw r24,r20
 799               	/* epilogue start */
 800 040a 0895      		ret
 801               	.LFE22:
 803               	.global	Time_Get32BitTimer
 805               	Time_Get32BitTimer:
 806               	.LFB23:
 807               	.LM125:
 808               	/* prologue: function */
 809               	/* frame size = 0 */
 810               	.LM126:
 811               	/* #APP */
 812               	 ;  121 "time.c" 1
 813 040c F894      		cli
 814               	 ;  0 "" 2
 815               	.LM127:
 816               	/* #NOAPP */
 817 040e 2091 6008 		lds r18,2144
 818 0412 3091 6108 		lds r19,(2144)+1
 819               	.LVL28:
 820               	.LM128:
 821 0416 6091 2008 		lds r22,2080
 822 041a 7091 2108 		lds r23,(2080)+1
 823               	.LVL29:
 824               	.LM129:
 825 041e 8091 6008 		lds r24,2144
 826 0422 9091 6108 		lds r25,(2144)+1
 827 0426 2817      		cp r18,r24
 828 0428 3907      		cpc r19,r25
 829 042a 01F0      		breq .L63
 830               	.LM130:
 831 042c 2091 6008 		lds r18,2144
 832 0430 3091 6108 		lds r19,(2144)+1
 833               	.LM131:
 834 0434 6091 2008 		lds r22,2080
 835 0438 7091 2108 		lds r23,(2080)+1
 836               	.L63:
 837               	.LM132:
 838               	/* #APP */
 839               	 ;  131 "time.c" 1
 840 043c 7894      		sei
 841               	 ;  0 "" 2
 842               	/* #NOAPP */
 843 043e 40E0      		ldi r20,lo8(0)
 844 0440 50E0      		ldi r21,hi8(0)
 845               	.LVL30:
 846 0442 A901      		movw r20,r18
 847 0444 3327      		clr r19
 848 0446 2227      		clr r18
 849               	.LVL31:
 850 0448 CB01      		movw r24,r22
 851 044a A0E0      		ldi r26,lo8(0)
 852 044c B0E0      		ldi r27,hi8(0)
 853               	.LVL32:
 854 044e 280F      		add r18,r24
 855 0450 391F      		adc r19,r25
 856 0452 4A1F      		adc r20,r26
 857 0454 5B1F      		adc r21,r27
 858               	.LM133:
 859 0456 B901      		movw r22,r18
 860               	.LVL33:
 861 0458 CA01      		movw r24,r20
 862               	.LVL34:
 863               	/* epilogue start */
 864 045a 0895      		ret
 865               	.LFE23:
 867               	.global	Time_UTCSecsToTime
 869               	Time_UTCSecsToTime:
 870               	.LFB24:
 871               	.LM134:
 872               	.LVL35:
 873 045c 8F92      		push r8
 874 045e 9F92      		push r9
 875 0460 AF92      		push r10
 876 0462 BF92      		push r11
 877 0464 CF92      		push r12
 878 0466 DF92      		push r13
 879 0468 EF92      		push r14
 880 046a FF92      		push r15
 881 046c 0F93      		push r16
 882 046e 1F93      		push r17
 883 0470 CF93      		push r28
 884 0472 DF93      		push r29
 885               	/* prologue: function */
 886               	/* frame size = 0 */
 887 0474 7B01      		movw r14,r22
 888 0476 8C01      		movw r16,r24
 889 0478 EA01      		movw r28,r20
 890               	.LM135:
 891 047a 2CE3      		ldi r18,lo8(60)
 892 047c 30E0      		ldi r19,hi8(60)
 893 047e 40E0      		ldi r20,hlo8(60)
 894 0480 50E0      		ldi r21,hhi8(60)
 895 0482 0E94 0000 		call __udivmodsi4
 896               	.LVL36:
 897 0486 6983      		std Y+1,r22
 898               	.LM136:
 899 0488 C801      		movw r24,r16
 900 048a B701      		movw r22,r14
 901 048c 2CE3      		ldi r18,lo8(60)
 902 048e 30E0      		ldi r19,hi8(60)
 903 0490 40E0      		ldi r20,hlo8(60)
 904 0492 50E0      		ldi r21,hhi8(60)
 905 0494 0E94 0000 		call __udivmodsi4
 906 0498 122F      		mov r17,r18
 907 049a 032F      		mov r16,r19
 908 049c F42E      		mov r15,r20
 909               	.LVL37:
 910 049e E52E      		mov r14,r21
 911               	.LVL38:
 912               	.LM137:
 913 04a0 622F      		mov r22,r18
 914 04a2 732F      		mov r23,r19
 915 04a4 842F      		mov r24,r20
 916 04a6 952F      		mov r25,r21
 917 04a8 2CE3      		ldi r18,lo8(60)
 918 04aa 30E0      		ldi r19,hi8(60)
 919 04ac 40E0      		ldi r20,hlo8(60)
 920 04ae 50E0      		ldi r21,hhi8(60)
 921 04b0 0E94 0000 		call __udivmodsi4
 922 04b4 6A83      		std Y+2,r22
 923               	.LM138:
 924 04b6 612F      		mov r22,r17
 925 04b8 702F      		mov r23,r16
 926 04ba 8F2D      		mov r24,r15
 927 04bc 9E2D      		mov r25,r14
 928 04be 2CE3      		ldi r18,lo8(60)
 929 04c0 30E0      		ldi r19,hi8(60)
 930 04c2 40E0      		ldi r20,hlo8(60)
 931 04c4 50E0      		ldi r21,hhi8(60)
 932 04c6 0E94 0000 		call __udivmodsi4
 933 04ca 122F      		mov r17,r18
 934 04cc 032F      		mov r16,r19
 935 04ce F42E      		mov r15,r20
 936 04d0 E52E      		mov r14,r21
 937               	.LM139:
 938 04d2 622F      		mov r22,r18
 939 04d4 732F      		mov r23,r19
 940 04d6 842F      		mov r24,r20
 941 04d8 952F      		mov r25,r21
 942 04da 28E1      		ldi r18,lo8(24)
 943 04dc 30E0      		ldi r19,hi8(24)
 944 04de 40E0      		ldi r20,hlo8(24)
 945 04e0 50E0      		ldi r21,hhi8(24)
 946 04e2 0E94 0000 		call __udivmodsi4
 947 04e6 6B83      		std Y+3,r22
 948               	.LM140:
 949 04e8 612F      		mov r22,r17
 950 04ea 702F      		mov r23,r16
 951 04ec 8F2D      		mov r24,r15
 952 04ee 9E2D      		mov r25,r14
 953 04f0 28E1      		ldi r18,lo8(24)
 954 04f2 30E0      		ldi r19,hi8(24)
 955 04f4 40E0      		ldi r20,hlo8(24)
 956 04f6 50E0      		ldi r21,hhi8(24)
 957 04f8 0E94 0000 		call __udivmodsi4
 958 04fc 7901      		movw r14,r18
 959 04fe 8A01      		movw r16,r20
 960               	.LM141:
 961 0500 C801      		movw r24,r16
 962 0502 B701      		movw r22,r14
 963               	.LVL39:
 964 0504 6C5F      		subi r22,lo8(-(4))
 965 0506 7F4F      		sbci r23,hi8(-(4))
 966 0508 8F4F      		sbci r24,hlo8(-(4))
 967 050a 9F4F      		sbci r25,hhi8(-(4))
 968 050c 27E0      		ldi r18,lo8(7)
 969 050e 30E0      		ldi r19,hi8(7)
 970 0510 40E0      		ldi r20,hlo8(7)
 971 0512 50E0      		ldi r21,hhi8(7)
 972 0514 0E94 0000 		call __udivmodsi4
 973 0518 6F5F      		subi r22,lo8(-(1))
 974 051a 6C83      		std Y+4,r22
 975 051c 20E0      		ldi r18,lo8(0)
 976               	.LVL40:
 977 051e AA24      		clr r10
 978 0520 BB24      		clr r11
 979 0522 6501      		movw r12,r10
 980               	.LVL41:
 981 0524 00C0      		rjmp .L66
 982               	.LVL42:
 983               	.L70:
 984               	.LM142:
 985 0526 2F5F      		subi r18,lo8(-(1))
 986               	.LVL43:
 987               	.L66:
 988               	.LM143:
 989 0528 822E      		mov r8,r18
 990 052a 9924      		clr r9
 991 052c F401      		movw r30,r8
 992 052e EE54      		subi r30,lo8(-(1970))
 993 0530 F84F      		sbci r31,hi8(-(1970))
 994 0532 CF01      		movw r24,r30
 995 0534 8370      		andi r24,lo8(3)
 996 0536 9070      		andi r25,hi8(3)
 997 0538 892B      		or r24,r25
 998 053a 01F4      		brne .L67
 999 053c CF01      		movw r24,r30
 1000 053e 64E6      		ldi r22,lo8(100)
 1001 0540 70E0      		ldi r23,hi8(100)
 1002 0542 0E94 0000 		call __divmodhi4
 1003               	.LVL44:
 1004 0546 892B      		or r24,r25
 1005 0548 01F4      		brne .L68
 1006 054a CF01      		movw r24,r30
 1007 054c 60E9      		ldi r22,lo8(400)
 1008 054e 71E0      		ldi r23,hi8(400)
 1009 0550 0E94 0000 		call __divmodhi4
 1010 0554 892B      		or r24,r25
 1011 0556 01F4      		brne .L67
 1012               	.L68:
 1013 0558 8EE6      		ldi r24,lo8(366)
 1014 055a 91E0      		ldi r25,hi8(366)
 1015 055c A0E0      		ldi r26,hlo8(366)
 1016 055e B0E0      		ldi r27,hhi8(366)
 1017 0560 00C0      		rjmp .L69
 1018               	.LVL45:
 1019               	.L67:
 1020 0562 8DE6      		ldi r24,lo8(365)
 1021 0564 91E0      		ldi r25,hi8(365)
 1022 0566 A0E0      		ldi r26,hlo8(365)
 1023 0568 B0E0      		ldi r27,hhi8(365)
 1024               	.L69:
 1025 056a A80E      		add r10,r24
 1026 056c B91E      		adc r11,r25
 1027 056e CA1E      		adc r12,r26
 1028 0570 DB1E      		adc r13,r27
 1029 0572 C501      		movw r24,r10
 1030 0574 A0E0      		ldi r26,lo8(0)
 1031 0576 B0E0      		ldi r27,hi8(0)
 1032 0578 E816      		cp r14,r24
 1033 057a F906      		cpc r15,r25
 1034 057c 0A07      		cpc r16,r26
 1035 057e 1B07      		cpc r17,r27
 1036 0580 00F4      		brsh .L70
 1037               	.LVL46:
 1038               	.LM144:
 1039 0582 2F83      		std Y+7,r18
 1040               	.LM145:
 1041 0584 F401      		movw r30,r8
 1042 0586 EE54      		subi r30,lo8(-(1970))
 1043 0588 F84F      		sbci r31,hi8(-(1970))
 1044 058a 93E0      		ldi r25,lo8(3)
 1045 058c 892E      		mov r8,r25
 1046 058e 912C      		mov r9,__zero_reg__
 1047 0590 8E22      		and r8,r30
 1048 0592 9F22      		and r9,r31
 1049 0594 8114      		cp r8,__zero_reg__
 1050 0596 9104      		cpc r9,__zero_reg__
 1051 0598 01F4      		brne .L71
 1052 059a CF01      		movw r24,r30
 1053               	.LVL47:
 1054 059c 64E6      		ldi r22,lo8(100)
 1055 059e 70E0      		ldi r23,hi8(100)
 1056 05a0 0E94 0000 		call __divmodhi4
 1057               	.LVL48:
 1058 05a4 892B      		or r24,r25
 1059 05a6 01F4      		brne .L72
 1060 05a8 CF01      		movw r24,r30
 1061 05aa 60E9      		ldi r22,lo8(400)
 1062 05ac 71E0      		ldi r23,hi8(400)
 1063 05ae 0E94 0000 		call __divmodhi4
 1064 05b2 892B      		or r24,r25
 1065 05b4 01F4      		brne .L71
 1066               	.L72:
 1067 05b6 8EE6      		ldi r24,lo8(366)
 1068 05b8 91E0      		ldi r25,hi8(366)
 1069 05ba A0E0      		ldi r26,hlo8(366)
 1070 05bc B0E0      		ldi r27,hhi8(366)
 1071 05be 00C0      		rjmp .L73
 1072               	.LVL49:
 1073               	.L71:
 1074 05c0 8DE6      		ldi r24,lo8(365)
 1075 05c2 91E0      		ldi r25,hi8(365)
 1076 05c4 A0E0      		ldi r26,hlo8(365)
 1077 05c6 B0E0      		ldi r27,hhi8(365)
 1078               	.L73:
 1079               	.LM146:
 1080 05c8 A81A      		sub r10,r24
 1081 05ca B90A      		sbc r11,r25
 1082 05cc CA0A      		sbc r12,r26
 1083 05ce DB0A      		sbc r13,r27
 1084 05d0 9801      		movw r18,r16
 1085 05d2 8701      		movw r16,r14
 1086 05d4 0A19      		sub r16,r10
 1087 05d6 1B09      		sbc r17,r11
 1088 05d8 2C09      		sbc r18,r12
 1089 05da 3D09      		sbc r19,r13
 1090               	.LVL50:
 1091               	.LM147:
 1092 05dc CF01      		movw r24,r30
 1093 05de 64E6      		ldi r22,lo8(100)
 1094 05e0 70E0      		ldi r23,hi8(100)
 1095 05e2 0E94 0000 		call __divmodhi4
 1096               	.LVL51:
 1097 05e6 7C01      		movw r14,r24
 1098 05e8 CF01      		movw r24,r30
 1099 05ea 60E9      		ldi r22,lo8(400)
 1100 05ec 71E0      		ldi r23,hi8(400)
 1101 05ee 0E94 0000 		call __divmodhi4
 1102 05f2 AC01      		movw r20,r24
 1103 05f4 E0E0      		ldi r30,lo8(monthDays)
 1104 05f6 F0E0      		ldi r31,hi8(monthDays)
 1105 05f8 60E0      		ldi r22,lo8(0)
 1106               	.LVL52:
 1107               	.L79:
 1108               	.LM148:
 1109 05fa 6130      		cpi r22,lo8(1)
 1110 05fc 01F4      		brne .L74
 1111               	.LM149:
 1112 05fe 8114      		cp r8,__zero_reg__
 1113 0600 9104      		cpc r9,__zero_reg__
 1114 0602 01F4      		brne .L75
 1115 0604 E114      		cp r14,__zero_reg__
 1116 0606 F104      		cpc r15,__zero_reg__
 1117 0608 01F4      		brne .L76
 1118 060a 4115      		cp r20,__zero_reg__
 1119 060c 5105      		cpc r21,__zero_reg__
 1120 060e 01F0      		breq .L76
 1121 0610 00C0      		rjmp .L75
 1122               	.L74:
 1123               	.LM150:
 1124 0612 8081      		ld r24,Z
 1125               	.LVL53:
 1126 0614 00C0      		rjmp .L77
 1127               	.LVL54:
 1128               	.L75:
 1129 0616 8CE1      		ldi r24,lo8(28)
 1130               	.LVL55:
 1131 0618 00C0      		rjmp .L77
 1132               	.LVL56:
 1133               	.L76:
 1134 061a 8DE1      		ldi r24,lo8(29)
 1135               	.LVL57:
 1136               	.L77:
 1137               	.LM151:
 1138 061c 90E0      		ldi r25,lo8(0)
 1139 061e A0E0      		ldi r26,lo8(0)
 1140 0620 B0E0      		ldi r27,hi8(0)
 1141 0622 0817      		cp r16,r24
 1142 0624 1907      		cpc r17,r25
 1143 0626 2A07      		cpc r18,r26
 1144 0628 3B07      		cpc r19,r27
 1145               	.LVL58:
 1146 062a 00F0      		brlo .L78
 1147               	.LM152:
 1148 062c 081B      		sub r16,r24
 1149 062e 190B      		sbc r17,r25
 1150 0630 2A0B      		sbc r18,r26
 1151 0632 3B0B      		sbc r19,r27
 1152               	.LM153:
 1153 0634 6F5F      		subi r22,lo8(-(1))
 1154 0636 3196      		adiw r30,1
 1155 0638 6C30      		cpi r22,lo8(12)
 1156 063a 01F4      		brne .L79
 1157               	.L78:
 1158               	.LM154:
 1159 063c 6F5F      		subi r22,lo8(-(1))
 1160 063e 6E83      		std Y+6,r22
 1161               	.LM155:
 1162 0640 802F      		mov r24,r16
 1163               	.LVL59:
 1164 0642 8F5F      		subi r24,lo8(-(1))
 1165 0644 8D83      		std Y+5,r24
 1166               	.LM156:
 1167 0646 CE01      		movw r24,r28
 1168               	.LVL60:
 1169               	/* epilogue start */
 1170 0648 DF91      		pop r29
 1171 064a CF91      		pop r28
 1172 064c 1F91      		pop r17
 1173 064e 0F91      		pop r16
 1174 0650 FF90      		pop r15
 1175 0652 EF90      		pop r14
 1176 0654 DF90      		pop r13
 1177 0656 CF90      		pop r12
 1178 0658 BF90      		pop r11
 1179 065a AF90      		pop r10
 1180               	.LVL61:
 1181 065c 9F90      		pop r9
 1182 065e 8F90      		pop r8
 1183 0660 0895      		ret
 1184               	.LFE24:
 1187               	wait_ready:
 1188               	.LFB26:
 1189               	.LM157:
 1190               	/* prologue: function */
 1191               	/* frame size = 0 */
 1192               	.LM158:
 1193 0662 82E3      		ldi r24,lo8(50)
 1194 0664 8093 0000 		sts Timer2,r24
 1195               	.LBB486:
 1196               	.LBB487:
 1197               	.LM159:
 1198 0668 8FEF      		ldi r24,lo8(-1)
 1199 066a E0EC      		ldi r30,lo8(2496)
 1200 066c F9E0      		ldi r31,hi8(2496)
 1201 066e 8383      		std Z+3,r24
 1202               	.L83:
 1203               	.LM160:
 1204 0670 8091 C209 		lds r24,2498
 1205 0674 87FF      		sbrs r24,7
 1206 0676 00C0      		rjmp .L83
 1207               	.LM161:
 1208 0678 8091 C309 		lds r24,2499
 1209               	.LBE487:
 1210               	.LBE486:
 1211               	.LBB488:
 1212               	.LBB489:
 1213               	.LM162:
 1214 067c E0EC      		ldi r30,lo8(2496)
 1215 067e F9E0      		ldi r31,hi8(2496)
 1216 0680 2FEF      		ldi r18,lo8(-1)
 1217               	.LVL62:
 1218               	.L86:
 1219 0682 2383      		std Z+3,r18
 1220               	.L84:
 1221               	.LM163:
 1222 0684 8091 C209 		lds r24,2498
 1223 0688 87FF      		sbrs r24,7
 1224 068a 00C0      		rjmp .L84
 1225               	.LM164:
 1226 068c 9091 C309 		lds r25,2499
 1227               	.LBE489:
 1228               	.LBE488:
 1229               	.LM165:
 1230 0690 9F3F      		cpi r25,lo8(-1)
 1231 0692 01F0      		breq .L85
 1232 0694 8091 0000 		lds r24,Timer2
 1233 0698 8823      		tst r24
 1234 069a 01F4      		brne .L86
 1235               	.L85:
 1236               	.LM166:
 1237 069c 892F      		mov r24,r25
 1238               	/* epilogue start */
 1239 069e 0895      		ret
 1240               	.LFE26:
 1243               	select:
 1244               	.LFB28:
 1245               	.LM167:
 1246 06a0 1F93      		push r17
 1247 06a2 CF93      		push r28
 1248 06a4 DF93      		push r29
 1249               	/* prologue: function */
 1250               	/* frame size = 0 */
 1251               	.LM168:
 1252 06a6 C0E6      		ldi r28,lo8(1632)
 1253 06a8 D6E0      		ldi r29,hi8(1632)
 1254 06aa 10E1      		ldi r17,lo8(16)
 1255 06ac 1E83      		std Y+6,r17
 1256               	.LM169:
 1257 06ae 0E94 0000 		call wait_ready
 1258 06b2 8F3F      		cpi r24,lo8(-1)
 1259 06b4 01F4      		brne .L92
 1260 06b6 81E0      		ldi r24,lo8(1)
 1261 06b8 00C0      		rjmp .L93
 1262               	.L92:
 1263               	.LBB490:
 1264               	.LBB491:
 1265               	.LM170:
 1266 06ba 1D83      		std Y+5,r17
 1267               	.LBB492:
 1268               	.LBB493:
 1269               	.LM171:
 1270 06bc 8FEF      		ldi r24,lo8(-1)
 1271 06be E0EC      		ldi r30,lo8(2496)
 1272 06c0 F9E0      		ldi r31,hi8(2496)
 1273 06c2 8383      		std Z+3,r24
 1274               	.L94:
 1275               	.LM172:
 1276 06c4 8091 C209 		lds r24,2498
 1277 06c8 87FF      		sbrs r24,7
 1278 06ca 00C0      		rjmp .L94
 1279               	.LM173:
 1280 06cc 8091 C309 		lds r24,2499
 1281 06d0 80E0      		ldi r24,lo8(0)
 1282               	.L93:
 1283               	/* epilogue start */
 1284               	.LBE493:
 1285               	.LBE492:
 1286               	.LBE491:
 1287               	.LBE490:
 1288               	.LM174:
 1289 06d2 DF91      		pop r29
 1290 06d4 CF91      		pop r28
 1291 06d6 1F91      		pop r17
 1292 06d8 0895      		ret
 1293               	.LFE28:
 1296               	rcvr_datablock:
 1297               	.LFB32:
 1298               	.LM175:
 1299               	.LVL63:
 1300               	/* prologue: function */
 1301               	/* frame size = 0 */
 1302 06da FC01      		movw r30,r24
 1303               	.LM176:
 1304 06dc 84E1      		ldi r24,lo8(20)
 1305               	.LVL64:
 1306 06de 8093 0000 		sts Timer1,r24
 1307               	.LBB494:
 1308               	.LBB495:
 1309               	.LM177:
 1310 06e2 A0EC      		ldi r26,lo8(2496)
 1311 06e4 B9E0      		ldi r27,hi8(2496)
 1312 06e6 9FEF      		ldi r25,lo8(-1)
 1313               	.L100:
 1314 06e8 1396      		adiw r26,3
 1315 06ea 9C93      		st X,r25
 1316 06ec 1397      		sbiw r26,3
 1317               	.L98:
 1318               	.LM178:
 1319 06ee 8091 C209 		lds r24,2498
 1320 06f2 87FF      		sbrs r24,7
 1321 06f4 00C0      		rjmp .L98
 1322               	.LM179:
 1323 06f6 8091 C309 		lds r24,2499
 1324               	.LVL65:
 1325               	.LBE495:
 1326               	.LBE494:
 1327               	.LM180:
 1328 06fa 8F3F      		cpi r24,lo8(-1)
 1329 06fc 01F4      		brne .L99
 1330 06fe 8091 0000 		lds r24,Timer1
 1331               	.LVL66:
 1332 0702 8823      		tst r24
 1333 0704 01F4      		brne .L100
 1334 0706 00C0      		rjmp .L101
 1335               	.LVL67:
 1336               	.L99:
 1337               	.LM181:
 1338 0708 8E3F      		cpi r24,lo8(-2)
 1339 070a 01F0      		breq .+2
 1340 070c 00C0      		rjmp .L101
 1341               	.LM182:
 1342 070e A0EC      		ldi r26,lo8(2496)
 1343 0710 B9E0      		ldi r27,hi8(2496)
 1344 0712 9FEF      		ldi r25,lo8(-1)
 1345               	.L120:
 1346 0714 1396      		adiw r26,3
 1347 0716 9C93      		st X,r25
 1348 0718 1397      		sbiw r26,3
 1349               	.L102:
 1350 071a 8091 C209 		lds r24,2498
 1351               	.LVL68:
 1352 071e 87FF      		sbrs r24,7
 1353 0720 00C0      		rjmp .L102
 1354 0722 8091 C309 		lds r24,2499
 1355 0726 8083      		st Z,r24
 1356               	.LM183:
 1357 0728 1396      		adiw r26,3
 1358 072a 9C93      		st X,r25
 1359 072c 1397      		sbiw r26,3
 1360               	.L103:
 1361 072e 8091 C209 		lds r24,2498
 1362 0732 87FF      		sbrs r24,7
 1363 0734 00C0      		rjmp .L103
 1364 0736 8091 C309 		lds r24,2499
 1365 073a 8183      		std Z+1,r24
 1366               	.LM184:
 1367 073c 1396      		adiw r26,3
 1368 073e 9C93      		st X,r25
 1369 0740 1397      		sbiw r26,3
 1370               	.L104:
 1371 0742 8091 C209 		lds r24,2498
 1372 0746 87FF      		sbrs r24,7
 1373 0748 00C0      		rjmp .L104
 1374 074a 8091 C309 		lds r24,2499
 1375 074e 8283      		std Z+2,r24
 1376               	.LM185:
 1377 0750 1396      		adiw r26,3
 1378 0752 9C93      		st X,r25
 1379 0754 1397      		sbiw r26,3
 1380               	.L105:
 1381 0756 8091 C209 		lds r24,2498
 1382 075a 87FF      		sbrs r24,7
 1383 075c 00C0      		rjmp .L105
 1384 075e 8091 C309 		lds r24,2499
 1385 0762 8383      		std Z+3,r24
 1386               	.LM186:
 1387 0764 6450      		subi r22,lo8(-(-4))
 1388 0766 7040      		sbci r23,hi8(-(-4))
 1389               	.LVL69:
 1390 0768 01F0      		breq .L106
 1391               	.LM187:
 1392 076a 3496      		adiw r30,4
 1393 076c 00C0      		rjmp .L120
 1394               	.L106:
 1395               	.LBB496:
 1396               	.LBB497:
 1397               	.LM188:
 1398 076e 8FEF      		ldi r24,lo8(-1)
 1399 0770 E0EC      		ldi r30,lo8(2496)
 1400 0772 F9E0      		ldi r31,hi8(2496)
 1401               	.LVL70:
 1402 0774 8383      		std Z+3,r24
 1403               	.L108:
 1404               	.LM189:
 1405 0776 8091 C209 		lds r24,2498
 1406 077a 87FF      		sbrs r24,7
 1407 077c 00C0      		rjmp .L108
 1408               	.LM190:
 1409 077e 8091 C309 		lds r24,2499
 1410               	.LBE497:
 1411               	.LBE496:
 1412               	.LBB498:
 1413               	.LBB499:
 1414               	.LM191:
 1415 0782 8FEF      		ldi r24,lo8(-1)
 1416 0784 E0EC      		ldi r30,lo8(2496)
 1417 0786 F9E0      		ldi r31,hi8(2496)
 1418 0788 8383      		std Z+3,r24
 1419               	.L109:
 1420               	.LM192:
 1421 078a 8091 C209 		lds r24,2498
 1422 078e 87FF      		sbrs r24,7
 1423 0790 00C0      		rjmp .L109
 1424               	.LM193:
 1425 0792 8091 C309 		lds r24,2499
 1426 0796 81E0      		ldi r24,lo8(1)
 1427 0798 0895      		ret
 1428               	.LVL71:
 1429               	.L101:
 1430               	.LM194:
 1431 079a 80E0      		ldi r24,lo8(0)
 1432               	.LVL72:
 1433               	.LBE499:
 1434               	.LBE498:
 1435               	.LM195:
 1436 079c 0895      		ret
 1437               	.LFE32:
 1440               	xmit_datablock:
 1441               	.LFB33:
 1442               	.LM196:
 1443               	.LVL73:
 1444 079e 1F93      		push r17
 1445 07a0 CF93      		push r28
 1446 07a2 DF93      		push r29
 1447               	/* prologue: function */
 1448               	/* frame size = 0 */
 1449 07a4 EC01      		movw r28,r24
 1450 07a6 162F      		mov r17,r22
 1451               	.LM197:
 1452 07a8 0E94 0000 		call wait_ready
 1453               	.LVL74:
 1454 07ac 8F3F      		cpi r24,lo8(-1)
 1455 07ae 01F0      		breq .L122
 1456 07b0 90E0      		ldi r25,lo8(0)
 1457 07b2 00C0      		rjmp .L123
 1458               	.L122:
 1459               	.LM198:
 1460 07b4 E0EC      		ldi r30,lo8(2496)
 1461 07b6 F9E0      		ldi r31,hi8(2496)
 1462 07b8 1383      		std Z+3,r17
 1463               	.L124:
 1464 07ba 8091 C209 		lds r24,2498
 1465 07be 87FF      		sbrs r24,7
 1466 07c0 00C0      		rjmp .L124
 1467               	.LM199:
 1468 07c2 1D3F      		cpi r17,lo8(-3)
 1469 07c4 01F4      		brne .L125
 1470 07c6 91E0      		ldi r25,lo8(1)
 1471 07c8 00C0      		rjmp .L123
 1472               	.L125:
 1473 07ca 90E0      		ldi r25,lo8(0)
 1474               	.LVL75:
 1475               	.LM200:
 1476 07cc E0EC      		ldi r30,lo8(2496)
 1477 07ce F9E0      		ldi r31,hi8(2496)
 1478               	.L129:
 1479 07d0 8881      		ld r24,Y
 1480 07d2 8383      		std Z+3,r24
 1481               	.L126:
 1482 07d4 8091 C209 		lds r24,2498
 1483 07d8 87FF      		sbrs r24,7
 1484 07da 00C0      		rjmp .L126
 1485               	.LM201:
 1486 07dc 8981      		ldd r24,Y+1
 1487 07de 8383      		std Z+3,r24
 1488               	.L127:
 1489 07e0 8091 C209 		lds r24,2498
 1490 07e4 87FF      		sbrs r24,7
 1491 07e6 00C0      		rjmp .L127
 1492               	.LM202:
 1493 07e8 9150      		subi r25,lo8(-(-1))
 1494 07ea 01F0      		breq .L128
 1495               	.LM203:
 1496 07ec 2296      		adiw r28,2
 1497 07ee 00C0      		rjmp .L129
 1498               	.L128:
 1499               	.LM204:
 1500 07f0 8FEF      		ldi r24,lo8(-1)
 1501 07f2 E0EC      		ldi r30,lo8(2496)
 1502 07f4 F9E0      		ldi r31,hi8(2496)
 1503 07f6 8383      		std Z+3,r24
 1504               	.L130:
 1505 07f8 8091 C209 		lds r24,2498
 1506 07fc 87FF      		sbrs r24,7
 1507 07fe 00C0      		rjmp .L130
 1508               	.LM205:
 1509 0800 8FEF      		ldi r24,lo8(-1)
 1510 0802 E0EC      		ldi r30,lo8(2496)
 1511 0804 F9E0      		ldi r31,hi8(2496)
 1512 0806 8383      		std Z+3,r24
 1513               	.L131:
 1514 0808 8091 C209 		lds r24,2498
 1515 080c 87FF      		sbrs r24,7
 1516 080e 00C0      		rjmp .L131
 1517               	.LBB500:
 1518               	.LBB501:
 1519               	.LM206:
 1520 0810 8FEF      		ldi r24,lo8(-1)
 1521 0812 E0EC      		ldi r30,lo8(2496)
 1522 0814 F9E0      		ldi r31,hi8(2496)
 1523 0816 8383      		std Z+3,r24
 1524               	.L132:
 1525               	.LM207:
 1526 0818 8091 C209 		lds r24,2498
 1527 081c 87FF      		sbrs r24,7
 1528 081e 00C0      		rjmp .L132
 1529               	.LM208:
 1530 0820 8091 C309 		lds r24,2499
 1531               	.LVL76:
 1532 0824 90E0      		ldi r25,lo8(0)
 1533               	.LVL77:
 1534 0826 8F71      		andi r24,lo8(31)
 1535 0828 8530      		cpi r24,lo8(5)
 1536 082a 01F0      		breq .L133
 1537 082c 91E0      		ldi r25,lo8(1)
 1538               	.L133:
 1539 082e 81E0      		ldi r24,lo8(1)
 1540               	.LVL78:
 1541 0830 9827      		eor r25,r24
 1542               	.L123:
 1543               	.LBE501:
 1544               	.LBE500:
 1545               	.LM209:
 1546 0832 892F      		mov r24,r25
 1547               	/* epilogue start */
 1548 0834 DF91      		pop r29
 1549 0836 CF91      		pop r28
 1550               	.LVL79:
 1551 0838 1F91      		pop r17
 1552               	.LVL80:
 1553 083a 0895      		ret
 1554               	.LFE33:
 1557               	send_cmd:
 1558               	.LFB34:
 1559               	.LM210:
 1560               	.LVL81:
 1561 083c DF92      		push r13
 1562 083e EF92      		push r14
 1563 0840 FF92      		push r15
 1564 0842 0F93      		push r16
 1565 0844 1F93      		push r17
 1566               	/* prologue: function */
 1567               	/* frame size = 0 */
 1568 0846 D82E      		mov r13,r24
 1569 0848 7A01      		movw r14,r20
 1570 084a 8B01      		movw r16,r22
 1571               	.LM211:
 1572 084c 87FF      		sbrs r24,7
 1573 084e 00C0      		rjmp .L142
 1574               	.LVL82:
 1575               	.LM212:
 1576 0850 87E7      		ldi r24,lo8(119)
 1577               	.LVL83:
 1578 0852 40E0      		ldi r20,lo8(0)
 1579 0854 50E0      		ldi r21,hi8(0)
 1580 0856 60E0      		ldi r22,hlo8(0)
 1581 0858 70E0      		ldi r23,hhi8(0)
 1582 085a 0E94 0000 		call send_cmd
 1583               	.LM213:
 1584 085e 8230      		cpi r24,lo8(2)
 1585               	.LVL84:
 1586 0860 00F0      		brlo .+2
 1587 0862 00C0      		rjmp .L143
 1588               	.LM214:
 1589 0864 8FE7      		ldi r24,lo8(127)
 1590               	.LVL85:
 1591 0866 D822      		and r13,r24
 1592               	.LVL86:
 1593               	.L142:
 1594               	.LBB502:
 1595               	.LBB503:
 1596               	.LM215:
 1597 0868 80E1      		ldi r24,lo8(16)
 1598 086a E0E6      		ldi r30,lo8(1632)
 1599 086c F6E0      		ldi r31,hi8(1632)
 1600 086e 8583      		std Z+5,r24
 1601               	.LBB504:
 1602               	.LBB505:
 1603               	.LM216:
 1604 0870 8FEF      		ldi r24,lo8(-1)
 1605 0872 E0EC      		ldi r30,lo8(2496)
 1606 0874 F9E0      		ldi r31,hi8(2496)
 1607 0876 8383      		std Z+3,r24
 1608               	.L144:
 1609               	.LM217:
 1610 0878 8091 C209 		lds r24,2498
 1611 087c 87FF      		sbrs r24,7
 1612 087e 00C0      		rjmp .L144
 1613               	.LM218:
 1614 0880 8091 C309 		lds r24,2499
 1615               	.LBE505:
 1616               	.LBE504:
 1617               	.LBE503:
 1618               	.LBE502:
 1619               	.LM219:
 1620 0884 0E94 0000 		call select
 1621 0888 8823      		tst r24
 1622 088a 01F4      		brne .L145
 1623 088c 8FEF      		ldi r24,lo8(-1)
 1624               	.LVL87:
 1625 088e 00C0      		rjmp .L143
 1626               	.LVL88:
 1627               	.L145:
 1628               	.LM220:
 1629 0890 E0EC      		ldi r30,lo8(2496)
 1630 0892 F9E0      		ldi r31,hi8(2496)
 1631 0894 D382      		std Z+3,r13
 1632               	.L146:
 1633 0896 8091 C209 		lds r24,2498
 1634 089a 87FF      		sbrs r24,7
 1635 089c 00C0      		rjmp .L146
 1636               	.LM221:
 1637 089e 812F      		mov r24,r17
 1638 08a0 9927      		clr r25
 1639 08a2 AA27      		clr r26
 1640 08a4 BB27      		clr r27
 1641 08a6 E0EC      		ldi r30,lo8(2496)
 1642 08a8 F9E0      		ldi r31,hi8(2496)
 1643 08aa 8383      		std Z+3,r24
 1644               	.L147:
 1645 08ac 8091 C209 		lds r24,2498
 1646 08b0 87FF      		sbrs r24,7
 1647 08b2 00C0      		rjmp .L147
 1648               	.LM222:
 1649 08b4 C801      		movw r24,r16
 1650 08b6 AA27      		clr r26
 1651 08b8 BB27      		clr r27
 1652 08ba E0EC      		ldi r30,lo8(2496)
 1653 08bc F9E0      		ldi r31,hi8(2496)
 1654 08be 8383      		std Z+3,r24
 1655               	.L148:
 1656 08c0 8091 C209 		lds r24,2498
 1657 08c4 87FF      		sbrs r24,7
 1658 08c6 00C0      		rjmp .L148
 1659               	.LM223:
 1660 08c8 BB27      		clr r27
 1661 08ca A12F      		mov r26,r17
 1662 08cc 902F      		mov r25,r16
 1663 08ce 8F2D      		mov r24,r15
 1664 08d0 E0EC      		ldi r30,lo8(2496)
 1665 08d2 F9E0      		ldi r31,hi8(2496)
 1666 08d4 8383      		std Z+3,r24
 1667               	.L149:
 1668 08d6 8091 C209 		lds r24,2498
 1669 08da 87FF      		sbrs r24,7
 1670 08dc 00C0      		rjmp .L149
 1671               	.LM224:
 1672 08de E0EC      		ldi r30,lo8(2496)
 1673 08e0 F9E0      		ldi r31,hi8(2496)
 1674 08e2 E382      		std Z+3,r14
 1675               	.L150:
 1676 08e4 8091 C209 		lds r24,2498
 1677 08e8 87FF      		sbrs r24,7
 1678 08ea 00C0      		rjmp .L150
 1679               	.LM225:
 1680 08ec 80E4      		ldi r24,lo8(64)
 1681 08ee D816      		cp r13,r24
 1682 08f0 01F4      		brne .L151
 1683 08f2 85E9      		ldi r24,lo8(-107)
 1684               	.LVL89:
 1685 08f4 00C0      		rjmp .L152
 1686               	.LVL90:
 1687               	.L151:
 1688               	.LM226:
 1689 08f6 88E4      		ldi r24,lo8(72)
 1690 08f8 D816      		cp r13,r24
 1691 08fa 01F4      		brne .L153
 1692 08fc 87E8      		ldi r24,lo8(-121)
 1693               	.LVL91:
 1694 08fe 00C0      		rjmp .L152
 1695               	.LVL92:
 1696               	.L153:
 1697 0900 81E0      		ldi r24,lo8(1)
 1698               	.LVL93:
 1699               	.L152:
 1700               	.LM227:
 1701 0902 E0EC      		ldi r30,lo8(2496)
 1702 0904 F9E0      		ldi r31,hi8(2496)
 1703 0906 8383      		std Z+3,r24
 1704               	.L154:
 1705 0908 8091 C209 		lds r24,2498
 1706               	.LVL94:
 1707 090c 87FF      		sbrs r24,7
 1708 090e 00C0      		rjmp .L154
 1709               	.LM228:
 1710 0910 8CE4      		ldi r24,lo8(76)
 1711 0912 D816      		cp r13,r24
 1712 0914 01F4      		brne .L171
 1713               	.L155:
 1714               	.LBB506:
 1715               	.LBB507:
 1716               	.LM229:
 1717 0916 8FEF      		ldi r24,lo8(-1)
 1718 0918 E0EC      		ldi r30,lo8(2496)
 1719 091a F9E0      		ldi r31,hi8(2496)
 1720 091c 8383      		std Z+3,r24
 1721               	.L157:
 1722               	.LM230:
 1723 091e 8091 C209 		lds r24,2498
 1724 0922 87FF      		sbrs r24,7
 1725 0924 00C0      		rjmp .L157
 1726               	.LM231:
 1727 0926 8091 C309 		lds r24,2499
 1728               	.L171:
 1729 092a 9AE0      		ldi r25,lo8(10)
 1730               	.LVL95:
 1731               	.LBE507:
 1732               	.LBE506:
 1733               	.LBB508:
 1734               	.LBB509:
 1735               	.LM232:
 1736 092c E0EC      		ldi r30,lo8(2496)
 1737 092e F9E0      		ldi r31,hi8(2496)
 1738 0930 2FEF      		ldi r18,lo8(-1)
 1739               	.LVL96:
 1740               	.L160:
 1741 0932 2383      		std Z+3,r18
 1742               	.L158:
 1743               	.LM233:
 1744 0934 8091 C209 		lds r24,2498
 1745               	.LVL97:
 1746 0938 87FF      		sbrs r24,7
 1747 093a 00C0      		rjmp .L158
 1748               	.LM234:
 1749 093c 8091 C309 		lds r24,2499
 1750               	.LVL98:
 1751               	.LBE509:
 1752               	.LBE508:
 1753               	.LM235:
 1754 0940 87FF      		sbrs r24,7
 1755 0942 00C0      		rjmp .L143
 1756 0944 9150      		subi r25,lo8(-(-1))
 1757 0946 01F4      		brne .L160
 1758               	.L143:
 1759               	.LVL99:
 1760               	/* epilogue start */
 1761               	.LM236:
 1762 0948 1F91      		pop r17
 1763 094a 0F91      		pop r16
 1764 094c FF90      		pop r15
 1765 094e EF90      		pop r14
 1766               	.LVL100:
 1767 0950 DF90      		pop r13
 1768               	.LVL101:
 1769 0952 0895      		ret
 1770               	.LFE34:
 1772               	.global	disk_initialize
 1774               	disk_initialize:
 1775               	.LFB35:
 1776               	.LM237:
 1777               	.LVL102:
 1778 0954 EF92      		push r14
 1779 0956 FF92      		push r15
 1780 0958 0F93      		push r16
 1781 095a 1F93      		push r17
 1782 095c DF93      		push r29
 1783 095e CF93      		push r28
 1784 0960 00D0      		rcall .
 1785 0962 0F92      		push __tmp_reg__
 1786 0964 CDB7      		in r28,__SP_L__
 1787 0966 DEB7      		in r29,__SP_H__
 1788               	/* prologue: function */
 1789               	/* frame size = 4 */
 1790               	.LM238:
 1791 0968 8091 0000 		lds r24,Stat
 1792               	.LVL103:
 1793 096c 81FD      		sbrc r24,1
 1794 096e 00C0      		rjmp .L192
 1795               	.L173:
 1796               	.LBB510:
 1797               	.LBB511:
 1798               	.LM239:
 1799 0970 E0E6      		ldi r30,lo8(1632)
 1800 0972 F6E0      		ldi r31,hi8(1632)
 1801 0974 80EB      		ldi r24,lo8(-80)
 1802 0976 8183      		std Z+1,r24
 1803               	.LM240:
 1804 0978 88E3      		ldi r24,lo8(56)
 1805 097a 868B      		std Z+22,r24
 1806               	.LM241:
 1807 097c 1482      		std Z+4,__zero_reg__
 1808 097e 8CE2      		ldi r24,lo8(300)
 1809 0980 91E0      		ldi r25,hi8(300)
 1810               	.LVL104:
 1811               	.LBB512:
 1812               	.LBB513:
 1813               	.LBB514:
 1814               	.LBB515:
 1815               	.LM242:
 1816 0982 20E7      		ldi r18,lo8(368)
 1817 0984 31E0      		ldi r19,hi8(368)
 1818               	.L175:
 1819 0986 F901      		movw r30,r18
 1820               	.LVL105:
 1821               	/* #APP */
 1822               	 ;  105 "/usr/local/CrossPack-AVR-20100115/lib/gcc/avr/4.3.3/../../../../avr/include/util/delay_bas
 1823 0988 3197      		1: sbiw r30,1
 1824 098a 01F4      		brne 1b
 1825               	 ;  0 "" 2
 1826               	/* #NOAPP */
 1827               	.LBE515:
 1828               	.LBE514:
 1829               	.LM243:
 1830 098c 0197      		sbiw r24,1
 1831               	.LM244:
 1832 098e 01F4      		brne .L175
 1833               	.LBE513:
 1834               	.LBE512:
 1835               	.LBE511:
 1836               	.LBE510:
 1837               	.LM245:
 1838 0990 83E5      		ldi r24,lo8(83)
 1839               	.LVL106:
 1840 0992 8093 C009 		sts 2496,r24
 1841 0996 9AE0      		ldi r25,lo8(10)
 1842               	.LVL107:
 1843               	.LBB516:
 1844               	.LBB517:
 1845               	.LM246:
 1846 0998 E0EC      		ldi r30,lo8(2496)
 1847 099a F9E0      		ldi r31,hi8(2496)
 1848               	.LVL108:
 1849 099c 2FEF      		ldi r18,lo8(-1)
 1850               	.L177:
 1851 099e 2383      		std Z+3,r18
 1852               	.L176:
 1853               	.LM247:
 1854 09a0 8091 C209 		lds r24,2498
 1855 09a4 87FF      		sbrs r24,7
 1856 09a6 00C0      		rjmp .L176
 1857               	.LM248:
 1858 09a8 8091 C309 		lds r24,2499
 1859               	.LBE517:
 1860               	.LBE516:
 1861               	.LM249:
 1862 09ac 9150      		subi r25,lo8(-(-1))
 1863 09ae 01F4      		brne .L177
 1864               	.LM250:
 1865 09b0 80E4      		ldi r24,lo8(64)
 1866 09b2 40E0      		ldi r20,lo8(0)
 1867 09b4 50E0      		ldi r21,hi8(0)
 1868 09b6 60E0      		ldi r22,hlo8(0)
 1869 09b8 70E0      		ldi r23,hhi8(0)
 1870 09ba 0E94 0000 		call send_cmd
 1871               	.LVL109:
 1872 09be 8130      		cpi r24,lo8(1)
 1873 09c0 01F0      		breq .+2
 1874 09c2 00C0      		rjmp .L178
 1875               	.LM251:
 1876 09c4 84E6      		ldi r24,lo8(100)
 1877 09c6 8093 0000 		sts Timer1,r24
 1878               	.LM252:
 1879 09ca 88E4      		ldi r24,lo8(72)
 1880 09cc 4AEA      		ldi r20,lo8(426)
 1881 09ce 51E0      		ldi r21,hi8(426)
 1882 09d0 60E0      		ldi r22,hlo8(426)
 1883 09d2 70E0      		ldi r23,hhi8(426)
 1884 09d4 0E94 0000 		call send_cmd
 1885 09d8 8130      		cpi r24,lo8(1)
 1886 09da 01F0      		breq .+2
 1887 09dc 00C0      		rjmp .L179
 1888 09de 7E01      		movw r14,r28
 1889 09e0 0894      		sec
 1890 09e2 E11C      		adc r14,__zero_reg__
 1891 09e4 F11C      		adc r15,__zero_reg__
 1892 09e6 8701      		movw r16,r14
 1893               	.LBB518:
 1894               	.LBB519:
 1895               	.LM253:
 1896 09e8 E0EC      		ldi r30,lo8(2496)
 1897 09ea F9E0      		ldi r31,hi8(2496)
 1898 09ec 9FEF      		ldi r25,lo8(-1)
 1899               	.LBE519:
 1900               	.LBE518:
 1901               	.LM254:
 1902 09ee 9E01      		movw r18,r28
 1903 09f0 2B5F      		subi r18,lo8(-(5))
 1904 09f2 3F4F      		sbci r19,hi8(-(5))
 1905               	.L181:
 1906               	.LBB521:
 1907               	.LBB520:
 1908               	.LM255:
 1909 09f4 9383      		std Z+3,r25
 1910               	.L180:
 1911               	.LM256:
 1912 09f6 8091 C209 		lds r24,2498
 1913 09fa 87FF      		sbrs r24,7
 1914 09fc 00C0      		rjmp .L180
 1915               	.LM257:
 1916 09fe 8091 C309 		lds r24,2499
 1917               	.LBE520:
 1918               	.LBE521:
 1919               	.LM258:
 1920 0a02 D801      		movw r26,r16
 1921 0a04 8D93      		st X+,r24
 1922 0a06 8D01      		movw r16,r26
 1923 0a08 A217      		cp r26,r18
 1924 0a0a B307      		cpc r27,r19
 1925 0a0c 01F4      		brne .L181
 1926               	.LM259:
 1927 0a0e 8B81      		ldd r24,Y+3
 1928 0a10 8130      		cpi r24,lo8(1)
 1929 0a12 01F0      		breq .+2
 1930 0a14 00C0      		rjmp .L178
 1931 0a16 8C81      		ldd r24,Y+4
 1932 0a18 8A3A      		cpi r24,lo8(-86)
 1933 0a1a 01F0      		breq .+2
 1934 0a1c 00C0      		rjmp .L178
 1935               	.L195:
 1936               	.LM260:
 1937 0a1e 8091 0000 		lds r24,Timer1
 1938 0a22 8823      		tst r24
 1939 0a24 01F0      		breq .L182
 1940 0a26 89EE      		ldi r24,lo8(-23)
 1941 0a28 40E0      		ldi r20,lo8(1073741824)
 1942 0a2a 50E0      		ldi r21,hi8(1073741824)
 1943 0a2c 60E0      		ldi r22,hlo8(1073741824)
 1944 0a2e 70E4      		ldi r23,hhi8(1073741824)
 1945 0a30 0E94 0000 		call send_cmd
 1946 0a34 8823      		tst r24
 1947 0a36 01F4      		brne .L195
 1948               	.L182:
 1949               	.LM261:
 1950 0a38 8091 0000 		lds r24,Timer1
 1951 0a3c 8823      		tst r24
 1952 0a3e 01F4      		brne .+2
 1953 0a40 00C0      		rjmp .L178
 1954 0a42 8AE7      		ldi r24,lo8(122)
 1955 0a44 40E0      		ldi r20,lo8(0)
 1956 0a46 50E0      		ldi r21,hi8(0)
 1957 0a48 60E0      		ldi r22,hlo8(0)
 1958 0a4a 70E0      		ldi r23,hhi8(0)
 1959 0a4c 0E94 0000 		call send_cmd
 1960 0a50 8823      		tst r24
 1961 0a52 01F0      		breq .+2
 1962 0a54 00C0      		rjmp .L178
 1963               	.LBB522:
 1964               	.LBB523:
 1965               	.LM262:
 1966 0a56 E0EC      		ldi r30,lo8(2496)
 1967 0a58 F9E0      		ldi r31,hi8(2496)
 1968 0a5a 9FEF      		ldi r25,lo8(-1)
 1969               	.L194:
 1970 0a5c 9383      		std Z+3,r25
 1971               	.L184:
 1972               	.LM263:
 1973 0a5e 8091 C209 		lds r24,2498
 1974 0a62 87FF      		sbrs r24,7
 1975 0a64 00C0      		rjmp .L184
 1976               	.LM264:
 1977 0a66 8091 C309 		lds r24,2499
 1978               	.LBE523:
 1979               	.LBE522:
 1980               	.LM265:
 1981 0a6a D701      		movw r26,r14
 1982 0a6c 8D93      		st X+,r24
 1983 0a6e 7D01      		movw r14,r26
 1984 0a70 A017      		cp r26,r16
 1985 0a72 B107      		cpc r27,r17
 1986 0a74 01F4      		brne .L194
 1987               	.LM266:
 1988 0a76 8981      		ldd r24,Y+1
 1989 0a78 86FD      		sbrc r24,6
 1990 0a7a 00C0      		rjmp .L186
 1991 0a7c 14E0      		ldi r17,lo8(4)
 1992               	.LVL110:
 1993 0a7e 00C0      		rjmp .L187
 1994               	.LVL111:
 1995               	.L186:
 1996 0a80 1CE0      		ldi r17,lo8(12)
 1997               	.LVL112:
 1998 0a82 00C0      		rjmp .L187
 1999               	.LVL113:
 2000               	.L179:
 2001               	.LM267:
 2002 0a84 89EE      		ldi r24,lo8(-23)
 2003 0a86 40E0      		ldi r20,lo8(0)
 2004 0a88 50E0      		ldi r21,hi8(0)
 2005 0a8a 60E0      		ldi r22,hlo8(0)
 2006 0a8c 70E0      		ldi r23,hhi8(0)
 2007 0a8e 0E94 0000 		call send_cmd
 2008 0a92 8230      		cpi r24,lo8(2)
 2009 0a94 00F0      		brlo .L188
 2010 0a96 01E4      		ldi r16,lo8(65)
 2011               	.LVL114:
 2012 0a98 11E0      		ldi r17,lo8(1)
 2013               	.LVL115:
 2014 0a9a 00C0      		rjmp .L196
 2015               	.LVL116:
 2016               	.L188:
 2017 0a9c 09EE      		ldi r16,lo8(-23)
 2018               	.LVL117:
 2019 0a9e 12E0      		ldi r17,lo8(2)
 2020               	.LVL118:
 2021               	.L196:
 2022               	.LM268:
 2023 0aa0 8091 0000 		lds r24,Timer1
 2024 0aa4 8823      		tst r24
 2025 0aa6 01F0      		breq .L190
 2026 0aa8 802F      		mov r24,r16
 2027 0aaa 40E0      		ldi r20,lo8(0)
 2028 0aac 50E0      		ldi r21,hi8(0)
 2029 0aae 60E0      		ldi r22,hlo8(0)
 2030 0ab0 70E0      		ldi r23,hhi8(0)
 2031 0ab2 0E94 0000 		call send_cmd
 2032 0ab6 8823      		tst r24
 2033 0ab8 01F4      		brne .L196
 2034               	.L190:
 2035               	.LM269:
 2036 0aba 8091 0000 		lds r24,Timer1
 2037 0abe 8823      		tst r24
 2038 0ac0 01F0      		breq .L178
 2039 0ac2 80E5      		ldi r24,lo8(80)
 2040 0ac4 40E0      		ldi r20,lo8(512)
 2041 0ac6 52E0      		ldi r21,hi8(512)
 2042 0ac8 60E0      		ldi r22,hlo8(512)
 2043 0aca 70E0      		ldi r23,hhi8(512)
 2044 0acc 0E94 0000 		call send_cmd
 2045 0ad0 8111      		cpse r24,__zero_reg__
 2046               	.L178:
 2047 0ad2 10E0      		ldi r17,lo8(0)
 2048               	.L187:
 2049               	.LM270:
 2050 0ad4 1093 0000 		sts CardType,r17
 2051               	.LBB524:
 2052               	.LBB525:
 2053               	.LM271:
 2054 0ad8 80E1      		ldi r24,lo8(16)
 2055 0ada E0E6      		ldi r30,lo8(1632)
 2056 0adc F6E0      		ldi r31,hi8(1632)
 2057 0ade 8583      		std Z+5,r24
 2058               	.LBB526:
 2059               	.LBB527:
 2060               	.LM272:
 2061 0ae0 8FEF      		ldi r24,lo8(-1)
 2062 0ae2 E0EC      		ldi r30,lo8(2496)
 2063 0ae4 F9E0      		ldi r31,hi8(2496)
 2064 0ae6 8383      		std Z+3,r24
 2065               	.L191:
 2066               	.LM273:
 2067 0ae8 8091 C209 		lds r24,2498
 2068 0aec 87FF      		sbrs r24,7
 2069 0aee 00C0      		rjmp .L191
 2070               	.LM274:
 2071 0af0 8091 C309 		lds r24,2499
 2072               	.LBE527:
 2073               	.LBE526:
 2074               	.LBE525:
 2075               	.LBE524:
 2076               	.LM275:
 2077 0af4 1123      		tst r17
 2078 0af6 01F0      		breq .L192
 2079               	.LM276:
 2080 0af8 8091 0000 		lds r24,Stat
 2081 0afc 8E7F      		andi r24,lo8(-2)
 2082 0afe 8093 0000 		sts Stat,r24
 2083               	.LM277:
 2084 0b02 80ED      		ldi r24,lo8(-48)
 2085 0b04 8093 C009 		sts 2496,r24
 2086               	.L192:
 2087               	.LM278:
 2088 0b08 8091 0000 		lds r24,Stat
 2089               	/* epilogue start */
 2090               	.LM279:
 2091 0b0c 2496      		adiw r28,4
 2092 0b0e CDBF      		out __SP_L__,r28
 2093 0b10 DEBF      		out __SP_H__,r29
 2094 0b12 CF91      		pop r28
 2095 0b14 DF91      		pop r29
 2096 0b16 1F91      		pop r17
 2097               	.LVL119:
 2098 0b18 0F91      		pop r16
 2099               	.LVL120:
 2100 0b1a FF90      		pop r15
 2101 0b1c EF90      		pop r14
 2102 0b1e 0895      		ret
 2103               	.LFE35:
 2105               	.global	disk_status
 2107               	disk_status:
 2108               	.LFB36:
 2109               	.LM280:
 2110               	.LVL121:
 2111               	/* prologue: function */
 2112               	/* frame size = 0 */
 2113               	.LM281:
 2114 0b20 8823      		tst r24
 2115 0b22 01F0      		breq .L208
 2116 0b24 81E0      		ldi r24,lo8(1)
 2117               	.LVL122:
 2118 0b26 0895      		ret
 2119               	.LVL123:
 2120               	.L208:
 2121               	.LM282:
 2122 0b28 8091 0000 		lds r24,Stat
 2123               	.LVL124:
 2124               	.LM283:
 2125 0b2c 0895      		ret
 2126               	.LFE36:
 2128               	.global	disk_read
 2130               	disk_read:
 2131               	.LFB37:
 2132               	.LM284:
 2133               	.LVL125:
 2134 0b2e 0F93      		push r16
 2135               	.LVL126:
 2136 0b30 CF93      		push r28
 2137 0b32 DF93      		push r29
 2138               	/* prologue: function */
 2139               	/* frame size = 0 */
 2140 0b34 EB01      		movw r28,r22
 2141               	.LM285:
 2142 0b36 8823      		tst r24
 2143 0b38 01F0      		breq .+2
 2144 0b3a 00C0      		rjmp .L212
 2145               	.LVL127:
 2146 0b3c 0023      		tst r16
 2147               	.LVL128:
 2148 0b3e 01F4      		brne .+2
 2149 0b40 00C0      		rjmp .L212
 2150               	.LM286:
 2151 0b42 8091 0000 		lds r24,Stat
 2152               	.LVL129:
 2153 0b46 80FF      		sbrs r24,0
 2154 0b48 00C0      		rjmp .L213
 2155 0b4a 03E0      		ldi r16,lo8(3)
 2156               	.LVL130:
 2157 0b4c 00C0      		rjmp .L214
 2158               	.LVL131:
 2159               	.L213:
 2160               	.LM287:
 2161 0b4e 8091 0000 		lds r24,CardType
 2162 0b52 83FD      		sbrc r24,3
 2163 0b54 00C0      		rjmp .L215
 2164 0b56 69E0      		ldi r22,9
 2165 0b58 220F      	1:	lsl r18
 2166 0b5a 331F      		rol r19
 2167 0b5c 441F      		rol r20
 2168 0b5e 551F      		rol r21
 2169 0b60 6A95      		dec r22
 2170 0b62 01F4      		brne 1b
 2171               	.LVL132:
 2172               	.L215:
 2173               	.LM288:
 2174 0b64 0130      		cpi r16,lo8(1)
 2175 0b66 01F4      		brne .L216
 2176               	.LM289:
 2177 0b68 81E5      		ldi r24,lo8(81)
 2178 0b6a BA01      		movw r22,r20
 2179 0b6c A901      		movw r20,r18
 2180 0b6e 0E94 0000 		call send_cmd
 2181               	.LVL133:
 2182 0b72 8823      		tst r24
 2183 0b74 01F4      		brne .L217
 2184 0b76 CE01      		movw r24,r28
 2185 0b78 60E0      		ldi r22,lo8(512)
 2186 0b7a 72E0      		ldi r23,hi8(512)
 2187 0b7c 0E94 0000 		call rcvr_datablock
 2188 0b80 00E0      		ldi r16,lo8(0)
 2189 0b82 8823      		tst r24
 2190 0b84 01F4      		brne .L217
 2191 0b86 01E0      		ldi r16,lo8(1)
 2192 0b88 00C0      		rjmp .L217
 2193               	.LVL134:
 2194               	.L216:
 2195               	.LM290:
 2196 0b8a 82E5      		ldi r24,lo8(82)
 2197 0b8c BA01      		movw r22,r20
 2198 0b8e A901      		movw r20,r18
 2199 0b90 0E94 0000 		call send_cmd
 2200               	.LVL135:
 2201 0b94 8823      		tst r24
 2202 0b96 01F4      		brne .L217
 2203               	.L225:
 2204               	.LM291:
 2205 0b98 CE01      		movw r24,r28
 2206 0b9a 60E0      		ldi r22,lo8(512)
 2207 0b9c 72E0      		ldi r23,hi8(512)
 2208 0b9e 0E94 0000 		call rcvr_datablock
 2209 0ba2 8823      		tst r24
 2210 0ba4 01F0      		breq .L219
 2211               	.LM292:
 2212 0ba6 0150      		subi r16,lo8(-(-1))
 2213 0ba8 01F0      		breq .L219
 2214               	.LM293:
 2215 0baa C050      		subi r28,lo8(-(512))
 2216 0bac DE4F      		sbci r29,hi8(-(512))
 2217 0bae 00C0      		rjmp .L225
 2218               	.L219:
 2219               	.LM294:
 2220 0bb0 8CE4      		ldi r24,lo8(76)
 2221 0bb2 40E0      		ldi r20,lo8(0)
 2222 0bb4 50E0      		ldi r21,hi8(0)
 2223 0bb6 60E0      		ldi r22,hlo8(0)
 2224 0bb8 70E0      		ldi r23,hhi8(0)
 2225 0bba 0E94 0000 		call send_cmd
 2226               	.L217:
 2227               	.LBB528:
 2228               	.LBB529:
 2229               	.LM295:
 2230 0bbe 80E1      		ldi r24,lo8(16)
 2231 0bc0 E0E6      		ldi r30,lo8(1632)
 2232 0bc2 F6E0      		ldi r31,hi8(1632)
 2233 0bc4 8583      		std Z+5,r24
 2234               	.LBB530:
 2235               	.LBB531:
 2236               	.LM296:
 2237 0bc6 8FEF      		ldi r24,lo8(-1)
 2238 0bc8 E0EC      		ldi r30,lo8(2496)
 2239 0bca F9E0      		ldi r31,hi8(2496)
 2240 0bcc 8383      		std Z+3,r24
 2241               	.L221:
 2242               	.LM297:
 2243 0bce 8091 C209 		lds r24,2498
 2244 0bd2 87FF      		sbrs r24,7
 2245 0bd4 00C0      		rjmp .L221
 2246               	.LM298:
 2247 0bd6 8091 C309 		lds r24,2499
 2248               	.LBE531:
 2249               	.LBE530:
 2250               	.LBE529:
 2251               	.LBE528:
 2252               	.LM299:
 2253 0bda 0023      		tst r16
 2254 0bdc 01F0      		breq .L214
 2255 0bde 01E0      		ldi r16,lo8(1)
 2256               	.LVL136:
 2257 0be0 00C0      		rjmp .L214
 2258               	.LVL137:
 2259               	.L212:
 2260 0be2 04E0      		ldi r16,lo8(4)
 2261               	.LVL138:
 2262               	.L214:
 2263               	.LM300:
 2264 0be4 802F      		mov r24,r16
 2265               	.LVL139:
 2266               	/* epilogue start */
 2267 0be6 DF91      		pop r29
 2268 0be8 CF91      		pop r28
 2269               	.LVL140:
 2270 0bea 0F91      		pop r16
 2271 0bec 0895      		ret
 2272               	.LFE37:
 2274               	.global	disk_write
 2276               	disk_write:
 2277               	.LFB38:
 2278               	.LM301:
 2279               	.LVL141:
 2280 0bee CF92      		push r12
 2281 0bf0 DF92      		push r13
 2282 0bf2 EF92      		push r14
 2283 0bf4 FF92      		push r15
 2284 0bf6 0F93      		push r16
 2285               	.LVL142:
 2286 0bf8 CF93      		push r28
 2287 0bfa DF93      		push r29
 2288               	/* prologue: function */
 2289               	/* frame size = 0 */
 2290 0bfc EB01      		movw r28,r22
 2291 0bfe 6901      		movw r12,r18
 2292 0c00 7A01      		movw r14,r20
 2293               	.LM302:
 2294 0c02 8823      		tst r24
 2295 0c04 01F0      		breq .+2
 2296 0c06 00C0      		rjmp .L227
 2297               	.LVL143:
 2298 0c08 0023      		tst r16
 2299               	.LVL144:
 2300 0c0a 01F4      		brne .+2
 2301 0c0c 00C0      		rjmp .L227
 2302               	.LM303:
 2303 0c0e 8091 0000 		lds r24,Stat
 2304               	.LVL145:
 2305 0c12 80FF      		sbrs r24,0
 2306 0c14 00C0      		rjmp .L228
 2307 0c16 03E0      		ldi r16,lo8(3)
 2308               	.LVL146:
 2309 0c18 00C0      		rjmp .L229
 2310               	.LVL147:
 2311               	.L228:
 2312               	.LM304:
 2313 0c1a 8091 0000 		lds r24,Stat
 2314 0c1e 82FF      		sbrs r24,2
 2315 0c20 00C0      		rjmp .L230
 2316 0c22 02E0      		ldi r16,lo8(2)
 2317               	.LVL148:
 2318 0c24 00C0      		rjmp .L229
 2319               	.LVL149:
 2320               	.L230:
 2321               	.LM305:
 2322 0c26 8091 0000 		lds r24,CardType
 2323 0c2a 90E0      		ldi r25,lo8(0)
 2324 0c2c 83FD      		sbrc r24,3
 2325 0c2e 00C0      		rjmp .L231
 2326 0c30 79E0      		ldi r23,9
 2327 0c32 CC0C      	1:	lsl r12
 2328 0c34 DD1C      		rol r13
 2329 0c36 EE1C      		rol r14
 2330 0c38 FF1C      		rol r15
 2331 0c3a 7A95      		dec r23
 2332 0c3c 01F4      		brne 1b
 2333               	.LVL150:
 2334               	.L231:
 2335               	.LM306:
 2336 0c3e 0130      		cpi r16,lo8(1)
 2337 0c40 01F4      		brne .L232
 2338               	.LM307:
 2339 0c42 88E5      		ldi r24,lo8(88)
 2340 0c44 B701      		movw r22,r14
 2341 0c46 A601      		movw r20,r12
 2342 0c48 0E94 0000 		call send_cmd
 2343 0c4c 8823      		tst r24
 2344 0c4e 01F4      		brne .L233
 2345 0c50 CE01      		movw r24,r28
 2346 0c52 6EEF      		ldi r22,lo8(-2)
 2347 0c54 0E94 0000 		call xmit_datablock
 2348 0c58 00E0      		ldi r16,lo8(0)
 2349 0c5a 00C0      		rjmp .L244
 2350               	.LVL151:
 2351               	.L232:
 2352               	.LM308:
 2353 0c5c 8670      		andi r24,lo8(6)
 2354 0c5e 9070      		andi r25,hi8(6)
 2355 0c60 892B      		or r24,r25
 2356 0c62 01F0      		breq .L235
 2357 0c64 402F      		mov r20,r16
 2358 0c66 50E0      		ldi r21,lo8(0)
 2359               	.LVL152:
 2360 0c68 60E0      		ldi r22,lo8(0)
 2361 0c6a 70E0      		ldi r23,hi8(0)
 2362               	.LVL153:
 2363 0c6c 87ED      		ldi r24,lo8(-41)
 2364 0c6e 0E94 0000 		call send_cmd
 2365               	.LVL154:
 2366               	.L235:
 2367               	.LM309:
 2368 0c72 89E5      		ldi r24,lo8(89)
 2369 0c74 B701      		movw r22,r14
 2370 0c76 A601      		movw r20,r12
 2371 0c78 0E94 0000 		call send_cmd
 2372 0c7c 8823      		tst r24
 2373 0c7e 01F4      		brne .L233
 2374               	.L242:
 2375               	.LM310:
 2376 0c80 CE01      		movw r24,r28
 2377 0c82 6CEF      		ldi r22,lo8(-4)
 2378 0c84 0E94 0000 		call xmit_datablock
 2379 0c88 8823      		tst r24
 2380 0c8a 01F0      		breq .L236
 2381               	.LM311:
 2382 0c8c 0150      		subi r16,lo8(-(-1))
 2383 0c8e 01F0      		breq .L236
 2384               	.LM312:
 2385 0c90 C050      		subi r28,lo8(-(512))
 2386 0c92 DE4F      		sbci r29,hi8(-(512))
 2387 0c94 00C0      		rjmp .L242
 2388               	.L236:
 2389               	.LM313:
 2390 0c96 80E0      		ldi r24,lo8(0)
 2391 0c98 90E0      		ldi r25,hi8(0)
 2392 0c9a 6DEF      		ldi r22,lo8(-3)
 2393 0c9c 0E94 0000 		call xmit_datablock
 2394               	.L244:
 2395 0ca0 8823      		tst r24
 2396 0ca2 01F4      		brne .L233
 2397 0ca4 01E0      		ldi r16,lo8(1)
 2398               	.L233:
 2399               	.LBB532:
 2400               	.LBB533:
 2401               	.LM314:
 2402 0ca6 80E1      		ldi r24,lo8(16)
 2403 0ca8 E0E6      		ldi r30,lo8(1632)
 2404 0caa F6E0      		ldi r31,hi8(1632)
 2405 0cac 8583      		std Z+5,r24
 2406               	.LBB534:
 2407               	.LBB535:
 2408               	.LM315:
 2409 0cae 8FEF      		ldi r24,lo8(-1)
 2410 0cb0 E0EC      		ldi r30,lo8(2496)
 2411 0cb2 F9E0      		ldi r31,hi8(2496)
 2412 0cb4 8383      		std Z+3,r24
 2413               	.L238:
 2414               	.LM316:
 2415 0cb6 8091 C209 		lds r24,2498
 2416 0cba 87FF      		sbrs r24,7
 2417 0cbc 00C0      		rjmp .L238
 2418               	.LM317:
 2419 0cbe 8091 C309 		lds r24,2499
 2420               	.LBE535:
 2421               	.LBE534:
 2422               	.LBE533:
 2423               	.LBE532:
 2424               	.LM318:
 2425 0cc2 0023      		tst r16
 2426 0cc4 01F0      		breq .L229
 2427 0cc6 01E0      		ldi r16,lo8(1)
 2428               	.LVL155:
 2429 0cc8 00C0      		rjmp .L229
 2430               	.LVL156:
 2431               	.L227:
 2432 0cca 04E0      		ldi r16,lo8(4)
 2433               	.LVL157:
 2434               	.L229:
 2435               	.LM319:
 2436 0ccc 802F      		mov r24,r16
 2437               	.LVL158:
 2438               	/* epilogue start */
 2439 0cce DF91      		pop r29
 2440 0cd0 CF91      		pop r28
 2441               	.LVL159:
 2442 0cd2 0F91      		pop r16
 2443 0cd4 FF90      		pop r15
 2444 0cd6 EF90      		pop r14
 2445 0cd8 DF90      		pop r13
 2446 0cda CF90      		pop r12
 2447               	.LVL160:
 2448 0cdc 0895      		ret
 2449               	.LFE38:
 2451               	.global	disk_ioctl
 2453               	disk_ioctl:
 2454               	.LFB39:
 2455               	.LM320:
 2456               	.LVL161:
 2457 0cde FF92      		push r15
 2458 0ce0 0F93      		push r16
 2459 0ce2 1F93      		push r17
 2460 0ce4 DF93      		push r29
 2461 0ce6 CF93      		push r28
 2462 0ce8 CDB7      		in r28,__SP_L__
 2463 0cea DEB7      		in r29,__SP_H__
 2464 0cec 6097      		sbiw r28,16
 2465 0cee CDBF      		out __SP_L__,r28
 2466 0cf0 DEBF      		out __SP_H__,r29
 2467               	/* prologue: function */
 2468               	/* frame size = 16 */
 2469 0cf2 8A01      		movw r16,r20
 2470               	.LM321:
 2471 0cf4 8823      		tst r24
 2472 0cf6 01F0      		breq .+2
 2473 0cf8 00C0      		rjmp .L246
 2474               	.LVL162:
 2475               	.LM322:
 2476 0cfa 6430      		cpi r22,lo8(4)
 2477 0cfc 01F4      		brne .L247
 2478               	.LM323:
 2479 0cfe FA01      		movw r30,r20
 2480 0d00 8081      		ld r24,Z
 2481               	.LVL163:
 2482 0d02 8130      		cpi r24,lo8(1)
 2483 0d04 01F0      		breq .L249
 2484               	.LVL164:
 2485 0d06 8130      		cpi r24,lo8(1)
 2486 0d08 00F4      		brsh .+2
 2487 0d0a 00C0      		rjmp .L248
 2488 0d0c 8230      		cpi r24,lo8(2)
 2489 0d0e 01F0      		breq .+2
 2490 0d10 00C0      		rjmp .L246
 2491 0d12 00C0      		rjmp .L298
 2492               	.L249:
 2493               	.LBB536:
 2494               	.LBB537:
 2495               	.LM324:
 2496 0d14 E0E6      		ldi r30,lo8(1632)
 2497 0d16 F6E0      		ldi r31,hi8(1632)
 2498 0d18 80EB      		ldi r24,lo8(-80)
 2499 0d1a 8183      		std Z+1,r24
 2500               	.LM325:
 2501 0d1c 88E3      		ldi r24,lo8(56)
 2502 0d1e 868B      		std Z+22,r24
 2503               	.LM326:
 2504 0d20 1482      		std Z+4,__zero_reg__
 2505 0d22 8CE2      		ldi r24,lo8(300)
 2506 0d24 91E0      		ldi r25,hi8(300)
 2507               	.LVL165:
 2508               	.LBB538:
 2509               	.LBB539:
 2510               	.LBB540:
 2511               	.LBB541:
 2512               	.LM327:
 2513 0d26 20E7      		ldi r18,lo8(368)
 2514 0d28 31E0      		ldi r19,hi8(368)
 2515               	.L251:
 2516 0d2a F901      		movw r30,r18
 2517               	.LVL166:
 2518               	/* #APP */
 2519               	 ;  105 "/usr/local/CrossPack-AVR-20100115/lib/gcc/avr/4.3.3/../../../../avr/include/util/delay_bas
 2520 0d2c 3197      		1: sbiw r30,1
 2521 0d2e 01F4      		brne 1b
 2522               	 ;  0 "" 2
 2523               	/* #NOAPP */
 2524               	.LBE541:
 2525               	.LBE540:
 2526               	.LM328:
 2527 0d30 0197      		sbiw r24,1
 2528               	.LM329:
 2529 0d32 01F4      		brne .L251
 2530 0d34 00C0      		rjmp .L248
 2531               	.LVL167:
 2532               	.L298:
 2533               	.LBE539:
 2534               	.LBE538:
 2535               	.LBE537:
 2536               	.LBE536:
 2537               	.LM330:
 2538 0d36 81E0      		ldi r24,lo8(1)
 2539 0d38 FA01      		movw r30,r20
 2540 0d3a 8183      		std Z+1,r24
 2541 0d3c 00C0      		rjmp .L248
 2542               	.LVL168:
 2543               	.L247:
 2544               	.LM331:
 2545 0d3e 8091 0000 		lds r24,Stat
 2546               	.LVL169:
 2547 0d42 80FF      		sbrs r24,0
 2548 0d44 00C0      		rjmp .L253
 2549 0d46 93E0      		ldi r25,lo8(3)
 2550               	.LVL170:
 2551 0d48 00C0      		rjmp .L252
 2552               	.LVL171:
 2553               	.L253:
 2554               	.LM332:
 2555 0d4a 6A30      		cpi r22,lo8(10)
 2556 0d4c 01F4      		brne .+2
 2557 0d4e 00C0      		rjmp .L259
 2558 0d50 6B30      		cpi r22,lo8(11)
 2559 0d52 00F4      		brsh .L264
 2560 0d54 6130      		cpi r22,lo8(1)
 2561 0d56 01F0      		breq .L256
 2562 0d58 6130      		cpi r22,lo8(1)
 2563 0d5a 00F0      		brlo .L255
 2564 0d5c 6230      		cpi r22,lo8(2)
 2565 0d5e 01F4      		brne .+2
 2566 0d60 00C0      		rjmp .L257
 2567 0d62 6330      		cpi r22,lo8(3)
 2568 0d64 01F4      		brne .L254
 2569 0d66 00C0      		rjmp .L299
 2570               	.L264:
 2571 0d68 6C30      		cpi r22,lo8(12)
 2572 0d6a 01F4      		brne .+2
 2573 0d6c 00C0      		rjmp .L261
 2574 0d6e 6C30      		cpi r22,lo8(12)
 2575 0d70 00F4      		brsh .+2
 2576 0d72 00C0      		rjmp .L260
 2577 0d74 6D30      		cpi r22,lo8(13)
 2578 0d76 01F4      		brne .+2
 2579 0d78 00C0      		rjmp .L262
 2580 0d7a 6E30      		cpi r22,lo8(14)
 2581 0d7c 01F4      		brne .+2
 2582 0d7e 00C0      		rjmp .L263
 2583               	.L254:
 2584 0d80 94E0      		ldi r25,lo8(4)
 2585               	.LVL172:
 2586 0d82 00C0      		rjmp .L265
 2587               	.LVL173:
 2588               	.L255:
 2589               	.LM333:
 2590 0d84 0E94 0000 		call select
 2591               	.LVL174:
 2592 0d88 8823      		tst r24
 2593 0d8a 01F4      		brne .+2
 2594 0d8c 00C0      		rjmp .L266
 2595               	.LBB542:
 2596               	.LBB543:
 2597               	.LM334:
 2598 0d8e 80E1      		ldi r24,lo8(16)
 2599 0d90 E0E6      		ldi r30,lo8(1632)
 2600 0d92 F6E0      		ldi r31,hi8(1632)
 2601 0d94 8583      		std Z+5,r24
 2602               	.LBB544:
 2603               	.LBB545:
 2604               	.LM335:
 2605 0d96 8FEF      		ldi r24,lo8(-1)
 2606 0d98 E0EC      		ldi r30,lo8(2496)
 2607 0d9a F9E0      		ldi r31,hi8(2496)
 2608 0d9c 8383      		std Z+3,r24
 2609               	.L267:
 2610               	.LM336:
 2611 0d9e 8091 C209 		lds r24,2498
 2612 0da2 87FF      		sbrs r24,7
 2613 0da4 00C0      		rjmp .L267
 2614               	.LM337:
 2615 0da6 8091 C309 		lds r24,2499
 2616 0daa 00C0      		rjmp .L291
 2617               	.LVL175:
 2618               	.L256:
 2619               	.LBE545:
 2620               	.LBE544:
 2621               	.LBE543:
 2622               	.LBE542:
 2623               	.LM338:
 2624 0dac 89E4      		ldi r24,lo8(73)
 2625 0dae 40E0      		ldi r20,lo8(0)
 2626 0db0 50E0      		ldi r21,hi8(0)
 2627 0db2 60E0      		ldi r22,hlo8(0)
 2628 0db4 70E0      		ldi r23,hhi8(0)
 2629 0db6 0E94 0000 		call send_cmd
 2630               	.LVL176:
 2631 0dba 8823      		tst r24
 2632 0dbc 01F0      		breq .+2
 2633 0dbe 00C0      		rjmp .L266
 2634 0dc0 CE01      		movw r24,r28
 2635 0dc2 0196      		adiw r24,1
 2636 0dc4 60E1      		ldi r22,lo8(16)
 2637 0dc6 70E0      		ldi r23,hi8(16)
 2638 0dc8 0E94 0000 		call rcvr_datablock
 2639 0dcc 8823      		tst r24
 2640 0dce 01F4      		brne .+2
 2641 0dd0 00C0      		rjmp .L266
 2642               	.LM339:
 2643 0dd2 8981      		ldd r24,Y+1
 2644 0dd4 8295      		swap r24
 2645 0dd6 8695      		lsr r24
 2646 0dd8 8695      		lsr r24
 2647 0dda 8370      		andi r24,lo8(3)
 2648 0ddc 7A85      		ldd r23,Y+10
 2649 0dde 4985      		ldd r20,Y+9
 2650 0de0 8130      		cpi r24,lo8(1)
 2651 0de2 01F4      		brne .L268
 2652               	.LM340:
 2653 0de4 872F      		mov r24,r23
 2654 0de6 90E0      		ldi r25,lo8(0)
 2655 0de8 0196      		adiw r24,1
 2656 0dea 342F      		mov r19,r20
 2657 0dec 20E0      		ldi r18,lo8(0)
 2658 0dee 820F      		add r24,r18
 2659 0df0 931F      		adc r25,r19
 2660 0df2 A0E0      		ldi r26,lo8(0)
 2661 0df4 B0E0      		ldi r27,hi8(0)
 2662 0df6 2AE0      		ldi r18,10
 2663 0df8 880F      	1:	lsl r24
 2664 0dfa 991F      		rol r25
 2665 0dfc AA1F      		rol r26
 2666 0dfe BB1F      		rol r27
 2667 0e00 2A95      		dec r18
 2668 0e02 01F4      		brne 1b
 2669 0e04 00C0      		rjmp .L293
 2670               	.L268:
 2671               	.LM341:
 2672 0e06 4295      		swap r20
 2673 0e08 4695      		lsr r20
 2674 0e0a 4695      		lsr r20
 2675 0e0c 4370      		andi r20,lo8(3)
 2676 0e0e 2885      		ldd r18,Y+8
 2677 0e10 30E0      		ldi r19,lo8(0)
 2678 0e12 220F      		lsl r18
 2679 0e14 331F      		rol r19
 2680 0e16 220F      		lsl r18
 2681 0e18 331F      		rol r19
 2682 0e1a 240F      		add r18,r20
 2683 0e1c 311D      		adc r19,__zero_reg__
 2684 0e1e 2F5F      		subi r18,lo8(-(1))
 2685 0e20 3F4F      		sbci r19,hi8(-(1))
 2686 0e22 8F81      		ldd r24,Y+7
 2687 0e24 90E0      		ldi r25,lo8(0)
 2688 0e26 8370      		andi r24,lo8(3)
 2689 0e28 9070      		andi r25,hi8(3)
 2690 0e2a 982F      		mov r25,r24
 2691 0e2c 8827      		clr r24
 2692 0e2e 990F      		lsl r25
 2693 0e30 990F      		lsl r25
 2694 0e32 280F      		add r18,r24
 2695 0e34 391F      		adc r19,r25
 2696 0e36 40E0      		ldi r20,lo8(0)
 2697 0e38 50E0      		ldi r21,hi8(0)
 2698 0e3a 8E81      		ldd r24,Y+6
 2699 0e3c 8F70      		andi r24,lo8(15)
 2700 0e3e 6B85      		ldd r22,Y+11
 2701 0e40 661F      		rol r22
 2702 0e42 6627      		clr r22
 2703 0e44 661F      		rol r22
 2704 0e46 860F      		add r24,r22
 2705 0e48 8E5F      		subi r24,lo8(-(2))
 2706 0e4a 7370      		andi r23,lo8(3)
 2707 0e4c 770F      		lsl r23
 2708 0e4e 870F      		add r24,r23
 2709 0e50 90E0      		ldi r25,lo8(0)
 2710 0e52 0997      		sbiw r24,9
 2711 0e54 00C0      		rjmp 2f
 2712 0e56 220F      	1:	lsl r18
 2713 0e58 331F      		rol r19
 2714 0e5a 441F      		rol r20
 2715 0e5c 551F      		rol r21
 2716 0e5e 8A95      	2:	dec r24
 2717 0e60 02F4      		brpl 1b
 2718 0e62 F801      		movw r30,r16
 2719 0e64 2083      		st Z,r18
 2720 0e66 3183      		std Z+1,r19
 2721 0e68 4283      		std Z+2,r20
 2722 0e6a 5383      		std Z+3,r21
 2723 0e6c 00C0      		rjmp .L291
 2724               	.LVL177:
 2725               	.L257:
 2726               	.LM342:
 2727 0e6e 80E0      		ldi r24,lo8(512)
 2728 0e70 92E0      		ldi r25,hi8(512)
 2729 0e72 FA01      		movw r30,r20
 2730 0e74 8083      		st Z,r24
 2731 0e76 9183      		std Z+1,r25
 2732 0e78 00C0      		rjmp .L291
 2733               	.L299:
 2734               	.LM343:
 2735 0e7a 8091 0000 		lds r24,CardType
 2736 0e7e F82E      		mov r15,r24
 2737 0e80 82FF      		sbrs r24,2
 2738 0e82 00C0      		rjmp .L269
 2739               	.LM344:
 2740 0e84 8DEC      		ldi r24,lo8(-51)
 2741 0e86 40E0      		ldi r20,lo8(0)
 2742 0e88 50E0      		ldi r21,hi8(0)
 2743 0e8a 60E0      		ldi r22,hlo8(0)
 2744 0e8c 70E0      		ldi r23,hhi8(0)
 2745 0e8e 0E94 0000 		call send_cmd
 2746               	.LVL178:
 2747 0e92 8823      		tst r24
 2748 0e94 01F0      		breq .+2
 2749 0e96 00C0      		rjmp .L266
 2750               	.LBB546:
 2751               	.LBB547:
 2752               	.LM345:
 2753 0e98 8FEF      		ldi r24,lo8(-1)
 2754 0e9a E0EC      		ldi r30,lo8(2496)
 2755 0e9c F9E0      		ldi r31,hi8(2496)
 2756 0e9e 8383      		std Z+3,r24
 2757               	.L270:
 2758               	.LM346:
 2759 0ea0 8091 C209 		lds r24,2498
 2760 0ea4 87FF      		sbrs r24,7
 2761 0ea6 00C0      		rjmp .L270
 2762               	.LM347:
 2763 0ea8 8091 C309 		lds r24,2499
 2764               	.LBE547:
 2765               	.LBE546:
 2766               	.LM348:
 2767 0eac CE01      		movw r24,r28
 2768 0eae 0196      		adiw r24,1
 2769 0eb0 60E1      		ldi r22,lo8(16)
 2770 0eb2 70E0      		ldi r23,hi8(16)
 2771 0eb4 0E94 0000 		call rcvr_datablock
 2772 0eb8 8823      		tst r24
 2773 0eba 01F4      		brne .+2
 2774 0ebc 00C0      		rjmp .L266
 2775 0ebe 90E3      		ldi r25,lo8(48)
 2776               	.LVL179:
 2777               	.LBB548:
 2778               	.LBB549:
 2779               	.LM349:
 2780 0ec0 E0EC      		ldi r30,lo8(2496)
 2781 0ec2 F9E0      		ldi r31,hi8(2496)
 2782 0ec4 2FEF      		ldi r18,lo8(-1)
 2783               	.L272:
 2784 0ec6 2383      		std Z+3,r18
 2785               	.L271:
 2786               	.LM350:
 2787 0ec8 8091 C209 		lds r24,2498
 2788 0ecc 87FF      		sbrs r24,7
 2789 0ece 00C0      		rjmp .L271
 2790               	.LM351:
 2791 0ed0 8091 C309 		lds r24,2499
 2792               	.LBE549:
 2793               	.LBE548:
 2794               	.LM352:
 2795 0ed4 9150      		subi r25,lo8(-(-1))
 2796 0ed6 01F4      		brne .L272
 2797               	.LM353:
 2798 0ed8 2B85      		ldd r18,Y+11
 2799 0eda 2295      		swap r18
 2800 0edc 2F70      		andi r18,lo8(15)
 2801 0ede 80E1      		ldi r24,lo8(16)
 2802 0ee0 90E0      		ldi r25,hi8(16)
 2803 0ee2 A0E0      		ldi r26,hlo8(16)
 2804 0ee4 B0E0      		ldi r27,hhi8(16)
 2805 0ee6 00C0      		rjmp 2f
 2806 0ee8 880F      	1:	lsl r24
 2807 0eea 991F      		rol r25
 2808 0eec AA1F      		rol r26
 2809 0eee BB1F      		rol r27
 2810 0ef0 2A95      	2:	dec r18
 2811 0ef2 02F4      		brpl 1b
 2812 0ef4 00C0      		rjmp .L293
 2813               	.LVL180:
 2814               	.L269:
 2815               	.LM354:
 2816 0ef6 89E4      		ldi r24,lo8(73)
 2817 0ef8 40E0      		ldi r20,lo8(0)
 2818 0efa 50E0      		ldi r21,hi8(0)
 2819 0efc 60E0      		ldi r22,hlo8(0)
 2820 0efe 70E0      		ldi r23,hhi8(0)
 2821 0f00 0E94 0000 		call send_cmd
 2822               	.LVL181:
 2823 0f04 8823      		tst r24
 2824 0f06 01F0      		breq .+2
 2825 0f08 00C0      		rjmp .L266
 2826 0f0a CE01      		movw r24,r28
 2827 0f0c 0196      		adiw r24,1
 2828 0f0e 60E1      		ldi r22,lo8(16)
 2829 0f10 70E0      		ldi r23,hi8(16)
 2830 0f12 0E94 0000 		call rcvr_datablock
 2831 0f16 8823      		tst r24
 2832 0f18 01F4      		brne .+2
 2833 0f1a 00C0      		rjmp .L266
 2834 0f1c 4B85      		ldd r20,Y+11
 2835 0f1e 8C85      		ldd r24,Y+12
 2836               	.LM355:
 2837 0f20 F1FE      		sbrs r15,1
 2838 0f22 00C0      		rjmp .L273
 2839               	.LM356:
 2840 0f24 881F      		rol r24
 2841 0f26 8827      		clr r24
 2842 0f28 881F      		rol r24
 2843 0f2a 90E0      		ldi r25,lo8(0)
 2844 0f2c 0196      		adiw r24,1
 2845 0f2e 242F      		mov r18,r20
 2846 0f30 30E0      		ldi r19,lo8(0)
 2847 0f32 2F73      		andi r18,lo8(63)
 2848 0f34 3070      		andi r19,hi8(63)
 2849 0f36 220F      		lsl r18
 2850 0f38 331F      		rol r19
 2851 0f3a 820F      		add r24,r18
 2852 0f3c 931F      		adc r25,r19
 2853 0f3e 2E85      		ldd r18,Y+14
 2854 0f40 2295      		swap r18
 2855 0f42 2695      		lsr r18
 2856 0f44 2695      		lsr r18
 2857 0f46 2370      		andi r18,lo8(3)
 2858 0f48 30E0      		ldi r19,lo8(0)
 2859 0f4a 2150      		subi r18,lo8(-(-1))
 2860 0f4c 3040      		sbci r19,hi8(-(-1))
 2861 0f4e 00C0      		rjmp 2f
 2862 0f50 880F      	1:	lsl r24
 2863 0f52 991F      		rol r25
 2864 0f54 2A95      	2:	dec r18
 2865 0f56 02F4      		brpl 1b
 2866 0f58 00C0      		rjmp .L295
 2867               	.L273:
 2868               	.LM357:
 2869 0f5a 282F      		mov r18,r24
 2870 0f5c 30E0      		ldi r19,lo8(0)
 2871 0f5e 2370      		andi r18,lo8(3)
 2872 0f60 3070      		andi r19,hi8(3)
 2873 0f62 F3E0      		ldi r31,3
 2874 0f64 220F      	1:	lsl r18
 2875 0f66 331F      		rol r19
 2876 0f68 FA95      		dec r31
 2877 0f6a 01F4      		brne 1b
 2878 0f6c 8295      		swap r24
 2879 0f6e 8695      		lsr r24
 2880 0f70 8770      		andi r24,lo8(7)
 2881 0f72 280F      		add r18,r24
 2882 0f74 311D      		adc r19,__zero_reg__
 2883 0f76 2F5F      		subi r18,lo8(-(1))
 2884 0f78 3F4F      		sbci r19,hi8(-(1))
 2885 0f7a 842F      		mov r24,r20
 2886 0f7c 90E0      		ldi r25,lo8(0)
 2887 0f7e 8C77      		andi r24,lo8(124)
 2888 0f80 9070      		andi r25,hi8(124)
 2889 0f82 9595      		asr r25
 2890 0f84 8795      		ror r24
 2891 0f86 9595      		asr r25
 2892 0f88 8795      		ror r24
 2893 0f8a 0196      		adiw r24,1
 2894 0f8c AC01      		movw r20,r24
 2895 0f8e 249F      		mul r18,r20
 2896 0f90 C001      		movw r24,r0
 2897 0f92 259F      		mul r18,r21
 2898 0f94 900D      		add r25,r0
 2899 0f96 349F      		mul r19,r20
 2900 0f98 900D      		add r25,r0
 2901 0f9a 1124      		clr r1
 2902               	.L295:
 2903 0f9c A0E0      		ldi r26,lo8(0)
 2904 0f9e B0E0      		ldi r27,hi8(0)
 2905               	.LVL182:
 2906               	.L293:
 2907 0fa0 F801      		movw r30,r16
 2908 0fa2 8083      		st Z,r24
 2909 0fa4 9183      		std Z+1,r25
 2910 0fa6 A283      		std Z+2,r26
 2911 0fa8 B383      		std Z+3,r27
 2912               	.LVL183:
 2913               	.L291:
 2914 0faa 90E0      		ldi r25,lo8(0)
 2915               	.LVL184:
 2916 0fac 00C0      		rjmp .L265
 2917               	.LVL185:
 2918               	.L259:
 2919               	.LM358:
 2920 0fae 8091 0000 		lds r24,CardType
 2921 0fb2 FA01      		movw r30,r20
 2922 0fb4 8083      		st Z,r24
 2923 0fb6 00C0      		rjmp .L291
 2924               	.L260:
 2925               	.LM359:
 2926 0fb8 89E4      		ldi r24,lo8(73)
 2927 0fba 00C0      		rjmp .L297
 2928               	.L261:
 2929               	.LM360:
 2930 0fbc 8AE4      		ldi r24,lo8(74)
 2931               	.L297:
 2932 0fbe 40E0      		ldi r20,lo8(0)
 2933 0fc0 50E0      		ldi r21,hi8(0)
 2934 0fc2 60E0      		ldi r22,hlo8(0)
 2935 0fc4 70E0      		ldi r23,hhi8(0)
 2936 0fc6 0E94 0000 		call send_cmd
 2937               	.LVL186:
 2938 0fca 8823      		tst r24
 2939 0fcc 01F4      		brne .L266
 2940 0fce C801      		movw r24,r16
 2941 0fd0 60E1      		ldi r22,lo8(16)
 2942 0fd2 70E0      		ldi r23,hi8(16)
 2943 0fd4 00C0      		rjmp .L292
 2944               	.LVL187:
 2945               	.L262:
 2946               	.LM361:
 2947 0fd6 8AE7      		ldi r24,lo8(122)
 2948 0fd8 40E0      		ldi r20,lo8(0)
 2949 0fda 50E0      		ldi r21,hi8(0)
 2950 0fdc 60E0      		ldi r22,hlo8(0)
 2951 0fde 70E0      		ldi r23,hhi8(0)
 2952 0fe0 0E94 0000 		call send_cmd
 2953               	.LVL188:
 2954 0fe4 8823      		tst r24
 2955 0fe6 01F4      		brne .L266
 2956 0fe8 F801      		movw r30,r16
 2957               	.LVL189:
 2958               	.LBB550:
 2959               	.LBB551:
 2960               	.LM362:
 2961 0fea A0EC      		ldi r26,lo8(2496)
 2962 0fec B9E0      		ldi r27,hi8(2496)
 2963 0fee 9FEF      		ldi r25,lo8(-1)
 2964               	.LBE551:
 2965               	.LBE550:
 2966               	.LM363:
 2967 0ff0 9801      		movw r18,r16
 2968 0ff2 2D5F      		subi r18,lo8(-(3))
 2969 0ff4 3F4F      		sbci r19,hi8(-(3))
 2970               	.L278:
 2971               	.LBB553:
 2972               	.LBB552:
 2973               	.LM364:
 2974 0ff6 1396      		adiw r26,3
 2975 0ff8 9C93      		st X,r25
 2976 0ffa 1397      		sbiw r26,3
 2977               	.LVL190:
 2978               	.L276:
 2979               	.LM365:
 2980 0ffc 8091 C209 		lds r24,2498
 2981 1000 87FF      		sbrs r24,7
 2982 1002 00C0      		rjmp .L276
 2983               	.LM366:
 2984 1004 8091 C309 		lds r24,2499
 2985               	.LBE552:
 2986               	.LBE553:
 2987               	.LM367:
 2988 1008 8083      		st Z,r24
 2989 100a E217      		cp r30,r18
 2990 100c F307      		cpc r31,r19
 2991 100e 01F0      		breq .L291
 2992               	.LVL191:
 2993               	.L277:
 2994 1010 3196      		adiw r30,1
 2995 1012 00C0      		rjmp .L278
 2996               	.LVL192:
 2997               	.L263:
 2998               	.LM368:
 2999 1014 8DEC      		ldi r24,lo8(-51)
 3000 1016 40E0      		ldi r20,lo8(0)
 3001 1018 50E0      		ldi r21,hi8(0)
 3002 101a 60E0      		ldi r22,hlo8(0)
 3003 101c 70E0      		ldi r23,hhi8(0)
 3004 101e 0E94 0000 		call send_cmd
 3005               	.LVL193:
 3006 1022 8823      		tst r24
 3007 1024 01F4      		brne .L266
 3008               	.LBB554:
 3009               	.LBB555:
 3010               	.LM369:
 3011 1026 8FEF      		ldi r24,lo8(-1)
 3012 1028 E0EC      		ldi r30,lo8(2496)
 3013 102a F9E0      		ldi r31,hi8(2496)
 3014 102c 8383      		std Z+3,r24
 3015               	.L279:
 3016               	.LM370:
 3017 102e 8091 C209 		lds r24,2498
 3018 1032 87FF      		sbrs r24,7
 3019 1034 00C0      		rjmp .L279
 3020               	.LM371:
 3021 1036 8091 C309 		lds r24,2499
 3022               	.LBE555:
 3023               	.LBE554:
 3024               	.LM372:
 3025 103a C801      		movw r24,r16
 3026 103c 60E4      		ldi r22,lo8(64)
 3027 103e 70E0      		ldi r23,hi8(64)
 3028               	.L292:
 3029 1040 0E94 0000 		call rcvr_datablock
 3030 1044 90E0      		ldi r25,lo8(0)
 3031               	.LVL194:
 3032 1046 8823      		tst r24
 3033 1048 01F4      		brne .L265
 3034               	.L266:
 3035 104a 91E0      		ldi r25,lo8(1)
 3036               	.LVL195:
 3037               	.L265:
 3038               	.LBB556:
 3039               	.LBB557:
 3040               	.LM373:
 3041 104c 80E1      		ldi r24,lo8(16)
 3042 104e E0E6      		ldi r30,lo8(1632)
 3043 1050 F6E0      		ldi r31,hi8(1632)
 3044               	.LVL196:
 3045 1052 8583      		std Z+5,r24
 3046               	.LBB558:
 3047               	.LBB559:
 3048               	.LM374:
 3049 1054 8FEF      		ldi r24,lo8(-1)
 3050 1056 E0EC      		ldi r30,lo8(2496)
 3051 1058 F9E0      		ldi r31,hi8(2496)
 3052 105a 8383      		std Z+3,r24
 3053               	.L281:
 3054               	.LM375:
 3055 105c 8091 C209 		lds r24,2498
 3056 1060 87FF      		sbrs r24,7
 3057 1062 00C0      		rjmp .L281
 3058               	.LM376:
 3059 1064 8091 C309 		lds r24,2499
 3060 1068 00C0      		rjmp .L252
 3061               	.LVL197:
 3062               	.L246:
 3063 106a 94E0      		ldi r25,lo8(4)
 3064               	.LVL198:
 3065 106c 00C0      		rjmp .L252
 3066               	.LVL199:
 3067               	.L248:
 3068 106e 90E0      		ldi r25,lo8(0)
 3069               	.LVL200:
 3070               	.L252:
 3071               	.LBE559:
 3072               	.LBE558:
 3073               	.LBE557:
 3074               	.LBE556:
 3075               	.LM377:
 3076 1070 892F      		mov r24,r25
 3077               	.LVL201:
 3078               	/* epilogue start */
 3079 1072 6096      		adiw r28,16
 3080 1074 CDBF      		out __SP_L__,r28
 3081 1076 DEBF      		out __SP_H__,r29
 3082 1078 CF91      		pop r28
 3083 107a DF91      		pop r29
 3084 107c 1F91      		pop r17
 3085 107e 0F91      		pop r16
 3086               	.LVL202:
 3087 1080 FF90      		pop r15
 3088 1082 0895      		ret
 3089               	.LFE39:
 3091               	.global	disk_timerproc
 3093               	disk_timerproc:
 3094               	.LFB40:
 3095               	.LM378:
 3096               	/* prologue: function */
 3097               	/* frame size = 0 */
 3098               	.LM379:
 3099 1084 8091 0000 		lds r24,Timer1
 3100               	.LVL203:
 3101               	.LM380:
 3102 1088 8823      		tst r24
 3103 108a 01F0      		breq .L301
 3104 108c 8150      		subi r24,lo8(-(-1))
 3105 108e 8093 0000 		sts Timer1,r24
 3106               	.L301:
 3107               	.LM381:
 3108 1092 8091 0000 		lds r24,Timer2
 3109               	.LVL204:
 3110               	.LM382:
 3111 1096 8823      		tst r24
 3112 1098 01F0      		breq .L302
 3113 109a 8150      		subi r24,lo8(-(-1))
 3114 109c 8093 0000 		sts Timer2,r24
 3115               	.L302:
 3116               	.LM383:
 3117 10a0 8091 0000 		lds r24,Stat
 3118               	.LVL205:
 3119               	.LM384:
 3120 10a4 897F      		andi r24,lo8(-7)
 3121               	.LM385:
 3122 10a6 8093 0000 		sts Stat,r24
 3123               	/* epilogue start */
 3124               	.LM386:
 3125 10aa 0895      		ret
 3126               	.LFE40:
 3128               	.global	get_fattime
 3130               	get_fattime:
 3131               	.LFB41:
 3132               	.LM387:
 3133 10ac EF92      		push r14
 3134 10ae FF92      		push r15
 3135 10b0 0F93      		push r16
 3136 10b2 1F93      		push r17
 3137 10b4 DF93      		push r29
 3138 10b6 CF93      		push r28
 3139 10b8 CDB7      		in r28,__SP_L__
 3140 10ba DEB7      		in r29,__SP_H__
 3141 10bc 2897      		sbiw r28,8
 3142 10be CDBF      		out __SP_L__,r28
 3143 10c0 DEBF      		out __SP_H__,r29
 3144               	/* prologue: function */
 3145               	/* frame size = 8 */
 3146               	.LM388:
 3147 10c2 6091 0000 		lds r22,UNIX_Time
 3148 10c6 7091 0000 		lds r23,(UNIX_Time)+1
 3149 10ca 8091 0000 		lds r24,(UNIX_Time)+2
 3150 10ce 9091 0000 		lds r25,(UNIX_Time)+3
 3151 10d2 6054      		subi r22,lo8(-(-14400))
 3152 10d4 7843      		sbci r23,hi8(-(-14400))
 3153 10d6 8040      		sbci r24,hlo8(-(-14400))
 3154 10d8 9040      		sbci r25,hhi8(-(-14400))
 3155 10da AE01      		movw r20,r28
 3156 10dc 4F5F      		subi r20,lo8(-(1))
 3157 10de 5F4F      		sbci r21,hi8(-(1))
 3158 10e0 0E94 0000 		call Time_UTCSecsToTime
 3159               	.LM389:
 3160 10e4 8885      		ldd r24,Y+8
 3161 10e6 90E0      		ldi r25,lo8(0)
 3162 10e8 0A97      		sbiw r24,10
 3163 10ea 7C01      		movw r14,r24
 3164 10ec 0027      		clr r16
 3165 10ee F7FC      		sbrc r15,7
 3166 10f0 0095      		com r16
 3167 10f2 102F      		mov r17,r16
 3168 10f4 A9E1      		ldi r26,25
 3169 10f6 EE0C      	1:	lsl r14
 3170 10f8 FF1C      		rol r15
 3171 10fa 001F      		rol r16
 3172 10fc 111F      		rol r17
 3173 10fe AA95      		dec r26
 3174 1100 01F4      		brne 1b
 3175               	.LM390:
 3176 1102 2E81      		ldd r18,Y+6
 3177 1104 30E0      		ldi r19,lo8(0)
 3178 1106 40E0      		ldi r20,lo8(0)
 3179 1108 50E0      		ldi r21,hi8(0)
 3180 110a A901      		movw r20,r18
 3181 110c 3327      		clr r19
 3182 110e 2227      		clr r18
 3183 1110 8F81      		ldd r24,Y+7
 3184 1112 90E0      		ldi r25,lo8(0)
 3185 1114 A0E0      		ldi r26,lo8(0)
 3186 1116 B0E0      		ldi r27,hi8(0)
 3187 1118 E5E1      		ldi r30,21
 3188 111a 880F      	1:	lsl r24
 3189 111c 991F      		rol r25
 3190 111e AA1F      		rol r26
 3191 1120 BB1F      		rol r27
 3192 1122 EA95      		dec r30
 3193 1124 01F4      		brne 1b
 3194 1126 282B      		or r18,r24
 3195 1128 392B      		or r19,r25
 3196 112a 4A2B      		or r20,r26
 3197 112c 5B2B      		or r21,r27
 3198               	.LM391:
 3199 112e 8C81      		ldd r24,Y+4
 3200 1130 90E0      		ldi r25,lo8(0)
 3201 1132 A0E0      		ldi r26,lo8(0)
 3202 1134 B0E0      		ldi r27,hi8(0)
 3203 1136 7BE0      		ldi r23,11
 3204 1138 880F      	1:	lsl r24
 3205 113a 991F      		rol r25
 3206 113c AA1F      		rol r26
 3207 113e BB1F      		rol r27
 3208 1140 7A95      		dec r23
 3209 1142 01F4      		brne 1b
 3210 1144 282B      		or r18,r24
 3211 1146 392B      		or r19,r25
 3212 1148 4A2B      		or r20,r26
 3213 114a 5B2B      		or r21,r27
 3214               	.LM392:
 3215 114c 8B81      		ldd r24,Y+3
 3216 114e 90E0      		ldi r25,lo8(0)
 3217 1150 A0E0      		ldi r26,lo8(0)
 3218 1152 B0E0      		ldi r27,hi8(0)
 3219 1154 65E0      		ldi r22,5
 3220 1156 880F      	1:	lsl r24
 3221 1158 991F      		rol r25
 3222 115a AA1F      		rol r26
 3223 115c BB1F      		rol r27
 3224 115e 6A95      		dec r22
 3225 1160 01F4      		brne 1b
 3226 1162 282B      		or r18,r24
 3227 1164 392B      		or r19,r25
 3228 1166 4A2B      		or r20,r26
 3229 1168 5B2B      		or r21,r27
 3230               	.LM393:
 3231 116a 8A81      		ldd r24,Y+2
 3232 116c 8695      		lsr r24
 3233 116e 90E0      		ldi r25,lo8(0)
 3234 1170 A0E0      		ldi r26,lo8(0)
 3235 1172 B0E0      		ldi r27,hi8(0)
 3236 1174 282B      		or r18,r24
 3237 1176 392B      		or r19,r25
 3238 1178 4A2B      		or r20,r26
 3239 117a 5B2B      		or r21,r27
 3240 117c 2E29      		or r18,r14
 3241 117e 3F29      		or r19,r15
 3242 1180 402B      		or r20,r16
 3243 1182 512B      		or r21,r17
 3244               	.LM394:
 3245 1184 B901      		movw r22,r18
 3246 1186 CA01      		movw r24,r20
 3247               	/* epilogue start */
 3248 1188 2896      		adiw r28,8
 3249 118a CDBF      		out __SP_L__,r28
 3250 118c DEBF      		out __SP_H__,r29
 3251 118e CF91      		pop r28
 3252 1190 DF91      		pop r29
 3253 1192 1F91      		pop r17
 3254 1194 0F91      		pop r16
 3255 1196 FF90      		pop r15
 3256 1198 EF90      		pop r14
 3257 119a 0895      		ret
 3258               	.LFE41:
 3261               	move_window:
 3262               	.LFB46:
 3263               	.LM395:
 3264               	.LVL206:
 3265 119c 6F92      		push r6
 3266 119e 7F92      		push r7
 3267 11a0 8F92      		push r8
 3268 11a2 9F92      		push r9
 3269 11a4 AF92      		push r10
 3270 11a6 BF92      		push r11
 3271 11a8 CF92      		push r12
 3272 11aa DF92      		push r13
 3273 11ac EF92      		push r14
 3274 11ae FF92      		push r15
 3275 11b0 0F93      		push r16
 3276 11b2 1F93      		push r17
 3277 11b4 CF93      		push r28
 3278 11b6 DF93      		push r29
 3279               	/* prologue: function */
 3280               	/* frame size = 0 */
 3281 11b8 EC01      		movw r28,r24
 3282 11ba 4A01      		movw r8,r20
 3283 11bc 5B01      		movw r10,r22
 3284               	.LM396:
 3285 11be CAA4      		ldd r12,Y+42
 3286 11c0 DBA4      		ldd r13,Y+43
 3287 11c2 ECA4      		ldd r14,Y+44
 3288 11c4 FDA4      		ldd r15,Y+45
 3289               	.LVL207:
 3290               	.LM397:
 3291 11c6 C416      		cp r12,r20
 3292 11c8 D506      		cpc r13,r21
 3293 11ca E606      		cpc r14,r22
 3294 11cc F706      		cpc r15,r23
 3295 11ce 01F4      		brne .+2
 3296 11d0 00C0      		rjmp .L307
 3297               	.LVL208:
 3298               	.LM398:
 3299 11d2 8C81      		ldd r24,Y+4
 3300 11d4 8823      		tst r24
 3301 11d6 01F0      		breq .L308
 3302               	.LM399:
 3303 11d8 BEE2      		ldi r27,lo8(46)
 3304 11da 6B2E      		mov r6,r27
 3305 11dc 712C      		mov r7,__zero_reg__
 3306 11de 6C0E      		add r6,r28
 3307 11e0 7D1E      		adc r7,r29
 3308 11e2 8981      		ldd r24,Y+1
 3309 11e4 B301      		movw r22,r6
 3310 11e6 A701      		movw r20,r14
 3311 11e8 9601      		movw r18,r12
 3312 11ea 01E0      		ldi r16,lo8(1)
 3313 11ec 0E94 0000 		call disk_write
 3314               	.LVL209:
 3315 11f0 8823      		tst r24
 3316 11f2 01F4      		brne .L309
 3317               	.LM400:
 3318 11f4 1C82      		std Y+4,__zero_reg__
 3319               	.LM401:
 3320 11f6 8E89      		ldd r24,Y+22
 3321 11f8 9F89      		ldd r25,Y+23
 3322 11fa A88D      		ldd r26,Y+24
 3323 11fc B98D      		ldd r27,Y+25
 3324 11fe 2E8D      		ldd r18,Y+30
 3325 1200 3F8D      		ldd r19,Y+31
 3326 1202 48A1      		ldd r20,Y+32
 3327 1204 59A1      		ldd r21,Y+33
 3328 1206 820F      		add r24,r18
 3329 1208 931F      		adc r25,r19
 3330 120a A41F      		adc r26,r20
 3331 120c B51F      		adc r27,r21
 3332 120e C816      		cp r12,r24
 3333 1210 D906      		cpc r13,r25
 3334 1212 EA06      		cpc r14,r26
 3335 1214 FB06      		cpc r15,r27
 3336 1216 00F4      		brsh .L308
 3337               	.LBB560:
 3338               	.LM402:
 3339 1218 1B81      		ldd r17,Y+3
 3340               	.LVL210:
 3341 121a 00C0      		rjmp .L310
 3342               	.L311:
 3343               	.LM403:
 3344 121c 8E89      		ldd r24,Y+22
 3345 121e 9F89      		ldd r25,Y+23
 3346 1220 A88D      		ldd r26,Y+24
 3347 1222 B98D      		ldd r27,Y+25
 3348 1224 C80E      		add r12,r24
 3349 1226 D91E      		adc r13,r25
 3350 1228 EA1E      		adc r14,r26
 3351 122a FB1E      		adc r15,r27
 3352               	.LM404:
 3353 122c 8981      		ldd r24,Y+1
 3354 122e B301      		movw r22,r6
 3355 1230 A701      		movw r20,r14
 3356 1232 9601      		movw r18,r12
 3357 1234 01E0      		ldi r16,lo8(1)
 3358 1236 0E94 0000 		call disk_write
 3359               	.LM405:
 3360 123a 1150      		subi r17,lo8(-(-1))
 3361               	.L310:
 3362 123c 1230      		cpi r17,lo8(2)
 3363 123e 00F4      		brsh .L311
 3364               	.LVL211:
 3365               	.L308:
 3366               	.LBE560:
 3367               	.LM406:
 3368 1240 8114      		cp r8,__zero_reg__
 3369 1242 9104      		cpc r9,__zero_reg__
 3370 1244 A104      		cpc r10,__zero_reg__
 3371 1246 B104      		cpc r11,__zero_reg__
 3372 1248 01F0      		breq .L307
 3373               	.LM407:
 3374 124a BE01      		movw r22,r28
 3375 124c 625D      		subi r22,lo8(-(46))
 3376 124e 7F4F      		sbci r23,hi8(-(46))
 3377 1250 8981      		ldd r24,Y+1
 3378 1252 A501      		movw r20,r10
 3379 1254 9401      		movw r18,r8
 3380 1256 01E0      		ldi r16,lo8(1)
 3381 1258 0E94 0000 		call disk_read
 3382 125c 8823      		tst r24
 3383 125e 01F4      		brne .L309
 3384               	.LM408:
 3385 1260 8AA6      		std Y+42,r8
 3386 1262 9BA6      		std Y+43,r9
 3387 1264 ACA6      		std Y+44,r10
 3388 1266 BDA6      		std Y+45,r11
 3389 1268 00C0      		rjmp .L312
 3390               	.L309:
 3391 126a 81E0      		ldi r24,lo8(1)
 3392 126c 00C0      		rjmp .L312
 3393               	.LVL212:
 3394               	.L307:
 3395 126e 80E0      		ldi r24,lo8(0)
 3396               	.LVL213:
 3397               	.L312:
 3398               	/* epilogue start */
 3399               	.LM409:
 3400 1270 DF91      		pop r29
 3401 1272 CF91      		pop r28
 3402               	.LVL214:
 3403 1274 1F91      		pop r17
 3404               	.LVL215:
 3405 1276 0F91      		pop r16
 3406 1278 FF90      		pop r15
 3407 127a EF90      		pop r14
 3408 127c DF90      		pop r13
 3409 127e CF90      		pop r12
 3410               	.LVL216:
 3411 1280 BF90      		pop r11
 3412 1282 AF90      		pop r10
 3413 1284 9F90      		pop r9
 3414 1286 8F90      		pop r8
 3415               	.LVL217:
 3416 1288 7F90      		pop r7
 3417 128a 6F90      		pop r6
 3418 128c 0895      		ret
 3419               	.LFE46:
 3422               	sync:
 3423               	.LFB47:
 3424               	.LM410:
 3425               	.LVL218:
 3426 128e 0F93      		push r16
 3427 1290 CF93      		push r28
 3428 1292 DF93      		push r29
 3429               	/* prologue: function */
 3430               	/* frame size = 0 */
 3431 1294 EC01      		movw r28,r24
 3432               	.LM411:
 3433 1296 40E0      		ldi r20,lo8(0)
 3434 1298 50E0      		ldi r21,hi8(0)
 3435 129a 60E0      		ldi r22,hlo8(0)
 3436 129c 70E0      		ldi r23,hhi8(0)
 3437 129e 0E94 0000 		call move_window
 3438               	.LVL219:
 3439               	.LM412:
 3440 12a2 8823      		tst r24
 3441               	.LVL220:
 3442 12a4 01F0      		breq .+2
 3443 12a6 00C0      		rjmp .L315
 3444               	.LM413:
 3445 12a8 8881      		ld r24,Y
 3446               	.LVL221:
 3447 12aa 8330      		cpi r24,lo8(3)
 3448 12ac 01F0      		breq .+2
 3449 12ae 00C0      		rjmp .L316
 3450 12b0 8D81      		ldd r24,Y+5
 3451 12b2 8823      		tst r24
 3452 12b4 01F4      		brne .+2
 3453 12b6 00C0      		rjmp .L316
 3454               	.LM414:
 3455 12b8 1AA6      		std Y+42,__zero_reg__
 3456 12ba 1BA6      		std Y+43,__zero_reg__
 3457 12bc 1CA6      		std Y+44,__zero_reg__
 3458 12be 1DA6      		std Y+45,__zero_reg__
 3459               	.LBB561:
 3460               	.LBB562:
 3461               	.LM415:
 3462 12c0 BE01      		movw r22,r28
 3463               	.LVL222:
 3464 12c2 625D      		subi r22,lo8(-(46))
 3465 12c4 7F4F      		sbci r23,hi8(-(46))
 3466 12c6 FB01      		movw r30,r22
 3467 12c8 80E0      		ldi r24,lo8(512)
 3468 12ca 92E0      		ldi r25,hi8(512)
 3469               	.LVL223:
 3470 12cc 00C0      		rjmp .L317
 3471               	.LVL224:
 3472               	.L318:
 3473               	.LM416:
 3474 12ce 1192      		st Z+,__zero_reg__
 3475               	.L317:
 3476 12d0 0197      		sbiw r24,1
 3477 12d2 2FEF      		ldi r18,hi8(-1)
 3478 12d4 8F3F      		cpi r24,lo8(-1)
 3479 12d6 9207      		cpc r25,r18
 3480 12d8 01F4      		brne .L318
 3481               	.LBE562:
 3482               	.LBE561:
 3483               	.LM417:
 3484 12da C45D      		subi r28,lo8(-(556))
 3485 12dc DD4F      		sbci r29,hi8(-(556))
 3486 12de 85E5      		ldi r24,lo8(85)
 3487               	.LVL225:
 3488 12e0 8993      		st Y+,r24
 3489 12e2 8AEA      		ldi r24,lo8(-86)
 3490 12e4 8883      		st Y,r24
 3491 12e6 CD52      		subi r28,lo8(-(-557))
 3492 12e8 D240      		sbci r29,hi8(-(-557))
 3493               	.LM418:
 3494 12ea 82E5      		ldi r24,lo8(82)
 3495 12ec 8EA7      		std Y+46,r24
 3496 12ee 8FA7      		std Y+47,r24
 3497 12f0 21E6      		ldi r18,lo8(97)
 3498 12f2 28AB      		std Y+48,r18
 3499 12f4 91E4      		ldi r25,lo8(65)
 3500 12f6 99AB      		std Y+49,r25
 3501               	.LM419:
 3502 12f8 CE5E      		subi r28,lo8(-(530))
 3503 12fa DD4F      		sbci r29,hi8(-(530))
 3504 12fc 82E7      		ldi r24,lo8(114)
 3505 12fe 8993      		st Y+,r24
 3506 1300 8993      		st Y+,r24
 3507 1302 9993      		st Y+,r25
 3508 1304 2883      		st Y,r18
 3509 1306 C551      		subi r28,lo8(-(-533))
 3510 1308 D240      		sbci r29,hi8(-(-533))
 3511               	.LM420:
 3512 130a 8E85      		ldd r24,Y+14
 3513 130c CA5E      		subi r28,lo8(-(534))
 3514 130e DD4F      		sbci r29,hi8(-(534))
 3515 1310 8883      		st Y,r24
 3516 1312 C651      		subi r28,lo8(-(-534))
 3517 1314 D240      		sbci r29,hi8(-(-534))
 3518 1316 8F85      		ldd r24,Y+15
 3519 1318 C95E      		subi r28,lo8(-(535))
 3520 131a DD4F      		sbci r29,hi8(-(535))
 3521 131c 8883      		st Y,r24
 3522 131e C751      		subi r28,lo8(-(-535))
 3523 1320 D240      		sbci r29,hi8(-(-535))
 3524 1322 8E85      		ldd r24,Y+14
 3525 1324 9F85      		ldd r25,Y+15
 3526 1326 A889      		ldd r26,Y+16
 3527 1328 B989      		ldd r27,Y+17
 3528 132a 9D01      		movw r18,r26
 3529 132c 4427      		clr r20
 3530 132e 5527      		clr r21
 3531 1330 C85E      		subi r28,lo8(-(536))
 3532 1332 DD4F      		sbci r29,hi8(-(536))
 3533 1334 2883      		st Y,r18
 3534 1336 2196      		adiw r28,1
 3535 1338 8B2F      		mov r24,r27
 3536 133a 9927      		clr r25
 3537 133c AA27      		clr r26
 3538 133e BB27      		clr r27
 3539 1340 8883      		st Y,r24
 3540 1342 C951      		subi r28,lo8(-(-537))
 3541 1344 D240      		sbci r29,hi8(-(-537))
 3542               	.LM421:
 3543 1346 8A85      		ldd r24,Y+10
 3544 1348 C65E      		subi r28,lo8(-(538))
 3545 134a DD4F      		sbci r29,hi8(-(538))
 3546 134c 8883      		st Y,r24
 3547 134e CA51      		subi r28,lo8(-(-538))
 3548 1350 D240      		sbci r29,hi8(-(-538))
 3549 1352 8B85      		ldd r24,Y+11
 3550 1354 C55E      		subi r28,lo8(-(539))
 3551 1356 DD4F      		sbci r29,hi8(-(539))
 3552 1358 8883      		st Y,r24
 3553 135a CB51      		subi r28,lo8(-(-539))
 3554 135c D240      		sbci r29,hi8(-(-539))
 3555 135e 8A85      		ldd r24,Y+10
 3556 1360 9B85      		ldd r25,Y+11
 3557 1362 AC85      		ldd r26,Y+12
 3558 1364 BD85      		ldd r27,Y+13
 3559 1366 9D01      		movw r18,r26
 3560 1368 4427      		clr r20
 3561 136a 5527      		clr r21
 3562 136c C45E      		subi r28,lo8(-(540))
 3563 136e DD4F      		sbci r29,hi8(-(540))
 3564 1370 2883      		st Y,r18
 3565 1372 2196      		adiw r28,1
 3566 1374 8B2F      		mov r24,r27
 3567 1376 9927      		clr r25
 3568 1378 AA27      		clr r26
 3569 137a BB27      		clr r27
 3570 137c 8883      		st Y,r24
 3571 137e CD51      		subi r28,lo8(-(-541))
 3572 1380 D240      		sbci r29,hi8(-(-541))
 3573               	.LM422:
 3574 1382 2A89      		ldd r18,Y+18
 3575 1384 3B89      		ldd r19,Y+19
 3576 1386 4C89      		ldd r20,Y+20
 3577 1388 5D89      		ldd r21,Y+21
 3578 138a 8981      		ldd r24,Y+1
 3579 138c 01E0      		ldi r16,lo8(1)
 3580 138e 0E94 0000 		call disk_write
 3581               	.LVL226:
 3582               	.LM423:
 3583 1392 1D82      		std Y+5,__zero_reg__
 3584               	.L316:
 3585               	.LM424:
 3586 1394 8981      		ldd r24,Y+1
 3587 1396 60E0      		ldi r22,lo8(0)
 3588 1398 40E0      		ldi r20,lo8(0)
 3589 139a 50E0      		ldi r21,hi8(0)
 3590 139c 0E94 0000 		call disk_ioctl
 3591 13a0 8111      		cpse r24,__zero_reg__
 3592 13a2 81E0      		ldi r24,lo8(1)
 3593               	.LVL227:
 3594               	.L315:
 3595               	.LVL228:
 3596               	/* epilogue start */
 3597               	.LM425:
 3598 13a4 DF91      		pop r29
 3599 13a6 CF91      		pop r28
 3600               	.LVL229:
 3601 13a8 0F91      		pop r16
 3602 13aa 0895      		ret
 3603               	.LFE47:
 3605               	.global	get_fat
 3607               	get_fat:
 3608               	.LFB48:
 3609               	.LM426:
 3610               	.LVL230:
 3611 13ac 7F92      		push r7
 3612 13ae 8F92      		push r8
 3613 13b0 9F92      		push r9
 3614 13b2 AF92      		push r10
 3615 13b4 BF92      		push r11
 3616 13b6 CF92      		push r12
 3617 13b8 DF92      		push r13
 3618 13ba EF92      		push r14
 3619 13bc FF92      		push r15
 3620 13be 0F93      		push r16
 3621 13c0 1F93      		push r17
 3622 13c2 CF93      		push r28
 3623 13c4 DF93      		push r29
 3624               	/* prologue: function */
 3625               	/* frame size = 0 */
 3626 13c6 4C01      		movw r8,r24
 3627 13c8 7A01      		movw r14,r20
 3628 13ca 8B01      		movw r16,r22
 3629               	.LM427:
 3630 13cc 4230      		cpi r20,lo8(2)
 3631 13ce 5105      		cpc r21,__zero_reg__
 3632 13d0 6105      		cpc r22,__zero_reg__
 3633 13d2 7105      		cpc r23,__zero_reg__
 3634               	.LVL231:
 3635 13d4 00F4      		brsh .+2
 3636 13d6 00C0      		rjmp .L322
 3637 13d8 F401      		movw r30,r8
 3638 13da 828D      		ldd r24,Z+26
 3639 13dc 938D      		ldd r25,Z+27
 3640 13de A48D      		ldd r26,Z+28
 3641 13e0 B58D      		ldd r27,Z+29
 3642 13e2 4817      		cp r20,r24
 3643 13e4 5907      		cpc r21,r25
 3644 13e6 6A07      		cpc r22,r26
 3645 13e8 7B07      		cpc r23,r27
 3646 13ea 00F0      		brlo .+2
 3647 13ec 00C0      		rjmp .L322
 3648               	.LM428:
 3649 13ee A68C      		ldd r10,Z+30
 3650 13f0 B78C      		ldd r11,Z+31
 3651 13f2 C0A0      		ldd r12,Z+32
 3652 13f4 D1A0      		ldd r13,Z+33
 3653               	.LVL232:
 3654               	.LM429:
 3655 13f6 8081      		ld r24,Z
 3656 13f8 8230      		cpi r24,lo8(2)
 3657 13fa 01F4      		brne .+2
 3658 13fc 00C0      		rjmp .L325
 3659 13fe 8330      		cpi r24,lo8(3)
 3660 1400 01F4      		brne .+2
 3661 1402 00C0      		rjmp .L326
 3662 1404 8130      		cpi r24,lo8(1)
 3663 1406 01F0      		breq .+2
 3664 1408 00C0      		rjmp .L323
 3665               	.LM430:
 3666 140a EA01      		movw r28,r20
 3667               	.LVL233:
 3668 140c D695      		lsr r29
 3669 140e C795      		ror r28
 3670               	.LVL234:
 3671 1410 CE0D      		add r28,r14
 3672 1412 DF1D      		adc r29,r15
 3673               	.LM431:
 3674 1414 AE01      		movw r20,r28
 3675 1416 452F      		mov r20,r21
 3676 1418 5527      		clr r21
 3677 141a 4695      		lsr r20
 3678 141c 60E0      		ldi r22,lo8(0)
 3679 141e 70E0      		ldi r23,hi8(0)
 3680 1420 4A0D      		add r20,r10
 3681 1422 5B1D      		adc r21,r11
 3682 1424 6C1D      		adc r22,r12
 3683 1426 7D1D      		adc r23,r13
 3684 1428 C401      		movw r24,r8
 3685 142a 0E94 0000 		call move_window
 3686 142e 8823      		tst r24
 3687 1430 01F0      		breq .+2
 3688 1432 00C0      		rjmp .L323
 3689               	.LM432:
 3690 1434 FE01      		movw r30,r28
 3691 1436 F170      		andi r31,hi8(511)
 3692 1438 E80D      		add r30,r8
 3693 143a F91D      		adc r31,r9
 3694 143c 76A4      		ldd r7,Z+46
 3695 143e 2196      		adiw r28,1
 3696               	.LVL235:
 3697               	.LM433:
 3698 1440 AE01      		movw r20,r28
 3699 1442 452F      		mov r20,r21
 3700 1444 5527      		clr r21
 3701 1446 4695      		lsr r20
 3702 1448 60E0      		ldi r22,lo8(0)
 3703 144a 70E0      		ldi r23,hi8(0)
 3704 144c 4A0D      		add r20,r10
 3705 144e 5B1D      		adc r21,r11
 3706 1450 6C1D      		adc r22,r12
 3707 1452 7D1D      		adc r23,r13
 3708 1454 C401      		movw r24,r8
 3709 1456 0E94 0000 		call move_window
 3710 145a 8823      		tst r24
 3711 145c 01F0      		breq .+2
 3712 145e 00C0      		rjmp .L323
 3713               	.LM434:
 3714 1460 672D      		mov r22,r7
 3715               	.LVL236:
 3716 1462 70E0      		ldi r23,lo8(0)
 3717               	.LVL237:
 3718               	.LM435:
 3719 1464 D170      		andi r29,hi8(511)
 3720 1466 C80D      		add r28,r8
 3721 1468 D91D      		adc r29,r9
 3722 146a 9EA5      		ldd r25,Y+46
 3723 146c 80E0      		ldi r24,lo8(0)
 3724 146e 682B      		or r22,r24
 3725 1470 792B      		or r23,r25
 3726               	.LVL238:
 3727               	.LM436:
 3728 1472 C701      		movw r24,r14
 3729               	.LVL239:
 3730 1474 8170      		andi r24,lo8(1)
 3731 1476 9070      		andi r25,hi8(1)
 3732 1478 892B      		or r24,r25
 3733 147a 01F0      		breq .L327
 3734 147c 94E0      		ldi r25,4
 3735 147e 7695      	1:	lsr r23
 3736 1480 6795      		ror r22
 3737 1482 9A95      		dec r25
 3738 1484 01F4      		brne 1b
 3739 1486 9B01      		movw r18,r22
 3740 1488 00C0      		rjmp .L330
 3741               	.L327:
 3742 148a 9B01      		movw r18,r22
 3743 148c 40E0      		ldi r20,lo8(0)
 3744 148e 50E0      		ldi r21,hi8(0)
 3745 1490 3F70      		andi r19,hi8(4095)
 3746 1492 4070      		andi r20,hlo8(4095)
 3747 1494 5070      		andi r21,hhi8(4095)
 3748 1496 00C0      		rjmp .L328
 3749               	.LVL240:
 3750               	.L325:
 3751               	.LM437:
 3752 1498 452F      		mov r20,r21
 3753 149a 562F      		mov r21,r22
 3754 149c 672F      		mov r22,r23
 3755 149e 7727      		clr r23
 3756               	.LVL241:
 3757 14a0 4A0D      		add r20,r10
 3758 14a2 5B1D      		adc r21,r11
 3759 14a4 6C1D      		adc r22,r12
 3760 14a6 7D1D      		adc r23,r13
 3761 14a8 C401      		movw r24,r8
 3762 14aa 0E94 0000 		call move_window
 3763 14ae 8823      		tst r24
 3764 14b0 01F0      		breq .+2
 3765 14b2 00C0      		rjmp .L323
 3766               	.LM438:
 3767 14b4 F701      		movw r30,r14
 3768               	.LVL242:
 3769 14b6 EE0F      		lsl r30
 3770 14b8 FF1F      		rol r31
 3771 14ba F170      		andi r31,hi8(511)
 3772 14bc E80D      		add r30,r8
 3773 14be F91D      		adc r31,r9
 3774 14c0 97A5      		ldd r25,Z+47
 3775 14c2 80E0      		ldi r24,lo8(0)
 3776 14c4 26A5      		ldd r18,Z+46
 3777 14c6 30E0      		ldi r19,lo8(0)
 3778 14c8 822B      		or r24,r18
 3779 14ca 932B      		or r25,r19
 3780 14cc 9C01      		movw r18,r24
 3781               	.LVL243:
 3782               	.L330:
 3783 14ce 40E0      		ldi r20,lo8(0)
 3784 14d0 50E0      		ldi r21,hi8(0)
 3785 14d2 00C0      		rjmp .L328
 3786               	.LVL244:
 3787               	.L326:
 3788               	.LM439:
 3789 14d4 B7E0      		ldi r27,7
 3790 14d6 7695      	1:	lsr r23
 3791 14d8 6795      		ror r22
 3792 14da 5795      		ror r21
 3793 14dc 4795      		ror r20
 3794 14de BA95      		dec r27
 3795 14e0 01F4      		brne 1b
 3796               	.LVL245:
 3797 14e2 4A0D      		add r20,r10
 3798 14e4 5B1D      		adc r21,r11
 3799 14e6 6C1D      		adc r22,r12
 3800 14e8 7D1D      		adc r23,r13
 3801 14ea C401      		movw r24,r8
 3802 14ec 0E94 0000 		call move_window
 3803 14f0 8823      		tst r24
 3804 14f2 01F4      		brne .L323
 3805               	.LM440:
 3806 14f4 F701      		movw r30,r14
 3807               	.LVL246:
 3808 14f6 EE0F      		lsl r30
 3809 14f8 FF1F      		rol r31
 3810 14fa EE0F      		lsl r30
 3811 14fc FF1F      		rol r31
 3812 14fe F170      		andi r31,hi8(511)
 3813 1500 E80D      		add r30,r8
 3814 1502 F91D      		adc r31,r9
 3815 1504 81A9      		ldd r24,Z+49
 3816 1506 90E0      		ldi r25,lo8(0)
 3817 1508 A0E0      		ldi r26,lo8(0)
 3818 150a B0E0      		ldi r27,hi8(0)
 3819 150c 582F      		mov r21,r24
 3820 150e 4427      		clr r20
 3821 1510 3327      		clr r19
 3822 1512 2227      		clr r18
 3823 1514 80A9      		ldd r24,Z+48
 3824 1516 90E0      		ldi r25,lo8(0)
 3825 1518 A0E0      		ldi r26,lo8(0)
 3826 151a B0E0      		ldi r27,hi8(0)
 3827 151c DC01      		movw r26,r24
 3828 151e 9927      		clr r25
 3829 1520 8827      		clr r24
 3830 1522 282B      		or r18,r24
 3831 1524 392B      		or r19,r25
 3832 1526 4A2B      		or r20,r26
 3833 1528 5B2B      		or r21,r27
 3834 152a 86A5      		ldd r24,Z+46
 3835 152c 90E0      		ldi r25,lo8(0)
 3836 152e A0E0      		ldi r26,lo8(0)
 3837 1530 B0E0      		ldi r27,hi8(0)
 3838 1532 282B      		or r18,r24
 3839 1534 392B      		or r19,r25
 3840 1536 4A2B      		or r20,r26
 3841 1538 5B2B      		or r21,r27
 3842 153a 97A5      		ldd r25,Z+47
 3843 153c 80E0      		ldi r24,lo8(0)
 3844 153e A0E0      		ldi r26,lo8(0)
 3845 1540 B0E0      		ldi r27,hi8(0)
 3846 1542 282B      		or r18,r24
 3847 1544 392B      		or r19,r25
 3848 1546 4A2B      		or r20,r26
 3849 1548 5B2B      		or r21,r27
 3850 154a 5F70      		andi r21,hhi8(268435455)
 3851 154c 00C0      		rjmp .L328
 3852               	.LVL247:
 3853               	.L322:
 3854 154e 21E0      		ldi r18,lo8(1)
 3855 1550 30E0      		ldi r19,hi8(1)
 3856 1552 40E0      		ldi r20,hlo8(1)
 3857 1554 50E0      		ldi r21,hhi8(1)
 3858 1556 00C0      		rjmp .L328
 3859               	.LVL248:
 3860               	.L323:
 3861 1558 2FEF      		ldi r18,lo8(-1)
 3862 155a 3FEF      		ldi r19,hi8(-1)
 3863 155c 4FEF      		ldi r20,hlo8(-1)
 3864 155e 5FEF      		ldi r21,hhi8(-1)
 3865               	.LVL249:
 3866               	.L328:
 3867               	.LM441:
 3868 1560 B901      		movw r22,r18
 3869               	.LVL250:
 3870 1562 CA01      		movw r24,r20
 3871               	/* epilogue start */
 3872 1564 DF91      		pop r29
 3873 1566 CF91      		pop r28
 3874               	.LVL251:
 3875 1568 1F91      		pop r17
 3876 156a 0F91      		pop r16
 3877 156c FF90      		pop r15
 3878 156e EF90      		pop r14
 3879               	.LVL252:
 3880 1570 DF90      		pop r13
 3881 1572 CF90      		pop r12
 3882 1574 BF90      		pop r11
 3883 1576 AF90      		pop r10
 3884               	.LVL253:
 3885 1578 9F90      		pop r9
 3886 157a 8F90      		pop r8
 3887               	.LVL254:
 3888 157c 7F90      		pop r7
 3889 157e 0895      		ret
 3890               	.LFE48:
 3892               	.global	put_fat
 3894               	put_fat:
 3895               	.LFB49:
 3896               	.LM442:
 3897               	.LVL255:
 3898 1580 2F92      		push r2
 3899 1582 3F92      		push r3
 3900 1584 4F92      		push r4
 3901 1586 5F92      		push r5
 3902 1588 6F92      		push r6
 3903 158a 7F92      		push r7
 3904 158c 8F92      		push r8
 3905 158e 9F92      		push r9
 3906 1590 AF92      		push r10
 3907 1592 BF92      		push r11
 3908 1594 CF92      		push r12
 3909 1596 DF92      		push r13
 3910 1598 EF92      		push r14
 3911 159a FF92      		push r15
 3912 159c 0F93      		push r16
 3913               	.LVL256:
 3914 159e 1F93      		push r17
 3915 15a0 CF93      		push r28
 3916 15a2 DF93      		push r29
 3917               	/* prologue: function */
 3918               	/* frame size = 0 */
 3919 15a4 3C01      		movw r6,r24
 3920 15a6 6A01      		movw r12,r20
 3921 15a8 7B01      		movw r14,r22
 3922 15aa 4801      		movw r8,r16
 3923 15ac 5901      		movw r10,r18
 3924               	.LVL257:
 3925               	.LM443:
 3926 15ae 4230      		cpi r20,lo8(2)
 3927 15b0 5105      		cpc r21,__zero_reg__
 3928 15b2 6105      		cpc r22,__zero_reg__
 3929 15b4 7105      		cpc r23,__zero_reg__
 3930               	.LVL258:
 3931 15b6 00F4      		brsh .+2
 3932 15b8 00C0      		rjmp .L332
 3933               	.LVL259:
 3934 15ba F301      		movw r30,r6
 3935 15bc 828D      		ldd r24,Z+26
 3936 15be 938D      		ldd r25,Z+27
 3937 15c0 A48D      		ldd r26,Z+28
 3938 15c2 B58D      		ldd r27,Z+29
 3939 15c4 4817      		cp r20,r24
 3940 15c6 5907      		cpc r21,r25
 3941 15c8 6A07      		cpc r22,r26
 3942 15ca 7B07      		cpc r23,r27
 3943 15cc 00F0      		brlo .+2
 3944 15ce 00C0      		rjmp .L332
 3945               	.LM444:
 3946 15d0 268C      		ldd r2,Z+30
 3947 15d2 378C      		ldd r3,Z+31
 3948 15d4 40A0      		ldd r4,Z+32
 3949 15d6 51A0      		ldd r5,Z+33
 3950               	.LVL260:
 3951               	.LM445:
 3952 15d8 8081      		ld r24,Z
 3953 15da 8230      		cpi r24,lo8(2)
 3954 15dc 01F4      		brne .+2
 3955 15de 00C0      		rjmp .L335
 3956 15e0 8330      		cpi r24,lo8(3)
 3957 15e2 01F4      		brne .+2
 3958 15e4 00C0      		rjmp .L336
 3959 15e6 8130      		cpi r24,lo8(1)
 3960 15e8 01F0      		breq .L334
 3961 15ea 22E0      		ldi r18,lo8(2)
 3962               	.LVL261:
 3963 15ec 00C0      		rjmp .L337
 3964               	.LVL262:
 3965               	.L334:
 3966               	.LM446:
 3967 15ee EA01      		movw r28,r20
 3968               	.LVL263:
 3969 15f0 D695      		lsr r29
 3970 15f2 C795      		ror r28
 3971               	.LVL264:
 3972 15f4 C40F      		add r28,r20
 3973 15f6 D51F      		adc r29,r21
 3974               	.LM447:
 3975 15f8 AE01      		movw r20,r28
 3976               	.LVL265:
 3977 15fa 452F      		mov r20,r21
 3978 15fc 5527      		clr r21
 3979 15fe 4695      		lsr r20
 3980 1600 60E0      		ldi r22,lo8(0)
 3981 1602 70E0      		ldi r23,hi8(0)
 3982 1604 420D      		add r20,r2
 3983 1606 531D      		adc r21,r3
 3984 1608 641D      		adc r22,r4
 3985 160a 751D      		adc r23,r5
 3986 160c C301      		movw r24,r6
 3987 160e 0E94 0000 		call move_window
 3988 1612 282F      		mov r18,r24
 3989               	.LVL266:
 3990               	.LM448:
 3991 1614 8823      		tst r24
 3992 1616 01F0      		breq .+2
 3993 1618 00C0      		rjmp .L337
 3994               	.LVL267:
 3995               	.LM449:
 3996 161a DE01      		movw r26,r28
 3997 161c B170      		andi r27,hi8(511)
 3998               	.LM450:
 3999 161e 8601      		movw r16,r12
 4000               	.LVL268:
 4001 1620 0170      		andi r16,lo8(1)
 4002 1622 1070      		andi r17,hi8(1)
 4003 1624 0115      		cp r16,__zero_reg__
 4004 1626 1105      		cpc r17,__zero_reg__
 4005 1628 01F0      		breq .L338
 4006 162a F301      		movw r30,r6
 4007 162c EA0F      		add r30,r26
 4008 162e FB1F      		adc r31,r27
 4009 1630 86A5      		ldd r24,Z+46
 4010               	.LVL269:
 4011 1632 8F70      		andi r24,lo8(15)
 4012 1634 982D      		mov r25,r8
 4013               	.LVL270:
 4014 1636 9295      		swap r25
 4015 1638 907F      		andi r25,lo8(-16)
 4016 163a 982B      		or r25,r24
 4017 163c 00C0      		rjmp .L339
 4018               	.LVL271:
 4019               	.L338:
 4020 163e 982D      		mov r25,r8
 4021               	.LVL272:
 4022               	.L339:
 4023 1640 A60D      		add r26,r6
 4024 1642 B71D      		adc r27,r7
 4025 1644 9E96      		adiw r26,46
 4026 1646 9C93      		st X,r25
 4027               	.LM451:
 4028 1648 2196      		adiw r28,1
 4029               	.LVL273:
 4030               	.LM452:
 4031 164a 81E0      		ldi r24,lo8(1)
 4032 164c F301      		movw r30,r6
 4033 164e 8483      		std Z+4,r24
 4034               	.LM453:
 4035 1650 AE01      		movw r20,r28
 4036 1652 452F      		mov r20,r21
 4037 1654 5527      		clr r21
 4038 1656 4695      		lsr r20
 4039 1658 60E0      		ldi r22,lo8(0)
 4040 165a 70E0      		ldi r23,hi8(0)
 4041 165c 420D      		add r20,r2
 4042 165e 531D      		adc r21,r3
 4043 1660 641D      		adc r22,r4
 4044 1662 751D      		adc r23,r5
 4045 1664 C301      		movw r24,r6
 4046 1666 0E94 0000 		call move_window
 4047               	.LVL274:
 4048 166a 282F      		mov r18,r24
 4049               	.LVL275:
 4050               	.LM454:
 4051 166c 8823      		tst r24
 4052 166e 01F0      		breq .+2
 4053 1670 00C0      		rjmp .L337
 4054               	.LVL276:
 4055               	.LM455:
 4056 1672 D170      		andi r29,hi8(511)
 4057               	.LVL277:
 4058               	.LM456:
 4059 1674 012B      		or r16,r17
 4060 1676 01F0      		breq .L340
 4061 1678 34E0      		ldi r19,4
 4062 167a B694      	1:	lsr r11
 4063 167c A794      		ror r10
 4064 167e 9794      		ror r9
 4065 1680 8794      		ror r8
 4066 1682 3A95      		dec r19
 4067 1684 01F4      		brne 1b
 4068 1686 482D      		mov r20,r8
 4069 1688 00C0      		rjmp .L341
 4070               	.L340:
 4071 168a F301      		movw r30,r6
 4072 168c EC0F      		add r30,r28
 4073 168e FD1F      		adc r31,r29
 4074 1690 46A5      		ldd r20,Z+46
 4075 1692 407F      		andi r20,lo8(-16)
 4076 1694 BB27      		clr r27
 4077 1696 AB2D      		mov r26,r11
 4078 1698 9A2D      		mov r25,r10
 4079 169a 892D      		mov r24,r9
 4080               	.LVL278:
 4081 169c 8F70      		andi r24,lo8(15)
 4082 169e 482B      		or r20,r24
 4083               	.LVL279:
 4084               	.L341:
 4085 16a0 C60D      		add r28,r6
 4086 16a2 D71D      		adc r29,r7
 4087 16a4 4EA7      		std Y+46,r20
 4088 16a6 00C0      		rjmp .L337
 4089               	.LVL280:
 4090               	.L335:
 4091               	.LM457:
 4092 16a8 452F      		mov r20,r21
 4093 16aa 562F      		mov r21,r22
 4094 16ac 672F      		mov r22,r23
 4095 16ae 7727      		clr r23
 4096               	.LVL281:
 4097 16b0 420D      		add r20,r2
 4098 16b2 531D      		adc r21,r3
 4099 16b4 641D      		adc r22,r4
 4100 16b6 751D      		adc r23,r5
 4101 16b8 C301      		movw r24,r6
 4102 16ba 0E94 0000 		call move_window
 4103 16be 282F      		mov r18,r24
 4104               	.LVL282:
 4105               	.LM458:
 4106 16c0 8823      		tst r24
 4107 16c2 01F4      		brne .L337
 4108               	.LVL283:
 4109               	.LM459:
 4110 16c4 F601      		movw r30,r12
 4111               	.LVL284:
 4112 16c6 EE0F      		lsl r30
 4113 16c8 FF1F      		rol r31
 4114 16ca F170      		andi r31,hi8(511)
 4115 16cc E60D      		add r30,r6
 4116 16ce F71D      		adc r31,r7
 4117 16d0 86A6      		std Z+46,r8
 4118 16d2 892D      		mov r24,r9
 4119 16d4 9927      		clr r25
 4120               	.LVL285:
 4121 16d6 87A7      		std Z+47,r24
 4122 16d8 00C0      		rjmp .L337
 4123               	.LVL286:
 4124               	.L336:
 4125               	.LM460:
 4126 16da B7E0      		ldi r27,7
 4127 16dc 7695      	1:	lsr r23
 4128 16de 6795      		ror r22
 4129 16e0 5795      		ror r21
 4130 16e2 4795      		ror r20
 4131 16e4 BA95      		dec r27
 4132 16e6 01F4      		brne 1b
 4133               	.LVL287:
 4134 16e8 420D      		add r20,r2
 4135 16ea 531D      		adc r21,r3
 4136 16ec 641D      		adc r22,r4
 4137 16ee 751D      		adc r23,r5
 4138 16f0 C301      		movw r24,r6
 4139 16f2 0E94 0000 		call move_window
 4140 16f6 282F      		mov r18,r24
 4141               	.LVL288:
 4142               	.LM461:
 4143 16f8 8823      		tst r24
 4144 16fa 01F4      		brne .L337
 4145               	.LVL289:
 4146               	.LM462:
 4147 16fc F601      		movw r30,r12
 4148               	.LVL290:
 4149 16fe EE0F      		lsl r30
 4150 1700 FF1F      		rol r31
 4151 1702 EE0F      		lsl r30
 4152 1704 FF1F      		rol r31
 4153 1706 F170      		andi r31,hi8(511)
 4154 1708 E60D      		add r30,r6
 4155 170a F71D      		adc r31,r7
 4156 170c 86A6      		std Z+46,r8
 4157 170e 892D      		mov r24,r9
 4158 1710 9927      		clr r25
 4159               	.LVL291:
 4160 1712 87A7      		std Z+47,r24
 4161 1714 C501      		movw r24,r10
 4162 1716 AA27      		clr r26
 4163 1718 BB27      		clr r27
 4164 171a 80AB      		std Z+48,r24
 4165 171c 8B2D      		mov r24,r11
 4166 171e 9927      		clr r25
 4167 1720 AA27      		clr r26
 4168 1722 BB27      		clr r27
 4169 1724 81AB      		std Z+49,r24
 4170               	.LVL292:
 4171               	.L337:
 4172               	.LM463:
 4173 1726 81E0      		ldi r24,lo8(1)
 4174 1728 F301      		movw r30,r6
 4175 172a 8483      		std Z+4,r24
 4176 172c 00C0      		rjmp .L342
 4177               	.LVL293:
 4178               	.L332:
 4179 172e 22E0      		ldi r18,lo8(2)
 4180               	.LVL294:
 4181               	.L342:
 4182               	.LM464:
 4183 1730 822F      		mov r24,r18
 4184               	/* epilogue start */
 4185 1732 DF91      		pop r29
 4186 1734 CF91      		pop r28
 4187               	.LVL295:
 4188 1736 1F91      		pop r17
 4189 1738 0F91      		pop r16
 4190 173a FF90      		pop r15
 4191 173c EF90      		pop r14
 4192 173e DF90      		pop r13
 4193 1740 CF90      		pop r12
 4194 1742 BF90      		pop r11
 4195 1744 AF90      		pop r10
 4196 1746 9F90      		pop r9
 4197 1748 8F90      		pop r8
 4198               	.LVL296:
 4199 174a 7F90      		pop r7
 4200 174c 6F90      		pop r6
 4201               	.LVL297:
 4202 174e 5F90      		pop r5
 4203 1750 4F90      		pop r4
 4204 1752 3F90      		pop r3
 4205 1754 2F90      		pop r2
 4206               	.LVL298:
 4207 1756 0895      		ret
 4208               	.LFE49:
 4211               	remove_chain:
 4212               	.LFB50:
 4213               	.LM465:
 4214               	.LVL299:
 4215 1758 9F92      		push r9
 4216 175a AF92      		push r10
 4217 175c BF92      		push r11
 4218 175e CF92      		push r12
 4219 1760 DF92      		push r13
 4220 1762 EF92      		push r14
 4221 1764 FF92      		push r15
 4222 1766 0F93      		push r16
 4223 1768 1F93      		push r17
 4224 176a CF93      		push r28
 4225 176c DF93      		push r29
 4226               	/* prologue: function */
 4227               	/* frame size = 0 */
 4228 176e EC01      		movw r28,r24
 4229 1770 7A01      		movw r14,r20
 4230 1772 8B01      		movw r16,r22
 4231               	.LM466:
 4232 1774 4230      		cpi r20,lo8(2)
 4233 1776 5105      		cpc r21,__zero_reg__
 4234 1778 6105      		cpc r22,__zero_reg__
 4235 177a 7105      		cpc r23,__zero_reg__
 4236 177c 00F4      		brsh .+2
 4237 177e 00C0      		rjmp .L345
 4238               	.LVL300:
 4239 1780 8A8D      		ldd r24,Y+26
 4240 1782 9B8D      		ldd r25,Y+27
 4241 1784 AC8D      		ldd r26,Y+28
 4242 1786 BD8D      		ldd r27,Y+29
 4243 1788 4817      		cp r20,r24
 4244 178a 5907      		cpc r21,r25
 4245 178c 6A07      		cpc r22,r26
 4246 178e 7B07      		cpc r23,r27
 4247 1790 00F4      		brsh .+2
 4248 1792 00C0      		rjmp .L353
 4249 1794 00C0      		rjmp .L345
 4250               	.LVL301:
 4251               	.L351:
 4252               	.LM467:
 4253 1796 CE01      		movw r24,r28
 4254 1798 B801      		movw r22,r16
 4255 179a A701      		movw r20,r14
 4256 179c 0E94 0000 		call get_fat
 4257 17a0 5B01      		movw r10,r22
 4258 17a2 6C01      		movw r12,r24
 4259               	.LM468:
 4260 17a4 6115      		cp r22,__zero_reg__
 4261 17a6 7105      		cpc r23,__zero_reg__
 4262 17a8 8105      		cpc r24,__zero_reg__
 4263 17aa 9105      		cpc r25,__zero_reg__
 4264 17ac 01F4      		brne .+2
 4265 17ae 00C0      		rjmp .L347
 4266               	.LVL302:
 4267               	.LM469:
 4268 17b0 81E0      		ldi r24,lo8(1)
 4269 17b2 A816      		cp r10,r24
 4270 17b4 B104      		cpc r11,__zero_reg__
 4271 17b6 C104      		cpc r12,__zero_reg__
 4272 17b8 D104      		cpc r13,__zero_reg__
 4273 17ba 01F0      		breq .L345
 4274               	.LVL303:
 4275               	.LM470:
 4276 17bc 2FEF      		ldi r18,lo8(-1)
 4277 17be A216      		cp r10,r18
 4278 17c0 2FEF      		ldi r18,hi8(-1)
 4279 17c2 B206      		cpc r11,r18
 4280 17c4 2FEF      		ldi r18,hlo8(-1)
 4281 17c6 C206      		cpc r12,r18
 4282 17c8 2FEF      		ldi r18,hhi8(-1)
 4283 17ca D206      		cpc r13,r18
 4284 17cc 01F4      		brne .L348
 4285 17ce 81E0      		ldi r24,lo8(1)
 4286               	.LVL304:
 4287 17d0 00C0      		rjmp .L349
 4288               	.LVL305:
 4289               	.L348:
 4290               	.LM471:
 4291 17d2 CE01      		movw r24,r28
 4292 17d4 B801      		movw r22,r16
 4293 17d6 A701      		movw r20,r14
 4294 17d8 00E0      		ldi r16,lo8(0)
 4295 17da 10E0      		ldi r17,hi8(0)
 4296 17dc 20E0      		ldi r18,hlo8(0)
 4297 17de 30E0      		ldi r19,hhi8(0)
 4298 17e0 0E94 0000 		call put_fat
 4299               	.LM472:
 4300 17e4 8823      		tst r24
 4301               	.LVL306:
 4302 17e6 01F4      		brne .L349
 4303               	.LM473:
 4304 17e8 8E85      		ldd r24,Y+14
 4305 17ea 9F85      		ldd r25,Y+15
 4306 17ec A889      		ldd r26,Y+16
 4307 17ee B989      		ldd r27,Y+17
 4308               	.LVL307:
 4309 17f0 8F3F      		cpi r24,lo8(-1)
 4310 17f2 2FEF      		ldi r18,hi8(-1)
 4311 17f4 9207      		cpc r25,r18
 4312 17f6 2FEF      		ldi r18,hlo8(-1)
 4313 17f8 A207      		cpc r26,r18
 4314 17fa 2FEF      		ldi r18,hhi8(-1)
 4315 17fc B207      		cpc r27,r18
 4316 17fe 01F0      		breq .L350
 4317               	.LM474:
 4318 1800 0196      		adiw r24,1
 4319 1802 A11D      		adc r26,__zero_reg__
 4320 1804 B11D      		adc r27,__zero_reg__
 4321 1806 8E87      		std Y+14,r24
 4322 1808 9F87      		std Y+15,r25
 4323 180a A88B      		std Y+16,r26
 4324 180c B98B      		std Y+17,r27
 4325               	.LM475:
 4326 180e 9D82      		std Y+5,r9
 4327               	.L350:
 4328 1810 8601      		movw r16,r12
 4329 1812 7501      		movw r14,r10
 4330 1814 00C0      		rjmp .L354
 4331               	.LVL308:
 4332               	.L353:
 4333 1816 9924      		clr r9
 4334 1818 9394      		inc r9
 4335               	.LVL309:
 4336               	.L354:
 4337               	.LM476:
 4338 181a 8A8D      		ldd r24,Y+26
 4339 181c 9B8D      		ldd r25,Y+27
 4340 181e AC8D      		ldd r26,Y+28
 4341 1820 BD8D      		ldd r27,Y+29
 4342 1822 E816      		cp r14,r24
 4343 1824 F906      		cpc r15,r25
 4344 1826 0A07      		cpc r16,r26
 4345 1828 1B07      		cpc r17,r27
 4346 182a 00F4      		brsh .+2
 4347 182c 00C0      		rjmp .L351
 4348 182e 00C0      		rjmp .L347
 4349               	.LVL310:
 4350               	.L345:
 4351 1830 82E0      		ldi r24,lo8(2)
 4352               	.LVL311:
 4353 1832 00C0      		rjmp .L349
 4354               	.LVL312:
 4355               	.L347:
 4356 1834 80E0      		ldi r24,lo8(0)
 4357               	.LVL313:
 4358               	.L349:
 4359               	.LVL314:
 4360               	/* epilogue start */
 4361               	.LM477:
 4362 1836 DF91      		pop r29
 4363 1838 CF91      		pop r28
 4364               	.LVL315:
 4365 183a 1F91      		pop r17
 4366 183c 0F91      		pop r16
 4367 183e FF90      		pop r15
 4368 1840 EF90      		pop r14
 4369               	.LVL316:
 4370 1842 DF90      		pop r13
 4371 1844 CF90      		pop r12
 4372 1846 BF90      		pop r11
 4373 1848 AF90      		pop r10
 4374               	.LVL317:
 4375 184a 9F90      		pop r9
 4376 184c 0895      		ret
 4377               	.LFE50:
 4380               	create_chain:
 4381               	.LFB51:
 4382               	.LM478:
 4383               	.LVL318:
 4384 184e 2F92      		push r2
 4385 1850 3F92      		push r3
 4386 1852 4F92      		push r4
 4387 1854 5F92      		push r5
 4388 1856 6F92      		push r6
 4389 1858 7F92      		push r7
 4390 185a 8F92      		push r8
 4391 185c 9F92      		push r9
 4392 185e AF92      		push r10
 4393 1860 BF92      		push r11
 4394 1862 CF92      		push r12
 4395 1864 DF92      		push r13
 4396 1866 EF92      		push r14
 4397 1868 FF92      		push r15
 4398 186a 0F93      		push r16
 4399 186c 1F93      		push r17
 4400 186e DF93      		push r29
 4401 1870 CF93      		push r28
 4402 1872 00D0      		rcall .
 4403 1874 0F92      		push __tmp_reg__
 4404 1876 CDB7      		in r28,__SP_L__
 4405 1878 DEB7      		in r29,__SP_H__
 4406               	/* prologue: function */
 4407               	/* frame size = 4 */
 4408 187a 1C01      		movw r2,r24
 4409 187c 2A01      		movw r4,r20
 4410 187e 3B01      		movw r6,r22
 4411               	.LM479:
 4412 1880 DC01      		movw r26,r24
 4413 1882 5A96      		adiw r26,26
 4414 1884 8D91      		ld r24,X+
 4415 1886 9D91      		ld r25,X+
 4416 1888 0D90      		ld __tmp_reg__,X+
 4417 188a BC91      		ld r27,X
 4418 188c A02D      		mov r26,__tmp_reg__
 4419               	.LVL319:
 4420 188e 8983      		std Y+1,r24
 4421 1890 9A83      		std Y+2,r25
 4422 1892 AB83      		std Y+3,r26
 4423 1894 BC83      		std Y+4,r27
 4424               	.LVL320:
 4425               	.LM480:
 4426 1896 4115      		cp r20,__zero_reg__
 4427 1898 5105      		cpc r21,__zero_reg__
 4428 189a 6105      		cpc r22,__zero_reg__
 4429 189c 7105      		cpc r23,__zero_reg__
 4430 189e 01F4      		brne .L356
 4431               	.LM481:
 4432 18a0 F101      		movw r30,r2
 4433 18a2 8284      		ldd r8,Z+10
 4434 18a4 9384      		ldd r9,Z+11
 4435 18a6 A484      		ldd r10,Z+12
 4436 18a8 B584      		ldd r11,Z+13
 4437               	.LVL321:
 4438               	.LM482:
 4439 18aa 8114      		cp r8,__zero_reg__
 4440 18ac 9104      		cpc r9,__zero_reg__
 4441 18ae A104      		cpc r10,__zero_reg__
 4442 18b0 B104      		cpc r11,__zero_reg__
 4443 18b2 01F0      		breq .L357
 4444 18b4 8816      		cp r8,r24
 4445 18b6 9906      		cpc r9,r25
 4446 18b8 AA06      		cpc r10,r26
 4447 18ba BB06      		cpc r11,r27
 4448 18bc 00F4      		brsh .L357
 4449 18be 00C0      		rjmp .L358
 4450               	.LVL322:
 4451               	.L356:
 4452               	.LM483:
 4453 18c0 C101      		movw r24,r2
 4454 18c2 0E94 0000 		call get_fat
 4455               	.LVL323:
 4456 18c6 9B01      		movw r18,r22
 4457 18c8 AC01      		movw r20,r24
 4458               	.LVL324:
 4459               	.LM484:
 4460 18ca 6230      		cpi r22,lo8(2)
 4461 18cc 7105      		cpc r23,__zero_reg__
 4462 18ce 8105      		cpc r24,__zero_reg__
 4463 18d0 9105      		cpc r25,__zero_reg__
 4464 18d2 00F4      		brsh .L359
 4465               	.LVL325:
 4466 18d4 21E0      		ldi r18,lo8(1)
 4467 18d6 30E0      		ldi r19,hi8(1)
 4468 18d8 40E0      		ldi r20,hlo8(1)
 4469 18da 50E0      		ldi r21,hhi8(1)
 4470               	.LVL326:
 4471 18dc 00C0      		rjmp .L360
 4472               	.LVL327:
 4473               	.L359:
 4474               	.LM485:
 4475 18de 8981      		ldd r24,Y+1
 4476 18e0 9A81      		ldd r25,Y+2
 4477 18e2 AB81      		ldd r26,Y+3
 4478 18e4 BC81      		ldd r27,Y+4
 4479 18e6 2817      		cp r18,r24
 4480 18e8 3907      		cpc r19,r25
 4481 18ea 4A07      		cpc r20,r26
 4482 18ec 5B07      		cpc r21,r27
 4483 18ee 00F4      		brsh .+2
 4484 18f0 00C0      		rjmp .L360
 4485               	.LVL328:
 4486 18f2 5301      		movw r10,r6
 4487 18f4 4201      		movw r8,r4
 4488               	.LVL329:
 4489 18f6 00C0      		rjmp .L358
 4490               	.LVL330:
 4491               	.L357:
 4492 18f8 A1E0      		ldi r26,lo8(1)
 4493 18fa 8A2E      		mov r8,r26
 4494 18fc 912C      		mov r9,__zero_reg__
 4495 18fe A12C      		mov r10,__zero_reg__
 4496 1900 B12C      		mov r11,__zero_reg__
 4497               	.LVL331:
 4498               	.L358:
 4499 1902 7501      		movw r14,r10
 4500 1904 6401      		movw r12,r8
 4501               	.LVL332:
 4502               	.L364:
 4503               	.LM486:
 4504 1906 0894      		sec
 4505 1908 C11C      		adc r12,__zero_reg__
 4506 190a D11C      		adc r13,__zero_reg__
 4507 190c E11C      		adc r14,__zero_reg__
 4508 190e F11C      		adc r15,__zero_reg__
 4509               	.LM487:
 4510 1910 8981      		ldd r24,Y+1
 4511 1912 9A81      		ldd r25,Y+2
 4512 1914 AB81      		ldd r26,Y+3
 4513 1916 BC81      		ldd r27,Y+4
 4514 1918 C816      		cp r12,r24
 4515 191a D906      		cpc r13,r25
 4516 191c EA06      		cpc r14,r26
 4517 191e FB06      		cpc r15,r27
 4518 1920 00F0      		brlo .L361
 4519               	.LM488:
 4520 1922 92E0      		ldi r25,lo8(2)
 4521 1924 8916      		cp r8,r25
 4522 1926 9104      		cpc r9,__zero_reg__
 4523 1928 A104      		cpc r10,__zero_reg__
 4524 192a B104      		cpc r11,__zero_reg__
 4525 192c 00F4      		brsh .+2
 4526 192e 00C0      		rjmp .L362
 4527 1930 F2E0      		ldi r31,lo8(2)
 4528 1932 CF2E      		mov r12,r31
 4529 1934 D12C      		mov r13,__zero_reg__
 4530 1936 E12C      		mov r14,__zero_reg__
 4531 1938 F12C      		mov r15,__zero_reg__
 4532               	.L361:
 4533               	.LM489:
 4534 193a C101      		movw r24,r2
 4535 193c B701      		movw r22,r14
 4536 193e A601      		movw r20,r12
 4537 1940 0E94 0000 		call get_fat
 4538               	.LVL333:
 4539 1944 9B01      		movw r18,r22
 4540 1946 AC01      		movw r20,r24
 4541               	.LVL334:
 4542               	.LM490:
 4543 1948 6115      		cp r22,__zero_reg__
 4544 194a 7105      		cpc r23,__zero_reg__
 4545 194c 8105      		cpc r24,__zero_reg__
 4546 194e 9105      		cpc r25,__zero_reg__
 4547 1950 01F0      		breq .L363
 4548               	.LVL335:
 4549               	.LM491:
 4550 1952 6F3F      		cpi r22,lo8(-1)
 4551 1954 AFEF      		ldi r26,hi8(-1)
 4552 1956 7A07      		cpc r23,r26
 4553 1958 AFEF      		ldi r26,hlo8(-1)
 4554 195a 8A07      		cpc r24,r26
 4555 195c AFEF      		ldi r26,hhi8(-1)
 4556 195e 9A07      		cpc r25,r26
 4557 1960 01F4      		brne .+2
 4558 1962 00C0      		rjmp .L360
 4559 1964 6130      		cpi r22,lo8(1)
 4560 1966 7105      		cpc r23,__zero_reg__
 4561 1968 8105      		cpc r24,__zero_reg__
 4562 196a 9105      		cpc r25,__zero_reg__
 4563 196c 01F4      		brne .+2
 4564 196e 00C0      		rjmp .L360
 4565               	.LM492:
 4566 1970 C814      		cp r12,r8
 4567 1972 D904      		cpc r13,r9
 4568 1974 EA04      		cpc r14,r10
 4569 1976 FB04      		cpc r15,r11
 4570 1978 01F4      		brne .L364
 4571 197a 00C0      		rjmp .L362
 4572               	.L363:
 4573 197c BC2C      		mov r11,r12
 4574 197e AD2C      		mov r10,r13
 4575               	.LVL336:
 4576 1980 9E2C      		mov r9,r14
 4577               	.LVL337:
 4578 1982 8F2C      		mov r8,r15
 4579               	.LVL338:
 4580               	.LM493:
 4581 1984 C101      		movw r24,r2
 4582 1986 A601      		movw r20,r12
 4583               	.LVL339:
 4584 1988 B701      		movw r22,r14
 4585               	.LVL340:
 4586 198a 0FEF      		ldi r16,lo8(268435455)
 4587 198c 1FEF      		ldi r17,hi8(268435455)
 4588 198e 2FEF      		ldi r18,hlo8(268435455)
 4589 1990 3FE0      		ldi r19,hhi8(268435455)
 4590 1992 0E94 0000 		call put_fat
 4591               	.LVL341:
 4592 1996 8823      		tst r24
 4593 1998 01F4      		brne .L365
 4594               	.LVL342:
 4595               	.LM494:
 4596 199a 4114      		cp r4,__zero_reg__
 4597 199c 5104      		cpc r5,__zero_reg__
 4598 199e 6104      		cpc r6,__zero_reg__
 4599 19a0 7104      		cpc r7,__zero_reg__
 4600 19a2 01F0      		breq .L366
 4601               	.LM495:
 4602 19a4 C101      		movw r24,r2
 4603 19a6 B301      		movw r22,r6
 4604 19a8 A201      		movw r20,r4
 4605 19aa 8601      		movw r16,r12
 4606 19ac 9701      		movw r18,r14
 4607 19ae 0E94 0000 		call put_fat
 4608 19b2 8823      		tst r24
 4609 19b4 01F4      		brne .L365
 4610               	.L366:
 4611               	.LM496:
 4612 19b6 F101      		movw r30,r2
 4613 19b8 B286      		std Z+10,r11
 4614 19ba A386      		std Z+11,r10
 4615 19bc 9486      		std Z+12,r9
 4616 19be 8586      		std Z+13,r8
 4617               	.LM497:
 4618 19c0 8685      		ldd r24,Z+14
 4619 19c2 9785      		ldd r25,Z+15
 4620 19c4 A089      		ldd r26,Z+16
 4621 19c6 B189      		ldd r27,Z+17
 4622 19c8 8F3F      		cpi r24,lo8(-1)
 4623 19ca FFEF      		ldi r31,hi8(-1)
 4624 19cc 9F07      		cpc r25,r31
 4625 19ce FFEF      		ldi r31,hlo8(-1)
 4626 19d0 AF07      		cpc r26,r31
 4627 19d2 FFEF      		ldi r31,hhi8(-1)
 4628 19d4 BF07      		cpc r27,r31
 4629 19d6 01F0      		breq .L369
 4630               	.L367:
 4631               	.LM498:
 4632 19d8 0197      		sbiw r24,1
 4633 19da A109      		sbc r26,__zero_reg__
 4634 19dc B109      		sbc r27,__zero_reg__
 4635 19de F101      		movw r30,r2
 4636 19e0 8687      		std Z+14,r24
 4637 19e2 9787      		std Z+15,r25
 4638 19e4 A08B      		std Z+16,r26
 4639 19e6 B18B      		std Z+17,r27
 4640               	.LM499:
 4641 19e8 81E0      		ldi r24,lo8(1)
 4642 19ea 8583      		std Z+5,r24
 4643               	.L369:
 4644 19ec A701      		movw r20,r14
 4645 19ee 9601      		movw r18,r12
 4646               	.LVL343:
 4647 19f0 00C0      		rjmp .L360
 4648               	.LVL344:
 4649               	.L362:
 4650 19f2 20E0      		ldi r18,lo8(0)
 4651 19f4 30E0      		ldi r19,hi8(0)
 4652 19f6 40E0      		ldi r20,hlo8(0)
 4653 19f8 50E0      		ldi r21,hhi8(0)
 4654 19fa 00C0      		rjmp .L360
 4655               	.LVL345:
 4656               	.L365:
 4657 19fc 2FEF      		ldi r18,lo8(-1)
 4658 19fe 3FEF      		ldi r19,hi8(-1)
 4659 1a00 4FEF      		ldi r20,hlo8(-1)
 4660 1a02 5FEF      		ldi r21,hhi8(-1)
 4661               	.LVL346:
 4662               	.L360:
 4663               	.LM500:
 4664 1a04 B901      		movw r22,r18
 4665               	.LVL347:
 4666 1a06 CA01      		movw r24,r20
 4667               	/* epilogue start */
 4668 1a08 2496      		adiw r28,4
 4669 1a0a CDBF      		out __SP_L__,r28
 4670 1a0c DEBF      		out __SP_H__,r29
 4671 1a0e CF91      		pop r28
 4672 1a10 DF91      		pop r29
 4673 1a12 1F91      		pop r17
 4674 1a14 0F91      		pop r16
 4675 1a16 FF90      		pop r15
 4676 1a18 EF90      		pop r14
 4677 1a1a DF90      		pop r13
 4678 1a1c CF90      		pop r12
 4679               	.LVL348:
 4680 1a1e BF90      		pop r11
 4681               	.LVL349:
 4682 1a20 AF90      		pop r10
 4683               	.LVL350:
 4684 1a22 9F90      		pop r9
 4685               	.LVL351:
 4686 1a24 8F90      		pop r8
 4687               	.LVL352:
 4688 1a26 7F90      		pop r7
 4689 1a28 6F90      		pop r6
 4690 1a2a 5F90      		pop r5
 4691 1a2c 4F90      		pop r4
 4692               	.LVL353:
 4693 1a2e 3F90      		pop r3
 4694 1a30 2F90      		pop r2
 4695               	.LVL354:
 4696 1a32 0895      		ret
 4697               	.LFE51:
 4699               	.global	clust2sect
 4701               	clust2sect:
 4702               	.LFB52:
 4703               	.LM501:
 4704               	.LVL355:
 4705 1a34 EF92      		push r14
 4706 1a36 FF92      		push r15
 4707 1a38 0F93      		push r16
 4708 1a3a 1F93      		push r17
 4709 1a3c CF93      		push r28
 4710 1a3e DF93      		push r29
 4711               	/* prologue: function */
 4712               	/* frame size = 0 */
 4713 1a40 EC01      		movw r28,r24
 4714 1a42 7A01      		movw r14,r20
 4715 1a44 8B01      		movw r16,r22
 4716               	.LM502:
 4717 1a46 8EEF      		ldi r24,lo8(-2)
 4718 1a48 9FEF      		ldi r25,hi8(-2)
 4719 1a4a AFEF      		ldi r26,hlo8(-2)
 4720 1a4c BFEF      		ldi r27,hhi8(-2)
 4721               	.LVL356:
 4722 1a4e E80E      		add r14,r24
 4723 1a50 F91E      		adc r15,r25
 4724 1a52 0A1F      		adc r16,r26
 4725 1a54 1B1F      		adc r17,r27
 4726               	.LVL357:
 4727               	.LM503:
 4728 1a56 8A8D      		ldd r24,Y+26
 4729 1a58 9B8D      		ldd r25,Y+27
 4730 1a5a AC8D      		ldd r26,Y+28
 4731 1a5c BD8D      		ldd r27,Y+29
 4732 1a5e 0297      		sbiw r24,2
 4733 1a60 A109      		sbc r26,__zero_reg__
 4734 1a62 B109      		sbc r27,__zero_reg__
 4735 1a64 E816      		cp r14,r24
 4736 1a66 F906      		cpc r15,r25
 4737 1a68 0A07      		cpc r16,r26
 4738 1a6a 1B07      		cpc r17,r27
 4739 1a6c 00F0      		brlo .L371
 4740 1a6e 20E0      		ldi r18,lo8(0)
 4741 1a70 30E0      		ldi r19,hi8(0)
 4742 1a72 40E0      		ldi r20,hlo8(0)
 4743 1a74 50E0      		ldi r21,hhi8(0)
 4744 1a76 00C0      		rjmp .L372
 4745               	.L371:
 4746               	.LM504:
 4747 1a78 2A81      		ldd r18,Y+2
 4748 1a7a 30E0      		ldi r19,lo8(0)
 4749 1a7c 40E0      		ldi r20,lo8(0)
 4750 1a7e 50E0      		ldi r21,hi8(0)
 4751 1a80 C801      		movw r24,r16
 4752 1a82 B701      		movw r22,r14
 4753 1a84 0E94 0000 		call __mulsi3
 4754 1a88 9B01      		movw r18,r22
 4755 1a8a AC01      		movw r20,r24
 4756 1a8c 8EA1      		ldd r24,Y+38
 4757 1a8e 9FA1      		ldd r25,Y+39
 4758 1a90 A8A5      		ldd r26,Y+40
 4759 1a92 B9A5      		ldd r27,Y+41
 4760 1a94 280F      		add r18,r24
 4761 1a96 391F      		adc r19,r25
 4762 1a98 4A1F      		adc r20,r26
 4763 1a9a 5B1F      		adc r21,r27
 4764               	.L372:
 4765               	.LM505:
 4766 1a9c B901      		movw r22,r18
 4767 1a9e CA01      		movw r24,r20
 4768               	/* epilogue start */
 4769 1aa0 DF91      		pop r29
 4770 1aa2 CF91      		pop r28
 4771               	.LVL358:
 4772 1aa4 1F91      		pop r17
 4773 1aa6 0F91      		pop r16
 4774 1aa8 FF90      		pop r15
 4775 1aaa EF90      		pop r14
 4776               	.LVL359:
 4777 1aac 0895      		ret
 4778               	.LFE52:
 4781               	dir_seek:
 4782               	.LFB53:
 4783               	.LM506:
 4784               	.LVL360:
 4785 1aae AF92      		push r10
 4786 1ab0 BF92      		push r11
 4787 1ab2 CF92      		push r12
 4788 1ab4 DF92      		push r13
 4789 1ab6 EF92      		push r14
 4790 1ab8 FF92      		push r15
 4791 1aba 0F93      		push r16
 4792 1abc 1F93      		push r17
 4793 1abe CF93      		push r28
 4794 1ac0 DF93      		push r29
 4795               	/* prologue: function */
 4796               	/* frame size = 0 */
 4797 1ac2 5C01      		movw r10,r24
 4798 1ac4 6B01      		movw r12,r22
 4799               	.LM507:
 4800 1ac6 DC01      		movw r26,r24
 4801 1ac8 1496      		adiw r26,4
 4802 1aca 6D93      		st X+,r22
 4803 1acc 7C93      		st X,r23
 4804 1ace 1597      		sbiw r26,4+1
 4805               	.LM508:
 4806 1ad0 1696      		adiw r26,6
 4807 1ad2 4D91      		ld r20,X+
 4808 1ad4 5D91      		ld r21,X+
 4809 1ad6 6D91      		ld r22,X+
 4810 1ad8 7C91      		ld r23,X
 4811 1ada 1997      		sbiw r26,6+3
 4812               	.LVL361:
 4813               	.LM509:
 4814 1adc 4130      		cpi r20,lo8(1)
 4815 1ade 5105      		cpc r21,__zero_reg__
 4816 1ae0 6105      		cpc r22,__zero_reg__
 4817 1ae2 7105      		cpc r23,__zero_reg__
 4818 1ae4 01F4      		brne .+2
 4819 1ae6 00C0      		rjmp .L375
 4820 1ae8 ED91      		ld r30,X+
 4821 1aea FC91      		ld r31,X
 4822 1aec 828D      		ldd r24,Z+26
 4823 1aee 938D      		ldd r25,Z+27
 4824 1af0 A48D      		ldd r26,Z+28
 4825 1af2 B58D      		ldd r27,Z+29
 4826               	.LVL362:
 4827 1af4 4817      		cp r20,r24
 4828 1af6 5907      		cpc r21,r25
 4829 1af8 6A07      		cpc r22,r26
 4830 1afa 7B07      		cpc r23,r27
 4831 1afc 00F0      		brlo .+2
 4832 1afe 00C0      		rjmp .L375
 4833               	.LM510:
 4834 1b00 4115      		cp r20,__zero_reg__
 4835 1b02 5105      		cpc r21,__zero_reg__
 4836 1b04 6105      		cpc r22,__zero_reg__
 4837 1b06 7105      		cpc r23,__zero_reg__
 4838 1b08 01F4      		brne .L376
 4839 1b0a 8081      		ld r24,Z
 4840 1b0c 8330      		cpi r24,lo8(3)
 4841 1b0e 01F4      		brne .L377
 4842               	.LM511:
 4843 1b10 42A1      		ldd r20,Z+34
 4844 1b12 53A1      		ldd r21,Z+35
 4845 1b14 64A1      		ldd r22,Z+36
 4846 1b16 75A1      		ldd r23,Z+37
 4847               	.LM512:
 4848 1b18 4115      		cp r20,__zero_reg__
 4849 1b1a 5105      		cpc r21,__zero_reg__
 4850 1b1c 6105      		cpc r22,__zero_reg__
 4851 1b1e 7105      		cpc r23,__zero_reg__
 4852 1b20 01F4      		brne .L376
 4853               	.L377:
 4854               	.LM513:
 4855 1b22 F501      		movw r30,r10
 4856 1b24 1286      		std Z+10,__zero_reg__
 4857 1b26 1386      		std Z+11,__zero_reg__
 4858 1b28 1486      		std Z+12,__zero_reg__
 4859 1b2a 1586      		std Z+13,__zero_reg__
 4860               	.LM514:
 4861 1b2c 0190      		ld __tmp_reg__,Z+
 4862 1b2e F081      		ld r31,Z
 4863 1b30 E02D      		mov r30,__tmp_reg__
 4864 1b32 8085      		ldd r24,Z+8
 4865 1b34 9185      		ldd r25,Z+9
 4866 1b36 C816      		cp r12,r24
 4867 1b38 D906      		cpc r13,r25
 4868 1b3a 00F0      		brlo .+2
 4869 1b3c 00C0      		rjmp .L375
 4870               	.LVL363:
 4871               	.LM515:
 4872 1b3e C601      		movw r24,r12
 4873 1b40 24E0      		ldi r18,4
 4874 1b42 9695      	1:	lsr r25
 4875 1b44 8795      		ror r24
 4876 1b46 2A95      		dec r18
 4877 1b48 01F4      		brne 1b
 4878 1b4a A0E0      		ldi r26,lo8(0)
 4879 1b4c B0E0      		ldi r27,hi8(0)
 4880 1b4e 22A1      		ldd r18,Z+34
 4881 1b50 33A1      		ldd r19,Z+35
 4882 1b52 44A1      		ldd r20,Z+36
 4883 1b54 55A1      		ldd r21,Z+37
 4884 1b56 820F      		add r24,r18
 4885 1b58 931F      		adc r25,r19
 4886 1b5a A41F      		adc r26,r20
 4887 1b5c B51F      		adc r27,r21
 4888 1b5e F501      		movw r30,r10
 4889 1b60 8687      		std Z+14,r24
 4890 1b62 9787      		std Z+15,r25
 4891 1b64 A08B      		std Z+16,r26
 4892 1b66 B18B      		std Z+17,r27
 4893 1b68 00C0      		rjmp .L378
 4894               	.LVL364:
 4895               	.L376:
 4896               	.LM516:
 4897 1b6a 8281      		ldd r24,Z+2
 4898 1b6c 082F      		mov r16,r24
 4899               	.LVL365:
 4900 1b6e 10E0      		ldi r17,lo8(0)
 4901               	.LVL366:
 4902 1b70 94E0      		ldi r25,4
 4903 1b72 000F      	1:	lsl r16
 4904 1b74 111F      		rol r17
 4905 1b76 9A95      		dec r25
 4906 1b78 01F4      		brne 1b
 4907               	.LVL367:
 4908 1b7a 00C0      		rjmp .L379
 4909               	.LVL368:
 4910               	.L382:
 4911               	.LM517:
 4912 1b7c CE01      		movw r24,r28
 4913 1b7e 0E94 0000 		call get_fat
 4914               	.LVL369:
 4915 1b82 AB01      		movw r20,r22
 4916 1b84 BC01      		movw r22,r24
 4917               	.LVL370:
 4918               	.LM518:
 4919 1b86 4F3F      		cpi r20,lo8(-1)
 4920 1b88 FFEF      		ldi r31,hi8(-1)
 4921 1b8a 5F07      		cpc r21,r31
 4922 1b8c FFEF      		ldi r31,hlo8(-1)
 4923 1b8e 6F07      		cpc r22,r31
 4924 1b90 FFEF      		ldi r31,hhi8(-1)
 4925 1b92 7F07      		cpc r23,r31
 4926 1b94 01F4      		brne .L380
 4927 1b96 81E0      		ldi r24,lo8(1)
 4928 1b98 00C0      		rjmp .L381
 4929               	.L380:
 4930               	.LM519:
 4931 1b9a 4230      		cpi r20,lo8(2)
 4932 1b9c 5105      		cpc r21,__zero_reg__
 4933 1b9e 6105      		cpc r22,__zero_reg__
 4934 1ba0 7105      		cpc r23,__zero_reg__
 4935 1ba2 00F4      		brsh .+2
 4936 1ba4 00C0      		rjmp .L375
 4937 1ba6 D501      		movw r26,r10
 4938 1ba8 ED91      		ld r30,X+
 4939 1baa FC91      		ld r31,X
 4940 1bac 828D      		ldd r24,Z+26
 4941 1bae 938D      		ldd r25,Z+27
 4942 1bb0 A48D      		ldd r26,Z+28
 4943 1bb2 B58D      		ldd r27,Z+29
 4944 1bb4 4817      		cp r20,r24
 4945 1bb6 5907      		cpc r21,r25
 4946 1bb8 6A07      		cpc r22,r26
 4947 1bba 7B07      		cpc r23,r27
 4948 1bbc 00F0      		brlo .+2
 4949 1bbe 00C0      		rjmp .L375
 4950               	.LM520:
 4951 1bc0 C01A      		sub r12,r16
 4952 1bc2 D10A      		sbc r13,r17
 4953               	.LVL371:
 4954               	.L379:
 4955 1bc4 F501      		movw r30,r10
 4956 1bc6 C081      		ld r28,Z
 4957 1bc8 D181      		ldd r29,Z+1
 4958               	.LM521:
 4959 1bca C016      		cp r12,r16
 4960 1bcc D106      		cpc r13,r17
 4961 1bce 00F4      		brsh .L382
 4962               	.LM522:
 4963 1bd0 D501      		movw r26,r10
 4964 1bd2 1A96      		adiw r26,10
 4965 1bd4 4D93      		st X+,r20
 4966 1bd6 5D93      		st X+,r21
 4967 1bd8 6D93      		st X+,r22
 4968 1bda 7C93      		st X,r23
 4969 1bdc 1D97      		sbiw r26,10+3
 4970               	.LBB563:
 4971               	.LBB564:
 4972               	.LM523:
 4973 1bde 8EEF      		ldi r24,lo8(-2)
 4974 1be0 E82E      		mov r14,r24
 4975 1be2 8FEF      		ldi r24,hi8(-2)
 4976 1be4 F82E      		mov r15,r24
 4977 1be6 8FEF      		ldi r24,hlo8(-2)
 4978 1be8 082F      		mov r16,r24
 4979 1bea 8FEF      		ldi r24,hhi8(-2)
 4980 1bec 182F      		mov r17,r24
 4981               	.LVL372:
 4982 1bee E40E      		add r14,r20
 4983 1bf0 F51E      		adc r15,r21
 4984 1bf2 061F      		adc r16,r22
 4985 1bf4 171F      		adc r17,r23
 4986               	.LM524:
 4987 1bf6 8A8D      		ldd r24,Y+26
 4988 1bf8 9B8D      		ldd r25,Y+27
 4989 1bfa AC8D      		ldd r26,Y+28
 4990 1bfc BD8D      		ldd r27,Y+29
 4991 1bfe 0297      		sbiw r24,2
 4992 1c00 A109      		sbc r26,__zero_reg__
 4993 1c02 B109      		sbc r27,__zero_reg__
 4994 1c04 E816      		cp r14,r24
 4995 1c06 F906      		cpc r15,r25
 4996 1c08 0A07      		cpc r16,r26
 4997 1c0a 1B07      		cpc r17,r27
 4998 1c0c 00F0      		brlo .L383
 4999 1c0e 20E0      		ldi r18,lo8(0)
 5000 1c10 30E0      		ldi r19,hi8(0)
 5001 1c12 40E0      		ldi r20,hlo8(0)
 5002 1c14 50E0      		ldi r21,hhi8(0)
 5003 1c16 00C0      		rjmp .L384
 5004               	.L383:
 5005               	.LM525:
 5006 1c18 2A81      		ldd r18,Y+2
 5007 1c1a 30E0      		ldi r19,lo8(0)
 5008 1c1c 40E0      		ldi r20,lo8(0)
 5009 1c1e 50E0      		ldi r21,hi8(0)
 5010               	.LVL373:
 5011 1c20 C801      		movw r24,r16
 5012 1c22 B701      		movw r22,r14
 5013 1c24 0E94 0000 		call __mulsi3
 5014 1c28 9B01      		movw r18,r22
 5015 1c2a AC01      		movw r20,r24
 5016 1c2c 8EA1      		ldd r24,Y+38
 5017 1c2e 9FA1      		ldd r25,Y+39
 5018 1c30 A8A5      		ldd r26,Y+40
 5019 1c32 B9A5      		ldd r27,Y+41
 5020 1c34 280F      		add r18,r24
 5021 1c36 391F      		adc r19,r25
 5022 1c38 4A1F      		adc r20,r26
 5023 1c3a 5B1F      		adc r21,r27
 5024               	.LVL374:
 5025               	.L384:
 5026               	.LBE564:
 5027               	.LBE563:
 5028               	.LM526:
 5029 1c3c C601      		movw r24,r12
 5030 1c3e 14E0      		ldi r17,4
 5031 1c40 9695      	1:	lsr r25
 5032 1c42 8795      		ror r24
 5033 1c44 1A95      		dec r17
 5034 1c46 01F4      		brne 1b
 5035               	.LVL375:
 5036 1c48 A0E0      		ldi r26,lo8(0)
 5037 1c4a B0E0      		ldi r27,hi8(0)
 5038 1c4c 280F      		add r18,r24
 5039 1c4e 391F      		adc r19,r25
 5040 1c50 4A1F      		adc r20,r26
 5041 1c52 5B1F      		adc r21,r27
 5042 1c54 F501      		movw r30,r10
 5043 1c56 2687      		std Z+14,r18
 5044 1c58 3787      		std Z+15,r19
 5045 1c5a 408B      		std Z+16,r20
 5046 1c5c 518B      		std Z+17,r21
 5047               	.L378:
 5048               	.LM527:
 5049 1c5e FFE0      		ldi r31,lo8(15)
 5050 1c60 CF22      		and r12,r31
 5051 1c62 DD24      		clr r13
 5052 1c64 B5E0      		ldi r27,5
 5053 1c66 CC0C      	1:	lsl r12
 5054 1c68 DD1C      		rol r13
 5055 1c6a BA95      		dec r27
 5056 1c6c 01F4      		brne 1b
 5057 1c6e 8EE2      		ldi r24,lo8(46)
 5058 1c70 90E0      		ldi r25,hi8(46)
 5059 1c72 C80E      		add r12,r24
 5060 1c74 D91E      		adc r13,r25
 5061 1c76 D501      		movw r26,r10
 5062 1c78 8D91      		ld r24,X+
 5063 1c7a 9C91      		ld r25,X
 5064 1c7c 1197      		sbiw r26,1
 5065 1c7e 8C0D      		add r24,r12
 5066 1c80 9D1D      		adc r25,r13
 5067 1c82 5296      		adiw r26,18
 5068 1c84 8D93      		st X+,r24
 5069 1c86 9C93      		st X,r25
 5070 1c88 5397      		sbiw r26,18+1
 5071 1c8a 80E0      		ldi r24,lo8(0)
 5072 1c8c 00C0      		rjmp .L381
 5073               	.LVL376:
 5074               	.L375:
 5075               	.LM528:
 5076 1c8e 82E0      		ldi r24,lo8(2)
 5077               	.LVL377:
 5078               	.L381:
 5079               	/* epilogue start */
 5080               	.LM529:
 5081 1c90 DF91      		pop r29
 5082 1c92 CF91      		pop r28
 5083 1c94 1F91      		pop r17
 5084               	.LVL378:
 5085 1c96 0F91      		pop r16
 5086               	.LVL379:
 5087 1c98 FF90      		pop r15
 5088 1c9a EF90      		pop r14
 5089               	.LVL380:
 5090 1c9c DF90      		pop r13
 5091 1c9e CF90      		pop r12
 5092               	.LVL381:
 5093 1ca0 BF90      		pop r11
 5094 1ca2 AF90      		pop r10
 5095               	.LVL382:
 5096 1ca4 0895      		ret
 5097               	.LFE53:
 5100               	dir_next:
 5101               	.LFB54:
 5102               	.LM530:
 5103               	.LVL383:
 5104 1ca6 4F92      		push r4
 5105 1ca8 5F92      		push r5
 5106 1caa 6F92      		push r6
 5107 1cac 7F92      		push r7
 5108 1cae 8F92      		push r8
 5109 1cb0 9F92      		push r9
 5110 1cb2 AF92      		push r10
 5111 1cb4 BF92      		push r11
 5112 1cb6 CF92      		push r12
 5113 1cb8 DF92      		push r13
 5114 1cba EF92      		push r14
 5115 1cbc FF92      		push r15
 5116 1cbe 0F93      		push r16
 5117 1cc0 1F93      		push r17
 5118 1cc2 CF93      		push r28
 5119 1cc4 DF93      		push r29
 5120               	/* prologue: function */
 5121               	/* frame size = 0 */
 5122 1cc6 EC01      		movw r28,r24
 5123 1cc8 D62E      		mov r13,r22
 5124               	.LM531:
 5125 1cca 6C80      		ldd r6,Y+4
 5126 1ccc 7D80      		ldd r7,Y+5
 5127               	.LVL384:
 5128 1cce 0894      		sec
 5129 1cd0 611C      		adc r6,__zero_reg__
 5130 1cd2 711C      		adc r7,__zero_reg__
 5131               	.LM532:
 5132 1cd4 6114      		cp r6,__zero_reg__
 5133 1cd6 7104      		cpc r7,__zero_reg__
 5134 1cd8 01F4      		brne .+2
 5135 1cda 00C0      		rjmp .L387
 5136               	.LVL385:
 5137 1cdc 8E85      		ldd r24,Y+14
 5138 1cde 9F85      		ldd r25,Y+15
 5139 1ce0 A889      		ldd r26,Y+16
 5140 1ce2 B989      		ldd r27,Y+17
 5141 1ce4 0097      		sbiw r24,0
 5142 1ce6 A105      		cpc r26,__zero_reg__
 5143 1ce8 B105      		cpc r27,__zero_reg__
 5144 1cea 01F4      		brne .+2
 5145 1cec 00C0      		rjmp .L387
 5146               	.LM533:
 5147 1cee 1FE0      		ldi r17,lo8(15)
 5148 1cf0 412E      		mov r4,r17
 5149 1cf2 512C      		mov r5,__zero_reg__
 5150 1cf4 4620      		and r4,r6
 5151 1cf6 5720      		and r5,r7
 5152 1cf8 4114      		cp r4,__zero_reg__
 5153 1cfa 5104      		cpc r5,__zero_reg__
 5154 1cfc 01F0      		breq .+2
 5155 1cfe 00C0      		rjmp .L388
 5156               	.LM534:
 5157 1d00 0196      		adiw r24,1
 5158 1d02 A11D      		adc r26,__zero_reg__
 5159 1d04 B11D      		adc r27,__zero_reg__
 5160 1d06 8E87      		std Y+14,r24
 5161 1d08 9F87      		std Y+15,r25
 5162 1d0a A88B      		std Y+16,r26
 5163 1d0c B98B      		std Y+17,r27
 5164               	.LM535:
 5165 1d0e 4A85      		ldd r20,Y+10
 5166 1d10 5B85      		ldd r21,Y+11
 5167 1d12 6C85      		ldd r22,Y+12
 5168 1d14 7D85      		ldd r23,Y+13
 5169 1d16 E881      		ld r30,Y
 5170 1d18 F981      		ldd r31,Y+1
 5171 1d1a 4115      		cp r20,__zero_reg__
 5172 1d1c 5105      		cpc r21,__zero_reg__
 5173 1d1e 6105      		cpc r22,__zero_reg__
 5174 1d20 7105      		cpc r23,__zero_reg__
 5175 1d22 01F4      		brne .L389
 5176               	.LM536:
 5177 1d24 8085      		ldd r24,Z+8
 5178 1d26 9185      		ldd r25,Z+9
 5179 1d28 6816      		cp r6,r24
 5180 1d2a 7906      		cpc r7,r25
 5181 1d2c 00F4      		brsh .+2
 5182 1d2e 00C0      		rjmp .L388
 5183 1d30 00C0      		rjmp .L387
 5184               	.L389:
 5185               	.LM537:
 5186 1d32 8281      		ldd r24,Z+2
 5187 1d34 90E0      		ldi r25,lo8(0)
 5188 1d36 0197      		sbiw r24,1
 5189 1d38 9301      		movw r18,r6
 5190 1d3a A4E0      		ldi r26,4
 5191 1d3c 3695      	1:	lsr r19
 5192 1d3e 2795      		ror r18
 5193 1d40 AA95      		dec r26
 5194 1d42 01F4      		brne 1b
 5195 1d44 8223      		and r24,r18
 5196 1d46 9323      		and r25,r19
 5197 1d48 892B      		or r24,r25
 5198 1d4a 01F0      		breq .+2
 5199 1d4c 00C0      		rjmp .L388
 5200               	.LM538:
 5201 1d4e CF01      		movw r24,r30
 5202 1d50 0E94 0000 		call get_fat
 5203 1d54 7B01      		movw r14,r22
 5204 1d56 8C01      		movw r16,r24
 5205               	.LVL386:
 5206               	.LM539:
 5207 1d58 6230      		cpi r22,lo8(2)
 5208 1d5a 7105      		cpc r23,__zero_reg__
 5209 1d5c 8105      		cpc r24,__zero_reg__
 5210 1d5e 9105      		cpc r25,__zero_reg__
 5211 1d60 00F4      		brsh .+2
 5212 1d62 00C0      		rjmp .L390
 5213               	.LVL387:
 5214               	.LM540:
 5215 1d64 8FEF      		ldi r24,lo8(-1)
 5216 1d66 E816      		cp r14,r24
 5217 1d68 8FEF      		ldi r24,hi8(-1)
 5218 1d6a F806      		cpc r15,r24
 5219 1d6c 8FEF      		ldi r24,hlo8(-1)
 5220 1d6e 0807      		cpc r16,r24
 5221 1d70 8FEF      		ldi r24,hhi8(-1)
 5222 1d72 1807      		cpc r17,r24
 5223 1d74 01F4      		brne .+2
 5224 1d76 00C0      		rjmp .L391
 5225               	.LVL388:
 5226               	.LM541:
 5227 1d78 E881      		ld r30,Y
 5228 1d7a F981      		ldd r31,Y+1
 5229 1d7c 828D      		ldd r24,Z+26
 5230 1d7e 938D      		ldd r25,Z+27
 5231 1d80 A48D      		ldd r26,Z+28
 5232 1d82 B58D      		ldd r27,Z+29
 5233 1d84 E816      		cp r14,r24
 5234 1d86 F906      		cpc r15,r25
 5235 1d88 0A07      		cpc r16,r26
 5236 1d8a 1B07      		cpc r17,r27
 5237 1d8c 00F4      		brsh .+2
 5238 1d8e 00C0      		rjmp .L392
 5239               	.LBB565:
 5240               	.LM542:
 5241 1d90 DD20      		tst r13
 5242 1d92 01F4      		brne .+2
 5243 1d94 00C0      		rjmp .L387
 5244               	.LM543:
 5245 1d96 4A85      		ldd r20,Y+10
 5246 1d98 5B85      		ldd r21,Y+11
 5247 1d9a 6C85      		ldd r22,Y+12
 5248 1d9c 7D85      		ldd r23,Y+13
 5249 1d9e CF01      		movw r24,r30
 5250 1da0 0E94 0000 		call create_chain
 5251 1da4 7B01      		movw r14,r22
 5252 1da6 8C01      		movw r16,r24
 5253               	.LM544:
 5254 1da8 6115      		cp r22,__zero_reg__
 5255 1daa 7105      		cpc r23,__zero_reg__
 5256 1dac 8105      		cpc r24,__zero_reg__
 5257 1dae 9105      		cpc r25,__zero_reg__
 5258 1db0 01F4      		brne .L393
 5259               	.LVL389:
 5260 1db2 87E0      		ldi r24,lo8(7)
 5261 1db4 00C0      		rjmp .L394
 5262               	.L393:
 5263               	.LM545:
 5264 1db6 91E0      		ldi r25,lo8(1)
 5265 1db8 E916      		cp r14,r25
 5266 1dba F104      		cpc r15,__zero_reg__
 5267 1dbc 0105      		cpc r16,__zero_reg__
 5268 1dbe 1105      		cpc r17,__zero_reg__
 5269 1dc0 01F4      		brne .+2
 5270 1dc2 00C0      		rjmp .L390
 5271               	.LVL390:
 5272               	.LM546:
 5273 1dc4 AFEF      		ldi r26,lo8(-1)
 5274 1dc6 EA16      		cp r14,r26
 5275 1dc8 AFEF      		ldi r26,hi8(-1)
 5276 1dca FA06      		cpc r15,r26
 5277 1dcc AFEF      		ldi r26,hlo8(-1)
 5278 1dce 0A07      		cpc r16,r26
 5279 1dd0 AFEF      		ldi r26,hhi8(-1)
 5280 1dd2 1A07      		cpc r17,r26
 5281 1dd4 01F4      		brne .+2
 5282 1dd6 00C0      		rjmp .L391
 5283               	.LM547:
 5284 1dd8 8881      		ld r24,Y
 5285 1dda 9981      		ldd r25,Y+1
 5286 1ddc 40E0      		ldi r20,lo8(0)
 5287 1dde 50E0      		ldi r21,hi8(0)
 5288 1de0 60E0      		ldi r22,hlo8(0)
 5289 1de2 70E0      		ldi r23,hhi8(0)
 5290 1de4 0E94 0000 		call move_window
 5291 1de8 8823      		tst r24
 5292 1dea 01F0      		breq .+2
 5293 1dec 00C0      		rjmp .L391
 5294               	.LBB566:
 5295               	.LBB567:
 5296               	.LM548:
 5297 1dee E881      		ld r30,Y
 5298 1df0 F981      		ldd r31,Y+1
 5299               	.LVL391:
 5300 1df2 BE96      		adiw r30,46
 5301 1df4 80E0      		ldi r24,lo8(512)
 5302 1df6 92E0      		ldi r25,hi8(512)
 5303               	.LVL392:
 5304 1df8 00C0      		rjmp .L395
 5305               	.L396:
 5306               	.LM549:
 5307 1dfa 1192      		st Z+,__zero_reg__
 5308               	.L395:
 5309 1dfc 0197      		sbiw r24,1
 5310 1dfe BFEF      		ldi r27,hi8(-1)
 5311 1e00 8F3F      		cpi r24,lo8(-1)
 5312 1e02 9B07      		cpc r25,r27
 5313 1e04 01F4      		brne .L396
 5314               	.LBE567:
 5315               	.LBE566:
 5316               	.LM550:
 5317 1e06 8880      		ld r8,Y
 5318 1e08 9980      		ldd r9,Y+1
 5319               	.LBB568:
 5320               	.LBB569:
 5321               	.LM551:
 5322 1e0a 4EEF      		ldi r20,lo8(-2)
 5323 1e0c A42E      		mov r10,r20
 5324 1e0e 4FEF      		ldi r20,hi8(-2)
 5325 1e10 B42E      		mov r11,r20
 5326 1e12 4FEF      		ldi r20,hlo8(-2)
 5327 1e14 C42E      		mov r12,r20
 5328 1e16 4FEF      		ldi r20,hhi8(-2)
 5329 1e18 D42E      		mov r13,r20
 5330               	.LVL393:
 5331 1e1a AE0C      		add r10,r14
 5332 1e1c BF1C      		adc r11,r15
 5333 1e1e C01E      		adc r12,r16
 5334 1e20 D11E      		adc r13,r17
 5335               	.LM552:
 5336 1e22 F401      		movw r30,r8
 5337               	.LVL394:
 5338 1e24 828D      		ldd r24,Z+26
 5339 1e26 938D      		ldd r25,Z+27
 5340 1e28 A48D      		ldd r26,Z+28
 5341 1e2a B58D      		ldd r27,Z+29
 5342               	.LVL395:
 5343 1e2c 0297      		sbiw r24,2
 5344 1e2e A109      		sbc r26,__zero_reg__
 5345 1e30 B109      		sbc r27,__zero_reg__
 5346 1e32 A816      		cp r10,r24
 5347 1e34 B906      		cpc r11,r25
 5348 1e36 CA06      		cpc r12,r26
 5349 1e38 DB06      		cpc r13,r27
 5350 1e3a 00F0      		brlo .L397
 5351 1e3c 20E0      		ldi r18,lo8(0)
 5352 1e3e 30E0      		ldi r19,hi8(0)
 5353 1e40 40E0      		ldi r20,hlo8(0)
 5354 1e42 50E0      		ldi r21,hhi8(0)
 5355 1e44 00C0      		rjmp .L398
 5356               	.L397:
 5357               	.LM553:
 5358 1e46 D401      		movw r26,r8
 5359 1e48 1296      		adiw r26,2
 5360 1e4a 2C91      		ld r18,X
 5361 1e4c 30E0      		ldi r19,lo8(0)
 5362 1e4e 40E0      		ldi r20,lo8(0)
 5363 1e50 50E0      		ldi r21,hi8(0)
 5364 1e52 C601      		movw r24,r12
 5365 1e54 B501      		movw r22,r10
 5366 1e56 0E94 0000 		call __mulsi3
 5367 1e5a 9B01      		movw r18,r22
 5368 1e5c AC01      		movw r20,r24
 5369 1e5e F401      		movw r30,r8
 5370 1e60 86A1      		ldd r24,Z+38
 5371 1e62 97A1      		ldd r25,Z+39
 5372 1e64 A0A5      		ldd r26,Z+40
 5373 1e66 B1A5      		ldd r27,Z+41
 5374 1e68 280F      		add r18,r24
 5375 1e6a 391F      		adc r19,r25
 5376 1e6c 4A1F      		adc r20,r26
 5377 1e6e 5B1F      		adc r21,r27
 5378               	.L398:
 5379               	.LBE569:
 5380               	.LBE568:
 5381               	.LM554:
 5382 1e70 D401      		movw r26,r8
 5383 1e72 9A96      		adiw r26,42
 5384 1e74 2D93      		st X+,r18
 5385 1e76 3D93      		st X+,r19
 5386 1e78 4D93      		st X+,r20
 5387 1e7a 5C93      		st X,r21
 5388 1e7c 9D97      		sbiw r26,42+3
 5389 1e7e DD24      		clr r13
 5390               	.LVL396:
 5391               	.LM555:
 5392 1e80 CC24      		clr r12
 5393 1e82 C394      		inc r12
 5394 1e84 00C0      		rjmp .L399
 5395               	.L400:
 5396 1e86 C482      		std Z+4,r12
 5397               	.LM556:
 5398 1e88 8881      		ld r24,Y
 5399 1e8a 9981      		ldd r25,Y+1
 5400 1e8c 40E0      		ldi r20,lo8(0)
 5401 1e8e 50E0      		ldi r21,hi8(0)
 5402 1e90 60E0      		ldi r22,hlo8(0)
 5403 1e92 70E0      		ldi r23,hhi8(0)
 5404 1e94 0E94 0000 		call move_window
 5405 1e98 8823      		tst r24
 5406 1e9a 01F0      		breq .+2
 5407 1e9c 00C0      		rjmp .L391
 5408               	.LM557:
 5409 1e9e E881      		ld r30,Y
 5410 1ea0 F981      		ldd r31,Y+1
 5411 1ea2 82A5      		ldd r24,Z+42
 5412 1ea4 93A5      		ldd r25,Z+43
 5413 1ea6 A4A5      		ldd r26,Z+44
 5414 1ea8 B5A5      		ldd r27,Z+45
 5415 1eaa 0196      		adiw r24,1
 5416 1eac A11D      		adc r26,__zero_reg__
 5417 1eae B11D      		adc r27,__zero_reg__
 5418 1eb0 82A7      		std Z+42,r24
 5419 1eb2 93A7      		std Z+43,r25
 5420 1eb4 A4A7      		std Z+44,r26
 5421 1eb6 B5A7      		std Z+45,r27
 5422               	.LM558:
 5423 1eb8 D394      		inc r13
 5424               	.L399:
 5425 1eba E881      		ld r30,Y
 5426 1ebc F981      		ldd r31,Y+1
 5427 1ebe 8281      		ldd r24,Z+2
 5428 1ec0 D816      		cp r13,r24
 5429 1ec2 00F0      		brlo .L400
 5430               	.LM559:
 5431 1ec4 82A5      		ldd r24,Z+42
 5432 1ec6 93A5      		ldd r25,Z+43
 5433 1ec8 A4A5      		ldd r26,Z+44
 5434 1eca B5A5      		ldd r27,Z+45
 5435 1ecc 8D19      		sub r24,r13
 5436 1ece 9109      		sbc r25,__zero_reg__
 5437 1ed0 A109      		sbc r26,__zero_reg__
 5438 1ed2 B109      		sbc r27,__zero_reg__
 5439 1ed4 82A7      		std Z+42,r24
 5440 1ed6 93A7      		std Z+43,r25
 5441 1ed8 A4A7      		std Z+44,r26
 5442 1eda B5A7      		std Z+45,r27
 5443               	.LVL397:
 5444               	.L392:
 5445               	.LBE565:
 5446               	.LM560:
 5447 1edc EA86      		std Y+10,r14
 5448 1ede FB86      		std Y+11,r15
 5449 1ee0 0C87      		std Y+12,r16
 5450 1ee2 1D87      		std Y+13,r17
 5451               	.LM561:
 5452 1ee4 C880      		ld r12,Y
 5453 1ee6 D980      		ldd r13,Y+1
 5454               	.LBB570:
 5455               	.LBB571:
 5456               	.LM562:
 5457 1ee8 8EEF      		ldi r24,lo8(-2)
 5458 1eea 9FEF      		ldi r25,hi8(-2)
 5459 1eec AFEF      		ldi r26,hlo8(-2)
 5460 1eee BFEF      		ldi r27,hhi8(-2)
 5461 1ef0 E80E      		add r14,r24
 5462 1ef2 F91E      		adc r15,r25
 5463 1ef4 0A1F      		adc r16,r26
 5464 1ef6 1B1F      		adc r17,r27
 5465               	.LVL398:
 5466               	.LM563:
 5467 1ef8 F601      		movw r30,r12
 5468 1efa 828D      		ldd r24,Z+26
 5469 1efc 938D      		ldd r25,Z+27
 5470 1efe A48D      		ldd r26,Z+28
 5471 1f00 B58D      		ldd r27,Z+29
 5472 1f02 0297      		sbiw r24,2
 5473 1f04 A109      		sbc r26,__zero_reg__
 5474 1f06 B109      		sbc r27,__zero_reg__
 5475 1f08 E816      		cp r14,r24
 5476 1f0a F906      		cpc r15,r25
 5477 1f0c 0A07      		cpc r16,r26
 5478 1f0e 1B07      		cpc r17,r27
 5479 1f10 00F0      		brlo .L401
 5480 1f12 20E0      		ldi r18,lo8(0)
 5481 1f14 30E0      		ldi r19,hi8(0)
 5482 1f16 40E0      		ldi r20,hlo8(0)
 5483 1f18 50E0      		ldi r21,hhi8(0)
 5484 1f1a 00C0      		rjmp .L402
 5485               	.L401:
 5486               	.LM564:
 5487 1f1c D601      		movw r26,r12
 5488 1f1e 1296      		adiw r26,2
 5489 1f20 2C91      		ld r18,X
 5490 1f22 30E0      		ldi r19,lo8(0)
 5491 1f24 40E0      		ldi r20,lo8(0)
 5492 1f26 50E0      		ldi r21,hi8(0)
 5493 1f28 C801      		movw r24,r16
 5494 1f2a B701      		movw r22,r14
 5495               	.LVL399:
 5496 1f2c 0E94 0000 		call __mulsi3
 5497 1f30 9B01      		movw r18,r22
 5498 1f32 AC01      		movw r20,r24
 5499 1f34 F601      		movw r30,r12
 5500 1f36 86A1      		ldd r24,Z+38
 5501 1f38 97A1      		ldd r25,Z+39
 5502 1f3a A0A5      		ldd r26,Z+40
 5503 1f3c B1A5      		ldd r27,Z+41
 5504 1f3e 280F      		add r18,r24
 5505 1f40 391F      		adc r19,r25
 5506 1f42 4A1F      		adc r20,r26
 5507 1f44 5B1F      		adc r21,r27
 5508               	.LVL400:
 5509               	.L402:
 5510               	.LBE571:
 5511               	.LBE570:
 5512               	.LM565:
 5513 1f46 2E87      		std Y+14,r18
 5514 1f48 3F87      		std Y+15,r19
 5515 1f4a 488B      		std Y+16,r20
 5516 1f4c 598B      		std Y+17,r21
 5517               	.LVL401:
 5518               	.L388:
 5519               	.LM566:
 5520 1f4e 6C82      		std Y+4,r6
 5521 1f50 7D82      		std Y+5,r7
 5522               	.LM567:
 5523 1f52 35E0      		ldi r19,5
 5524 1f54 440C      	1:	lsl r4
 5525 1f56 551C      		rol r5
 5526 1f58 3A95      		dec r19
 5527 1f5a 01F4      		brne 1b
 5528 1f5c 8EE2      		ldi r24,lo8(46)
 5529 1f5e 90E0      		ldi r25,hi8(46)
 5530 1f60 480E      		add r4,r24
 5531 1f62 591E      		adc r5,r25
 5532 1f64 8881      		ld r24,Y
 5533 1f66 9981      		ldd r25,Y+1
 5534 1f68 840D      		add r24,r4
 5535 1f6a 951D      		adc r25,r5
 5536 1f6c 8A8B      		std Y+18,r24
 5537 1f6e 9B8B      		std Y+19,r25
 5538 1f70 80E0      		ldi r24,lo8(0)
 5539 1f72 00C0      		rjmp .L394
 5540               	.LVL402:
 5541               	.L387:
 5542               	.LM568:
 5543 1f74 84E0      		ldi r24,lo8(4)
 5544 1f76 00C0      		rjmp .L394
 5545               	.LVL403:
 5546               	.L390:
 5547 1f78 82E0      		ldi r24,lo8(2)
 5548 1f7a 00C0      		rjmp .L394
 5549               	.LVL404:
 5550               	.L391:
 5551 1f7c 81E0      		ldi r24,lo8(1)
 5552               	.LVL405:
 5553               	.L394:
 5554               	/* epilogue start */
 5555               	.LM569:
 5556 1f7e DF91      		pop r29
 5557 1f80 CF91      		pop r28
 5558               	.LVL406:
 5559 1f82 1F91      		pop r17
 5560 1f84 0F91      		pop r16
 5561 1f86 FF90      		pop r15
 5562 1f88 EF90      		pop r14
 5563               	.LVL407:
 5564 1f8a DF90      		pop r13
 5565               	.LVL408:
 5566 1f8c CF90      		pop r12
 5567 1f8e BF90      		pop r11
 5568 1f90 AF90      		pop r10
 5569               	.LVL409:
 5570 1f92 9F90      		pop r9
 5571 1f94 8F90      		pop r8
 5572 1f96 7F90      		pop r7
 5573 1f98 6F90      		pop r6
 5574               	.LVL410:
 5575 1f9a 5F90      		pop r5
 5576 1f9c 4F90      		pop r4
 5577 1f9e 0895      		ret
 5578               	.LFE54:
 5581               	dir_read:
 5582               	.LFB56:
 5583               	.LM570:
 5584               	.LVL411:
 5585 1fa0 CF93      		push r28
 5586 1fa2 DF93      		push r29
 5587               	/* prologue: function */
 5588               	/* frame size = 0 */
 5589 1fa4 EC01      		movw r28,r24
 5590               	.LM571:
 5591 1fa6 94E0      		ldi r25,lo8(4)
 5592               	.LVL412:
 5593 1fa8 00C0      		rjmp .L405
 5594               	.LVL413:
 5595               	.L410:
 5596               	.LM572:
 5597 1faa 8881      		ld r24,Y
 5598 1fac 9981      		ldd r25,Y+1
 5599 1fae 0E94 0000 		call move_window
 5600               	.LVL414:
 5601 1fb2 982F      		mov r25,r24
 5602               	.LVL415:
 5603               	.LM573:
 5604 1fb4 8823      		tst r24
 5605 1fb6 01F4      		brne .L406
 5606               	.LVL416:
 5607               	.LM574:
 5608 1fb8 EA89      		ldd r30,Y+18
 5609 1fba FB89      		ldd r31,Y+19
 5610               	.LVL417:
 5611               	.LM575:
 5612 1fbc 8081      		ld r24,Z
 5613               	.LVL418:
 5614               	.LM576:
 5615 1fbe 8823      		tst r24
 5616 1fc0 01F0      		breq .L407
 5617               	.LM577:
 5618 1fc2 853E      		cpi r24,lo8(-27)
 5619 1fc4 01F0      		breq .L408
 5620 1fc6 8E32      		cpi r24,lo8(46)
 5621 1fc8 01F0      		breq .L408
 5622 1fca 8385      		ldd r24,Z+11
 5623               	.LVL419:
 5624 1fcc 83FF      		sbrs r24,3
 5625 1fce 00C0      		rjmp .L409
 5626               	.LVL420:
 5627               	.L408:
 5628               	.LM578:
 5629 1fd0 CE01      		movw r24,r28
 5630               	.LVL421:
 5631 1fd2 60E0      		ldi r22,lo8(0)
 5632 1fd4 0E94 0000 		call dir_next
 5633               	.LVL422:
 5634 1fd8 982F      		mov r25,r24
 5635               	.LVL423:
 5636               	.LM579:
 5637 1fda 8823      		tst r24
 5638 1fdc 01F4      		brne .L406
 5639               	.LVL424:
 5640               	.L405:
 5641               	.LM580:
 5642 1fde 4E85      		ldd r20,Y+14
 5643 1fe0 5F85      		ldd r21,Y+15
 5644 1fe2 6889      		ldd r22,Y+16
 5645 1fe4 7989      		ldd r23,Y+17
 5646 1fe6 4115      		cp r20,__zero_reg__
 5647 1fe8 5105      		cpc r21,__zero_reg__
 5648 1fea 6105      		cpc r22,__zero_reg__
 5649 1fec 7105      		cpc r23,__zero_reg__
 5650 1fee 01F4      		brne .L410
 5651               	.LM581:
 5652 1ff0 9923      		tst r25
 5653 1ff2 01F0      		breq .L409
 5654               	.LVL425:
 5655               	.L406:
 5656 1ff4 1E86      		std Y+14,__zero_reg__
 5657 1ff6 1F86      		std Y+15,__zero_reg__
 5658 1ff8 188A      		std Y+16,__zero_reg__
 5659 1ffa 198A      		std Y+17,__zero_reg__
 5660               	.L409:
 5661               	.LM582:
 5662 1ffc 892F      		mov r24,r25
 5663               	.LVL426:
 5664               	/* epilogue start */
 5665 1ffe DF91      		pop r29
 5666 2000 CF91      		pop r28
 5667               	.LVL427:
 5668 2002 0895      		ret
 5669               	.LVL428:
 5670               	.L407:
 5671               	.LM583:
 5672 2004 94E0      		ldi r25,lo8(4)
 5673 2006 00C0      		rjmp .L406
 5674               	.LFE56:
 5677               	dir_register:
 5678               	.LFB57:
 5679               	.LM584:
 5680               	.LVL429:
 5681 2008 CF93      		push r28
 5682 200a DF93      		push r29
 5683               	/* prologue: function */
 5684               	/* frame size = 0 */
 5685 200c EC01      		movw r28,r24
 5686               	.LM585:
 5687 200e 60E0      		ldi r22,lo8(0)
 5688 2010 70E0      		ldi r23,hi8(0)
 5689 2012 0E94 0000 		call dir_seek
 5690               	.LVL430:
 5691               	.L424:
 5692 2016 482F      		mov r20,r24
 5693               	.LVL431:
 5694               	.LM586:
 5695 2018 8823      		tst r24
 5696 201a 01F4      		brne .L413
 5697               	.LVL432:
 5698               	.LM587:
 5699 201c 4E85      		ldd r20,Y+14
 5700 201e 5F85      		ldd r21,Y+15
 5701 2020 6889      		ldd r22,Y+16
 5702 2022 7989      		ldd r23,Y+17
 5703 2024 8881      		ld r24,Y
 5704 2026 9981      		ldd r25,Y+1
 5705               	.LVL433:
 5706 2028 0E94 0000 		call move_window
 5707 202c 482F      		mov r20,r24
 5708               	.LVL434:
 5709               	.LM588:
 5710 202e 8823      		tst r24
 5711 2030 01F4      		brne .L413
 5712               	.LVL435:
 5713               	.LM589:
 5714 2032 EA89      		ldd r30,Y+18
 5715 2034 FB89      		ldd r31,Y+19
 5716 2036 E081      		ld r30,Z
 5717               	.LVL436:
 5718               	.LM590:
 5719 2038 E53E      		cpi r30,lo8(-27)
 5720 203a 01F0      		breq .L414
 5721 203c EE23      		tst r30
 5722 203e 01F0      		breq .L414
 5723               	.LM591:
 5724 2040 CE01      		movw r24,r28
 5725               	.LVL437:
 5726 2042 61E0      		ldi r22,lo8(1)
 5727 2044 0E94 0000 		call dir_next
 5728               	.LVL438:
 5729 2048 00C0      		rjmp .L424
 5730               	.LVL439:
 5731               	.L420:
 5732               	.LM592:
 5733 204a 6A89      		ldd r22,Y+18
 5734 204c 7B89      		ldd r23,Y+19
 5735               	.LVL440:
 5736 204e FB01      		movw r30,r22
 5737 2050 80E2      		ldi r24,lo8(32)
 5738 2052 90E0      		ldi r25,hi8(32)
 5739               	.LVL441:
 5740 2054 00C0      		rjmp .L416
 5741               	.LVL442:
 5742               	.L417:
 5743               	.LBB572:
 5744               	.LBB573:
 5745               	.LM593:
 5746 2056 1192      		st Z+,__zero_reg__
 5747               	.L416:
 5748 2058 0197      		sbiw r24,1
 5749 205a 2FEF      		ldi r18,hi8(-1)
 5750 205c 8F3F      		cpi r24,lo8(-1)
 5751 205e 9207      		cpc r25,r18
 5752 2060 01F4      		brne .L417
 5753               	.LBE573:
 5754               	.LBE572:
 5755               	.LM594:
 5756 2062 8C89      		ldd r24,Y+20
 5757               	.LVL443:
 5758 2064 9D89      		ldd r25,Y+21
 5759               	.LVL444:
 5760 2066 9C01      		movw r18,r24
 5761               	.LVL445:
 5762 2068 D901      		movw r26,r18
 5763               	.LVL446:
 5764 206a FB01      		movw r30,r22
 5765 206c 2BE0      		ldi r18,lo8(11)
 5766 206e 30E0      		ldi r19,hi8(11)
 5767               	.LVL447:
 5768 2070 00C0      		rjmp .L418
 5769               	.L419:
 5770               	.LBB574:
 5771               	.LBB575:
 5772               	.LM595:
 5773 2072 8D91      		ld r24,X+
 5774 2074 8193      		st Z+,r24
 5775               	.L418:
 5776 2076 2150      		subi r18,lo8(-(-1))
 5777 2078 3040      		sbci r19,hi8(-(-1))
 5778 207a 8FEF      		ldi r24,hi8(-1)
 5779 207c 2F3F      		cpi r18,lo8(-1)
 5780 207e 3807      		cpc r19,r24
 5781 2080 01F4      		brne .L419
 5782               	.LBE575:
 5783               	.LBE574:
 5784               	.LM596:
 5785 2082 EC89      		ldd r30,Y+20
 5786 2084 FD89      		ldd r31,Y+21
 5787               	.LVL448:
 5788 2086 8385      		ldd r24,Z+11
 5789 2088 8871      		andi r24,lo8(24)
 5790 208a FB01      		movw r30,r22
 5791 208c 8487      		std Z+12,r24
 5792               	.LM597:
 5793 208e E881      		ld r30,Y
 5794 2090 F981      		ldd r31,Y+1
 5795 2092 81E0      		ldi r24,lo8(1)
 5796 2094 8483      		std Z+4,r24
 5797               	.LVL449:
 5798               	.L413:
 5799               	.LM598:
 5800 2096 842F      		mov r24,r20
 5801               	/* epilogue start */
 5802 2098 DF91      		pop r29
 5803 209a CF91      		pop r28
 5804               	.LVL450:
 5805 209c 0895      		ret
 5806               	.LVL451:
 5807               	.L414:
 5808               	.LM599:
 5809 209e 4E85      		ldd r20,Y+14
 5810 20a0 5F85      		ldd r21,Y+15
 5811 20a2 6889      		ldd r22,Y+16
 5812 20a4 7989      		ldd r23,Y+17
 5813 20a6 8881      		ld r24,Y
 5814 20a8 9981      		ldd r25,Y+1
 5815               	.LVL452:
 5816 20aa 0E94 0000 		call move_window
 5817               	.LVL453:
 5818 20ae 482F      		mov r20,r24
 5819               	.LVL454:
 5820               	.LM600:
 5821 20b0 8823      		tst r24
 5822 20b2 01F0      		breq .L420
 5823               	.LVL455:
 5824 20b4 00C0      		rjmp .L413
 5825               	.LFE57:
 5828               	dir_remove:
 5829               	.LFB58:
 5830               	.LM601:
 5831               	.LVL456:
 5832 20b6 CF93      		push r28
 5833 20b8 DF93      		push r29
 5834               	/* prologue: function */
 5835               	/* frame size = 0 */
 5836 20ba EC01      		movw r28,r24
 5837               	.LM602:
 5838 20bc 6C81      		ldd r22,Y+4
 5839 20be 7D81      		ldd r23,Y+5
 5840 20c0 0E94 0000 		call dir_seek
 5841               	.LVL457:
 5842 20c4 982F      		mov r25,r24
 5843               	.LVL458:
 5844               	.LM603:
 5845 20c6 8823      		tst r24
 5846 20c8 01F4      		brne .L426
 5847               	.LVL459:
 5848               	.LM604:
 5849 20ca 4E85      		ldd r20,Y+14
 5850 20cc 5F85      		ldd r21,Y+15
 5851 20ce 6889      		ldd r22,Y+16
 5852 20d0 7989      		ldd r23,Y+17
 5853 20d2 8881      		ld r24,Y
 5854 20d4 9981      		ldd r25,Y+1
 5855               	.LVL460:
 5856 20d6 0E94 0000 		call move_window
 5857               	.LVL461:
 5858 20da 982F      		mov r25,r24
 5859               	.LVL462:
 5860               	.LM605:
 5861 20dc 8823      		tst r24
 5862 20de 01F4      		brne .L426
 5863               	.LVL463:
 5864               	.LM606:
 5865 20e0 EA89      		ldd r30,Y+18
 5866 20e2 FB89      		ldd r31,Y+19
 5867 20e4 85EE      		ldi r24,lo8(-27)
 5868               	.LVL464:
 5869 20e6 8083      		st Z,r24
 5870               	.LM607:
 5871 20e8 E881      		ld r30,Y
 5872 20ea F981      		ldd r31,Y+1
 5873 20ec 81E0      		ldi r24,lo8(1)
 5874 20ee 8483      		std Z+4,r24
 5875               	.LVL465:
 5876               	.L426:
 5877               	.LM608:
 5878 20f0 892F      		mov r24,r25
 5879               	/* epilogue start */
 5880 20f2 DF91      		pop r29
 5881 20f4 CF91      		pop r28
 5882               	.LVL466:
 5883 20f6 0895      		ret
 5884               	.LFE58:
 5887               	get_fileinfo:
 5888               	.LFB60:
 5889               	.LM609:
 5890               	.LVL467:
 5891 20f8 EF92      		push r14
 5892 20fa FF92      		push r15
 5893 20fc 0F93      		push r16
 5894 20fe 1F93      		push r17
 5895 2100 CF93      		push r28
 5896 2102 DF93      		push r29
 5897               	/* prologue: function */
 5898               	/* frame size = 0 */
 5899 2104 FC01      		movw r30,r24
 5900 2106 7B01      		movw r14,r22
 5901               	.LM610:
 5902 2108 EB01      		movw r28,r22
 5903               	.LVL468:
 5904 210a 2996      		adiw r28,9
 5905               	.LM611:
 5906 210c 8685      		ldd r24,Z+14
 5907 210e 9785      		ldd r25,Z+15
 5908 2110 A089      		ldd r26,Z+16
 5909 2112 B189      		ldd r27,Z+17
 5910               	.LVL469:
 5911 2114 0097      		sbiw r24,0
 5912 2116 A105      		cpc r26,__zero_reg__
 5913 2118 B105      		cpc r27,__zero_reg__
 5914 211a 01F4      		brne .+2
 5915 211c 00C0      		rjmp .L429
 5916               	.LM612:
 5917 211e 6289      		ldd r22,Z+18
 5918 2120 7389      		ldd r23,Z+19
 5919               	.LVL470:
 5920 2122 80E0      		ldi r24,lo8(0)
 5921 2124 90E0      		ldi r25,hi8(0)
 5922               	.LVL471:
 5923               	.L432:
 5924               	.LM613:
 5925 2126 FB01      		movw r30,r22
 5926               	.LVL472:
 5927 2128 E80F      		add r30,r24
 5928 212a F91F      		adc r31,r25
 5929 212c E081      		ld r30,Z
 5930               	.LVL473:
 5931               	.LM614:
 5932 212e E032      		cpi r30,lo8(32)
 5933 2130 01F0      		breq .L430
 5934               	.LM615:
 5935 2132 E530      		cpi r30,lo8(5)
 5936 2134 01F4      		brne .L431
 5937 2136 E5EE      		ldi r30,lo8(-27)
 5938               	.L431:
 5939               	.LM616:
 5940 2138 E993      		st Y+,r30
 5941               	.LM617:
 5942 213a 0196      		adiw r24,1
 5943 213c 8830      		cpi r24,8
 5944 213e 9105      		cpc r25,__zero_reg__
 5945 2140 01F4      		brne .L432
 5946               	.L430:
 5947               	.LM618:
 5948 2142 DB01      		movw r26,r22
 5949 2144 1896      		adiw r26,8
 5950 2146 8C91      		ld r24,X
 5951               	.LVL474:
 5952 2148 8032      		cpi r24,lo8(32)
 5953 214a 01F4      		brne .L433
 5954 214c 8E01      		movw r16,r28
 5955 214e 00C0      		rjmp .L434
 5956               	.LVL475:
 5957               	.L433:
 5958               	.LM619:
 5959 2150 8EE2      		ldi r24,lo8(46)
 5960 2152 FE01      		movw r30,r28
 5961               	.LVL476:
 5962 2154 8193      		st Z+,r24
 5963 2156 8F01      		movw r16,r30
 5964               	.LVL477:
 5965 2158 FB01      		movw r30,r22
 5966               	.LM620:
 5967 215a 9E01      		movw r18,r28
 5968 215c 2C5F      		subi r18,lo8(-(4))
 5969 215e 3F4F      		sbci r19,hi8(-(4))
 5970               	.LVL478:
 5971               	.L435:
 5972               	.LM621:
 5973 2160 8085      		ldd r24,Z+8
 5974               	.LM622:
 5975 2162 8032      		cpi r24,lo8(32)
 5976 2164 01F0      		breq .L434
 5977               	.LM623:
 5978 2166 D801      		movw r26,r16
 5979 2168 8D93      		st X+,r24
 5980 216a 8D01      		movw r16,r26
 5981 216c 3196      		adiw r30,1
 5982               	.LM624:
 5983 216e A217      		cp r26,r18
 5984 2170 B307      		cpc r27,r19
 5985 2172 01F4      		brne .L435
 5986               	.LVL479:
 5987               	.L434:
 5988               	.LM625:
 5989 2174 FB01      		movw r30,r22
 5990 2176 8385      		ldd r24,Z+11
 5991               	.LVL480:
 5992 2178 D701      		movw r26,r14
 5993 217a 1896      		adiw r26,8
 5994 217c 8C93      		st X,r24
 5995               	.LM626:
 5996 217e 278D      		ldd r18,Z+31
 5997 2180 30E0      		ldi r19,lo8(0)
 5998 2182 40E0      		ldi r20,lo8(0)
 5999 2184 50E0      		ldi r21,hi8(0)
 6000 2186 522F      		mov r21,r18
 6001 2188 4427      		clr r20
 6002 218a 3327      		clr r19
 6003 218c 2227      		clr r18
 6004 218e 868D      		ldd r24,Z+30
 6005 2190 90E0      		ldi r25,lo8(0)
 6006 2192 A0E0      		ldi r26,lo8(0)
 6007 2194 B0E0      		ldi r27,hi8(0)
 6008 2196 DC01      		movw r26,r24
 6009 2198 9927      		clr r25
 6010 219a 8827      		clr r24
 6011 219c 282B      		or r18,r24
 6012 219e 392B      		or r19,r25
 6013 21a0 4A2B      		or r20,r26
 6014 21a2 5B2B      		or r21,r27
 6015 21a4 848D      		ldd r24,Z+28
 6016 21a6 90E0      		ldi r25,lo8(0)
 6017 21a8 A0E0      		ldi r26,lo8(0)
 6018 21aa B0E0      		ldi r27,hi8(0)
 6019 21ac 282B      		or r18,r24
 6020 21ae 392B      		or r19,r25
 6021 21b0 4A2B      		or r20,r26
 6022 21b2 5B2B      		or r21,r27
 6023 21b4 958D      		ldd r25,Z+29
 6024 21b6 80E0      		ldi r24,lo8(0)
 6025 21b8 A0E0      		ldi r26,lo8(0)
 6026 21ba B0E0      		ldi r27,hi8(0)
 6027 21bc 282B      		or r18,r24
 6028 21be 392B      		or r19,r25
 6029 21c0 4A2B      		or r20,r26
 6030 21c2 5B2B      		or r21,r27
 6031 21c4 F701      		movw r30,r14
 6032 21c6 2083      		st Z,r18
 6033 21c8 3183      		std Z+1,r19
 6034 21ca 4283      		std Z+2,r20
 6035 21cc 5383      		std Z+3,r21
 6036               	.LM627:
 6037 21ce DB01      		movw r26,r22
 6038 21d0 5996      		adiw r26,25
 6039 21d2 9C91      		ld r25,X
 6040 21d4 5997      		sbiw r26,25
 6041 21d6 80E0      		ldi r24,lo8(0)
 6042 21d8 5896      		adiw r26,24
 6043 21da 2C91      		ld r18,X
 6044 21dc 5897      		sbiw r26,24
 6045 21de 30E0      		ldi r19,lo8(0)
 6046 21e0 822B      		or r24,r18
 6047 21e2 932B      		or r25,r19
 6048 21e4 8483      		std Z+4,r24
 6049 21e6 9583      		std Z+5,r25
 6050               	.LM628:
 6051 21e8 5796      		adiw r26,23
 6052 21ea 9C91      		ld r25,X
 6053 21ec 5797      		sbiw r26,23
 6054 21ee 80E0      		ldi r24,lo8(0)
 6055 21f0 5696      		adiw r26,22
 6056 21f2 2C91      		ld r18,X
 6057 21f4 30E0      		ldi r19,lo8(0)
 6058 21f6 822B      		or r24,r18
 6059 21f8 932B      		or r25,r19
 6060 21fa 8683      		std Z+6,r24
 6061 21fc 9783      		std Z+7,r25
 6062 21fe E801      		movw r28,r16
 6063               	.LVL481:
 6064               	.L429:
 6065               	.LM629:
 6066 2200 1882      		st Y,__zero_reg__
 6067               	/* epilogue start */
 6068               	.LM630:
 6069 2202 DF91      		pop r29
 6070 2204 CF91      		pop r28
 6071               	.LVL482:
 6072 2206 1F91      		pop r17
 6073 2208 0F91      		pop r16
 6074               	.LVL483:
 6075 220a FF90      		pop r15
 6076 220c EF90      		pop r14
 6077               	.LVL484:
 6078 220e 0895      		ret
 6079               	.LFE60:
 6081               		.data
 6082               	.LC0:
 6083 0000 2022 2A2B 		.string	" \"*+,[=]|\177"
 6083      2C5B 3D5D 
 6083      7C7F 00
 6084               		.text
 6086               	follow_path:
 6087               	.LFB61:
 6088               	.LM631:
 6089               	.LVL485:
 6090 2210 5F92      		push r5
 6091 2212 6F92      		push r6
 6092 2214 7F92      		push r7
 6093 2216 8F92      		push r8
 6094 2218 9F92      		push r9
 6095 221a AF92      		push r10
 6096 221c BF92      		push r11
 6097 221e CF92      		push r12
 6098 2220 DF92      		push r13
 6099 2222 EF92      		push r14
 6100 2224 FF92      		push r15
 6101 2226 0F93      		push r16
 6102 2228 1F93      		push r17
 6103 222a CF93      		push r28
 6104 222c DF93      		push r29
 6105               	/* prologue: function */
 6106               	/* frame size = 0 */
 6107 222e EC01      		movw r28,r24
 6108 2230 7B01      		movw r14,r22
 6109 2232 00C0      		rjmp .L440
 6110               	.LVL486:
 6111               	.L441:
 6112               	.LM632:
 6113 2234 0894      		sec
 6114 2236 E11C      		adc r14,__zero_reg__
 6115 2238 F11C      		adc r15,__zero_reg__
 6116               	.LVL487:
 6117               	.L440:
 6118 223a F701      		movw r30,r14
 6119 223c 8081      		ld r24,Z
 6120 223e 8032      		cpi r24,lo8(32)
 6121 2240 01F0      		breq .L441
 6122               	.LM633:
 6123 2242 8F32      		cpi r24,lo8(47)
 6124 2244 01F0      		breq .L442
 6125 2246 8C35      		cpi r24,lo8(92)
 6126 2248 01F4      		brne .L443
 6127               	.L442:
 6128               	.LM634:
 6129 224a 0894      		sec
 6130 224c E11C      		adc r14,__zero_reg__
 6131 224e F11C      		adc r15,__zero_reg__
 6132               	.LVL488:
 6133               	.L443:
 6134               	.LM635:
 6135 2250 1E82      		std Y+6,__zero_reg__
 6136 2252 1F82      		std Y+7,__zero_reg__
 6137 2254 1886      		std Y+8,__zero_reg__
 6138 2256 1986      		std Y+9,__zero_reg__
 6139               	.LM636:
 6140 2258 F701      		movw r30,r14
 6141 225a 8081      		ld r24,Z
 6142 225c 8032      		cpi r24,lo8(32)
 6143 225e 00F4      		brsh .L444
 6144               	.LM637:
 6145 2260 CE01      		movw r24,r28
 6146 2262 60E0      		ldi r22,lo8(0)
 6147 2264 70E0      		ldi r23,hi8(0)
 6148 2266 0E94 0000 		call dir_seek
 6149               	.LM638:
 6150 226a 1A8A      		std Y+18,__zero_reg__
 6151 226c 1B8A      		std Y+19,__zero_reg__
 6152 226e 00C0      		rjmp .L445
 6153               	.LVL489:
 6154               	.L444:
 6155               	.LBB576:
 6156               	.LBB577:
 6157               	.LBB581:
 6158               	.LBB582:
 6159               	.LM639:
 6160 2270 00E2      		ldi r16,lo8(32)
 6161               	.LBE582:
 6162               	.LBE581:
 6163               	.LM640:
 6164 2272 45E0      		ldi r20,lo8(5)
 6165 2274 542E      		mov r5,r20
 6166               	.LVL490:
 6167               	.L480:
 6168               	.LM641:
 6169 2276 AC89      		ldd r26,Y+20
 6170 2278 BD89      		ldd r27,Y+21
 6171               	.LVL491:
 6172 227a FD01      		movw r30,r26
 6173               	.LVL492:
 6174 227c 8BE0      		ldi r24,lo8(11)
 6175 227e 90E0      		ldi r25,hi8(11)
 6176               	.LVL493:
 6177 2280 00C0      		rjmp .L446
 6178               	.LVL494:
 6179               	.L447:
 6180               	.LBB580:
 6181               	.LBB583:
 6182               	.LM642:
 6183 2282 0193      		st Z+,r16
 6184               	.L446:
 6185 2284 0197      		sbiw r24,1
 6186 2286 2FEF      		ldi r18,hi8(-1)
 6187 2288 8F3F      		cpi r24,lo8(-1)
 6188 228a 9207      		cpc r25,r18
 6189 228c 01F4      		brne .L447
 6190 228e 40E0      		ldi r20,lo8(0)
 6191 2290 50E0      		ldi r21,hi8(0)
 6192               	.LVL495:
 6193 2292 CC24      		clr r12
 6194 2294 DD24      		clr r13
 6195 2296 38E0      		ldi r19,lo8(8)
 6196 2298 A32E      		mov r10,r19
 6197 229a B12C      		mov r11,__zero_reg__
 6198 229c 10E0      		ldi r17,lo8(0)
 6199               	.LVL496:
 6200               	.L479:
 6201               	.LBE583:
 6202               	.LBE580:
 6203               	.LM643:
 6204 229e F701      		movw r30,r14
 6205 22a0 EC0D      		add r30,r12
 6206 22a2 FD1D      		adc r31,r13
 6207 22a4 2081      		ld r18,Z
 6208 22a6 0894      		sec
 6209 22a8 C11C      		adc r12,__zero_reg__
 6210 22aa D11C      		adc r13,__zero_reg__
 6211               	.LM644:
 6212 22ac 2132      		cpi r18,lo8(33)
 6213 22ae 00F4      		brsh .+2
 6214 22b0 00C0      		rjmp .L448
 6215 22b2 2F32      		cpi r18,lo8(47)
 6216 22b4 01F4      		brne .+2
 6217 22b6 00C0      		rjmp .L449
 6218 22b8 2C35      		cpi r18,lo8(92)
 6219 22ba 01F4      		brne .+2
 6220 22bc 00C0      		rjmp .L449
 6221               	.LM645:
 6222 22be 2E32      		cpi r18,lo8(46)
 6223 22c0 01F0      		breq .L450
 6224 22c2 4A15      		cp r20,r10
 6225 22c4 5B05      		cpc r21,r11
 6226 22c6 04F0      		brlt .L451
 6227               	.L450:
 6228               	.LM646:
 6229 22c8 88E0      		ldi r24,lo8(8)
 6230 22ca A816      		cp r10,r24
 6231 22cc B104      		cpc r11,__zero_reg__
 6232               	.LVL497:
 6233 22ce 01F0      		breq .+2
 6234 22d0 00C0      		rjmp .L452
 6235 22d2 2E32      		cpi r18,lo8(46)
 6236 22d4 01F0      		breq .+2
 6237 22d6 00C0      		rjmp .L452
 6238               	.LM647:
 6239 22d8 110F      		lsl r17
 6240 22da 110F      		lsl r17
 6241 22dc 48E0      		ldi r20,lo8(8)
 6242 22de 50E0      		ldi r21,hi8(8)
 6243 22e0 2BE0      		ldi r18,lo8(11)
 6244 22e2 A22E      		mov r10,r18
 6245 22e4 B12C      		mov r11,__zero_reg__
 6246               	.LVL498:
 6247 22e6 00C0      		rjmp .L479
 6248               	.LVL499:
 6249               	.L451:
 6250               	.LM648:
 6251 22e8 27FD      		sbrc r18,7
 6252               	.LM649:
 6253 22ea 1360      		ori r17,lo8(3)
 6254               	.L454:
 6255               	.LM650:
 6256 22ec 822F      		mov r24,r18
 6257               	.LVL500:
 6258 22ee 8158      		subi r24,lo8(-(127))
 6259 22f0 8F31      		cpi r24,lo8(31)
 6260 22f2 00F0      		brlo .L455
 6261 22f4 8F55      		subi r24,lo8(-(-95))
 6262 22f6 8D31      		cpi r24,lo8(29)
 6263 22f8 00F4      		brsh .L456
 6264               	.L455:
 6265               	.LM651:
 6266 22fa F701      		movw r30,r14
 6267 22fc EC0D      		add r30,r12
 6268 22fe FD1D      		adc r31,r13
 6269 2300 3081      		ld r19,Z
 6270               	.LM652:
 6271 2302 832F      		mov r24,r19
 6272 2304 8054      		subi r24,lo8(-(-64))
 6273 2306 8F33      		cpi r24,lo8(63)
 6274 2308 00F0      		brlo .L457
 6275 230a 8054      		subi r24,lo8(-(-64))
 6276 230c 8D37      		cpi r24,lo8(125)
 6277 230e 00F0      		brlo .+2
 6278 2310 00C0      		rjmp .L452
 6279               	.L457:
 6280 2312 C501      		movw r24,r10
 6281 2314 0197      		sbiw r24,1
 6282 2316 4817      		cp r20,r24
 6283 2318 5907      		cpc r21,r25
 6284 231a 04F0      		brlt .+2
 6285 231c 00C0      		rjmp .L452
 6286               	.LM653:
 6287 231e 0894      		sec
 6288 2320 C11C      		adc r12,__zero_reg__
 6289 2322 D11C      		adc r13,__zero_reg__
 6290               	.LM654:
 6291 2324 FD01      		movw r30,r26
 6292 2326 E40F      		add r30,r20
 6293 2328 F51F      		adc r31,r21
 6294 232a 2083      		st Z,r18
 6295 232c CA01      		movw r24,r20
 6296 232e 0196      		adiw r24,1
 6297               	.LVL501:
 6298               	.LM655:
 6299 2330 FD01      		movw r30,r26
 6300 2332 E80F      		add r30,r24
 6301 2334 F91F      		adc r31,r25
 6302 2336 3083      		st Z,r19
 6303 2338 AC01      		movw r20,r24
 6304 233a 00C0      		rjmp .L481
 6305               	.LVL502:
 6306               	.L456:
 6307               	.LM656:
 6308 233c 622F      		mov r22,r18
 6309 233e 70E0      		ldi r23,lo8(0)
 6310 2340 E0E0      		ldi r30,lo8(.LC0)
 6311 2342 F0E0      		ldi r31,hi8(.LC0)
 6312               	.LVL503:
 6313 2344 00C0      		rjmp .L458
 6314               	.L460:
 6315               	.LBB578:
 6316               	.LBB579:
 6317               	.LM657:
 6318 2346 3196      		adiw r30,1
 6319               	.L458:
 6320 2348 8081      		ld r24,Z
 6321 234a 8823      		tst r24
 6322 234c 01F0      		breq .L459
 6323 234e 90E0      		ldi r25,lo8(0)
 6324 2350 8617      		cp r24,r22
 6325 2352 9707      		cpc r25,r23
 6326 2354 01F4      		brne .L460
 6327 2356 00C0      		rjmp .L452
 6328               	.L459:
 6329               	.LBE579:
 6330               	.LBE578:
 6331               	.LM658:
 6332 2358 822F      		mov r24,r18
 6333 235a 8154      		subi r24,lo8(-(-65))
 6334 235c 8A31      		cpi r24,lo8(26)
 6335 235e 00F4      		brsh .L461
 6336               	.LM659:
 6337 2360 1260      		ori r17,lo8(2)
 6338 2362 00C0      		rjmp .L462
 6339               	.L461:
 6340               	.LM660:
 6341 2364 822F      		mov r24,r18
 6342 2366 8156      		subi r24,lo8(-(-97))
 6343 2368 8A31      		cpi r24,lo8(26)
 6344 236a 00F4      		brsh .L462
 6345               	.LM661:
 6346 236c 1160      		ori r17,lo8(1)
 6347 236e 2052      		subi r18,lo8(-(-32))
 6348               	.L462:
 6349               	.LM662:
 6350 2370 FD01      		movw r30,r26
 6351               	.LVL504:
 6352 2372 E40F      		add r30,r20
 6353 2374 F51F      		adc r31,r21
 6354 2376 2083      		st Z,r18
 6355               	.LVL505:
 6356               	.L481:
 6357 2378 4F5F      		subi r20,lo8(-(1))
 6358 237a 5F4F      		sbci r21,hi8(-(1))
 6359 237c 00C0      		rjmp .L479
 6360               	.LVL506:
 6361               	.L448:
 6362 237e 912F      		mov r25,r17
 6363 2380 64E0      		ldi r22,lo8(4)
 6364               	.LVL507:
 6365               	.L475:
 6366               	.LM663:
 6367 2382 452B      		or r20,r21
 6368 2384 01F4      		brne .+2
 6369 2386 00C0      		rjmp .L452
 6370               	.LM664:
 6371 2388 8C91      		ld r24,X
 6372               	.LVL508:
 6373 238a 853E      		cpi r24,lo8(-27)
 6374 238c 01F4      		brne .L463
 6375 238e 5C92      		st X,r5
 6376               	.L463:
 6377               	.LM665:
 6378 2390 E8E0      		ldi r30,lo8(8)
 6379 2392 AE16      		cp r10,r30
 6380 2394 B104      		cpc r11,__zero_reg__
 6381 2396 01F4      		brne .L464
 6382 2398 912F      		mov r25,r17
 6383 239a 990F      		lsl r25
 6384 239c 990F      		lsl r25
 6385               	.LVL509:
 6386               	.L464:
 6387               	.LM666:
 6388 239e 292F      		mov r18,r25
 6389 23a0 30E0      		ldi r19,lo8(0)
 6390               	.LVL510:
 6391 23a2 C901      		movw r24,r18
 6392 23a4 8370      		andi r24,lo8(3)
 6393 23a6 9070      		andi r25,hi8(3)
 6394 23a8 0197      		sbiw r24,1
 6395 23aa 01F4      		brne .L465
 6396 23ac 6061      		ori r22,lo8(16)
 6397               	.L465:
 6398               	.LM667:
 6399 23ae 2C70      		andi r18,lo8(12)
 6400 23b0 3070      		andi r19,hi8(12)
 6401 23b2 2430      		cpi r18,4
 6402 23b4 3105      		cpc r19,__zero_reg__
 6403 23b6 01F4      		brne .L466
 6404 23b8 6860      		ori r22,lo8(8)
 6405               	.L466:
 6406               	.LM668:
 6407 23ba 1B96      		adiw r26,11
 6408 23bc 6C93      		st X,r22
 6409               	.LBE577:
 6410               	.LBE576:
 6411               	.LBB585:
 6412               	.LM669:
 6413 23be CE01      		movw r24,r28
 6414 23c0 60E0      		ldi r22,lo8(0)
 6415 23c2 70E0      		ldi r23,hi8(0)
 6416               	.LVL511:
 6417 23c4 0E94 0000 		call dir_seek
 6418               	.LVL512:
 6419               	.L482:
 6420 23c8 482F      		mov r20,r24
 6421               	.LVL513:
 6422               	.LBB586:
 6423               	.LM670:
 6424 23ca 8823      		tst r24
 6425 23cc 01F4      		brne .L467
 6426               	.LVL514:
 6427               	.LBE586:
 6428               	.LM671:
 6429 23ce 4E85      		ldd r20,Y+14
 6430 23d0 5F85      		ldd r21,Y+15
 6431 23d2 6889      		ldd r22,Y+16
 6432 23d4 7989      		ldd r23,Y+17
 6433 23d6 8881      		ld r24,Y
 6434 23d8 9981      		ldd r25,Y+1
 6435               	.LVL515:
 6436 23da 0E94 0000 		call move_window
 6437 23de 482F      		mov r20,r24
 6438               	.LVL516:
 6439               	.LBB589:
 6440               	.LM672:
 6441 23e0 8823      		tst r24
 6442 23e2 01F4      		brne .L467
 6443               	.LVL517:
 6444               	.LM673:
 6445 23e4 EA89      		ldd r30,Y+18
 6446 23e6 FB89      		ldd r31,Y+19
 6447               	.LVL518:
 6448               	.LM674:
 6449 23e8 8081      		ld r24,Z
 6450               	.LVL519:
 6451 23ea 8823      		tst r24
 6452 23ec 01F4      		brne .L468
 6453 23ee 44E0      		ldi r20,lo8(4)
 6454 23f0 00C0      		rjmp .L467
 6455               	.L468:
 6456               	.LM675:
 6457 23f2 8385      		ldd r24,Z+11
 6458 23f4 83FD      		sbrc r24,3
 6459 23f6 00C0      		rjmp .L469
 6460 23f8 DF01      		movw r26,r30
 6461               	.LVL520:
 6462 23fa 8C89      		ldd r24,Y+20
 6463               	.LVL521:
 6464 23fc 9D89      		ldd r25,Y+21
 6465               	.LVL522:
 6466 23fe 9C01      		movw r18,r24
 6467               	.LVL523:
 6468 2400 F901      		movw r30,r18
 6469               	.LVL524:
 6470 2402 2BE0      		ldi r18,lo8(11)
 6471 2404 30E0      		ldi r19,hi8(11)
 6472               	.LVL525:
 6473               	.L470:
 6474               	.LBB587:
 6475               	.LBB588:
 6476               	.LM676:
 6477 2406 2150      		subi r18,lo8(-(-1))
 6478 2408 3040      		sbci r19,hi8(-(-1))
 6479 240a 8FEF      		ldi r24,hi8(-1)
 6480 240c 2F3F      		cpi r18,lo8(-1)
 6481 240e 3807      		cpc r19,r24
 6482 2410 01F0      		breq .L467
 6483 2412 9C91      		ld r25,X
 6484               	.LVL526:
 6485 2414 8081      		ld r24,Z
 6486 2416 9817      		cp r25,r24
 6487 2418 01F4      		brne .L469
 6488 241a 1196      		adiw r26,1
 6489 241c 3196      		adiw r30,1
 6490 241e 00C0      		rjmp .L470
 6491               	.LVL527:
 6492               	.L469:
 6493               	.LBE588:
 6494               	.LBE587:
 6495               	.LBE589:
 6496               	.LM677:
 6497 2420 CE01      		movw r24,r28
 6498 2422 60E0      		ldi r22,lo8(0)
 6499 2424 0E94 0000 		call dir_next
 6500               	.LVL528:
 6501 2428 00C0      		rjmp .L482
 6502               	.LVL529:
 6503               	.L467:
 6504               	.LBE585:
 6505               	.LM678:
 6506 242a EC89      		ldd r30,Y+20
 6507 242c FD89      		ldd r31,Y+21
 6508               	.LVL530:
 6509 242e 9385      		ldd r25,Z+11
 6510               	.LVL531:
 6511 2430 9470      		andi r25,lo8(4)
 6512               	.LM679:
 6513 2432 4423      		tst r20
 6514 2434 01F0      		breq .L472
 6515 2436 842F      		mov r24,r20
 6516               	.LM680:
 6517 2438 4430      		cpi r20,lo8(4)
 6518 243a 01F4      		brne .L473
 6519 243c 9923      		tst r25
 6520 243e 01F0      		breq .L474
 6521 2440 00C0      		rjmp .L445
 6522               	.L472:
 6523               	.LM681:
 6524 2442 9923      		tst r25
 6525 2444 01F4      		brne .L473
 6526               	.LM682:
 6527 2446 EA89      		ldd r30,Y+18
 6528 2448 FB89      		ldd r31,Y+19
 6529               	.LVL532:
 6530               	.LM683:
 6531 244a 8385      		ldd r24,Z+11
 6532 244c 84FF      		sbrs r24,4
 6533 244e 00C0      		rjmp .L474
 6534               	.LBB590:
 6535               	.LBB584:
 6536               	.LM684:
 6537 2450 EC0C      		add r14,r12
 6538 2452 FD1C      		adc r15,r13
 6539               	.LBE584:
 6540               	.LBE590:
 6541               	.LM685:
 6542 2454 7588      		ldd r7,Z+21
 6543 2456 6624      		clr r6
 6544 2458 2489      		ldd r18,Z+20
 6545               	.LVL533:
 6546 245a 30E0      		ldi r19,lo8(0)
 6547 245c 2629      		or r18,r6
 6548 245e 3729      		or r19,r7
 6549 2460 40E0      		ldi r20,lo8(0)
 6550 2462 50E0      		ldi r21,hi8(0)
 6551               	.LVL534:
 6552 2464 A901      		movw r20,r18
 6553 2466 3327      		clr r19
 6554 2468 2227      		clr r18
 6555               	.LVL535:
 6556 246a 938C      		ldd r9,Z+27
 6557 246c 8824      		clr r8
 6558 246e 828D      		ldd r24,Z+26
 6559 2470 90E0      		ldi r25,lo8(0)
 6560 2472 8829      		or r24,r8
 6561 2474 9929      		or r25,r9
 6562 2476 A0E0      		ldi r26,lo8(0)
 6563 2478 B0E0      		ldi r27,hi8(0)
 6564               	.LVL536:
 6565 247a 282B      		or r18,r24
 6566 247c 392B      		or r19,r25
 6567 247e 4A2B      		or r20,r26
 6568 2480 5B2B      		or r21,r27
 6569 2482 2E83      		std Y+6,r18
 6570 2484 3F83      		std Y+7,r19
 6571 2486 4887      		std Y+8,r20
 6572 2488 5987      		std Y+9,r21
 6573 248a 00C0      		rjmp .L480
 6574               	.LVL537:
 6575               	.L452:
 6576               	.LM686:
 6577 248c 86E0      		ldi r24,lo8(6)
 6578               	.LVL538:
 6579 248e 00C0      		rjmp .L445
 6580               	.LVL539:
 6581               	.L473:
 6582 2490 842F      		mov r24,r20
 6583 2492 00C0      		rjmp .L445
 6584               	.LVL540:
 6585               	.L474:
 6586 2494 85E0      		ldi r24,lo8(5)
 6587               	.LVL541:
 6588               	.L445:
 6589               	.LVL542:
 6590               	/* epilogue start */
 6591               	.LM687:
 6592 2496 DF91      		pop r29
 6593 2498 CF91      		pop r28
 6594               	.LVL543:
 6595 249a 1F91      		pop r17
 6596               	.LVL544:
 6597 249c 0F91      		pop r16
 6598 249e FF90      		pop r15
 6599 24a0 EF90      		pop r14
 6600               	.LVL545:
 6601 24a2 DF90      		pop r13
 6602 24a4 CF90      		pop r12
 6603               	.LVL546:
 6604 24a6 BF90      		pop r11
 6605 24a8 AF90      		pop r10
 6606               	.LVL547:
 6607 24aa 9F90      		pop r9
 6608 24ac 8F90      		pop r8
 6609 24ae 7F90      		pop r7
 6610 24b0 6F90      		pop r6
 6611 24b2 5F90      		pop r5
 6612 24b4 0895      		ret
 6613               	.LVL548:
 6614               	.L449:
 6615               	.LM688:
 6616 24b6 912F      		mov r25,r17
 6617 24b8 60E0      		ldi r22,lo8(0)
 6618               	.LVL549:
 6619 24ba 00C0      		rjmp .L475
 6620               	.LFE61:
 6623               	check_fs:
 6624               	.LFB62:
 6625               	.LM689:
 6626               	.LVL550:
 6627 24bc 0F93      		push r16
 6628 24be CF93      		push r28
 6629 24c0 DF93      		push r29
 6630               	/* prologue: function */
 6631               	/* frame size = 0 */
 6632 24c2 EC01      		movw r28,r24
 6633 24c4 9A01      		movw r18,r20
 6634 24c6 AB01      		movw r20,r22
 6635               	.LM690:
 6636 24c8 BC01      		movw r22,r24
 6637 24ca 625D      		subi r22,lo8(-(46))
 6638 24cc 7F4F      		sbci r23,hi8(-(46))
 6639 24ce 8981      		ldd r24,Y+1
 6640               	.LVL551:
 6641 24d0 01E0      		ldi r16,lo8(1)
 6642 24d2 0E94 0000 		call disk_read
 6643               	.LVL552:
 6644 24d6 8823      		tst r24
 6645 24d8 01F0      		breq .L484
 6646 24da 63E0      		ldi r22,lo8(3)
 6647 24dc 00C0      		rjmp .L485
 6648               	.L484:
 6649               	.LM691:
 6650 24de C35D      		subi r28,lo8(-(557))
 6651 24e0 DD4F      		sbci r29,hi8(-(557))
 6652 24e2 9881      		ld r25,Y
 6653 24e4 80E0      		ldi r24,lo8(0)
 6654 24e6 2A91      		ld r18,-Y
 6655 24e8 CC52      		subi r28,lo8(-(-556))
 6656 24ea D240      		sbci r29,hi8(-(-556))
 6657 24ec 30E0      		ldi r19,lo8(0)
 6658 24ee 822B      		or r24,r18
 6659 24f0 932B      		or r25,r19
 6660 24f2 8555      		subi r24,lo8(-21931)
 6661 24f4 9A4A      		sbci r25,hi8(-21931)
 6662 24f6 01F0      		breq .L486
 6663 24f8 62E0      		ldi r22,lo8(2)
 6664 24fa 00C0      		rjmp .L485
 6665               	.L486:
 6666               	.LM692:
 6667 24fc C959      		subi r28,lo8(-(103))
 6668 24fe DF4F      		sbci r29,hi8(-(103))
 6669 2500 2881      		ld r18,Y
 6670 2502 30E0      		ldi r19,lo8(0)
 6671 2504 40E0      		ldi r20,lo8(0)
 6672 2506 50E0      		ldi r21,hi8(0)
 6673 2508 522F      		mov r21,r18
 6674 250a 4427      		clr r20
 6675 250c 3327      		clr r19
 6676 250e 2227      		clr r18
 6677 2510 8A91      		ld r24,-Y
 6678 2512 90E0      		ldi r25,lo8(0)
 6679 2514 A0E0      		ldi r26,lo8(0)
 6680 2516 B0E0      		ldi r27,hi8(0)
 6681 2518 DC01      		movw r26,r24
 6682 251a 9927      		clr r25
 6683 251c 8827      		clr r24
 6684 251e 282B      		or r18,r24
 6685 2520 392B      		or r19,r25
 6686 2522 4A2B      		or r20,r26
 6687 2524 5B2B      		or r21,r27
 6688 2526 2297      		sbiw r28,2
 6689 2528 8991      		ld r24,Y+
 6690 252a 90E0      		ldi r25,lo8(0)
 6691 252c A0E0      		ldi r26,lo8(0)
 6692 252e B0E0      		ldi r27,hi8(0)
 6693 2530 282B      		or r18,r24
 6694 2532 392B      		or r19,r25
 6695 2534 4A2B      		or r20,r26
 6696 2536 5B2B      		or r21,r27
 6697 2538 9881      		ld r25,Y
 6698 253a C556      		subi r28,lo8(-(-101))
 6699 253c D040      		sbci r29,hi8(-(-101))
 6700 253e 80E0      		ldi r24,lo8(0)
 6701 2540 A0E0      		ldi r26,lo8(0)
 6702 2542 B0E0      		ldi r27,hi8(0)
 6703 2544 282B      		or r18,r24
 6704 2546 392B      		or r19,r25
 6705 2548 4A2B      		or r20,r26
 6706 254a 5B2B      		or r21,r27
 6707 254c 5070      		andi r21,hhi8(16777215)
 6708 254e 2654      		subi r18,lo8(5521734)
 6709 2550 3144      		sbci r19,hi8(5521734)
 6710 2552 4445      		sbci r20,hlo8(5521734)
 6711 2554 5040      		sbci r21,hhi8(5521734)
 6712 2556 01F4      		brne .L487
 6713 2558 60E0      		ldi r22,lo8(0)
 6714 255a 00C0      		rjmp .L485
 6715               	.L487:
 6716 255c 60E0      		ldi r22,lo8(0)
 6717 255e CD57      		subi r28,lo8(-(131))
 6718 2560 DF4F      		sbci r29,hi8(-(131))
 6719 2562 2881      		ld r18,Y
 6720 2564 30E0      		ldi r19,lo8(0)
 6721 2566 40E0      		ldi r20,lo8(0)
 6722 2568 50E0      		ldi r21,hi8(0)
 6723 256a 522F      		mov r21,r18
 6724 256c 4427      		clr r20
 6725 256e 3327      		clr r19
 6726 2570 2227      		clr r18
 6727 2572 8A91      		ld r24,-Y
 6728 2574 90E0      		ldi r25,lo8(0)
 6729 2576 A0E0      		ldi r26,lo8(0)
 6730 2578 B0E0      		ldi r27,hi8(0)
 6731 257a DC01      		movw r26,r24
 6732 257c 9927      		clr r25
 6733 257e 8827      		clr r24
 6734 2580 282B      		or r18,r24
 6735 2582 392B      		or r19,r25
 6736 2584 4A2B      		or r20,r26
 6737 2586 5B2B      		or r21,r27
 6738 2588 2297      		sbiw r28,2
 6739 258a 8991      		ld r24,Y+
 6740 258c 90E0      		ldi r25,lo8(0)
 6741 258e A0E0      		ldi r26,lo8(0)
 6742 2590 B0E0      		ldi r27,hi8(0)
 6743 2592 282B      		or r18,r24
 6744 2594 392B      		or r19,r25
 6745 2596 4A2B      		or r20,r26
 6746 2598 5B2B      		or r21,r27
 6747 259a 9881      		ld r25,Y
 6748               	.LVL553:
 6749 259c 80E0      		ldi r24,lo8(0)
 6750 259e A0E0      		ldi r26,lo8(0)
 6751 25a0 B0E0      		ldi r27,hi8(0)
 6752 25a2 282B      		or r18,r24
 6753 25a4 392B      		or r19,r25
 6754 25a6 4A2B      		or r20,r26
 6755 25a8 5B2B      		or r21,r27
 6756 25aa 5070      		andi r21,hhi8(16777215)
 6757 25ac 2654      		subi r18,lo8(5521734)
 6758 25ae 3144      		sbci r19,hi8(5521734)
 6759 25b0 4445      		sbci r20,hlo8(5521734)
 6760 25b2 5040      		sbci r21,hhi8(5521734)
 6761 25b4 01F0      		breq .L485
 6762 25b6 61E0      		ldi r22,lo8(1)
 6763               	.LVL554:
 6764               	.L485:
 6765               	.LM693:
 6766 25b8 862F      		mov r24,r22
 6767               	/* epilogue start */
 6768 25ba DF91      		pop r29
 6769 25bc CF91      		pop r28
 6770               	.LVL555:
 6771 25be 0F91      		pop r16
 6772 25c0 0895      		ret
 6773               	.LFE62:
 6775               	.global	chk_mounted
 6777               	chk_mounted:
 6778               	.LFB63:
 6779               	.LM694:
 6780               	.LVL556:
 6781 25c2 6F92      		push r6
 6782 25c4 7F92      		push r7
 6783 25c6 8F92      		push r8
 6784 25c8 9F92      		push r9
 6785 25ca AF92      		push r10
 6786 25cc BF92      		push r11
 6787 25ce CF92      		push r12
 6788 25d0 DF92      		push r13
 6789 25d2 EF92      		push r14
 6790 25d4 FF92      		push r15
 6791 25d6 0F93      		push r16
 6792 25d8 1F93      		push r17
 6793 25da CF93      		push r28
 6794 25dc DF93      		push r29
 6795               	/* prologue: function */
 6796               	/* frame size = 0 */
 6797 25de FC01      		movw r30,r24
 6798 25e0 9B01      		movw r18,r22
 6799 25e2 F42E      		mov r15,r20
 6800               	.LM695:
 6801 25e4 A081      		ld r26,Z
 6802 25e6 B181      		ldd r27,Z+1
 6803               	.LVL557:
 6804               	.LM696:
 6805 25e8 8C91      		ld r24,X
 6806               	.LVL558:
 6807 25ea 082F      		mov r16,r24
 6808               	.LVL559:
 6809 25ec 10E0      		ldi r17,lo8(0)
 6810               	.LVL560:
 6811 25ee 0053      		subi r16,lo8(-(-48))
 6812 25f0 1040      		sbci r17,hi8(-(-48))
 6813               	.LVL561:
 6814               	.LM697:
 6815 25f2 0A30      		cpi r16,10
 6816 25f4 1105      		cpc r17,__zero_reg__
 6817 25f6 00F4      		brsh .L491
 6818               	.LVL562:
 6819 25f8 1196      		adiw r26,1
 6820 25fa 8C91      		ld r24,X
 6821 25fc 1197      		sbiw r26,1
 6822 25fe 8A33      		cpi r24,lo8(58)
 6823 2600 01F4      		brne .L491
 6824               	.LM698:
 6825 2602 1296      		adiw r26,2
 6826 2604 A083      		st Z,r26
 6827 2606 B183      		std Z+1,r27
 6828               	.LM699:
 6829 2608 0230      		cpi r16,2
 6830 260a 1105      		cpc r17,__zero_reg__
 6831 260c 00F0      		brlo .L492
 6832 260e 8BE0      		ldi r24,lo8(11)
 6833 2610 00C0      		rjmp .L493
 6834               	.L491:
 6835 2612 00E0      		ldi r16,lo8(0)
 6836 2614 10E0      		ldi r17,hi8(0)
 6837               	.L492:
 6838               	.LM700:
 6839 2616 F801      		movw r30,r16
 6840               	.LVL563:
 6841 2618 EE0F      		lsl r30
 6842 261a FF1F      		rol r31
 6843 261c E050      		subi r30,lo8(-(FatFs))
 6844 261e F040      		sbci r31,hi8(-(FatFs))
 6845 2620 C081      		ld r28,Z
 6846 2622 D181      		ldd r29,Z+1
 6847               	.LVL564:
 6848 2624 F901      		movw r30,r18
 6849 2626 C083      		st Z,r28
 6850 2628 D183      		std Z+1,r29
 6851               	.LM701:
 6852 262a 2097      		sbiw r28,0
 6853 262c 01F4      		brne .L494
 6854 262e 8CE0      		ldi r24,lo8(12)
 6855 2630 00C0      		rjmp .L493
 6856               	.L494:
 6857               	.LM702:
 6858 2632 8881      		ld r24,Y
 6859 2634 8823      		tst r24
 6860 2636 01F0      		breq .L495
 6861               	.LBB591:
 6862               	.LBB592:
 6863               	.LM703:
 6864 2638 8981      		ldd r24,Y+1
 6865 263a 8823      		tst r24
 6866 263c 01F0      		breq .L496
 6867 263e 81E0      		ldi r24,lo8(1)
 6868               	.LVL565:
 6869 2640 00C0      		rjmp .L497
 6870               	.LVL566:
 6871               	.L496:
 6872               	.LM704:
 6873 2642 8091 0000 		lds r24,Stat
 6874               	.LVL567:
 6875               	.L497:
 6876               	.LBE592:
 6877               	.LBE591:
 6878               	.LM705:
 6879 2646 80FD      		sbrc r24,0
 6880 2648 00C0      		rjmp .L495
 6881               	.LVL568:
 6882               	.LM706:
 6883 264a FF20      		tst r15
 6884 264c 01F4      		brne .+2
 6885 264e 00C0      		rjmp .L498
 6886 2650 82FD      		sbrc r24,2
 6887 2652 00C0      		rjmp .L499
 6888 2654 00C0      		rjmp .L498
 6889               	.L495:
 6890               	.LM707:
 6891 2656 1882      		st Y,__zero_reg__
 6892               	.LM708:
 6893 2658 F801      		movw r30,r16
 6894 265a EE0F      		lsl r30
 6895 265c FF1F      		rol r31
 6896 265e E050      		subi r30,lo8(-(Drives))
 6897 2660 F040      		sbci r31,hi8(-(Drives))
 6898 2662 8081      		ld r24,Z
 6899 2664 8983      		std Y+1,r24
 6900               	.LM709:
 6901 2666 0E94 0000 		call disk_initialize
 6902               	.LVL569:
 6903               	.LM710:
 6904 266a 80FF      		sbrs r24,0
 6905 266c 00C0      		rjmp .L500
 6906 266e 83E0      		ldi r24,lo8(3)
 6907 2670 00C0      		rjmp .L493
 6908               	.L500:
 6909               	.LM711:
 6910 2672 FF20      		tst r15
 6911 2674 01F0      		breq .L501
 6912 2676 82FD      		sbrc r24,2
 6913 2678 00C0      		rjmp .L499
 6914               	.L501:
 6915               	.LM712:
 6916 267a CE01      		movw r24,r28
 6917 267c 40E0      		ldi r20,lo8(0)
 6918 267e 50E0      		ldi r21,hi8(0)
 6919 2680 60E0      		ldi r22,hlo8(0)
 6920 2682 70E0      		ldi r23,hhi8(0)
 6921 2684 0E94 0000 		call check_fs
 6922               	.LM713:
 6923 2688 8130      		cpi r24,lo8(1)
 6924               	.LVL570:
 6925 268a 01F0      		breq .L502
 6926 268c AA24      		clr r10
 6927 268e BB24      		clr r11
 6928 2690 6501      		movw r12,r10
 6929               	.LVL571:
 6930 2692 00C0      		rjmp .L503
 6931               	.LVL572:
 6932               	.L502:
 6933               	.LM714:
 6934 2694 000F      		lsl r16
 6935 2696 111F      		rol r17
 6936 2698 0050      		subi r16,lo8(-(Drives))
 6937 269a 1040      		sbci r17,hi8(-(Drives))
 6938 269c F801      		movw r30,r16
 6939 269e 8181      		ldd r24,Z+1
 6940               	.LVL573:
 6941 26a0 E82F      		mov r30,r24
 6942               	.LVL574:
 6943 26a2 F0E0      		ldi r31,lo8(0)
 6944               	.LVL575:
 6945 26a4 A4E0      		ldi r26,4
 6946 26a6 EE0F      	1:	lsl r30
 6947 26a8 FF1F      		rol r31
 6948 26aa AA95      		dec r26
 6949 26ac 01F4      		brne 1b
 6950               	.LVL576:
 6951 26ae E451      		subi r30,lo8(-(492))
 6952 26b0 FE4F      		sbci r31,hi8(-(492))
 6953 26b2 EC0F      		add r30,r28
 6954 26b4 FD1F      		adc r31,r29
 6955               	.LM715:
 6956 26b6 8481      		ldd r24,Z+4
 6957 26b8 8823      		tst r24
 6958 26ba 01F4      		brne .+2
 6959 26bc 00C0      		rjmp .L504
 6960               	.LM716:
 6961 26be 8385      		ldd r24,Z+11
 6962 26c0 90E0      		ldi r25,lo8(0)
 6963 26c2 A0E0      		ldi r26,lo8(0)
 6964 26c4 B0E0      		ldi r27,hi8(0)
 6965 26c6 D82E      		mov r13,r24
 6966 26c8 CC24      		clr r12
 6967 26ca BB24      		clr r11
 6968 26cc AA24      		clr r10
 6969               	.LVL577:
 6970 26ce 8285      		ldd r24,Z+10
 6971 26d0 90E0      		ldi r25,lo8(0)
 6972 26d2 A0E0      		ldi r26,lo8(0)
 6973 26d4 B0E0      		ldi r27,hi8(0)
 6974 26d6 DC01      		movw r26,r24
 6975 26d8 9927      		clr r25
 6976 26da 8827      		clr r24
 6977 26dc A82A      		or r10,r24
 6978 26de B92A      		or r11,r25
 6979 26e0 CA2A      		or r12,r26
 6980 26e2 DB2A      		or r13,r27
 6981 26e4 8085      		ldd r24,Z+8
 6982 26e6 90E0      		ldi r25,lo8(0)
 6983 26e8 A0E0      		ldi r26,lo8(0)
 6984 26ea B0E0      		ldi r27,hi8(0)
 6985 26ec A82A      		or r10,r24
 6986 26ee B92A      		or r11,r25
 6987 26f0 CA2A      		or r12,r26
 6988 26f2 DB2A      		or r13,r27
 6989 26f4 9185      		ldd r25,Z+9
 6990 26f6 80E0      		ldi r24,lo8(0)
 6991 26f8 A0E0      		ldi r26,lo8(0)
 6992 26fa B0E0      		ldi r27,hi8(0)
 6993 26fc A82A      		or r10,r24
 6994 26fe B92A      		or r11,r25
 6995 2700 CA2A      		or r12,r26
 6996 2702 DB2A      		or r13,r27
 6997               	.LM717:
 6998 2704 CE01      		movw r24,r28
 6999 2706 B601      		movw r22,r12
 7000 2708 A501      		movw r20,r10
 7001 270a 0E94 0000 		call check_fs
 7002               	.LVL578:
 7003               	.L503:
 7004               	.LM718:
 7005 270e 8330      		cpi r24,lo8(3)
 7006 2710 01F4      		brne .L505
 7007 2712 81E0      		ldi r24,lo8(1)
 7008               	.LVL579:
 7009 2714 00C0      		rjmp .L493
 7010               	.LVL580:
 7011               	.L505:
 7012               	.LM719:
 7013 2716 8823      		tst r24
 7014 2718 01F0      		breq .+2
 7015 271a 00C0      		rjmp .L504
 7016 271c 9AAD      		ldd r25,Y+58
 7017 271e 80E0      		ldi r24,lo8(0)
 7018               	.LVL581:
 7019 2720 29AD      		ldd r18,Y+57
 7020 2722 30E0      		ldi r19,lo8(0)
 7021 2724 822B      		or r24,r18
 7022 2726 932B      		or r25,r19
 7023 2728 8050      		subi r24,lo8(512)
 7024 272a 9240      		sbci r25,hi8(512)
 7025 272c 01F0      		breq .+2
 7026 272e 00C0      		rjmp .L504
 7027               	.LM720:
 7028 2730 CB5B      		subi r28,lo8(-(69))
 7029 2732 DF4F      		sbci r29,hi8(-(69))
 7030 2734 9881      		ld r25,Y
 7031 2736 80E0      		ldi r24,lo8(0)
 7032 2738 2A91      		ld r18,-Y
 7033 273a C454      		subi r28,lo8(-(-68))
 7034 273c D040      		sbci r29,hi8(-(-68))
 7035 273e 30E0      		ldi r19,lo8(0)
 7036 2740 822B      		or r24,r18
 7037 2742 932B      		or r25,r19
 7038 2744 7C01      		movw r14,r24
 7039               	.LVL582:
 7040 2746 00E0      		ldi r16,lo8(0)
 7041 2748 10E0      		ldi r17,hi8(0)
 7042               	.LVL583:
 7043               	.LM721:
 7044 274a E114      		cp r14,__zero_reg__
 7045 274c F104      		cpc r15,__zero_reg__
 7046 274e 0105      		cpc r16,__zero_reg__
 7047 2750 1105      		cpc r17,__zero_reg__
 7048 2752 01F4      		brne .L506
 7049 2754 CB5A      		subi r28,lo8(-(85))
 7050 2756 DF4F      		sbci r29,hi8(-(85))
 7051 2758 8881      		ld r24,Y
 7052 275a 90E0      		ldi r25,lo8(0)
 7053 275c A0E0      		ldi r26,lo8(0)
 7054 275e B0E0      		ldi r27,hi8(0)
 7055 2760 182F      		mov r17,r24
 7056 2762 0027      		clr r16
 7057 2764 FF24      		clr r15
 7058 2766 EE24      		clr r14
 7059               	.LVL584:
 7060 2768 8A91      		ld r24,-Y
 7061 276a 90E0      		ldi r25,lo8(0)
 7062 276c A0E0      		ldi r26,lo8(0)
 7063 276e B0E0      		ldi r27,hi8(0)
 7064 2770 DC01      		movw r26,r24
 7065 2772 9927      		clr r25
 7066 2774 8827      		clr r24
 7067 2776 E82A      		or r14,r24
 7068 2778 F92A      		or r15,r25
 7069 277a 0A2B      		or r16,r26
 7070 277c 1B2B      		or r17,r27
 7071 277e 2297      		sbiw r28,2
 7072 2780 8991      		ld r24,Y+
 7073 2782 90E0      		ldi r25,lo8(0)
 7074 2784 A0E0      		ldi r26,lo8(0)
 7075 2786 B0E0      		ldi r27,hi8(0)
 7076 2788 E82A      		or r14,r24
 7077 278a F92A      		or r15,r25
 7078 278c 0A2B      		or r16,r26
 7079 278e 1B2B      		or r17,r27
 7080 2790 9881      		ld r25,Y
 7081 2792 C355      		subi r28,lo8(-(-83))
 7082 2794 D040      		sbci r29,hi8(-(-83))
 7083 2796 80E0      		ldi r24,lo8(0)
 7084 2798 A0E0      		ldi r26,lo8(0)
 7085 279a B0E0      		ldi r27,hi8(0)
 7086 279c E82A      		or r14,r24
 7087 279e F92A      		or r15,r25
 7088 27a0 0A2B      		or r16,r26
 7089 27a2 1B2B      		or r17,r27
 7090               	.L506:
 7091               	.LM722:
 7092 27a4 EE8A      		std Y+22,r14
 7093 27a6 FF8A      		std Y+23,r15
 7094 27a8 088F      		std Y+24,r16
 7095 27aa 198F      		std Y+25,r17
 7096               	.LM723:
 7097 27ac 2EAD      		ldd r18,Y+62
 7098 27ae 2B83      		std Y+3,r18
 7099               	.LM724:
 7100 27b0 30E0      		ldi r19,lo8(0)
 7101 27b2 40E0      		ldi r20,lo8(0)
 7102 27b4 50E0      		ldi r21,hi8(0)
 7103 27b6 C801      		movw r24,r16
 7104 27b8 B701      		movw r22,r14
 7105 27ba 0E94 0000 		call __mulsi3
 7106 27be 3B01      		movw r6,r22
 7107 27c0 4C01      		movw r8,r24
 7108               	.LVL585:
 7109               	.LM725:
 7110 27c2 9DAD      		ldd r25,Y+61
 7111 27c4 80E0      		ldi r24,lo8(0)
 7112 27c6 2CAD      		ldd r18,Y+60
 7113 27c8 30E0      		ldi r19,lo8(0)
 7114 27ca 822B      		or r24,r18
 7115 27cc 932B      		or r25,r19
 7116 27ce A0E0      		ldi r26,lo8(0)
 7117 27d0 B0E0      		ldi r27,hi8(0)
 7118 27d2 8A0D      		add r24,r10
 7119 27d4 9B1D      		adc r25,r11
 7120 27d6 AC1D      		adc r26,r12
 7121 27d8 BD1D      		adc r27,r13
 7122 27da 8E8F      		std Y+30,r24
 7123 27dc 9F8F      		std Y+31,r25
 7124 27de A8A3      		std Y+32,r26
 7125 27e0 B9A3      		std Y+33,r27
 7126               	.LM726:
 7127 27e2 8BAD      		ldd r24,Y+59
 7128 27e4 8A83      		std Y+2,r24
 7129               	.LM727:
 7130 27e6 C05C      		subi r28,lo8(-(64))
 7131 27e8 DF4F      		sbci r29,hi8(-(64))
 7132 27ea 9881      		ld r25,Y
 7133 27ec C054      		subi r28,lo8(-(-64))
 7134 27ee D040      		sbci r29,hi8(-(-64))
 7135 27f0 80E0      		ldi r24,lo8(0)
 7136 27f2 2FAD      		ldd r18,Y+63
 7137 27f4 422F      		mov r20,r18
 7138 27f6 50E0      		ldi r21,lo8(0)
 7139 27f8 482B      		or r20,r24
 7140 27fa 592B      		or r21,r25
 7141 27fc 4887      		std Y+8,r20
 7142 27fe 5987      		std Y+9,r21
 7143               	.LM728:
 7144 2800 CE5B      		subi r28,lo8(-(66))
 7145 2802 DF4F      		sbci r29,hi8(-(66))
 7146 2804 9881      		ld r25,Y
 7147 2806 80E0      		ldi r24,lo8(0)
 7148 2808 2A91      		ld r18,-Y
 7149 280a C154      		subi r28,lo8(-(-65))
 7150 280c D040      		sbci r29,hi8(-(-65))
 7151 280e 30E0      		ldi r19,lo8(0)
 7152 2810 822B      		or r24,r18
 7153 2812 932B      		or r25,r19
 7154 2814 7C01      		movw r14,r24
 7155               	.LVL586:
 7156 2816 00E0      		ldi r16,lo8(0)
 7157 2818 10E0      		ldi r17,hi8(0)
 7158               	.LVL587:
 7159               	.LM729:
 7160 281a E114      		cp r14,__zero_reg__
 7161 281c F104      		cpc r15,__zero_reg__
 7162 281e 0105      		cpc r16,__zero_reg__
 7163 2820 1105      		cpc r17,__zero_reg__
 7164 2822 01F4      		brne .L507
 7165 2824 CF5A      		subi r28,lo8(-(81))
 7166 2826 DF4F      		sbci r29,hi8(-(81))
 7167 2828 8881      		ld r24,Y
 7168 282a 90E0      		ldi r25,lo8(0)
 7169 282c A0E0      		ldi r26,lo8(0)
 7170 282e B0E0      		ldi r27,hi8(0)
 7171 2830 182F      		mov r17,r24
 7172 2832 0027      		clr r16
 7173 2834 FF24      		clr r15
 7174 2836 EE24      		clr r14
 7175               	.LVL588:
 7176 2838 8A91      		ld r24,-Y
 7177 283a 90E0      		ldi r25,lo8(0)
 7178 283c A0E0      		ldi r26,lo8(0)
 7179 283e B0E0      		ldi r27,hi8(0)
 7180 2840 DC01      		movw r26,r24
 7181 2842 9927      		clr r25
 7182 2844 8827      		clr r24
 7183 2846 E82A      		or r14,r24
 7184 2848 F92A      		or r15,r25
 7185 284a 0A2B      		or r16,r26
 7186 284c 1B2B      		or r17,r27
 7187 284e 2297      		sbiw r28,2
 7188 2850 8991      		ld r24,Y+
 7189 2852 90E0      		ldi r25,lo8(0)
 7190 2854 A0E0      		ldi r26,lo8(0)
 7191 2856 B0E0      		ldi r27,hi8(0)
 7192 2858 E82A      		or r14,r24
 7193 285a F92A      		or r15,r25
 7194 285c 0A2B      		or r16,r26
 7195 285e 1B2B      		or r17,r27
 7196 2860 9881      		ld r25,Y
 7197 2862 CF54      		subi r28,lo8(-(-79))
 7198 2864 D040      		sbci r29,hi8(-(-79))
 7199 2866 80E0      		ldi r24,lo8(0)
 7200 2868 A0E0      		ldi r26,lo8(0)
 7201 286a B0E0      		ldi r27,hi8(0)
 7202 286c E82A      		or r14,r24
 7203 286e F92A      		or r15,r25
 7204 2870 0A2B      		or r16,r26
 7205 2872 1B2B      		or r17,r27
 7206               	.L507:
 7207               	.LM730:
 7208 2874 9DAD      		ldd r25,Y+61
 7209 2876 80E0      		ldi r24,lo8(0)
 7210 2878 2CAD      		ldd r18,Y+60
 7211 287a 30E0      		ldi r19,lo8(0)
 7212 287c 822B      		or r24,r18
 7213 287e 932B      		or r25,r19
 7214 2880 A0E0      		ldi r26,lo8(0)
 7215 2882 B0E0      		ldi r27,hi8(0)
 7216 2884 E81A      		sub r14,r24
 7217 2886 F90A      		sbc r15,r25
 7218 2888 0A0B      		sbc r16,r26
 7219 288a 1B0B      		sbc r17,r27
 7220               	.LVL589:
 7221 288c E618      		sub r14,r6
 7222 288e F708      		sbc r15,r7
 7223 2890 0809      		sbc r16,r8
 7224 2892 1909      		sbc r17,r9
 7225 2894 F4E0      		ldi r31,4
 7226 2896 5695      	1:	lsr r21
 7227 2898 4795      		ror r20
 7228 289a FA95      		dec r31
 7229 289c 01F4      		brne 1b
 7230 289e CA01      		movw r24,r20
 7231 28a0 A0E0      		ldi r26,lo8(0)
 7232 28a2 B0E0      		ldi r27,hi8(0)
 7233 28a4 E81A      		sub r14,r24
 7234 28a6 F90A      		sbc r15,r25
 7235 28a8 0A0B      		sbc r16,r26
 7236 28aa 1B0B      		sbc r17,r27
 7237 28ac 2A81      		ldd r18,Y+2
 7238 28ae 30E0      		ldi r19,lo8(0)
 7239 28b0 40E0      		ldi r20,lo8(0)
 7240 28b2 50E0      		ldi r21,hi8(0)
 7241 28b4 C801      		movw r24,r16
 7242 28b6 B701      		movw r22,r14
 7243 28b8 0E94 0000 		call __udivmodsi4
 7244 28bc 2E5F      		subi r18,lo8(-(2))
 7245 28be 3F4F      		sbci r19,hi8(-(2))
 7246 28c0 4F4F      		sbci r20,hlo8(-(2))
 7247 28c2 5F4F      		sbci r21,hhi8(-(2))
 7248               	.LVL590:
 7249 28c4 2A8F      		std Y+26,r18
 7250 28c6 3B8F      		std Y+27,r19
 7251 28c8 4C8F      		std Y+28,r20
 7252 28ca 5D8F      		std Y+29,r21
 7253               	.LM731:
 7254 28cc 273F      		cpi r18,lo8(4087)
 7255 28ce 8FE0      		ldi r24,hi8(4087)
 7256 28d0 3807      		cpc r19,r24
 7257 28d2 80E0      		ldi r24,hlo8(4087)
 7258 28d4 4807      		cpc r20,r24
 7259 28d6 80E0      		ldi r24,hhi8(4087)
 7260 28d8 5807      		cpc r21,r24
 7261 28da 00F4      		brsh .L508
 7262 28dc 11E0      		ldi r17,lo8(1)
 7263               	.LVL591:
 7264 28de 00C0      		rjmp .L509
 7265               	.LVL592:
 7266               	.L508:
 7267               	.LM732:
 7268 28e0 275F      		subi r18,lo8(65527)
 7269 28e2 3F4F      		sbci r19,hi8(65527)
 7270 28e4 4040      		sbci r20,hlo8(65527)
 7271 28e6 5040      		sbci r21,hhi8(65527)
 7272 28e8 00F0      		brlo .+2
 7273 28ea 00C0      		rjmp .L510
 7274 28ec 12E0      		ldi r17,lo8(2)
 7275               	.LVL593:
 7276               	.L509:
 7277               	.LM733:
 7278 28ee 8E8D      		ldd r24,Y+30
 7279 28f0 9F8D      		ldd r25,Y+31
 7280 28f2 A8A1      		ldd r26,Y+32
 7281 28f4 B9A1      		ldd r27,Y+33
 7282 28f6 860D      		add r24,r6
 7283 28f8 971D      		adc r25,r7
 7284 28fa A81D      		adc r26,r8
 7285 28fc B91D      		adc r27,r9
 7286 28fe 8AA3      		std Y+34,r24
 7287 2900 9BA3      		std Y+35,r25
 7288 2902 ACA3      		std Y+36,r26
 7289 2904 BDA3      		std Y+37,r27
 7290               	.L512:
 7291               	.LM734:
 7292 2906 8885      		ldd r24,Y+8
 7293 2908 9985      		ldd r25,Y+9
 7294 290a E4E0      		ldi r30,4
 7295 290c 9695      	1:	lsr r25
 7296 290e 8795      		ror r24
 7297 2910 EA95      		dec r30
 7298 2912 01F4      		brne 1b
 7299 2914 A0E0      		ldi r26,lo8(0)
 7300 2916 B0E0      		ldi r27,hi8(0)
 7301 2918 2E8D      		ldd r18,Y+30
 7302 291a 3F8D      		ldd r19,Y+31
 7303 291c 48A1      		ldd r20,Y+32
 7304 291e 59A1      		ldd r21,Y+33
 7305               	.LVL594:
 7306 2920 820F      		add r24,r18
 7307 2922 931F      		adc r25,r19
 7308 2924 A41F      		adc r26,r20
 7309 2926 B51F      		adc r27,r21
 7310 2928 860D      		add r24,r6
 7311 292a 971D      		adc r25,r7
 7312 292c A81D      		adc r26,r8
 7313 292e B91D      		adc r27,r9
 7314 2930 8EA3      		std Y+38,r24
 7315 2932 9FA3      		std Y+39,r25
 7316 2934 A8A7      		std Y+40,r26
 7317 2936 B9A7      		std Y+41,r27
 7318               	.LM735:
 7319 2938 8FEF      		ldi r24,lo8(-1)
 7320 293a 9FEF      		ldi r25,hi8(-1)
 7321 293c AFEF      		ldi r26,hlo8(-1)
 7322 293e BFEF      		ldi r27,hhi8(-1)
 7323 2940 8E87      		std Y+14,r24
 7324 2942 9F87      		std Y+15,r25
 7325 2944 A88B      		std Y+16,r26
 7326 2946 B98B      		std Y+17,r27
 7327               	.LM736:
 7328 2948 1C82      		std Y+4,__zero_reg__
 7329               	.LM737:
 7330 294a 1330      		cpi r17,lo8(3)
 7331 294c 01F0      		breq .+2
 7332 294e 00C0      		rjmp .L511
 7333               	.LM738:
 7334 2950 1D82      		std Y+5,__zero_reg__
 7335               	.LM739:
 7336 2952 C15A      		subi r28,lo8(-(95))
 7337 2954 DF4F      		sbci r29,hi8(-(95))
 7338 2956 3881      		ld r19,Y
 7339 2958 20E0      		ldi r18,lo8(0)
 7340 295a 8A91      		ld r24,-Y
 7341 295c CE55      		subi r28,lo8(-(-94))
 7342 295e D040      		sbci r29,hi8(-(-94))
 7343 2960 90E0      		ldi r25,lo8(0)
 7344 2962 282B      		or r18,r24
 7345 2964 392B      		or r19,r25
 7346 2966 40E0      		ldi r20,lo8(0)
 7347 2968 50E0      		ldi r21,hi8(0)
 7348 296a 2A0D      		add r18,r10
 7349 296c 3B1D      		adc r19,r11
 7350 296e 4C1D      		adc r20,r12
 7351 2970 5D1D      		adc r21,r13
 7352 2972 2A8B      		std Y+18,r18
 7353 2974 3B8B      		std Y+19,r19
 7354 2976 4C8B      		std Y+20,r20
 7355 2978 5D8B      		std Y+21,r21
 7356               	.LM740:
 7357 297a BE01      		movw r22,r28
 7358 297c 625D      		subi r22,lo8(-(46))
 7359 297e 7F4F      		sbci r23,hi8(-(46))
 7360 2980 8981      		ldd r24,Y+1
 7361 2982 01E0      		ldi r16,lo8(1)
 7362               	.LVL595:
 7363 2984 0E94 0000 		call disk_read
 7364 2988 8823      		tst r24
 7365 298a 01F0      		breq .+2
 7366 298c 00C0      		rjmp .L511
 7367 298e C35D      		subi r28,lo8(-(557))
 7368 2990 DD4F      		sbci r29,hi8(-(557))
 7369 2992 9881      		ld r25,Y
 7370 2994 80E0      		ldi r24,lo8(0)
 7371 2996 2A91      		ld r18,-Y
 7372 2998 CC52      		subi r28,lo8(-(-556))
 7373 299a D240      		sbci r29,hi8(-(-556))
 7374 299c 30E0      		ldi r19,lo8(0)
 7375 299e 822B      		or r24,r18
 7376 29a0 932B      		or r25,r19
 7377 29a2 8555      		subi r24,lo8(-21931)
 7378 29a4 9A4A      		sbci r25,hi8(-21931)
 7379 29a6 01F0      		breq .+2
 7380 29a8 00C0      		rjmp .L511
 7381 29aa 29A9      		ldd r18,Y+49
 7382 29ac 30E0      		ldi r19,lo8(0)
 7383 29ae 40E0      		ldi r20,lo8(0)
 7384 29b0 50E0      		ldi r21,hi8(0)
 7385 29b2 522F      		mov r21,r18
 7386 29b4 4427      		clr r20
 7387 29b6 3327      		clr r19
 7388 29b8 2227      		clr r18
 7389 29ba 88A9      		ldd r24,Y+48
 7390 29bc 90E0      		ldi r25,lo8(0)
 7391 29be A0E0      		ldi r26,lo8(0)
 7392 29c0 B0E0      		ldi r27,hi8(0)
 7393 29c2 DC01      		movw r26,r24
 7394 29c4 9927      		clr r25
 7395 29c6 8827      		clr r24
 7396 29c8 282B      		or r18,r24
 7397 29ca 392B      		or r19,r25
 7398 29cc 4A2B      		or r20,r26
 7399 29ce 5B2B      		or r21,r27
 7400 29d0 8EA5      		ldd r24,Y+46
 7401 29d2 90E0      		ldi r25,lo8(0)
 7402 29d4 A0E0      		ldi r26,lo8(0)
 7403 29d6 B0E0      		ldi r27,hi8(0)
 7404 29d8 282B      		or r18,r24
 7405 29da 392B      		or r19,r25
 7406 29dc 4A2B      		or r20,r26
 7407 29de 5B2B      		or r21,r27
 7408 29e0 9FA5      		ldd r25,Y+47
 7409 29e2 80E0      		ldi r24,lo8(0)
 7410 29e4 A0E0      		ldi r26,lo8(0)
 7411 29e6 B0E0      		ldi r27,hi8(0)
 7412 29e8 282B      		or r18,r24
 7413 29ea 392B      		or r19,r25
 7414 29ec 4A2B      		or r20,r26
 7415 29ee 5B2B      		or r21,r27
 7416 29f0 2255      		subi r18,lo8(1096897106)
 7417 29f2 3245      		sbci r19,hi8(1096897106)
 7418 29f4 4146      		sbci r20,hlo8(1096897106)
 7419 29f6 5144      		sbci r21,hhi8(1096897106)
 7420 29f8 01F0      		breq .+2
 7421 29fa 00C0      		rjmp .L511
 7422 29fc CB5E      		subi r28,lo8(-(533))
 7423 29fe DD4F      		sbci r29,hi8(-(533))
 7424 2a00 2881      		ld r18,Y
 7425 2a02 30E0      		ldi r19,lo8(0)
 7426 2a04 40E0      		ldi r20,lo8(0)
 7427 2a06 50E0      		ldi r21,hi8(0)
 7428 2a08 522F      		mov r21,r18
 7429 2a0a 4427      		clr r20
 7430 2a0c 3327      		clr r19
 7431 2a0e 2227      		clr r18
 7432 2a10 8A91      		ld r24,-Y
 7433 2a12 90E0      		ldi r25,lo8(0)
 7434 2a14 A0E0      		ldi r26,lo8(0)
 7435 2a16 B0E0      		ldi r27,hi8(0)
 7436 2a18 DC01      		movw r26,r24
 7437 2a1a 9927      		clr r25
 7438 2a1c 8827      		clr r24
 7439 2a1e 282B      		or r18,r24
 7440 2a20 392B      		or r19,r25
 7441 2a22 4A2B      		or r20,r26
 7442 2a24 5B2B      		or r21,r27
 7443 2a26 2297      		sbiw r28,2
 7444 2a28 8991      		ld r24,Y+
 7445 2a2a 90E0      		ldi r25,lo8(0)
 7446 2a2c A0E0      		ldi r26,lo8(0)
 7447 2a2e B0E0      		ldi r27,hi8(0)
 7448 2a30 282B      		or r18,r24
 7449 2a32 392B      		or r19,r25
 7450 2a34 4A2B      		or r20,r26
 7451 2a36 5B2B      		or r21,r27
 7452 2a38 9881      		ld r25,Y
 7453 2a3a C351      		subi r28,lo8(-(-531))
 7454 2a3c D240      		sbci r29,hi8(-(-531))
 7455 2a3e 80E0      		ldi r24,lo8(0)
 7456 2a40 A0E0      		ldi r26,lo8(0)
 7457 2a42 B0E0      		ldi r27,hi8(0)
 7458 2a44 282B      		or r18,r24
 7459 2a46 392B      		or r19,r25
 7460 2a48 4A2B      		or r20,r26
 7461 2a4a 5B2B      		or r21,r27
 7462 2a4c 2257      		subi r18,lo8(1631679090)
 7463 2a4e 3247      		sbci r19,hi8(1631679090)
 7464 2a50 4144      		sbci r20,hlo8(1631679090)
 7465 2a52 5146      		sbci r21,hhi8(1631679090)
 7466 2a54 01F0      		breq .+2
 7467 2a56 00C0      		rjmp .L511
 7468               	.LM741:
 7469 2a58 C35E      		subi r28,lo8(-(541))
 7470 2a5a DD4F      		sbci r29,hi8(-(541))
 7471 2a5c 2881      		ld r18,Y
 7472 2a5e 30E0      		ldi r19,lo8(0)
 7473 2a60 40E0      		ldi r20,lo8(0)
 7474 2a62 50E0      		ldi r21,hi8(0)
 7475 2a64 522F      		mov r21,r18
 7476 2a66 4427      		clr r20
 7477 2a68 3327      		clr r19
 7478 2a6a 2227      		clr r18
 7479 2a6c 8A91      		ld r24,-Y
 7480 2a6e 90E0      		ldi r25,lo8(0)
 7481 2a70 A0E0      		ldi r26,lo8(0)
 7482 2a72 B0E0      		ldi r27,hi8(0)
 7483 2a74 DC01      		movw r26,r24
 7484 2a76 9927      		clr r25
 7485 2a78 8827      		clr r24
 7486 2a7a 282B      		or r18,r24
 7487 2a7c 392B      		or r19,r25
 7488 2a7e 4A2B      		or r20,r26
 7489 2a80 5B2B      		or r21,r27
 7490 2a82 2297      		sbiw r28,2
 7491 2a84 8991      		ld r24,Y+
 7492 2a86 90E0      		ldi r25,lo8(0)
 7493 2a88 A0E0      		ldi r26,lo8(0)
 7494 2a8a B0E0      		ldi r27,hi8(0)
 7495 2a8c 282B      		or r18,r24
 7496 2a8e 392B      		or r19,r25
 7497 2a90 4A2B      		or r20,r26
 7498 2a92 5B2B      		or r21,r27
 7499 2a94 9881      		ld r25,Y
 7500 2a96 CB51      		subi r28,lo8(-(-539))
 7501 2a98 D240      		sbci r29,hi8(-(-539))
 7502 2a9a 80E0      		ldi r24,lo8(0)
 7503 2a9c A0E0      		ldi r26,lo8(0)
 7504 2a9e B0E0      		ldi r27,hi8(0)
 7505 2aa0 282B      		or r18,r24
 7506 2aa2 392B      		or r19,r25
 7507 2aa4 4A2B      		or r20,r26
 7508 2aa6 5B2B      		or r21,r27
 7509 2aa8 2A87      		std Y+10,r18
 7510 2aaa 3B87      		std Y+11,r19
 7511 2aac 4C87      		std Y+12,r20
 7512 2aae 5D87      		std Y+13,r21
 7513               	.LM742:
 7514 2ab0 C75E      		subi r28,lo8(-(537))
 7515 2ab2 DD4F      		sbci r29,hi8(-(537))
 7516 2ab4 2881      		ld r18,Y
 7517 2ab6 30E0      		ldi r19,lo8(0)
 7518 2ab8 40E0      		ldi r20,lo8(0)
 7519 2aba 50E0      		ldi r21,hi8(0)
 7520 2abc 522F      		mov r21,r18
 7521 2abe 4427      		clr r20
 7522 2ac0 3327      		clr r19
 7523 2ac2 2227      		clr r18
 7524 2ac4 8A91      		ld r24,-Y
 7525 2ac6 90E0      		ldi r25,lo8(0)
 7526 2ac8 A0E0      		ldi r26,lo8(0)
 7527 2aca B0E0      		ldi r27,hi8(0)
 7528 2acc DC01      		movw r26,r24
 7529 2ace 9927      		clr r25
 7530 2ad0 8827      		clr r24
 7531 2ad2 282B      		or r18,r24
 7532 2ad4 392B      		or r19,r25
 7533 2ad6 4A2B      		or r20,r26
 7534 2ad8 5B2B      		or r21,r27
 7535 2ada 2297      		sbiw r28,2
 7536 2adc 8991      		ld r24,Y+
 7537 2ade 90E0      		ldi r25,lo8(0)
 7538 2ae0 A0E0      		ldi r26,lo8(0)
 7539 2ae2 B0E0      		ldi r27,hi8(0)
 7540 2ae4 282B      		or r18,r24
 7541 2ae6 392B      		or r19,r25
 7542 2ae8 4A2B      		or r20,r26
 7543 2aea 5B2B      		or r21,r27
 7544 2aec 9881      		ld r25,Y
 7545 2aee C751      		subi r28,lo8(-(-535))
 7546 2af0 D240      		sbci r29,hi8(-(-535))
 7547 2af2 80E0      		ldi r24,lo8(0)
 7548 2af4 A0E0      		ldi r26,lo8(0)
 7549 2af6 B0E0      		ldi r27,hi8(0)
 7550 2af8 282B      		or r18,r24
 7551 2afa 392B      		or r19,r25
 7552 2afc 4A2B      		or r20,r26
 7553 2afe 5B2B      		or r21,r27
 7554 2b00 2E87      		std Y+14,r18
 7555 2b02 3F87      		std Y+15,r19
 7556 2b04 488B      		std Y+16,r20
 7557 2b06 598B      		std Y+17,r21
 7558               	.LVL596:
 7559               	.L511:
 7560               	.LM743:
 7561 2b08 1883      		st Y,r17
 7562               	.LM744:
 7563 2b0a 1AA6      		std Y+42,__zero_reg__
 7564 2b0c 1BA6      		std Y+43,__zero_reg__
 7565 2b0e 1CA6      		std Y+44,__zero_reg__
 7566 2b10 1DA6      		std Y+45,__zero_reg__
 7567               	.LM745:
 7568 2b12 8091 0000 		lds r24,Fsid
 7569 2b16 9091 0000 		lds r25,(Fsid)+1
 7570 2b1a 0196      		adiw r24,1
 7571 2b1c 8093 0000 		sts Fsid,r24
 7572 2b20 9093 0000 		sts (Fsid)+1,r25
 7573 2b24 8E83      		std Y+6,r24
 7574 2b26 9F83      		std Y+7,r25
 7575 2b28 00C0      		rjmp .L498
 7576               	.LVL597:
 7577               	.L499:
 7578               	.LM746:
 7579 2b2a 8AE0      		ldi r24,lo8(10)
 7580 2b2c 00C0      		rjmp .L493
 7581               	.LVL598:
 7582               	.L498:
 7583 2b2e 80E0      		ldi r24,lo8(0)
 7584 2b30 00C0      		rjmp .L493
 7585               	.LVL599:
 7586               	.L504:
 7587 2b32 8DE0      		ldi r24,lo8(13)
 7588               	.LVL600:
 7589               	.L493:
 7590               	/* epilogue start */
 7591               	.LM747:
 7592 2b34 DF91      		pop r29
 7593 2b36 CF91      		pop r28
 7594               	.LVL601:
 7595 2b38 1F91      		pop r17
 7596               	.LVL602:
 7597 2b3a 0F91      		pop r16
 7598               	.LVL603:
 7599 2b3c FF90      		pop r15
 7600               	.LVL604:
 7601 2b3e EF90      		pop r14
 7602               	.LVL605:
 7603 2b40 DF90      		pop r13
 7604 2b42 CF90      		pop r12
 7605 2b44 BF90      		pop r11
 7606 2b46 AF90      		pop r10
 7607               	.LVL606:
 7608 2b48 9F90      		pop r9
 7609 2b4a 8F90      		pop r8
 7610 2b4c 7F90      		pop r7
 7611 2b4e 6F90      		pop r6
 7612               	.LVL607:
 7613 2b50 0895      		ret
 7614               	.LVL608:
 7615               	.L510:
 7616               	.LM748:
 7617 2b52 C35A      		subi r28,lo8(-(93))
 7618 2b54 DF4F      		sbci r29,hi8(-(93))
 7619 2b56 2881      		ld r18,Y
 7620               	.LVL609:
 7621 2b58 30E0      		ldi r19,lo8(0)
 7622 2b5a 40E0      		ldi r20,lo8(0)
 7623 2b5c 50E0      		ldi r21,hi8(0)
 7624 2b5e 522F      		mov r21,r18
 7625 2b60 4427      		clr r20
 7626 2b62 3327      		clr r19
 7627 2b64 2227      		clr r18
 7628               	.LVL610:
 7629 2b66 8A91      		ld r24,-Y
 7630 2b68 90E0      		ldi r25,lo8(0)
 7631 2b6a A0E0      		ldi r26,lo8(0)
 7632 2b6c B0E0      		ldi r27,hi8(0)
 7633 2b6e DC01      		movw r26,r24
 7634 2b70 9927      		clr r25
 7635 2b72 8827      		clr r24
 7636               	.LVL611:
 7637 2b74 282B      		or r18,r24
 7638 2b76 392B      		or r19,r25
 7639 2b78 4A2B      		or r20,r26
 7640 2b7a 5B2B      		or r21,r27
 7641 2b7c 2297      		sbiw r28,2
 7642 2b7e 8991      		ld r24,Y+
 7643 2b80 90E0      		ldi r25,lo8(0)
 7644 2b82 A0E0      		ldi r26,lo8(0)
 7645 2b84 B0E0      		ldi r27,hi8(0)
 7646 2b86 282B      		or r18,r24
 7647 2b88 392B      		or r19,r25
 7648 2b8a 4A2B      		or r20,r26
 7649 2b8c 5B2B      		or r21,r27
 7650 2b8e 9881      		ld r25,Y
 7651 2b90 CB55      		subi r28,lo8(-(-91))
 7652 2b92 D040      		sbci r29,hi8(-(-91))
 7653 2b94 80E0      		ldi r24,lo8(0)
 7654 2b96 A0E0      		ldi r26,lo8(0)
 7655 2b98 B0E0      		ldi r27,hi8(0)
 7656 2b9a 282B      		or r18,r24
 7657 2b9c 392B      		or r19,r25
 7658 2b9e 4A2B      		or r20,r26
 7659 2ba0 5B2B      		or r21,r27
 7660 2ba2 2AA3      		std Y+34,r18
 7661 2ba4 3BA3      		std Y+35,r19
 7662 2ba6 4CA3      		std Y+36,r20
 7663 2ba8 5DA3      		std Y+37,r21
 7664 2baa 13E0      		ldi r17,lo8(3)
 7665               	.LVL612:
 7666 2bac 00C0      		rjmp .L512
 7667               	.LFE63:
 7670               	validate:
 7671               	.LFB64:
 7672               	.LM749:
 7673               	.LVL613:
 7674               	/* prologue: function */
 7675               	/* frame size = 0 */
 7676 2bae FC01      		movw r30,r24
 7677               	.LM750:
 7678 2bb0 0097      		sbiw r24,0
 7679 2bb2 01F0      		breq .L515
 7680 2bb4 8081      		ld r24,Z
 7681               	.LVL614:
 7682 2bb6 8823      		tst r24
 7683 2bb8 01F0      		breq .L515
 7684 2bba 8681      		ldd r24,Z+6
 7685 2bbc 9781      		ldd r25,Z+7
 7686 2bbe 8617      		cp r24,r22
 7687 2bc0 9707      		cpc r25,r23
 7688 2bc2 01F4      		brne .L515
 7689               	.LBB593:
 7690               	.LBB594:
 7691               	.LM751:
 7692 2bc4 8181      		ldd r24,Z+1
 7693 2bc6 8823      		tst r24
 7694 2bc8 01F0      		breq .L516
 7695 2bca 81E0      		ldi r24,lo8(1)
 7696 2bcc 00C0      		rjmp .L517
 7697               	.L516:
 7698               	.LM752:
 7699 2bce 8091 0000 		lds r24,Stat
 7700               	.L517:
 7701               	.LBE594:
 7702               	.LBE593:
 7703               	.LM753:
 7704 2bd2 80FD      		sbrc r24,0
 7705 2bd4 00C0      		rjmp .L518
 7706 2bd6 80E0      		ldi r24,lo8(0)
 7707 2bd8 0895      		ret
 7708               	.L518:
 7709 2bda 83E0      		ldi r24,lo8(3)
 7710 2bdc 0895      		ret
 7711               	.LVL615:
 7712               	.L515:
 7713 2bde 89E0      		ldi r24,lo8(9)
 7714               	.LM754:
 7715 2be0 0895      		ret
 7716               	.LFE64:
 7718               	.global	f_mount
 7720               	f_mount:
 7721               	.LFB65:
 7722               	.LM755:
 7723               	.LVL616:
 7724 2be2 CF93      		push r28
 7725 2be4 DF93      		push r29
 7726               	/* prologue: function */
 7727               	/* frame size = 0 */
 7728 2be6 EB01      		movw r28,r22
 7729               	.LM756:
 7730 2be8 8230      		cpi r24,lo8(2)
 7731 2bea 00F0      		brlo .L522
 7732               	.LVL617:
 7733 2bec 8BE0      		ldi r24,lo8(11)
 7734               	.LVL618:
 7735 2bee 00C0      		rjmp .L523
 7736               	.LVL619:
 7737               	.L522:
 7738               	.LM757:
 7739 2bf0 A82F      		mov r26,r24
 7740 2bf2 B0E0      		ldi r27,lo8(0)
 7741 2bf4 FD01      		movw r30,r26
 7742 2bf6 EE0F      		lsl r30
 7743 2bf8 FF1F      		rol r31
 7744 2bfa E050      		subi r30,lo8(-(FatFs))
 7745 2bfc F040      		sbci r31,hi8(-(FatFs))
 7746 2bfe 0190      		ld __tmp_reg__,Z+
 7747 2c00 F081      		ld r31,Z
 7748 2c02 E02D      		mov r30,__tmp_reg__
 7749               	.LVL620:
 7750               	.LM758:
 7751 2c04 3097      		sbiw r30,0
 7752 2c06 01F0      		breq .L524
 7753               	.LM759:
 7754 2c08 1082      		st Z,__zero_reg__
 7755               	.L524:
 7756               	.LM760:
 7757 2c0a 2097      		sbiw r28,0
 7758 2c0c 01F0      		breq .L525
 7759               	.LM761:
 7760 2c0e 1882      		st Y,__zero_reg__
 7761               	.L525:
 7762               	.LM762:
 7763 2c10 AA0F      		lsl r26
 7764 2c12 BB1F      		rol r27
 7765 2c14 A050      		subi r26,lo8(-(FatFs))
 7766 2c16 B040      		sbci r27,hi8(-(FatFs))
 7767 2c18 CD93      		st X+,r28
 7768 2c1a DC93      		st X,r29
 7769 2c1c 80E0      		ldi r24,lo8(0)
 7770               	.LVL621:
 7771               	.L523:
 7772               	/* epilogue start */
 7773               	.LM763:
 7774 2c1e DF91      		pop r29
 7775 2c20 CF91      		pop r28
 7776               	.LVL622:
 7777 2c22 0895      		ret
 7778               	.LFE65:
 7780               	.global	f_open
 7782               	f_open:
 7783               	.LFB66:
 7784               	.LM764:
 7785               	.LVL623:
 7786 2c24 5F92      		push r5
 7787 2c26 6F92      		push r6
 7788 2c28 7F92      		push r7
 7789 2c2a 8F92      		push r8
 7790 2c2c 9F92      		push r9
 7791 2c2e AF92      		push r10
 7792 2c30 BF92      		push r11
 7793 2c32 CF92      		push r12
 7794 2c34 DF92      		push r13
 7795 2c36 EF92      		push r14
 7796 2c38 FF92      		push r15
 7797 2c3a 0F93      		push r16
 7798 2c3c 1F93      		push r17
 7799 2c3e DF93      		push r29
 7800 2c40 CF93      		push r28
 7801 2c42 CDB7      		in r28,__SP_L__
 7802 2c44 DEB7      		in r29,__SP_H__
 7803 2c46 A497      		sbiw r28,36
 7804 2c48 CDBF      		out __SP_L__,r28
 7805 2c4a DEBF      		out __SP_H__,r29
 7806               	/* prologue: function */
 7807               	/* frame size = 36 */
 7808 2c4c 3C01      		movw r6,r24
 7809 2c4e 6BA3      		std Y+35,r22
 7810 2c50 7CA3      		std Y+36,r23
 7811               	.LM765:
 7812 2c52 DC01      		movw r26,r24
 7813 2c54 1D92      		st X+,__zero_reg__
 7814 2c56 1C92      		st X,__zero_reg__
 7815               	.LM766:
 7816 2c58 5FE1      		ldi r21,lo8(31)
 7817 2c5a 552E      		mov r5,r21
 7818               	.LVL624:
 7819 2c5c 5422      		and r5,r20
 7820               	.LM767:
 7821 2c5e 8E01      		movw r16,r28
 7822 2c60 035F      		subi r16,lo8(-(13))
 7823 2c62 1F4F      		sbci r17,hi8(-(13))
 7824 2c64 4E71      		andi r20,lo8(30)
 7825               	.LVL625:
 7826 2c66 CE01      		movw r24,r28
 7827               	.LVL626:
 7828 2c68 8396      		adiw r24,35
 7829 2c6a B801      		movw r22,r16
 7830               	.LVL627:
 7831 2c6c 0E94 0000 		call chk_mounted
 7832               	.LVL628:
 7833               	.LM768:
 7834 2c70 8823      		tst r24
 7835               	.LVL629:
 7836 2c72 01F0      		breq .L528
 7837 2c74 282F      		mov r18,r24
 7838 2c76 00C0      		rjmp .L529
 7839               	.LVL630:
 7840               	.L528:
 7841               	.LM769:
 7842 2c78 CE01      		movw r24,r28
 7843               	.LVL631:
 7844 2c7a 0196      		adiw r24,1
 7845 2c7c 89A3      		std Y+33,r24
 7846 2c7e 9AA3      		std Y+34,r25
 7847               	.LM770:
 7848 2c80 6BA1      		ldd r22,Y+35
 7849 2c82 7CA1      		ldd r23,Y+36
 7850 2c84 C801      		movw r24,r16
 7851 2c86 0E94 0000 		call follow_path
 7852 2c8a 282F      		mov r18,r24
 7853               	.LVL632:
 7854               	.LM771:
 7855 2c8c 452D      		mov r20,r5
 7856               	.LVL633:
 7857 2c8e 50E0      		ldi r21,lo8(0)
 7858 2c90 CA01      		movw r24,r20
 7859 2c92 8C71      		andi r24,lo8(28)
 7860 2c94 9070      		andi r25,hi8(28)
 7861 2c96 892B      		or r24,r25
 7862 2c98 01F4      		brne .+2
 7863 2c9a 00C0      		rjmp .L530
 7864               	.LBB595:
 7865               	.LM772:
 7866 2c9c 2223      		tst r18
 7867 2c9e 01F0      		breq .L531
 7868               	.LM773:
 7869 2ca0 2430      		cpi r18,lo8(4)
 7870 2ca2 01F0      		breq .+2
 7871 2ca4 00C0      		rjmp .L529
 7872               	.LM774:
 7873 2ca6 C801      		movw r24,r16
 7874 2ca8 0E94 0000 		call dir_register
 7875               	.LVL634:
 7876 2cac 282F      		mov r18,r24
 7877               	.LVL635:
 7878               	.LM775:
 7879 2cae 8823      		tst r24
 7880 2cb0 01F0      		breq .+2
 7881 2cb2 00C0      		rjmp .L529
 7882               	.LVL636:
 7883               	.LM776:
 7884 2cb4 B8E0      		ldi r27,lo8(8)
 7885 2cb6 5B2A      		or r5,r27
 7886               	.LM777:
 7887 2cb8 CF8C      		ldd r12,Y+31
 7888 2cba D8A0      		ldd r13,Y+32
 7889               	.LVL637:
 7890 2cbc 00C0      		rjmp .L532
 7891               	.LVL638:
 7892               	.L531:
 7893               	.LM778:
 7894 2cbe 52FE      		sbrs r5,2
 7895 2cc0 00C0      		rjmp .L533
 7896               	.LVL639:
 7897 2cc2 28E0      		ldi r18,lo8(8)
 7898 2cc4 00C0      		rjmp .L529
 7899               	.L533:
 7900               	.LM779:
 7901 2cc6 CF8C      		ldd r12,Y+31
 7902 2cc8 D8A0      		ldd r13,Y+32
 7903               	.LVL640:
 7904               	.LM780:
 7905 2cca C114      		cp r12,__zero_reg__
 7906 2ccc D104      		cpc r13,__zero_reg__
 7907 2cce 01F4      		brne .+2
 7908 2cd0 00C0      		rjmp .L534
 7909 2cd2 F601      		movw r30,r12
 7910 2cd4 8385      		ldd r24,Z+11
 7911 2cd6 8171      		andi r24,lo8(17)
 7912 2cd8 01F0      		breq .+2
 7913 2cda 00C0      		rjmp .L534
 7914               	.LM781:
 7915 2cdc 53FE      		sbrs r5,3
 7916 2cde 00C0      		rjmp .L532
 7917               	.LM782:
 7918 2ce0 9589      		ldd r25,Z+21
 7919 2ce2 80E0      		ldi r24,lo8(0)
 7920 2ce4 2489      		ldd r18,Z+20
 7921               	.LVL641:
 7922 2ce6 30E0      		ldi r19,lo8(0)
 7923 2ce8 822B      		or r24,r18
 7924 2cea 932B      		or r25,r19
 7925 2cec A0E0      		ldi r26,lo8(0)
 7926 2cee B0E0      		ldi r27,hi8(0)
 7927 2cf0 8C01      		movw r16,r24
 7928 2cf2 FF24      		clr r15
 7929 2cf4 EE24      		clr r14
 7930               	.LVL642:
 7931 2cf6 938D      		ldd r25,Z+27
 7932 2cf8 80E0      		ldi r24,lo8(0)
 7933 2cfa 228D      		ldd r18,Z+26
 7934 2cfc 30E0      		ldi r19,lo8(0)
 7935 2cfe 822B      		or r24,r18
 7936 2d00 932B      		or r25,r19
 7937 2d02 A0E0      		ldi r26,lo8(0)
 7938 2d04 B0E0      		ldi r27,hi8(0)
 7939 2d06 E82A      		or r14,r24
 7940 2d08 F92A      		or r15,r25
 7941 2d0a 0A2B      		or r16,r26
 7942 2d0c 1B2B      		or r17,r27
 7943               	.LM783:
 7944 2d0e 148A      		std Z+20,__zero_reg__
 7945 2d10 158A      		std Z+21,__zero_reg__
 7946               	.LM784:
 7947 2d12 128E      		std Z+26,__zero_reg__
 7948 2d14 138E      		std Z+27,__zero_reg__
 7949               	.LM785:
 7950 2d16 148E      		std Z+28,__zero_reg__
 7951 2d18 158E      		std Z+29,__zero_reg__
 7952 2d1a 168E      		std Z+30,__zero_reg__
 7953 2d1c 178E      		std Z+31,__zero_reg__
 7954               	.LM786:
 7955 2d1e ED85      		ldd r30,Y+13
 7956 2d20 FE85      		ldd r31,Y+14
 7957 2d22 81E0      		ldi r24,lo8(1)
 7958 2d24 8483      		std Z+4,r24
 7959               	.LM787:
 7960 2d26 82A4      		ldd r8,Z+42
 7961 2d28 93A4      		ldd r9,Z+43
 7962 2d2a A4A4      		ldd r10,Z+44
 7963 2d2c B5A4      		ldd r11,Z+45
 7964               	.LVL643:
 7965               	.LM788:
 7966 2d2e E114      		cp r14,__zero_reg__
 7967 2d30 F104      		cpc r15,__zero_reg__
 7968 2d32 0105      		cpc r16,__zero_reg__
 7969 2d34 1105      		cpc r17,__zero_reg__
 7970 2d36 01F0      		breq .L535
 7971               	.LM789:
 7972 2d38 CF01      		movw r24,r30
 7973 2d3a B801      		movw r22,r16
 7974 2d3c A701      		movw r20,r14
 7975 2d3e 0E94 0000 		call remove_chain
 7976 2d42 282F      		mov r18,r24
 7977               	.LVL644:
 7978               	.LM790:
 7979 2d44 8823      		tst r24
 7980 2d46 01F0      		breq .+2
 7981 2d48 00C0      		rjmp .L529
 7982               	.LVL645:
 7983               	.LM791:
 7984 2d4a ED85      		ldd r30,Y+13
 7985 2d4c FE85      		ldd r31,Y+14
 7986 2d4e 0894      		sec
 7987 2d50 E108      		sbc r14,__zero_reg__
 7988 2d52 F108      		sbc r15,__zero_reg__
 7989 2d54 0109      		sbc r16,__zero_reg__
 7990 2d56 1109      		sbc r17,__zero_reg__
 7991 2d58 E286      		std Z+10,r14
 7992 2d5a F386      		std Z+11,r15
 7993 2d5c 0487      		std Z+12,r16
 7994 2d5e 1587      		std Z+13,r17
 7995               	.L535:
 7996               	.LM792:
 7997 2d60 8D85      		ldd r24,Y+13
 7998 2d62 9E85      		ldd r25,Y+14
 7999               	.LVL646:
 8000 2d64 B501      		movw r22,r10
 8001 2d66 A401      		movw r20,r8
 8002 2d68 0E94 0000 		call move_window
 8003               	.LVL647:
 8004 2d6c 282F      		mov r18,r24
 8005               	.LVL648:
 8006               	.LM793:
 8007 2d6e 8823      		tst r24
 8008 2d70 01F0      		breq .+2
 8009 2d72 00C0      		rjmp .L529
 8010               	.LVL649:
 8011               	.L532:
 8012               	.LM794:
 8013 2d74 53FE      		sbrs r5,3
 8014 2d76 00C0      		rjmp .L536
 8015               	.LM795:
 8016 2d78 D601      		movw r26,r12
 8017 2d7a 1B96      		adiw r26,11
 8018 2d7c 1C92      		st X,__zero_reg__
 8019               	.LM796:
 8020 2d7e 0E94 0000 		call get_fattime
 8021               	.LVL650:
 8022               	.LM797:
 8023 2d82 F601      		movw r30,r12
 8024 2d84 6687      		std Z+14,r22
 8025 2d86 272F      		mov r18,r23
 8026 2d88 3327      		clr r19
 8027 2d8a 2787      		std Z+15,r18
 8028 2d8c 9C01      		movw r18,r24
 8029 2d8e 4427      		clr r20
 8030 2d90 5527      		clr r21
 8031 2d92 208B      		std Z+16,r18
 8032 2d94 692F      		mov r22,r25
 8033 2d96 7727      		clr r23
 8034 2d98 8827      		clr r24
 8035 2d9a 9927      		clr r25
 8036 2d9c 618B      		std Z+17,r22
 8037               	.LM798:
 8038 2d9e ED85      		ldd r30,Y+13
 8039 2da0 FE85      		ldd r31,Y+14
 8040 2da2 81E0      		ldi r24,lo8(1)
 8041 2da4 8483      		std Z+4,r24
 8042               	.LM799:
 8043 2da6 F0E2      		ldi r31,lo8(32)
 8044 2da8 5F2A      		or r5,r31
 8045 2daa 00C0      		rjmp .L536
 8046               	.LVL651:
 8047               	.L530:
 8048               	.LBE595:
 8049               	.LM800:
 8050 2dac 2223      		tst r18
 8051 2dae 01F0      		breq .+2
 8052 2db0 00C0      		rjmp .L529
 8053               	.LM801:
 8054 2db2 CF8C      		ldd r12,Y+31
 8055 2db4 D8A0      		ldd r13,Y+32
 8056               	.LVL652:
 8057               	.LM802:
 8058 2db6 C114      		cp r12,__zero_reg__
 8059 2db8 D104      		cpc r13,__zero_reg__
 8060 2dba 01F4      		brne .+2
 8061 2dbc 00C0      		rjmp .L537
 8062 2dbe D601      		movw r26,r12
 8063 2dc0 1B96      		adiw r26,11
 8064 2dc2 8C91      		ld r24,X
 8065 2dc4 84FD      		sbrc r24,4
 8066 2dc6 00C0      		rjmp .L537
 8067               	.LM803:
 8068 2dc8 51FE      		sbrs r5,1
 8069 2dca 00C0      		rjmp .L536
 8070               	.LVL653:
 8071 2dcc 80FD      		sbrc r24,0
 8072 2dce 00C0      		rjmp .L534
 8073               	.LVL654:
 8074               	.L536:
 8075               	.LM804:
 8076 2dd0 ED85      		ldd r30,Y+13
 8077 2dd2 FE85      		ldd r31,Y+14
 8078 2dd4 22A5      		ldd r18,Z+42
 8079 2dd6 33A5      		ldd r19,Z+43
 8080 2dd8 44A5      		ldd r20,Z+44
 8081 2dda 55A5      		ldd r21,Z+45
 8082               	.LVL655:
 8083 2ddc D301      		movw r26,r6
 8084 2dde 5A96      		adiw r26,26
 8085 2de0 2D93      		st X+,r18
 8086 2de2 3D93      		st X+,r19
 8087 2de4 4D93      		st X+,r20
 8088 2de6 5C93      		st X,r21
 8089 2de8 5D97      		sbiw r26,26+3
 8090               	.LM805:
 8091 2dea 8F8D      		ldd r24,Y+31
 8092 2dec 98A1      		ldd r25,Y+32
 8093               	.LVL656:
 8094 2dee 5E96      		adiw r26,30
 8095 2df0 8D93      		st X+,r24
 8096 2df2 9C93      		st X,r25
 8097 2df4 5F97      		sbiw r26,30+1
 8098               	.LM806:
 8099 2df6 1496      		adiw r26,4
 8100 2df8 5C92      		st X,r5
 8101               	.LM807:
 8102 2dfa D601      		movw r26,r12
 8103 2dfc 5596      		adiw r26,21
 8104 2dfe 3C91      		ld r19,X
 8105 2e00 5597      		sbiw r26,21
 8106 2e02 20E0      		ldi r18,lo8(0)
 8107 2e04 5496      		adiw r26,20
 8108 2e06 8C91      		ld r24,X
 8109 2e08 5497      		sbiw r26,20
 8110 2e0a 90E0      		ldi r25,lo8(0)
 8111 2e0c 282B      		or r18,r24
 8112 2e0e 392B      		or r19,r25
 8113 2e10 40E0      		ldi r20,lo8(0)
 8114 2e12 50E0      		ldi r21,hi8(0)
 8115 2e14 A901      		movw r20,r18
 8116 2e16 3327      		clr r19
 8117 2e18 2227      		clr r18
 8118 2e1a 5B96      		adiw r26,27
 8119 2e1c 9C91      		ld r25,X
 8120 2e1e 5B97      		sbiw r26,27
 8121 2e20 80E0      		ldi r24,lo8(0)
 8122 2e22 5A96      		adiw r26,26
 8123 2e24 6C91      		ld r22,X
 8124 2e26 70E0      		ldi r23,lo8(0)
 8125 2e28 862B      		or r24,r22
 8126 2e2a 972B      		or r25,r23
 8127 2e2c A0E0      		ldi r26,lo8(0)
 8128 2e2e B0E0      		ldi r27,hi8(0)
 8129 2e30 282B      		or r18,r24
 8130 2e32 392B      		or r19,r25
 8131 2e34 4A2B      		or r20,r26
 8132 2e36 5B2B      		or r21,r27
 8133 2e38 D301      		movw r26,r6
 8134 2e3a 1E96      		adiw r26,14
 8135 2e3c 2D93      		st X+,r18
 8136 2e3e 3D93      		st X+,r19
 8137 2e40 4D93      		st X+,r20
 8138 2e42 5C93      		st X,r21
 8139 2e44 5197      		sbiw r26,14+3
 8140               	.LM808:
 8141 2e46 D601      		movw r26,r12
 8142 2e48 5F96      		adiw r26,31
 8143 2e4a 2C91      		ld r18,X
 8144 2e4c 5F97      		sbiw r26,31
 8145 2e4e 30E0      		ldi r19,lo8(0)
 8146 2e50 40E0      		ldi r20,lo8(0)
 8147 2e52 50E0      		ldi r21,hi8(0)
 8148 2e54 522F      		mov r21,r18
 8149 2e56 4427      		clr r20
 8150 2e58 3327      		clr r19
 8151 2e5a 2227      		clr r18
 8152 2e5c 5E96      		adiw r26,30
 8153 2e5e 8C91      		ld r24,X
 8154 2e60 90E0      		ldi r25,lo8(0)
 8155 2e62 A0E0      		ldi r26,lo8(0)
 8156 2e64 B0E0      		ldi r27,hi8(0)
 8157 2e66 DC01      		movw r26,r24
 8158 2e68 9927      		clr r25
 8159 2e6a 8827      		clr r24
 8160 2e6c 282B      		or r18,r24
 8161 2e6e 392B      		or r19,r25
 8162 2e70 4A2B      		or r20,r26
 8163 2e72 5B2B      		or r21,r27
 8164 2e74 D601      		movw r26,r12
 8165 2e76 5C96      		adiw r26,28
 8166 2e78 8C91      		ld r24,X
 8167 2e7a 90E0      		ldi r25,lo8(0)
 8168 2e7c A0E0      		ldi r26,lo8(0)
 8169 2e7e B0E0      		ldi r27,hi8(0)
 8170 2e80 282B      		or r18,r24
 8171 2e82 392B      		or r19,r25
 8172 2e84 4A2B      		or r20,r26
 8173 2e86 5B2B      		or r21,r27
 8174 2e88 D601      		movw r26,r12
 8175 2e8a 5D96      		adiw r26,29
 8176 2e8c 9C91      		ld r25,X
 8177 2e8e 80E0      		ldi r24,lo8(0)
 8178 2e90 A0E0      		ldi r26,lo8(0)
 8179 2e92 B0E0      		ldi r27,hi8(0)
 8180 2e94 282B      		or r18,r24
 8181 2e96 392B      		or r19,r25
 8182 2e98 4A2B      		or r20,r26
 8183 2e9a 5B2B      		or r21,r27
 8184 2e9c D301      		movw r26,r6
 8185 2e9e 1A96      		adiw r26,10
 8186 2ea0 2D93      		st X+,r18
 8187 2ea2 3D93      		st X+,r19
 8188 2ea4 4D93      		st X+,r20
 8189 2ea6 5C93      		st X,r21
 8190 2ea8 1D97      		sbiw r26,10+3
 8191               	.LM809:
 8192 2eaa 1696      		adiw r26,6
 8193 2eac 1D92      		st X+,__zero_reg__
 8194 2eae 1D92      		st X+,__zero_reg__
 8195 2eb0 1D92      		st X+,__zero_reg__
 8196 2eb2 1C92      		st X,__zero_reg__
 8197 2eb4 1997      		sbiw r26,6+3
 8198 2eb6 8FEF      		ldi r24,lo8(-1)
 8199 2eb8 1596      		adiw r26,5
 8200 2eba 8C93      		st X,r24
 8201 2ebc 1597      		sbiw r26,5
 8202               	.LM810:
 8203 2ebe 5696      		adiw r26,22
 8204 2ec0 1D92      		st X+,__zero_reg__
 8205 2ec2 1D92      		st X+,__zero_reg__
 8206 2ec4 1D92      		st X+,__zero_reg__
 8207 2ec6 1C92      		st X,__zero_reg__
 8208 2ec8 5997      		sbiw r26,22+3
 8209               	.LM811:
 8210 2eca ED93      		st X+,r30
 8211 2ecc FC93      		st X,r31
 8212 2ece 1197      		sbiw r26,1
 8213 2ed0 8681      		ldd r24,Z+6
 8214 2ed2 9781      		ldd r25,Z+7
 8215 2ed4 1296      		adiw r26,2
 8216 2ed6 8D93      		st X+,r24
 8217 2ed8 9C93      		st X,r25
 8218 2eda 1397      		sbiw r26,2+1
 8219 2edc 20E0      		ldi r18,lo8(0)
 8220               	.LVL657:
 8221 2ede 00C0      		rjmp .L529
 8222               	.LVL658:
 8223               	.L534:
 8224               	.LM812:
 8225 2ee0 27E0      		ldi r18,lo8(7)
 8226 2ee2 00C0      		rjmp .L529
 8227               	.LVL659:
 8228               	.L537:
 8229 2ee4 24E0      		ldi r18,lo8(4)
 8230               	.LVL660:
 8231               	.L529:
 8232               	.LM813:
 8233 2ee6 822F      		mov r24,r18
 8234               	/* epilogue start */
 8235 2ee8 A496      		adiw r28,36
 8236 2eea CDBF      		out __SP_L__,r28
 8237 2eec DEBF      		out __SP_H__,r29
 8238 2eee CF91      		pop r28
 8239 2ef0 DF91      		pop r29
 8240 2ef2 1F91      		pop r17
 8241 2ef4 0F91      		pop r16
 8242 2ef6 FF90      		pop r15
 8243 2ef8 EF90      		pop r14
 8244               	.LVL661:
 8245 2efa DF90      		pop r13
 8246 2efc CF90      		pop r12
 8247               	.LVL662:
 8248 2efe BF90      		pop r11
 8249 2f00 AF90      		pop r10
 8250 2f02 9F90      		pop r9
 8251 2f04 8F90      		pop r8
 8252               	.LVL663:
 8253 2f06 7F90      		pop r7
 8254 2f08 6F90      		pop r6
 8255               	.LVL664:
 8256 2f0a 5F90      		pop r5
 8257               	.LVL665:
 8258 2f0c 0895      		ret
 8259               	.LFE66:
 8261               	.global	f_read
 8263               	f_read:
 8264               	.LFB67:
 8265               	.LM814:
 8266               	.LVL666:
 8267 2f0e 2F92      		push r2
 8268 2f10 3F92      		push r3
 8269 2f12 4F92      		push r4
 8270 2f14 5F92      		push r5
 8271 2f16 6F92      		push r6
 8272 2f18 7F92      		push r7
 8273 2f1a 8F92      		push r8
 8274 2f1c 9F92      		push r9
 8275 2f1e AF92      		push r10
 8276 2f20 BF92      		push r11
 8277 2f22 CF92      		push r12
 8278 2f24 DF92      		push r13
 8279 2f26 EF92      		push r14
 8280 2f28 FF92      		push r15
 8281 2f2a 0F93      		push r16
 8282 2f2c 1F93      		push r17
 8283 2f2e DF93      		push r29
 8284 2f30 CF93      		push r28
 8285 2f32 00D0      		rcall .
 8286 2f34 0F92      		push __tmp_reg__
 8287 2f36 CDB7      		in r28,__SP_L__
 8288 2f38 DEB7      		in r29,__SP_H__
 8289               	/* prologue: function */
 8290               	/* frame size = 4 */
 8291 2f3a 8B83      		std Y+3,r24
 8292 2f3c 9C83      		std Y+4,r25
 8293 2f3e 162F      		mov r17,r22
 8294 2f40 072F      		mov r16,r23
 8295               	.LVL667:
 8296 2f42 4A01      		movw r8,r20
 8297 2f44 2983      		std Y+1,r18
 8298 2f46 3A83      		std Y+2,r19
 8299               	.LM815:
 8300 2f48 D901      		movw r26,r18
 8301 2f4a 1D92      		st X+,__zero_reg__
 8302 2f4c 1C92      		st X,__zero_reg__
 8303               	.LM816:
 8304 2f4e FC01      		movw r30,r24
 8305 2f50 6281      		ldd r22,Z+2
 8306 2f52 7381      		ldd r23,Z+3
 8307               	.LVL668:
 8308 2f54 8081      		ld r24,Z
 8309 2f56 9181      		ldd r25,Z+1
 8310               	.LVL669:
 8311 2f58 0E94 0000 		call validate
 8312               	.LVL670:
 8313 2f5c 782E      		mov r7,r24
 8314               	.LVL671:
 8315               	.LM817:
 8316 2f5e 8823      		tst r24
 8317 2f60 01F0      		breq .+2
 8318 2f62 00C0      		rjmp .L540
 8319               	.LVL672:
 8320               	.LM818:
 8321 2f64 AB81      		ldd r26,Y+3
 8322 2f66 BC81      		ldd r27,Y+4
 8323 2f68 1496      		adiw r26,4
 8324 2f6a 8C91      		ld r24,X
 8325               	.LVL673:
 8326 2f6c 87FD      		sbrc r24,7
 8327 2f6e 00C0      		rjmp .L568
 8328               	.L541:
 8329               	.LM819:
 8330 2f70 80FD      		sbrc r24,0
 8331 2f72 00C0      		rjmp .L542
 8332 2f74 07E0      		ldi r16,lo8(7)
 8333 2f76 702E      		mov r7,r16
 8334               	.LVL674:
 8335 2f78 00C0      		rjmp .L540
 8336               	.LVL675:
 8337               	.L542:
 8338               	.LM820:
 8339 2f7a EB81      		ldd r30,Y+3
 8340 2f7c FC81      		ldd r31,Y+4
 8341 2f7e 2285      		ldd r18,Z+10
 8342 2f80 3385      		ldd r19,Z+11
 8343 2f82 4485      		ldd r20,Z+12
 8344 2f84 5585      		ldd r21,Z+13
 8345               	.LVL676:
 8346 2f86 8681      		ldd r24,Z+6
 8347 2f88 9781      		ldd r25,Z+7
 8348 2f8a A085      		ldd r26,Z+8
 8349 2f8c B185      		ldd r27,Z+9
 8350 2f8e 281B      		sub r18,r24
 8351 2f90 390B      		sbc r19,r25
 8352 2f92 4A0B      		sbc r20,r26
 8353 2f94 5B0B      		sbc r21,r27
 8354               	.LM821:
 8355 2f96 C401      		movw r24,r8
 8356 2f98 A0E0      		ldi r26,lo8(0)
 8357 2f9a B0E0      		ldi r27,hi8(0)
 8358               	.LVL677:
 8359 2f9c 2817      		cp r18,r24
 8360 2f9e 3907      		cpc r19,r25
 8361 2fa0 4A07      		cpc r20,r26
 8362 2fa2 5B07      		cpc r21,r27
 8363 2fa4 00F4      		brsh .L543
 8364               	.LVL678:
 8365 2fa6 4901      		movw r8,r18
 8366               	.LVL679:
 8367               	.L543:
 8368               	.LM822:
 8369 2fa8 812F      		mov r24,r17
 8370               	.LVL680:
 8371 2faa 902F      		mov r25,r16
 8372               	.LVL681:
 8373 2fac 9C01      		movw r18,r24
 8374               	.LVL682:
 8375 2fae 2901      		movw r4,r18
 8376               	.LVL683:
 8377               	.LBB596:
 8378               	.LBB597:
 8379               	.LM823:
 8380 2fb0 10E2      		ldi r17,lo8(32)
 8381 2fb2 212E      		mov r2,r17
 8382 2fb4 312C      		mov r3,__zero_reg__
 8383               	.LVL684:
 8384 2fb6 6B81      		ldd r22,Y+3
 8385 2fb8 7C81      		ldd r23,Y+4
 8386 2fba 260E      		add r2,r22
 8387 2fbc 371E      		adc r3,r23
 8388 2fbe 00C0      		rjmp .L544
 8389               	.LVL685:
 8390               	.L566:
 8391               	.LBE597:
 8392               	.LBE596:
 8393               	.LM824:
 8394 2fc0 AB81      		ldd r26,Y+3
 8395 2fc2 BC81      		ldd r27,Y+4
 8396               	.LVL686:
 8397 2fc4 1696      		adiw r26,6
 8398 2fc6 2D91      		ld r18,X+
 8399 2fc8 3D91      		ld r19,X+
 8400 2fca 4D91      		ld r20,X+
 8401 2fcc 5C91      		ld r21,X
 8402 2fce 1997      		sbiw r26,6+3
 8403 2fd0 DA01      		movw r26,r20
 8404 2fd2 C901      		movw r24,r18
 8405 2fd4 9170      		andi r25,hi8(511)
 8406 2fd6 A070      		andi r26,hlo8(511)
 8407 2fd8 B070      		andi r27,hhi8(511)
 8408 2fda 0097      		sbiw r24,0
 8409 2fdc A105      		cpc r26,__zero_reg__
 8410 2fde B105      		cpc r27,__zero_reg__
 8411 2fe0 01F0      		breq .+2
 8412 2fe2 00C0      		rjmp .L545
 8413               	.LM825:
 8414 2fe4 AB81      		ldd r26,Y+3
 8415 2fe6 BC81      		ldd r27,Y+4
 8416 2fe8 ED91      		ld r30,X+
 8417 2fea FC91      		ld r31,X
 8418 2fec 1197      		sbiw r26,1
 8419 2fee 1596      		adiw r26,5
 8420 2ff0 9C91      		ld r25,X
 8421 2ff2 1597      		sbiw r26,5
 8422               	.LVL687:
 8423 2ff4 8281      		ldd r24,Z+2
 8424 2ff6 9817      		cp r25,r24
 8425 2ff8 00F0      		brlo .L546
 8426               	.LM826:
 8427 2ffa 2115      		cp r18,__zero_reg__
 8428 2ffc 3105      		cpc r19,__zero_reg__
 8429 2ffe 4105      		cpc r20,__zero_reg__
 8430 3000 5105      		cpc r21,__zero_reg__
 8431 3002 01F4      		brne .L547
 8432 3004 1E96      		adiw r26,14
 8433 3006 6D91      		ld r22,X+
 8434 3008 7D91      		ld r23,X+
 8435 300a 8D91      		ld r24,X+
 8436 300c 9C91      		ld r25,X
 8437 300e 5197      		sbiw r26,14+3
 8438               	.LVL688:
 8439 3010 00C0      		rjmp .L548
 8440               	.LVL689:
 8441               	.L547:
 8442 3012 AB81      		ldd r26,Y+3
 8443 3014 BC81      		ldd r27,Y+4
 8444 3016 5296      		adiw r26,18
 8445 3018 4D91      		ld r20,X+
 8446 301a 5D91      		ld r21,X+
 8447 301c 6D91      		ld r22,X+
 8448 301e 7C91      		ld r23,X
 8449 3020 5597      		sbiw r26,18+3
 8450 3022 CF01      		movw r24,r30
 8451 3024 0E94 0000 		call get_fat
 8452               	.LVL690:
 8453               	.L548:
 8454               	.LM827:
 8455 3028 6230      		cpi r22,lo8(2)
 8456 302a 7105      		cpc r23,__zero_reg__
 8457 302c 8105      		cpc r24,__zero_reg__
 8458 302e 9105      		cpc r25,__zero_reg__
 8459 3030 00F4      		brsh .L549
 8460 3032 EB81      		ldd r30,Y+3
 8461 3034 FC81      		ldd r31,Y+4
 8462 3036 8481      		ldd r24,Z+4
 8463 3038 8068      		ori r24,lo8(-128)
 8464 303a 8483      		std Z+4,r24
 8465               	.LVL691:
 8466               	.L568:
 8467 303c B2E0      		ldi r27,lo8(2)
 8468 303e 7B2E      		mov r7,r27
 8469 3040 00C0      		rjmp .L540
 8470               	.LVL692:
 8471               	.L549:
 8472               	.LM828:
 8473 3042 6F3F      		cpi r22,lo8(-1)
 8474 3044 FFEF      		ldi r31,hi8(-1)
 8475 3046 7F07      		cpc r23,r31
 8476 3048 FFEF      		ldi r31,hlo8(-1)
 8477 304a 8F07      		cpc r24,r31
 8478 304c FFEF      		ldi r31,hhi8(-1)
 8479 304e 9F07      		cpc r25,r31
 8480 3050 01F4      		brne .+2
 8481 3052 00C0      		rjmp .L569
 8482               	.L550:
 8483               	.LM829:
 8484 3054 EB81      		ldd r30,Y+3
 8485 3056 FC81      		ldd r31,Y+4
 8486 3058 628B      		std Z+18,r22
 8487 305a 738B      		std Z+19,r23
 8488 305c 848B      		std Z+20,r24
 8489 305e 958B      		std Z+21,r25
 8490               	.LM830:
 8491 3060 1582      		std Z+5,__zero_reg__
 8492               	.LVL693:
 8493               	.L546:
 8494               	.LM831:
 8495 3062 AB81      		ldd r26,Y+3
 8496 3064 BC81      		ldd r27,Y+4
 8497 3066 0D91      		ld r16,X+
 8498 3068 1C91      		ld r17,X
 8499 306a 1197      		sbiw r26,1
 8500               	.LVL694:
 8501               	.LBB599:
 8502               	.LBB600:
 8503               	.LM832:
 8504 306c 5296      		adiw r26,18
 8505 306e 2D91      		ld r18,X+
 8506 3070 3D91      		ld r19,X+
 8507 3072 4D91      		ld r20,X+
 8508 3074 5C91      		ld r21,X
 8509 3076 5597      		sbiw r26,18+3
 8510               	.LVL695:
 8511 3078 2250      		subi r18,lo8(-(-2))
 8512 307a 3040      		sbci r19,hi8(-(-2))
 8513 307c 4040      		sbci r20,hlo8(-(-2))
 8514 307e 5040      		sbci r21,hhi8(-(-2))
 8515               	.LM833:
 8516 3080 F801      		movw r30,r16
 8517 3082 828D      		ldd r24,Z+26
 8518 3084 938D      		ldd r25,Z+27
 8519 3086 A48D      		ldd r26,Z+28
 8520 3088 B58D      		ldd r27,Z+29
 8521 308a 0297      		sbiw r24,2
 8522 308c A109      		sbc r26,__zero_reg__
 8523 308e B109      		sbc r27,__zero_reg__
 8524 3090 2817      		cp r18,r24
 8525 3092 3907      		cpc r19,r25
 8526 3094 4A07      		cpc r20,r26
 8527 3096 5B07      		cpc r21,r27
 8528 3098 00F4      		brsh .L551
 8529               	.LM834:
 8530 309a 6280      		ldd r6,Z+2
 8531 309c 662D      		mov r22,r6
 8532               	.LVL696:
 8533 309e 70E0      		ldi r23,lo8(0)
 8534 30a0 80E0      		ldi r24,lo8(0)
 8535 30a2 90E0      		ldi r25,hi8(0)
 8536 30a4 0E94 0000 		call __mulsi3
 8537               	.LVL697:
 8538 30a8 9B01      		movw r18,r22
 8539 30aa AC01      		movw r20,r24
 8540               	.LVL698:
 8541 30ac F801      		movw r30,r16
 8542 30ae 86A1      		ldd r24,Z+38
 8543 30b0 97A1      		ldd r25,Z+39
 8544 30b2 A0A5      		ldd r26,Z+40
 8545 30b4 B1A5      		ldd r27,Z+41
 8546 30b6 280F      		add r18,r24
 8547 30b8 391F      		adc r19,r25
 8548 30ba 4A1F      		adc r20,r26
 8549 30bc 5B1F      		adc r21,r27
 8550               	.LBE600:
 8551               	.LBE599:
 8552               	.LM835:
 8553 30be 2115      		cp r18,__zero_reg__
 8554 30c0 3105      		cpc r19,__zero_reg__
 8555 30c2 4105      		cpc r20,__zero_reg__
 8556 30c4 5105      		cpc r21,__zero_reg__
 8557 30c6 01F4      		brne .L552
 8558               	.LVL699:
 8559               	.L551:
 8560 30c8 AB81      		ldd r26,Y+3
 8561 30ca BC81      		ldd r27,Y+4
 8562 30cc 1496      		adiw r26,4
 8563 30ce 8C91      		ld r24,X
 8564 30d0 1497      		sbiw r26,4
 8565 30d2 8068      		ori r24,lo8(-128)
 8566 30d4 1496      		adiw r26,4
 8567 30d6 8C93      		st X,r24
 8568 30d8 00C0      		rjmp .L568
 8569               	.LVL700:
 8570               	.L552:
 8571               	.LM836:
 8572 30da EB81      		ldd r30,Y+3
 8573 30dc FC81      		ldd r31,Y+4
 8574 30de 8581      		ldd r24,Z+5
 8575 30e0 5901      		movw r10,r18
 8576 30e2 6A01      		movw r12,r20
 8577 30e4 A80E      		add r10,r24
 8578 30e6 B11C      		adc r11,__zero_reg__
 8579 30e8 C11C      		adc r12,__zero_reg__
 8580 30ea D11C      		adc r13,__zero_reg__
 8581               	.LVL701:
 8582               	.LM837:
 8583 30ec 7401      		movw r14,r8
 8584 30ee EF2C      		mov r14,r15
 8585 30f0 FF24      		clr r15
 8586 30f2 E694      		lsr r14
 8587               	.LM838:
 8588 30f4 E114      		cp r14,__zero_reg__
 8589 30f6 F104      		cpc r15,__zero_reg__
 8590 30f8 01F4      		brne .+2
 8591 30fa 00C0      		rjmp .L553
 8592               	.LM839:
 8593 30fc 282F      		mov r18,r24
 8594 30fe 30E0      		ldi r19,lo8(0)
 8595 3100 C701      		movw r24,r14
 8596 3102 820F      		add r24,r18
 8597 3104 931F      		adc r25,r19
 8598 3106 662D      		mov r22,r6
 8599 3108 70E0      		ldi r23,lo8(0)
 8600 310a 6817      		cp r22,r24
 8601 310c 7907      		cpc r23,r25
 8602 310e 00F4      		brsh .L554
 8603               	.LM840:
 8604 3110 7B01      		movw r14,r22
 8605 3112 E21A      		sub r14,r18
 8606 3114 F30A      		sbc r15,r19
 8607               	.L554:
 8608               	.LM841:
 8609 3116 D801      		movw r26,r16
 8610 3118 1196      		adiw r26,1
 8611 311a 8C91      		ld r24,X
 8612 311c B201      		movw r22,r4
 8613 311e A601      		movw r20,r12
 8614 3120 9501      		movw r18,r10
 8615 3122 0E2D      		mov r16,r14
 8616 3124 0E94 0000 		call disk_read
 8617 3128 EB81      		ldd r30,Y+3
 8618 312a FC81      		ldd r31,Y+4
 8619 312c 9481      		ldd r25,Z+4
 8620 312e 8823      		tst r24
 8621 3130 01F0      		breq .L555
 8622               	.LM842:
 8623 3132 9068      		ori r25,lo8(-128)
 8624 3134 9483      		std Z+4,r25
 8625 3136 00C0      		rjmp .L570
 8626               	.L555:
 8627               	.LM843:
 8628 3138 96FF      		sbrs r25,6
 8629 313a 00C0      		rjmp .L556
 8630 313c AB81      		ldd r26,Y+3
 8631 313e BC81      		ldd r27,Y+4
 8632 3140 5696      		adiw r26,22
 8633 3142 2D91      		ld r18,X+
 8634 3144 3D91      		ld r19,X+
 8635 3146 4D91      		ld r20,X+
 8636 3148 5C91      		ld r21,X
 8637 314a 5997      		sbiw r26,22+3
 8638 314c 2A19      		sub r18,r10
 8639 314e 3B09      		sbc r19,r11
 8640 3150 4C09      		sbc r20,r12
 8641 3152 5D09      		sbc r21,r13
 8642 3154 C701      		movw r24,r14
 8643 3156 A0E0      		ldi r26,lo8(0)
 8644 3158 B0E0      		ldi r27,hi8(0)
 8645               	.LVL702:
 8646 315a 2817      		cp r18,r24
 8647 315c 3907      		cpc r19,r25
 8648 315e 4A07      		cpc r20,r26
 8649 3160 5B07      		cpc r21,r27
 8650 3162 00F4      		brsh .L556
 8651               	.LVL703:
 8652               	.LBB601:
 8653               	.LBB598:
 8654               	.LM844:
 8655 3164 F9E0      		ldi r31,9
 8656 3166 220F      	1:	lsl r18
 8657 3168 331F      		rol r19
 8658 316a 441F      		rol r20
 8659 316c 551F      		rol r21
 8660 316e FA95      		dec r31
 8661 3170 01F4      		brne 1b
 8662 3172 C201      		movw r24,r4
 8663               	.LVL704:
 8664 3174 820F      		add r24,r18
 8665 3176 931F      		adc r25,r19
 8666 3178 D101      		movw r26,r2
 8667               	.LVL705:
 8668 317a FC01      		movw r30,r24
 8669               	.LM845:
 8670 317c 9C01      		movw r18,r24
 8671 317e 2050      		subi r18,lo8(-(512))
 8672 3180 3E4F      		sbci r19,hi8(-(512))
 8673 3182 00C0      		rjmp .L557
 8674               	.LVL706:
 8675               	.L558:
 8676 3184 8D91      		ld r24,X+
 8677 3186 8193      		st Z+,r24
 8678               	.LVL707:
 8679               	.L557:
 8680 3188 E217      		cp r30,r18
 8681 318a F307      		cpc r31,r19
 8682 318c 01F4      		brne .L558
 8683               	.LVL708:
 8684               	.L556:
 8685               	.LBE598:
 8686               	.LBE601:
 8687               	.LM846:
 8688 318e EB81      		ldd r30,Y+3
 8689 3190 FC81      		ldd r31,Y+4
 8690               	.LVL709:
 8691 3192 8581      		ldd r24,Z+5
 8692               	.LVL710:
 8693 3194 8E0D      		add r24,r14
 8694 3196 8583      		std Z+5,r24
 8695               	.LM847:
 8696 3198 B701      		movw r22,r14
 8697               	.LVL711:
 8698 319a 762F      		mov r23,r22
 8699 319c 6627      		clr r22
 8700 319e 770F      		lsl r23
 8701 31a0 00C0      		rjmp .L559
 8702               	.LVL712:
 8703               	.L553:
 8704               	.LM848:
 8705 31a2 AB81      		ldd r26,Y+3
 8706 31a4 BC81      		ldd r27,Y+4
 8707 31a6 1496      		adiw r26,4
 8708 31a8 8C91      		ld r24,X
 8709 31aa 1497      		sbiw r26,4
 8710 31ac 86FF      		sbrs r24,6
 8711 31ae 00C0      		rjmp .L560
 8712               	.LM849:
 8713 31b0 5696      		adiw r26,22
 8714 31b2 2D91      		ld r18,X+
 8715 31b4 3D91      		ld r19,X+
 8716 31b6 4D91      		ld r20,X+
 8717 31b8 5C91      		ld r21,X
 8718 31ba 5997      		sbiw r26,22+3
 8719 31bc F801      		movw r30,r16
 8720 31be 8181      		ldd r24,Z+1
 8721 31c0 B101      		movw r22,r2
 8722 31c2 01E0      		ldi r16,lo8(1)
 8723 31c4 0E94 0000 		call disk_write
 8724 31c8 AB81      		ldd r26,Y+3
 8725 31ca BC81      		ldd r27,Y+4
 8726 31cc 1496      		adiw r26,4
 8727 31ce 9C91      		ld r25,X
 8728 31d0 1497      		sbiw r26,4
 8729 31d2 8823      		tst r24
 8730 31d4 01F0      		breq .L561
 8731               	.LM850:
 8732 31d6 9068      		ori r25,lo8(-128)
 8733 31d8 1496      		adiw r26,4
 8734 31da 9C93      		st X,r25
 8735 31dc 00C0      		rjmp .L570
 8736               	.L561:
 8737               	.LM851:
 8738 31de 9F7B      		andi r25,lo8(-65)
 8739 31e0 EB81      		ldd r30,Y+3
 8740 31e2 FC81      		ldd r31,Y+4
 8741 31e4 9483      		std Z+4,r25
 8742               	.L560:
 8743               	.LM852:
 8744 31e6 EB81      		ldd r30,Y+3
 8745 31e8 FC81      		ldd r31,Y+4
 8746 31ea 8689      		ldd r24,Z+22
 8747 31ec 9789      		ldd r25,Z+23
 8748 31ee A08D      		ldd r26,Z+24
 8749 31f0 B18D      		ldd r27,Z+25
 8750 31f2 8A15      		cp r24,r10
 8751 31f4 9B05      		cpc r25,r11
 8752 31f6 AC05      		cpc r26,r12
 8753 31f8 BD05      		cpc r27,r13
 8754 31fa 01F0      		breq .L562
 8755               	.LM853:
 8756 31fc 0190      		ld __tmp_reg__,Z+
 8757 31fe F081      		ld r31,Z
 8758 3200 E02D      		mov r30,__tmp_reg__
 8759 3202 8181      		ldd r24,Z+1
 8760 3204 B101      		movw r22,r2
 8761 3206 A601      		movw r20,r12
 8762 3208 9501      		movw r18,r10
 8763 320a 01E0      		ldi r16,lo8(1)
 8764 320c 0E94 0000 		call disk_read
 8765 3210 8823      		tst r24
 8766 3212 01F0      		breq .L562
 8767               	.LVL713:
 8768               	.L569:
 8769               	.LM854:
 8770 3214 AB81      		ldd r26,Y+3
 8771 3216 BC81      		ldd r27,Y+4
 8772 3218 1496      		adiw r26,4
 8773 321a 8C91      		ld r24,X
 8774 321c 1497      		sbiw r26,4
 8775 321e 8068      		ori r24,lo8(-128)
 8776 3220 1496      		adiw r26,4
 8777 3222 8C93      		st X,r24
 8778               	.L570:
 8779 3224 7724      		clr r7
 8780 3226 7394      		inc r7
 8781 3228 00C0      		rjmp .L540
 8782               	.LVL714:
 8783               	.L562:
 8784               	.LM855:
 8785 322a EB81      		ldd r30,Y+3
 8786 322c FC81      		ldd r31,Y+4
 8787 322e A68A      		std Z+22,r10
 8788 3230 B78A      		std Z+23,r11
 8789 3232 C08E      		std Z+24,r12
 8790 3234 D18E      		std Z+25,r13
 8791               	.LM856:
 8792 3236 8581      		ldd r24,Z+5
 8793 3238 8F5F      		subi r24,lo8(-(1))
 8794 323a 8583      		std Z+5,r24
 8795               	.LVL715:
 8796               	.L545:
 8797               	.LM857:
 8798 323c AB81      		ldd r26,Y+3
 8799 323e BC81      		ldd r27,Y+4
 8800 3240 1696      		adiw r26,6
 8801 3242 2D91      		ld r18,X+
 8802 3244 3D91      		ld r19,X+
 8803 3246 4D91      		ld r20,X+
 8804 3248 5C91      		ld r21,X
 8805 324a 1997      		sbiw r26,6+3
 8806 324c C901      		movw r24,r18
 8807 324e 9170      		andi r25,hi8(511)
 8808 3250 E0E0      		ldi r30,lo8(512)
 8809 3252 F2E0      		ldi r31,hi8(512)
 8810 3254 E81B      		sub r30,r24
 8811 3256 F90B      		sbc r31,r25
 8812 3258 B401      		movw r22,r8
 8813 325a E815      		cp r30,r8
 8814 325c F905      		cpc r31,r9
 8815 325e 00F4      		brsh .L563
 8816               	.LVL716:
 8817 3260 BF01      		movw r22,r30
 8818               	.L563:
 8819               	.LM858:
 8820 3262 8B01      		movw r16,r22
 8821               	.LVL717:
 8822               	.LBB602:
 8823               	.LBB603:
 8824               	.LM859:
 8825 3264 F901      		movw r30,r18
 8826               	.LVL718:
 8827 3266 F170      		andi r31,hi8(511)
 8828 3268 B096      		adiw r30,32
 8829 326a 8B81      		ldd r24,Y+3
 8830 326c 9C81      		ldd r25,Y+4
 8831 326e E80F      		add r30,r24
 8832 3270 F91F      		adc r31,r25
 8833 3272 9201      		movw r18,r4
 8834 3274 00C0      		rjmp .L564
 8835               	.LVL719:
 8836               	.L565:
 8837               	.LM860:
 8838 3276 8191      		ld r24,Z+
 8839 3278 D901      		movw r26,r18
 8840 327a 8D93      		st X+,r24
 8841 327c 9D01      		movw r18,r26
 8842               	.LVL720:
 8843               	.L564:
 8844 327e 0150      		subi r16,lo8(-(-1))
 8845 3280 1040      		sbci r17,hi8(-(-1))
 8846 3282 BFEF      		ldi r27,hi8(-1)
 8847 3284 0F3F      		cpi r16,lo8(-1)
 8848 3286 1B07      		cpc r17,r27
 8849 3288 01F4      		brne .L565
 8850               	.LVL721:
 8851               	.L559:
 8852               	.LBE603:
 8853               	.LBE602:
 8854               	.LM861:
 8855 328a 460E      		add r4,r22
 8856 328c 571E      		adc r5,r23
 8857 328e CB01      		movw r24,r22
 8858 3290 A0E0      		ldi r26,lo8(0)
 8859 3292 B0E0      		ldi r27,hi8(0)
 8860               	.LVL722:
 8861 3294 EB81      		ldd r30,Y+3
 8862 3296 FC81      		ldd r31,Y+4
 8863               	.LVL723:
 8864 3298 2681      		ldd r18,Z+6
 8865 329a 3781      		ldd r19,Z+7
 8866 329c 4085      		ldd r20,Z+8
 8867 329e 5185      		ldd r21,Z+9
 8868 32a0 280F      		add r18,r24
 8869 32a2 391F      		adc r19,r25
 8870 32a4 4A1F      		adc r20,r26
 8871 32a6 5B1F      		adc r21,r27
 8872 32a8 2683      		std Z+6,r18
 8873 32aa 3783      		std Z+7,r19
 8874 32ac 4087      		std Z+8,r20
 8875 32ae 5187      		std Z+9,r21
 8876 32b0 E981      		ldd r30,Y+1
 8877 32b2 FA81      		ldd r31,Y+2
 8878 32b4 8081      		ld r24,Z
 8879 32b6 9181      		ldd r25,Z+1
 8880 32b8 860F      		add r24,r22
 8881 32ba 971F      		adc r25,r23
 8882 32bc 8083      		st Z,r24
 8883 32be 9183      		std Z+1,r25
 8884 32c0 861A      		sub r8,r22
 8885 32c2 970A      		sbc r9,r23
 8886               	.LVL724:
 8887               	.L544:
 8888               	.LM862:
 8889 32c4 8114      		cp r8,__zero_reg__
 8890 32c6 9104      		cpc r9,__zero_reg__
 8891 32c8 01F0      		breq .+2
 8892 32ca 00C0      		rjmp .L566
 8893               	.LVL725:
 8894               	.L540:
 8895               	.LM863:
 8896 32cc 872D      		mov r24,r7
 8897               	/* epilogue start */
 8898 32ce 2496      		adiw r28,4
 8899 32d0 CDBF      		out __SP_L__,r28
 8900 32d2 DEBF      		out __SP_H__,r29
 8901 32d4 CF91      		pop r28
 8902 32d6 DF91      		pop r29
 8903 32d8 1F91      		pop r17
 8904               	.LVL726:
 8905 32da 0F91      		pop r16
 8906               	.LVL727:
 8907 32dc FF90      		pop r15
 8908 32de EF90      		pop r14
 8909               	.LVL728:
 8910 32e0 DF90      		pop r13
 8911 32e2 CF90      		pop r12
 8912 32e4 BF90      		pop r11
 8913 32e6 AF90      		pop r10
 8914               	.LVL729:
 8915 32e8 9F90      		pop r9
 8916 32ea 8F90      		pop r8
 8917               	.LVL730:
 8918 32ec 7F90      		pop r7
 8919               	.LVL731:
 8920 32ee 6F90      		pop r6
 8921 32f0 5F90      		pop r5
 8922 32f2 4F90      		pop r4
 8923               	.LVL732:
 8924 32f4 3F90      		pop r3
 8925 32f6 2F90      		pop r2
 8926               	.LVL733:
 8927 32f8 0895      		ret
 8928               	.LFE67:
 8930               	.global	f_write
 8932               	f_write:
 8933               	.LFB68:
 8934               	.LM864:
 8935               	.LVL734:
 8936 32fa 2F92      		push r2
 8937 32fc 3F92      		push r3
 8938 32fe 4F92      		push r4
 8939 3300 5F92      		push r5
 8940 3302 6F92      		push r6
 8941 3304 7F92      		push r7
 8942 3306 8F92      		push r8
 8943 3308 9F92      		push r9
 8944 330a AF92      		push r10
 8945 330c BF92      		push r11
 8946 330e CF92      		push r12
 8947 3310 DF92      		push r13
 8948 3312 EF92      		push r14
 8949 3314 FF92      		push r15
 8950 3316 0F93      		push r16
 8951 3318 1F93      		push r17
 8952 331a DF93      		push r29
 8953 331c CF93      		push r28
 8954 331e 00D0      		rcall .
 8955 3320 0F92      		push __tmp_reg__
 8956 3322 CDB7      		in r28,__SP_L__
 8957 3324 DEB7      		in r29,__SP_H__
 8958               	/* prologue: function */
 8959               	/* frame size = 4 */
 8960 3326 8B83      		std Y+3,r24
 8961 3328 9C83      		std Y+4,r25
 8962 332a 162F      		mov r17,r22
 8963 332c 072F      		mov r16,r23
 8964               	.LVL735:
 8965 332e 4A01      		movw r8,r20
 8966 3330 2983      		std Y+1,r18
 8967 3332 3A83      		std Y+2,r19
 8968               	.LM865:
 8969 3334 D901      		movw r26,r18
 8970 3336 1D92      		st X+,__zero_reg__
 8971 3338 1C92      		st X,__zero_reg__
 8972               	.LM866:
 8973 333a FC01      		movw r30,r24
 8974 333c 6281      		ldd r22,Z+2
 8975 333e 7381      		ldd r23,Z+3
 8976               	.LVL736:
 8977 3340 8081      		ld r24,Z
 8978 3342 9181      		ldd r25,Z+1
 8979               	.LVL737:
 8980 3344 0E94 0000 		call validate
 8981               	.LVL738:
 8982 3348 682E      		mov r6,r24
 8983               	.LVL739:
 8984               	.LM867:
 8985 334a 8823      		tst r24
 8986 334c 01F0      		breq .+2
 8987 334e 00C0      		rjmp .L572
 8988               	.LVL740:
 8989               	.LM868:
 8990 3350 AB81      		ldd r26,Y+3
 8991 3352 BC81      		ldd r27,Y+4
 8992 3354 1496      		adiw r26,4
 8993 3356 8C91      		ld r24,X
 8994               	.LVL741:
 8995 3358 87FD      		sbrc r24,7
 8996 335a 00C0      		rjmp .L603
 8997               	.L573:
 8998               	.LM869:
 8999 335c 81FD      		sbrc r24,1
 9000 335e 00C0      		rjmp .L574
 9001 3360 57E0      		ldi r21,lo8(7)
 9002 3362 652E      		mov r6,r21
 9003 3364 00C0      		rjmp .L572
 9004               	.L574:
 9005               	.LM870:
 9006 3366 EB81      		ldd r30,Y+3
 9007 3368 FC81      		ldd r31,Y+4
 9008 336a 2285      		ldd r18,Z+10
 9009 336c 3385      		ldd r19,Z+11
 9010 336e 4485      		ldd r20,Z+12
 9011 3370 5585      		ldd r21,Z+13
 9012 3372 C401      		movw r24,r8
 9013 3374 A0E0      		ldi r26,lo8(0)
 9014 3376 B0E0      		ldi r27,hi8(0)
 9015               	.LVL742:
 9016 3378 820F      		add r24,r18
 9017 337a 931F      		adc r25,r19
 9018 337c A41F      		adc r26,r20
 9019 337e B51F      		adc r27,r21
 9020               	.LVL743:
 9021 3380 8217      		cp r24,r18
 9022 3382 9307      		cpc r25,r19
 9023 3384 A407      		cpc r26,r20
 9024 3386 B507      		cpc r27,r21
 9025 3388 00F4      		brsh .L575
 9026 338a 8824      		clr r8
 9027 338c 9924      		clr r9
 9028               	.LVL744:
 9029               	.L575:
 9030               	.LM871:
 9031 338e 812F      		mov r24,r17
 9032               	.LVL745:
 9033 3390 902F      		mov r25,r16
 9034               	.LVL746:
 9035 3392 9C01      		movw r18,r24
 9036               	.LVL747:
 9037 3394 2901      		movw r4,r18
 9038               	.LVL748:
 9039               	.LM872:
 9040 3396 40E2      		ldi r20,lo8(32)
 9041 3398 242E      		mov r2,r20
 9042 339a 312C      		mov r3,__zero_reg__
 9043               	.LVL749:
 9044 339c 6B81      		ldd r22,Y+3
 9045 339e 7C81      		ldd r23,Y+4
 9046 33a0 260E      		add r2,r22
 9047 33a2 371E      		adc r3,r23
 9048 33a4 00C0      		rjmp .L576
 9049               	.LVL750:
 9050               	.L600:
 9051               	.LM873:
 9052 33a6 AB81      		ldd r26,Y+3
 9053 33a8 BC81      		ldd r27,Y+4
 9054               	.LVL751:
 9055 33aa 1696      		adiw r26,6
 9056 33ac 2D91      		ld r18,X+
 9057 33ae 3D91      		ld r19,X+
 9058 33b0 4D91      		ld r20,X+
 9059 33b2 5C91      		ld r21,X
 9060 33b4 1997      		sbiw r26,6+3
 9061 33b6 DA01      		movw r26,r20
 9062 33b8 C901      		movw r24,r18
 9063 33ba 9170      		andi r25,hi8(511)
 9064 33bc A070      		andi r26,hlo8(511)
 9065 33be B070      		andi r27,hhi8(511)
 9066 33c0 0097      		sbiw r24,0
 9067 33c2 A105      		cpc r26,__zero_reg__
 9068 33c4 B105      		cpc r27,__zero_reg__
 9069 33c6 01F0      		breq .+2
 9070 33c8 00C0      		rjmp .L577
 9071               	.LM874:
 9072 33ca AB81      		ldd r26,Y+3
 9073 33cc BC81      		ldd r27,Y+4
 9074 33ce ED91      		ld r30,X+
 9075 33d0 FC91      		ld r31,X
 9076 33d2 1197      		sbiw r26,1
 9077 33d4 1596      		adiw r26,5
 9078 33d6 9C91      		ld r25,X
 9079 33d8 1597      		sbiw r26,5
 9080               	.LVL752:
 9081 33da 8281      		ldd r24,Z+2
 9082 33dc 9817      		cp r25,r24
 9083 33de 00F4      		brsh .+2
 9084 33e0 00C0      		rjmp .L578
 9085               	.LM875:
 9086 33e2 2115      		cp r18,__zero_reg__
 9087 33e4 3105      		cpc r19,__zero_reg__
 9088 33e6 4105      		cpc r20,__zero_reg__
 9089 33e8 5105      		cpc r21,__zero_reg__
 9090 33ea 01F4      		brne .L579
 9091               	.LM876:
 9092 33ec 1E96      		adiw r26,14
 9093 33ee 6D91      		ld r22,X+
 9094 33f0 7D91      		ld r23,X+
 9095 33f2 8D91      		ld r24,X+
 9096 33f4 9C91      		ld r25,X
 9097 33f6 5197      		sbiw r26,14+3
 9098               	.LVL753:
 9099               	.LM877:
 9100 33f8 6115      		cp r22,__zero_reg__
 9101 33fa 7105      		cpc r23,__zero_reg__
 9102 33fc 8105      		cpc r24,__zero_reg__
 9103 33fe 9105      		cpc r25,__zero_reg__
 9104 3400 01F4      		brne .L580
 9105               	.LM878:
 9106 3402 CF01      		movw r24,r30
 9107 3404 40E0      		ldi r20,lo8(0)
 9108 3406 50E0      		ldi r21,hi8(0)
 9109 3408 60E0      		ldi r22,hlo8(0)
 9110 340a 70E0      		ldi r23,hhi8(0)
 9111 340c 0E94 0000 		call create_chain
 9112               	.LVL754:
 9113 3410 EB81      		ldd r30,Y+3
 9114 3412 FC81      		ldd r31,Y+4
 9115 3414 6687      		std Z+14,r22
 9116 3416 7787      		std Z+15,r23
 9117 3418 808B      		std Z+16,r24
 9118 341a 918B      		std Z+17,r25
 9119               	.LVL755:
 9120 341c 00C0      		rjmp .L581
 9121               	.LVL756:
 9122               	.L579:
 9123               	.LM879:
 9124 341e AB81      		ldd r26,Y+3
 9125 3420 BC81      		ldd r27,Y+4
 9126 3422 5296      		adiw r26,18
 9127 3424 4D91      		ld r20,X+
 9128 3426 5D91      		ld r21,X+
 9129 3428 6D91      		ld r22,X+
 9130 342a 7C91      		ld r23,X
 9131 342c 5597      		sbiw r26,18+3
 9132 342e CF01      		movw r24,r30
 9133 3430 0E94 0000 		call create_chain
 9134               	.LVL757:
 9135               	.L581:
 9136               	.LM880:
 9137 3434 6115      		cp r22,__zero_reg__
 9138 3436 7105      		cpc r23,__zero_reg__
 9139 3438 8105      		cpc r24,__zero_reg__
 9140 343a 9105      		cpc r25,__zero_reg__
 9141 343c 01F4      		brne .+2
 9142 343e 00C0      		rjmp .L582
 9143               	.L580:
 9144               	.LM881:
 9145 3440 6130      		cpi r22,lo8(1)
 9146 3442 7105      		cpc r23,__zero_reg__
 9147 3444 8105      		cpc r24,__zero_reg__
 9148 3446 9105      		cpc r25,__zero_reg__
 9149 3448 01F4      		brne .L583
 9150 344a EB81      		ldd r30,Y+3
 9151 344c FC81      		ldd r31,Y+4
 9152 344e 8481      		ldd r24,Z+4
 9153 3450 8068      		ori r24,lo8(-128)
 9154 3452 8483      		std Z+4,r24
 9155               	.LVL758:
 9156               	.L603:
 9157 3454 32E0      		ldi r19,lo8(2)
 9158 3456 632E      		mov r6,r19
 9159 3458 00C0      		rjmp .L572
 9160               	.LVL759:
 9161               	.L583:
 9162               	.LM882:
 9163 345a 6F3F      		cpi r22,lo8(-1)
 9164 345c FFEF      		ldi r31,hi8(-1)
 9165 345e 7F07      		cpc r23,r31
 9166 3460 FFEF      		ldi r31,hlo8(-1)
 9167 3462 8F07      		cpc r24,r31
 9168 3464 FFEF      		ldi r31,hhi8(-1)
 9169 3466 9F07      		cpc r25,r31
 9170 3468 01F4      		brne .L584
 9171 346a AB81      		ldd r26,Y+3
 9172 346c BC81      		ldd r27,Y+4
 9173 346e 1496      		adiw r26,4
 9174 3470 8C91      		ld r24,X
 9175 3472 1497      		sbiw r26,4
 9176 3474 8068      		ori r24,lo8(-128)
 9177 3476 1496      		adiw r26,4
 9178 3478 8C93      		st X,r24
 9179 347a 00C0      		rjmp .L604
 9180               	.L584:
 9181               	.LM883:
 9182 347c EB81      		ldd r30,Y+3
 9183 347e FC81      		ldd r31,Y+4
 9184 3480 628B      		std Z+18,r22
 9185 3482 738B      		std Z+19,r23
 9186 3484 848B      		std Z+20,r24
 9187 3486 958B      		std Z+21,r25
 9188               	.LM884:
 9189 3488 1582      		std Z+5,__zero_reg__
 9190               	.LVL760:
 9191               	.L578:
 9192               	.LM885:
 9193 348a AB81      		ldd r26,Y+3
 9194 348c BC81      		ldd r27,Y+4
 9195 348e 1496      		adiw r26,4
 9196 3490 8C91      		ld r24,X
 9197 3492 1497      		sbiw r26,4
 9198 3494 86FF      		sbrs r24,6
 9199 3496 00C0      		rjmp .L585
 9200               	.LM886:
 9201 3498 ED91      		ld r30,X+
 9202 349a FC91      		ld r31,X
 9203 349c 1197      		sbiw r26,1
 9204 349e 5696      		adiw r26,22
 9205 34a0 2D91      		ld r18,X+
 9206 34a2 3D91      		ld r19,X+
 9207 34a4 4D91      		ld r20,X+
 9208 34a6 5C91      		ld r21,X
 9209 34a8 5997      		sbiw r26,22+3
 9210 34aa 8181      		ldd r24,Z+1
 9211 34ac B101      		movw r22,r2
 9212               	.LVL761:
 9213 34ae 01E0      		ldi r16,lo8(1)
 9214               	.LVL762:
 9215 34b0 0E94 0000 		call disk_write
 9216 34b4 EB81      		ldd r30,Y+3
 9217 34b6 FC81      		ldd r31,Y+4
 9218 34b8 9481      		ldd r25,Z+4
 9219 34ba 8823      		tst r24
 9220 34bc 01F0      		breq .L586
 9221               	.LM887:
 9222 34be 9068      		ori r25,lo8(-128)
 9223 34c0 9483      		std Z+4,r25
 9224 34c2 00C0      		rjmp .L604
 9225               	.L586:
 9226               	.LM888:
 9227 34c4 9F7B      		andi r25,lo8(-65)
 9228 34c6 AB81      		ldd r26,Y+3
 9229 34c8 BC81      		ldd r27,Y+4
 9230 34ca 1496      		adiw r26,4
 9231 34cc 9C93      		st X,r25
 9232               	.LVL763:
 9233               	.L585:
 9234               	.LM889:
 9235 34ce EB81      		ldd r30,Y+3
 9236 34d0 FC81      		ldd r31,Y+4
 9237 34d2 0081      		ld r16,Z
 9238 34d4 1181      		ldd r17,Z+1
 9239               	.LVL764:
 9240               	.LBB604:
 9241               	.LBB605:
 9242               	.LM890:
 9243 34d6 2289      		ldd r18,Z+18
 9244 34d8 3389      		ldd r19,Z+19
 9245 34da 4489      		ldd r20,Z+20
 9246 34dc 5589      		ldd r21,Z+21
 9247               	.LVL765:
 9248 34de 2250      		subi r18,lo8(-(-2))
 9249 34e0 3040      		sbci r19,hi8(-(-2))
 9250 34e2 4040      		sbci r20,hlo8(-(-2))
 9251 34e4 5040      		sbci r21,hhi8(-(-2))
 9252               	.LM891:
 9253 34e6 F801      		movw r30,r16
 9254 34e8 828D      		ldd r24,Z+26
 9255 34ea 938D      		ldd r25,Z+27
 9256 34ec A48D      		ldd r26,Z+28
 9257 34ee B58D      		ldd r27,Z+29
 9258 34f0 0297      		sbiw r24,2
 9259 34f2 A109      		sbc r26,__zero_reg__
 9260 34f4 B109      		sbc r27,__zero_reg__
 9261 34f6 2817      		cp r18,r24
 9262 34f8 3907      		cpc r19,r25
 9263 34fa 4A07      		cpc r20,r26
 9264 34fc 5B07      		cpc r21,r27
 9265 34fe 00F4      		brsh .L587
 9266               	.LM892:
 9267 3500 7280      		ldd r7,Z+2
 9268 3502 672D      		mov r22,r7
 9269               	.LVL766:
 9270 3504 70E0      		ldi r23,lo8(0)
 9271 3506 80E0      		ldi r24,lo8(0)
 9272 3508 90E0      		ldi r25,hi8(0)
 9273 350a 0E94 0000 		call __mulsi3
 9274               	.LVL767:
 9275 350e 9B01      		movw r18,r22
 9276 3510 AC01      		movw r20,r24
 9277               	.LVL768:
 9278 3512 F801      		movw r30,r16
 9279 3514 86A1      		ldd r24,Z+38
 9280 3516 97A1      		ldd r25,Z+39
 9281 3518 A0A5      		ldd r26,Z+40
 9282 351a B1A5      		ldd r27,Z+41
 9283 351c 280F      		add r18,r24
 9284 351e 391F      		adc r19,r25
 9285 3520 4A1F      		adc r20,r26
 9286 3522 5B1F      		adc r21,r27
 9287               	.LBE605:
 9288               	.LBE604:
 9289               	.LM893:
 9290 3524 2115      		cp r18,__zero_reg__
 9291 3526 3105      		cpc r19,__zero_reg__
 9292 3528 4105      		cpc r20,__zero_reg__
 9293 352a 5105      		cpc r21,__zero_reg__
 9294 352c 01F4      		brne .L588
 9295               	.LVL769:
 9296               	.L587:
 9297 352e AB81      		ldd r26,Y+3
 9298 3530 BC81      		ldd r27,Y+4
 9299 3532 1496      		adiw r26,4
 9300 3534 8C91      		ld r24,X
 9301 3536 1497      		sbiw r26,4
 9302 3538 8068      		ori r24,lo8(-128)
 9303 353a 1496      		adiw r26,4
 9304 353c 8C93      		st X,r24
 9305 353e 00C0      		rjmp .L603
 9306               	.LVL770:
 9307               	.L588:
 9308               	.LM894:
 9309 3540 EB81      		ldd r30,Y+3
 9310 3542 FC81      		ldd r31,Y+4
 9311 3544 8581      		ldd r24,Z+5
 9312 3546 6901      		movw r12,r18
 9313 3548 7A01      		movw r14,r20
 9314 354a C80E      		add r12,r24
 9315 354c D11C      		adc r13,__zero_reg__
 9316 354e E11C      		adc r14,__zero_reg__
 9317 3550 F11C      		adc r15,__zero_reg__
 9318               	.LVL771:
 9319               	.LM895:
 9320 3552 5401      		movw r10,r8
 9321 3554 AB2C      		mov r10,r11
 9322 3556 BB24      		clr r11
 9323 3558 A694      		lsr r10
 9324               	.LM896:
 9325 355a A114      		cp r10,__zero_reg__
 9326 355c B104      		cpc r11,__zero_reg__
 9327 355e 01F4      		brne .+2
 9328 3560 00C0      		rjmp .L589
 9329               	.LM897:
 9330 3562 282F      		mov r18,r24
 9331 3564 30E0      		ldi r19,lo8(0)
 9332 3566 C501      		movw r24,r10
 9333 3568 820F      		add r24,r18
 9334 356a 931F      		adc r25,r19
 9335 356c 672D      		mov r22,r7
 9336 356e 70E0      		ldi r23,lo8(0)
 9337 3570 6817      		cp r22,r24
 9338 3572 7907      		cpc r23,r25
 9339 3574 00F4      		brsh .L590
 9340               	.LM898:
 9341 3576 5B01      		movw r10,r22
 9342 3578 A21A      		sub r10,r18
 9343 357a B30A      		sbc r11,r19
 9344               	.L590:
 9345               	.LM899:
 9346 357c D801      		movw r26,r16
 9347 357e 1196      		adiw r26,1
 9348 3580 8C91      		ld r24,X
 9349 3582 B201      		movw r22,r4
 9350 3584 A701      		movw r20,r14
 9351 3586 9601      		movw r18,r12
 9352 3588 0A2D      		mov r16,r10
 9353 358a 0E94 0000 		call disk_write
 9354 358e 8823      		tst r24
 9355 3590 01F0      		breq .+2
 9356 3592 00C0      		rjmp .L605
 9357               	.L591:
 9358               	.LM900:
 9359 3594 AB81      		ldd r26,Y+3
 9360 3596 BC81      		ldd r27,Y+4
 9361 3598 5696      		adiw r26,22
 9362 359a 2D91      		ld r18,X+
 9363 359c 3D91      		ld r19,X+
 9364 359e 4D91      		ld r20,X+
 9365 35a0 5C91      		ld r21,X
 9366 35a2 5997      		sbiw r26,22+3
 9367 35a4 2C19      		sub r18,r12
 9368 35a6 3D09      		sbc r19,r13
 9369 35a8 4E09      		sbc r20,r14
 9370 35aa 5F09      		sbc r21,r15
 9371 35ac C501      		movw r24,r10
 9372 35ae A0E0      		ldi r26,lo8(0)
 9373 35b0 B0E0      		ldi r27,hi8(0)
 9374               	.LVL772:
 9375 35b2 2817      		cp r18,r24
 9376 35b4 3907      		cpc r19,r25
 9377 35b6 4A07      		cpc r20,r26
 9378 35b8 5B07      		cpc r21,r27
 9379 35ba 00F4      		brsh .L592
 9380               	.LVL773:
 9381               	.LBB606:
 9382               	.LBB607:
 9383               	.LM901:
 9384 35bc 99E0      		ldi r25,9
 9385 35be 220F      	1:	lsl r18
 9386 35c0 331F      		rol r19
 9387 35c2 441F      		rol r20
 9388 35c4 551F      		rol r21
 9389 35c6 9A95      		dec r25
 9390 35c8 01F4      		brne 1b
 9391 35ca F201      		movw r30,r4
 9392               	.LVL774:
 9393 35cc E20F      		add r30,r18
 9394 35ce F31F      		adc r31,r19
 9395 35d0 D101      		movw r26,r2
 9396               	.LVL775:
 9397               	.LM902:
 9398 35d2 9F01      		movw r18,r30
 9399 35d4 2050      		subi r18,lo8(-(512))
 9400 35d6 3E4F      		sbci r19,hi8(-(512))
 9401 35d8 00C0      		rjmp .L593
 9402               	.LVL776:
 9403               	.L594:
 9404 35da 8191      		ld r24,Z+
 9405               	.LVL777:
 9406 35dc 8D93      		st X+,r24
 9407               	.LVL778:
 9408               	.L593:
 9409 35de E217      		cp r30,r18
 9410 35e0 F307      		cpc r31,r19
 9411 35e2 01F4      		brne .L594
 9412               	.LVL779:
 9413               	.LBE607:
 9414               	.LBE606:
 9415               	.LM903:
 9416 35e4 EB81      		ldd r30,Y+3
 9417 35e6 FC81      		ldd r31,Y+4
 9418               	.LVL780:
 9419 35e8 8481      		ldd r24,Z+4
 9420               	.LVL781:
 9421 35ea 8F7B      		andi r24,lo8(-65)
 9422 35ec 8483      		std Z+4,r24
 9423               	.LVL782:
 9424               	.L592:
 9425               	.LM904:
 9426 35ee AB81      		ldd r26,Y+3
 9427 35f0 BC81      		ldd r27,Y+4
 9428               	.LVL783:
 9429 35f2 1596      		adiw r26,5
 9430 35f4 8C91      		ld r24,X
 9431 35f6 1597      		sbiw r26,5
 9432 35f8 8A0D      		add r24,r10
 9433 35fa 1596      		adiw r26,5
 9434 35fc 8C93      		st X,r24
 9435               	.LM905:
 9436 35fe B501      		movw r22,r10
 9437               	.LVL784:
 9438 3600 762F      		mov r23,r22
 9439 3602 6627      		clr r22
 9440 3604 770F      		lsl r23
 9441 3606 00C0      		rjmp .L595
 9442               	.LVL785:
 9443               	.L589:
 9444               	.LM906:
 9445 3608 EB81      		ldd r30,Y+3
 9446 360a FC81      		ldd r31,Y+4
 9447 360c 8689      		ldd r24,Z+22
 9448 360e 9789      		ldd r25,Z+23
 9449 3610 A08D      		ldd r26,Z+24
 9450 3612 B18D      		ldd r27,Z+25
 9451 3614 8C15      		cp r24,r12
 9452 3616 9D05      		cpc r25,r13
 9453 3618 AE05      		cpc r26,r14
 9454 361a BF05      		cpc r27,r15
 9455 361c 01F0      		breq .L596
 9456               	.LM907:
 9457 361e 2681      		ldd r18,Z+6
 9458 3620 3781      		ldd r19,Z+7
 9459 3622 4085      		ldd r20,Z+8
 9460 3624 5185      		ldd r21,Z+9
 9461 3626 8285      		ldd r24,Z+10
 9462 3628 9385      		ldd r25,Z+11
 9463 362a A485      		ldd r26,Z+12
 9464 362c B585      		ldd r27,Z+13
 9465 362e 2817      		cp r18,r24
 9466 3630 3907      		cpc r19,r25
 9467 3632 4A07      		cpc r20,r26
 9468 3634 5B07      		cpc r21,r27
 9469 3636 00F4      		brsh .L596
 9470 3638 D801      		movw r26,r16
 9471 363a 1196      		adiw r26,1
 9472 363c 8C91      		ld r24,X
 9473 363e B101      		movw r22,r2
 9474 3640 A701      		movw r20,r14
 9475 3642 9601      		movw r18,r12
 9476 3644 01E0      		ldi r16,lo8(1)
 9477 3646 0E94 0000 		call disk_read
 9478 364a 8823      		tst r24
 9479 364c 01F0      		breq .L596
 9480               	.L605:
 9481               	.LM908:
 9482 364e EB81      		ldd r30,Y+3
 9483 3650 FC81      		ldd r31,Y+4
 9484 3652 8481      		ldd r24,Z+4
 9485 3654 8068      		ori r24,lo8(-128)
 9486 3656 8483      		std Z+4,r24
 9487               	.LVL786:
 9488               	.L604:
 9489 3658 6624      		clr r6
 9490 365a 6394      		inc r6
 9491 365c 00C0      		rjmp .L572
 9492               	.LVL787:
 9493               	.L596:
 9494               	.LM909:
 9495 365e AB81      		ldd r26,Y+3
 9496 3660 BC81      		ldd r27,Y+4
 9497 3662 5696      		adiw r26,22
 9498 3664 CD92      		st X+,r12
 9499 3666 DD92      		st X+,r13
 9500 3668 ED92      		st X+,r14
 9501 366a FC92      		st X,r15
 9502 366c 5997      		sbiw r26,22+3
 9503               	.LM910:
 9504 366e 1596      		adiw r26,5
 9505 3670 8C91      		ld r24,X
 9506 3672 1597      		sbiw r26,5
 9507 3674 8F5F      		subi r24,lo8(-(1))
 9508 3676 1596      		adiw r26,5
 9509 3678 8C93      		st X,r24
 9510               	.LVL788:
 9511               	.L577:
 9512               	.LM911:
 9513 367a EB81      		ldd r30,Y+3
 9514 367c FC81      		ldd r31,Y+4
 9515 367e 2681      		ldd r18,Z+6
 9516 3680 3781      		ldd r19,Z+7
 9517 3682 4085      		ldd r20,Z+8
 9518 3684 5185      		ldd r21,Z+9
 9519 3686 C901      		movw r24,r18
 9520 3688 9170      		andi r25,hi8(511)
 9521 368a 60E0      		ldi r22,lo8(512)
 9522 368c 72E0      		ldi r23,hi8(512)
 9523               	.LVL789:
 9524 368e 681B      		sub r22,r24
 9525 3690 790B      		sbc r23,r25
 9526 3692 CB01      		movw r24,r22
 9527               	.LVL790:
 9528 3694 B401      		movw r22,r8
 9529               	.LVL791:
 9530 3696 8815      		cp r24,r8
 9531 3698 9905      		cpc r25,r9
 9532 369a 00F4      		brsh .L597
 9533               	.LVL792:
 9534 369c BC01      		movw r22,r24
 9535               	.L597:
 9536               	.LM912:
 9537 369e 8B01      		movw r16,r22
 9538               	.LVL793:
 9539               	.LBB608:
 9540               	.LBB609:
 9541               	.LM913:
 9542 36a0 F901      		movw r30,r18
 9543               	.LVL794:
 9544 36a2 F170      		andi r31,hi8(511)
 9545 36a4 B096      		adiw r30,32
 9546 36a6 8B81      		ldd r24,Y+3
 9547 36a8 9C81      		ldd r25,Y+4
 9548               	.LVL795:
 9549 36aa E80F      		add r30,r24
 9550 36ac F91F      		adc r31,r25
 9551 36ae 9201      		movw r18,r4
 9552 36b0 00C0      		rjmp .L598
 9553               	.LVL796:
 9554               	.L599:
 9555               	.LM914:
 9556 36b2 D901      		movw r26,r18
 9557 36b4 8D91      		ld r24,X+
 9558 36b6 9D01      		movw r18,r26
 9559 36b8 8193      		st Z+,r24
 9560               	.LVL797:
 9561               	.L598:
 9562 36ba 0150      		subi r16,lo8(-(-1))
 9563 36bc 1040      		sbci r17,hi8(-(-1))
 9564 36be BFEF      		ldi r27,hi8(-1)
 9565 36c0 0F3F      		cpi r16,lo8(-1)
 9566 36c2 1B07      		cpc r17,r27
 9567 36c4 01F4      		brne .L599
 9568               	.LBE609:
 9569               	.LBE608:
 9570               	.LM915:
 9571 36c6 EB81      		ldd r30,Y+3
 9572 36c8 FC81      		ldd r31,Y+4
 9573               	.LVL798:
 9574 36ca 8481      		ldd r24,Z+4
 9575 36cc 8064      		ori r24,lo8(64)
 9576 36ce 8483      		std Z+4,r24
 9577               	.LVL799:
 9578               	.L595:
 9579               	.LM916:
 9580 36d0 460E      		add r4,r22
 9581 36d2 571E      		adc r5,r23
 9582 36d4 CB01      		movw r24,r22
 9583 36d6 A0E0      		ldi r26,lo8(0)
 9584 36d8 B0E0      		ldi r27,hi8(0)
 9585               	.LVL800:
 9586 36da EB81      		ldd r30,Y+3
 9587 36dc FC81      		ldd r31,Y+4
 9588 36de 2681      		ldd r18,Z+6
 9589 36e0 3781      		ldd r19,Z+7
 9590 36e2 4085      		ldd r20,Z+8
 9591 36e4 5185      		ldd r21,Z+9
 9592 36e6 280F      		add r18,r24
 9593 36e8 391F      		adc r19,r25
 9594 36ea 4A1F      		adc r20,r26
 9595 36ec 5B1F      		adc r21,r27
 9596 36ee 2683      		std Z+6,r18
 9597 36f0 3783      		std Z+7,r19
 9598 36f2 4087      		std Z+8,r20
 9599 36f4 5187      		std Z+9,r21
 9600 36f6 E981      		ldd r30,Y+1
 9601 36f8 FA81      		ldd r31,Y+2
 9602 36fa 8081      		ld r24,Z
 9603 36fc 9181      		ldd r25,Z+1
 9604 36fe 860F      		add r24,r22
 9605 3700 971F      		adc r25,r23
 9606 3702 8083      		st Z,r24
 9607 3704 9183      		std Z+1,r25
 9608 3706 861A      		sub r8,r22
 9609 3708 970A      		sbc r9,r23
 9610               	.LVL801:
 9611               	.L576:
 9612               	.LM917:
 9613 370a 8114      		cp r8,__zero_reg__
 9614 370c 9104      		cpc r9,__zero_reg__
 9615 370e 01F0      		breq .+2
 9616 3710 00C0      		rjmp .L600
 9617               	.LVL802:
 9618               	.L582:
 9619               	.LM918:
 9620 3712 AB81      		ldd r26,Y+3
 9621 3714 BC81      		ldd r27,Y+4
 9622               	.LVL803:
 9623 3716 1696      		adiw r26,6
 9624 3718 2D91      		ld r18,X+
 9625 371a 3D91      		ld r19,X+
 9626 371c 4D91      		ld r20,X+
 9627 371e 5C91      		ld r21,X
 9628 3720 1997      		sbiw r26,6+3
 9629 3722 1A96      		adiw r26,10
 9630 3724 8D91      		ld r24,X+
 9631 3726 9D91      		ld r25,X+
 9632 3728 0D90      		ld __tmp_reg__,X+
 9633 372a BC91      		ld r27,X
 9634 372c A02D      		mov r26,__tmp_reg__
 9635 372e 8217      		cp r24,r18
 9636 3730 9307      		cpc r25,r19
 9637 3732 A407      		cpc r26,r20
 9638 3734 B507      		cpc r27,r21
 9639 3736 00F4      		brsh .L601
 9640 3738 EB81      		ldd r30,Y+3
 9641 373a FC81      		ldd r31,Y+4
 9642 373c 2287      		std Z+10,r18
 9643 373e 3387      		std Z+11,r19
 9644 3740 4487      		std Z+12,r20
 9645 3742 5587      		std Z+13,r21
 9646               	.L601:
 9647               	.LM919:
 9648 3744 AB81      		ldd r26,Y+3
 9649 3746 BC81      		ldd r27,Y+4
 9650 3748 1496      		adiw r26,4
 9651 374a 8C91      		ld r24,X
 9652 374c 1497      		sbiw r26,4
 9653 374e 8062      		ori r24,lo8(32)
 9654 3750 1496      		adiw r26,4
 9655 3752 8C93      		st X,r24
 9656               	.LVL804:
 9657               	.L572:
 9658               	.LM920:
 9659 3754 862D      		mov r24,r6
 9660               	/* epilogue start */
 9661 3756 2496      		adiw r28,4
 9662 3758 CDBF      		out __SP_L__,r28
 9663 375a DEBF      		out __SP_H__,r29
 9664 375c CF91      		pop r28
 9665 375e DF91      		pop r29
 9666 3760 1F91      		pop r17
 9667               	.LVL805:
 9668 3762 0F91      		pop r16
 9669               	.LVL806:
 9670 3764 FF90      		pop r15
 9671 3766 EF90      		pop r14
 9672 3768 DF90      		pop r13
 9673 376a CF90      		pop r12
 9674               	.LVL807:
 9675 376c BF90      		pop r11
 9676 376e AF90      		pop r10
 9677               	.LVL808:
 9678 3770 9F90      		pop r9
 9679 3772 8F90      		pop r8
 9680               	.LVL809:
 9681 3774 7F90      		pop r7
 9682 3776 6F90      		pop r6
 9683               	.LVL810:
 9684 3778 5F90      		pop r5
 9685 377a 4F90      		pop r4
 9686               	.LVL811:
 9687 377c 3F90      		pop r3
 9688 377e 2F90      		pop r2
 9689               	.LVL812:
 9690 3780 0895      		ret
 9691               	.LFE68:
 9693               	.global	f_sync
 9695               	f_sync:
 9696               	.LFB69:
 9697               	.LM921:
 9698               	.LVL813:
 9699 3782 0F93      		push r16
 9700 3784 1F93      		push r17
 9701 3786 CF93      		push r28
 9702 3788 DF93      		push r29
 9703               	/* prologue: function */
 9704               	/* frame size = 0 */
 9705 378a EC01      		movw r28,r24
 9706               	.LM922:
 9707 378c 6A81      		ldd r22,Y+2
 9708 378e 7B81      		ldd r23,Y+3
 9709 3790 8881      		ld r24,Y
 9710 3792 9981      		ldd r25,Y+1
 9711               	.LVL814:
 9712 3794 0E94 0000 		call validate
 9713 3798 982F      		mov r25,r24
 9714               	.LVL815:
 9715               	.LM923:
 9716 379a 8823      		tst r24
 9717 379c 01F0      		breq .+2
 9718 379e 00C0      		rjmp .L607
 9719               	.LVL816:
 9720               	.LM924:
 9721 37a0 8C81      		ldd r24,Y+4
 9722               	.LVL817:
 9723 37a2 85FF      		sbrs r24,5
 9724 37a4 00C0      		rjmp .L607
 9725               	.LM925:
 9726 37a6 86FF      		sbrs r24,6
 9727 37a8 00C0      		rjmp .L608
 9728               	.LM926:
 9729 37aa E881      		ld r30,Y
 9730 37ac F981      		ldd r31,Y+1
 9731 37ae BE01      		movw r22,r28
 9732 37b0 605E      		subi r22,lo8(-(32))
 9733 37b2 7F4F      		sbci r23,hi8(-(32))
 9734 37b4 2E89      		ldd r18,Y+22
 9735 37b6 3F89      		ldd r19,Y+23
 9736 37b8 488D      		ldd r20,Y+24
 9737 37ba 598D      		ldd r21,Y+25
 9738 37bc 8181      		ldd r24,Z+1
 9739 37be 01E0      		ldi r16,lo8(1)
 9740 37c0 0E94 0000 		call disk_write
 9741               	.LVL818:
 9742 37c4 8823      		tst r24
 9743 37c6 01F0      		breq .L609
 9744 37c8 91E0      		ldi r25,lo8(1)
 9745               	.LVL819:
 9746 37ca 00C0      		rjmp .L607
 9747               	.LVL820:
 9748               	.L609:
 9749               	.LM927:
 9750 37cc 8C81      		ldd r24,Y+4
 9751 37ce 8F7B      		andi r24,lo8(-65)
 9752 37d0 8C83      		std Y+4,r24
 9753               	.LVL821:
 9754               	.L608:
 9755               	.LM928:
 9756 37d2 4A8D      		ldd r20,Y+26
 9757 37d4 5B8D      		ldd r21,Y+27
 9758 37d6 6C8D      		ldd r22,Y+28
 9759 37d8 7D8D      		ldd r23,Y+29
 9760 37da 8881      		ld r24,Y
 9761 37dc 9981      		ldd r25,Y+1
 9762 37de 0E94 0000 		call move_window
 9763               	.LVL822:
 9764 37e2 982F      		mov r25,r24
 9765               	.LVL823:
 9766               	.LM929:
 9767 37e4 8823      		tst r24
 9768 37e6 01F0      		breq .+2
 9769 37e8 00C0      		rjmp .L607
 9770               	.LVL824:
 9771               	.LM930:
 9772 37ea 0E8D      		ldd r16,Y+30
 9773 37ec 1F8D      		ldd r17,Y+31
 9774               	.LVL825:
 9775               	.LM931:
 9776 37ee F801      		movw r30,r16
 9777 37f0 8385      		ldd r24,Z+11
 9778               	.LVL826:
 9779 37f2 8062      		ori r24,lo8(32)
 9780 37f4 8387      		std Z+11,r24
 9781               	.LM932:
 9782 37f6 8A85      		ldd r24,Y+10
 9783 37f8 848F      		std Z+28,r24
 9784 37fa 8B85      		ldd r24,Y+11
 9785 37fc 858F      		std Z+29,r24
 9786 37fe 8A85      		ldd r24,Y+10
 9787 3800 9B85      		ldd r25,Y+11
 9788 3802 AC85      		ldd r26,Y+12
 9789 3804 BD85      		ldd r27,Y+13
 9790 3806 CD01      		movw r24,r26
 9791 3808 AA27      		clr r26
 9792 380a BB27      		clr r27
 9793 380c 868F      		std Z+30,r24
 9794 380e 8A85      		ldd r24,Y+10
 9795 3810 9B85      		ldd r25,Y+11
 9796 3812 AC85      		ldd r26,Y+12
 9797 3814 BD85      		ldd r27,Y+13
 9798 3816 8B2F      		mov r24,r27
 9799 3818 9927      		clr r25
 9800 381a AA27      		clr r26
 9801 381c BB27      		clr r27
 9802 381e 878F      		std Z+31,r24
 9803               	.LM933:
 9804 3820 8E85      		ldd r24,Y+14
 9805 3822 828F      		std Z+26,r24
 9806 3824 8F85      		ldd r24,Y+15
 9807 3826 838F      		std Z+27,r24
 9808               	.LM934:
 9809 3828 8E85      		ldd r24,Y+14
 9810 382a 9F85      		ldd r25,Y+15
 9811 382c A889      		ldd r26,Y+16
 9812 382e B989      		ldd r27,Y+17
 9813 3830 CD01      		movw r24,r26
 9814 3832 AA27      		clr r26
 9815 3834 BB27      		clr r27
 9816 3836 848B      		std Z+20,r24
 9817 3838 8E85      		ldd r24,Y+14
 9818 383a 9F85      		ldd r25,Y+15
 9819 383c A889      		ldd r26,Y+16
 9820 383e B989      		ldd r27,Y+17
 9821 3840 CD01      		movw r24,r26
 9822 3842 AA27      		clr r26
 9823 3844 BB27      		clr r27
 9824 3846 892F      		mov r24,r25
 9825 3848 9927      		clr r25
 9826 384a 858B      		std Z+21,r24
 9827               	.LM935:
 9828 384c 0E94 0000 		call get_fattime
 9829               	.LVL827:
 9830               	.LM936:
 9831 3850 F801      		movw r30,r16
 9832 3852 668B      		std Z+22,r22
 9833               	.LVL828:
 9834 3854 272F      		mov r18,r23
 9835 3856 3327      		clr r19
 9836 3858 278B      		std Z+23,r18
 9837 385a 9C01      		movw r18,r24
 9838 385c 4427      		clr r20
 9839 385e 5527      		clr r21
 9840 3860 208F      		std Z+24,r18
 9841 3862 692F      		mov r22,r25
 9842 3864 7727      		clr r23
 9843 3866 8827      		clr r24
 9844 3868 9927      		clr r25
 9845               	.LVL829:
 9846 386a 618F      		std Z+25,r22
 9847               	.LM937:
 9848 386c 8C81      		ldd r24,Y+4
 9849 386e 8F7D      		andi r24,lo8(-33)
 9850 3870 8C83      		std Y+4,r24
 9851               	.LM938:
 9852 3872 E881      		ld r30,Y
 9853 3874 F981      		ldd r31,Y+1
 9854 3876 81E0      		ldi r24,lo8(1)
 9855 3878 8483      		std Z+4,r24
 9856               	.LM939:
 9857 387a 8881      		ld r24,Y
 9858 387c 9981      		ldd r25,Y+1
 9859 387e 0E94 0000 		call sync
 9860 3882 982F      		mov r25,r24
 9861               	.LVL830:
 9862               	.L607:
 9863               	.LM940:
 9864 3884 892F      		mov r24,r25
 9865               	/* epilogue start */
 9866 3886 DF91      		pop r29
 9867 3888 CF91      		pop r28
 9868               	.LVL831:
 9869 388a 1F91      		pop r17
 9870 388c 0F91      		pop r16
 9871               	.LVL832:
 9872 388e 0895      		ret
 9873               	.LFE69:
 9875               	.global	f_close
 9877               	f_close:
 9878               	.LFB70:
 9879               	.LM941:
 9880               	.LVL833:
 9881 3890 CF93      		push r28
 9882 3892 DF93      		push r29
 9883               	/* prologue: function */
 9884               	/* frame size = 0 */
 9885 3894 EC01      		movw r28,r24
 9886               	.LM942:
 9887 3896 0E94 0000 		call f_sync
 9888               	.LVL834:
 9889               	.LM943:
 9890 389a 8823      		tst r24
 9891               	.LVL835:
 9892 389c 01F4      		brne .L612
 9893 389e 1882      		st Y,__zero_reg__
 9894 38a0 1982      		std Y+1,__zero_reg__
 9895               	.L612:
 9896               	.LVL836:
 9897               	/* epilogue start */
 9898               	.LM944:
 9899 38a2 DF91      		pop r29
 9900 38a4 CF91      		pop r28
 9901               	.LVL837:
 9902 38a6 0895      		ret
 9903               	.LFE70:
 9905               	.global	f_lseek
 9907               	f_lseek:
 9908               	.LFB71:
 9909               	.LM945:
 9910               	.LVL838:
 9911 38a8 2F92      		push r2
 9912 38aa 3F92      		push r3
 9913 38ac 4F92      		push r4
 9914 38ae 5F92      		push r5
 9915 38b0 6F92      		push r6
 9916 38b2 7F92      		push r7
 9917 38b4 8F92      		push r8
 9918 38b6 9F92      		push r9
 9919 38b8 AF92      		push r10
 9920 38ba BF92      		push r11
 9921 38bc CF92      		push r12
 9922 38be DF92      		push r13
 9923 38c0 0F93      		push r16
 9924 38c2 1F93      		push r17
 9925 38c4 DF93      		push r29
 9926 38c6 CF93      		push r28
 9927 38c8 CDB7      		in r28,__SP_L__
 9928 38ca DEB7      		in r29,__SP_H__
 9929 38cc 2897      		sbiw r28,8
 9930 38ce CDBF      		out __SP_L__,r28
 9931 38d0 DEBF      		out __SP_H__,r29
 9932               	/* prologue: function */
 9933               	/* frame size = 8 */
 9934 38d2 8F83      		std Y+7,r24
 9935 38d4 9887      		std Y+8,r25
 9936 38d6 3A01      		movw r6,r20
 9937 38d8 4B01      		movw r8,r22
 9938               	.LM946:
 9939 38da DC01      		movw r26,r24
 9940 38dc 1296      		adiw r26,2
 9941 38de 6D91      		ld r22,X+
 9942 38e0 7C91      		ld r23,X
 9943 38e2 1397      		sbiw r26,2+1
 9944 38e4 8D91      		ld r24,X+
 9945 38e6 9C91      		ld r25,X
 9946               	.LVL839:
 9947 38e8 0E94 0000 		call validate
 9948               	.LVL840:
 9949 38ec 182F      		mov r17,r24
 9950               	.LVL841:
 9951               	.LM947:
 9952 38ee 8823      		tst r24
 9953 38f0 01F0      		breq .+2
 9954 38f2 00C0      		rjmp .L615
 9955               	.LVL842:
 9956               	.LM948:
 9957 38f4 EF81      		ldd r30,Y+7
 9958 38f6 F885      		ldd r31,Y+8
 9959 38f8 8481      		ldd r24,Z+4
 9960               	.LVL843:
 9961 38fa 87FD      		sbrc r24,7
 9962 38fc 00C0      		rjmp .L642
 9963               	.L616:
 9964               	.LM949:
 9965 38fe AF81      		ldd r26,Y+7
 9966 3900 B885      		ldd r27,Y+8
 9967 3902 1A96      		adiw r26,10
 9968 3904 AD90      		ld r10,X+
 9969 3906 BD90      		ld r11,X+
 9970 3908 CD90      		ld r12,X+
 9971 390a DC90      		ld r13,X
 9972 390c 1D97      		sbiw r26,10+3
 9973               	.LVL844:
 9974 390e A614      		cp r10,r6
 9975 3910 B704      		cpc r11,r7
 9976 3912 C804      		cpc r12,r8
 9977 3914 D904      		cpc r13,r9
 9978 3916 00F4      		brsh .L617
 9979 3918 81FF      		sbrs r24,1
 9980 391a 00C0      		rjmp .L618
 9981               	.L617:
 9982 391c 6401      		movw r12,r8
 9983 391e 5301      		movw r10,r6
 9984               	.L618:
 9985               	.LM950:
 9986 3920 EF81      		ldd r30,Y+7
 9987 3922 F885      		ldd r31,Y+8
 9988 3924 2681      		ldd r18,Z+6
 9989 3926 3781      		ldd r19,Z+7
 9990 3928 4085      		ldd r20,Z+8
 9991 392a 5185      		ldd r21,Z+9
 9992               	.LVL845:
 9993               	.LM951:
 9994 392c 1682      		std Z+6,__zero_reg__
 9995 392e 1782      		std Z+7,__zero_reg__
 9996 3930 1086      		std Z+8,__zero_reg__
 9997 3932 1186      		std Z+9,__zero_reg__
 9998 3934 8FEF      		ldi r24,lo8(-1)
 9999 3936 8583      		std Z+5,r24
 10000               	.LM952:
 10001 3938 A114      		cp r10,__zero_reg__
 10002 393a B104      		cpc r11,__zero_reg__
 10003 393c C104      		cpc r12,__zero_reg__
 10004 393e D104      		cpc r13,__zero_reg__
 10005 3940 01F4      		brne .+2
 10006 3942 00C0      		rjmp .L619
 10007               	.LM953:
 10008 3944 0190      		ld __tmp_reg__,Z+
 10009 3946 F081      		ld r31,Z
 10010 3948 E02D      		mov r30,__tmp_reg__
 10011 394a E983      		std Y+1,r30
 10012 394c FA83      		std Y+2,r31
 10013 394e 8281      		ldd r24,Z+2
 10014 3950 682E      		mov r6,r24
 10015               	.LVL846:
 10016 3952 7724      		clr r7
 10017               	.LVL847:
 10018 3954 8824      		clr r8
 10019 3956 9924      		clr r9
 10020               	.LVL848:
 10021 3958 89E0      		ldi r24,9
 10022 395a 660C      	1:	lsl r6
 10023 395c 771C      		rol r7
 10024 395e 881C      		rol r8
 10025 3960 991C      		rol r9
 10026 3962 8A95      		dec r24
 10027 3964 01F4      		brne 1b
 10028               	.LVL849:
 10029               	.LM954:
 10030 3966 2115      		cp r18,__zero_reg__
 10031 3968 3105      		cpc r19,__zero_reg__
 10032 396a 4105      		cpc r20,__zero_reg__
 10033 396c 5105      		cpc r21,__zero_reg__
 10034 396e 01F0      		breq .L620
 10035 3970 1901      		movw r2,r18
 10036 3972 2A01      		movw r4,r20
 10037 3974 0894      		sec
 10038 3976 2108      		sbc r2,__zero_reg__
 10039 3978 3108      		sbc r3,__zero_reg__
 10040 397a 4108      		sbc r4,__zero_reg__
 10041 397c 5108      		sbc r5,__zero_reg__
 10042 397e C601      		movw r24,r12
 10043 3980 B501      		movw r22,r10
 10044 3982 6150      		subi r22,lo8(-(-1))
 10045 3984 7040      		sbci r23,hi8(-(-1))
 10046 3986 8040      		sbci r24,hlo8(-(-1))
 10047 3988 9040      		sbci r25,hhi8(-(-1))
 10048 398a A401      		movw r20,r8
 10049 398c 9301      		movw r18,r6
 10050               	.LVL850:
 10051 398e 0E94 0000 		call __udivmodsi4
 10052 3992 2B83      		std Y+3,r18
 10053 3994 3C83      		std Y+4,r19
 10054 3996 4D83      		std Y+5,r20
 10055 3998 5E83      		std Y+6,r21
 10056 399a C201      		movw r24,r4
 10057 399c B101      		movw r22,r2
 10058 399e A401      		movw r20,r8
 10059 39a0 9301      		movw r18,r6
 10060 39a2 0E94 0000 		call __udivmodsi4
 10061 39a6 8B81      		ldd r24,Y+3
 10062 39a8 9C81      		ldd r25,Y+4
 10063 39aa AD81      		ldd r26,Y+5
 10064 39ac BE81      		ldd r27,Y+6
 10065 39ae 8217      		cp r24,r18
 10066 39b0 9307      		cpc r25,r19
 10067 39b2 A407      		cpc r26,r20
 10068 39b4 B507      		cpc r27,r21
 10069 39b6 00F0      		brlo .L620
 10070               	.LM955:
 10071 39b8 8827      		clr r24
 10072 39ba 9927      		clr r25
 10073 39bc DC01      		movw r26,r24
 10074 39be 8619      		sub r24,r6
 10075 39c0 9709      		sbc r25,r7
 10076 39c2 A809      		sbc r26,r8
 10077 39c4 B909      		sbc r27,r9
 10078 39c6 8221      		and r24,r2
 10079 39c8 9321      		and r25,r3
 10080 39ca A421      		and r26,r4
 10081 39cc B521      		and r27,r5
 10082 39ce EF81      		ldd r30,Y+7
 10083 39d0 F885      		ldd r31,Y+8
 10084 39d2 8683      		std Z+6,r24
 10085 39d4 9783      		std Z+7,r25
 10086 39d6 A087      		std Z+8,r26
 10087 39d8 B187      		std Z+9,r27
 10088               	.LM956:
 10089 39da A81A      		sub r10,r24
 10090 39dc B90A      		sbc r11,r25
 10091 39de CA0A      		sbc r12,r26
 10092 39e0 DB0A      		sbc r13,r27
 10093               	.LM957:
 10094 39e2 4289      		ldd r20,Z+18
 10095 39e4 5389      		ldd r21,Z+19
 10096 39e6 6489      		ldd r22,Z+20
 10097 39e8 7589      		ldd r23,Z+21
 10098               	.LVL851:
 10099 39ea 00C0      		rjmp .L621
 10100               	.LVL852:
 10101               	.L620:
 10102               	.LM958:
 10103 39ec AF81      		ldd r26,Y+7
 10104 39ee B885      		ldd r27,Y+8
 10105 39f0 1E96      		adiw r26,14
 10106 39f2 4D91      		ld r20,X+
 10107 39f4 5D91      		ld r21,X+
 10108 39f6 6D91      		ld r22,X+
 10109 39f8 7C91      		ld r23,X
 10110 39fa 5197      		sbiw r26,14+3
 10111               	.LVL853:
 10112               	.LM959:
 10113 39fc 4115      		cp r20,__zero_reg__
 10114 39fe 5105      		cpc r21,__zero_reg__
 10115 3a00 6105      		cpc r22,__zero_reg__
 10116 3a02 7105      		cpc r23,__zero_reg__
 10117 3a04 01F4      		brne .L622
 10118               	.LM960:
 10119 3a06 8981      		ldd r24,Y+1
 10120 3a08 9A81      		ldd r25,Y+2
 10121 3a0a 40E0      		ldi r20,lo8(0)
 10122 3a0c 50E0      		ldi r21,hi8(0)
 10123 3a0e 60E0      		ldi r22,hlo8(0)
 10124 3a10 70E0      		ldi r23,hhi8(0)
 10125               	.LVL854:
 10126 3a12 0E94 0000 		call create_chain
 10127               	.LVL855:
 10128 3a16 AB01      		movw r20,r22
 10129 3a18 BC01      		movw r22,r24
 10130               	.LVL856:
 10131               	.LM961:
 10132 3a1a 4130      		cpi r20,lo8(1)
 10133 3a1c 5105      		cpc r21,__zero_reg__
 10134 3a1e 6105      		cpc r22,__zero_reg__
 10135 3a20 7105      		cpc r23,__zero_reg__
 10136 3a22 01F4      		brne .L623
 10137               	.L644:
 10138 3a24 EF81      		ldd r30,Y+7
 10139 3a26 F885      		ldd r31,Y+8
 10140 3a28 8481      		ldd r24,Z+4
 10141 3a2a 8068      		ori r24,lo8(-128)
 10142 3a2c 8483      		std Z+4,r24
 10143               	.LVL857:
 10144               	.L642:
 10145 3a2e 12E0      		ldi r17,lo8(2)
 10146 3a30 00C0      		rjmp .L615
 10147               	.LVL858:
 10148               	.L623:
 10149               	.LM962:
 10150 3a32 4F3F      		cpi r20,lo8(-1)
 10151 3a34 FFEF      		ldi r31,hi8(-1)
 10152 3a36 5F07      		cpc r21,r31
 10153 3a38 FFEF      		ldi r31,hlo8(-1)
 10154 3a3a 6F07      		cpc r22,r31
 10155 3a3c FFEF      		ldi r31,hhi8(-1)
 10156 3a3e 7F07      		cpc r23,r31
 10157 3a40 01F0      		breq .L645
 10158               	.L624:
 10159               	.LM963:
 10160 3a42 EF81      		ldd r30,Y+7
 10161 3a44 F885      		ldd r31,Y+8
 10162 3a46 4687      		std Z+14,r20
 10163 3a48 5787      		std Z+15,r21
 10164 3a4a 608B      		std Z+16,r22
 10165 3a4c 718B      		std Z+17,r23
 10166               	.LVL859:
 10167               	.L622:
 10168               	.LM964:
 10169 3a4e AF81      		ldd r26,Y+7
 10170 3a50 B885      		ldd r27,Y+8
 10171 3a52 5296      		adiw r26,18
 10172 3a54 4D93      		st X+,r20
 10173 3a56 5D93      		st X+,r21
 10174 3a58 6D93      		st X+,r22
 10175 3a5a 7C93      		st X,r23
 10176 3a5c 5597      		sbiw r26,18+3
 10177               	.L621:
 10178               	.LM965:
 10179 3a5e 4115      		cp r20,__zero_reg__
 10180 3a60 5105      		cpc r21,__zero_reg__
 10181 3a62 6105      		cpc r22,__zero_reg__
 10182 3a64 7105      		cpc r23,__zero_reg__
 10183 3a66 01F0      		breq .+2
 10184 3a68 00C0      		rjmp .L641
 10185 3a6a 00C0      		rjmp .L619
 10186               	.L632:
 10187               	.LM966:
 10188 3a6c EF81      		ldd r30,Y+7
 10189 3a6e F885      		ldd r31,Y+8
 10190 3a70 8481      		ldd r24,Z+4
 10191 3a72 2081      		ld r18,Z
 10192 3a74 3181      		ldd r19,Z+1
 10193               	.LVL860:
 10194 3a76 81FF      		sbrs r24,1
 10195 3a78 00C0      		rjmp .L626
 10196               	.LM967:
 10197 3a7a C901      		movw r24,r18
 10198 3a7c 0E94 0000 		call create_chain
 10199               	.LVL861:
 10200 3a80 AB01      		movw r20,r22
 10201 3a82 BC01      		movw r22,r24
 10202               	.LVL862:
 10203               	.LM968:
 10204 3a84 4115      		cp r20,__zero_reg__
 10205 3a86 5105      		cpc r21,__zero_reg__
 10206 3a88 6105      		cpc r22,__zero_reg__
 10207 3a8a 7105      		cpc r23,__zero_reg__
 10208 3a8c 01F4      		brne .L627
 10209 3a8e 6401      		movw r12,r8
 10210 3a90 5301      		movw r10,r6
 10211 3a92 00C0      		rjmp .L628
 10212               	.L626:
 10213               	.LM969:
 10214 3a94 C901      		movw r24,r18
 10215 3a96 0E94 0000 		call get_fat
 10216               	.LVL863:
 10217 3a9a AB01      		movw r20,r22
 10218 3a9c BC01      		movw r22,r24
 10219               	.LVL864:
 10220               	.L627:
 10221               	.LM970:
 10222 3a9e 4F3F      		cpi r20,lo8(-1)
 10223 3aa0 FFEF      		ldi r31,hi8(-1)
 10224 3aa2 5F07      		cpc r21,r31
 10225 3aa4 FFEF      		ldi r31,hlo8(-1)
 10226 3aa6 6F07      		cpc r22,r31
 10227 3aa8 FFEF      		ldi r31,hhi8(-1)
 10228 3aaa 7F07      		cpc r23,r31
 10229 3aac 01F4      		brne .L629
 10230               	.L645:
 10231 3aae AF81      		ldd r26,Y+7
 10232 3ab0 B885      		ldd r27,Y+8
 10233 3ab2 1496      		adiw r26,4
 10234 3ab4 8C91      		ld r24,X
 10235 3ab6 1497      		sbiw r26,4
 10236 3ab8 8068      		ori r24,lo8(-128)
 10237 3aba 1496      		adiw r26,4
 10238 3abc 8C93      		st X,r24
 10239 3abe 00C0      		rjmp .L643
 10240               	.L629:
 10241               	.LM971:
 10242 3ac0 4230      		cpi r20,lo8(2)
 10243 3ac2 5105      		cpc r21,__zero_reg__
 10244 3ac4 6105      		cpc r22,__zero_reg__
 10245 3ac6 7105      		cpc r23,__zero_reg__
 10246 3ac8 00F4      		brsh .+2
 10247 3aca 00C0      		rjmp .L644
 10248 3acc AF81      		ldd r26,Y+7
 10249 3ace B885      		ldd r27,Y+8
 10250 3ad0 ED91      		ld r30,X+
 10251 3ad2 FC91      		ld r31,X
 10252 3ad4 828D      		ldd r24,Z+26
 10253 3ad6 938D      		ldd r25,Z+27
 10254 3ad8 A48D      		ldd r26,Z+28
 10255 3ada B58D      		ldd r27,Z+29
 10256 3adc 4817      		cp r20,r24
 10257 3ade 5907      		cpc r21,r25
 10258 3ae0 6A07      		cpc r22,r26
 10259 3ae2 7B07      		cpc r23,r27
 10260 3ae4 00F0      		brlo .+2
 10261 3ae6 00C0      		rjmp .L644
 10262               	.L631:
 10263               	.LM972:
 10264 3ae8 AF81      		ldd r26,Y+7
 10265 3aea B885      		ldd r27,Y+8
 10266 3aec 5296      		adiw r26,18
 10267 3aee 4D93      		st X+,r20
 10268 3af0 5D93      		st X+,r21
 10269 3af2 6D93      		st X+,r22
 10270 3af4 7C93      		st X,r23
 10271 3af6 5597      		sbiw r26,18+3
 10272               	.LM973:
 10273 3af8 FD01      		movw r30,r26
 10274 3afa 8681      		ldd r24,Z+6
 10275 3afc 9781      		ldd r25,Z+7
 10276 3afe A085      		ldd r26,Z+8
 10277 3b00 B185      		ldd r27,Z+9
 10278 3b02 860D      		add r24,r6
 10279 3b04 971D      		adc r25,r7
 10280 3b06 A81D      		adc r26,r8
 10281 3b08 B91D      		adc r27,r9
 10282 3b0a 8683      		std Z+6,r24
 10283 3b0c 9783      		std Z+7,r25
 10284 3b0e A087      		std Z+8,r26
 10285 3b10 B187      		std Z+9,r27
 10286               	.LM974:
 10287 3b12 A618      		sub r10,r6
 10288 3b14 B708      		sbc r11,r7
 10289 3b16 C808      		sbc r12,r8
 10290 3b18 D908      		sbc r13,r9
 10291               	.LVL865:
 10292               	.L641:
 10293               	.LM975:
 10294 3b1a 6A14      		cp r6,r10
 10295 3b1c 7B04      		cpc r7,r11
 10296 3b1e 8C04      		cpc r8,r12
 10297 3b20 9D04      		cpc r9,r13
 10298 3b22 00F4      		brsh .+2
 10299 3b24 00C0      		rjmp .L632
 10300               	.L628:
 10301               	.LM976:
 10302 3b26 EF81      		ldd r30,Y+7
 10303 3b28 F885      		ldd r31,Y+8
 10304 3b2a 8681      		ldd r24,Z+6
 10305 3b2c 9781      		ldd r25,Z+7
 10306 3b2e A085      		ldd r26,Z+8
 10307 3b30 B185      		ldd r27,Z+9
 10308 3b32 8A0D      		add r24,r10
 10309 3b34 9B1D      		adc r25,r11
 10310 3b36 AC1D      		adc r26,r12
 10311 3b38 BD1D      		adc r27,r13
 10312 3b3a 8683      		std Z+6,r24
 10313 3b3c 9783      		std Z+7,r25
 10314 3b3e A087      		std Z+8,r26
 10315 3b40 B187      		std Z+9,r27
 10316               	.LM977:
 10317 3b42 D601      		movw r26,r12
 10318 3b44 C501      		movw r24,r10
 10319 3b46 09E0      		ldi r16,9
 10320 3b48 B695      	1:	lsr r27
 10321 3b4a A795      		ror r26
 10322 3b4c 9795      		ror r25
 10323 3b4e 8795      		ror r24
 10324 3b50 0A95      		dec r16
 10325 3b52 01F4      		brne 1b
 10326 3b54 082F      		mov r16,r24
 10327 3b56 8583      		std Z+5,r24
 10328               	.LM978:
 10329 3b58 8FEF      		ldi r24,lo8(511)
 10330 3b5a 91E0      		ldi r25,hi8(511)
 10331 3b5c A0E0      		ldi r26,hlo8(511)
 10332 3b5e B0E0      		ldi r27,hhi8(511)
 10333 3b60 A822      		and r10,r24
 10334 3b62 B922      		and r11,r25
 10335 3b64 CA22      		and r12,r26
 10336 3b66 DB22      		and r13,r27
 10337 3b68 A114      		cp r10,__zero_reg__
 10338 3b6a B104      		cpc r11,__zero_reg__
 10339 3b6c C104      		cpc r12,__zero_reg__
 10340 3b6e D104      		cpc r13,__zero_reg__
 10341 3b70 01F4      		brne .+2
 10342 3b72 00C0      		rjmp .L619
 10343               	.LM979:
 10344 3b74 8080      		ld r8,Z
 10345 3b76 9180      		ldd r9,Z+1
 10346               	.LVL866:
 10347               	.LBB610:
 10348               	.LBB611:
 10349               	.LM980:
 10350 3b78 EEEF      		ldi r30,lo8(-2)
 10351 3b7a AE2E      		mov r10,r30
 10352 3b7c EFEF      		ldi r30,hi8(-2)
 10353 3b7e BE2E      		mov r11,r30
 10354 3b80 EFEF      		ldi r30,hlo8(-2)
 10355 3b82 CE2E      		mov r12,r30
 10356 3b84 EFEF      		ldi r30,hhi8(-2)
 10357 3b86 DE2E      		mov r13,r30
 10358               	.LVL867:
 10359 3b88 A40E      		add r10,r20
 10360 3b8a B51E      		adc r11,r21
 10361 3b8c C61E      		adc r12,r22
 10362 3b8e D71E      		adc r13,r23
 10363               	.LM981:
 10364 3b90 F401      		movw r30,r8
 10365 3b92 828D      		ldd r24,Z+26
 10366 3b94 938D      		ldd r25,Z+27
 10367 3b96 A48D      		ldd r26,Z+28
 10368 3b98 B58D      		ldd r27,Z+29
 10369 3b9a 0297      		sbiw r24,2
 10370 3b9c A109      		sbc r26,__zero_reg__
 10371 3b9e B109      		sbc r27,__zero_reg__
 10372 3ba0 A816      		cp r10,r24
 10373 3ba2 B906      		cpc r11,r25
 10374 3ba4 CA06      		cpc r12,r26
 10375 3ba6 DB06      		cpc r13,r27
 10376 3ba8 00F4      		brsh .L633
 10377               	.LM982:
 10378 3baa 2281      		ldd r18,Z+2
 10379               	.LVL868:
 10380 3bac 30E0      		ldi r19,lo8(0)
 10381 3bae 40E0      		ldi r20,lo8(0)
 10382 3bb0 50E0      		ldi r21,hi8(0)
 10383               	.LVL869:
 10384 3bb2 C601      		movw r24,r12
 10385 3bb4 B501      		movw r22,r10
 10386 3bb6 0E94 0000 		call __mulsi3
 10387 3bba 9B01      		movw r18,r22
 10388 3bbc AC01      		movw r20,r24
 10389               	.LVL870:
 10390 3bbe F401      		movw r30,r8
 10391 3bc0 86A1      		ldd r24,Z+38
 10392 3bc2 97A1      		ldd r25,Z+39
 10393 3bc4 A0A5      		ldd r26,Z+40
 10394 3bc6 B1A5      		ldd r27,Z+41
 10395 3bc8 280F      		add r18,r24
 10396 3bca 391F      		adc r19,r25
 10397 3bcc 4A1F      		adc r20,r26
 10398 3bce 5B1F      		adc r21,r27
 10399               	.LBE611:
 10400               	.LBE610:
 10401               	.LM983:
 10402 3bd0 2115      		cp r18,__zero_reg__
 10403 3bd2 3105      		cpc r19,__zero_reg__
 10404 3bd4 4105      		cpc r20,__zero_reg__
 10405 3bd6 5105      		cpc r21,__zero_reg__
 10406 3bd8 01F4      		brne .L634
 10407               	.LVL871:
 10408               	.L633:
 10409 3bda AF81      		ldd r26,Y+7
 10410 3bdc B885      		ldd r27,Y+8
 10411 3bde 1496      		adiw r26,4
 10412 3be0 8C91      		ld r24,X
 10413 3be2 1497      		sbiw r26,4
 10414 3be4 8068      		ori r24,lo8(-128)
 10415 3be6 1496      		adiw r26,4
 10416 3be8 8C93      		st X,r24
 10417 3bea 00C0      		rjmp .L642
 10418               	.LVL872:
 10419               	.L634:
 10420               	.LM984:
 10421 3bec 5901      		movw r10,r18
 10422 3bee 6A01      		movw r12,r20
 10423               	.LVL873:
 10424 3bf0 A00E      		add r10,r16
 10425 3bf2 B11C      		adc r11,__zero_reg__
 10426 3bf4 C11C      		adc r12,__zero_reg__
 10427 3bf6 D11C      		adc r13,__zero_reg__
 10428               	.LVL874:
 10429               	.LM985:
 10430 3bf8 0F5F      		subi r16,lo8(-(1))
 10431 3bfa EF81      		ldd r30,Y+7
 10432 3bfc F885      		ldd r31,Y+8
 10433 3bfe 0583      		std Z+5,r16
 10434 3c00 00C0      		rjmp .L635
 10435               	.LVL875:
 10436               	.L619:
 10437 3c02 AA24      		clr r10
 10438 3c04 BB24      		clr r11
 10439 3c06 6501      		movw r12,r10
 10440               	.LVL876:
 10441               	.L635:
 10442               	.LM986:
 10443 3c08 EF81      		ldd r30,Y+7
 10444 3c0a F885      		ldd r31,Y+8
 10445 3c0c 8681      		ldd r24,Z+6
 10446 3c0e 9781      		ldd r25,Z+7
 10447 3c10 A085      		ldd r26,Z+8
 10448 3c12 B185      		ldd r27,Z+9
 10449 3c14 9170      		andi r25,hi8(511)
 10450 3c16 A070      		andi r26,hlo8(511)
 10451 3c18 B070      		andi r27,hhi8(511)
 10452 3c1a 0097      		sbiw r24,0
 10453 3c1c A105      		cpc r26,__zero_reg__
 10454 3c1e B105      		cpc r27,__zero_reg__
 10455 3c20 01F4      		brne .+2
 10456 3c22 00C0      		rjmp .L636
 10457 3c24 2689      		ldd r18,Z+22
 10458 3c26 3789      		ldd r19,Z+23
 10459 3c28 408D      		ldd r20,Z+24
 10460 3c2a 518D      		ldd r21,Z+25
 10461               	.LVL877:
 10462 3c2c A216      		cp r10,r18
 10463 3c2e B306      		cpc r11,r19
 10464 3c30 C406      		cpc r12,r20
 10465 3c32 D506      		cpc r13,r21
 10466 3c34 01F0      		breq .L636
 10467               	.LM987:
 10468 3c36 8481      		ldd r24,Z+4
 10469 3c38 86FF      		sbrs r24,6
 10470 3c3a 00C0      		rjmp .L637
 10471               	.LM988:
 10472 3c3c 0190      		ld __tmp_reg__,Z+
 10473 3c3e F081      		ld r31,Z
 10474 3c40 E02D      		mov r30,__tmp_reg__
 10475 3c42 6F81      		ldd r22,Y+7
 10476 3c44 7885      		ldd r23,Y+8
 10477 3c46 605E      		subi r22,lo8(-(32))
 10478 3c48 7F4F      		sbci r23,hi8(-(32))
 10479 3c4a 8181      		ldd r24,Z+1
 10480 3c4c 01E0      		ldi r16,lo8(1)
 10481 3c4e 0E94 0000 		call disk_write
 10482               	.LVL878:
 10483 3c52 AF81      		ldd r26,Y+7
 10484 3c54 B885      		ldd r27,Y+8
 10485 3c56 1496      		adiw r26,4
 10486 3c58 9C91      		ld r25,X
 10487 3c5a 1497      		sbiw r26,4
 10488 3c5c 8823      		tst r24
 10489 3c5e 01F0      		breq .L638
 10490               	.LM989:
 10491 3c60 9068      		ori r25,lo8(-128)
 10492 3c62 1496      		adiw r26,4
 10493 3c64 9C93      		st X,r25
 10494 3c66 00C0      		rjmp .L643
 10495               	.L638:
 10496               	.LM990:
 10497 3c68 9F7B      		andi r25,lo8(-65)
 10498 3c6a EF81      		ldd r30,Y+7
 10499 3c6c F885      		ldd r31,Y+8
 10500 3c6e 9483      		std Z+4,r25
 10501               	.LVL879:
 10502               	.L637:
 10503               	.LM991:
 10504 3c70 AF81      		ldd r26,Y+7
 10505 3c72 B885      		ldd r27,Y+8
 10506 3c74 ED91      		ld r30,X+
 10507 3c76 FC91      		ld r31,X
 10508 3c78 1197      		sbiw r26,1
 10509 3c7a BD01      		movw r22,r26
 10510 3c7c 605E      		subi r22,lo8(-(32))
 10511 3c7e 7F4F      		sbci r23,hi8(-(32))
 10512 3c80 8181      		ldd r24,Z+1
 10513 3c82 A601      		movw r20,r12
 10514 3c84 9501      		movw r18,r10
 10515 3c86 01E0      		ldi r16,lo8(1)
 10516 3c88 0E94 0000 		call disk_read
 10517               	.LVL880:
 10518 3c8c 8823      		tst r24
 10519 3c8e 01F0      		breq .L639
 10520               	.LM992:
 10521 3c90 EF81      		ldd r30,Y+7
 10522 3c92 F885      		ldd r31,Y+8
 10523 3c94 8481      		ldd r24,Z+4
 10524 3c96 8068      		ori r24,lo8(-128)
 10525 3c98 8483      		std Z+4,r24
 10526               	.LVL881:
 10527               	.L643:
 10528 3c9a 11E0      		ldi r17,lo8(1)
 10529 3c9c 00C0      		rjmp .L615
 10530               	.LVL882:
 10531               	.L639:
 10532               	.LM993:
 10533 3c9e AF81      		ldd r26,Y+7
 10534 3ca0 B885      		ldd r27,Y+8
 10535 3ca2 5696      		adiw r26,22
 10536 3ca4 AD92      		st X+,r10
 10537 3ca6 BD92      		st X+,r11
 10538 3ca8 CD92      		st X+,r12
 10539 3caa DC92      		st X,r13
 10540 3cac 5997      		sbiw r26,22+3
 10541               	.LVL883:
 10542               	.L636:
 10543               	.LM994:
 10544 3cae EF81      		ldd r30,Y+7
 10545 3cb0 F885      		ldd r31,Y+8
 10546 3cb2 2681      		ldd r18,Z+6
 10547 3cb4 3781      		ldd r19,Z+7
 10548 3cb6 4085      		ldd r20,Z+8
 10549 3cb8 5185      		ldd r21,Z+9
 10550               	.LVL884:
 10551 3cba 8285      		ldd r24,Z+10
 10552 3cbc 9385      		ldd r25,Z+11
 10553 3cbe A485      		ldd r26,Z+12
 10554 3cc0 B585      		ldd r27,Z+13
 10555 3cc2 8217      		cp r24,r18
 10556 3cc4 9307      		cpc r25,r19
 10557 3cc6 A407      		cpc r26,r20
 10558 3cc8 B507      		cpc r27,r21
 10559 3cca 00F4      		brsh .L615
 10560               	.LM995:
 10561 3ccc 2287      		std Z+10,r18
 10562 3cce 3387      		std Z+11,r19
 10563 3cd0 4487      		std Z+12,r20
 10564 3cd2 5587      		std Z+13,r21
 10565               	.LM996:
 10566 3cd4 8481      		ldd r24,Z+4
 10567 3cd6 8062      		ori r24,lo8(32)
 10568 3cd8 8483      		std Z+4,r24
 10569               	.LVL885:
 10570               	.L615:
 10571               	.LM997:
 10572 3cda 812F      		mov r24,r17
 10573               	/* epilogue start */
 10574 3cdc 2896      		adiw r28,8
 10575 3cde CDBF      		out __SP_L__,r28
 10576 3ce0 DEBF      		out __SP_H__,r29
 10577 3ce2 CF91      		pop r28
 10578 3ce4 DF91      		pop r29
 10579 3ce6 1F91      		pop r17
 10580               	.LVL886:
 10581 3ce8 0F91      		pop r16
 10582 3cea DF90      		pop r13
 10583 3cec CF90      		pop r12
 10584 3cee BF90      		pop r11
 10585 3cf0 AF90      		pop r10
 10586               	.LVL887:
 10587 3cf2 9F90      		pop r9
 10588 3cf4 8F90      		pop r8
 10589               	.LVL888:
 10590 3cf6 7F90      		pop r7
 10591               	.LVL889:
 10592 3cf8 6F90      		pop r6
 10593               	.LVL890:
 10594 3cfa 5F90      		pop r5
 10595 3cfc 4F90      		pop r4
 10596 3cfe 3F90      		pop r3
 10597 3d00 2F90      		pop r2
 10598 3d02 0895      		ret
 10599               	.LFE71:
 10601               	.global	f_opendir
 10603               	f_opendir:
 10604               	.LFB72:
 10605               	.LM998:
 10606               	.LVL891:
 10607 3d04 0F93      		push r16
 10608 3d06 1F93      		push r17
 10609 3d08 DF93      		push r29
 10610 3d0a CF93      		push r28
 10611 3d0c CDB7      		in r28,__SP_L__
 10612 3d0e DEB7      		in r29,__SP_H__
 10613 3d10 2E97      		sbiw r28,14
 10614 3d12 CDBF      		out __SP_L__,r28
 10615 3d14 DEBF      		out __SP_H__,r29
 10616               	/* prologue: function */
 10617               	/* frame size = 14 */
 10618 3d16 8C01      		movw r16,r24
 10619 3d18 6D87      		std Y+13,r22
 10620 3d1a 7E87      		std Y+14,r23
 10621               	.LM999:
 10622 3d1c CE01      		movw r24,r28
 10623               	.LVL892:
 10624 3d1e 0D96      		adiw r24,13
 10625 3d20 B801      		movw r22,r16
 10626               	.LVL893:
 10627 3d22 40E0      		ldi r20,lo8(0)
 10628 3d24 0E94 0000 		call chk_mounted
 10629               	.LM1000:
 10630 3d28 8823      		tst r24
 10631               	.LVL894:
 10632 3d2a 01F0      		breq .+2
 10633 3d2c 00C0      		rjmp .L647
 10634               	.LM1001:
 10635 3d2e CE01      		movw r24,r28
 10636               	.LVL895:
 10637 3d30 0196      		adiw r24,1
 10638 3d32 D801      		movw r26,r16
 10639 3d34 5496      		adiw r26,20
 10640 3d36 8D93      		st X+,r24
 10641 3d38 9C93      		st X,r25
 10642 3d3a 5597      		sbiw r26,20+1
 10643               	.LM1002:
 10644 3d3c 6D85      		ldd r22,Y+13
 10645 3d3e 7E85      		ldd r23,Y+14
 10646 3d40 C801      		movw r24,r16
 10647 3d42 0E94 0000 		call follow_path
 10648               	.LM1003:
 10649 3d46 8823      		tst r24
 10650               	.LVL896:
 10651 3d48 01F4      		brne .L648
 10652               	.LM1004:
 10653 3d4a D801      		movw r26,r16
 10654 3d4c 5296      		adiw r26,18
 10655 3d4e ED91      		ld r30,X+
 10656 3d50 FC91      		ld r31,X
 10657 3d52 5397      		sbiw r26,18+1
 10658               	.LVL897:
 10659               	.LM1005:
 10660 3d54 3097      		sbiw r30,0
 10661 3d56 01F0      		breq .L649
 10662               	.LM1006:
 10663 3d58 8385      		ldd r24,Z+11
 10664               	.LVL898:
 10665 3d5a 84FF      		sbrs r24,4
 10666 3d5c 00C0      		rjmp .L652
 10667               	.L650:
 10668               	.LM1007:
 10669 3d5e 3589      		ldd r19,Z+21
 10670 3d60 20E0      		ldi r18,lo8(0)
 10671 3d62 8489      		ldd r24,Z+20
 10672 3d64 90E0      		ldi r25,lo8(0)
 10673 3d66 282B      		or r18,r24
 10674 3d68 392B      		or r19,r25
 10675 3d6a 40E0      		ldi r20,lo8(0)
 10676 3d6c 50E0      		ldi r21,hi8(0)
 10677 3d6e A901      		movw r20,r18
 10678 3d70 3327      		clr r19
 10679 3d72 2227      		clr r18
 10680 3d74 938D      		ldd r25,Z+27
 10681 3d76 80E0      		ldi r24,lo8(0)
 10682 3d78 628D      		ldd r22,Z+26
 10683 3d7a 70E0      		ldi r23,lo8(0)
 10684 3d7c 862B      		or r24,r22
 10685 3d7e 972B      		or r25,r23
 10686 3d80 A0E0      		ldi r26,lo8(0)
 10687 3d82 B0E0      		ldi r27,hi8(0)
 10688 3d84 282B      		or r18,r24
 10689 3d86 392B      		or r19,r25
 10690 3d88 4A2B      		or r20,r26
 10691 3d8a 5B2B      		or r21,r27
 10692 3d8c F801      		movw r30,r16
 10693               	.LVL899:
 10694 3d8e 2683      		std Z+6,r18
 10695 3d90 3783      		std Z+7,r19
 10696 3d92 4087      		std Z+8,r20
 10697 3d94 5187      		std Z+9,r21
 10698               	.LVL900:
 10699               	.L649:
 10700               	.LM1008:
 10701 3d96 D801      		movw r26,r16
 10702 3d98 ED91      		ld r30,X+
 10703 3d9a FC91      		ld r31,X
 10704 3d9c 1197      		sbiw r26,1
 10705               	.LVL901:
 10706 3d9e 8681      		ldd r24,Z+6
 10707 3da0 9781      		ldd r25,Z+7
 10708               	.LVL902:
 10709 3da2 1296      		adiw r26,2
 10710 3da4 8D93      		st X+,r24
 10711 3da6 9C93      		st X,r25
 10712 3da8 1397      		sbiw r26,2+1
 10713               	.LM1009:
 10714 3daa C801      		movw r24,r16
 10715 3dac 60E0      		ldi r22,lo8(0)
 10716 3dae 70E0      		ldi r23,hi8(0)
 10717 3db0 0E94 0000 		call dir_seek
 10718               	.LVL903:
 10719               	.L648:
 10720               	.LM1010:
 10721 3db4 8430      		cpi r24,lo8(4)
 10722 3db6 01F4      		brne .L647
 10723               	.LVL904:
 10724               	.L652:
 10725 3db8 85E0      		ldi r24,lo8(5)
 10726               	.L647:
 10727               	.LVL905:
 10728               	/* epilogue start */
 10729               	.LM1011:
 10730 3dba 2E96      		adiw r28,14
 10731 3dbc CDBF      		out __SP_L__,r28
 10732 3dbe DEBF      		out __SP_H__,r29
 10733 3dc0 CF91      		pop r28
 10734 3dc2 DF91      		pop r29
 10735 3dc4 1F91      		pop r17
 10736 3dc6 0F91      		pop r16
 10737               	.LVL906:
 10738 3dc8 0895      		ret
 10739               	.LFE72:
 10741               	.global	f_readdir
 10743               	f_readdir:
 10744               	.LFB73:
 10745               	.LM1012:
 10746               	.LVL907:
 10747 3dca EF92      		push r14
 10748 3dcc FF92      		push r15
 10749 3dce 0F93      		push r16
 10750 3dd0 1F93      		push r17
 10751 3dd2 DF93      		push r29
 10752 3dd4 CF93      		push r28
 10753 3dd6 CDB7      		in r28,__SP_L__
 10754 3dd8 DEB7      		in r29,__SP_H__
 10755 3dda 2C97      		sbiw r28,12
 10756 3ddc CDBF      		out __SP_L__,r28
 10757 3dde DEBF      		out __SP_H__,r29
 10758               	/* prologue: function */
 10759               	/* frame size = 12 */
 10760 3de0 8C01      		movw r16,r24
 10761 3de2 7B01      		movw r14,r22
 10762               	.LM1013:
 10763 3de4 FC01      		movw r30,r24
 10764 3de6 6281      		ldd r22,Z+2
 10765 3de8 7381      		ldd r23,Z+3
 10766               	.LVL908:
 10767 3dea 8081      		ld r24,Z
 10768 3dec 9181      		ldd r25,Z+1
 10769               	.LVL909:
 10770 3dee 0E94 0000 		call validate
 10771               	.LM1014:
 10772 3df2 8823      		tst r24
 10773               	.LVL910:
 10774 3df4 01F4      		brne .L655
 10775               	.LM1015:
 10776 3df6 CE01      		movw r24,r28
 10777               	.LVL911:
 10778 3df8 0196      		adiw r24,1
 10779 3dfa F801      		movw r30,r16
 10780 3dfc 848B      		std Z+20,r24
 10781 3dfe 958B      		std Z+21,r25
 10782               	.LM1016:
 10783 3e00 E114      		cp r14,__zero_reg__
 10784 3e02 F104      		cpc r15,__zero_reg__
 10785 3e04 01F4      		brne .L656
 10786               	.LM1017:
 10787 3e06 C801      		movw r24,r16
 10788 3e08 60E0      		ldi r22,lo8(0)
 10789 3e0a 70E0      		ldi r23,hi8(0)
 10790 3e0c 0E94 0000 		call dir_seek
 10791 3e10 00C0      		rjmp .L655
 10792               	.L656:
 10793               	.LM1018:
 10794 3e12 C801      		movw r24,r16
 10795 3e14 0E94 0000 		call dir_read
 10796               	.LM1019:
 10797 3e18 8430      		cpi r24,lo8(4)
 10798               	.LVL912:
 10799 3e1a 01F4      		brne .L657
 10800               	.LM1020:
 10801 3e1c F801      		movw r30,r16
 10802 3e1e 1686      		std Z+14,__zero_reg__
 10803 3e20 1786      		std Z+15,__zero_reg__
 10804 3e22 108A      		std Z+16,__zero_reg__
 10805 3e24 118A      		std Z+17,__zero_reg__
 10806 3e26 00C0      		rjmp .L658
 10807               	.L657:
 10808               	.LM1021:
 10809 3e28 8823      		tst r24
 10810 3e2a 01F4      		brne .L655
 10811               	.L658:
 10812               	.LM1022:
 10813 3e2c C801      		movw r24,r16
 10814               	.LVL913:
 10815 3e2e B701      		movw r22,r14
 10816 3e30 0E94 0000 		call get_fileinfo
 10817               	.LM1023:
 10818 3e34 C801      		movw r24,r16
 10819 3e36 60E0      		ldi r22,lo8(0)
 10820 3e38 0E94 0000 		call dir_next
 10821               	.LM1024:
 10822 3e3c 8430      		cpi r24,lo8(4)
 10823               	.LVL914:
 10824 3e3e 01F4      		brne .L655
 10825               	.LM1025:
 10826 3e40 F801      		movw r30,r16
 10827 3e42 1686      		std Z+14,__zero_reg__
 10828 3e44 1786      		std Z+15,__zero_reg__
 10829 3e46 108A      		std Z+16,__zero_reg__
 10830 3e48 118A      		std Z+17,__zero_reg__
 10831 3e4a 80E0      		ldi r24,lo8(0)
 10832               	.L655:
 10833               	.LVL915:
 10834               	/* epilogue start */
 10835               	.LM1026:
 10836 3e4c 2C96      		adiw r28,12
 10837 3e4e CDBF      		out __SP_L__,r28
 10838 3e50 DEBF      		out __SP_H__,r29
 10839 3e52 CF91      		pop r28
 10840 3e54 DF91      		pop r29
 10841 3e56 1F91      		pop r17
 10842 3e58 0F91      		pop r16
 10843               	.LVL916:
 10844 3e5a FF90      		pop r15
 10845 3e5c EF90      		pop r14
 10846               	.LVL917:
 10847 3e5e 0895      		ret
 10848               	.LFE73:
 10850               	.global	f_stat
 10852               	f_stat:
 10853               	.LFB74:
 10854               	.LM1027:
 10855               	.LVL918:
 10856 3e60 CF92      		push r12
 10857 3e62 DF92      		push r13
 10858 3e64 EF92      		push r14
 10859 3e66 FF92      		push r15
 10860 3e68 1F93      		push r17
 10861 3e6a DF93      		push r29
 10862 3e6c CF93      		push r28
 10863 3e6e CDB7      		in r28,__SP_L__
 10864 3e70 DEB7      		in r29,__SP_H__
 10865 3e72 A497      		sbiw r28,36
 10866 3e74 CDBF      		out __SP_L__,r28
 10867 3e76 DEBF      		out __SP_H__,r29
 10868               	/* prologue: function */
 10869               	/* frame size = 36 */
 10870 3e78 8BA3      		std Y+35,r24
 10871 3e7a 9CA3      		std Y+36,r25
 10872 3e7c 6B01      		movw r12,r22
 10873               	.LM1028:
 10874 3e7e 2DE0      		ldi r18,lo8(13)
 10875 3e80 E22E      		mov r14,r18
 10876 3e82 F12C      		mov r15,__zero_reg__
 10877 3e84 EC0E      		add r14,r28
 10878 3e86 FD1E      		adc r15,r29
 10879 3e88 CE01      		movw r24,r28
 10880               	.LVL919:
 10881 3e8a 8396      		adiw r24,35
 10882 3e8c B701      		movw r22,r14
 10883               	.LVL920:
 10884 3e8e 40E0      		ldi r20,lo8(0)
 10885 3e90 0E94 0000 		call chk_mounted
 10886 3e94 182F      		mov r17,r24
 10887               	.LVL921:
 10888               	.LM1029:
 10889 3e96 8823      		tst r24
 10890 3e98 01F4      		brne .L661
 10891               	.LVL922:
 10892               	.LM1030:
 10893 3e9a CE01      		movw r24,r28
 10894               	.LVL923:
 10895 3e9c 0196      		adiw r24,1
 10896 3e9e 89A3      		std Y+33,r24
 10897 3ea0 9AA3      		std Y+34,r25
 10898               	.LM1031:
 10899 3ea2 6BA1      		ldd r22,Y+35
 10900 3ea4 7CA1      		ldd r23,Y+36
 10901 3ea6 C701      		movw r24,r14
 10902 3ea8 0E94 0000 		call follow_path
 10903 3eac 182F      		mov r17,r24
 10904               	.LM1032:
 10905 3eae 8823      		tst r24
 10906 3eb0 01F4      		brne .L661
 10907               	.LVL924:
 10908               	.LM1033:
 10909 3eb2 8F8D      		ldd r24,Y+31
 10910 3eb4 98A1      		ldd r25,Y+32
 10911               	.LVL925:
 10912 3eb6 892B      		or r24,r25
 10913 3eb8 01F4      		brne .L662
 10914 3eba 16E0      		ldi r17,lo8(6)
 10915 3ebc 00C0      		rjmp .L661
 10916               	.L662:
 10917               	.LM1034:
 10918 3ebe C701      		movw r24,r14
 10919 3ec0 B601      		movw r22,r12
 10920 3ec2 0E94 0000 		call get_fileinfo
 10921               	.LVL926:
 10922               	.L661:
 10923               	.LM1035:
 10924 3ec6 812F      		mov r24,r17
 10925               	/* epilogue start */
 10926 3ec8 A496      		adiw r28,36
 10927 3eca CDBF      		out __SP_L__,r28
 10928 3ecc DEBF      		out __SP_H__,r29
 10929 3ece CF91      		pop r28
 10930 3ed0 DF91      		pop r29
 10931 3ed2 1F91      		pop r17
 10932               	.LVL927:
 10933 3ed4 FF90      		pop r15
 10934 3ed6 EF90      		pop r14
 10935 3ed8 DF90      		pop r13
 10936 3eda CF90      		pop r12
 10937               	.LVL928:
 10938 3edc 0895      		ret
 10939               	.LFE74:
 10941               	.global	f_getfree
 10943               	f_getfree:
 10944               	.LFB75:
 10945               	.LM1036:
 10946               	.LVL929:
 10947 3ede 2F92      		push r2
 10948 3ee0 3F92      		push r3
 10949 3ee2 4F92      		push r4
 10950 3ee4 5F92      		push r5
 10951 3ee6 6F92      		push r6
 10952 3ee8 7F92      		push r7
 10953 3eea 8F92      		push r8
 10954 3eec 9F92      		push r9
 10955 3eee AF92      		push r10
 10956 3ef0 BF92      		push r11
 10957 3ef2 CF92      		push r12
 10958 3ef4 DF92      		push r13
 10959 3ef6 EF92      		push r14
 10960 3ef8 FF92      		push r15
 10961 3efa 0F93      		push r16
 10962 3efc 1F93      		push r17
 10963 3efe DF93      		push r29
 10964 3f00 CF93      		push r28
 10965 3f02 CDB7      		in r28,__SP_L__
 10966 3f04 DEB7      		in r29,__SP_H__
 10967 3f06 2997      		sbiw r28,9
 10968 3f08 CDBF      		out __SP_L__,r28
 10969 3f0a DEBF      		out __SP_H__,r29
 10970               	/* prologue: function */
 10971               	/* frame size = 9 */
 10972 3f0c 8983      		std Y+1,r24
 10973 3f0e 9A83      		std Y+2,r25
 10974 3f10 6C83      		std Y+4,r22
 10975 3f12 7D83      		std Y+5,r23
 10976 3f14 2A01      		movw r4,r20
 10977               	.LM1037:
 10978 3f16 CE01      		movw r24,r28
 10979               	.LVL930:
 10980 3f18 0196      		adiw r24,1
 10981 3f1a BA01      		movw r22,r20
 10982               	.LVL931:
 10983 3f1c 40E0      		ldi r20,lo8(0)
 10984               	.LVL932:
 10985 3f1e 0E94 0000 		call chk_mounted
 10986               	.LM1038:
 10987 3f22 8823      		tst r24
 10988               	.LVL933:
 10989 3f24 01F0      		breq .+2
 10990 3f26 00C0      		rjmp .L666
 10991               	.LM1039:
 10992 3f28 D201      		movw r26,r4
 10993 3f2a ED91      		ld r30,X+
 10994 3f2c FC91      		ld r31,X
 10995 3f2e 2685      		ldd r18,Z+14
 10996 3f30 3785      		ldd r19,Z+15
 10997 3f32 4089      		ldd r20,Z+16
 10998 3f34 5189      		ldd r21,Z+17
 10999 3f36 E28C      		ldd r14,Z+26
 11000 3f38 F38C      		ldd r15,Z+27
 11001 3f3a 048D      		ldd r16,Z+28
 11002 3f3c 158D      		ldd r17,Z+29
 11003               	.LVL934:
 11004 3f3e D801      		movw r26,r16
 11005 3f40 C701      		movw r24,r14
 11006               	.LVL935:
 11007 3f42 0297      		sbiw r24,2
 11008 3f44 A109      		sbc r26,__zero_reg__
 11009 3f46 B109      		sbc r27,__zero_reg__
 11010 3f48 8217      		cp r24,r18
 11011 3f4a 9307      		cpc r25,r19
 11012 3f4c A407      		cpc r26,r20
 11013 3f4e B507      		cpc r27,r21
 11014 3f50 00F0      		brlo .L667
 11015               	.LM1040:
 11016 3f52 EC81      		ldd r30,Y+4
 11017 3f54 FD81      		ldd r31,Y+5
 11018 3f56 2083      		st Z,r18
 11019 3f58 3183      		std Z+1,r19
 11020 3f5a 4283      		std Z+2,r20
 11021 3f5c 5383      		std Z+3,r21
 11022 3f5e 00C0      		rjmp .L684
 11023               	.L667:
 11024               	.LM1041:
 11025 3f60 3080      		ld r3,Z
 11026 3f62 3B82      		std Y+3,r3
 11027               	.LVL936:
 11028               	.LM1042:
 11029 3f64 232D      		mov r18,r3
 11030 3f66 2130      		cpi r18,lo8(1)
 11031 3f68 01F4      		brne .L668
 11032 3f6a AA24      		clr r10
 11033 3f6c BB24      		clr r11
 11034 3f6e 6501      		movw r12,r10
 11035               	.LVL937:
 11036 3f70 92E0      		ldi r25,lo8(2)
 11037 3f72 E92E      		mov r14,r25
 11038 3f74 F12C      		mov r15,__zero_reg__
 11039 3f76 012D      		mov r16,__zero_reg__
 11040 3f78 112D      		mov r17,__zero_reg__
 11041               	.LVL938:
 11042               	.L672:
 11043               	.LM1043:
 11044 3f7a D201      		movw r26,r4
 11045 3f7c 8D91      		ld r24,X+
 11046 3f7e 9C91      		ld r25,X
 11047 3f80 B801      		movw r22,r16
 11048 3f82 A701      		movw r20,r14
 11049 3f84 0E94 0000 		call get_fat
 11050               	.LVL939:
 11051               	.LM1044:
 11052 3f88 6F3F      		cpi r22,lo8(-1)
 11053 3f8a BFEF      		ldi r27,hi8(-1)
 11054 3f8c 7B07      		cpc r23,r27
 11055 3f8e BFEF      		ldi r27,hlo8(-1)
 11056 3f90 8B07      		cpc r24,r27
 11057 3f92 BFEF      		ldi r27,hhi8(-1)
 11058 3f94 9B07      		cpc r25,r27
 11059               	.LVL940:
 11060 3f96 01F4      		brne .L669
 11061 3f98 81E0      		ldi r24,lo8(1)
 11062               	.LVL941:
 11063 3f9a 00C0      		rjmp .L666
 11064               	.LVL942:
 11065               	.L669:
 11066               	.LM1045:
 11067 3f9c 6130      		cpi r22,lo8(1)
 11068 3f9e 7105      		cpc r23,__zero_reg__
 11069 3fa0 8105      		cpc r24,__zero_reg__
 11070 3fa2 9105      		cpc r25,__zero_reg__
 11071 3fa4 01F4      		brne .L670
 11072 3fa6 82E0      		ldi r24,lo8(2)
 11073               	.LVL943:
 11074 3fa8 00C0      		rjmp .L666
 11075               	.LVL944:
 11076               	.L670:
 11077               	.LM1046:
 11078 3faa 6115      		cp r22,__zero_reg__
 11079 3fac 7105      		cpc r23,__zero_reg__
 11080 3fae 8105      		cpc r24,__zero_reg__
 11081 3fb0 9105      		cpc r25,__zero_reg__
 11082 3fb2 01F4      		brne .L671
 11083 3fb4 0894      		sec
 11084 3fb6 A11C      		adc r10,__zero_reg__
 11085 3fb8 B11C      		adc r11,__zero_reg__
 11086 3fba C11C      		adc r12,__zero_reg__
 11087 3fbc D11C      		adc r13,__zero_reg__
 11088               	.L671:
 11089               	.LM1047:
 11090 3fbe 0894      		sec
 11091 3fc0 E11C      		adc r14,__zero_reg__
 11092 3fc2 F11C      		adc r15,__zero_reg__
 11093 3fc4 011D      		adc r16,__zero_reg__
 11094 3fc6 111D      		adc r17,__zero_reg__
 11095 3fc8 D201      		movw r26,r4
 11096 3fca ED91      		ld r30,X+
 11097 3fcc FC91      		ld r31,X
 11098 3fce 828D      		ldd r24,Z+26
 11099 3fd0 938D      		ldd r25,Z+27
 11100 3fd2 A48D      		ldd r26,Z+28
 11101 3fd4 B58D      		ldd r27,Z+29
 11102 3fd6 E816      		cp r14,r24
 11103 3fd8 F906      		cpc r15,r25
 11104 3fda 0A07      		cpc r16,r26
 11105 3fdc 1B07      		cpc r17,r27
 11106 3fde 00F0      		brlo .L672
 11107 3fe0 00C0      		rjmp .L673
 11108               	.LVL945:
 11109               	.L668:
 11110               	.LM1048:
 11111 3fe2 668C      		ldd r6,Z+30
 11112 3fe4 778C      		ldd r7,Z+31
 11113 3fe6 80A0      		ldd r8,Z+32
 11114 3fe8 91A0      		ldd r9,Z+33
 11115               	.LVL946:
 11116 3fea AA24      		clr r10
 11117 3fec BB24      		clr r11
 11118 3fee 6501      		movw r12,r10
 11119               	.LVL947:
 11120 3ff0 60E0      		ldi r22,lo8(0)
 11121 3ff2 70E0      		ldi r23,hi8(0)
 11122               	.LVL948:
 11123 3ff4 E0E0      		ldi r30,lo8(0)
 11124 3ff6 F0E0      		ldi r31,hi8(0)
 11125               	.LVL949:
 11126               	.L679:
 11127               	.LM1049:
 11128 3ff8 6115      		cp r22,__zero_reg__
 11129 3ffa 7105      		cpc r23,__zero_reg__
 11130 3ffc 01F4      		brne .L674
 11131               	.LM1050:
 11132 3ffe F201      		movw r30,r4
 11133               	.LVL950:
 11134 4000 8081      		ld r24,Z
 11135 4002 9181      		ldd r25,Z+1
 11136 4004 B401      		movw r22,r8
 11137 4006 A301      		movw r20,r6
 11138 4008 0E94 0000 		call move_window
 11139               	.LVL951:
 11140               	.LM1051:
 11141 400c 8823      		tst r24
 11142               	.LVL952:
 11143 400e 01F0      		breq .+2
 11144 4010 00C0      		rjmp .L666
 11145               	.LM1052:
 11146 4012 0894      		sec
 11147 4014 611C      		adc r6,__zero_reg__
 11148 4016 711C      		adc r7,__zero_reg__
 11149 4018 811C      		adc r8,__zero_reg__
 11150 401a 911C      		adc r9,__zero_reg__
 11151               	.LM1053:
 11152 401c D201      		movw r26,r4
 11153 401e ED91      		ld r30,X+
 11154 4020 FC91      		ld r31,X
 11155               	.LVL953:
 11156 4022 BE96      		adiw r30,46
 11157 4024 60E0      		ldi r22,lo8(512)
 11158 4026 72E0      		ldi r23,hi8(512)
 11159               	.LVL954:
 11160               	.L674:
 11161 4028 B181      		ldd r27,Z+1
 11162 402a B887      		std Y+8,r27
 11163 402c 2081      		ld r18,Z
 11164 402e 2987      		std Y+9,r18
 11165               	.LM1054:
 11166 4030 3B81      		ldd r19,Y+3
 11167 4032 3230      		cpi r19,lo8(2)
 11168 4034 01F4      		brne .L675
 11169               	.LM1055:
 11170 4036 BF83      		std Y+7,r27
 11171 4038 1E82      		std Y+6,__zero_reg__
 11172 403a 822F      		mov r24,r18
 11173               	.LVL955:
 11174 403c 90E0      		ldi r25,lo8(0)
 11175 403e AE81      		ldd r26,Y+6
 11176 4040 BF81      		ldd r27,Y+7
 11177 4042 8A2B      		or r24,r26
 11178 4044 9B2B      		or r25,r27
 11179 4046 892B      		or r24,r25
 11180 4048 01F4      		brne .L676
 11181 404a 0894      		sec
 11182 404c A11C      		adc r10,__zero_reg__
 11183 404e B11C      		adc r11,__zero_reg__
 11184 4050 C11C      		adc r12,__zero_reg__
 11185 4052 D11C      		adc r13,__zero_reg__
 11186               	.L676:
 11187               	.LM1056:
 11188 4054 3296      		adiw r30,2
 11189 4056 6250      		subi r22,lo8(-(-2))
 11190 4058 7040      		sbci r23,hi8(-(-2))
 11191 405a 00C0      		rjmp .L677
 11192               	.LVL956:
 11193               	.L675:
 11194               	.LM1057:
 11195 405c 2381      		ldd r18,Z+3
 11196 405e 30E0      		ldi r19,lo8(0)
 11197 4060 40E0      		ldi r20,lo8(0)
 11198 4062 50E0      		ldi r21,hi8(0)
 11199 4064 522F      		mov r21,r18
 11200 4066 4427      		clr r20
 11201 4068 3327      		clr r19
 11202 406a 2227      		clr r18
 11203               	.LVL957:
 11204 406c 8281      		ldd r24,Z+2
 11205 406e 90E0      		ldi r25,lo8(0)
 11206 4070 A0E0      		ldi r26,lo8(0)
 11207 4072 B0E0      		ldi r27,hi8(0)
 11208 4074 DC01      		movw r26,r24
 11209 4076 9927      		clr r25
 11210 4078 8827      		clr r24
 11211 407a 282B      		or r18,r24
 11212 407c 392B      		or r19,r25
 11213 407e 4A2B      		or r20,r26
 11214 4080 5B2B      		or r21,r27
 11215 4082 3984      		ldd r3,Y+9
 11216 4084 832D      		mov r24,r3
 11217 4086 90E0      		ldi r25,lo8(0)
 11218 4088 A0E0      		ldi r26,lo8(0)
 11219 408a B0E0      		ldi r27,hi8(0)
 11220 408c 282B      		or r18,r24
 11221 408e 392B      		or r19,r25
 11222 4090 4A2B      		or r20,r26
 11223 4092 5B2B      		or r21,r27
 11224 4094 3884      		ldd r3,Y+8
 11225 4096 2224      		clr r2
 11226 4098 C101      		movw r24,r2
 11227 409a A0E0      		ldi r26,lo8(0)
 11228 409c B0E0      		ldi r27,hi8(0)
 11229 409e 282B      		or r18,r24
 11230 40a0 392B      		or r19,r25
 11231 40a2 4A2B      		or r20,r26
 11232 40a4 5B2B      		or r21,r27
 11233 40a6 5F70      		andi r21,hhi8(268435455)
 11234 40a8 2115      		cp r18,__zero_reg__
 11235 40aa 3105      		cpc r19,__zero_reg__
 11236 40ac 4105      		cpc r20,__zero_reg__
 11237 40ae 5105      		cpc r21,__zero_reg__
 11238 40b0 01F4      		brne .L678
 11239 40b2 0894      		sec
 11240 40b4 A11C      		adc r10,__zero_reg__
 11241 40b6 B11C      		adc r11,__zero_reg__
 11242 40b8 C11C      		adc r12,__zero_reg__
 11243 40ba D11C      		adc r13,__zero_reg__
 11244               	.L678:
 11245               	.LM1058:
 11246 40bc 3496      		adiw r30,4
 11247 40be 6450      		subi r22,lo8(-(-4))
 11248 40c0 7040      		sbci r23,hi8(-(-4))
 11249               	.L677:
 11250               	.LM1059:
 11251 40c2 0894      		sec
 11252 40c4 E108      		sbc r14,__zero_reg__
 11253 40c6 F108      		sbc r15,__zero_reg__
 11254 40c8 0109      		sbc r16,__zero_reg__
 11255 40ca 1109      		sbc r17,__zero_reg__
 11256 40cc E114      		cp r14,__zero_reg__
 11257 40ce F104      		cpc r15,__zero_reg__
 11258 40d0 0105      		cpc r16,__zero_reg__
 11259 40d2 1105      		cpc r17,__zero_reg__
 11260 40d4 01F0      		breq .+2
 11261 40d6 00C0      		rjmp .L679
 11262               	.LVL958:
 11263               	.L673:
 11264               	.LM1060:
 11265 40d8 D201      		movw r26,r4
 11266 40da ED91      		ld r30,X+
 11267 40dc FC91      		ld r31,X
 11268               	.LVL959:
 11269 40de A686      		std Z+14,r10
 11270 40e0 B786      		std Z+15,r11
 11271 40e2 C08A      		std Z+16,r12
 11272 40e4 D18A      		std Z+17,r13
 11273               	.LM1061:
 11274 40e6 BB81      		ldd r27,Y+3
 11275 40e8 B330      		cpi r27,lo8(3)
 11276 40ea 01F4      		brne .L680
 11277 40ec 81E0      		ldi r24,lo8(1)
 11278 40ee 8583      		std Z+5,r24
 11279               	.L680:
 11280               	.LM1062:
 11281 40f0 EC81      		ldd r30,Y+4
 11282 40f2 FD81      		ldd r31,Y+5
 11283 40f4 A082      		st Z,r10
 11284 40f6 B182      		std Z+1,r11
 11285 40f8 C282      		std Z+2,r12
 11286 40fa D382      		std Z+3,r13
 11287               	.L684:
 11288 40fc 80E0      		ldi r24,lo8(0)
 11289               	.LVL960:
 11290               	.L666:
 11291               	.LVL961:
 11292               	/* epilogue start */
 11293               	.LM1063:
 11294 40fe 2996      		adiw r28,9
 11295 4100 CDBF      		out __SP_L__,r28
 11296 4102 DEBF      		out __SP_H__,r29
 11297 4104 CF91      		pop r28
 11298 4106 DF91      		pop r29
 11299 4108 1F91      		pop r17
 11300 410a 0F91      		pop r16
 11301 410c FF90      		pop r15
 11302 410e EF90      		pop r14
 11303               	.LVL962:
 11304 4110 DF90      		pop r13
 11305 4112 CF90      		pop r12
 11306 4114 BF90      		pop r11
 11307 4116 AF90      		pop r10
 11308               	.LVL963:
 11309 4118 9F90      		pop r9
 11310 411a 8F90      		pop r8
 11311 411c 7F90      		pop r7
 11312 411e 6F90      		pop r6
 11313               	.LVL964:
 11314 4120 5F90      		pop r5
 11315 4122 4F90      		pop r4
 11316               	.LVL965:
 11317 4124 3F90      		pop r3
 11318 4126 2F90      		pop r2
 11319 4128 0895      		ret
 11320               	.LFE75:
 11322               	.global	f_truncate
 11324               	f_truncate:
 11325               	.LFB76:
 11326               	.LM1064:
 11327               	.LVL966:
 11328 412a CF92      		push r12
 11329 412c DF92      		push r13
 11330 412e EF92      		push r14
 11331 4130 FF92      		push r15
 11332 4132 0F93      		push r16
 11333 4134 1F93      		push r17
 11334 4136 CF93      		push r28
 11335 4138 DF93      		push r29
 11336               	/* prologue: function */
 11337               	/* frame size = 0 */
 11338 413a EC01      		movw r28,r24
 11339               	.LM1065:
 11340 413c 6A81      		ldd r22,Y+2
 11341 413e 7B81      		ldd r23,Y+3
 11342 4140 8881      		ld r24,Y
 11343 4142 9981      		ldd r25,Y+1
 11344               	.LVL967:
 11345 4144 0E94 0000 		call validate
 11346 4148 182F      		mov r17,r24
 11347               	.LVL968:
 11348               	.LM1066:
 11349 414a 8823      		tst r24
 11350 414c 01F0      		breq .+2
 11351 414e 00C0      		rjmp .L686
 11352               	.LVL969:
 11353               	.LM1067:
 11354 4150 6C81      		ldd r22,Y+4
 11355 4152 67FF      		sbrs r22,7
 11356 4154 00C0      		rjmp .L687
 11357 4156 12E0      		ldi r17,lo8(2)
 11358               	.LVL970:
 11359 4158 00C0      		rjmp .L686
 11360               	.LVL971:
 11361               	.L687:
 11362               	.LM1068:
 11363 415a 61FD      		sbrc r22,1
 11364 415c 00C0      		rjmp .L688
 11365 415e 17E0      		ldi r17,lo8(7)
 11366               	.LVL972:
 11367 4160 00C0      		rjmp .L686
 11368               	.LVL973:
 11369               	.L688:
 11370               	.LM1069:
 11371 4162 2E81      		ldd r18,Y+6
 11372 4164 3F81      		ldd r19,Y+7
 11373 4166 4885      		ldd r20,Y+8
 11374 4168 5985      		ldd r21,Y+9
 11375 416a 8A85      		ldd r24,Y+10
 11376 416c 9B85      		ldd r25,Y+11
 11377 416e AC85      		ldd r26,Y+12
 11378 4170 BD85      		ldd r27,Y+13
 11379               	.LVL974:
 11380 4172 2817      		cp r18,r24
 11381 4174 3907      		cpc r19,r25
 11382 4176 4A07      		cpc r20,r26
 11383 4178 5B07      		cpc r21,r27
 11384 417a 00F0      		brlo .+2
 11385 417c 00C0      		rjmp .L686
 11386               	.LM1070:
 11387 417e 2A87      		std Y+10,r18
 11388 4180 3B87      		std Y+11,r19
 11389 4182 4C87      		std Y+12,r20
 11390 4184 5D87      		std Y+13,r21
 11391               	.LM1071:
 11392 4186 6062      		ori r22,lo8(32)
 11393 4188 6C83      		std Y+4,r22
 11394 418a 8881      		ld r24,Y
 11395 418c 9981      		ldd r25,Y+1
 11396               	.LM1072:
 11397 418e 2115      		cp r18,__zero_reg__
 11398 4190 3105      		cpc r19,__zero_reg__
 11399 4192 4105      		cpc r20,__zero_reg__
 11400 4194 5105      		cpc r21,__zero_reg__
 11401 4196 01F4      		brne .L689
 11402               	.LM1073:
 11403 4198 4E85      		ldd r20,Y+14
 11404 419a 5F85      		ldd r21,Y+15
 11405 419c 6889      		ldd r22,Y+16
 11406 419e 7989      		ldd r23,Y+17
 11407 41a0 0E94 0000 		call remove_chain
 11408 41a4 182F      		mov r17,r24
 11409               	.LM1074:
 11410 41a6 1E86      		std Y+14,__zero_reg__
 11411 41a8 1F86      		std Y+15,__zero_reg__
 11412 41aa 188A      		std Y+16,__zero_reg__
 11413 41ac 198A      		std Y+17,__zero_reg__
 11414 41ae 00C0      		rjmp .L690
 11415               	.L689:
 11416               	.LM1075:
 11417 41b0 4A89      		ldd r20,Y+18
 11418 41b2 5B89      		ldd r21,Y+19
 11419 41b4 6C89      		ldd r22,Y+20
 11420 41b6 7D89      		ldd r23,Y+21
 11421 41b8 0E94 0000 		call get_fat
 11422 41bc 6B01      		movw r12,r22
 11423 41be 7C01      		movw r14,r24
 11424               	.LVL975:
 11425               	.LM1076:
 11426 41c0 8FEF      		ldi r24,lo8(-1)
 11427 41c2 C816      		cp r12,r24
 11428 41c4 8FEF      		ldi r24,hi8(-1)
 11429 41c6 D806      		cpc r13,r24
 11430 41c8 8FEF      		ldi r24,hlo8(-1)
 11431 41ca E806      		cpc r14,r24
 11432 41cc 8FEF      		ldi r24,hhi8(-1)
 11433 41ce F806      		cpc r15,r24
 11434 41d0 01F0      		breq .L691
 11435               	.LM1077:
 11436 41d2 81E0      		ldi r24,lo8(1)
 11437 41d4 C816      		cp r12,r24
 11438 41d6 D104      		cpc r13,__zero_reg__
 11439 41d8 E104      		cpc r14,__zero_reg__
 11440 41da F104      		cpc r15,__zero_reg__
 11441 41dc 01F4      		brne .L692
 11442 41de 12E0      		ldi r17,lo8(2)
 11443 41e0 00C0      		rjmp .L693
 11444               	.L692:
 11445               	.LM1078:
 11446 41e2 E881      		ld r30,Y
 11447 41e4 F981      		ldd r31,Y+1
 11448 41e6 828D      		ldd r24,Z+26
 11449 41e8 938D      		ldd r25,Z+27
 11450 41ea A48D      		ldd r26,Z+28
 11451 41ec B58D      		ldd r27,Z+29
 11452 41ee C816      		cp r12,r24
 11453 41f0 D906      		cpc r13,r25
 11454 41f2 EA06      		cpc r14,r26
 11455 41f4 FB06      		cpc r15,r27
 11456 41f6 00F4      		brsh .L686
 11457               	.LM1079:
 11458 41f8 4A89      		ldd r20,Y+18
 11459 41fa 5B89      		ldd r21,Y+19
 11460 41fc 6C89      		ldd r22,Y+20
 11461 41fe 7D89      		ldd r23,Y+21
 11462 4200 CF01      		movw r24,r30
 11463 4202 0FEF      		ldi r16,lo8(268435455)
 11464 4204 1FEF      		ldi r17,hi8(268435455)
 11465 4206 2FEF      		ldi r18,hlo8(268435455)
 11466 4208 3FE0      		ldi r19,hhi8(268435455)
 11467 420a 0E94 0000 		call put_fat
 11468 420e 182F      		mov r17,r24
 11469               	.LM1080:
 11470 4210 8823      		tst r24
 11471 4212 01F4      		brne .L693
 11472               	.LVL976:
 11473 4214 8881      		ld r24,Y
 11474 4216 9981      		ldd r25,Y+1
 11475               	.LVL977:
 11476 4218 B701      		movw r22,r14
 11477 421a A601      		movw r20,r12
 11478 421c 0E94 0000 		call remove_chain
 11479 4220 182F      		mov r17,r24
 11480               	.L690:
 11481               	.LM1081:
 11482 4222 1123      		tst r17
 11483 4224 01F0      		breq .L686
 11484               	.LVL978:
 11485               	.L693:
 11486 4226 8C81      		ldd r24,Y+4
 11487 4228 8068      		ori r24,lo8(-128)
 11488 422a 8C83      		std Y+4,r24
 11489               	.LVL979:
 11490               	.L686:
 11491               	.LM1082:
 11492 422c 812F      		mov r24,r17
 11493               	/* epilogue start */
 11494 422e DF91      		pop r29
 11495 4230 CF91      		pop r28
 11496               	.LVL980:
 11497 4232 1F91      		pop r17
 11498               	.LVL981:
 11499 4234 0F91      		pop r16
 11500 4236 FF90      		pop r15
 11501 4238 EF90      		pop r14
 11502 423a DF90      		pop r13
 11503 423c CF90      		pop r12
 11504               	.LVL982:
 11505 423e 0895      		ret
 11506               	.LVL983:
 11507               	.L691:
 11508               	.LM1083:
 11509 4240 11E0      		ldi r17,lo8(1)
 11510 4242 00C0      		rjmp .L693
 11511               	.LFE76:
 11513               	.global	f_unlink
 11515               	f_unlink:
 11516               	.LFB77:
 11517               	.LM1084:
 11518               	.LVL984:
 11519 4244 CF92      		push r12
 11520 4246 DF92      		push r13
 11521 4248 EF92      		push r14
 11522 424a FF92      		push r15
 11523 424c 0F93      		push r16
 11524 424e 1F93      		push r17
 11525 4250 DF93      		push r29
 11526 4252 CF93      		push r28
 11527 4254 CDB7      		in r28,__SP_L__
 11528 4256 DEB7      		in r29,__SP_H__
 11529 4258 EA97      		sbiw r28,58
 11530 425a CDBF      		out __SP_L__,r28
 11531 425c DEBF      		out __SP_H__,r29
 11532               	/* prologue: function */
 11533               	/* frame size = 58 */
 11534 425e 89AF      		std Y+57,r24
 11535 4260 9AAF      		std Y+58,r25
 11536               	.LM1085:
 11537 4262 4DE0      		ldi r20,lo8(13)
 11538 4264 C42E      		mov r12,r20
 11539 4266 D12C      		mov r13,__zero_reg__
 11540 4268 CC0E      		add r12,r28
 11541 426a DD1E      		adc r13,r29
 11542 426c CE01      		movw r24,r28
 11543               	.LVL985:
 11544 426e C996      		adiw r24,57
 11545 4270 B601      		movw r22,r12
 11546 4272 41E0      		ldi r20,lo8(1)
 11547 4274 0E94 0000 		call chk_mounted
 11548               	.LM1086:
 11549 4278 8823      		tst r24
 11550               	.LVL986:
 11551 427a 01F0      		breq .+2
 11552 427c 00C0      		rjmp .L696
 11553               	.LM1087:
 11554 427e CE01      		movw r24,r28
 11555               	.LVL987:
 11556 4280 0196      		adiw r24,1
 11557 4282 89A3      		std Y+33,r24
 11558 4284 9AA3      		std Y+34,r25
 11559               	.LM1088:
 11560 4286 69AD      		ldd r22,Y+57
 11561 4288 7AAD      		ldd r23,Y+58
 11562 428a C601      		movw r24,r12
 11563 428c 0E94 0000 		call follow_path
 11564               	.LM1089:
 11565 4290 8823      		tst r24
 11566               	.LVL988:
 11567 4292 01F0      		breq .+2
 11568 4294 00C0      		rjmp .L696
 11569               	.LM1090:
 11570 4296 EF8D      		ldd r30,Y+31
 11571 4298 F8A1      		ldd r31,Y+32
 11572               	.LVL989:
 11573               	.LM1091:
 11574 429a 3097      		sbiw r30,0
 11575 429c 01F4      		brne .L697
 11576 429e 86E0      		ldi r24,lo8(6)
 11577 42a0 00C0      		rjmp .L696
 11578               	.L697:
 11579               	.LM1092:
 11580 42a2 8385      		ldd r24,Z+11
 11581               	.LVL990:
 11582 42a4 482F      		mov r20,r24
 11583 42a6 80FD      		sbrc r24,0
 11584 42a8 00C0      		rjmp .L698
 11585               	.LM1093:
 11586 42aa 9589      		ldd r25,Z+21
 11587 42ac 80E0      		ldi r24,lo8(0)
 11588 42ae 2489      		ldd r18,Z+20
 11589 42b0 30E0      		ldi r19,lo8(0)
 11590 42b2 822B      		or r24,r18
 11591 42b4 932B      		or r25,r19
 11592 42b6 A0E0      		ldi r26,lo8(0)
 11593 42b8 B0E0      		ldi r27,hi8(0)
 11594 42ba 8C01      		movw r16,r24
 11595 42bc FF24      		clr r15
 11596 42be EE24      		clr r14
 11597               	.LVL991:
 11598 42c0 938D      		ldd r25,Z+27
 11599 42c2 80E0      		ldi r24,lo8(0)
 11600 42c4 228D      		ldd r18,Z+26
 11601 42c6 30E0      		ldi r19,lo8(0)
 11602 42c8 822B      		or r24,r18
 11603 42ca 932B      		or r25,r19
 11604 42cc A0E0      		ldi r26,lo8(0)
 11605 42ce B0E0      		ldi r27,hi8(0)
 11606 42d0 E82A      		or r14,r24
 11607 42d2 F92A      		or r15,r25
 11608 42d4 0A2B      		or r16,r26
 11609 42d6 1B2B      		or r17,r27
 11610               	.LM1094:
 11611 42d8 44FF      		sbrs r20,4
 11612 42da 00C0      		rjmp .L699
 11613               	.LM1095:
 11614 42dc 82E0      		ldi r24,lo8(2)
 11615 42de E816      		cp r14,r24
 11616 42e0 F104      		cpc r15,__zero_reg__
 11617 42e2 0105      		cpc r16,__zero_reg__
 11618 42e4 1105      		cpc r17,__zero_reg__
 11619 42e6 00F4      		brsh .L700
 11620 42e8 82E0      		ldi r24,lo8(2)
 11621               	.LVL992:
 11622 42ea 00C0      		rjmp .L696
 11623               	.LVL993:
 11624               	.L700:
 11625               	.LBB612:
 11626               	.LBB613:
 11627               	.LM1096:
 11628 42ec DE01      		movw r26,r28
 11629               	.LVL994:
 11630 42ee 9396      		adiw r26,35
 11631               	.LM1097:
 11632 42f0 F601      		movw r30,r12
 11633               	.LVL995:
 11634               	.LM1098:
 11635 42f2 9D01      		movw r18,r26
 11636 42f4 00C0      		rjmp .L701
 11637               	.L702:
 11638 42f6 8191      		ld r24,Z+
 11639 42f8 8D93      		st X+,r24
 11640               	.L701:
 11641 42fa E217      		cp r30,r18
 11642 42fc F307      		cpc r31,r19
 11643 42fe 01F4      		brne .L702
 11644               	.LBE613:
 11645               	.LBE612:
 11646               	.LM1099:
 11647 4300 E9A6      		std Y+41,r14
 11648 4302 FAA6      		std Y+42,r15
 11649 4304 0BA7      		std Y+43,r16
 11650 4306 1CA7      		std Y+44,r17
 11651               	.LM1100:
 11652 4308 23E2      		ldi r18,lo8(35)
 11653 430a C22E      		mov r12,r18
 11654 430c D12C      		mov r13,__zero_reg__
 11655 430e CC0E      		add r12,r28
 11656 4310 DD1E      		adc r13,r29
 11657 4312 C601      		movw r24,r12
 11658 4314 62E0      		ldi r22,lo8(2)
 11659 4316 70E0      		ldi r23,hi8(2)
 11660 4318 0E94 0000 		call dir_seek
 11661               	.LVL996:
 11662               	.LM1101:
 11663 431c 8823      		tst r24
 11664               	.LVL997:
 11665 431e 01F4      		brne .L696
 11666               	.LM1102:
 11667 4320 C601      		movw r24,r12
 11668               	.LVL998:
 11669 4322 0E94 0000 		call dir_read
 11670               	.LM1103:
 11671 4326 8823      		tst r24
 11672               	.LVL999:
 11673 4328 01F0      		breq .L698
 11674               	.LM1104:
 11675 432a 8430      		cpi r24,lo8(4)
 11676 432c 01F4      		brne .L696
 11677               	.LVL1000:
 11678               	.L699:
 11679               	.LM1105:
 11680 432e CE01      		movw r24,r28
 11681               	.LVL1001:
 11682 4330 0D96      		adiw r24,13
 11683 4332 0E94 0000 		call dir_remove
 11684               	.LVL1002:
 11685               	.LM1106:
 11686 4336 8823      		tst r24
 11687               	.LVL1003:
 11688 4338 01F4      		brne .L696
 11689               	.LM1107:
 11690 433a E114      		cp r14,__zero_reg__
 11691 433c F104      		cpc r15,__zero_reg__
 11692 433e 0105      		cpc r16,__zero_reg__
 11693 4340 1105      		cpc r17,__zero_reg__
 11694 4342 01F0      		breq .L703
 11695               	.LM1108:
 11696 4344 8D85      		ldd r24,Y+13
 11697 4346 9E85      		ldd r25,Y+14
 11698               	.LVL1004:
 11699 4348 B801      		movw r22,r16
 11700 434a A701      		movw r20,r14
 11701 434c 0E94 0000 		call remove_chain
 11702               	.LM1109:
 11703 4350 8823      		tst r24
 11704               	.LVL1005:
 11705 4352 01F4      		brne .L696
 11706               	.L703:
 11707 4354 8D85      		ldd r24,Y+13
 11708 4356 9E85      		ldd r25,Y+14
 11709               	.LVL1006:
 11710 4358 0E94 0000 		call sync
 11711 435c 00C0      		rjmp .L696
 11712               	.LVL1007:
 11713               	.L698:
 11714 435e 87E0      		ldi r24,lo8(7)
 11715               	.L696:
 11716               	.LVL1008:
 11717               	/* epilogue start */
 11718               	.LM1110:
 11719 4360 EA96      		adiw r28,58
 11720 4362 CDBF      		out __SP_L__,r28
 11721 4364 DEBF      		out __SP_H__,r29
 11722 4366 CF91      		pop r28
 11723 4368 DF91      		pop r29
 11724 436a 1F91      		pop r17
 11725 436c 0F91      		pop r16
 11726 436e FF90      		pop r15
 11727 4370 EF90      		pop r14
 11728               	.LVL1009:
 11729 4372 DF90      		pop r13
 11730 4374 CF90      		pop r12
 11731 4376 0895      		ret
 11732               	.LFE77:
 11734               	.global	f_mkdir
 11736               	f_mkdir:
 11737               	.LFB78:
 11738               	.LM1111:
 11739               	.LVL1010:
 11740 4378 2F92      		push r2
 11741 437a 3F92      		push r3
 11742 437c 4F92      		push r4
 11743 437e 5F92      		push r5
 11744 4380 6F92      		push r6
 11745 4382 7F92      		push r7
 11746 4384 8F92      		push r8
 11747 4386 9F92      		push r9
 11748 4388 AF92      		push r10
 11749 438a BF92      		push r11
 11750 438c CF92      		push r12
 11751 438e DF92      		push r13
 11752 4390 EF92      		push r14
 11753 4392 FF92      		push r15
 11754 4394 0F93      		push r16
 11755 4396 1F93      		push r17
 11756 4398 DF93      		push r29
 11757 439a CF93      		push r28
 11758 439c CDB7      		in r28,__SP_L__
 11759 439e DEB7      		in r29,__SP_H__
 11760 43a0 AC97      		sbiw r28,44
 11761 43a2 CDBF      		out __SP_L__,r28
 11762 43a4 DEBF      		out __SP_H__,r29
 11763               	/* prologue: function */
 11764               	/* frame size = 44 */
 11765 43a6 8BA3      		std Y+35,r24
 11766 43a8 9CA3      		std Y+36,r25
 11767               	.LM1112:
 11768 43aa 7DE0      		ldi r23,lo8(13)
 11769 43ac E72E      		mov r14,r23
 11770 43ae F12C      		mov r15,__zero_reg__
 11771 43b0 EC0E      		add r14,r28
 11772 43b2 FD1E      		adc r15,r29
 11773 43b4 CE01      		movw r24,r28
 11774               	.LVL1011:
 11775 43b6 8396      		adiw r24,35
 11776 43b8 B701      		movw r22,r14
 11777 43ba 41E0      		ldi r20,lo8(1)
 11778 43bc 0E94 0000 		call chk_mounted
 11779 43c0 182F      		mov r17,r24
 11780               	.LVL1012:
 11781               	.LM1113:
 11782 43c2 8823      		tst r24
 11783 43c4 01F0      		breq .+2
 11784 43c6 00C0      		rjmp .L706
 11785               	.LVL1013:
 11786               	.LM1114:
 11787 43c8 CE01      		movw r24,r28
 11788               	.LVL1014:
 11789 43ca 0196      		adiw r24,1
 11790 43cc 89A3      		std Y+33,r24
 11791 43ce 9AA3      		std Y+34,r25
 11792               	.LM1115:
 11793 43d0 6BA1      		ldd r22,Y+35
 11794 43d2 7CA1      		ldd r23,Y+36
 11795 43d4 C701      		movw r24,r14
 11796 43d6 0E94 0000 		call follow_path
 11797 43da 182F      		mov r17,r24
 11798               	.LM1116:
 11799 43dc 8823      		tst r24
 11800 43de 01F4      		brne .L707
 11801               	.LVL1015:
 11802 43e0 18E0      		ldi r17,lo8(8)
 11803               	.LVL1016:
 11804 43e2 00C0      		rjmp .L706
 11805               	.LVL1017:
 11806               	.L707:
 11807               	.LM1117:
 11808 43e4 8430      		cpi r24,lo8(4)
 11809 43e6 01F0      		breq .+2
 11810 43e8 00C0      		rjmp .L706
 11811               	.LM1118:
 11812 43ea 8D85      		ldd r24,Y+13
 11813 43ec 9E85      		ldd r25,Y+14
 11814               	.LVL1018:
 11815 43ee 40E0      		ldi r20,lo8(0)
 11816 43f0 50E0      		ldi r21,hi8(0)
 11817 43f2 60E0      		ldi r22,hlo8(0)
 11818 43f4 70E0      		ldi r23,hhi8(0)
 11819 43f6 0E94 0000 		call create_chain
 11820 43fa 4B01      		movw r8,r22
 11821 43fc 5C01      		movw r10,r24
 11822               	.LVL1019:
 11823               	.LM1119:
 11824 43fe 6115      		cp r22,__zero_reg__
 11825 4400 7105      		cpc r23,__zero_reg__
 11826 4402 8105      		cpc r24,__zero_reg__
 11827 4404 9105      		cpc r25,__zero_reg__
 11828 4406 01F4      		brne .L708
 11829               	.LVL1020:
 11830 4408 17E0      		ldi r17,lo8(7)
 11831 440a 00C0      		rjmp .L706
 11832               	.L708:
 11833               	.LM1120:
 11834 440c 6130      		cpi r22,lo8(1)
 11835 440e 7105      		cpc r23,__zero_reg__
 11836 4410 8105      		cpc r24,__zero_reg__
 11837 4412 9105      		cpc r25,__zero_reg__
 11838 4414 01F4      		brne .L709
 11839 4416 12E0      		ldi r17,lo8(2)
 11840 4418 00C0      		rjmp .L706
 11841               	.L709:
 11842               	.LM1121:
 11843 441a 6F3F      		cpi r22,lo8(-1)
 11844 441c 3FEF      		ldi r19,hi8(-1)
 11845 441e 7307      		cpc r23,r19
 11846 4420 3FEF      		ldi r19,hlo8(-1)
 11847 4422 8307      		cpc r24,r19
 11848 4424 3FEF      		ldi r19,hhi8(-1)
 11849 4426 9307      		cpc r25,r19
 11850 4428 01F4      		brne .+2
 11851 442a 00C0      		rjmp .L710
 11852               	.LM1122:
 11853 442c 8D85      		ldd r24,Y+13
 11854 442e 9E85      		ldd r25,Y+14
 11855 4430 40E0      		ldi r20,lo8(0)
 11856 4432 50E0      		ldi r21,hi8(0)
 11857 4434 60E0      		ldi r22,hlo8(0)
 11858 4436 70E0      		ldi r23,hhi8(0)
 11859 4438 0E94 0000 		call move_window
 11860               	.LVL1021:
 11861 443c 182F      		mov r17,r24
 11862               	.LM1123:
 11863 443e 8823      		tst r24
 11864 4440 01F0      		breq .+2
 11865 4442 00C0      		rjmp .L706
 11866               	.LVL1022:
 11867               	.LM1124:
 11868 4444 0D85      		ldd r16,Y+13
 11869 4446 1E85      		ldd r17,Y+14
 11870               	.LBB614:
 11871               	.LBB615:
 11872               	.LM1125:
 11873 4448 6EEF      		ldi r22,lo8(-2)
 11874 444a C62E      		mov r12,r22
 11875 444c 6FEF      		ldi r22,hi8(-2)
 11876 444e D62E      		mov r13,r22
 11877 4450 6FEF      		ldi r22,hlo8(-2)
 11878 4452 E62E      		mov r14,r22
 11879 4454 6FEF      		ldi r22,hhi8(-2)
 11880 4456 F62E      		mov r15,r22
 11881               	.LVL1023:
 11882 4458 C80C      		add r12,r8
 11883 445a D91C      		adc r13,r9
 11884 445c EA1C      		adc r14,r10
 11885 445e FB1C      		adc r15,r11
 11886               	.LM1126:
 11887 4460 F801      		movw r30,r16
 11888 4462 828D      		ldd r24,Z+26
 11889 4464 938D      		ldd r25,Z+27
 11890 4466 A48D      		ldd r26,Z+28
 11891 4468 B58D      		ldd r27,Z+29
 11892               	.LVL1024:
 11893 446a 0297      		sbiw r24,2
 11894 446c A109      		sbc r26,__zero_reg__
 11895 446e B109      		sbc r27,__zero_reg__
 11896 4470 C816      		cp r12,r24
 11897 4472 D906      		cpc r13,r25
 11898 4474 EA06      		cpc r14,r26
 11899 4476 FB06      		cpc r15,r27
 11900 4478 00F0      		brlo .L711
 11901 447a 4424      		clr r4
 11902 447c 5524      		clr r5
 11903 447e 3201      		movw r6,r4
 11904               	.LVL1025:
 11905 4480 00C0      		rjmp .L712
 11906               	.LVL1026:
 11907               	.L711:
 11908               	.LM1127:
 11909 4482 F801      		movw r30,r16
 11910 4484 2281      		ldd r18,Z+2
 11911 4486 30E0      		ldi r19,lo8(0)
 11912 4488 40E0      		ldi r20,lo8(0)
 11913 448a 50E0      		ldi r21,hi8(0)
 11914 448c C701      		movw r24,r14
 11915 448e B601      		movw r22,r12
 11916 4490 0E94 0000 		call __mulsi3
 11917 4494 2B01      		movw r4,r22
 11918 4496 3C01      		movw r6,r24
 11919               	.LVL1027:
 11920 4498 F801      		movw r30,r16
 11921 449a 86A1      		ldd r24,Z+38
 11922 449c 97A1      		ldd r25,Z+39
 11923 449e A0A5      		ldd r26,Z+40
 11924 44a0 B1A5      		ldd r27,Z+41
 11925 44a2 480E      		add r4,r24
 11926 44a4 591E      		adc r5,r25
 11927 44a6 6A1E      		adc r6,r26
 11928 44a8 7B1E      		adc r7,r27
 11929               	.L712:
 11930               	.LBE615:
 11931               	.LBE614:
 11932               	.LM1128:
 11933 44aa 5EE2      		ldi r21,lo8(46)
 11934 44ac 252E      		mov r2,r21
 11935 44ae 312C      		mov r3,__zero_reg__
 11936               	.LVL1028:
 11937 44b0 200E      		add r2,r16
 11938 44b2 311E      		adc r3,r17
 11939 44b4 F101      		movw r30,r2
 11940 44b6 80E0      		ldi r24,lo8(512)
 11941 44b8 92E0      		ldi r25,hi8(512)
 11942               	.LVL1029:
 11943 44ba 00C0      		rjmp .L713
 11944               	.LVL1030:
 11945               	.L714:
 11946               	.LBB616:
 11947               	.LBB617:
 11948               	.LM1129:
 11949 44bc 1192      		st Z+,__zero_reg__
 11950               	.L713:
 11951 44be 0197      		sbiw r24,1
 11952 44c0 2FEF      		ldi r18,hi8(-1)
 11953 44c2 8F3F      		cpi r24,lo8(-1)
 11954 44c4 9207      		cpc r25,r18
 11955 44c6 01F4      		brne .L714
 11956 44c8 F101      		movw r30,r2
 11957 44ca 8BE0      		ldi r24,lo8(11)
 11958 44cc 90E0      		ldi r25,hi8(11)
 11959               	.LVL1031:
 11960               	.LBE617:
 11961               	.LBE616:
 11962               	.LBB618:
 11963               	.LBB619:
 11964 44ce 20E2      		ldi r18,lo8(32)
 11965 44d0 00C0      		rjmp .L715
 11966               	.L716:
 11967 44d2 2193      		st Z+,r18
 11968               	.L715:
 11969 44d4 0197      		sbiw r24,1
 11970 44d6 3FEF      		ldi r19,hi8(-1)
 11971 44d8 8F3F      		cpi r24,lo8(-1)
 11972 44da 9307      		cpc r25,r19
 11973 44dc 01F4      		brne .L716
 11974               	.LBE619:
 11975               	.LBE618:
 11976               	.LM1130:
 11977 44de 8EE2      		ldi r24,lo8(46)
 11978               	.LVL1032:
 11979 44e0 F801      		movw r30,r16
 11980               	.LVL1033:
 11981 44e2 86A7      		std Z+46,r24
 11982               	.LM1131:
 11983 44e4 80E1      		ldi r24,lo8(16)
 11984 44e6 81AF      		std Z+57,r24
 11985               	.LM1132:
 11986 44e8 0E94 0000 		call get_fattime
 11987               	.LM1133:
 11988 44ec 6CA7      		std Y+44,r22
 11989               	.LVL1034:
 11990 44ee 0C5B      		subi r16,lo8(-(68))
 11991 44f0 1F4F      		sbci r17,hi8(-(68))
 11992 44f2 F801      		movw r30,r16
 11993 44f4 6193      		st Z+,r22
 11994 44f6 272F      		mov r18,r23
 11995 44f8 3327      		clr r19
 11996 44fa 2BA7      		std Y+43,r18
 11997 44fc 2193      		st Z+,r18
 11998 44fe 9C01      		movw r18,r24
 11999 4500 4427      		clr r20
 12000 4502 5527      		clr r21
 12001 4504 2AA7      		std Y+42,r18
 12002 4506 2193      		st Z+,r18
 12003 4508 692F      		mov r22,r25
 12004 450a 7727      		clr r23
 12005 450c 8827      		clr r24
 12006 450e 9927      		clr r25
 12007               	.LVL1035:
 12008 4510 69A7      		std Y+41,r22
 12009 4512 6193      		st Z+,r22
 12010               	.LM1134:
 12011 4514 88A6      		std Y+40,r8
 12012 4516 8192      		st Z+,r8
 12013 4518 8F01      		movw r16,r30
 12014 451a 892D      		mov r24,r9
 12015 451c 9927      		clr r25
 12016 451e 8FA3      		std Y+39,r24
 12017 4520 8083      		st Z,r24
 12018               	.LM1135:
 12019 4522 C501      		movw r24,r10
 12020 4524 AA27      		clr r26
 12021 4526 BB27      		clr r27
 12022 4528 8EA3      		std Y+38,r24
 12023 452a 0750      		subi r16,lo8(-(-7))
 12024 452c 1040      		sbci r17,hi8(-(-7))
 12025 452e F801      		movw r30,r16
 12026 4530 8193      		st Z+,r24
 12027 4532 8F01      		movw r16,r30
 12028 4534 892F      		mov r24,r25
 12029 4536 9927      		clr r25
 12030 4538 8DA3      		std Y+37,r24
 12031 453a 8083      		st Z,r24
 12032 453c 0354      		subi r16,lo8(-(-67))
 12033 453e 1040      		sbci r17,hi8(-(-67))
 12034 4540 F101      		movw r30,r2
 12035               	.LVL1036:
 12036 4542 20E2      		ldi r18,lo8(32)
 12037 4544 30E0      		ldi r19,hi8(32)
 12038               	.LVL1037:
 12039 4546 00C0      		rjmp .L717
 12040               	.L718:
 12041               	.LBB620:
 12042               	.LBB621:
 12043               	.LM1136:
 12044 4548 8081      		ld r24,Z
 12045 454a 80A3      		std Z+32,r24
 12046 454c 3196      		adiw r30,1
 12047               	.L717:
 12048 454e 2150      		subi r18,lo8(-(-1))
 12049 4550 3040      		sbci r19,hi8(-(-1))
 12050 4552 8FEF      		ldi r24,hi8(-1)
 12051 4554 2F3F      		cpi r18,lo8(-1)
 12052 4556 3807      		cpc r19,r24
 12053 4558 01F4      		brne .L718
 12054               	.LBE621:
 12055               	.LBE620:
 12056               	.LM1137:
 12057 455a 015B      		subi r16,lo8(-(79))
 12058 455c 1F4F      		sbci r17,hi8(-(79))
 12059 455e 8EE2      		ldi r24,lo8(46)
 12060 4560 F801      		movw r30,r16
 12061               	.LVL1038:
 12062 4562 8083      		st Z,r24
 12063 4564 0F54      		subi r16,lo8(-(-79))
 12064 4566 1040      		sbci r17,hi8(-(-79))
 12065               	.LM1138:
 12066 4568 2B89      		ldd r18,Y+19
 12067 456a 3C89      		ldd r19,Y+20
 12068 456c 4D89      		ldd r20,Y+21
 12069 456e 5E89      		ldd r21,Y+22
 12070               	.LVL1039:
 12071               	.LM1139:
 12072 4570 ED85      		ldd r30,Y+13
 12073 4572 FE85      		ldd r31,Y+14
 12074 4574 8081      		ld r24,Z
 12075 4576 8330      		cpi r24,lo8(3)
 12076 4578 01F4      		brne .L719
 12077 457a 82A1      		ldd r24,Z+34
 12078 457c 93A1      		ldd r25,Z+35
 12079 457e A4A1      		ldd r26,Z+36
 12080 4580 B5A1      		ldd r27,Z+37
 12081 4582 2817      		cp r18,r24
 12082 4584 3907      		cpc r19,r25
 12083 4586 4A07      		cpc r20,r26
 12084 4588 5B07      		cpc r21,r27
 12085 458a 01F4      		brne .L719
 12086 458c 20E0      		ldi r18,lo8(0)
 12087 458e 30E0      		ldi r19,hi8(0)
 12088 4590 40E0      		ldi r20,hlo8(0)
 12089 4592 50E0      		ldi r21,hhi8(0)
 12090               	.L719:
 12091               	.LM1140:
 12092 4594 0859      		subi r16,lo8(-(104))
 12093 4596 1F4F      		sbci r17,hi8(-(104))
 12094 4598 F801      		movw r30,r16
 12095 459a 2193      		st Z+,r18
 12096 459c 8F01      		movw r16,r30
 12097 459e 832F      		mov r24,r19
 12098 45a0 9927      		clr r25
 12099 45a2 8083      		st Z,r24
 12100               	.LM1141:
 12101 45a4 CA01      		movw r24,r20
 12102 45a6 AA27      		clr r26
 12103 45a8 BB27      		clr r27
 12104 45aa 0750      		subi r16,lo8(-(-7))
 12105 45ac 1040      		sbci r17,hi8(-(-7))
 12106 45ae F801      		movw r30,r16
 12107 45b0 8193      		st Z+,r24
 12108 45b2 892F      		mov r24,r25
 12109 45b4 9927      		clr r25
 12110 45b6 8083      		st Z,r24
 12111 45b8 7301      		movw r14,r6
 12112 45ba 6201      		movw r12,r4
 12113               	.LVL1040:
 12114               	.LM1142:
 12115 45bc 01E0      		ldi r16,lo8(1)
 12116 45be 00C0      		rjmp .L720
 12117               	.LVL1041:
 12118               	.L723:
 12119               	.LM1143:
 12120 45c0 C2A6      		std Z+42,r12
 12121 45c2 D3A6      		std Z+43,r13
 12122 45c4 E4A6      		std Z+44,r14
 12123 45c6 F5A6      		std Z+45,r15
 12124               	.LM1144:
 12125 45c8 0483      		std Z+4,r16
 12126               	.LM1145:
 12127 45ca CF01      		movw r24,r30
 12128 45cc 40E0      		ldi r20,lo8(0)
 12129 45ce 50E0      		ldi r21,hi8(0)
 12130 45d0 60E0      		ldi r22,hlo8(0)
 12131 45d2 70E0      		ldi r23,hhi8(0)
 12132 45d4 0E94 0000 		call move_window
 12133               	.LVL1042:
 12134 45d8 182F      		mov r17,r24
 12135               	.LM1146:
 12136 45da 8823      		tst r24
 12137 45dc 01F0      		breq .+2
 12138 45de 00C0      		rjmp .L706
 12139               	.LVL1043:
 12140 45e0 F101      		movw r30,r2
 12141 45e2 80E0      		ldi r24,lo8(512)
 12142 45e4 92E0      		ldi r25,hi8(512)
 12143               	.LVL1044:
 12144 45e6 00C0      		rjmp .L721
 12145               	.LVL1045:
 12146               	.L722:
 12147               	.LBB622:
 12148               	.LBB623:
 12149               	.LM1147:
 12150 45e8 1192      		st Z+,__zero_reg__
 12151               	.L721:
 12152 45ea 0197      		sbiw r24,1
 12153 45ec 2FEF      		ldi r18,hi8(-1)
 12154 45ee 8F3F      		cpi r24,lo8(-1)
 12155 45f0 9207      		cpc r25,r18
 12156 45f2 01F4      		brne .L722
 12157               	.LBE623:
 12158               	.LBE622:
 12159               	.LM1148:
 12160 45f4 0894      		sec
 12161 45f6 C11C      		adc r12,__zero_reg__
 12162 45f8 D11C      		adc r13,__zero_reg__
 12163 45fa E11C      		adc r14,__zero_reg__
 12164 45fc F11C      		adc r15,__zero_reg__
 12165               	.LVL1046:
 12166               	.L720:
 12167               	.LM1149:
 12168 45fe ED85      		ldd r30,Y+13
 12169 4600 FE85      		ldd r31,Y+14
 12170 4602 9C2D      		mov r25,r12
 12171               	.LVL1047:
 12172 4604 9419      		sub r25,r4
 12173 4606 8281      		ldd r24,Z+2
 12174               	.LVL1048:
 12175 4608 9817      		cp r25,r24
 12176 460a 00F0      		brlo .L723
 12177               	.LM1150:
 12178 460c CE01      		movw r24,r28
 12179 460e 0D96      		adiw r24,13
 12180 4610 0E94 0000 		call dir_register
 12181               	.LVL1049:
 12182 4614 182F      		mov r17,r24
 12183               	.LM1151:
 12184 4616 8823      		tst r24
 12185 4618 01F0      		breq .L724
 12186               	.LVL1050:
 12187               	.LM1152:
 12188 461a 8D85      		ldd r24,Y+13
 12189 461c 9E85      		ldd r25,Y+14
 12190               	.LVL1051:
 12191 461e B501      		movw r22,r10
 12192 4620 A401      		movw r20,r8
 12193 4622 0E94 0000 		call remove_chain
 12194 4626 00C0      		rjmp .L706
 12195               	.LVL1052:
 12196               	.L724:
 12197               	.LM1153:
 12198 4628 EF8D      		ldd r30,Y+31
 12199 462a F8A1      		ldd r31,Y+32
 12200               	.LVL1053:
 12201               	.LM1154:
 12202 462c 80E1      		ldi r24,lo8(16)
 12203               	.LVL1054:
 12204 462e 8387      		std Z+11,r24
 12205               	.LM1155:
 12206 4630 3CA5      		ldd r19,Y+44
 12207 4632 368B      		std Z+22,r19
 12208 4634 8BA5      		ldd r24,Y+43
 12209 4636 878B      		std Z+23,r24
 12210 4638 2AA5      		ldd r18,Y+42
 12211 463a 208F      		std Z+24,r18
 12212 463c 39A5      		ldd r19,Y+41
 12213 463e 318F      		std Z+25,r19
 12214               	.LM1156:
 12215 4640 88A5      		ldd r24,Y+40
 12216 4642 828F      		std Z+26,r24
 12217 4644 2FA1      		ldd r18,Y+39
 12218 4646 238F      		std Z+27,r18
 12219               	.LM1157:
 12220 4648 3EA1      		ldd r19,Y+38
 12221 464a 348B      		std Z+20,r19
 12222 464c 8DA1      		ldd r24,Y+37
 12223 464e 858B      		std Z+21,r24
 12224               	.LM1158:
 12225 4650 ED85      		ldd r30,Y+13
 12226 4652 FE85      		ldd r31,Y+14
 12227               	.LVL1055:
 12228 4654 81E0      		ldi r24,lo8(1)
 12229 4656 8483      		std Z+4,r24
 12230               	.LM1159:
 12231 4658 CF01      		movw r24,r30
 12232 465a 0E94 0000 		call sync
 12233 465e 182F      		mov r17,r24
 12234               	.LVL1056:
 12235               	.L706:
 12236               	.LM1160:
 12237 4660 812F      		mov r24,r17
 12238               	/* epilogue start */
 12239 4662 AC96      		adiw r28,44
 12240 4664 CDBF      		out __SP_L__,r28
 12241 4666 DEBF      		out __SP_H__,r29
 12242 4668 CF91      		pop r28
 12243 466a DF91      		pop r29
 12244 466c 1F91      		pop r17
 12245               	.LVL1057:
 12246 466e 0F91      		pop r16
 12247 4670 FF90      		pop r15
 12248 4672 EF90      		pop r14
 12249 4674 DF90      		pop r13
 12250 4676 CF90      		pop r12
 12251 4678 BF90      		pop r11
 12252 467a AF90      		pop r10
 12253 467c 9F90      		pop r9
 12254 467e 8F90      		pop r8
 12255               	.LVL1058:
 12256 4680 7F90      		pop r7
 12257 4682 6F90      		pop r6
 12258 4684 5F90      		pop r5
 12259 4686 4F90      		pop r4
 12260               	.LVL1059:
 12261 4688 3F90      		pop r3
 12262 468a 2F90      		pop r2
 12263               	.LVL1060:
 12264 468c 0895      		ret
 12265               	.LVL1061:
 12266               	.L710:
 12267               	.LM1161:
 12268 468e 11E0      		ldi r17,lo8(1)
 12269 4690 00C0      		rjmp .L706
 12270               	.LFE78:
 12272               	.global	f_chmod
 12274               	f_chmod:
 12275               	.LFB79:
 12276               	.LM1162:
 12277               	.LVL1062:
 12278 4692 EF92      		push r14
 12279 4694 FF92      		push r15
 12280 4696 0F93      		push r16
 12281 4698 1F93      		push r17
 12282 469a DF93      		push r29
 12283 469c CF93      		push r28
 12284 469e CDB7      		in r28,__SP_L__
 12285 46a0 DEB7      		in r29,__SP_H__
 12286 46a2 A497      		sbiw r28,36
 12287 46a4 CDBF      		out __SP_L__,r28
 12288 46a6 DEBF      		out __SP_H__,r29
 12289               	/* prologue: function */
 12290               	/* frame size = 36 */
 12291 46a8 8BA3      		std Y+35,r24
 12292 46aa 9CA3      		std Y+36,r25
 12293 46ac E62E      		mov r14,r22
 12294 46ae F42E      		mov r15,r20
 12295               	.LM1163:
 12296 46b0 8E01      		movw r16,r28
 12297 46b2 035F      		subi r16,lo8(-(13))
 12298 46b4 1F4F      		sbci r17,hi8(-(13))
 12299 46b6 CE01      		movw r24,r28
 12300               	.LVL1063:
 12301 46b8 8396      		adiw r24,35
 12302 46ba B801      		movw r22,r16
 12303               	.LVL1064:
 12304 46bc 41E0      		ldi r20,lo8(1)
 12305               	.LVL1065:
 12306 46be 0E94 0000 		call chk_mounted
 12307               	.LM1164:
 12308 46c2 8823      		tst r24
 12309               	.LVL1066:
 12310 46c4 01F4      		brne .L727
 12311               	.LM1165:
 12312 46c6 CE01      		movw r24,r28
 12313               	.LVL1067:
 12314 46c8 0196      		adiw r24,1
 12315 46ca 89A3      		std Y+33,r24
 12316 46cc 9AA3      		std Y+34,r25
 12317               	.LM1166:
 12318 46ce 6BA1      		ldd r22,Y+35
 12319 46d0 7CA1      		ldd r23,Y+36
 12320 46d2 C801      		movw r24,r16
 12321 46d4 0E94 0000 		call follow_path
 12322               	.LM1167:
 12323 46d8 8823      		tst r24
 12324               	.LVL1068:
 12325 46da 01F4      		brne .L727
 12326               	.LM1168:
 12327 46dc EF8D      		ldd r30,Y+31
 12328 46de F8A1      		ldd r31,Y+32
 12329               	.LVL1069:
 12330               	.LM1169:
 12331 46e0 3097      		sbiw r30,0
 12332 46e2 01F4      		brne .L728
 12333 46e4 86E0      		ldi r24,lo8(6)
 12334 46e6 00C0      		rjmp .L727
 12335               	.L728:
 12336               	.LM1170:
 12337 46e8 9F2D      		mov r25,r15
 12338 46ea 9772      		andi r25,lo8(39)
 12339               	.LVL1070:
 12340               	.LM1171:
 12341 46ec 892F      		mov r24,r25
 12342               	.LVL1071:
 12343 46ee 8095      		com r24
 12344 46f0 2385      		ldd r18,Z+11
 12345 46f2 8223      		and r24,r18
 12346 46f4 9E21      		and r25,r14
 12347 46f6 892B      		or r24,r25
 12348 46f8 8387      		std Z+11,r24
 12349               	.LM1172:
 12350 46fa ED85      		ldd r30,Y+13
 12351 46fc FE85      		ldd r31,Y+14
 12352               	.LVL1072:
 12353 46fe 81E0      		ldi r24,lo8(1)
 12354 4700 8483      		std Z+4,r24
 12355               	.LM1173:
 12356 4702 CF01      		movw r24,r30
 12357 4704 0E94 0000 		call sync
 12358               	.LVL1073:
 12359               	.L727:
 12360               	.LVL1074:
 12361               	/* epilogue start */
 12362               	.LM1174:
 12363 4708 A496      		adiw r28,36
 12364 470a CDBF      		out __SP_L__,r28
 12365 470c DEBF      		out __SP_H__,r29
 12366 470e CF91      		pop r28
 12367 4710 DF91      		pop r29
 12368 4712 1F91      		pop r17
 12369 4714 0F91      		pop r16
 12370 4716 FF90      		pop r15
 12371               	.LVL1075:
 12372 4718 EF90      		pop r14
 12373               	.LVL1076:
 12374 471a 0895      		ret
 12375               	.LFE79:
 12377               	.global	f_utime
 12379               	f_utime:
 12380               	.LFB80:
 12381               	.LM1175:
 12382               	.LVL1077:
 12383 471c EF92      		push r14
 12384 471e FF92      		push r15
 12385 4720 0F93      		push r16
 12386 4722 1F93      		push r17
 12387 4724 DF93      		push r29
 12388 4726 CF93      		push r28
 12389 4728 CDB7      		in r28,__SP_L__
 12390 472a DEB7      		in r29,__SP_H__
 12391 472c A497      		sbiw r28,36
 12392 472e CDBF      		out __SP_L__,r28
 12393 4730 DEBF      		out __SP_H__,r29
 12394               	/* prologue: function */
 12395               	/* frame size = 36 */
 12396 4732 8BA3      		std Y+35,r24
 12397 4734 9CA3      		std Y+36,r25
 12398 4736 8B01      		movw r16,r22
 12399               	.LM1176:
 12400 4738 EDE0      		ldi r30,lo8(13)
 12401 473a EE2E      		mov r14,r30
 12402 473c F12C      		mov r15,__zero_reg__
 12403 473e EC0E      		add r14,r28
 12404 4740 FD1E      		adc r15,r29
 12405 4742 CE01      		movw r24,r28
 12406               	.LVL1078:
 12407 4744 8396      		adiw r24,35
 12408 4746 B701      		movw r22,r14
 12409               	.LVL1079:
 12410 4748 41E0      		ldi r20,lo8(1)
 12411 474a 0E94 0000 		call chk_mounted
 12412               	.LM1177:
 12413 474e 8823      		tst r24
 12414               	.LVL1080:
 12415 4750 01F4      		brne .L731
 12416               	.LM1178:
 12417 4752 CE01      		movw r24,r28
 12418               	.LVL1081:
 12419 4754 0196      		adiw r24,1
 12420 4756 89A3      		std Y+33,r24
 12421 4758 9AA3      		std Y+34,r25
 12422               	.LM1179:
 12423 475a 6BA1      		ldd r22,Y+35
 12424 475c 7CA1      		ldd r23,Y+36
 12425 475e C701      		movw r24,r14
 12426 4760 0E94 0000 		call follow_path
 12427               	.LM1180:
 12428 4764 8823      		tst r24
 12429               	.LVL1082:
 12430 4766 01F4      		brne .L731
 12431               	.LM1181:
 12432 4768 EF8D      		ldd r30,Y+31
 12433 476a F8A1      		ldd r31,Y+32
 12434               	.LVL1083:
 12435               	.LM1182:
 12436 476c 3097      		sbiw r30,0
 12437 476e 01F4      		brne .L732
 12438 4770 86E0      		ldi r24,lo8(6)
 12439 4772 00C0      		rjmp .L731
 12440               	.L732:
 12441               	.LM1183:
 12442 4774 D801      		movw r26,r16
 12443 4776 1696      		adiw r26,6
 12444 4778 8C91      		ld r24,X
 12445 477a 1697      		sbiw r26,6
 12446               	.LVL1084:
 12447 477c 868B      		std Z+22,r24
 12448 477e 1796      		adiw r26,7
 12449 4780 8C91      		ld r24,X
 12450 4782 1797      		sbiw r26,7
 12451 4784 878B      		std Z+23,r24
 12452               	.LM1184:
 12453 4786 1496      		adiw r26,4
 12454 4788 8C91      		ld r24,X
 12455 478a 1497      		sbiw r26,4
 12456 478c 808F      		std Z+24,r24
 12457 478e 1596      		adiw r26,5
 12458 4790 8C91      		ld r24,X
 12459 4792 818F      		std Z+25,r24
 12460               	.LM1185:
 12461 4794 ED85      		ldd r30,Y+13
 12462 4796 FE85      		ldd r31,Y+14
 12463               	.LVL1085:
 12464 4798 81E0      		ldi r24,lo8(1)
 12465 479a 8483      		std Z+4,r24
 12466               	.LM1186:
 12467 479c CF01      		movw r24,r30
 12468 479e 0E94 0000 		call sync
 12469               	.LVL1086:
 12470               	.L731:
 12471               	.LVL1087:
 12472               	/* epilogue start */
 12473               	.LM1187:
 12474 47a2 A496      		adiw r28,36
 12475 47a4 CDBF      		out __SP_L__,r28
 12476 47a6 DEBF      		out __SP_H__,r29
 12477 47a8 CF91      		pop r28
 12478 47aa DF91      		pop r29
 12479 47ac 1F91      		pop r17
 12480 47ae 0F91      		pop r16
 12481               	.LVL1088:
 12482 47b0 FF90      		pop r15
 12483 47b2 EF90      		pop r14
 12484 47b4 0895      		ret
 12485               	.LFE80:
 12487               	.global	f_rename
 12489               	f_rename:
 12490               	.LFB81:
 12491               	.LM1188:
 12492               	.LVL1089:
 12493 47b6 CF92      		push r12
 12494 47b8 DF92      		push r13
 12495 47ba EF92      		push r14
 12496 47bc FF92      		push r15
 12497 47be 0F93      		push r16
 12498 47c0 1F93      		push r17
 12499 47c2 DF93      		push r29
 12500 47c4 CF93      		push r28
 12501 47c6 CDB7      		in r28,__SP_L__
 12502 47c8 DEB7      		in r29,__SP_H__
 12503 47ca CF54      		subi r28,lo8(-(-79))
 12504 47cc D040      		sbci r29,hi8(-(-79))
 12505 47ce CDBF      		out __SP_L__,r28
 12506 47d0 DEBF      		out __SP_H__,r29
 12507               	/* prologue: function */
 12508               	/* frame size = 79 */
 12509 47d2 8E01      		movw r16,r28
 12510 47d4 025B      		subi r16,lo8(-(78))
 12511 47d6 1F4F      		sbci r17,hi8(-(78))
 12512 47d8 D801      		movw r26,r16
 12513 47da 8D93      		st X+,r24
 12514 47dc 9C93      		st X,r25
 12515 47de 6B01      		movw r12,r22
 12516               	.LM1189:
 12517 47e0 CE01      		movw r24,r28
 12518               	.LVL1090:
 12519 47e2 0196      		adiw r24,1
 12520 47e4 8EAB      		std Y+54,r24
 12521 47e6 9FAB      		std Y+55,r25
 12522               	.LM1190:
 12523 47e8 82E2      		ldi r24,lo8(34)
 12524 47ea E82E      		mov r14,r24
 12525 47ec F12C      		mov r15,__zero_reg__
 12526 47ee EC0E      		add r14,r28
 12527 47f0 FD1E      		adc r15,r29
 12528 47f2 C801      		movw r24,r16
 12529 47f4 B701      		movw r22,r14
 12530               	.LVL1091:
 12531 47f6 41E0      		ldi r20,lo8(1)
 12532 47f8 0E94 0000 		call chk_mounted
 12533               	.LM1191:
 12534 47fc 8823      		tst r24
 12535               	.LVL1092:
 12536 47fe 01F0      		breq .+2
 12537 4800 00C0      		rjmp .L735
 12538               	.LM1192:
 12539 4802 8AA1      		ldd r24,Y+34
 12540 4804 9BA1      		ldd r25,Y+35
 12541               	.LVL1093:
 12542 4806 88AF      		std Y+56,r24
 12543 4808 99AF      		std Y+57,r25
 12544               	.LM1193:
 12545 480a F801      		movw r30,r16
 12546 480c 6081      		ld r22,Z
 12547 480e 7181      		ldd r23,Z+1
 12548 4810 C701      		movw r24,r14
 12549 4812 0E94 0000 		call follow_path
 12550               	.LM1194:
 12551 4816 8823      		tst r24
 12552               	.LVL1094:
 12553 4818 01F0      		breq .+2
 12554 481a 00C0      		rjmp .L735
 12555               	.LVL1095:
 12556               	.LM1195:
 12557 481c 8CA9      		ldd r24,Y+52
 12558 481e 9DA9      		ldd r25,Y+53
 12559               	.LVL1096:
 12560 4820 0097      		sbiw r24,0
 12561 4822 01F4      		brne .L736
 12562 4824 84E0      		ldi r24,lo8(4)
 12563               	.LVL1097:
 12564 4826 00C0      		rjmp .L735
 12565               	.LVL1098:
 12566               	.L736:
 12567 4828 DC01      		movw r26,r24
 12568 482a FE01      		movw r30,r28
 12569               	.LVL1099:
 12570 482c 3D96      		adiw r30,13
 12571 482e 00C0      		rjmp .L737
 12572               	.L738:
 12573               	.LBB624:
 12574               	.LBB625:
 12575               	.LM1196:
 12576 4830 1A96      		adiw r26,10
 12577 4832 8C91      		ld r24,X
 12578 4834 1A97      		sbiw r26,10
 12579 4836 8193      		st Z+,r24
 12580               	.L737:
 12581 4838 1196      		adiw r26,1
 12582 483a EE15      		cp r30,r14
 12583 483c FF05      		cpc r31,r15
 12584 483e 01F4      		brne .L738
 12585               	.LBE625:
 12586               	.LBE624:
 12587               	.LBB626:
 12588               	.LBB627:
 12589               	.LM1197:
 12590 4840 DE01      		movw r26,r28
 12591               	.LVL1100:
 12592 4842 D896      		adiw r26,56
 12593               	.LM1198:
 12594 4844 F701      		movw r30,r14
 12595               	.LVL1101:
 12596               	.LM1199:
 12597 4846 9D01      		movw r18,r26
 12598 4848 00C0      		rjmp .L739
 12599               	.L740:
 12600 484a 8191      		ld r24,Z+
 12601 484c 8D93      		st X+,r24
 12602               	.L739:
 12603 484e E217      		cp r30,r18
 12604 4850 F307      		cpc r31,r19
 12605 4852 01F4      		brne .L740
 12606               	.LBE627:
 12607               	.LBE626:
 12608               	.LM1200:
 12609 4854 8E01      		movw r16,r28
 12610 4856 085C      		subi r16,lo8(-(56))
 12611 4858 1F4F      		sbci r17,hi8(-(56))
 12612 485a C801      		movw r24,r16
 12613 485c B601      		movw r22,r12
 12614 485e 0E94 0000 		call follow_path
 12615               	.LVL1102:
 12616               	.LM1201:
 12617 4862 8823      		tst r24
 12618               	.LVL1103:
 12619 4864 01F4      		brne .L741
 12620 4866 88E0      		ldi r24,lo8(8)
 12621 4868 00C0      		rjmp .L735
 12622               	.L741:
 12623               	.LM1202:
 12624 486a 8430      		cpi r24,lo8(4)
 12625 486c 01F0      		breq .+2
 12626 486e 00C0      		rjmp .L735
 12627               	.LM1203:
 12628 4870 C801      		movw r24,r16
 12629               	.LVL1104:
 12630 4872 0E94 0000 		call dir_register
 12631               	.LM1204:
 12632 4876 8823      		tst r24
 12633               	.LVL1105:
 12634 4878 01F0      		breq .+2
 12635 487a 00C0      		rjmp .L735
 12636               	.LM1205:
 12637 487c FE01      		movw r30,r28
 12638 487e E65B      		subi r30,lo8(-(74))
 12639 4880 FF4F      		sbci r31,hi8(-(74))
 12640 4882 4081      		ld r20,Z
 12641 4884 5181      		ldd r21,Z+1
 12642               	.LVL1106:
 12643 4886 DA01      		movw r26,r20
 12644 4888 FE01      		movw r30,r28
 12645               	.LVL1107:
 12646 488a 3F96      		adiw r30,15
 12647 488c 00C0      		rjmp .L742
 12648               	.L743:
 12649               	.LBB628:
 12650               	.LBB629:
 12651               	.LM1206:
 12652 488e 8191      		ld r24,Z+
 12653               	.LVL1108:
 12654 4890 1C96      		adiw r26,12
 12655 4892 8C93      		st X,r24
 12656 4894 1C97      		sbiw r26,12
 12657               	.LVL1109:
 12658               	.L742:
 12659 4896 1196      		adiw r26,1
 12660 4898 EE15      		cp r30,r14
 12661 489a FF05      		cpc r31,r15
 12662 489c 01F4      		brne .L743
 12663               	.LBE629:
 12664               	.LBE628:
 12665               	.LM1207:
 12666 489e 8D85      		ldd r24,Y+13
 12667               	.LVL1110:
 12668 48a0 8062      		ori r24,lo8(32)
 12669 48a2 DA01      		movw r26,r20
 12670 48a4 1B96      		adiw r26,11
 12671 48a6 8C93      		st X,r24
 12672 48a8 1B97      		sbiw r26,11
 12673               	.LM1208:
 12674 48aa EAA1      		ldd r30,Y+34
 12675 48ac FBA1      		ldd r31,Y+35
 12676               	.LVL1111:
 12677 48ae 81E0      		ldi r24,lo8(1)
 12678 48b0 8483      		std Z+4,r24
 12679               	.LM1209:
 12680 48b2 1B96      		adiw r26,11
 12681 48b4 8C91      		ld r24,X
 12682 48b6 1B97      		sbiw r26,11
 12683 48b8 84FF      		sbrs r24,4
 12684 48ba 00C0      		rjmp .L744
 12685               	.LM1210:
 12686 48bc C8AC      		ldd r12,Y+56
 12687 48be D9AC      		ldd r13,Y+57
 12688               	.LVL1112:
 12689               	.LBB630:
 12690               	.LBB631:
 12691               	.LM1211:
 12692 48c0 5A96      		adiw r26,26
 12693 48c2 2C91      		ld r18,X
 12694 48c4 5A97      		sbiw r26,26
 12695 48c6 30E0      		ldi r19,lo8(0)
 12696 48c8 5496      		adiw r26,20
 12697 48ca 8C91      		ld r24,X
 12698 48cc 5497      		sbiw r26,20
 12699 48ce 90E0      		ldi r25,lo8(0)
 12700 48d0 282B      		or r18,r24
 12701 48d2 392B      		or r19,r25
 12702 48d4 5596      		adiw r26,21
 12703 48d6 9C91      		ld r25,X
 12704 48d8 5597      		sbiw r26,21
 12705 48da 80E0      		ldi r24,lo8(0)
 12706 48dc 282B      		or r18,r24
 12707 48de 392B      		or r19,r25
 12708 48e0 5B96      		adiw r26,27
 12709 48e2 9C91      		ld r25,X
 12710 48e4 80E0      		ldi r24,lo8(0)
 12711 48e6 282B      		or r18,r24
 12712 48e8 392B      		or r19,r25
 12713 48ea 7901      		movw r14,r18
 12714               	.LVL1113:
 12715 48ec 00E0      		ldi r16,lo8(0)
 12716 48ee 10E0      		ldi r17,hi8(0)
 12717               	.LVL1114:
 12718 48f0 8EEF      		ldi r24,lo8(-2)
 12719 48f2 9FEF      		ldi r25,hi8(-2)
 12720 48f4 AFEF      		ldi r26,hlo8(-2)
 12721 48f6 BFEF      		ldi r27,hhi8(-2)
 12722 48f8 E80E      		add r14,r24
 12723 48fa F91E      		adc r15,r25
 12724 48fc 0A1F      		adc r16,r26
 12725 48fe 1B1F      		adc r17,r27
 12726               	.LVL1115:
 12727               	.LM1212:
 12728 4900 F601      		movw r30,r12
 12729 4902 828D      		ldd r24,Z+26
 12730 4904 938D      		ldd r25,Z+27
 12731 4906 A48D      		ldd r26,Z+28
 12732 4908 B58D      		ldd r27,Z+29
 12733 490a 0297      		sbiw r24,2
 12734 490c A109      		sbc r26,__zero_reg__
 12735 490e B109      		sbc r27,__zero_reg__
 12736 4910 E816      		cp r14,r24
 12737 4912 F906      		cpc r15,r25
 12738 4914 0A07      		cpc r16,r26
 12739 4916 1B07      		cpc r17,r27
 12740 4918 00F0      		brlo .+2
 12741 491a 00C0      		rjmp .L745
 12742               	.LM1213:
 12743 491c 2281      		ldd r18,Z+2
 12744 491e 30E0      		ldi r19,lo8(0)
 12745 4920 40E0      		ldi r20,lo8(0)
 12746 4922 50E0      		ldi r21,hi8(0)
 12747               	.LVL1116:
 12748 4924 C801      		movw r24,r16
 12749 4926 B701      		movw r22,r14
 12750 4928 0E94 0000 		call __mulsi3
 12751 492c AB01      		movw r20,r22
 12752 492e BC01      		movw r22,r24
 12753               	.LVL1117:
 12754 4930 F601      		movw r30,r12
 12755 4932 86A1      		ldd r24,Z+38
 12756 4934 97A1      		ldd r25,Z+39
 12757 4936 A0A5      		ldd r26,Z+40
 12758 4938 B1A5      		ldd r27,Z+41
 12759 493a 480F      		add r20,r24
 12760 493c 591F      		adc r21,r25
 12761 493e 6A1F      		adc r22,r26
 12762 4940 7B1F      		adc r23,r27
 12763               	.LBE631:
 12764               	.LBE630:
 12765               	.LM1214:
 12766 4942 4115      		cp r20,__zero_reg__
 12767 4944 5105      		cpc r21,__zero_reg__
 12768 4946 6105      		cpc r22,__zero_reg__
 12769 4948 7105      		cpc r23,__zero_reg__
 12770 494a 01F4      		brne .+2
 12771 494c 00C0      		rjmp .L745
 12772               	.LM1215:
 12773 494e C601      		movw r24,r12
 12774 4950 0E94 0000 		call move_window
 12775               	.LVL1118:
 12776               	.LM1216:
 12777 4954 A8AD      		ldd r26,Y+56
 12778 4956 B9AD      		ldd r27,Y+57
 12779               	.LM1217:
 12780 4958 8823      		tst r24
 12781               	.LVL1119:
 12782 495a 01F0      		breq .+2
 12783 495c 00C0      		rjmp .L735
 12784               	.LM1218:
 12785 495e BD01      		movw r22,r26
 12786               	.LVL1120:
 12787 4960 625B      		subi r22,lo8(-(78))
 12788 4962 7F4F      		sbci r23,hi8(-(78))
 12789               	.LM1219:
 12790 4964 FB01      		movw r30,r22
 12791 4966 8181      		ldd r24,Z+1
 12792               	.LVL1121:
 12793 4968 8E32      		cpi r24,lo8(46)
 12794 496a 01F4      		brne .L744
 12795               	.LM1220:
 12796 496c 8C91      		ld r24,X
 12797 496e 8330      		cpi r24,lo8(3)
 12798 4970 01F4      		brne .L746
 12799 4972 FE01      		movw r30,r28
 12800 4974 FE96      		adiw r30,62
 12801 4976 2081      		ld r18,Z
 12802 4978 3181      		ldd r19,Z+1
 12803 497a 4281      		ldd r20,Z+2
 12804 497c 5381      		ldd r21,Z+3
 12805 497e 9296      		adiw r26,34
 12806 4980 8D91      		ld r24,X+
 12807 4982 9D91      		ld r25,X+
 12808 4984 0D90      		ld __tmp_reg__,X+
 12809 4986 BC91      		ld r27,X
 12810 4988 A02D      		mov r26,__tmp_reg__
 12811 498a 2817      		cp r18,r24
 12812 498c 3907      		cpc r19,r25
 12813 498e 4A07      		cpc r20,r26
 12814 4990 5B07      		cpc r21,r27
 12815 4992 01F4      		brne .L746
 12816 4994 20E0      		ldi r18,lo8(0)
 12817 4996 30E0      		ldi r19,hi8(0)
 12818 4998 40E0      		ldi r20,hlo8(0)
 12819 499a 50E0      		ldi r21,hhi8(0)
 12820               	.LVL1122:
 12821 499c 00C0      		rjmp .L747
 12822               	.LVL1123:
 12823               	.L746:
 12824 499e FE01      		movw r30,r28
 12825 49a0 FE96      		adiw r30,62
 12826 49a2 2081      		ld r18,Z
 12827 49a4 3181      		ldd r19,Z+1
 12828 49a6 4281      		ldd r20,Z+2
 12829 49a8 5381      		ldd r21,Z+3
 12830               	.LVL1124:
 12831               	.L747:
 12832               	.LM1221:
 12833 49aa DB01      		movw r26,r22
 12834 49ac 5A96      		adiw r26,26
 12835 49ae 2C93      		st X,r18
 12836 49b0 5A97      		sbiw r26,26
 12837 49b2 832F      		mov r24,r19
 12838 49b4 9927      		clr r25
 12839 49b6 5B96      		adiw r26,27
 12840 49b8 8C93      		st X,r24
 12841               	.LM1222:
 12842 49ba CA01      		movw r24,r20
 12843 49bc AA27      		clr r26
 12844 49be BB27      		clr r27
 12845 49c0 FB01      		movw r30,r22
 12846 49c2 848B      		std Z+20,r24
 12847 49c4 892F      		mov r24,r25
 12848 49c6 9927      		clr r25
 12849 49c8 858B      		std Z+21,r24
 12850               	.LM1223:
 12851 49ca E8AD      		ldd r30,Y+56
 12852 49cc F9AD      		ldd r31,Y+57
 12853 49ce 81E0      		ldi r24,lo8(1)
 12854 49d0 8483      		std Z+4,r24
 12855               	.LVL1125:
 12856               	.L744:
 12857               	.LM1224:
 12858 49d2 CE01      		movw r24,r28
 12859 49d4 8296      		adiw r24,34
 12860 49d6 0E94 0000 		call dir_remove
 12861               	.LVL1126:
 12862               	.LM1225:
 12863 49da 8823      		tst r24
 12864               	.LVL1127:
 12865 49dc 01F4      		brne .L735
 12866               	.LM1226:
 12867 49de 8AA1      		ldd r24,Y+34
 12868 49e0 9BA1      		ldd r25,Y+35
 12869               	.LVL1128:
 12870 49e2 0E94 0000 		call sync
 12871 49e6 00C0      		rjmp .L735
 12872               	.LVL1129:
 12873               	.L745:
 12874 49e8 82E0      		ldi r24,lo8(2)
 12875               	.LVL1130:
 12876               	.L735:
 12877               	.LVL1131:
 12878               	/* epilogue start */
 12879               	.LM1227:
 12880 49ea C15B      		subi r28,lo8(-(79))
 12881 49ec DF4F      		sbci r29,hi8(-(79))
 12882 49ee CDBF      		out __SP_L__,r28
 12883 49f0 DEBF      		out __SP_H__,r29
 12884 49f2 CF91      		pop r28
 12885 49f4 DF91      		pop r29
 12886 49f6 1F91      		pop r17
 12887 49f8 0F91      		pop r16
 12888               	.LVL1132:
 12889 49fa FF90      		pop r15
 12890 49fc EF90      		pop r14
 12891               	.LVL1133:
 12892 49fe DF90      		pop r13
 12893 4a00 CF90      		pop r12
 12894               	.LVL1134:
 12895 4a02 0895      		ret
 12896               	.LFE81:
 12898               		.data
 12899               	.LC1:
 12900 000b 4E4F 204E 		.string	"NO NAME    FAT     "
 12900      414D 4520 
 12900      2020 2046 
 12900      4154 2020 
 12900      2020 2000 
 12901               	.LC2:
 12902 001f 4E4F 204E 		.string	"NO NAME    FAT32   "
 12902      414D 4520 
 12902      2020 2046 
 12902      4154 3332 
 12902      2020 2000 
 12903               		.text
 12904               	.global	f_mkfs
 12906               	f_mkfs:
 12907               	.LFB82:
 12908               	.LM1228:
 12909               	.LVL1135:
 12910 4a04 2F92      		push r2
 12911 4a06 3F92      		push r3
 12912 4a08 4F92      		push r4
 12913 4a0a 5F92      		push r5
 12914 4a0c 6F92      		push r6
 12915 4a0e 7F92      		push r7
 12916 4a10 8F92      		push r8
 12917 4a12 9F92      		push r9
 12918 4a14 AF92      		push r10
 12919 4a16 BF92      		push r11
 12920 4a18 CF92      		push r12
 12921 4a1a DF92      		push r13
 12922 4a1c EF92      		push r14
 12923 4a1e FF92      		push r15
 12924 4a20 0F93      		push r16
 12925 4a22 1F93      		push r17
 12926 4a24 DF93      		push r29
 12927 4a26 CF93      		push r28
 12928 4a28 CDB7      		in r28,__SP_L__
 12929 4a2a DEB7      		in r29,__SP_H__
 12930 4a2c AE97      		sbiw r28,46
 12931 4a2e CDBF      		out __SP_L__,r28
 12932 4a30 DEBF      		out __SP_H__,r29
 12933               	/* prologue: function */
 12934               	/* frame size = 46 */
 12935 4a32 362E      		mov r3,r22
 12936 4a34 3A01      		movw r6,r20
 12937               	.LM1229:
 12938 4a36 8230      		cpi r24,lo8(2)
 12939 4a38 00F0      		brlo .L750
 12940               	.LVL1136:
 12941 4a3a 8BE0      		ldi r24,lo8(11)
 12942               	.LVL1137:
 12943 4a3c 00C0      		rjmp .L751
 12944               	.LVL1138:
 12945               	.L750:
 12946               	.LM1230:
 12947 4a3e 21E0      		ldi r18,lo8(1)
 12948 4a40 2617      		cp r18,r22
 12949 4a42 00F4      		brsh .+2
 12950 4a44 00C0      		rjmp .L752
 12951               	.LVL1139:
 12952               	.LM1231:
 12953 4a46 A82F      		mov r26,r24
 12954 4a48 B0E0      		ldi r27,lo8(0)
 12955 4a4a AA0F      		lsl r26
 12956 4a4c BB1F      		rol r27
 12957 4a4e FD01      		movw r30,r26
 12958 4a50 E050      		subi r30,lo8(-(FatFs))
 12959 4a52 F040      		sbci r31,hi8(-(FatFs))
 12960 4a54 C080      		ld r12,Z
 12961 4a56 D180      		ldd r13,Z+1
 12962               	.LVL1140:
 12963               	.LM1232:
 12964 4a58 C114      		cp r12,__zero_reg__
 12965 4a5a D104      		cpc r13,__zero_reg__
 12966 4a5c 01F4      		brne .L753
 12967 4a5e 8CE0      		ldi r24,lo8(12)
 12968               	.LVL1141:
 12969 4a60 00C0      		rjmp .L751
 12970               	.LVL1142:
 12971               	.L753:
 12972               	.LM1233:
 12973 4a62 F601      		movw r30,r12
 12974 4a64 1082      		st Z,__zero_reg__
 12975               	.LM1234:
 12976 4a66 A050      		subi r26,lo8(-(Drives))
 12977 4a68 B040      		sbci r27,hi8(-(Drives))
 12978 4a6a FC91      		ld r31,X
 12979 4a6c FB8B      		std Y+19,r31
 12980               	.LVL1143:
 12981               	.LM1235:
 12982 4a6e 8F2F      		mov r24,r31
 12983 4a70 0E94 0000 		call disk_initialize
 12984               	.LVL1144:
 12985               	.LM1236:
 12986 4a74 80FF      		sbrs r24,0
 12987 4a76 00C0      		rjmp .L754
 12988 4a78 83E0      		ldi r24,lo8(3)
 12989 4a7a 00C0      		rjmp .L751
 12990               	.L754:
 12991               	.LM1237:
 12992 4a7c 82FF      		sbrs r24,2
 12993 4a7e 00C0      		rjmp .L755
 12994 4a80 8AE0      		ldi r24,lo8(10)
 12995 4a82 00C0      		rjmp .L751
 12996               	.L755:
 12997               	.LM1238:
 12998 4a84 8B89      		ldd r24,Y+19
 12999 4a86 61E0      		ldi r22,lo8(1)
 13000 4a88 AE01      		movw r20,r28
 13001 4a8a 4F5F      		subi r20,lo8(-(1))
 13002 4a8c 5F4F      		sbci r21,hi8(-(1))
 13003 4a8e 0E94 0000 		call disk_ioctl
 13004 4a92 8823      		tst r24
 13005 4a94 01F0      		breq .+2
 13006 4a96 00C0      		rjmp .L752
 13007 4a98 8981      		ldd r24,Y+1
 13008 4a9a 9A81      		ldd r25,Y+2
 13009 4a9c AB81      		ldd r26,Y+3
 13010 4a9e BC81      		ldd r27,Y+4
 13011               	.LVL1145:
 13012 4aa0 803D      		cpi r24,lo8(2000)
 13013 4aa2 27E0      		ldi r18,hi8(2000)
 13014 4aa4 9207      		cpc r25,r18
 13015 4aa6 20E0      		ldi r18,hlo8(2000)
 13016 4aa8 A207      		cpc r26,r18
 13017 4aaa 20E0      		ldi r18,hhi8(2000)
 13018 4aac B207      		cpc r27,r18
 13019 4aae 00F4      		brsh .+2
 13020 4ab0 00C0      		rjmp .L752
 13021               	.LM1239:
 13022 4ab2 8150      		subi r24,lo8(131072001)
 13023 4ab4 9040      		sbci r25,hi8(131072001)
 13024 4ab6 A04D      		sbci r26,hlo8(131072001)
 13025 4ab8 B740      		sbci r27,hhi8(131072001)
 13026 4aba 00F0      		brlo .L756
 13027 4abc 80E0      		ldi r24,lo8(131072000)
 13028 4abe 90E0      		ldi r25,hi8(131072000)
 13029 4ac0 A0ED      		ldi r26,hlo8(131072000)
 13030 4ac2 B7E0      		ldi r27,hhi8(131072000)
 13031 4ac4 8983      		std Y+1,r24
 13032 4ac6 9A83      		std Y+2,r25
 13033 4ac8 AB83      		std Y+3,r26
 13034 4aca BC83      		std Y+4,r27
 13035               	.LVL1146:
 13036               	.L756:
 13037               	.LM1240:
 13038 4acc 3320      		tst r3
 13039 4ace 01F0      		breq .L757
 13040 4ad0 1D8E      		std Y+29,__zero_reg__
 13041 4ad2 1E8E      		std Y+30,__zero_reg__
 13042 4ad4 1F8E      		std Y+31,__zero_reg__
 13043 4ad6 18A2      		std Y+32,__zero_reg__
 13044               	.LVL1147:
 13045 4ad8 00C0      		rjmp .L758
 13046               	.LVL1148:
 13047               	.L757:
 13048 4ada 8FE3      		ldi r24,lo8(63)
 13049 4adc 90E0      		ldi r25,hi8(63)
 13050 4ade A0E0      		ldi r26,hlo8(63)
 13051 4ae0 B0E0      		ldi r27,hhi8(63)
 13052 4ae2 8D8F      		std Y+29,r24
 13053 4ae4 9E8F      		std Y+30,r25
 13054 4ae6 AF8F      		std Y+31,r26
 13055 4ae8 B8A3      		std Y+32,r27
 13056               	.LVL1149:
 13057               	.L758:
 13058               	.LM1241:
 13059 4aea 8980      		ldd r8,Y+1
 13060 4aec 9A80      		ldd r9,Y+2
 13061 4aee AB80      		ldd r10,Y+3
 13062 4af0 BC80      		ldd r11,Y+4
 13063 4af2 2D8D      		ldd r18,Y+29
 13064 4af4 3E8D      		ldd r19,Y+30
 13065 4af6 4F8D      		ldd r20,Y+31
 13066 4af8 58A1      		ldd r21,Y+32
 13067 4afa 821A      		sub r8,r18
 13068 4afc 930A      		sbc r9,r19
 13069 4afe A40A      		sbc r10,r20
 13070 4b00 B50A      		sbc r11,r21
 13071               	.LVL1150:
 13072 4b02 8982      		std Y+1,r8
 13073 4b04 9A82      		std Y+2,r9
 13074 4b06 AB82      		std Y+3,r10
 13075 4b08 BC82      		std Y+4,r11
 13076 4b0a 80E0      		ldi r24,lo8(512)
 13077 4b0c 92E0      		ldi r25,hi8(512)
 13078 4b0e A0E0      		ldi r26,hlo8(512)
 13079 4b10 B0E0      		ldi r27,hhi8(512)
 13080               	.LVL1151:
 13081 4b12 20E0      		ldi r18,lo8(0)
 13082 4b14 30E0      		ldi r19,hi8(0)
 13083               	.LM1242:
 13084 4b16 7301      		movw r14,r6
 13085 4b18 00E0      		ldi r16,lo8(0)
 13086 4b1a 10E0      		ldi r17,hi8(0)
 13087 4b1c 00C0      		rjmp .L759
 13088               	.LVL1152:
 13089               	.L761:
 13090 4b1e 880F      		lsl r24
 13091 4b20 991F      		rol r25
 13092 4b22 AA1F      		rol r26
 13093 4b24 BB1F      		rol r27
 13094 4b26 2F5F      		subi r18,lo8(-(1))
 13095 4b28 3F4F      		sbci r19,hi8(-(1))
 13096 4b2a 2730      		cpi r18,7
 13097 4b2c 3105      		cpc r19,__zero_reg__
 13098 4b2e 01F0      		breq .L760
 13099               	.L759:
 13100 4b30 8E15      		cp r24,r14
 13101 4b32 9F05      		cpc r25,r15
 13102 4b34 A007      		cpc r26,r16
 13103 4b36 B107      		cpc r27,r17
 13104 4b38 01F4      		brne .L761
 13105 4b3a 00C0      		rjmp .L762
 13106               	.L760:
 13107               	.LM1243:
 13108 4b3c 8E15      		cp r24,r14
 13109 4b3e 9F05      		cpc r25,r15
 13110 4b40 A007      		cpc r26,r16
 13111 4b42 B107      		cpc r27,r17
 13112 4b44 01F4      		brne .L763
 13113               	.L762:
 13114               	.LM1244:
 13115 4b46 6114      		cp r6,__zero_reg__
 13116 4b48 7104      		cpc r7,__zero_reg__
 13117 4b4a 01F4      		brne .L764
 13118               	.L763:
 13119               	.LM1245:
 13120 4b4c E0E0      		ldi r30,lo8(sstbl.6367)
 13121 4b4e F0E0      		ldi r31,hi8(sstbl.6367)
 13122 4b50 20E0      		ldi r18,lo8(0)
 13123 4b52 30E0      		ldi r19,hi8(0)
 13124 4b54 40E0      		ldi r20,hlo8(0)
 13125 4b56 50E0      		ldi r21,hhi8(0)
 13126               	.L765:
 13127 4b58 8191      		ld r24,Z+
 13128 4b5a 9191      		ld r25,Z+
 13129 4b5c A191      		ld r26,Z+
 13130 4b5e B191      		ld r27,Z+
 13131               	.LVL1153:
 13132 4b60 B901      		movw r22,r18
 13133 4b62 142F      		mov r17,r20
 13134 4b64 052F      		mov r16,r21
 13135 4b66 2F5F      		subi r18,lo8(-(1))
 13136 4b68 3F4F      		sbci r19,hi8(-(1))
 13137 4b6a 4F4F      		sbci r20,hlo8(-(1))
 13138 4b6c 5F4F      		sbci r21,hhi8(-(1))
 13139 4b6e 8816      		cp r8,r24
 13140 4b70 9906      		cpc r9,r25
 13141 4b72 AA06      		cpc r10,r26
 13142 4b74 BB06      		cpc r11,r27
 13143 4b76 00F0      		brlo .L765
 13144               	.LVL1154:
 13145 4b78 CB01      		movw r24,r22
 13146 4b7a 6D83      		std Y+5,r22
 13147               	.LVL1155:
 13148 4b7c 9E83      		std Y+6,r25
 13149               	.LVL1156:
 13150 4b7e 1F83      		std Y+7,r17
 13151               	.LVL1157:
 13152 4b80 0887      		std Y+8,r16
 13153               	.LVL1158:
 13154               	.LM1246:
 13155 4b82 FB01      		movw r30,r22
 13156 4b84 EE0F      		lsl r30
 13157 4b86 FF1F      		rol r31
 13158 4b88 E050      		subi r30,lo8(-(cstbl.6368))
 13159 4b8a F040      		sbci r31,hi8(-(cstbl.6368))
 13160 4b8c 6080      		ld r6,Z
 13161 4b8e 7180      		ldd r7,Z+1
 13162               	.LVL1159:
 13163               	.L764:
 13164               	.LM1247:
 13165 4b90 30E0      		ldi r19,lo8(512)
 13166 4b92 6316      		cp r6,r19
 13167 4b94 32E0      		ldi r19,hi8(512)
 13168 4b96 7306      		cpc r7,r19
 13169 4b98 00F4      		brsh .L766
 13170 4b9a 612C      		mov r6,__zero_reg__
 13171 4b9c 22E0      		ldi r18,hi8(512)
 13172 4b9e 722E      		mov r7,r18
 13173               	.L766:
 13174               	.LM1248:
 13175 4ba0 A301      		movw r20,r6
 13176 4ba2 452F      		mov r20,r21
 13177 4ba4 5527      		clr r21
 13178 4ba6 4695      		lsr r20
 13179 4ba8 498B      		std Y+17,r20
 13180 4baa 5A8B      		std Y+18,r21
 13181               	.LVL1160:
 13182               	.LM1249:
 13183 4bac CA01      		movw r24,r20
 13184               	.LVL1161:
 13185 4bae A0E0      		ldi r26,lo8(0)
 13186 4bb0 B0E0      		ldi r27,hi8(0)
 13187 4bb2 8D87      		std Y+13,r24
 13188 4bb4 9E87      		std Y+14,r25
 13189 4bb6 AF87      		std Y+15,r26
 13190 4bb8 B88B      		std Y+16,r27
 13191 4bba C501      		movw r24,r10
 13192 4bbc B401      		movw r22,r8
 13193 4bbe 2D85      		ldd r18,Y+13
 13194 4bc0 3E85      		ldd r19,Y+14
 13195 4bc2 4F85      		ldd r20,Y+15
 13196 4bc4 5889      		ldd r21,Y+16
 13197 4bc6 0E94 0000 		call __udivmodsi4
 13198 4bca C901      		movw r24,r18
 13199 4bcc DA01      		movw r26,r20
 13200               	.LM1250:
 13201 4bce 853F      		cpi r24,lo8(4085)
 13202 4bd0 EFE0      		ldi r30,hi8(4085)
 13203 4bd2 9E07      		cpc r25,r30
 13204 4bd4 E0E0      		ldi r30,hlo8(4085)
 13205 4bd6 AE07      		cpc r26,r30
 13206 4bd8 E0E0      		ldi r30,hhi8(4085)
 13207 4bda BE07      		cpc r27,r30
 13208               	.LVL1162:
 13209 4bdc 00F4      		brsh .+2
 13210 4bde 00C0      		rjmp .L767
 13211               	.LVL1163:
 13212 4be0 232D      		mov r18,r3
 13213 4be2 30E0      		ldi r19,lo8(0)
 13214               	.LVL1164:
 13215               	.LM1251:
 13216 4be4 853F      		cpi r24,lo8(65525)
 13217 4be6 FFEF      		ldi r31,hi8(65525)
 13218 4be8 9F07      		cpc r25,r31
 13219 4bea F0E0      		ldi r31,hlo8(65525)
 13220 4bec AF07      		cpc r26,r31
 13221 4bee F0E0      		ldi r31,hhi8(65525)
 13222 4bf0 BF07      		cpc r27,r31
 13223 4bf2 00F4      		brsh .L768
 13224               	.LVL1165:
 13225               	.LM1252:
 13226 4bf4 7C01      		movw r14,r24
 13227 4bf6 8D01      		movw r16,r26
 13228               	.LVL1166:
 13229 4bf8 EE0C      		lsl r14
 13230 4bfa FF1C      		rol r15
 13231 4bfc 001F      		rol r16
 13232 4bfe 111F      		rol r17
 13233               	.LVL1167:
 13234 4c00 83E0      		ldi r24,lo8(515)
 13235 4c02 92E0      		ldi r25,hi8(515)
 13236 4c04 A0E0      		ldi r26,hlo8(515)
 13237 4c06 B0E0      		ldi r27,hhi8(515)
 13238 4c08 E80E      		add r14,r24
 13239 4c0a F91E      		adc r15,r25
 13240 4c0c 0A1F      		adc r16,r26
 13241 4c0e 1B1F      		adc r17,r27
 13242 4c10 B9E0      		ldi r27,9
 13243 4c12 1695      	1:	lsr r17
 13244 4c14 0795      		ror r16
 13245 4c16 F794      		ror r15
 13246 4c18 E794      		ror r14
 13247 4c1a BA95      		dec r27
 13248 4c1c 01F4      		brne 1b
 13249               	.LM1253:
 13250 4c1e 2F5F      		subi r18,lo8(-(1))
 13251 4c20 3F4F      		sbci r19,hi8(-(1))
 13252               	.LVL1168:
 13253 4c22 C901      		movw r24,r18
 13254 4c24 AA27      		clr r26
 13255 4c26 97FD      		sbrc r25,7
 13256 4c28 A095      		com r26
 13257 4c2a BA2F      		mov r27,r26
 13258 4c2c 898F      		std Y+25,r24
 13259 4c2e 9A8F      		std Y+26,r25
 13260 4c30 AB8F      		std Y+27,r26
 13261 4c32 BC8F      		std Y+28,r27
 13262               	.LVL1169:
 13263 4c34 20E2      		ldi r18,lo8(32)
 13264 4c36 30E0      		ldi r19,hi8(32)
 13265 4c38 40E0      		ldi r20,hlo8(32)
 13266 4c3a 50E0      		ldi r21,hhi8(32)
 13267               	.LVL1170:
 13268 4c3c 2D8B      		std Y+21,r18
 13269 4c3e 3E8B      		std Y+22,r19
 13270 4c40 4F8B      		std Y+23,r20
 13271 4c42 588F      		std Y+24,r21
 13272               	.LVL1171:
 13273 4c44 32E0      		ldi r19,lo8(2)
 13274               	.LVL1172:
 13275 4c46 00C0      		rjmp .L811
 13276               	.LVL1173:
 13277               	.L768:
 13278               	.LM1254:
 13279 4c48 7C01      		movw r14,r24
 13280 4c4a 8D01      		movw r16,r26
 13281               	.LVL1174:
 13282 4c4c A2E0      		ldi r26,2
 13283 4c4e EE0C      	1:	lsl r14
 13284 4c50 FF1C      		rol r15
 13285 4c52 001F      		rol r16
 13286 4c54 111F      		rol r17
 13287 4c56 AA95      		dec r26
 13288 4c58 01F4      		brne 1b
 13289 4c5a 87E0      		ldi r24,lo8(519)
 13290 4c5c 92E0      		ldi r25,hi8(519)
 13291 4c5e A0E0      		ldi r26,hlo8(519)
 13292 4c60 B0E0      		ldi r27,hhi8(519)
 13293               	.LVL1175:
 13294 4c62 E80E      		add r14,r24
 13295 4c64 F91E      		adc r15,r25
 13296 4c66 0A1F      		adc r16,r26
 13297 4c68 1B1F      		adc r17,r27
 13298 4c6a F9E0      		ldi r31,9
 13299 4c6c 1695      	1:	lsr r17
 13300 4c6e 0795      		ror r16
 13301 4c70 F794      		ror r15
 13302 4c72 E794      		ror r14
 13303 4c74 FA95      		dec r31
 13304 4c76 01F4      		brne 1b
 13305               	.LM1255:
 13306 4c78 81E2      		ldi r24,lo8(33)
 13307 4c7a 90E0      		ldi r25,hi8(33)
 13308 4c7c 821B      		sub r24,r18
 13309 4c7e 930B      		sbc r25,r19
 13310 4c80 9C01      		movw r18,r24
 13311 4c82 4427      		clr r20
 13312 4c84 37FD      		sbrc r19,7
 13313 4c86 4095      		com r20
 13314 4c88 542F      		mov r21,r20
 13315               	.LVL1176:
 13316 4c8a 298F      		std Y+25,r18
 13317 4c8c 3A8F      		std Y+26,r19
 13318 4c8e 4B8F      		std Y+27,r20
 13319 4c90 5C8F      		std Y+28,r21
 13320               	.LVL1177:
 13321 4c92 1D8A      		std Y+21,__zero_reg__
 13322 4c94 1E8A      		std Y+22,__zero_reg__
 13323 4c96 1F8A      		std Y+23,__zero_reg__
 13324 4c98 188E      		std Y+24,__zero_reg__
 13325               	.LVL1178:
 13326 4c9a 33E0      		ldi r19,lo8(3)
 13327               	.LVL1179:
 13328               	.L811:
 13329 4c9c 3AA3      		std Y+34,r19
 13330               	.LVL1180:
 13331               	.L769:
 13332               	.LM1256:
 13333 4c9e 8B89      		ldd r24,Y+19
 13334 4ca0 63E0      		ldi r22,lo8(3)
 13335 4ca2 AE01      		movw r20,r28
 13336 4ca4 4B5F      		subi r20,lo8(-(5))
 13337 4ca6 5F4F      		sbci r21,hi8(-(5))
 13338 4ca8 0E94 0000 		call disk_ioctl
 13339 4cac 8823      		tst r24
 13340 4cae 01F0      		breq .+2
 13341 4cb0 00C0      		rjmp .L752
 13342               	.LM1257:
 13343 4cb2 898D      		ldd r24,Y+25
 13344 4cb4 9A8D      		ldd r25,Y+26
 13345 4cb6 AB8D      		ldd r26,Y+27
 13346 4cb8 BC8D      		ldd r27,Y+28
 13347 4cba 2D8D      		ldd r18,Y+29
 13348 4cbc 3E8D      		ldd r19,Y+30
 13349 4cbe 4F8D      		ldd r20,Y+31
 13350 4cc0 58A1      		ldd r21,Y+32
 13351 4cc2 820F      		add r24,r18
 13352 4cc4 931F      		adc r25,r19
 13353 4cc6 A41F      		adc r26,r20
 13354 4cc8 B51F      		adc r27,r21
 13355 4cca 8987      		std Y+9,r24
 13356 4ccc 9A87      		std Y+10,r25
 13357 4cce AB87      		std Y+11,r26
 13358 4cd0 BC87      		std Y+12,r27
 13359               	.LVL1181:
 13360               	.LM1258:
 13361 4cd2 2D89      		ldd r18,Y+21
 13362 4cd4 3E89      		ldd r19,Y+22
 13363 4cd6 4F89      		ldd r20,Y+23
 13364 4cd8 588D      		ldd r21,Y+24
 13365               	.LVL1182:
 13366 4cda 2E0D      		add r18,r14
 13367 4cdc 3F1D      		adc r19,r15
 13368 4cde 401F      		adc r20,r16
 13369 4ce0 511F      		adc r21,r17
 13370 4ce2 280F      		add r18,r24
 13371 4ce4 391F      		adc r19,r25
 13372 4ce6 4A1F      		adc r20,r26
 13373 4ce8 5B1F      		adc r21,r27
 13374               	.LM1259:
 13375 4cea 8D81      		ldd r24,Y+5
 13376 4cec 9E81      		ldd r25,Y+6
 13377 4cee AF81      		ldd r26,Y+7
 13378 4cf0 B885      		ldd r27,Y+8
 13379 4cf2 4C01      		movw r8,r24
 13380 4cf4 5D01      		movw r10,r26
 13381               	.LVL1183:
 13382 4cf6 0894      		sec
 13383 4cf8 8108      		sbc r8,__zero_reg__
 13384 4cfa 9108      		sbc r9,__zero_reg__
 13385 4cfc A108      		sbc r10,__zero_reg__
 13386 4cfe B108      		sbc r11,__zero_reg__
 13387 4d00 820E      		add r8,r18
 13388 4d02 931E      		adc r9,r19
 13389 4d04 A41E      		adc r10,r20
 13390 4d06 B51E      		adc r11,r21
 13391 4d08 B095      		com r27
 13392 4d0a A095      		com r26
 13393 4d0c 9095      		com r25
 13394 4d0e 8195      		neg r24
 13395 4d10 9F4F      		sbci r25,lo8(-1)
 13396 4d12 AF4F      		sbci r26,lo8(-1)
 13397 4d14 BF4F      		sbci r27,lo8(-1)
 13398 4d16 8822      		and r8,r24
 13399 4d18 9922      		and r9,r25
 13400 4d1a AA22      		and r10,r26
 13401 4d1c BB22      		and r11,r27
 13402               	.LM1260:
 13403 4d1e 2701      		movw r4,r14
 13404 4d20 3801      		movw r6,r16
 13405 4d22 421A      		sub r4,r18
 13406 4d24 530A      		sbc r5,r19
 13407 4d26 640A      		sbc r6,r20
 13408 4d28 750A      		sbc r7,r21
 13409               	.LVL1184:
 13410 4d2a 480C      		add r4,r8
 13411 4d2c 591C      		adc r5,r9
 13412 4d2e 6A1C      		adc r6,r10
 13413 4d30 7B1C      		adc r7,r11
 13414               	.LM1261:
 13415 4d32 E980      		ldd r14,Y+1
 13416 4d34 FA80      		ldd r15,Y+2
 13417 4d36 0B81      		ldd r16,Y+3
 13418 4d38 1C81      		ldd r17,Y+4
 13419 4d3a C801      		movw r24,r16
 13420 4d3c B701      		movw r22,r14
 13421 4d3e 298D      		ldd r18,Y+25
 13422 4d40 3A8D      		ldd r19,Y+26
 13423 4d42 4B8D      		ldd r20,Y+27
 13424 4d44 5C8D      		ldd r21,Y+28
 13425               	.LVL1185:
 13426 4d46 621B      		sub r22,r18
 13427 4d48 730B      		sbc r23,r19
 13428 4d4a 840B      		sbc r24,r20
 13429 4d4c 950B      		sbc r25,r21
 13430 4d4e 6419      		sub r22,r4
 13431 4d50 7509      		sbc r23,r5
 13432 4d52 8609      		sbc r24,r6
 13433 4d54 9709      		sbc r25,r7
 13434 4d56 2D89      		ldd r18,Y+21
 13435 4d58 3E89      		ldd r19,Y+22
 13436 4d5a 4F89      		ldd r20,Y+23
 13437 4d5c 588D      		ldd r21,Y+24
 13438 4d5e 621B      		sub r22,r18
 13439 4d60 730B      		sbc r23,r19
 13440 4d62 840B      		sbc r24,r20
 13441 4d64 950B      		sbc r25,r21
 13442 4d66 2D85      		ldd r18,Y+13
 13443 4d68 3E85      		ldd r19,Y+14
 13444 4d6a 4F85      		ldd r20,Y+15
 13445 4d6c 5889      		ldd r21,Y+16
 13446 4d6e 0E94 0000 		call __udivmodsi4
 13447 4d72 2BA3      		std Y+35,r18
 13448 4d74 3CA3      		std Y+36,r19
 13449 4d76 4DA3      		std Y+37,r20
 13450 4d78 5EA3      		std Y+38,r21
 13451               	.LM1262:
 13452 4d7a 3AA1      		ldd r19,Y+34
 13453 4d7c 3230      		cpi r19,lo8(2)
 13454 4d7e 01F4      		brne .L770
 13455 4d80 8BA1      		ldd r24,Y+35
 13456 4d82 9CA1      		ldd r25,Y+36
 13457 4d84 ADA1      		ldd r26,Y+37
 13458 4d86 BEA1      		ldd r27,Y+38
 13459 4d88 855F      		subi r24,lo8(4085)
 13460 4d8a 9F40      		sbci r25,hi8(4085)
 13461 4d8c A040      		sbci r26,hlo8(4085)
 13462 4d8e B040      		sbci r27,hhi8(4085)
 13463 4d90 00F4      		brsh .L771
 13464 4d92 00C0      		rjmp .L752
 13465               	.L770:
 13466 4d94 FAA1      		ldd r31,Y+34
 13467 4d96 F330      		cpi r31,lo8(3)
 13468 4d98 01F4      		brne .L771
 13469 4d9a 2BA1      		ldd r18,Y+35
 13470 4d9c 3CA1      		ldd r19,Y+36
 13471 4d9e 4DA1      		ldd r20,Y+37
 13472 4da0 5EA1      		ldd r21,Y+38
 13473 4da2 255F      		subi r18,lo8(65525)
 13474 4da4 3F4F      		sbci r19,hi8(65525)
 13475 4da6 4040      		sbci r20,hlo8(65525)
 13476 4da8 5040      		sbci r21,hhi8(65525)
 13477 4daa 00F4      		brsh .+2
 13478 4dac 00C0      		rjmp .L752
 13479               	.L771:
 13480               	.LM1263:
 13481 4dae 8D82      		std Y+5,r8
 13482 4db0 9E82      		std Y+6,r9
 13483 4db2 AF82      		std Y+7,r10
 13484 4db4 B886      		std Y+8,r11
 13485               	.LM1264:
 13486 4db6 3320      		tst r3
 13487 4db8 01F0      		breq .L772
 13488               	.LVL1186:
 13489 4dba 80EF      		ldi r24,lo8(-16)
 13490 4dbc 8C8B      		std Y+20,r24
 13491               	.LVL1187:
 13492 4dbe 00C0      		rjmp .L773
 13493               	.LVL1188:
 13494               	.L772:
 13495               	.LBB632:
 13496               	.LM1265:
 13497 4dc0 4D8D      		ldd r20,Y+29
 13498 4dc2 5E8D      		ldd r21,Y+30
 13499 4dc4 6F8D      		ldd r22,Y+31
 13500 4dc6 78A1      		ldd r23,Y+32
 13501               	.LVL1189:
 13502 4dc8 4E0D      		add r20,r14
 13503 4dca 5F1D      		adc r21,r15
 13504 4dcc 601F      		adc r22,r16
 13505 4dce 711F      		adc r23,r17
 13506               	.LBB633:
 13507               	.LBB634:
 13508               	.LM1266:
 13509 4dd0 EEE2      		ldi r30,lo8(46)
 13510 4dd2 EE2E      		mov r14,r30
 13511 4dd4 F12C      		mov r15,__zero_reg__
 13512               	.LVL1190:
 13513 4dd6 EC0C      		add r14,r12
 13514 4dd8 FD1C      		adc r15,r13
 13515 4dda F701      		movw r30,r14
 13516 4ddc 20E0      		ldi r18,lo8(512)
 13517 4dde 32E0      		ldi r19,hi8(512)
 13518               	.LVL1191:
 13519 4de0 00C0      		rjmp .L774
 13520               	.LVL1192:
 13521               	.L775:
 13522               	.LM1267:
 13523 4de2 1192      		st Z+,__zero_reg__
 13524               	.L774:
 13525 4de4 2150      		subi r18,lo8(-(-1))
 13526 4de6 3040      		sbci r19,hi8(-(-1))
 13527 4de8 9FEF      		ldi r25,hi8(-1)
 13528 4dea 2F3F      		cpi r18,lo8(-1)
 13529 4dec 3907      		cpc r19,r25
 13530 4dee 01F4      		brne .L775
 13531               	.LBE634:
 13532               	.LBE633:
 13533               	.LM1268:
 13534 4df0 8601      		movw r16,r12
 13535               	.LVL1193:
 13536 4df2 0451      		subi r16,lo8(-(492))
 13537 4df4 1E4F      		sbci r17,hi8(-(492))
 13538               	.LM1269:
 13539 4df6 80E8      		ldi r24,lo8(-128)
 13540 4df8 D801      		movw r26,r16
 13541 4dfa 8C93      		st X,r24
 13542 4dfc 81E0      		ldi r24,lo8(1)
 13543 4dfe 1196      		adiw r26,1
 13544 4e00 8C93      		st X,r24
 13545 4e02 1197      		sbiw r26,1
 13546 4e04 1296      		adiw r26,2
 13547 4e06 8C93      		st X,r24
 13548 4e08 1297      		sbiw r26,2
 13549 4e0a 1396      		adiw r26,3
 13550 4e0c 1C92      		st X,__zero_reg__
 13551               	.LM1270:
 13552 4e0e 4030      		cpi r20,lo8(16450560)
 13553 4e10 B4E0      		ldi r27,hi8(16450560)
 13554 4e12 5B07      		cpc r21,r27
 13555 4e14 BBEF      		ldi r27,hlo8(16450560)
 13556 4e16 6B07      		cpc r22,r27
 13557 4e18 B0E0      		ldi r27,hhi8(16450560)
 13558 4e1a 7B07      		cpc r23,r27
 13559 4e1c 00F4      		brsh .L776
 13560               	.LM1271:
 13561 4e1e CB01      		movw r24,r22
 13562 4e20 BA01      		movw r22,r20
 13563 4e22 21EC      		ldi r18,lo8(16065)
 13564 4e24 3EE3      		ldi r19,hi8(16065)
 13565 4e26 40E0      		ldi r20,hlo8(16065)
 13566 4e28 50E0      		ldi r21,hhi8(16065)
 13567               	.LVL1194:
 13568 4e2a 0E94 0000 		call __udivmodsi4
 13569               	.LVL1195:
 13570 4e2e C901      		movw r24,r18
 13571 4e30 DA01      		movw r26,r20
 13572               	.LVL1196:
 13573               	.LM1272:
 13574 4e32 F801      		movw r30,r16
 13575 4e34 2783      		std Z+7,r18
 13576               	.LVL1197:
 13577               	.LM1273:
 13578 4e36 72E0      		ldi r23,2
 13579 4e38 B695      	1:	lsr r27
 13580 4e3a A795      		ror r26
 13581 4e3c 9795      		ror r25
 13582 4e3e 8795      		ror r24
 13583 4e40 7A95      		dec r23
 13584 4e42 01F4      		brne 1b
 13585               	.LVL1198:
 13586 4e44 8F63      		ori r24,lo8(63)
 13587               	.LVL1199:
 13588 4e46 8683      		std Z+6,r24
 13589 4e48 00C0      		rjmp .L777
 13590               	.LVL1200:
 13591               	.L776:
 13592               	.LM1274:
 13593 4e4a 8FEF      		ldi r24,lo8(-1)
 13594 4e4c D801      		movw r26,r16
 13595 4e4e 1696      		adiw r26,6
 13596 4e50 8C93      		st X,r24
 13597 4e52 1697      		sbiw r26,6
 13598 4e54 1796      		adiw r26,7
 13599 4e56 8C93      		st X,r24
 13600               	.LVL1201:
 13601               	.L777:
 13602               	.LM1275:
 13603 4e58 8EEF      		ldi r24,lo8(-2)
 13604 4e5a F801      		movw r30,r16
 13605 4e5c 8583      		std Z+5,r24
 13606               	.LM1276:
 13607 4e5e FAA1      		ldd r31,Y+34
 13608 4e60 F330      		cpi r31,lo8(3)
 13609 4e62 01F0      		breq .L778
 13610               	.LM1277:
 13611 4e64 8981      		ldd r24,Y+1
 13612 4e66 9A81      		ldd r25,Y+2
 13613 4e68 AB81      		ldd r26,Y+3
 13614 4e6a BC81      		ldd r27,Y+4
 13615 4e6c 8050      		subi r24,lo8(65536)
 13616 4e6e 9040      		sbci r25,hi8(65536)
 13617 4e70 A140      		sbci r26,hlo8(65536)
 13618 4e72 B040      		sbci r27,hhi8(65536)
 13619               	.LVL1202:
 13620 4e74 00F0      		brlo .L779
 13621               	.LVL1203:
 13622 4e76 86E0      		ldi r24,lo8(6)
 13623               	.LVL1204:
 13624 4e78 00C0      		rjmp .L780
 13625               	.LVL1205:
 13626               	.L779:
 13627 4e7a 84E0      		ldi r24,lo8(4)
 13628               	.LVL1206:
 13629               	.L780:
 13630 4e7c D801      		movw r26,r16
 13631 4e7e 1496      		adiw r26,4
 13632 4e80 8C93      		st X,r24
 13633 4e82 00C0      		rjmp .L781
 13634               	.LVL1207:
 13635               	.L778:
 13636               	.LM1278:
 13637 4e84 8CE0      		ldi r24,lo8(12)
 13638 4e86 F801      		movw r30,r16
 13639 4e88 8483      		std Z+4,r24
 13640               	.L781:
 13641               	.LM1279:
 13642 4e8a 8FE3      		ldi r24,lo8(63)
 13643 4e8c D801      		movw r26,r16
 13644 4e8e 1896      		adiw r26,8
 13645 4e90 8C93      		st X,r24
 13646 4e92 1897      		sbiw r26,8
 13647 4e94 1996      		adiw r26,9
 13648 4e96 1C92      		st X,__zero_reg__
 13649 4e98 1997      		sbiw r26,9
 13650 4e9a 1A96      		adiw r26,10
 13651 4e9c 1C92      		st X,__zero_reg__
 13652 4e9e 1A97      		sbiw r26,10
 13653 4ea0 1B96      		adiw r26,11
 13654 4ea2 1C92      		st X,__zero_reg__
 13655 4ea4 1B97      		sbiw r26,11
 13656               	.LM1280:
 13657 4ea6 8981      		ldd r24,Y+1
 13658 4ea8 1C96      		adiw r26,12
 13659 4eaa 8C93      		st X,r24
 13660 4eac 1C97      		sbiw r26,12
 13661 4eae 8A81      		ldd r24,Y+2
 13662               	.LVL1208:
 13663 4eb0 1D96      		adiw r26,13
 13664 4eb2 8C93      		st X,r24
 13665 4eb4 8981      		ldd r24,Y+1
 13666 4eb6 9A81      		ldd r25,Y+2
 13667 4eb8 AB81      		ldd r26,Y+3
 13668 4eba BC81      		ldd r27,Y+4
 13669 4ebc CD01      		movw r24,r26
 13670 4ebe AA27      		clr r26
 13671 4ec0 BB27      		clr r27
 13672 4ec2 F801      		movw r30,r16
 13673 4ec4 8687      		std Z+14,r24
 13674 4ec6 8981      		ldd r24,Y+1
 13675 4ec8 9A81      		ldd r25,Y+2
 13676 4eca AB81      		ldd r26,Y+3
 13677 4ecc BC81      		ldd r27,Y+4
 13678 4ece 8B2F      		mov r24,r27
 13679 4ed0 9927      		clr r25
 13680 4ed2 AA27      		clr r26
 13681 4ed4 BB27      		clr r27
 13682 4ed6 8787      		std Z+15,r24
 13683               	.LM1281:
 13684 4ed8 005C      		subi r16,lo8(-(64))
 13685 4eda 1F4F      		sbci r17,hi8(-(64))
 13686 4edc 85E5      		ldi r24,lo8(85)
 13687 4ede D801      		movw r26,r16
 13688 4ee0 8D93      		st X+,r24
 13689 4ee2 FD01      		movw r30,r26
 13690 4ee4 8AEA      		ldi r24,lo8(-86)
 13691 4ee6 8083      		st Z,r24
 13692               	.LM1282:
 13693 4ee8 8B89      		ldd r24,Y+19
 13694 4eea B701      		movw r22,r14
 13695 4eec 20E0      		ldi r18,lo8(0)
 13696 4eee 30E0      		ldi r19,hi8(0)
 13697 4ef0 40E0      		ldi r20,hlo8(0)
 13698 4ef2 50E0      		ldi r21,hhi8(0)
 13699               	.LVL1209:
 13700 4ef4 01E0      		ldi r16,lo8(1)
 13701               	.LVL1210:
 13702 4ef6 0E94 0000 		call disk_write
 13703               	.LVL1211:
 13704 4efa 8823      		tst r24
 13705 4efc 01F0      		breq .+2
 13706 4efe 00C0      		rjmp .L782
 13707 4f00 B8EF      		ldi r27,lo8(-8)
 13708 4f02 BC8B      		std Y+20,r27
 13709               	.LVL1212:
 13710               	.L773:
 13711               	.LBE632:
 13712               	.LM1283:
 13713 4f04 4EE2      		ldi r20,lo8(46)
 13714 4f06 242E      		mov r2,r20
 13715 4f08 312C      		mov r3,__zero_reg__
 13716               	.LVL1213:
 13717 4f0a 2C0C      		add r2,r12
 13718 4f0c 3D1C      		adc r3,r13
 13719 4f0e F101      		movw r30,r2
 13720 4f10 80E0      		ldi r24,lo8(512)
 13721 4f12 92E0      		ldi r25,hi8(512)
 13722               	.LVL1214:
 13723 4f14 00C0      		rjmp .L783
 13724               	.LVL1215:
 13725               	.L784:
 13726               	.LBB635:
 13727               	.LBB636:
 13728               	.LM1284:
 13729 4f16 1192      		st Z+,__zero_reg__
 13730               	.L783:
 13731 4f18 0197      		sbiw r24,1
 13732 4f1a 2FEF      		ldi r18,hi8(-1)
 13733 4f1c 8F3F      		cpi r24,lo8(-1)
 13734 4f1e 9207      		cpc r25,r18
 13735 4f20 01F4      		brne .L784
 13736               	.LBE636:
 13737               	.LBE635:
 13738               	.LM1285:
 13739 4f22 8BEE      		ldi r24,lo8(-21)
 13740               	.LVL1216:
 13741 4f24 D601      		movw r26,r12
 13742 4f26 9E96      		adiw r26,46
 13743 4f28 8C93      		st X,r24
 13744 4f2a 9E97      		sbiw r26,46
 13745 4f2c 8EEF      		ldi r24,lo8(-2)
 13746 4f2e 9F96      		adiw r26,47
 13747 4f30 8C93      		st X,r24
 13748 4f32 9F97      		sbiw r26,47
 13749 4f34 80E9      		ldi r24,lo8(-112)
 13750 4f36 D096      		adiw r26,48
 13751 4f38 8C93      		st X,r24
 13752 4f3a D097      		sbiw r26,48
 13753 4f3c D196      		adiw r26,49
 13754 4f3e 1C92      		st X,__zero_reg__
 13755 4f40 D197      		sbiw r26,49
 13756               	.LM1286:
 13757 4f42 D996      		adiw r26,57
 13758 4f44 1C92      		st X,__zero_reg__
 13759 4f46 D997      		sbiw r26,57
 13760 4f48 82E0      		ldi r24,lo8(2)
 13761 4f4a DA96      		adiw r26,58
 13762 4f4c 8C93      		st X,r24
 13763               	.LM1287:
 13764 4f4e B989      		ldd r27,Y+17
 13765 4f50 B9A3      		std Y+33,r27
 13766               	.LVL1217:
 13767 4f52 F601      		movw r30,r12
 13768               	.LVL1218:
 13769 4f54 B3AF      		std Z+59,r27
 13770               	.LM1288:
 13771 4f56 398D      		ldd r19,Y+25
 13772 4f58 34AF      		std Z+60,r19
 13773 4f5a 15AE      		std Z+61,__zero_reg__
 13774               	.LM1289:
 13775 4f5c 81E0      		ldi r24,lo8(1)
 13776 4f5e 86AF      		std Z+62,r24
 13777               	.LM1290:
 13778 4f60 8D89      		ldd r24,Y+21
 13779 4f62 9E89      		ldd r25,Y+22
 13780 4f64 AF89      		ldd r26,Y+23
 13781 4f66 B88D      		ldd r27,Y+24
 13782 4f68 34E0      		ldi r19,4
 13783 4f6a 880F      	1:	lsl r24
 13784 4f6c 991F      		rol r25
 13785 4f6e AA1F      		rol r26
 13786 4f70 BB1F      		rol r27
 13787 4f72 3A95      		dec r19
 13788 4f74 01F4      		brne 1b
 13789 4f76 87AF      		std Z+63,r24
 13790 4f78 40E4      		ldi r20,lo8(64)
 13791 4f7a 50E0      		ldi r21,hi8(64)
 13792 4f7c C40E      		add r12,r20
 13793 4f7e D51E      		adc r13,r21
 13794 4f80 892F      		mov r24,r25
 13795 4f82 9927      		clr r25
 13796 4f84 D601      		movw r26,r12
 13797 4f86 8C93      		st X,r24
 13798 4f88 E0EC      		ldi r30,lo8(-64)
 13799 4f8a FFEF      		ldi r31,hi8(-64)
 13800 4f8c CE0E      		add r12,r30
 13801 4f8e DF1E      		adc r13,r31
 13802               	.LM1291:
 13803 4f90 8981      		ldd r24,Y+1
 13804 4f92 9A81      		ldd r25,Y+2
 13805 4f94 AB81      		ldd r26,Y+3
 13806 4f96 BC81      		ldd r27,Y+4
 13807 4f98 8030      		cpi r24,lo8(65536)
 13808 4f9a F0E0      		ldi r31,hi8(65536)
 13809 4f9c 9F07      		cpc r25,r31
 13810 4f9e F1E0      		ldi r31,hlo8(65536)
 13811 4fa0 AF07      		cpc r26,r31
 13812 4fa2 F0E0      		ldi r31,hhi8(65536)
 13813 4fa4 BF07      		cpc r27,r31
 13814 4fa6 00F4      		brsh .L785
 13815               	.LVL1219:
 13816               	.LM1292:
 13817 4fa8 21E4      		ldi r18,lo8(65)
 13818 4faa 30E0      		ldi r19,hi8(65)
 13819 4fac C20E      		add r12,r18
 13820 4fae D31E      		adc r13,r19
 13821 4fb0 F601      		movw r30,r12
 13822 4fb2 8193      		st Z+,r24
 13823 4fb4 6F01      		movw r12,r30
 13824 4fb6 8A81      		ldd r24,Y+2
 13825 4fb8 8083      		st Z,r24
 13826 4fba 2EEB      		ldi r18,lo8(-66)
 13827 4fbc 3FEF      		ldi r19,hi8(-66)
 13828 4fbe 00C0      		rjmp .L812
 13829               	.L785:
 13830               	.LM1293:
 13831 4fc0 4EE4      		ldi r20,lo8(78)
 13832 4fc2 50E0      		ldi r21,hi8(78)
 13833 4fc4 C40E      		add r12,r20
 13834 4fc6 D51E      		adc r13,r21
 13835 4fc8 F601      		movw r30,r12
 13836 4fca 8193      		st Z+,r24
 13837 4fcc 8A81      		ldd r24,Y+2
 13838 4fce DF01      		movw r26,r30
 13839 4fd0 8D93      		st X+,r24
 13840 4fd2 6D01      		movw r12,r26
 13841 4fd4 8981      		ldd r24,Y+1
 13842 4fd6 9A81      		ldd r25,Y+2
 13843 4fd8 AB81      		ldd r26,Y+3
 13844 4fda BC81      		ldd r27,Y+4
 13845 4fdc CD01      		movw r24,r26
 13846 4fde AA27      		clr r26
 13847 4fe0 BB27      		clr r27
 13848 4fe2 F601      		movw r30,r12
 13849 4fe4 8193      		st Z+,r24
 13850 4fe6 6F01      		movw r12,r30
 13851 4fe8 8981      		ldd r24,Y+1
 13852 4fea 9A81      		ldd r25,Y+2
 13853 4fec AB81      		ldd r26,Y+3
 13854 4fee BC81      		ldd r27,Y+4
 13855 4ff0 8B2F      		mov r24,r27
 13856 4ff2 9927      		clr r25
 13857 4ff4 AA27      		clr r26
 13858 4ff6 BB27      		clr r27
 13859 4ff8 8083      		st Z,r24
 13860 4ffa 2FEA      		ldi r18,lo8(-81)
 13861 4ffc 3FEF      		ldi r19,hi8(-81)
 13862               	.L812:
 13863 4ffe C20E      		add r12,r18
 13864 5000 D31E      		adc r13,r19
 13865               	.LM1294:
 13866 5002 43E4      		ldi r20,lo8(67)
 13867 5004 50E0      		ldi r21,hi8(67)
 13868 5006 C40E      		add r12,r20
 13869 5008 D51E      		adc r13,r21
 13870 500a EC89      		ldd r30,Y+20
 13871 500c D601      		movw r26,r12
 13872 500e EC93      		st X,r30
 13873               	.LM1295:
 13874 5010 23E0      		ldi r18,lo8(3)
 13875 5012 30E0      		ldi r19,hi8(3)
 13876 5014 C20E      		add r12,r18
 13877 5016 D31E      		adc r13,r19
 13878 5018 8FE3      		ldi r24,lo8(63)
 13879 501a D601      		movw r26,r12
 13880 501c 8D93      		st X+,r24
 13881 501e FD01      		movw r30,r26
 13882 5020 1192      		st Z+,__zero_reg__
 13883               	.LM1296:
 13884 5022 8FEF      		ldi r24,lo8(-1)
 13885 5024 DF01      		movw r26,r30
 13886 5026 8D93      		st X+,r24
 13887 5028 FD01      		movw r30,r26
 13888 502a 1192      		st Z+,__zero_reg__
 13889               	.LM1297:
 13890 502c DF01      		movw r26,r30
 13891 502e ED8D      		ldd r30,Y+29
 13892 5030 ED93      		st X+,r30
 13893 5032 1D92      		st X+,__zero_reg__
 13894 5034 FD01      		movw r30,r26
 13895 5036 1192      		st Z+,__zero_reg__
 13896 5038 6F01      		movw r12,r30
 13897 503a 1082      		st Z,__zero_reg__
 13898 503c 23EB      		ldi r18,lo8(-77)
 13899 503e 3FEF      		ldi r19,hi8(-77)
 13900 5040 C20E      		add r12,r18
 13901 5042 D31E      		adc r13,r19
 13902               	.LM1298:
 13903 5044 0E94 0000 		call get_fattime
 13904 5048 6D83      		std Y+5,r22
 13905 504a 7E83      		std Y+6,r23
 13906 504c 8F83      		std Y+7,r24
 13907 504e 9887      		std Y+8,r25
 13908 5050 E5E5      		ldi r30,lo8(85)
 13909 5052 8E2E      		mov r8,r30
 13910 5054 912C      		mov r9,__zero_reg__
 13911 5056 8C0C      		add r8,r12
 13912 5058 9D1C      		adc r9,r13
 13913 505a 472F      		mov r20,r23
 13914 505c 5527      		clr r21
 13915 505e 49A7      		std Y+41,r20
 13916 5060 5AA7      		std Y+42,r21
 13917 5062 9C01      		movw r18,r24
 13918 5064 4427      		clr r20
 13919 5066 5527      		clr r21
 13920 5068 2BA7      		std Y+43,r18
 13921 506a 3CA7      		std Y+44,r19
 13922 506c 4DA7      		std Y+45,r20
 13923 506e 5EA7      		std Y+46,r21
 13924 5070 E92E      		mov r14,r25
 13925 5072 FF24      		clr r15
 13926 5074 0027      		clr r16
 13927 5076 1127      		clr r17
 13928               	.LVL1220:
 13929 5078 A52D      		mov r26,r5
 13930 507a BB27      		clr r27
 13931 507c 92E5      		ldi r25,lo8(82)
 13932 507e A92E      		mov r10,r25
 13933 5080 B12C      		mov r11,__zero_reg__
 13934 5082 AC0C      		add r10,r12
 13935 5084 BD1C      		adc r11,r13
 13936 5086 A601      		movw r20,r12
 13937 5088 4C5A      		subi r20,lo8(-(84))
 13938 508a 5F4F      		sbci r21,hi8(-(84))
 13939 508c 4FA3      		std Y+39,r20
 13940 508e 58A7      		std Y+40,r21
 13941               	.LM1299:
 13942 5090 5AA1      		ldd r21,Y+34
 13943 5092 5330      		cpi r21,lo8(3)
 13944 5094 01F0      		breq .L787
 13945               	.LVL1221:
 13946               	.LM1300:
 13947 5096 F401      		movw r30,r8
 13948 5098 6083      		st Z,r22
 13949 509a 26E5      		ldi r18,lo8(86)
 13950 509c 30E0      		ldi r19,hi8(86)
 13951 509e C20E      		add r12,r18
 13952 50a0 D31E      		adc r13,r19
 13953 50a2 F601      		movw r30,r12
 13954 50a4 29A5      		ldd r18,Y+41
 13955 50a6 2193      		st Z+,r18
 13956 50a8 2BA5      		ldd r18,Y+43
 13957 50aa 2193      		st Z+,r18
 13958 50ac 6F01      		movw r12,r30
 13959 50ae E082      		st Z,r14
 13960               	.LM1301:
 13961 50b0 4CEE      		ldi r20,lo8(-20)
 13962 50b2 5FEF      		ldi r21,hi8(-20)
 13963 50b4 C40E      		add r12,r20
 13964 50b6 D51E      		adc r13,r21
 13965 50b8 F601      		movw r30,r12
 13966 50ba 4192      		st Z+,r4
 13967 50bc 6F01      		movw r12,r30
 13968 50be A083      		st Z,r26
 13969 50c0 2BEB      		ldi r18,lo8(-69)
 13970 50c2 3FEF      		ldi r19,hi8(-69)
 13971 50c4 C20E      		add r12,r18
 13972 50c6 D31E      		adc r13,r19
 13973               	.LM1302:
 13974 50c8 80E8      		ldi r24,lo8(-128)
 13975 50ca D501      		movw r26,r10
 13976 50cc 8C93      		st X,r24
 13977               	.LM1303:
 13978 50ce 89E2      		ldi r24,lo8(41)
 13979 50d0 EFA1      		ldd r30,Y+39
 13980 50d2 F8A5      		ldd r31,Y+40
 13981 50d4 8083      		st Z,r24
 13982               	.LBB637:
 13983               	.LBB638:
 13984               	.LM1304:
 13985 50d6 D101      		movw r26,r2
 13986               	.LVL1222:
 13987 50d8 9B96      		adiw r26,43
 13988 50da E0E0      		ldi r30,lo8(.LC1)
 13989 50dc F0E0      		ldi r31,hi8(.LC1)
 13990               	.LVL1223:
 13991 50de 00C0      		rjmp .L788
 13992               	.L789:
 13993               	.LM1305:
 13994 50e0 8191      		ld r24,Z+
 13995 50e2 8D93      		st X+,r24
 13996               	.L788:
 13997 50e4 20E0      		ldi r18,hi8(.LC1+19)
 13998 50e6 E030      		cpi r30,lo8(.LC1+19)
 13999 50e8 F207      		cpc r31,r18
 14000 50ea 01F4      		brne .L789
 14001 50ec 00C0      		rjmp .L790
 14002               	.LVL1224:
 14003               	.L787:
 14004               	.LBE638:
 14005               	.LBE637:
 14006               	.LM1306:
 14007 50ee 41E7      		ldi r20,lo8(113)
 14008 50f0 50E0      		ldi r21,hi8(113)
 14009 50f2 C40E      		add r12,r20
 14010 50f4 D51E      		adc r13,r21
 14011 50f6 F601      		movw r30,r12
 14012 50f8 6193      		st Z+,r22
 14013 50fa 29A5      		ldd r18,Y+41
 14014 50fc 2193      		st Z+,r18
 14015 50fe 2BA5      		ldd r18,Y+43
 14016 5100 2193      		st Z+,r18
 14017 5102 6F01      		movw r12,r30
 14018 5104 E082      		st Z,r14
 14019               	.LM1307:
 14020 5106 F501      		movw r30,r10
 14021 5108 4082      		st Z,r4
 14022 510a 2FED      		ldi r18,lo8(-33)
 14023 510c 3FEF      		ldi r19,hi8(-33)
 14024 510e C20E      		add r12,r18
 14025 5110 D31E      		adc r13,r19
 14026 5112 F601      		movw r30,r12
 14027 5114 A083      		st Z,r26
 14028 5116 C301      		movw r24,r6
 14029 5118 AA27      		clr r26
 14030 511a BB27      		clr r27
 14031 511c EFA1      		ldd r30,Y+39
 14032 511e F8A5      		ldd r31,Y+40
 14033 5120 8083      		st Z,r24
 14034 5122 872D      		mov r24,r7
 14035 5124 9927      		clr r25
 14036 5126 AA27      		clr r26
 14037 5128 BB27      		clr r27
 14038 512a F401      		movw r30,r8
 14039 512c 8083      		st Z,r24
 14040               	.LM1308:
 14041 512e 27E0      		ldi r18,lo8(7)
 14042 5130 30E0      		ldi r19,hi8(7)
 14043 5132 C20E      		add r12,r18
 14044 5134 D31E      		adc r13,r19
 14045 5136 82E0      		ldi r24,lo8(2)
 14046 5138 D601      		movw r26,r12
 14047 513a 8D93      		st X+,r24
 14048 513c FD01      		movw r30,r26
 14049 513e 1192      		st Z+,__zero_reg__
 14050 5140 DF01      		movw r26,r30
 14051 5142 1D92      		st X+,__zero_reg__
 14052 5144 FD01      		movw r30,r26
 14053 5146 1192      		st Z+,__zero_reg__
 14054               	.LM1309:
 14055 5148 81E0      		ldi r24,lo8(1)
 14056 514a DF01      		movw r26,r30
 14057 514c 8D93      		st X+,r24
 14058 514e FD01      		movw r30,r26
 14059 5150 1192      		st Z+,__zero_reg__
 14060               	.LM1310:
 14061 5152 86E0      		ldi r24,lo8(6)
 14062 5154 DF01      		movw r26,r30
 14063 5156 8D93      		st X+,r24
 14064 5158 6D01      		movw r12,r26
 14065 515a 1C92      		st X,__zero_reg__
 14066               	.LM1311:
 14067 515c EDE0      		ldi r30,lo8(13)
 14068 515e F0E0      		ldi r31,hi8(13)
 14069 5160 CE0E      		add r12,r30
 14070 5162 DF1E      		adc r13,r31
 14071 5164 80E8      		ldi r24,lo8(-128)
 14072 5166 D601      		movw r26,r12
 14073 5168 8C93      		st X,r24
 14074               	.LM1312:
 14075 516a E2E0      		ldi r30,lo8(2)
 14076 516c F0E0      		ldi r31,hi8(2)
 14077 516e CE0E      		add r12,r30
 14078 5170 DF1E      		adc r13,r31
 14079 5172 89E2      		ldi r24,lo8(41)
 14080 5174 D601      		movw r26,r12
 14081 5176 8C93      		st X,r24
 14082 5178 E0E9      		ldi r30,lo8(-112)
 14083 517a FFEF      		ldi r31,hi8(-112)
 14084 517c CE0E      		add r12,r30
 14085 517e DF1E      		adc r13,r31
 14086               	.LBB639:
 14087               	.LBB640:
 14088               	.LM1313:
 14089 5180 D101      		movw r26,r2
 14090               	.LVL1225:
 14091 5182 A95B      		subi r26,lo8(-(71))
 14092 5184 BF4F      		sbci r27,hi8(-(71))
 14093 5186 E0E0      		ldi r30,lo8(.LC2)
 14094 5188 F0E0      		ldi r31,hi8(.LC2)
 14095               	.LVL1226:
 14096 518a 00C0      		rjmp .L791
 14097               	.L792:
 14098               	.LM1314:
 14099 518c 8191      		ld r24,Z+
 14100 518e 8D93      		st X+,r24
 14101               	.L791:
 14102 5190 20E0      		ldi r18,hi8(.LC2+19)
 14103 5192 E030      		cpi r30,lo8(.LC2+19)
 14104 5194 F207      		cpc r31,r18
 14105 5196 01F4      		brne .L792
 14106               	.LVL1227:
 14107               	.L790:
 14108               	.LBE640:
 14109               	.LBE639:
 14110               	.LM1315:
 14111 5198 4CE2      		ldi r20,lo8(556)
 14112 519a 52E0      		ldi r21,hi8(556)
 14113 519c C40E      		add r12,r20
 14114 519e D51E      		adc r13,r21
 14115 51a0 85E5      		ldi r24,lo8(85)
 14116 51a2 D601      		movw r26,r12
 14117               	.LVL1228:
 14118 51a4 8D93      		st X+,r24
 14119 51a6 6D01      		movw r12,r26
 14120 51a8 8AEA      		ldi r24,lo8(-86)
 14121 51aa 8C93      		st X,r24
 14122 51ac E3ED      		ldi r30,lo8(-557)
 14123 51ae FDEF      		ldi r31,hi8(-557)
 14124               	.LVL1229:
 14125 51b0 CE0E      		add r12,r30
 14126 51b2 DF1E      		adc r13,r31
 14127               	.LM1316:
 14128 51b4 8B89      		ldd r24,Y+19
 14129 51b6 B101      		movw r22,r2
 14130               	.LVL1230:
 14131 51b8 2D8D      		ldd r18,Y+29
 14132 51ba 3E8D      		ldd r19,Y+30
 14133 51bc 4F8D      		ldd r20,Y+31
 14134 51be 58A1      		ldd r21,Y+32
 14135 51c0 01E0      		ldi r16,lo8(1)
 14136 51c2 0E94 0000 		call disk_write
 14137 51c6 8823      		tst r24
 14138 51c8 01F0      		breq .+2
 14139 51ca 00C0      		rjmp .L782
 14140               	.LVL1231:
 14141               	.LM1317:
 14142 51cc FAA1      		ldd r31,Y+34
 14143 51ce F330      		cpi r31,lo8(3)
 14144 51d0 01F4      		brne .L793
 14145               	.LM1318:
 14146 51d2 2D8D      		ldd r18,Y+29
 14147 51d4 3E8D      		ldd r19,Y+30
 14148 51d6 4F8D      		ldd r20,Y+31
 14149 51d8 58A1      		ldd r21,Y+32
 14150 51da 2A5F      		subi r18,lo8(-(6))
 14151 51dc 3F4F      		sbci r19,hi8(-(6))
 14152 51de 4F4F      		sbci r20,hlo8(-(6))
 14153 51e0 5F4F      		sbci r21,hhi8(-(6))
 14154 51e2 8B89      		ldd r24,Y+19
 14155 51e4 B101      		movw r22,r2
 14156 51e6 0E94 0000 		call disk_write
 14157               	.L793:
 14158 51ea F101      		movw r30,r2
 14159 51ec 80E0      		ldi r24,lo8(512)
 14160 51ee 92E0      		ldi r25,hi8(512)
 14161               	.LVL1232:
 14162 51f0 00C0      		rjmp .L794
 14163               	.LVL1233:
 14164               	.L795:
 14165               	.LBB641:
 14166               	.LBB642:
 14167               	.LM1319:
 14168 51f2 1192      		st Z+,__zero_reg__
 14169               	.L794:
 14170 51f4 0197      		sbiw r24,1
 14171 51f6 2FEF      		ldi r18,hi8(-1)
 14172 51f8 8F3F      		cpi r24,lo8(-1)
 14173 51fa 9207      		cpc r25,r18
 14174 51fc 01F4      		brne .L795
 14175               	.LBE642:
 14176               	.LBE641:
 14177               	.LM1320:
 14178 51fe 3AA1      		ldd r19,Y+34
 14179 5200 3330      		cpi r19,lo8(3)
 14180 5202 01F0      		breq .L796
 14181               	.LM1321:
 14182 5204 3130      		cpi r19,lo8(1)
 14183 5206 01F0      		breq .L797
 14184 5208 20E0      		ldi r18,lo8(-256)
 14185 520a 3FEF      		ldi r19,hi8(-256)
 14186 520c 4FEF      		ldi r20,hlo8(-256)
 14187 520e 5FEF      		ldi r21,hhi8(-256)
 14188               	.LVL1234:
 14189 5210 00C0      		rjmp .L798
 14190               	.LVL1235:
 14191               	.L797:
 14192 5212 20E0      		ldi r18,lo8(16776960)
 14193 5214 3FEF      		ldi r19,hi8(16776960)
 14194 5216 4FEF      		ldi r20,hlo8(16776960)
 14195 5218 50E0      		ldi r21,hhi8(16776960)
 14196               	.LVL1236:
 14197               	.L798:
 14198               	.LM1322:
 14199 521a 6C89      		ldd r22,Y+20
 14200 521c 862F      		mov r24,r22
 14201               	.LVL1237:
 14202 521e 90E0      		ldi r25,lo8(0)
 14203               	.LVL1238:
 14204 5220 A0E0      		ldi r26,lo8(0)
 14205 5222 B0E0      		ldi r27,hi8(0)
 14206               	.LVL1239:
 14207 5224 822B      		or r24,r18
 14208 5226 932B      		or r25,r19
 14209 5228 A42B      		or r26,r20
 14210 522a B52B      		or r27,r21
 14211               	.LVL1240:
 14212 522c 8D83      		std Y+5,r24
 14213 522e 9E83      		std Y+6,r25
 14214 5230 AF83      		std Y+7,r26
 14215 5232 B887      		std Y+8,r27
 14216               	.LM1323:
 14217 5234 F601      		movw r30,r12
 14218               	.LVL1241:
 14219 5236 86A7      		std Z+46,r24
 14220 5238 292F      		mov r18,r25
 14221 523a 3327      		clr r19
 14222 523c 27A7      		std Z+47,r18
 14223 523e 9D01      		movw r18,r26
 14224 5240 4427      		clr r20
 14225 5242 5527      		clr r21
 14226 5244 20AB      		std Z+48,r18
 14227 5246 8B2F      		mov r24,r27
 14228 5248 9927      		clr r25
 14229 524a AA27      		clr r26
 14230 524c BB27      		clr r27
 14231               	.LVL1242:
 14232 524e 81AB      		std Z+49,r24
 14233 5250 00C0      		rjmp .L799
 14234               	.LVL1243:
 14235               	.L796:
 14236               	.LM1324:
 14237 5252 88EF      		ldi r24,lo8(-8)
 14238               	.LVL1244:
 14239 5254 D601      		movw r26,r12
 14240 5256 9E96      		adiw r26,46
 14241 5258 8C93      		st X,r24
 14242 525a 9E97      		sbiw r26,46
 14243 525c 8FEF      		ldi r24,lo8(-1)
 14244 525e 9F96      		adiw r26,47
 14245 5260 8C93      		st X,r24
 14246 5262 9F97      		sbiw r26,47
 14247 5264 D096      		adiw r26,48
 14248 5266 8C93      		st X,r24
 14249 5268 D097      		sbiw r26,48
 14250 526a D196      		adiw r26,49
 14251 526c 8C93      		st X,r24
 14252 526e D197      		sbiw r26,49
 14253               	.LM1325:
 14254 5270 D296      		adiw r26,50
 14255 5272 8C93      		st X,r24
 14256 5274 D297      		sbiw r26,50
 14257 5276 D396      		adiw r26,51
 14258 5278 8C93      		st X,r24
 14259 527a D397      		sbiw r26,51
 14260 527c D496      		adiw r26,52
 14261 527e 8C93      		st X,r24
 14262 5280 D497      		sbiw r26,52
 14263 5282 D596      		adiw r26,53
 14264 5284 8C93      		st X,r24
 14265 5286 D597      		sbiw r26,53
 14266               	.LM1326:
 14267 5288 D696      		adiw r26,54
 14268 528a 8C93      		st X,r24
 14269 528c D697      		sbiw r26,54
 14270 528e D796      		adiw r26,55
 14271 5290 8C93      		st X,r24
 14272 5292 D797      		sbiw r26,55
 14273 5294 D896      		adiw r26,56
 14274 5296 8C93      		st X,r24
 14275 5298 D897      		sbiw r26,56
 14276 529a 8FE0      		ldi r24,lo8(15)
 14277 529c D996      		adiw r26,57
 14278 529e 8C93      		st X,r24
 14279               	.LVL1245:
 14280               	.L799:
 14281               	.LM1327:
 14282 52a0 8B89      		ldd r24,Y+19
 14283 52a2 B101      		movw r22,r2
 14284 52a4 2985      		ldd r18,Y+9
 14285 52a6 3A85      		ldd r19,Y+10
 14286 52a8 4B85      		ldd r20,Y+11
 14287 52aa 5C85      		ldd r21,Y+12
 14288 52ac 01E0      		ldi r16,lo8(1)
 14289 52ae 0E94 0000 		call disk_write
 14290 52b2 8823      		tst r24
 14291 52b4 01F0      		breq .+2
 14292 52b6 00C0      		rjmp .L782
 14293 52b8 F101      		movw r30,r2
 14294 52ba 80E0      		ldi r24,lo8(512)
 14295 52bc 92E0      		ldi r25,hi8(512)
 14296               	.LVL1246:
 14297 52be 00C0      		rjmp .L800
 14298               	.LVL1247:
 14299               	.L801:
 14300               	.LBB643:
 14301               	.LBB644:
 14302               	.LM1328:
 14303 52c0 1192      		st Z+,__zero_reg__
 14304               	.L800:
 14305 52c2 0197      		sbiw r24,1
 14306 52c4 BFEF      		ldi r27,hi8(-1)
 14307 52c6 8F3F      		cpi r24,lo8(-1)
 14308 52c8 9B07      		cpc r25,r27
 14309 52ca 01F4      		brne .L801
 14310               	.LBE644:
 14311               	.LBE643:
 14312               	.LM1329:
 14313 52cc 8984      		ldd r8,Y+9
 14314 52ce 9A84      		ldd r9,Y+10
 14315 52d0 AB84      		ldd r10,Y+11
 14316 52d2 BC84      		ldd r11,Y+12
 14317 52d4 0894      		sec
 14318 52d6 811C      		adc r8,__zero_reg__
 14319 52d8 911C      		adc r9,__zero_reg__
 14320 52da A11C      		adc r10,__zero_reg__
 14321 52dc B11C      		adc r11,__zero_reg__
 14322               	.LVL1248:
 14323               	.LM1330:
 14324 52de 81E0      		ldi r24,lo8(1)
 14325 52e0 90E0      		ldi r25,hi8(1)
 14326 52e2 A0E0      		ldi r26,hlo8(1)
 14327 52e4 B0E0      		ldi r27,hhi8(1)
 14328               	.LVL1249:
 14329 52e6 00C0      		rjmp .L813
 14330               	.LVL1250:
 14331               	.L803:
 14332               	.LM1331:
 14333 52e8 8B89      		ldd r24,Y+19
 14334               	.LVL1251:
 14335 52ea B101      		movw r22,r2
 14336 52ec A501      		movw r20,r10
 14337 52ee 9401      		movw r18,r8
 14338 52f0 01E0      		ldi r16,lo8(1)
 14339 52f2 0E94 0000 		call disk_write
 14340               	.LVL1252:
 14341 52f6 8823      		tst r24
 14342 52f8 01F0      		breq .+2
 14343 52fa 00C0      		rjmp .L782
 14344 52fc 0894      		sec
 14345 52fe 811C      		adc r8,__zero_reg__
 14346 5300 911C      		adc r9,__zero_reg__
 14347 5302 A11C      		adc r10,__zero_reg__
 14348 5304 B11C      		adc r11,__zero_reg__
 14349               	.LM1332:
 14350 5306 8D81      		ldd r24,Y+5
 14351 5308 9E81      		ldd r25,Y+6
 14352 530a AF81      		ldd r26,Y+7
 14353 530c B885      		ldd r27,Y+8
 14354 530e 0196      		adiw r24,1
 14355 5310 A11D      		adc r26,__zero_reg__
 14356 5312 B11D      		adc r27,__zero_reg__
 14357               	.LVL1253:
 14358               	.L813:
 14359 5314 8D83      		std Y+5,r24
 14360 5316 9E83      		std Y+6,r25
 14361 5318 AF83      		std Y+7,r26
 14362 531a B887      		std Y+8,r27
 14363 531c 8D81      		ldd r24,Y+5
 14364 531e 9E81      		ldd r25,Y+6
 14365 5320 AF81      		ldd r26,Y+7
 14366 5322 B885      		ldd r27,Y+8
 14367 5324 8415      		cp r24,r4
 14368 5326 9505      		cpc r25,r5
 14369 5328 A605      		cpc r26,r6
 14370 532a B705      		cpc r27,r7
 14371 532c 00F0      		brlo .L803
 14372               	.LVL1254:
 14373               	.LM1333:
 14374 532e EAA1      		ldd r30,Y+34
 14375               	.LVL1255:
 14376 5330 E330      		cpi r30,lo8(3)
 14377 5332 01F0      		breq .L810
 14378 5334 FD89      		ldd r31,Y+21
 14379 5336 F9A3      		std Y+33,r31
 14380               	.LVL1256:
 14381               	.L810:
 14382               	.LM1334:
 14383 5338 2401      		movw r4,r8
 14384 533a 3501      		movw r6,r10
 14385               	.LVL1257:
 14386 533c 0894      		sec
 14387 533e 411C      		adc r4,__zero_reg__
 14388 5340 511C      		adc r5,__zero_reg__
 14389 5342 611C      		adc r6,__zero_reg__
 14390 5344 711C      		adc r7,__zero_reg__
 14391               	.LVL1258:
 14392 5346 8B89      		ldd r24,Y+19
 14393 5348 B101      		movw r22,r2
 14394 534a A501      		movw r20,r10
 14395 534c 9401      		movw r18,r8
 14396 534e 01E0      		ldi r16,lo8(1)
 14397 5350 0E94 0000 		call disk_write
 14398 5354 8823      		tst r24
 14399 5356 01F0      		breq .+2
 14400 5358 00C0      		rjmp .L782
 14401               	.LVL1259:
 14402               	.LM1335:
 14403 535a 29A1      		ldd r18,Y+33
 14404 535c 2150      		subi r18,lo8(-(-1))
 14405 535e 29A3      		std Y+33,r18
 14406               	.LVL1260:
 14407 5360 2223      		tst r18
 14408 5362 01F0      		breq .L805
 14409 5364 5301      		movw r10,r6
 14410 5366 4201      		movw r8,r4
 14411 5368 00C0      		rjmp .L810
 14412               	.L805:
 14413               	.LM1336:
 14414 536a 3AA1      		ldd r19,Y+34
 14415 536c 3330      		cpi r19,lo8(3)
 14416 536e 01F0      		breq .+2
 14417 5370 00C0      		rjmp .L806
 14418               	.LM1337:
 14419 5372 4CE2      		ldi r20,lo8(556)
 14420 5374 52E0      		ldi r21,hi8(556)
 14421 5376 C40E      		add r12,r20
 14422 5378 D51E      		adc r13,r21
 14423 537a 85E5      		ldi r24,lo8(85)
 14424 537c D601      		movw r26,r12
 14425 537e 8D93      		st X+,r24
 14426 5380 6D01      		movw r12,r26
 14427 5382 8AEA      		ldi r24,lo8(-86)
 14428 5384 8C93      		st X,r24
 14429 5386 E3ED      		ldi r30,lo8(-557)
 14430 5388 FDEF      		ldi r31,hi8(-557)
 14431 538a CE0E      		add r12,r30
 14432 538c DF1E      		adc r13,r31
 14433               	.LM1338:
 14434 538e 82E5      		ldi r24,lo8(82)
 14435 5390 D601      		movw r26,r12
 14436 5392 9E96      		adiw r26,46
 14437 5394 8C93      		st X,r24
 14438 5396 9E97      		sbiw r26,46
 14439 5398 9F96      		adiw r26,47
 14440 539a 8C93      		st X,r24
 14441 539c 9F97      		sbiw r26,47
 14442 539e 21E6      		ldi r18,lo8(97)
 14443 53a0 D096      		adiw r26,48
 14444 53a2 2C93      		st X,r18
 14445 53a4 D097      		sbiw r26,48
 14446 53a6 91E4      		ldi r25,lo8(65)
 14447 53a8 D196      		adiw r26,49
 14448 53aa 9C93      		st X,r25
 14449               	.LM1339:
 14450 53ac E2E1      		ldi r30,lo8(530)
 14451 53ae F2E0      		ldi r31,hi8(530)
 14452 53b0 CE0E      		add r12,r30
 14453 53b2 DF1E      		adc r13,r31
 14454 53b4 82E7      		ldi r24,lo8(114)
 14455 53b6 D601      		movw r26,r12
 14456 53b8 8D93      		st X+,r24
 14457 53ba FD01      		movw r30,r26
 14458 53bc 8193      		st Z+,r24
 14459 53be DF01      		movw r26,r30
 14460 53c0 9D93      		st X+,r25
 14461 53c2 FD01      		movw r30,r26
 14462 53c4 2193      		st Z+,r18
 14463               	.LM1340:
 14464 53c6 8BA1      		ldd r24,Y+35
 14465 53c8 8150      		subi r24,lo8(-(-1))
 14466 53ca DF01      		movw r26,r30
 14467 53cc 8D93      		st X+,r24
 14468 53ce 8BA1      		ldd r24,Y+35
 14469 53d0 9CA1      		ldd r25,Y+36
 14470 53d2 0197      		sbiw r24,1
 14471 53d4 FD01      		movw r30,r26
 14472 53d6 9193      		st Z+,r25
 14473 53d8 8BA1      		ldd r24,Y+35
 14474 53da 9CA1      		ldd r25,Y+36
 14475 53dc ADA1      		ldd r26,Y+37
 14476 53de BEA1      		ldd r27,Y+38
 14477 53e0 0197      		sbiw r24,1
 14478 53e2 A109      		sbc r26,__zero_reg__
 14479 53e4 B109      		sbc r27,__zero_reg__
 14480 53e6 9D01      		movw r18,r26
 14481 53e8 4427      		clr r20
 14482 53ea 5527      		clr r21
 14483 53ec 2193      		st Z+,r18
 14484 53ee 8B2F      		mov r24,r27
 14485 53f0 9927      		clr r25
 14486 53f2 AA27      		clr r26
 14487 53f4 BB27      		clr r27
 14488 53f6 8193      		st Z+,r24
 14489               	.LM1341:
 14490 53f8 8FEF      		ldi r24,lo8(-1)
 14491 53fa DF01      		movw r26,r30
 14492 53fc 8D93      		st X+,r24
 14493 53fe FD01      		movw r30,r26
 14494 5400 8193      		st Z+,r24
 14495 5402 DF01      		movw r26,r30
 14496 5404 8D93      		st X+,r24
 14497 5406 FD01      		movw r30,r26
 14498 5408 8083      		st Z,r24
 14499               	.LM1342:
 14500 540a 2D8D      		ldd r18,Y+29
 14501 540c 3E8D      		ldd r19,Y+30
 14502 540e 4F8D      		ldd r20,Y+31
 14503 5410 58A1      		ldd r21,Y+32
 14504 5412 2F5F      		subi r18,lo8(-(1))
 14505 5414 3F4F      		sbci r19,hi8(-(1))
 14506 5416 4F4F      		sbci r20,hlo8(-(1))
 14507 5418 5F4F      		sbci r21,hhi8(-(1))
 14508 541a 2D8F      		std Y+29,r18
 14509 541c 3E8F      		std Y+30,r19
 14510 541e 4F8F      		std Y+31,r20
 14511 5420 58A3      		std Y+32,r21
 14512               	.LVL1261:
 14513 5422 8B89      		ldd r24,Y+19
 14514 5424 B101      		movw r22,r2
 14515 5426 01E0      		ldi r16,lo8(1)
 14516 5428 0E94 0000 		call disk_write
 14517               	.LM1343:
 14518 542c 8D8D      		ldd r24,Y+29
 14519 542e 9E8D      		ldd r25,Y+30
 14520 5430 AF8D      		ldd r26,Y+31
 14521 5432 B8A1      		ldd r27,Y+32
 14522 5434 0696      		adiw r24,6
 14523 5436 A11D      		adc r26,__zero_reg__
 14524 5438 B11D      		adc r27,__zero_reg__
 14525 543a 8D8F      		std Y+29,r24
 14526 543c 9E8F      		std Y+30,r25
 14527 543e AF8F      		std Y+31,r26
 14528 5440 B8A3      		std Y+32,r27
 14529               	.LVL1262:
 14530 5442 8B89      		ldd r24,Y+19
 14531 5444 B101      		movw r22,r2
 14532 5446 2D8D      		ldd r18,Y+29
 14533 5448 3E8D      		ldd r19,Y+30
 14534 544a 4F8D      		ldd r20,Y+31
 14535 544c 58A1      		ldd r21,Y+32
 14536 544e 0E94 0000 		call disk_write
 14537               	.LVL1263:
 14538               	.L806:
 14539               	.LM1344:
 14540 5452 8B89      		ldd r24,Y+19
 14541 5454 60E0      		ldi r22,lo8(0)
 14542 5456 40E0      		ldi r20,lo8(0)
 14543 5458 50E0      		ldi r21,hi8(0)
 14544 545a 0E94 0000 		call disk_ioctl
 14545 545e 8823      		tst r24
 14546 5460 01F0      		breq .L751
 14547 5462 00C0      		rjmp .L782
 14548               	.LVL1264:
 14549               	.L752:
 14550 5464 8EE0      		ldi r24,lo8(14)
 14551 5466 00C0      		rjmp .L751
 14552               	.LVL1265:
 14553               	.L782:
 14554 5468 81E0      		ldi r24,lo8(1)
 14555               	.LVL1266:
 14556               	.L751:
 14557               	/* epilogue start */
 14558               	.LM1345:
 14559 546a AE96      		adiw r28,46
 14560 546c CDBF      		out __SP_L__,r28
 14561 546e DEBF      		out __SP_H__,r29
 14562 5470 CF91      		pop r28
 14563 5472 DF91      		pop r29
 14564 5474 1F91      		pop r17
 14565 5476 0F91      		pop r16
 14566 5478 FF90      		pop r15
 14567 547a EF90      		pop r14
 14568               	.LVL1267:
 14569 547c DF90      		pop r13
 14570 547e CF90      		pop r12
 14571               	.LVL1268:
 14572 5480 BF90      		pop r11
 14573 5482 AF90      		pop r10
 14574 5484 9F90      		pop r9
 14575 5486 8F90      		pop r8
 14576               	.LVL1269:
 14577 5488 7F90      		pop r7
 14578 548a 6F90      		pop r6
 14579               	.LVL1270:
 14580 548c 5F90      		pop r5
 14581 548e 4F90      		pop r4
 14582               	.LVL1271:
 14583 5490 3F90      		pop r3
 14584               	.LVL1272:
 14585 5492 2F90      		pop r2
 14586               	.LVL1273:
 14587 5494 0895      		ret
 14588               	.LVL1274:
 14589               	.L767:
 14590               	.LM1346:
 14591 5496 7C01      		movw r14,r24
 14592 5498 8D01      		movw r16,r26
 14593               	.LVL1275:
 14594 549a EE0C      		lsl r14
 14595 549c FF1C      		rol r15
 14596 549e 001F      		rol r16
 14597 54a0 111F      		rol r17
 14598 54a2 E80E      		add r14,r24
 14599 54a4 F91E      		adc r15,r25
 14600 54a6 0A1F      		adc r16,r26
 14601 54a8 1B1F      		adc r17,r27
 14602 54aa 0894      		sec
 14603 54ac E11C      		adc r14,__zero_reg__
 14604 54ae F11C      		adc r15,__zero_reg__
 14605 54b0 011D      		adc r16,__zero_reg__
 14606 54b2 111D      		adc r17,__zero_reg__
 14607 54b4 1695      		lsr r17
 14608 54b6 0795      		ror r16
 14609 54b8 F794      		ror r15
 14610 54ba E794      		ror r14
 14611 54bc 22E0      		ldi r18,lo8(514)
 14612 54be 32E0      		ldi r19,hi8(514)
 14613 54c0 40E0      		ldi r20,hlo8(514)
 14614 54c2 50E0      		ldi r21,hhi8(514)
 14615 54c4 E20E      		add r14,r18
 14616 54c6 F31E      		adc r15,r19
 14617 54c8 041F      		adc r16,r20
 14618 54ca 151F      		adc r17,r21
 14619 54cc 99E0      		ldi r25,9
 14620 54ce 1695      	1:	lsr r17
 14621 54d0 0795      		ror r16
 14622 54d2 F794      		ror r15
 14623 54d4 E794      		ror r14
 14624 54d6 9A95      		dec r25
 14625 54d8 01F4      		brne 1b
 14626               	.LM1347:
 14627 54da 832D      		mov r24,r3
 14628               	.LVL1276:
 14629 54dc 90E0      		ldi r25,lo8(0)
 14630               	.LVL1277:
 14631 54de 0196      		adiw r24,1
 14632               	.LVL1278:
 14633 54e0 9C01      		movw r18,r24
 14634 54e2 4427      		clr r20
 14635 54e4 37FD      		sbrc r19,7
 14636 54e6 4095      		com r20
 14637 54e8 542F      		mov r21,r20
 14638 54ea 298F      		std Y+25,r18
 14639 54ec 3A8F      		std Y+26,r19
 14640 54ee 4B8F      		std Y+27,r20
 14641 54f0 5C8F      		std Y+28,r21
 14642               	.LVL1279:
 14643 54f2 80E2      		ldi r24,lo8(32)
 14644 54f4 90E0      		ldi r25,hi8(32)
 14645 54f6 A0E0      		ldi r26,hlo8(32)
 14646 54f8 B0E0      		ldi r27,hhi8(32)
 14647               	.LVL1280:
 14648 54fa 8D8B      		std Y+21,r24
 14649 54fc 9E8B      		std Y+22,r25
 14650 54fe AF8B      		std Y+23,r26
 14651 5500 B88F      		std Y+24,r27
 14652               	.LVL1281:
 14653 5502 91E0      		ldi r25,lo8(1)
 14654               	.LVL1282:
 14655 5504 9AA3      		std Y+34,r25
 14656               	.LVL1283:
 14657 5506 00C0      		rjmp .L769
 14658               	.LFE82:
 14660               	.global	f_gets
 14662               	f_gets:
 14663               	.LFB83:
 14664               	.LM1348:
 14665               	.LVL1284:
 14666 5508 6F92      		push r6
 14667 550a 7F92      		push r7
 14668 550c 8F92      		push r8
 14669 550e 9F92      		push r9
 14670 5510 AF92      		push r10
 14671 5512 BF92      		push r11
 14672 5514 CF92      		push r12
 14673 5516 DF92      		push r13
 14674 5518 EF92      		push r14
 14675 551a FF92      		push r15
 14676 551c 0F93      		push r16
 14677 551e 1F93      		push r17
 14678 5520 DF93      		push r29
 14679 5522 CF93      		push r28
 14680 5524 0F92      		push __tmp_reg__
 14681 5526 0F92      		push __tmp_reg__
 14682 5528 CDB7      		in r28,__SP_L__
 14683 552a DEB7      		in r29,__SP_H__
 14684               	/* prologue: function */
 14685               	/* frame size = 2 */
 14686 552c 5C01      		movw r10,r24
 14687 552e 6B01      		movw r12,r22
 14688 5530 4A01      		movw r8,r20
 14689               	.LM1349:
 14690 5532 8C01      		movw r16,r24
 14691               	.LVL1285:
 14692 5534 EE24      		clr r14
 14693 5536 FF24      		clr r15
 14694               	.LVL1286:
 14695               	.LM1350:
 14696 5538 0894      		sec
 14697 553a C108      		sbc r12,__zero_reg__
 14698 553c D108      		sbc r13,__zero_reg__
 14699               	.LM1351:
 14700 553e 3E01      		movw r6,r28
 14701 5540 0894      		sec
 14702 5542 611C      		adc r6,__zero_reg__
 14703 5544 711C      		adc r7,__zero_reg__
 14704 5546 00C0      		rjmp .L815
 14705               	.LVL1287:
 14706               	.L817:
 14707 5548 C401      		movw r24,r8
 14708 554a B801      		movw r22,r16
 14709               	.LVL1288:
 14710 554c 41E0      		ldi r20,lo8(1)
 14711 554e 50E0      		ldi r21,hi8(1)
 14712 5550 9301      		movw r18,r6
 14713 5552 0E94 0000 		call f_read
 14714               	.LM1352:
 14715 5556 8981      		ldd r24,Y+1
 14716 5558 9A81      		ldd r25,Y+2
 14717 555a 0197      		sbiw r24,1
 14718 555c 01F4      		brne .L816
 14719               	.LVL1289:
 14720               	.LM1353:
 14721 555e 0894      		sec
 14722 5560 E11C      		adc r14,__zero_reg__
 14723 5562 F11C      		adc r15,__zero_reg__
 14724               	.LM1354:
 14725 5564 F801      		movw r30,r16
 14726 5566 8191      		ld r24,Z+
 14727               	.LVL1290:
 14728 5568 8F01      		movw r16,r30
 14729 556a 8A30      		cpi r24,lo8(10)
 14730 556c 01F0      		breq .L816
 14731               	.LVL1291:
 14732               	.L815:
 14733               	.LM1355:
 14734 556e EC14      		cp r14,r12
 14735 5570 FD04      		cpc r15,r13
 14736 5572 04F0      		brlt .L817
 14737               	.LVL1292:
 14738               	.L816:
 14739               	.LM1356:
 14740 5574 F801      		movw r30,r16
 14741 5576 1082      		st Z,__zero_reg__
 14742               	.LM1357:
 14743 5578 EF28      		or r14,r15
 14744 557a 01F4      		brne .L818
 14745 557c AA24      		clr r10
 14746 557e BB24      		clr r11
 14747               	.LVL1293:
 14748               	.L818:
 14749               	.LM1358:
 14750 5580 C501      		movw r24,r10
 14751               	.LVL1294:
 14752               	/* epilogue start */
 14753 5582 0F90      		pop __tmp_reg__
 14754 5584 0F90      		pop __tmp_reg__
 14755 5586 CF91      		pop r28
 14756 5588 DF91      		pop r29
 14757 558a 1F91      		pop r17
 14758 558c 0F91      		pop r16
 14759               	.LVL1295:
 14760 558e FF90      		pop r15
 14761 5590 EF90      		pop r14
 14762               	.LVL1296:
 14763 5592 DF90      		pop r13
 14764 5594 CF90      		pop r12
 14765 5596 BF90      		pop r11
 14766 5598 AF90      		pop r10
 14767 559a 9F90      		pop r9
 14768 559c 8F90      		pop r8
 14769               	.LVL1297:
 14770 559e 7F90      		pop r7
 14771 55a0 6F90      		pop r6
 14772 55a2 0895      		ret
 14773               	.LFE83:
 14775               	.global	f_putc
 14777               	f_putc:
 14778               	.LFB84:
 14779               	.LM1359:
 14780               	.LVL1298:
 14781 55a4 0F93      		push r16
 14782 55a6 1F93      		push r17
 14783 55a8 DF93      		push r29
 14784 55aa CF93      		push r28
 14785 55ac 00D0      		rcall .
 14786 55ae CDB7      		in r28,__SP_L__
 14787 55b0 DEB7      		in r29,__SP_H__
 14788               	/* prologue: function */
 14789               	/* frame size = 3 */
 14790 55b2 8C01      		movw r16,r24
 14791               	.LM1360:
 14792 55b4 6115      		cp r22,__zero_reg__
 14793 55b6 7105      		cpc r23,__zero_reg__
 14794 55b8 01F0      		breq .L821
 14795               	.LVL1299:
 14796               	.LM1361:
 14797 55ba 8983      		std Y+1,r24
 14798               	.LVL1300:
 14799               	.LM1362:
 14800 55bc CB01      		movw r24,r22
 14801 55be BE01      		movw r22,r28
 14802               	.LVL1301:
 14803 55c0 6F5F      		subi r22,lo8(-(1))
 14804 55c2 7F4F      		sbci r23,hi8(-(1))
 14805 55c4 41E0      		ldi r20,lo8(1)
 14806 55c6 50E0      		ldi r21,hi8(1)
 14807 55c8 9E01      		movw r18,r28
 14808 55ca 2E5F      		subi r18,lo8(-(2))
 14809 55cc 3F4F      		sbci r19,hi8(-(2))
 14810 55ce 0E94 0000 		call f_write
 14811               	.LM1363:
 14812 55d2 8A81      		ldd r24,Y+2
 14813 55d4 9B81      		ldd r25,Y+3
 14814               	.LVL1302:
 14815 55d6 892B      		or r24,r25
 14816 55d8 01F4      		brne .L821
 14817               	.LVL1303:
 14818 55da 0FEF      		ldi r16,lo8(-1)
 14819 55dc 1FEF      		ldi r17,hi8(-1)
 14820               	.LVL1304:
 14821               	.L821:
 14822               	.LM1364:
 14823 55de C801      		movw r24,r16
 14824               	.LVL1305:
 14825               	/* epilogue start */
 14826 55e0 2396      		adiw r28,3
 14827 55e2 CDBF      		out __SP_L__,r28
 14828 55e4 DEBF      		out __SP_H__,r29
 14829 55e6 CF91      		pop r28
 14830 55e8 DF91      		pop r29
 14831 55ea 1F91      		pop r17
 14832 55ec 0F91      		pop r16
 14833 55ee 0895      		ret
 14834               	.LFE84:
 14836               	.global	f_puts
 14838               	f_puts:
 14839               	.LFB85:
 14840               	.LM1365:
 14841               	.LVL1306:
 14842 55f0 EF92      		push r14
 14843 55f2 FF92      		push r15
 14844 55f4 0F93      		push r16
 14845 55f6 1F93      		push r17
 14846 55f8 CF93      		push r28
 14847 55fa DF93      		push r29
 14848               	/* prologue: function */
 14849               	/* frame size = 0 */
 14850 55fc 8C01      		movw r16,r24
 14851 55fe 7B01      		movw r14,r22
 14852               	.LM1366:
 14853 5600 C0E0      		ldi r28,lo8(0)
 14854 5602 D0E0      		ldi r29,hi8(0)
 14855               	.LVL1307:
 14856 5604 00C0      		rjmp .L824
 14857               	.LVL1308:
 14858               	.L827:
 14859               	.LM1367:
 14860 5606 90E0      		ldi r25,lo8(0)
 14861 5608 B701      		movw r22,r14
 14862 560a 0E94 0000 		call f_putc
 14863 560e 8F5F      		subi r24,lo8(-1)
 14864 5610 9F4F      		sbci r25,hi8(-1)
 14865 5612 01F4      		brne .L825
 14866 5614 CFEF      		ldi r28,lo8(-1)
 14867 5616 DFEF      		ldi r29,hi8(-1)
 14868 5618 00C0      		rjmp .L826
 14869               	.L825:
 14870               	.LM1368:
 14871 561a 0F5F      		subi r16,lo8(-(1))
 14872 561c 1F4F      		sbci r17,hi8(-(1))
 14873 561e 2196      		adiw r28,1
 14874               	.LVL1309:
 14875               	.L824:
 14876 5620 F801      		movw r30,r16
 14877 5622 8081      		ld r24,Z
 14878 5624 8823      		tst r24
 14879 5626 01F4      		brne .L827
 14880               	.L826:
 14881               	.LM1369:
 14882 5628 CE01      		movw r24,r28
 14883               	.LVL1310:
 14884               	/* epilogue start */
 14885 562a DF91      		pop r29
 14886 562c CF91      		pop r28
 14887 562e 1F91      		pop r17
 14888 5630 0F91      		pop r16
 14889               	.LVL1311:
 14890 5632 FF90      		pop r15
 14891 5634 EF90      		pop r14
 14892               	.LVL1312:
 14893 5636 0895      		ret
 14894               	.LFE85:
 14896               	.global	SD_Close
 14898               	SD_Close:
 14899               	.LFB89:
 14900               	.LM1370:
 14901               	/* prologue: function */
 14902               	/* frame size = 0 */
 14903               	.LM1371:
 14904 5638 80E0      		ldi r24,lo8(Log_File)
 14905 563a 90E0      		ldi r25,hi8(Log_File)
 14906 563c 0E94 0000 		call f_close
 14907               	/* epilogue start */
 14908               	.LM1372:
 14909 5640 0895      		ret
 14910               	.LFE89:
 14912               	.global	SD_Inserted
 14914               	SD_Inserted:
 14915               	.LFB90:
 14916               	.LM1373:
 14917               	/* prologue: function */
 14918               	/* frame size = 0 */
 14919               	.LM1374:
 14920 5642 8091 0000 		lds r24,sdValid
 14921               	/* epilogue start */
 14922               	.LM1375:
 14923 5646 0895      		ret
 14924               	.LFE90:
 14926               	.global	SD_WriteBuffer
 14928               	SD_WriteBuffer:
 14929               	.LFB95:
 14930               	.LM1376:
 14931               	.LVL1313:
 14932 5648 AF92      		push r10
 14933 564a BF92      		push r11
 14934 564c CF92      		push r12
 14935 564e DF92      		push r13
 14936 5650 EF92      		push r14
 14937 5652 FF92      		push r15
 14938 5654 0F93      		push r16
 14939 5656 1F93      		push r17
 14940 5658 DF93      		push r29
 14941 565a CF93      		push r28
 14942 565c 0F92      		push __tmp_reg__
 14943 565e 0F92      		push __tmp_reg__
 14944 5660 CDB7      		in r28,__SP_L__
 14945 5662 DEB7      		in r29,__SP_H__
 14946               	/* prologue: function */
 14947               	/* frame size = 2 */
 14948 5664 5C01      		movw r10,r24
 14949 5666 6B01      		movw r12,r22
 14950               	.LM1377:
 14951 5668 80E0      		ldi r24,lo8(Log_File)
 14952 566a 90E0      		ldi r25,hi8(Log_File)
 14953               	.LVL1314:
 14954 566c B501      		movw r22,r10
 14955               	.LVL1315:
 14956 566e A601      		movw r20,r12
 14957 5670 9E01      		movw r18,r28
 14958 5672 2F5F      		subi r18,lo8(-(1))
 14959 5674 3F4F      		sbci r19,hi8(-(1))
 14960 5676 0E94 0000 		call f_write
 14961 567a 60E0      		ldi r22,lo8(0)
 14962 567c 70E0      		ldi r23,hi8(0)
 14963               	.LVL1316:
 14964 567e 00C0      		rjmp .L834
 14965               	.L835:
 14966               	.LBB645:
 14967               	.LM1378:
 14968 5680 E090 0000 		lds r14,CRC
 14969 5684 F090 0000 		lds r15,(CRC)+1
 14970 5688 0091 0000 		lds r16,(CRC)+2
 14971 568c 1091 0000 		lds r17,(CRC)+3
 14972 5690 2091 0000 		lds r18,CRC
 14973 5694 3091 0000 		lds r19,(CRC)+1
 14974 5698 4091 0000 		lds r20,(CRC)+2
 14975 569c 5091 0000 		lds r21,(CRC)+3
 14976 56a0 3070      		andi r19,hi8(255)
 14977 56a2 4070      		andi r20,hlo8(255)
 14978 56a4 5070      		andi r21,hhi8(255)
 14979 56a6 F501      		movw r30,r10
 14980 56a8 E60F      		add r30,r22
 14981 56aa F71F      		adc r31,r23
 14982 56ac 8081      		ld r24,Z
 14983 56ae 90E0      		ldi r25,lo8(0)
 14984 56b0 A0E0      		ldi r26,lo8(0)
 14985 56b2 B0E0      		ldi r27,hi8(0)
 14986 56b4 2827      		eor r18,r24
 14987 56b6 3927      		eor r19,r25
 14988 56b8 4A27      		eor r20,r26
 14989 56ba 5B27      		eor r21,r27
 14990 56bc 220F      		lsl r18
 14991 56be 331F      		rol r19
 14992 56c0 220F      		lsl r18
 14993 56c2 331F      		rol r19
 14994 56c4 2050      		subi r18,lo8(-(crc_table))
 14995 56c6 3040      		sbci r19,hi8(-(crc_table))
 14996 56c8 EF2C      		mov r14,r15
 14997 56ca F02E      		mov r15,r16
 14998 56cc 012F      		mov r16,r17
 14999 56ce 1127      		clr r17
 15000 56d0 F901      		movw r30,r18
 15001 56d2 8081      		ld r24,Z
 15002 56d4 9181      		ldd r25,Z+1
 15003 56d6 A281      		ldd r26,Z+2
 15004 56d8 B381      		ldd r27,Z+3
 15005 56da E826      		eor r14,r24
 15006 56dc F926      		eor r15,r25
 15007 56de 0A27      		eor r16,r26
 15008 56e0 1B27      		eor r17,r27
 15009 56e2 E092 0000 		sts CRC,r14
 15010 56e6 F092 0000 		sts (CRC)+1,r15
 15011 56ea 0093 0000 		sts (CRC)+2,r16
 15012 56ee 1093 0000 		sts (CRC)+3,r17
 15013               	.LM1379:
 15014 56f2 6F5F      		subi r22,lo8(-(1))
 15015 56f4 7F4F      		sbci r23,hi8(-(1))
 15016               	.L834:
 15017 56f6 6C15      		cp r22,r12
 15018 56f8 7D05      		cpc r23,r13
 15019 56fa 00F0      		brlo .L835
 15020               	/* epilogue start */
 15021               	.LBE645:
 15022               	.LM1380:
 15023 56fc 0F90      		pop __tmp_reg__
 15024 56fe 0F90      		pop __tmp_reg__
 15025 5700 CF91      		pop r28
 15026 5702 DF91      		pop r29
 15027 5704 1F91      		pop r17
 15028 5706 0F91      		pop r16
 15029 5708 FF90      		pop r15
 15030 570a EF90      		pop r14
 15031 570c DF90      		pop r13
 15032 570e CF90      		pop r12
 15033               	.LVL1317:
 15034 5710 BF90      		pop r11
 15035 5712 AF90      		pop r10
 15036               	.LVL1318:
 15037 5714 0895      		ret
 15038               	.LFE95:
 15040               	.global	SD_Write32
 15042               	SD_Write32:
 15043               	.LFB93:
 15044               	.LM1381:
 15045               	.LVL1319:
 15046               	/* prologue: function */
 15047               	/* frame size = 0 */
 15048               	.LM1382:
 15049 5716 6093 0000 		sts tmp32,r22
 15050               	.LM1383:
 15051 571a 272F      		mov r18,r23
 15052 571c 382F      		mov r19,r24
 15053 571e 492F      		mov r20,r25
 15054 5720 5527      		clr r21
 15055 5722 2093 0000 		sts tmp32+1,r18
 15056               	.LM1384:
 15057 5726 9C01      		movw r18,r24
 15058 5728 4427      		clr r20
 15059 572a 5527      		clr r21
 15060 572c 2093 0000 		sts tmp32+2,r18
 15061               	.LM1385:
 15062 5730 692F      		mov r22,r25
 15063 5732 7727      		clr r23
 15064 5734 8827      		clr r24
 15065 5736 9927      		clr r25
 15066               	.LVL1320:
 15067 5738 6093 0000 		sts tmp32+3,r22
 15068               	.LM1386:
 15069 573c 80E0      		ldi r24,lo8(tmp32)
 15070 573e 90E0      		ldi r25,hi8(tmp32)
 15071 5740 64E0      		ldi r22,lo8(4)
 15072 5742 70E0      		ldi r23,hi8(4)
 15073 5744 0E94 0000 		call SD_WriteBuffer
 15074               	/* epilogue start */
 15075               	.LM1387:
 15076 5748 0895      		ret
 15077               	.LFE93:
 15079               	.global	SD_Write16
 15081               	SD_Write16:
 15082               	.LFB92:
 15083               	.LM1388:
 15084               	.LVL1321:
 15085               	/* prologue: function */
 15086               	/* frame size = 0 */
 15087               	.LM1389:
 15088 574a 8093 0000 		sts tmp16,r24
 15089               	.LM1390:
 15090 574e 9093 0000 		sts tmp16+1,r25
 15091               	.LVL1322:
 15092               	.LM1391:
 15093 5752 80E0      		ldi r24,lo8(tmp16)
 15094 5754 90E0      		ldi r25,hi8(tmp16)
 15095               	.LVL1323:
 15096 5756 62E0      		ldi r22,lo8(2)
 15097 5758 70E0      		ldi r23,hi8(2)
 15098 575a 0E94 0000 		call SD_WriteBuffer
 15099               	.LVL1324:
 15100               	/* epilogue start */
 15101               	.LM1392:
 15102 575e 0895      		ret
 15103               	.LFE92:
 15105               	.global	SD_Write8
 15107               	SD_Write8:
 15108               	.LFB91:
 15109               	.LM1393:
 15110               	.LVL1325:
 15111               	/* prologue: function */
 15112               	/* frame size = 0 */
 15113               	.LM1394:
 15114 5760 8093 0000 		sts tmp8,r24
 15115               	.LM1395:
 15116 5764 80E0      		ldi r24,lo8(tmp8)
 15117 5766 90E0      		ldi r25,hi8(tmp8)
 15118               	.LVL1326:
 15119 5768 61E0      		ldi r22,lo8(1)
 15120 576a 70E0      		ldi r23,hi8(1)
 15121 576c 0E94 0000 		call SD_WriteBuffer
 15122               	/* epilogue start */
 15123               	.LM1396:
 15124 5770 0895      		ret
 15125               	.LFE91:
 15127               	.global	SD_ClearCRC
 15129               	SD_ClearCRC:
 15130               	.LFB96:
 15131               	.LM1397:
 15132               	/* prologue: function */
 15133               	/* frame size = 0 */
 15134               	.LM1398:
 15135 5772 8FEF      		ldi r24,lo8(-1)
 15136 5774 9FEF      		ldi r25,hi8(-1)
 15137 5776 AFEF      		ldi r26,hlo8(-1)
 15138 5778 BFEF      		ldi r27,hhi8(-1)
 15139 577a 8093 0000 		sts CRC,r24
 15140 577e 9093 0000 		sts (CRC)+1,r25
 15141 5782 A093 0000 		sts (CRC)+2,r26
 15142 5786 B093 0000 		sts (CRC)+3,r27
 15143               	/* epilogue start */
 15144               	.LM1399:
 15145 578a 0895      		ret
 15146               	.LFE96:
 15148               	.global	SD_WriteCRC
 15150               	SD_WriteCRC:
 15151               	.LFB97:
 15152               	.LM1400:
 15153               	/* prologue: function */
 15154               	/* frame size = 0 */
 15155               	.LM1401:
 15156 578c 6091 0000 		lds r22,CRC
 15157 5790 7091 0000 		lds r23,(CRC)+1
 15158 5794 8091 0000 		lds r24,(CRC)+2
 15159 5798 9091 0000 		lds r25,(CRC)+3
 15160 579c 6095      		com r22
 15161 579e 7095      		com r23
 15162 57a0 8095      		com r24
 15163 57a2 9095      		com r25
 15164 57a4 0E94 0000 		call SD_Write32
 15165               	/* epilogue start */
 15166               	.LM1402:
 15167 57a8 0895      		ret
 15168               	.LFE97:
 15170               		.data
 15171               	.LC3:
 15172 0033 303A 00   		.string	"0:"
 15173               		.text
 15174               	.global	SD_GetSpaceRemaining
 15176               	SD_GetSpaceRemaining:
 15177               	.LFB100:
 15178               	.LM1403:
 15179 57aa EF92      		push r14
 15180 57ac FF92      		push r15
 15181 57ae 0F93      		push r16
 15182 57b0 1F93      		push r17
 15183 57b2 DF93      		push r29
 15184 57b4 CF93      		push r28
 15185 57b6 00D0      		rcall .
 15186 57b8 0F92      		push __tmp_reg__
 15187 57ba CDB7      		in r28,__SP_L__
 15188 57bc DEB7      		in r29,__SP_H__
 15189               	/* prologue: function */
 15190               	/* frame size = 4 */
 15191               	.LM1404:
 15192 57be 80E0      		ldi r24,lo8(.LC3)
 15193 57c0 90E0      		ldi r25,hi8(.LC3)
 15194 57c2 BE01      		movw r22,r28
 15195 57c4 6F5F      		subi r22,lo8(-(1))
 15196 57c6 7F4F      		sbci r23,hi8(-(1))
 15197 57c8 40E0      		ldi r20,lo8(fs)
 15198 57ca 50E0      		ldi r21,hi8(fs)
 15199 57cc 0E94 0000 		call f_getfree
 15200               	.LM1405:
 15201 57d0 E091 0000 		lds r30,fs
 15202 57d4 F091 0000 		lds r31,(fs)+1
 15203 57d8 E28C      		ldd r14,Z+26
 15204 57da F38C      		ldd r15,Z+27
 15205 57dc 048D      		ldd r16,Z+28
 15206 57de 158D      		ldd r17,Z+29
 15207               	.LVL1327:
 15208               	.LM1406:
 15209 57e0 8981      		ldd r24,Y+1
 15210 57e2 9A81      		ldd r25,Y+2
 15211 57e4 AB81      		ldd r26,Y+3
 15212 57e6 BC81      		ldd r27,Y+4
 15213               	.LVL1328:
 15214 57e8 A801      		movw r20,r16
 15215 57ea 9701      		movw r18,r14
 15216 57ec 281B      		sub r18,r24
 15217 57ee 390B      		sbc r19,r25
 15218 57f0 4A0B      		sbc r20,r26
 15219 57f2 5B0B      		sbc r21,r27
 15220 57f4 CA01      		movw r24,r20
 15221 57f6 B901      		movw r22,r18
 15222               	.LVL1329:
 15223               	.LM1407:
 15224 57f8 28EE      		ldi r18,lo8(1000)
 15225 57fa 33E0      		ldi r19,hi8(1000)
 15226 57fc 40E0      		ldi r20,hlo8(1000)
 15227 57fe 50E0      		ldi r21,hhi8(1000)
 15228 5800 0E94 0000 		call __mulsi3
 15229               	.LVL1330:
 15230               	.LM1408:
 15231 5804 A801      		movw r20,r16
 15232 5806 9701      		movw r18,r14
 15233 5808 0E94 0000 		call __udivmodsi4
 15234 580c 2093 0000 		sts percentDiskUsed,r18
 15235 5810 3093 0000 		sts (percentDiskUsed)+1,r19
 15236 5814 4093 0000 		sts (percentDiskUsed)+2,r20
 15237 5818 5093 0000 		sts (percentDiskUsed)+3,r21
 15238               	/* epilogue start */
 15239               	.LM1409:
 15240 581c 2496      		adiw r28,4
 15241 581e CDBF      		out __SP_L__,r28
 15242 5820 DEBF      		out __SP_H__,r29
 15243 5822 CF91      		pop r28
 15244 5824 DF91      		pop r29
 15245 5826 1F91      		pop r17
 15246 5828 0F91      		pop r16
 15247 582a FF90      		pop r15
 15248 582c EF90      		pop r14
 15249               	.LVL1331:
 15250 582e 0895      		ret
 15251               	.LFE100:
 15253               	.global	SD_Timer_Init
 15255               	SD_Timer_Init:
 15256               	.LFB101:
 15257               	.LM1410:
 15258               	/* prologue: function */
 15259               	/* frame size = 0 */
 15260               	.LM1411:
 15261 5830 E0E0      		ldi r30,lo8(2560)
 15262 5832 FAE0      		ldi r31,hi8(2560)
 15263 5834 80E4      		ldi r24,lo8(576)
 15264 5836 92E0      		ldi r25,hi8(576)
 15265 5838 86A3      		std Z+38,r24
 15266 583a 97A3      		std Z+39,r25
 15267               	.LM1412:
 15268 583c 8081      		ld r24,Z
 15269 583e 807F      		andi r24,lo8(-16)
 15270 5840 8660      		ori r24,lo8(6)
 15271 5842 8083      		st Z,r24
 15272               	.LM1413:
 15273 5844 8681      		ldd r24,Z+6
 15274 5846 8C7F      		andi r24,lo8(-4)
 15275 5848 8260      		ori r24,lo8(2)
 15276 584a 8683      		std Z+6,r24
 15277               	/* epilogue start */
 15278               	.LM1414:
 15279 584c 0895      		ret
 15280               	.LFE101:
 15282               	.global	SD_Init
 15284               	SD_Init:
 15285               	.LFB87:
 15286               	.LM1415:
 15287 584e 1F93      		push r17
 15288               	/* prologue: function */
 15289               	/* frame size = 0 */
 15290               	.LM1416:
 15291 5850 80E1      		ldi r24,lo8(16)
 15292 5852 E0EA      		ldi r30,lo8(1696)
 15293 5854 F6E0      		ldi r31,hi8(1696)
 15294 5856 8283      		std Z+2,r24
 15295               	.LM1417:
 15296 5858 0E94 0000 		call SD_Timer_Init
 15297               	.LM1418:
 15298 585c 80E0      		ldi r24,lo8(0)
 15299 585e 0E94 0000 		call disk_initialize
 15300 5862 182F      		mov r17,r24
 15301               	.LVL1332:
 15302               	.LM1419:
 15303 5864 80E0      		ldi r24,lo8(0)
 15304 5866 60E0      		ldi r22,lo8(fso0)
 15305 5868 70E0      		ldi r23,hi8(fso0)
 15306 586a 0E94 0000 		call f_mount
 15307               	.LM1420:
 15308 586e 81E0      		ldi r24,lo8(1)
 15309 5870 60E0      		ldi r22,lo8(fso1)
 15310 5872 70E0      		ldi r23,hi8(fso1)
 15311 5874 0E94 0000 		call f_mount
 15312               	.LM1421:
 15313 5878 1123      		tst r17
 15314 587a 01F4      		brne .L852
 15315               	.LM1422:
 15316 587c 81E0      		ldi r24,lo8(1)
 15317 587e 8093 0000 		sts sdValid,r24
 15318               	.LM1423:
 15319 5882 0E94 0000 		call SD_GetSpaceRemaining
 15320 5886 00C0      		rjmp .L853
 15321               	.L852:
 15322               	.LM1424:
 15323 5888 1092 0000 		sts sdValid,__zero_reg__
 15324               	.L853:
 15325               	.LM1425:
 15326 588c 80E3      		ldi r24,lo8(48)
 15327 588e E0EA      		ldi r30,lo8(1696)
 15328 5890 F6E0      		ldi r31,hi8(1696)
 15329 5892 848B      		std Z+20,r24
 15330               	.LM1426:
 15331 5894 812F      		mov r24,r17
 15332               	/* epilogue start */
 15333 5896 1F91      		pop r17
 15334               	.LVL1333:
 15335 5898 0895      		ret
 15336               	.LFE87:
 15338               	.global	__vector_47
 15340               	__vector_47:
 15341               	.LFB102:
 15342               	.LM1427:
 15343 589a 1F92      		push __zero_reg__
 15344 589c 0F92      		push r0
 15345 589e 0FB6      		in r0,__SREG__
 15346 58a0 0F92      		push r0
 15347 58a2 0BB6      		in r0,59-0
 15348 58a4 0F92      		push r0
 15349 58a6 1124      		clr __zero_reg__
 15350 58a8 2F93      		push r18
 15351 58aa 3F93      		push r19
 15352 58ac 4F93      		push r20
 15353 58ae 5F93      		push r21
 15354 58b0 6F93      		push r22
 15355 58b2 7F93      		push r23
 15356 58b4 8F93      		push r24
 15357 58b6 9F93      		push r25
 15358 58b8 AF93      		push r26
 15359 58ba BF93      		push r27
 15360 58bc EF93      		push r30
 15361 58be FF93      		push r31
 15362               	/* prologue: Signal */
 15363               	/* frame size = 0 */
 15364               	.LM1428:
 15365 58c0 0E94 0000 		call disk_timerproc
 15366               	.LM1429:
 15367 58c4 8091 0000 		lds r24,sdValid
 15368 58c8 8823      		tst r24
 15369 58ca 01F4      		brne .L857
 15370               	.LM1430:
 15371 58cc 8091 A806 		lds r24,1704
 15372 58d0 84FD      		sbrc r24,4
 15373 58d2 00C0      		rjmp .L857
 15374               	.LM1431:
 15375 58d4 0E94 0000 		call SD_Init
 15376               	.L857:
 15377               	/* epilogue start */
 15378               	.LM1432:
 15379 58d8 FF91      		pop r31
 15380 58da EF91      		pop r30
 15381 58dc BF91      		pop r27
 15382 58de AF91      		pop r26
 15383 58e0 9F91      		pop r25
 15384 58e2 8F91      		pop r24
 15385 58e4 7F91      		pop r23
 15386 58e6 6F91      		pop r22
 15387 58e8 5F91      		pop r21
 15388 58ea 4F91      		pop r20
 15389 58ec 3F91      		pop r19
 15390 58ee 2F91      		pop r18
 15391 58f0 0F90      		pop r0
 15392 58f2 0BBE      		out 59-0,r0
 15393 58f4 0F90      		pop r0
 15394 58f6 0FBE      		out __SREG__,r0
 15395 58f8 0F90      		pop r0
 15396 58fa 1F90      		pop __zero_reg__
 15397 58fc 1895      		reti
 15398               	.LFE102:
 15400               	.global	Button_Init
 15402               	Button_Init:
 15403               	.LFB103:
 15404               	.LM1433:
 15405               	.LVL1334:
 15406 58fe 0F93      		push r16
 15407               	.LVL1335:
 15408               	/* prologue: function */
 15409               	/* frame size = 0 */
 15410               	.LM1434:
 15411 5900 E1E0      		ldi r30,lo8(1)
 15412 5902 F0E0      		ldi r31,hi8(1)
 15413 5904 00C0      		rjmp 2f
 15414 5906 EE0F      	1:	lsl r30
 15415 5908 FF1F      		rol r31
 15416 590a 8A95      	2:	dec r24
 15417 590c 02F4      		brpl 1b
 15418 590e A0EA      		ldi r26,lo8(1696)
 15419 5910 B6E0      		ldi r27,hi8(1696)
 15420 5912 1296      		adiw r26,2
 15421 5914 EC93      		st X,r30
 15422 5916 1297      		sbiw r26,2
 15423               	.LM1435:
 15424 5918 E093 B000 		sts 176,r30
 15425               	.LM1436:
 15426 591c 4863      		ori r20,lo8(56)
 15427               	.LVL1336:
 15428 591e 5096      		adiw r26,16
 15429 5920 4C93      		st X,r20
 15430 5922 5097      		sbiw r26,16
 15431               	.LM1437:
 15432 5924 6623      		tst r22
 15433 5926 01F0      		breq .L861
 15434               	.LM1438:
 15435 5928 2223      		tst r18
 15436 592a 01F4      		brne .L860
 15437               	.LM1439:
 15438 592c 1A96      		adiw r26,10
 15439 592e EC93      		st X,r30
 15440 5930 1A97      		sbiw r26,10
 15441               	.LM1440:
 15442 5932 8091 A906 		lds r24,1705
 15443               	.LVL1337:
 15444 5936 00C0      		rjmp .L862
 15445               	.LVL1338:
 15446               	.L860:
 15447               	.LM1441:
 15448 5938 2130      		cpi r18,lo8(1)
 15449 593a 01F4      		brne .L861
 15450               	.LM1442:
 15451 593c 1B96      		adiw r26,11
 15452 593e EC93      		st X,r30
 15453 5940 1B97      		sbiw r26,11
 15454               	.LM1443:
 15455 5942 8091 A906 		lds r24,1705
 15456               	.LVL1339:
 15457 5946 000F      		lsl r16
 15458 5948 000F      		lsl r16
 15459               	.LVL1340:
 15460               	.L862:
 15461 594a 802B      		or r24,r16
 15462 594c 1996      		adiw r26,9
 15463 594e 8C93      		st X,r24
 15464               	.LVL1341:
 15465               	.L861:
 15466               	/* epilogue start */
 15467               	.LM1444:
 15468 5950 0F91      		pop r16
 15469               	.LVL1342:
 15470 5952 0895      		ret
 15471               	.LFE103:
 15473               	.global	Button_Pressed
 15475               	Button_Pressed:
 15476               	.LFB104:
 15477               	.LM1445:
 15478               	.LVL1343:
 15479               	/* prologue: function */
 15480               	/* frame size = 0 */
 15481               	.LM1446:
 15482 5954 4091 A806 		lds r20,1704
 15483 5958 90E0      		ldi r25,lo8(0)
 15484 595a 21E0      		ldi r18,lo8(1)
 15485 595c 30E0      		ldi r19,hi8(1)
 15486 595e 00C0      		rjmp 2f
 15487 5960 220F      	1:	lsl r18
 15488 5962 331F      		rol r19
 15489 5964 8A95      	2:	dec r24
 15490 5966 02F4      		brpl 1b
 15491 5968 50E0      		ldi r21,lo8(0)
 15492 596a 2423      		and r18,r20
 15493 596c 3523      		and r19,r21
 15494 596e 1216      		cp __zero_reg__,r18
 15495 5970 1306      		cpc __zero_reg__,r19
 15496 5972 04F0      		brlt .L864
 15497 5974 91E0      		ldi r25,lo8(1)
 15498               	.L864:
 15499               	.LM1447:
 15500 5976 892F      		mov r24,r25
 15501               	.LVL1344:
 15502               	/* epilogue start */
 15503 5978 0895      		ret
 15504               	.LFE104:
 15506               	.global	Accel_Write_Byte
 15508               	Accel_Write_Byte:
 15509               	.LFB106:
 15510               	.LM1448:
 15511               	.LVL1345:
 15512               	/* prologue: function */
 15513               	/* frame size = 0 */
 15514               	.LM1449:
 15515 597a E0EC      		ldi r30,lo8(2240)
 15516 597c F8E0      		ldi r31,hi8(2240)
 15517 597e 8383      		std Z+3,r24
 15518               	.L867:
 15519               	.LM1450:
 15520 5980 8091 C208 		lds r24,2242
 15521               	.LVL1346:
 15522 5984 87FF      		sbrs r24,7
 15523 5986 00C0      		rjmp .L867
 15524               	/* epilogue start */
 15525               	.LM1451:
 15526 5988 0895      		ret
 15527               	.LFE106:
 15529               	.global	Accel_Read_Byte
 15531               	Accel_Read_Byte:
 15532               	.LFB107:
 15533               	.LM1452:
 15534               	/* prologue: function */
 15535               	/* frame size = 0 */
 15536               	.LBB646:
 15537               	.LBB647:
 15538               	.LM1453:
 15539 598a E0EC      		ldi r30,lo8(2240)
 15540 598c F8E0      		ldi r31,hi8(2240)
 15541 598e 1382      		std Z+3,__zero_reg__
 15542               	.L871:
 15543               	.LM1454:
 15544 5990 8091 C208 		lds r24,2242
 15545 5994 87FF      		sbrs r24,7
 15546 5996 00C0      		rjmp .L871
 15547               	.LBE647:
 15548               	.LBE646:
 15549               	.LM1455:
 15550 5998 8091 C308 		lds r24,2243
 15551               	/* epilogue start */
 15552               	.LM1456:
 15553 599c 0895      		ret
 15554               	.LFE107:
 15556               	.global	Accel_WriteToAddress
 15558               	Accel_WriteToAddress:
 15559               	.LFB108:
 15560               	.LM1457:
 15561               	.LVL1347:
 15562               	/* prologue: function */
 15563               	/* frame size = 0 */
 15564               	.LM1458:
 15565 599e 90E1      		ldi r25,lo8(16)
 15566 59a0 E0E4      		ldi r30,lo8(1600)
 15567 59a2 F6E0      		ldi r31,hi8(1600)
 15568 59a4 9683      		std Z+6,r25
 15569               	.LM1459:
 15570 59a6 8F73      		andi r24,lo8(63)
 15571               	.LVL1348:
 15572               	.LBB648:
 15573               	.LBB649:
 15574               	.LM1460:
 15575 59a8 E0EC      		ldi r30,lo8(2240)
 15576 59aa F8E0      		ldi r31,hi8(2240)
 15577 59ac 8383      		std Z+3,r24
 15578               	.L875:
 15579               	.LM1461:
 15580 59ae 8091 C208 		lds r24,2242
 15581 59b2 87FF      		sbrs r24,7
 15582 59b4 00C0      		rjmp .L875
 15583               	.LBE649:
 15584               	.LBE648:
 15585               	.LBB650:
 15586               	.LBB651:
 15587               	.LM1462:
 15588 59b6 E0EC      		ldi r30,lo8(2240)
 15589 59b8 F8E0      		ldi r31,hi8(2240)
 15590 59ba 6383      		std Z+3,r22
 15591               	.L876:
 15592               	.LM1463:
 15593 59bc 8091 C208 		lds r24,2242
 15594 59c0 87FF      		sbrs r24,7
 15595 59c2 00C0      		rjmp .L876
 15596               	.LBE651:
 15597               	.LBE650:
 15598               	.LM1464:
 15599 59c4 80E1      		ldi r24,lo8(16)
 15600 59c6 E0E4      		ldi r30,lo8(1600)
 15601 59c8 F6E0      		ldi r31,hi8(1600)
 15602 59ca 8583      		std Z+5,r24
 15603               	/* epilogue start */
 15604               	.LM1465:
 15605 59cc 0895      		ret
 15606               	.LFE108:
 15608               	.global	Accel_ReadFromAddress
 15610               	Accel_ReadFromAddress:
 15611               	.LFB109:
 15612               	.LM1466:
 15613               	.LVL1349:
 15614               	/* prologue: function */
 15615               	/* frame size = 0 */
 15616               	.LM1467:
 15617 59ce 90E1      		ldi r25,lo8(16)
 15618 59d0 E0E4      		ldi r30,lo8(1600)
 15619 59d2 F6E0      		ldi r31,hi8(1600)
 15620 59d4 9683      		std Z+6,r25
 15621               	.LM1468:
 15622 59d6 8068      		ori r24,lo8(-128)
 15623               	.LVL1350:
 15624               	.LBB652:
 15625               	.LBB653:
 15626               	.LM1469:
 15627 59d8 E0EC      		ldi r30,lo8(2240)
 15628 59da F8E0      		ldi r31,hi8(2240)
 15629 59dc 8383      		std Z+3,r24
 15630               	.L881:
 15631               	.LM1470:
 15632 59de 8091 C208 		lds r24,2242
 15633 59e2 87FF      		sbrs r24,7
 15634 59e4 00C0      		rjmp .L881
 15635               	.LBE653:
 15636               	.LBE652:
 15637               	.LBB654:
 15638               	.LBB655:
 15639               	.LBB656:
 15640               	.LBB657:
 15641               	.LM1471:
 15642 59e6 E0EC      		ldi r30,lo8(2240)
 15643 59e8 F8E0      		ldi r31,hi8(2240)
 15644 59ea 1382      		std Z+3,__zero_reg__
 15645               	.L882:
 15646               	.LM1472:
 15647 59ec 8091 C208 		lds r24,2242
 15648 59f0 87FF      		sbrs r24,7
 15649 59f2 00C0      		rjmp .L882
 15650               	.LBE657:
 15651               	.LBE656:
 15652               	.LM1473:
 15653 59f4 8091 C308 		lds r24,2243
 15654               	.LVL1351:
 15655               	.LBE655:
 15656               	.LBE654:
 15657               	.LM1474:
 15658 59f8 90E1      		ldi r25,lo8(16)
 15659 59fa E0E4      		ldi r30,lo8(1600)
 15660 59fc F6E0      		ldi r31,hi8(1600)
 15661 59fe 9583      		std Z+5,r25
 15662               	.LVL1352:
 15663               	/* epilogue start */
 15664               	.LM1475:
 15665 5a00 0895      		ret
 15666               	.LFE109:
 15668               	.global	Accel_ReadResults
 15670               	Accel_ReadResults:
 15671               	.LFB110:
 15672               	.LM1476:
 15673               	.LVL1353:
 15674 5a02 CF93      		push r28
 15675 5a04 DF93      		push r29
 15676               	/* prologue: function */
 15677               	/* frame size = 0 */
 15678 5a06 9C01      		movw r18,r24
 15679 5a08 DA01      		movw r26,r20
 15680               	.LM1477:
 15681 5a0a 80E1      		ldi r24,lo8(16)
 15682               	.LVL1354:
 15683 5a0c E0E4      		ldi r30,lo8(1600)
 15684 5a0e F6E0      		ldi r31,hi8(1600)
 15685 5a10 8683      		std Z+6,r24
 15686               	.LBB658:
 15687               	.LBB659:
 15688               	.LM1478:
 15689 5a12 82EF      		ldi r24,lo8(-14)
 15690 5a14 E0EC      		ldi r30,lo8(2240)
 15691 5a16 F8E0      		ldi r31,hi8(2240)
 15692 5a18 8383      		std Z+3,r24
 15693               	.LVL1355:
 15694               	.L887:
 15695               	.LM1479:
 15696 5a1a 8091 C208 		lds r24,2242
 15697 5a1e 87FF      		sbrs r24,7
 15698 5a20 00C0      		rjmp .L887
 15699               	.LBE659:
 15700               	.LBE658:
 15701               	.LM1480:
 15702 5a22 E62F      		mov r30,r22
 15703 5a24 F0E0      		ldi r31,lo8(0)
 15704               	.LVL1356:
 15705 5a26 EE0F      		lsl r30
 15706 5a28 FF1F      		rol r31
 15707               	.LVL1357:
 15708 5a2a E20F      		add r30,r18
 15709 5a2c F31F      		adc r31,r19
 15710               	.LVL1358:
 15711 5a2e C081      		ld r28,Z
 15712 5a30 D181      		ldd r29,Z+1
 15713               	.LBB660:
 15714               	.LBB661:
 15715               	.LBB662:
 15716               	.LBB663:
 15717               	.LM1481:
 15718 5a32 E0EC      		ldi r30,lo8(2240)
 15719 5a34 F8E0      		ldi r31,hi8(2240)
 15720               	.LVL1359:
 15721 5a36 1382      		std Z+3,__zero_reg__
 15722               	.L888:
 15723               	.LM1482:
 15724 5a38 8091 C208 		lds r24,2242
 15725 5a3c 87FF      		sbrs r24,7
 15726 5a3e 00C0      		rjmp .L888
 15727               	.LBE663:
 15728               	.LBE662:
 15729               	.LM1483:
 15730 5a40 2091 C308 		lds r18,2243
 15731               	.LVL1360:
 15732               	.LBE661:
 15733               	.LBE660:
 15734               	.LBB664:
 15735               	.LBB665:
 15736               	.LBB666:
 15737               	.LBB667:
 15738               	.LM1484:
 15739 5a44 E0EC      		ldi r30,lo8(2240)
 15740 5a46 F8E0      		ldi r31,hi8(2240)
 15741 5a48 1382      		std Z+3,__zero_reg__
 15742               	.L889:
 15743               	.LM1485:
 15744 5a4a 8091 C208 		lds r24,2242
 15745 5a4e 87FF      		sbrs r24,7
 15746 5a50 00C0      		rjmp .L889
 15747               	.LBE667:
 15748               	.LBE666:
 15749               	.LM1486:
 15750 5a52 4091 C308 		lds r20,2243
 15751               	.LBE665:
 15752               	.LBE664:
 15753               	.LM1487:
 15754 5a56 FD01      		movw r30,r26
 15755 5a58 EE0F      		lsl r30
 15756 5a5a FF1F      		rol r31
 15757 5a5c EC0F      		add r30,r28
 15758 5a5e FD1F      		adc r31,r29
 15759 5a60 30E0      		ldi r19,lo8(0)
 15760 5a62 2050      		subi r18,lo8(-(1024))
 15761 5a64 3C4F      		sbci r19,hi8(-(1024))
 15762 5a66 942F      		mov r25,r20
 15763 5a68 80E0      		ldi r24,lo8(0)
 15764 5a6a 280F      		add r18,r24
 15765 5a6c 391F      		adc r19,r25
 15766 5a6e 2083      		st Z,r18
 15767 5a70 3183      		std Z+1,r19
 15768               	.LBB668:
 15769               	.LBB669:
 15770               	.LBB670:
 15771               	.LBB671:
 15772               	.LM1488:
 15773 5a72 E0EC      		ldi r30,lo8(2240)
 15774 5a74 F8E0      		ldi r31,hi8(2240)
 15775 5a76 1382      		std Z+3,__zero_reg__
 15776               	.L890:
 15777               	.LM1489:
 15778 5a78 8091 C208 		lds r24,2242
 15779 5a7c 87FF      		sbrs r24,7
 15780 5a7e 00C0      		rjmp .L890
 15781               	.LBE671:
 15782               	.LBE670:
 15783               	.LM1490:
 15784 5a80 2091 C308 		lds r18,2243
 15785               	.LBE669:
 15786               	.LBE668:
 15787               	.LBB672:
 15788               	.LBB673:
 15789               	.LBB674:
 15790               	.LBB675:
 15791               	.LM1491:
 15792 5a84 E0EC      		ldi r30,lo8(2240)
 15793 5a86 F8E0      		ldi r31,hi8(2240)
 15794 5a88 1382      		std Z+3,__zero_reg__
 15795               	.L891:
 15796               	.LM1492:
 15797 5a8a 8091 C208 		lds r24,2242
 15798 5a8e 87FF      		sbrs r24,7
 15799 5a90 00C0      		rjmp .L891
 15800               	.LBE675:
 15801               	.LBE674:
 15802               	.LM1493:
 15803 5a92 4091 C308 		lds r20,2243
 15804               	.LBE673:
 15805               	.LBE672:
 15806               	.LM1494:
 15807 5a96 FD01      		movw r30,r26
 15808 5a98 3196      		adiw r30,1
 15809 5a9a EE0F      		lsl r30
 15810 5a9c FF1F      		rol r31
 15811 5a9e EC0F      		add r30,r28
 15812 5aa0 FD1F      		adc r31,r29
 15813 5aa2 30E0      		ldi r19,lo8(0)
 15814 5aa4 2050      		subi r18,lo8(-(1024))
 15815 5aa6 3C4F      		sbci r19,hi8(-(1024))
 15816 5aa8 942F      		mov r25,r20
 15817 5aaa 80E0      		ldi r24,lo8(0)
 15818 5aac 280F      		add r18,r24
 15819 5aae 391F      		adc r19,r25
 15820 5ab0 2083      		st Z,r18
 15821 5ab2 3183      		std Z+1,r19
 15822               	.LBB676:
 15823               	.LBB677:
 15824               	.LBB678:
 15825               	.LBB679:
 15826               	.LM1495:
 15827 5ab4 E0EC      		ldi r30,lo8(2240)
 15828 5ab6 F8E0      		ldi r31,hi8(2240)
 15829 5ab8 1382      		std Z+3,__zero_reg__
 15830               	.L892:
 15831               	.LM1496:
 15832 5aba 8091 C208 		lds r24,2242
 15833 5abe 87FF      		sbrs r24,7
 15834 5ac0 00C0      		rjmp .L892
 15835               	.LBE679:
 15836               	.LBE678:
 15837               	.LM1497:
 15838 5ac2 2091 C308 		lds r18,2243
 15839               	.LBE677:
 15840               	.LBE676:
 15841               	.LBB680:
 15842               	.LBB681:
 15843               	.LBB682:
 15844               	.LBB683:
 15845               	.LM1498:
 15846 5ac6 E0EC      		ldi r30,lo8(2240)
 15847 5ac8 F8E0      		ldi r31,hi8(2240)
 15848 5aca 1382      		std Z+3,__zero_reg__
 15849               	.L893:
 15850               	.LM1499:
 15851 5acc 8091 C208 		lds r24,2242
 15852 5ad0 87FF      		sbrs r24,7
 15853 5ad2 00C0      		rjmp .L893
 15854               	.LBE683:
 15855               	.LBE682:
 15856               	.LM1500:
 15857 5ad4 4091 C308 		lds r20,2243
 15858               	.LBE681:
 15859               	.LBE680:
 15860               	.LM1501:
 15861 5ad8 1296      		adiw r26,2
 15862 5ada AA0F      		lsl r26
 15863 5adc BB1F      		rol r27
 15864 5ade CA0F      		add r28,r26
 15865 5ae0 DB1F      		adc r29,r27
 15866 5ae2 30E0      		ldi r19,lo8(0)
 15867 5ae4 2050      		subi r18,lo8(-(1024))
 15868 5ae6 3C4F      		sbci r19,hi8(-(1024))
 15869 5ae8 942F      		mov r25,r20
 15870 5aea 80E0      		ldi r24,lo8(0)
 15871 5aec 280F      		add r18,r24
 15872 5aee 391F      		adc r19,r25
 15873 5af0 2883      		st Y,r18
 15874 5af2 3983      		std Y+1,r19
 15875               	.LM1502:
 15876 5af4 80E1      		ldi r24,lo8(16)
 15877 5af6 E0E4      		ldi r30,lo8(1600)
 15878 5af8 F6E0      		ldi r31,hi8(1600)
 15879 5afa 8583      		std Z+5,r24
 15880               	/* epilogue start */
 15881               	.LM1503:
 15882 5afc DF91      		pop r29
 15883 5afe CF91      		pop r28
 15884 5b00 0895      		ret
 15885               	.LFE110:
 15887               	.global	Sensors_ResetAccelBuffers
 15889               	Sensors_ResetAccelBuffers:
 15890               	.LFB111:
 15891               	.LM1504:
 15892               	/* prologue: function */
 15893               	/* frame size = 0 */
 15894               	.LM1505:
 15895 5b02 1092 0000 		sts accelBufferCounter,__zero_reg__
 15896 5b06 1092 0000 		sts (accelBufferCounter)+1,__zero_reg__
 15897               	.LM1506:
 15898 5b0a 1092 0000 		sts accelBufferToWriteTo,__zero_reg__
 15899               	.LBB684:
 15900               	.LM1507:
 15901 5b0e 1092 0000 		sts okToSendAccelBuffer,__zero_reg__
 15902 5b12 1092 0000 		sts okToSendAccelBuffer+1,__zero_reg__
 15903               	/* epilogue start */
 15904               	.LBE684:
 15905               	.LM1508:
 15906 5b16 0895      		ret
 15907               	.LFE111:
 15909               	.global	Accel_Init
 15911               	Accel_Init:
 15912               	.LFB105:
 15913               	.LM1509:
 15914               	/* prologue: function */
 15915               	/* frame size = 0 */
 15916               	.LM1510:
 15917 5b18 E0E4      		ldi r30,lo8(1600)
 15918 5b1a F6E0      		ldi r31,hi8(1600)
 15919 5b1c 80EB      		ldi r24,lo8(-80)
 15920 5b1e 8183      		std Z+1,r24
 15921               	.LM1511:
 15922 5b20 88E3      		ldi r24,lo8(56)
 15923 5b22 848B      		std Z+20,r24
 15924               	.LM1512:
 15925 5b24 80E1      		ldi r24,lo8(16)
 15926 5b26 8583      		std Z+5,r24
 15927               	.LM1513:
 15928 5b28 E0EC      		ldi r30,lo8(2240)
 15929 5b2a F8E0      		ldi r31,hi8(2240)
 15930 5b2c 8081      		ld r24,Z
 15931 5b2e 8C65      		ori r24,lo8(92)
 15932 5b30 8083      		st Z,r24
 15933               	.LM1514:
 15934 5b32 8CE0      		ldi r24,lo8(12)
 15935 5b34 E0EA      		ldi r30,lo8(1696)
 15936 5b36 F6E0      		ldi r31,hi8(1696)
 15937 5b38 8283      		std Z+2,r24
 15938               	.LM1515:
 15939 5b3a 81E3      		ldi r24,lo8(49)
 15940 5b3c 69E0      		ldi r22,lo8(9)
 15941 5b3e 0E94 0000 		call Accel_WriteToAddress
 15942               	.LM1516:
 15943 5b42 8CE2      		ldi r24,lo8(44)
 15944 5b44 6CE0      		ldi r22,lo8(12)
 15945 5b46 0E94 0000 		call Accel_WriteToAddress
 15946               	.LM1517:
 15947 5b4a 8DE2      		ldi r24,lo8(45)
 15948 5b4c 68E0      		ldi r22,lo8(8)
 15949 5b4e 0E94 0000 		call Accel_WriteToAddress
 15950               	.LM1518:
 15951 5b52 E0E0      		ldi r30,lo8(2816)
 15952 5b54 FBE0      		ldi r31,hi8(2816)
 15953 5b56 8FE7      		ldi r24,lo8(5759)
 15954 5b58 96E1      		ldi r25,hi8(5759)
 15955 5b5a 86A3      		std Z+38,r24
 15956 5b5c 97A3      		std Z+39,r25
 15957               	.LM1519:
 15958 5b5e 8081      		ld r24,Z
 15959 5b60 807F      		andi r24,lo8(-16)
 15960 5b62 8460      		ori r24,lo8(4)
 15961 5b64 8083      		st Z,r24
 15962               	.LM1520:
 15963 5b66 8681      		ldd r24,Z+6
 15964 5b68 8360      		ori r24,lo8(3)
 15965 5b6a 8683      		std Z+6,r24
 15966               	.LM1521:
 15967 5b6c 0E94 0000 		call Sensors_ResetAccelBuffers
 15968               	/* epilogue start */
 15969               	.LM1522:
 15970 5b70 0895      		ret
 15971               	.LFE105:
 15973               	.global	__vector_108
 15975               	__vector_108:
 15976               	.LFB112:
 15977               	.LM1523:
 15978 5b72 1F92      		push __zero_reg__
 15979 5b74 0F92      		push r0
 15980 5b76 0FB6      		in r0,__SREG__
 15981 5b78 0F92      		push r0
 15982 5b7a 0BB6      		in r0,59-0
 15983 5b7c 0F92      		push r0
 15984 5b7e 1124      		clr __zero_reg__
 15985 5b80 2F93      		push r18
 15986 5b82 3F93      		push r19
 15987 5b84 4F93      		push r20
 15988 5b86 5F93      		push r21
 15989 5b88 6F93      		push r22
 15990 5b8a 7F93      		push r23
 15991 5b8c 8F93      		push r24
 15992 5b8e 9F93      		push r25
 15993 5b90 AF93      		push r26
 15994 5b92 BF93      		push r27
 15995 5b94 CF93      		push r28
 15996 5b96 DF93      		push r29
 15997 5b98 EF93      		push r30
 15998 5b9a FF93      		push r31
 15999               	/* prologue: Signal */
 16000               	/* frame size = 0 */
 16001               	.LM1524:
 16002 5b9c 8091 0000 		lds r24,recording
 16003 5ba0 8823      		tst r24
 16004 5ba2 01F4      		brne .+2
 16005 5ba4 00C0      		rjmp .L909
 16006 5ba6 8091 0000 		lds r24,wantToRecordFast
 16007 5baa 8823      		tst r24
 16008 5bac 01F0      		breq .L909
 16009 5bae 8091 0000 		lds r24,accelBufferToWriteTo
 16010 5bb2 C82F      		mov r28,r24
 16011 5bb4 D0E0      		ldi r29,lo8(0)
 16012 5bb6 FE01      		movw r30,r28
 16013 5bb8 E050      		subi r30,lo8(-(okToSendAccelBuffer))
 16014 5bba F040      		sbci r31,hi8(-(okToSendAccelBuffer))
 16015 5bbc 8081      		ld r24,Z
 16016 5bbe 8823      		tst r24
 16017 5bc0 01F4      		brne .L909
 16018               	.LM1525:
 16019 5bc2 8091 0000 		lds r24,accelBufferCounter
 16020 5bc6 9091 0000 		lds r25,(accelBufferCounter)+1
 16021 5bca 892B      		or r24,r25
 16022 5bcc 01F4      		brne .L908
 16023               	.LM1526:
 16024 5bce 0E94 0000 		call Time_Get32BitTimer
 16025 5bd2 CC0F      		lsl r28
 16026 5bd4 DD1F      		rol r29
 16027 5bd6 CC0F      		lsl r28
 16028 5bd8 DD1F      		rol r29
 16029 5bda C050      		subi r28,lo8(-(accelSampleStartTime))
 16030 5bdc D040      		sbci r29,hi8(-(accelSampleStartTime))
 16031 5bde 6883      		st Y,r22
 16032 5be0 7983      		std Y+1,r23
 16033 5be2 8A83      		std Y+2,r24
 16034 5be4 9B83      		std Y+3,r25
 16035               	.L908:
 16036               	.LM1527:
 16037 5be6 8091 0000 		lds r24,accelBufferCounter
 16038 5bea 9091 0000 		lds r25,(accelBufferCounter)+1
 16039 5bee 0396      		adiw r24,3
 16040 5bf0 8093 0000 		sts accelBufferCounter,r24
 16041 5bf4 9093 0000 		sts (accelBufferCounter)+1,r25
 16042               	.LM1528:
 16043 5bf8 8458      		subi r24,lo8(900)
 16044 5bfa 9340      		sbci r25,hi8(900)
 16045 5bfc 01F4      		brne .L909
 16046               	.LM1529:
 16047 5bfe 1092 0000 		sts accelBufferCounter,__zero_reg__
 16048 5c02 1092 0000 		sts (accelBufferCounter)+1,__zero_reg__
 16049               	.LM1530:
 16050 5c06 8091 0000 		lds r24,accelBufferToWriteTo
 16051 5c0a E82F      		mov r30,r24
 16052 5c0c F0E0      		ldi r31,lo8(0)
 16053 5c0e E050      		subi r30,lo8(-(okToSendAccelBuffer))
 16054 5c10 F040      		sbci r31,hi8(-(okToSendAccelBuffer))
 16055 5c12 91E0      		ldi r25,lo8(1)
 16056 5c14 9083      		st Z,r25
 16057               	.LM1531:
 16058 5c16 8F5F      		subi r24,lo8(-(1))
 16059 5c18 8093 0000 		sts accelBufferToWriteTo,r24
 16060               	.LM1532:
 16061 5c1c 8230      		cpi r24,lo8(2)
 16062 5c1e 01F4      		brne .L909
 16063               	.LM1533:
 16064 5c20 1092 0000 		sts accelBufferToWriteTo,__zero_reg__
 16065               	.L909:
 16066               	/* epilogue start */
 16067               	.LM1534:
 16068 5c24 FF91      		pop r31
 16069 5c26 EF91      		pop r30
 16070 5c28 DF91      		pop r29
 16071 5c2a CF91      		pop r28
 16072 5c2c BF91      		pop r27
 16073 5c2e AF91      		pop r26
 16074 5c30 9F91      		pop r25
 16075 5c32 8F91      		pop r24
 16076 5c34 7F91      		pop r23
 16077 5c36 6F91      		pop r22
 16078 5c38 5F91      		pop r21
 16079 5c3a 4F91      		pop r20
 16080 5c3c 3F91      		pop r19
 16081 5c3e 2F91      		pop r18
 16082 5c40 0F90      		pop r0
 16083 5c42 0BBE      		out 59-0,r0
 16084 5c44 0F90      		pop r0
 16085 5c46 0FBE      		out __SREG__,r0
 16086 5c48 0F90      		pop r0
 16087 5c4a 1F90      		pop __zero_reg__
 16088 5c4c 1895      		reti
 16089               	.LFE112:
 16091               	.global	Sensors_ReadTemperature
 16093               	Sensors_ReadTemperature:
 16094               	.LFB114:
 16095               	.LM1535:
 16096               	/* prologue: function */
 16097               	/* frame size = 0 */
 16098               	.LM1536:
 16099 5c4e E0E0      		ldi r30,lo8(512)
 16100 5c50 F2E0      		ldi r31,hi8(512)
 16101 5c52 2289      		ldd r18,Z+18
 16102 5c54 3389      		ldd r19,Z+19
 16103               	.LM1537:
 16104 5c56 C901      		movw r24,r18
 16105               	/* epilogue start */
 16106 5c58 0895      		ret
 16107               	.LFE114:
 16109               	.global	Sensors_ReadRespiration
 16111               	Sensors_ReadRespiration:
 16112               	.LFB115:
 16113               	.LM1538:
 16114               	/* prologue: function */
 16115               	/* frame size = 0 */
 16116               	.LM1539:
 16117 5c5a E0E4      		ldi r30,lo8(576)
 16118 5c5c F2E0      		ldi r31,hi8(576)
 16119 5c5e 2089      		ldd r18,Z+16
 16120 5c60 3189      		ldd r19,Z+17
 16121               	.LM1540:
 16122 5c62 C901      		movw r24,r18
 16123               	/* epilogue start */
 16124 5c64 0895      		ret
 16125               	.LFE115:
 16127               	.global	Sensors_ReadEKG
 16129               	Sensors_ReadEKG:
 16130               	.LFB116:
 16131               	.LM1541:
 16132               	/* prologue: function */
 16133               	/* frame size = 0 */
 16134               	.LM1542:
 16135 5c66 E0E0      		ldi r30,lo8(512)
 16136 5c68 F2E0      		ldi r31,hi8(512)
 16137 5c6a 2089      		ldd r18,Z+16
 16138 5c6c 3189      		ldd r19,Z+17
 16139               	.LM1543:
 16140 5c6e C901      		movw r24,r18
 16141               	/* epilogue start */
 16142 5c70 0895      		ret
 16143               	.LFE116:
 16145               	.global	Sensors_ReadHumidity
 16147               	Sensors_ReadHumidity:
 16148               	.LFB117:
 16149               	.LM1544:
 16150 5c72 0F93      		push r16
 16151 5c74 1F93      		push r17
 16152               	/* prologue: function */
 16153               	/* frame size = 0 */
 16154               	.LM1545:
 16155 5c76 E0E0      		ldi r30,lo8(512)
 16156 5c78 F2E0      		ldi r31,hi8(512)
 16157 5c7a 6489      		ldd r22,Z+20
 16158 5c7c 7589      		ldd r23,Z+21
 16159 5c7e 0091 0000 		lds r16,zeroOffsetA
 16160 5c82 1091 0000 		lds r17,(zeroOffsetA)+1
 16161 5c86 601B      		sub r22,r16
 16162 5c88 710B      		sbc r23,r17
 16163 5c8a 80E0      		ldi r24,lo8(0)
 16164 5c8c 90E0      		ldi r25,hi8(0)
 16165               	.LVL1361:
 16166               	.LM1546:
 16167 5c8e 22E6      		ldi r18,lo8(19554)
 16168 5c90 3CE4      		ldi r19,hi8(19554)
 16169 5c92 40E0      		ldi r20,hlo8(19554)
 16170 5c94 50E0      		ldi r21,hhi8(19554)
 16171 5c96 0E94 0000 		call __mulsi3
 16172 5c9a 9B01      		movw r18,r22
 16173 5c9c AC01      		movw r20,r24
 16174               	.LVL1362:
 16175               	.LM1547:
 16176 5c9e 8EE4      		ldi r24,lo8(2382)
 16177 5ca0 99E0      		ldi r25,hi8(2382)
 16178               	.LVL1363:
 16179 5ca2 089F      		mul r16,r24
 16180 5ca4 B001      		movw r22,r0
 16181 5ca6 099F      		mul r16,r25
 16182 5ca8 700D      		add r23,r0
 16183 5caa 189F      		mul r17,r24
 16184 5cac 700D      		add r23,r0
 16185 5cae 1124      		clr r1
 16186 5cb0 80E0      		ldi r24,lo8(0)
 16187 5cb2 90E0      		ldi r25,hi8(0)
 16188 5cb4 6050      		subi r22,lo8(-(-9756672))
 16189 5cb6 704E      		sbci r23,hi8(-(-9756672))
 16190 5cb8 8449      		sbci r24,hlo8(-(-9756672))
 16191 5cba 9040      		sbci r25,hhi8(-(-9756672))
 16192 5cbc 620F      		add r22,r18
 16193 5cbe 731F      		adc r23,r19
 16194 5cc0 841F      		adc r24,r20
 16195 5cc2 951F      		adc r25,r21
 16196 5cc4 20E0      		ldi r18,lo8(4096)
 16197 5cc6 30E1      		ldi r19,hi8(4096)
 16198               	.LVL1364:
 16199 5cc8 201B      		sub r18,r16
 16200 5cca 310B      		sbc r19,r17
 16201 5ccc 40E0      		ldi r20,lo8(0)
 16202 5cce 50E0      		ldi r21,hi8(0)
 16203 5cd0 0E94 0000 		call __udivmodsi4
 16204 5cd4 CA01      		movw r24,r20
 16205 5cd6 B901      		movw r22,r18
 16206 5cd8 2AE0      		ldi r18,lo8(10)
 16207 5cda 30E0      		ldi r19,hi8(10)
 16208 5cdc 40E0      		ldi r20,hlo8(10)
 16209 5cde 50E0      		ldi r21,hhi8(10)
 16210 5ce0 0E94 0000 		call __udivmodsi4
 16211 5ce4 C901      		movw r24,r18
 16212               	/* epilogue start */
 16213               	.LM1548:
 16214 5ce6 1F91      		pop r17
 16215 5ce8 0F91      		pop r16
 16216 5cea 0895      		ret
 16217               	.LFE117:
 16219               	.global	Sensors_ResetTemperatureBuffers
 16221               	Sensors_ResetTemperatureBuffers:
 16222               	.LFB118:
 16223               	.LM1549:
 16224               	/* prologue: function */
 16225               	/* frame size = 0 */
 16226               	.LM1550:
 16227 5cec 1092 0000 		sts temperatureBufferCounter,__zero_reg__
 16228 5cf0 1092 0000 		sts (temperatureBufferCounter)+1,__zero_reg__
 16229               	.LM1551:
 16230 5cf4 1092 0000 		sts temperatureBufferToWriteTo,__zero_reg__
 16231               	.LBB685:
 16232               	.LM1552:
 16233 5cf8 1092 0000 		sts okToSendTemperatureBuffer,__zero_reg__
 16234 5cfc 1092 0000 		sts okToSendTemperatureBuffer+1,__zero_reg__
 16235               	/* epilogue start */
 16236               	.LBE685:
 16237               	.LM1553:
 16238 5d00 0895      		ret
 16239               	.LFE118:
 16241               	.global	Sensors_ResetRespirationBuffers
 16243               	Sensors_ResetRespirationBuffers:
 16244               	.LFB119:
 16245               	.LM1554:
 16246               	/* prologue: function */
 16247               	/* frame size = 0 */
 16248               	.LM1555:
 16249 5d02 1092 0000 		sts respirationBufferCounter,__zero_reg__
 16250 5d06 1092 0000 		sts (respirationBufferCounter)+1,__zero_reg__
 16251               	.LM1556:
 16252 5d0a 1092 0000 		sts respirationBufferToWriteTo,__zero_reg__
 16253               	.LBB686:
 16254               	.LM1557:
 16255 5d0e 1092 0000 		sts okToSendRespirationBuffer,__zero_reg__
 16256 5d12 1092 0000 		sts okToSendRespirationBuffer+1,__zero_reg__
 16257 5d16 1092 0000 		sts okToSendRespirationBuffer+2,__zero_reg__
 16258               	/* epilogue start */
 16259               	.LBE686:
 16260               	.LM1558:
 16261 5d1a 0895      		ret
 16262               	.LFE119:
 16264               	.global	Sensors_ResetEKGBuffers
 16266               	Sensors_ResetEKGBuffers:
 16267               	.LFB120:
 16268               	.LM1559:
 16269               	/* prologue: function */
 16270               	/* frame size = 0 */
 16271               	.LM1560:
 16272 5d1c 1092 0000 		sts EKGBufferCounter,__zero_reg__
 16273 5d20 1092 0000 		sts (EKGBufferCounter)+1,__zero_reg__
 16274               	.LM1561:
 16275 5d24 1092 0000 		sts EKGBufferToWriteTo,__zero_reg__
 16276               	.LBB687:
 16277               	.LM1562:
 16278 5d28 1092 0000 		sts okToSendEKGBuffer,__zero_reg__
 16279 5d2c 1092 0000 		sts okToSendEKGBuffer+1,__zero_reg__
 16280 5d30 1092 0000 		sts okToSendEKGBuffer+2,__zero_reg__
 16281               	/* epilogue start */
 16282               	.LBE687:
 16283               	.LM1563:
 16284 5d34 0895      		ret
 16285               	.LFE120:
 16287               	.global	Sensors_ResetHumidityBuffers
 16289               	Sensors_ResetHumidityBuffers:
 16290               	.LFB121:
 16291               	.LM1564:
 16292               	/* prologue: function */
 16293               	/* frame size = 0 */
 16294               	.LM1565:
 16295 5d36 1092 0000 		sts humidityBufferCounter,__zero_reg__
 16296 5d3a 1092 0000 		sts (humidityBufferCounter)+1,__zero_reg__
 16297               	.LM1566:
 16298 5d3e 1092 0000 		sts humidityBufferToWriteTo,__zero_reg__
 16299               	.LBB688:
 16300               	.LM1567:
 16301 5d42 1092 0000 		sts okToSendHumidityBuffer,__zero_reg__
 16302 5d46 1092 0000 		sts okToSendHumidityBuffer+1,__zero_reg__
 16303               	/* epilogue start */
 16304               	.LBE688:
 16305               	.LM1568:
 16306 5d4a 0895      		ret
 16307               	.LFE121:
 16309               	.global	Sensors_Init
 16311               	Sensors_Init:
 16312               	.LFB113:
 16313               	.LM1569:
 16314 5d4c CF93      		push r28
 16315 5d4e DF93      		push r29
 16316               	/* prologue: function */
 16317               	/* frame size = 0 */
 16318               	.LBB689:
 16319               	.LBB690:
 16320               	.LM1570:
 16321 5d50 8AEC      		ldi r24,lo8(458)
 16322 5d52 91E0      		ldi r25,hi8(458)
 16323 5d54 42E0      		ldi r20,lo8(2)
 16324 5d56 DC01      		movw r26,r24
 16325 5d58 4C93      		st X,r20
 16326               	.LBB691:
 16327               	.LM1571:
 16328 5d5a E0E2      		ldi r30,lo8(32)
 16329 5d5c F0E0      		ldi r31,hi8(32)
 16330               	/* #APP */
 16331               	 ;  264 "sensorsCS.c" 1
 16332 5d5e E491      		lpm r30, Z
 16333               		
 16334               	 ;  0 "" 2
 16335               	.LVL1365:
 16336               	/* #NOAPP */
 16337               	.LBE691:
 16338               	.LM1572:
 16339 5d60 1C92      		st X,__zero_reg__
 16340               	.LBE690:
 16341               	.LBE689:
 16342               	.LM1573:
 16343 5d62 A0E0      		ldi r26,lo8(512)
 16344 5d64 B2E0      		ldi r27,hi8(512)
 16345 5d66 1C96      		adiw r26,12
 16346 5d68 EC93      		st X,r30
 16347 5d6a 1C97      		sbiw r26,12
 16348               	.LBB692:
 16349               	.LBB693:
 16350               	.LM1574:
 16351 5d6c EC01      		movw r28,r24
 16352 5d6e 4883      		st Y,r20
 16353               	.LBB694:
 16354               	.LM1575:
 16355 5d70 E1E2      		ldi r30,lo8(33)
 16356 5d72 F0E0      		ldi r31,hi8(33)
 16357               	.LVL1366:
 16358               	/* #APP */
 16359               	 ;  264 "sensorsCS.c" 1
 16360 5d74 E491      		lpm r30, Z
 16361               		
 16362               	 ;  0 "" 2
 16363               	.LVL1367:
 16364               	/* #NOAPP */
 16365               	.LBE694:
 16366               	.LM1576:
 16367 5d76 1882      		st Y,__zero_reg__
 16368               	.LBE693:
 16369               	.LBE692:
 16370               	.LM1577:
 16371 5d78 1D96      		adiw r26,13
 16372 5d7a EC93      		st X,r30
 16373 5d7c 1D97      		sbiw r26,13
 16374               	.LBB695:
 16375               	.LBB696:
 16376               	.LM1578:
 16377 5d7e 4883      		st Y,r20
 16378               	.LBB697:
 16379               	.LM1579:
 16380 5d80 E4E2      		ldi r30,lo8(36)
 16381 5d82 F0E0      		ldi r31,hi8(36)
 16382               	.LVL1368:
 16383               	/* #APP */
 16384               	 ;  264 "sensorsCS.c" 1
 16385 5d84 E491      		lpm r30, Z
 16386               		
 16387               	 ;  0 "" 2
 16388               	.LVL1369:
 16389               	/* #NOAPP */
 16390               	.LBE697:
 16391               	.LM1580:
 16392 5d86 1882      		st Y,__zero_reg__
 16393               	.LBE696:
 16394               	.LBE695:
 16395               	.LM1581:
 16396 5d88 20E4      		ldi r18,lo8(576)
 16397 5d8a 32E0      		ldi r19,hi8(576)
 16398 5d8c E901      		movw r28,r18
 16399 5d8e EC87      		std Y+12,r30
 16400               	.LBB698:
 16401               	.LBB699:
 16402               	.LM1582:
 16403 5d90 FC01      		movw r30,r24
 16404               	.LVL1370:
 16405 5d92 4083      		st Z,r20
 16406               	.LBB700:
 16407               	.LM1583:
 16408 5d94 E5E2      		ldi r30,lo8(37)
 16409 5d96 F0E0      		ldi r31,hi8(37)
 16410               	/* #APP */
 16411               	 ;  264 "sensorsCS.c" 1
 16412 5d98 E491      		lpm r30, Z
 16413               		
 16414               	 ;  0 "" 2
 16415               	.LVL1371:
 16416               	/* #NOAPP */
 16417               	.LBE700:
 16418               	.LM1584:
 16419 5d9a EC01      		movw r28,r24
 16420 5d9c 1882      		st Y,__zero_reg__
 16421               	.LBE699:
 16422               	.LBE698:
 16423               	.LM1585:
 16424 5d9e E901      		movw r28,r18
 16425 5da0 ED87      		std Y+13,r30
 16426               	.LM1586:
 16427 5da2 61E0      		ldi r22,lo8(1)
 16428 5da4 9096      		adiw r26,32
 16429 5da6 6C93      		st X,r22
 16430 5da8 9097      		sbiw r26,32
 16431               	.LM1587:
 16432 5daa 70E2      		ldi r23,lo8(32)
 16433 5dac 9196      		adiw r26,33
 16434 5dae 7C93      		st X,r23
 16435 5db0 9197      		sbiw r26,33
 16436               	.LM1588:
 16437 5db2 9896      		adiw r26,40
 16438 5db4 6C93      		st X,r22
 16439 5db6 9897      		sbiw r26,40
 16440               	.LM1589:
 16441 5db8 88E2      		ldi r24,lo8(40)
 16442 5dba 9996      		adiw r26,41
 16443 5dbc 8C93      		st X,r24
 16444 5dbe 9997      		sbiw r26,41
 16445               	.LM1590:
 16446 5dc0 D096      		adiw r26,48
 16447 5dc2 6C93      		st X,r22
 16448 5dc4 D097      		sbiw r26,48
 16449               	.LM1591:
 16450 5dc6 80E3      		ldi r24,lo8(48)
 16451 5dc8 D196      		adiw r26,49
 16452 5dca 8C93      		st X,r24
 16453 5dcc D197      		sbiw r26,49
 16454               	.LM1592:
 16455 5dce D896      		adiw r26,56
 16456 5dd0 6C93      		st X,r22
 16457 5dd2 D897      		sbiw r26,56
 16458               	.LM1593:
 16459 5dd4 88E0      		ldi r24,lo8(8)
 16460 5dd6 D996      		adiw r26,57
 16461 5dd8 8C93      		st X,r24
 16462 5dda D997      		sbiw r26,57
 16463               	.LM1594:
 16464 5ddc 1496      		adiw r26,4
 16465 5dde 8C91      		ld r24,X
 16466 5de0 1497      		sbiw r26,4
 16467 5de2 887F      		andi r24,lo8(-8)
 16468 5de4 8460      		ori r24,lo8(4)
 16469 5de6 1496      		adiw r26,4
 16470 5de8 8C93      		st X,r24
 16471 5dea 1497      		sbiw r26,4
 16472               	.LM1595:
 16473 5dec 1296      		adiw r26,2
 16474 5dee 7C93      		st X,r23
 16475 5df0 1297      		sbiw r26,2
 16476               	.LM1596:
 16477 5df2 1396      		adiw r26,3
 16478 5df4 8C91      		ld r24,X
 16479 5df6 1397      		sbiw r26,3
 16480 5df8 806C      		ori r24,lo8(-64)
 16481 5dfa 1396      		adiw r26,3
 16482 5dfc 8C93      		st X,r24
 16483 5dfe 1397      		sbiw r26,3
 16484               	.LM1597:
 16485 5e00 1196      		adiw r26,1
 16486 5e02 8C91      		ld r24,X
 16487 5e04 1197      		sbiw r26,1
 16488 5e06 8860      		ori r24,lo8(8)
 16489 5e08 1196      		adiw r26,1
 16490 5e0a 8C93      		st X,r24
 16491 5e0c 1197      		sbiw r26,1
 16492               	.LM1598:
 16493 5e0e 9896      		adiw r26,40
 16494 5e10 8C91      		ld r24,X
 16495 5e12 9897      		sbiw r26,40
 16496 5e14 8068      		ori r24,lo8(-128)
 16497 5e16 9896      		adiw r26,40
 16498 5e18 8C93      		st X,r24
 16499 5e1a 9897      		sbiw r26,40
 16500               	.LM1599:
 16501 5e1c D096      		adiw r26,48
 16502 5e1e 8C91      		ld r24,X
 16503 5e20 D097      		sbiw r26,48
 16504 5e22 8068      		ori r24,lo8(-128)
 16505 5e24 D096      		adiw r26,48
 16506 5e26 8C93      		st X,r24
 16507 5e28 D097      		sbiw r26,48
 16508               	.LM1600:
 16509 5e2a 9096      		adiw r26,32
 16510 5e2c 8C91      		ld r24,X
 16511 5e2e 9097      		sbiw r26,32
 16512 5e30 8068      		ori r24,lo8(-128)
 16513 5e32 9096      		adiw r26,32
 16514 5e34 8C93      		st X,r24
 16515 5e36 9097      		sbiw r26,32
 16516               	.LM1601:
 16517 5e38 D896      		adiw r26,56
 16518 5e3a 8C91      		ld r24,X
 16519 5e3c D897      		sbiw r26,56
 16520 5e3e 8068      		ori r24,lo8(-128)
 16521 5e40 D896      		adiw r26,56
 16522 5e42 8C93      		st X,r24
 16523 5e44 D897      		sbiw r26,56
 16524               	.LM1602:
 16525 5e46 6C93      		st X,r22
 16526               	.LBB701:
 16527               	.LBB702:
 16528               	.LBB703:
 16529               	.LBB704:
 16530               	.LM1603:
 16531 5e48 40E0      		ldi r20,lo8(-28672)
 16532 5e4a 50E9      		ldi r21,hi8(-28672)
 16533 5e4c CA01      		movw r24,r20
 16534               	.LVL1372:
 16535               	/* #APP */
 16536               	 ;  105 "/usr/local/CrossPack-AVR-20100115/lib/gcc/avr/4.3.3/../../../../avr/include/util/delay_bas
 16537 5e4e 0197      		1: sbiw r24,1
 16538 5e50 01F4      		brne 1b
 16539               	 ;  0 "" 2
 16540               	/* #NOAPP */
 16541               	.LBE704:
 16542               	.LBE703:
 16543               	.LBE702:
 16544               	.LBE701:
 16545               	.LM1604:
 16546 5e52 5696      		adiw r26,22
 16547 5e54 8D91      		ld r24,X+
 16548 5e56 9C91      		ld r25,X
 16549 5e58 5797      		sbiw r26,22+1
 16550               	.LVL1373:
 16551 5e5a 8093 0000 		sts zeroOffsetA,r24
 16552 5e5e 9093 0000 		sts (zeroOffsetA)+1,r25
 16553               	.LM1605:
 16554 5e62 8FE0      		ldi r24,lo8(15)
 16555 5e64 F901      		movw r30,r18
 16556               	.LVL1374:
 16557 5e66 80A3      		std Z+32,r24
 16558               	.LM1606:
 16559 5e68 8CE0      		ldi r24,lo8(12)
 16560 5e6a 81A3      		std Z+33,r24
 16561               	.LM1607:
 16562 5e6c 8481      		ldd r24,Z+4
 16563 5e6e 887F      		andi r24,lo8(-8)
 16564 5e70 8460      		ori r24,lo8(4)
 16565 5e72 8483      		std Z+4,r24
 16566               	.LM1608:
 16567 5e74 7283      		std Z+2,r23
 16568               	.LM1609:
 16569 5e76 8381      		ldd r24,Z+3
 16570 5e78 806C      		ori r24,lo8(-64)
 16571 5e7a 8383      		std Z+3,r24
 16572               	.LM1610:
 16573 5e7c 8181      		ldd r24,Z+1
 16574 5e7e 8861      		ori r24,lo8(24)
 16575 5e80 8183      		std Z+1,r24
 16576               	.LM1611:
 16577 5e82 80A1      		ldd r24,Z+32
 16578 5e84 8068      		ori r24,lo8(-128)
 16579 5e86 80A3      		std Z+32,r24
 16580               	.LM1612:
 16581 5e88 6083      		st Z,r22
 16582               	.LBB705:
 16583               	.LBB706:
 16584               	.LBB707:
 16585               	.LBB708:
 16586               	.LM1613:
 16587 5e8a CA01      		movw r24,r20
 16588               	.LVL1375:
 16589               	/* #APP */
 16590               	 ;  105 "/usr/local/CrossPack-AVR-20100115/lib/gcc/avr/4.3.3/../../../../avr/include/util/delay_bas
 16591 5e8c 0197      		1: sbiw r24,1
 16592 5e8e 01F4      		brne 1b
 16593               	 ;  0 "" 2
 16594               	/* #NOAPP */
 16595               	.LBE708:
 16596               	.LBE707:
 16597               	.LBE706:
 16598               	.LBE705:
 16599               	.LM1614:
 16600 5e90 D901      		movw r26,r18
 16601 5e92 5696      		adiw r26,22
 16602 5e94 8D91      		ld r24,X+
 16603 5e96 9C91      		ld r25,X
 16604 5e98 5797      		sbiw r26,22+1
 16605               	.LVL1376:
 16606 5e9a 8093 0000 		sts zeroOffsetB,r24
 16607 5e9e 9093 0000 		sts (zeroOffsetB)+1,r25
 16608               	.LM1615:
 16609 5ea2 E0E2      		ldi r30,lo8(1568)
 16610 5ea4 F6E0      		ldi r31,hi8(1568)
 16611 5ea6 84E0      		ldi r24,lo8(4)
 16612 5ea8 8183      		std Z+1,r24
 16613               	.LM1616:
 16614 5eaa 8583      		std Z+5,r24
 16615               	.LM1617:
 16616 5eac E0E4      		ldi r30,lo8(2368)
 16617 5eae F9E0      		ldi r31,hi8(2368)
 16618 5eb0 8FEF      		ldi r24,lo8(767)
 16619 5eb2 92E0      		ldi r25,hi8(767)
 16620 5eb4 86A3      		std Z+38,r24
 16621 5eb6 97A3      		std Z+39,r25
 16622               	.LM1618:
 16623 5eb8 8081      		ld r24,Z
 16624 5eba 807F      		andi r24,lo8(-16)
 16625 5ebc 8560      		ori r24,lo8(5)
 16626 5ebe 8083      		st Z,r24
 16627               	.LM1619:
 16628 5ec0 8681      		ldd r24,Z+6
 16629 5ec2 8360      		ori r24,lo8(3)
 16630 5ec4 8683      		std Z+6,r24
 16631               	.LM1620:
 16632 5ec6 0E94 0000 		call Sensors_ResetTemperatureBuffers
 16633               	.LM1621:
 16634 5eca 0E94 0000 		call Sensors_ResetRespirationBuffers
 16635               	.LM1622:
 16636 5ece 0E94 0000 		call Sensors_ResetEKGBuffers
 16637               	.LM1623:
 16638 5ed2 0E94 0000 		call Sensors_ResetHumidityBuffers
 16639               	/* epilogue start */
 16640               	.LM1624:
 16641 5ed6 DF91      		pop r29
 16642 5ed8 CF91      		pop r28
 16643 5eda 0895      		ret
 16644               	.LFE113:
 16646               	.global	__vector_83
 16648               	__vector_83:
 16649               	.LFB122:
 16650               	.LM1625:
 16651 5edc 1F92      		push __zero_reg__
 16652 5ede 0F92      		push r0
 16653 5ee0 0FB6      		in r0,__SREG__
 16654 5ee2 0F92      		push r0
 16655 5ee4 0BB6      		in r0,59-0
 16656 5ee6 0F92      		push r0
 16657 5ee8 1124      		clr __zero_reg__
 16658 5eea EF92      		push r14
 16659 5eec FF92      		push r15
 16660 5eee 1F93      		push r17
 16661 5ef0 2F93      		push r18
 16662 5ef2 3F93      		push r19
 16663 5ef4 4F93      		push r20
 16664 5ef6 5F93      		push r21
 16665 5ef8 6F93      		push r22
 16666 5efa 7F93      		push r23
 16667 5efc 8F93      		push r24
 16668 5efe 9F93      		push r25
 16669 5f00 AF93      		push r26
 16670 5f02 BF93      		push r27
 16671 5f04 CF93      		push r28
 16672 5f06 DF93      		push r29
 16673 5f08 EF93      		push r30
 16674 5f0a FF93      		push r31
 16675               	/* prologue: Signal */
 16676               	/* frame size = 0 */
 16677               	.LM1626:
 16678 5f0c 8091 0000 		lds r24,recording
 16679 5f10 8823      		tst r24
 16680 5f12 01F4      		brne .+2
 16681 5f14 00C0      		rjmp .L929
 16682               	.LM1627:
 16683 5f16 8091 0000 		lds r24,wantToRecordEKG
 16684 5f1a 8823      		tst r24
 16685 5f1c 01F4      		brne .+2
 16686 5f1e 00C0      		rjmp .L930
 16687 5f20 8091 0000 		lds r24,EKGBufferToWriteTo
 16688 5f24 C82F      		mov r28,r24
 16689 5f26 D0E0      		ldi r29,lo8(0)
 16690 5f28 FE01      		movw r30,r28
 16691 5f2a E050      		subi r30,lo8(-(okToSendEKGBuffer))
 16692 5f2c F040      		sbci r31,hi8(-(okToSendEKGBuffer))
 16693 5f2e 8081      		ld r24,Z
 16694 5f30 8823      		tst r24
 16695 5f32 01F0      		breq .+2
 16696 5f34 00C0      		rjmp .L930
 16697               	.LM1628:
 16698 5f36 8091 0000 		lds r24,EKGBufferCounter
 16699 5f3a 9091 0000 		lds r25,(EKGBufferCounter)+1
 16700 5f3e 892B      		or r24,r25
 16701 5f40 01F4      		brne .L931
 16702               	.LM1629:
 16703 5f42 0E94 0000 		call Time_Get32BitTimer
 16704 5f46 CC0F      		lsl r28
 16705 5f48 DD1F      		rol r29
 16706 5f4a CC0F      		lsl r28
 16707 5f4c DD1F      		rol r29
 16708 5f4e C050      		subi r28,lo8(-(EKGSampleStartTime))
 16709 5f50 D040      		sbci r29,hi8(-(EKGSampleStartTime))
 16710 5f52 6883      		st Y,r22
 16711 5f54 7983      		std Y+1,r23
 16712 5f56 8A83      		std Y+2,r24
 16713 5f58 9B83      		std Y+3,r25
 16714               	.L931:
 16715               	.LM1630:
 16716 5f5a 6091 0000 		lds r22,EKGBufferToWriteTo
 16717 5f5e A62F      		mov r26,r22
 16718 5f60 B0E0      		ldi r27,lo8(0)
 16719 5f62 2091 0000 		lds r18,EKGBufferCounter
 16720 5f66 3091 0000 		lds r19,(EKGBufferCounter)+1
 16721               	.LBB709:
 16722               	.LBB710:
 16723               	.LM1631:
 16724 5f6a 4091 1002 		lds r20,528
 16725 5f6e 5091 1102 		lds r21,(528)+1
 16726               	.LBE710:
 16727               	.LBE709:
 16728               	.LM1632:
 16729 5f72 8CE2      		ldi r24,lo8(300)
 16730 5f74 91E0      		ldi r25,hi8(300)
 16731 5f76 A89F      		mul r26,r24
 16732 5f78 F001      		movw r30,r0
 16733 5f7a A99F      		mul r26,r25
 16734 5f7c F00D      		add r31,r0
 16735 5f7e B89F      		mul r27,r24
 16736 5f80 F00D      		add r31,r0
 16737 5f82 1124      		clr r1
 16738 5f84 E20F      		add r30,r18
 16739 5f86 F31F      		adc r31,r19
 16740 5f88 EE0F      		lsl r30
 16741 5f8a FF1F      		rol r31
 16742 5f8c E050      		subi r30,lo8(-(EKGBuffer))
 16743 5f8e F040      		sbci r31,hi8(-(EKGBuffer))
 16744 5f90 4083      		st Z,r20
 16745 5f92 5183      		std Z+1,r21
 16746               	.LM1633:
 16747 5f94 2F5F      		subi r18,lo8(-(1))
 16748 5f96 3F4F      		sbci r19,hi8(-(1))
 16749 5f98 2093 0000 		sts EKGBufferCounter,r18
 16750 5f9c 3093 0000 		sts (EKGBufferCounter)+1,r19
 16751               	.LM1634:
 16752 5fa0 2C52      		subi r18,lo8(300)
 16753 5fa2 3140      		sbci r19,hi8(300)
 16754 5fa4 01F4      		brne .L930
 16755               	.LM1635:
 16756 5fa6 1092 0000 		sts EKGBufferCounter,__zero_reg__
 16757 5faa 1092 0000 		sts (EKGBufferCounter)+1,__zero_reg__
 16758               	.LM1636:
 16759 5fae A050      		subi r26,lo8(-(okToSendEKGBuffer))
 16760 5fb0 B040      		sbci r27,hi8(-(okToSendEKGBuffer))
 16761 5fb2 81E0      		ldi r24,lo8(1)
 16762 5fb4 8C93      		st X,r24
 16763               	.LM1637:
 16764 5fb6 862F      		mov r24,r22
 16765 5fb8 8F5F      		subi r24,lo8(-(1))
 16766 5fba 8093 0000 		sts EKGBufferToWriteTo,r24
 16767               	.LM1638:
 16768 5fbe 8330      		cpi r24,lo8(3)
 16769 5fc0 01F4      		brne .L930
 16770               	.LM1639:
 16771 5fc2 1092 0000 		sts EKGBufferToWriteTo,__zero_reg__
 16772               	.L930:
 16773               	.LM1640:
 16774 5fc6 8091 0000 		lds r24,HZ_RefeshCounter2
 16775 5fca 9091 0000 		lds r25,(HZ_RefeshCounter2)+1
 16776 5fce 0196      		adiw r24,1
 16777 5fd0 8093 0000 		sts HZ_RefeshCounter2,r24
 16778 5fd4 9093 0000 		sts (HZ_RefeshCounter2)+1,r25
 16779               	.LM1641:
 16780 5fd8 8091 0000 		lds r24,HZ_RefeshCounter2
 16781 5fdc 9091 0000 		lds r25,(HZ_RefeshCounter2)+1
 16782 5fe0 0697      		sbiw r24,6
 16783 5fe2 01F0      		breq .+2
 16784 5fe4 00C0      		rjmp .L929
 16785               	.LM1642:
 16786 5fe6 1092 0000 		sts HZ_RefeshCounter2,__zero_reg__
 16787 5fea 1092 0000 		sts (HZ_RefeshCounter2)+1,__zero_reg__
 16788               	.LM1643:
 16789 5fee 8091 0000 		lds r24,wantToRecordRespiration
 16790 5ff2 8823      		tst r24
 16791 5ff4 01F4      		brne .+2
 16792 5ff6 00C0      		rjmp .L929
 16793 5ff8 8091 0000 		lds r24,respirationBufferToWriteTo
 16794 5ffc C82F      		mov r28,r24
 16795 5ffe D0E0      		ldi r29,lo8(0)
 16796 6000 FE01      		movw r30,r28
 16797 6002 E050      		subi r30,lo8(-(okToSendRespirationBuffer))
 16798 6004 F040      		sbci r31,hi8(-(okToSendRespirationBuffer))
 16799 6006 8081      		ld r24,Z
 16800 6008 8823      		tst r24
 16801 600a 01F0      		breq .+2
 16802 600c 00C0      		rjmp .L929
 16803               	.LM1644:
 16804 600e 8091 0000 		lds r24,respirationBufferCounter
 16805 6012 9091 0000 		lds r25,(respirationBufferCounter)+1
 16806 6016 892B      		or r24,r25
 16807 6018 01F4      		brne .L932
 16808               	.LM1645:
 16809 601a 0E94 0000 		call Time_Get32BitTimer
 16810 601e CC0F      		lsl r28
 16811 6020 DD1F      		rol r29
 16812 6022 CC0F      		lsl r28
 16813 6024 DD1F      		rol r29
 16814 6026 C050      		subi r28,lo8(-(respirationSampleStartTime))
 16815 6028 D040      		sbci r29,hi8(-(respirationSampleStartTime))
 16816 602a 6883      		st Y,r22
 16817 602c 7983      		std Y+1,r23
 16818 602e 8A83      		std Y+2,r24
 16819 6030 9B83      		std Y+3,r25
 16820               	.L932:
 16821               	.LM1646:
 16822 6032 6091 0000 		lds r22,respirationBufferToWriteTo
 16823 6036 A62F      		mov r26,r22
 16824 6038 B0E0      		ldi r27,lo8(0)
 16825 603a 2091 0000 		lds r18,respirationBufferCounter
 16826 603e 3091 0000 		lds r19,(respirationBufferCounter)+1
 16827               	.LBB711:
 16828               	.LBB712:
 16829               	.LM1647:
 16830 6042 4091 5002 		lds r20,592
 16831 6046 5091 5102 		lds r21,(592)+1
 16832               	.LBE712:
 16833               	.LBE711:
 16834               	.LM1648:
 16835 604a 82E3      		ldi r24,lo8(50)
 16836 604c 90E0      		ldi r25,hi8(50)
 16837 604e A89F      		mul r26,r24
 16838 6050 F001      		movw r30,r0
 16839 6052 A99F      		mul r26,r25
 16840 6054 F00D      		add r31,r0
 16841 6056 B89F      		mul r27,r24
 16842 6058 F00D      		add r31,r0
 16843 605a 1124      		clr r1
 16844 605c E20F      		add r30,r18
 16845 605e F31F      		adc r31,r19
 16846 6060 EE0F      		lsl r30
 16847 6062 FF1F      		rol r31
 16848 6064 E050      		subi r30,lo8(-(respirationBuffer))
 16849 6066 F040      		sbci r31,hi8(-(respirationBuffer))
 16850 6068 4083      		st Z,r20
 16851 606a 5183      		std Z+1,r21
 16852               	.LM1649:
 16853 606c 2F5F      		subi r18,lo8(-(1))
 16854 606e 3F4F      		sbci r19,hi8(-(1))
 16855 6070 2093 0000 		sts respirationBufferCounter,r18
 16856 6074 3093 0000 		sts (respirationBufferCounter)+1,r19
 16857               	.LM1650:
 16858 6078 2233      		cpi r18,50
 16859 607a 3105      		cpc r19,__zero_reg__
 16860 607c 01F4      		brne .L929
 16861               	.LM1651:
 16862 607e 1092 0000 		sts respirationBufferCounter,__zero_reg__
 16863 6082 1092 0000 		sts (respirationBufferCounter)+1,__zero_reg__
 16864               	.LM1652:
 16865 6086 A050      		subi r26,lo8(-(okToSendRespirationBuffer))
 16866 6088 B040      		sbci r27,hi8(-(okToSendRespirationBuffer))
 16867 608a 81E0      		ldi r24,lo8(1)
 16868 608c 8C93      		st X,r24
 16869               	.LM1653:
 16870 608e 862F      		mov r24,r22
 16871 6090 8F5F      		subi r24,lo8(-(1))
 16872 6092 8093 0000 		sts respirationBufferToWriteTo,r24
 16873               	.LM1654:
 16874 6096 8330      		cpi r24,lo8(3)
 16875 6098 01F4      		brne .L929
 16876               	.LM1655:
 16877 609a 1092 0000 		sts respirationBufferToWriteTo,__zero_reg__
 16878               	.L929:
 16879               	.LM1656:
 16880 609e 8091 0000 		lds r24,HZ_RefeshCounter
 16881 60a2 9091 0000 		lds r25,(HZ_RefeshCounter)+1
 16882 60a6 0196      		adiw r24,1
 16883 60a8 8093 0000 		sts HZ_RefeshCounter,r24
 16884 60ac 9093 0000 		sts (HZ_RefeshCounter)+1,r25
 16885               	.LM1657:
 16886 60b0 8091 0000 		lds r24,HZ_RefeshCounter
 16887 60b4 9091 0000 		lds r25,(HZ_RefeshCounter)+1
 16888 60b8 8C52      		subi r24,lo8(300)
 16889 60ba 9140      		sbci r25,hi8(300)
 16890 60bc 01F0      		breq .+2
 16891 60be 00C0      		rjmp .L938
 16892               	.LM1658:
 16893 60c0 1092 0000 		sts HZ_RefeshCounter,__zero_reg__
 16894 60c4 1092 0000 		sts (HZ_RefeshCounter)+1,__zero_reg__
 16895               	.LM1659:
 16896 60c8 8091 0000 		lds r24,UNIX_Time
 16897 60cc 9091 0000 		lds r25,(UNIX_Time)+1
 16898 60d0 A091 0000 		lds r26,(UNIX_Time)+2
 16899 60d4 B091 0000 		lds r27,(UNIX_Time)+3
 16900 60d8 0196      		adiw r24,1
 16901 60da A11D      		adc r26,__zero_reg__
 16902 60dc B11D      		adc r27,__zero_reg__
 16903 60de 8093 0000 		sts UNIX_Time,r24
 16904 60e2 9093 0000 		sts (UNIX_Time)+1,r25
 16905 60e6 A093 0000 		sts (UNIX_Time)+2,r26
 16906 60ea B093 0000 		sts (UNIX_Time)+3,r27
 16907               	.LM1660:
 16908 60ee 8091 0000 		lds r24,rtcBlockCounter
 16909 60f2 8F5F      		subi r24,lo8(-(1))
 16910 60f4 8093 0000 		sts rtcBlockCounter,r24
 16911               	.LM1661:
 16912 60f8 8823      		tst r24
 16913 60fa 01F4      		brne .L934
 16914               	.LM1662:
 16915 60fc 81E0      		ldi r24,lo8(1)
 16916 60fe 8093 0000 		sts okToSendRTCBlock,r24
 16917               	.L934:
 16918               	.LM1663:
 16919 6102 8091 0000 		lds r24,recording
 16920 6106 8823      		tst r24
 16921 6108 01F4      		brne .+2
 16922 610a 00C0      		rjmp .L938
 16923               	.LM1664:
 16924 610c 8091 0000 		lds r24,wantToRecordTemperature
 16925 6110 8823      		tst r24
 16926 6112 01F4      		brne .+2
 16927 6114 00C0      		rjmp .L935
 16928 6116 8091 0000 		lds r24,temperatureBufferToWriteTo
 16929 611a C82F      		mov r28,r24
 16930 611c D0E0      		ldi r29,lo8(0)
 16931 611e FE01      		movw r30,r28
 16932 6120 E050      		subi r30,lo8(-(okToSendTemperatureBuffer))
 16933 6122 F040      		sbci r31,hi8(-(okToSendTemperatureBuffer))
 16934 6124 8081      		ld r24,Z
 16935 6126 8823      		tst r24
 16936 6128 01F0      		breq .+2
 16937 612a 00C0      		rjmp .L935
 16938               	.LM1665:
 16939 612c 8091 0000 		lds r24,temperatureBufferCounter
 16940 6130 9091 0000 		lds r25,(temperatureBufferCounter)+1
 16941 6134 892B      		or r24,r25
 16942 6136 01F4      		brne .L936
 16943               	.LM1666:
 16944 6138 0E94 0000 		call Time_Get32BitTimer
 16945 613c CC0F      		lsl r28
 16946 613e DD1F      		rol r29
 16947 6140 CC0F      		lsl r28
 16948 6142 DD1F      		rol r29
 16949 6144 C050      		subi r28,lo8(-(temperatureSampleStartTime))
 16950 6146 D040      		sbci r29,hi8(-(temperatureSampleStartTime))
 16951 6148 6883      		st Y,r22
 16952 614a 7983      		std Y+1,r23
 16953 614c 8A83      		std Y+2,r24
 16954 614e 9B83      		std Y+3,r25
 16955               	.L936:
 16956               	.LM1667:
 16957 6150 6091 0000 		lds r22,temperatureBufferToWriteTo
 16958 6154 A62F      		mov r26,r22
 16959 6156 B0E0      		ldi r27,lo8(0)
 16960 6158 2091 0000 		lds r18,temperatureBufferCounter
 16961 615c 3091 0000 		lds r19,(temperatureBufferCounter)+1
 16962               	.LBB713:
 16963               	.LBB714:
 16964               	.LM1668:
 16965 6160 4091 1202 		lds r20,530
 16966 6164 5091 1302 		lds r21,(530)+1
 16967               	.LBE714:
 16968               	.LBE713:
 16969               	.LM1669:
 16970 6168 FD01      		movw r30,r26
 16971 616a EE0F      		lsl r30
 16972 616c FF1F      		rol r31
 16973 616e CD01      		movw r24,r26
 16974 6170 13E0      		ldi r17,3
 16975 6172 880F      	1:	lsl r24
 16976 6174 991F      		rol r25
 16977 6176 1A95      		dec r17
 16978 6178 01F4      		brne 1b
 16979 617a E80F      		add r30,r24
 16980 617c F91F      		adc r31,r25
 16981 617e E20F      		add r30,r18
 16982 6180 F31F      		adc r31,r19
 16983 6182 EE0F      		lsl r30
 16984 6184 FF1F      		rol r31
 16985 6186 E050      		subi r30,lo8(-(temperatureBuffer))
 16986 6188 F040      		sbci r31,hi8(-(temperatureBuffer))
 16987 618a 4083      		st Z,r20
 16988 618c 5183      		std Z+1,r21
 16989               	.LM1670:
 16990 618e 2F5F      		subi r18,lo8(-(1))
 16991 6190 3F4F      		sbci r19,hi8(-(1))
 16992 6192 2093 0000 		sts temperatureBufferCounter,r18
 16993 6196 3093 0000 		sts (temperatureBufferCounter)+1,r19
 16994               	.LM1671:
 16995 619a 2A30      		cpi r18,10
 16996 619c 3105      		cpc r19,__zero_reg__
 16997 619e 01F4      		brne .L935
 16998               	.LM1672:
 16999 61a0 1092 0000 		sts temperatureBufferCounter,__zero_reg__
 17000 61a4 1092 0000 		sts (temperatureBufferCounter)+1,__zero_reg__
 17001               	.LM1673:
 17002 61a8 A050      		subi r26,lo8(-(okToSendTemperatureBuffer))
 17003 61aa B040      		sbci r27,hi8(-(okToSendTemperatureBuffer))
 17004 61ac 81E0      		ldi r24,lo8(1)
 17005 61ae 8C93      		st X,r24
 17006               	.LM1674:
 17007 61b0 862F      		mov r24,r22
 17008 61b2 8F5F      		subi r24,lo8(-(1))
 17009 61b4 8093 0000 		sts temperatureBufferToWriteTo,r24
 17010               	.LM1675:
 17011 61b8 8230      		cpi r24,lo8(2)
 17012 61ba 01F4      		brne .L935
 17013               	.LM1676:
 17014 61bc 1092 0000 		sts temperatureBufferToWriteTo,__zero_reg__
 17015               	.L935:
 17016               	.LM1677:
 17017 61c0 8091 0000 		lds r24,wantToRecordHumidity
 17018 61c4 8823      		tst r24
 17019 61c6 01F4      		brne .+2
 17020 61c8 00C0      		rjmp .L938
 17021 61ca 8091 0000 		lds r24,humidityBufferToWriteTo
 17022 61ce C82F      		mov r28,r24
 17023 61d0 D0E0      		ldi r29,lo8(0)
 17024 61d2 FE01      		movw r30,r28
 17025 61d4 E050      		subi r30,lo8(-(okToSendHumidityBuffer))
 17026 61d6 F040      		sbci r31,hi8(-(okToSendHumidityBuffer))
 17027 61d8 8081      		ld r24,Z
 17028 61da 8823      		tst r24
 17029 61dc 01F0      		breq .+2
 17030 61de 00C0      		rjmp .L938
 17031               	.LM1678:
 17032 61e0 8091 0000 		lds r24,humidityBufferCounter
 17033 61e4 9091 0000 		lds r25,(humidityBufferCounter)+1
 17034 61e8 892B      		or r24,r25
 17035 61ea 01F4      		brne .L937
 17036               	.LM1679:
 17037 61ec 0E94 0000 		call Time_Get32BitTimer
 17038 61f0 CC0F      		lsl r28
 17039 61f2 DD1F      		rol r29
 17040 61f4 CC0F      		lsl r28
 17041 61f6 DD1F      		rol r29
 17042 61f8 C050      		subi r28,lo8(-(humiditySampleStartTime))
 17043 61fa D040      		sbci r29,hi8(-(humiditySampleStartTime))
 17044 61fc 6883      		st Y,r22
 17045 61fe 7983      		std Y+1,r23
 17046 6200 8A83      		std Y+2,r24
 17047 6202 9B83      		std Y+3,r25
 17048               	.L937:
 17049               	.LM1680:
 17050 6204 1091 0000 		lds r17,humidityBufferToWriteTo
 17051 6208 E090 0000 		lds r14,humidityBufferCounter
 17052 620c F090 0000 		lds r15,(humidityBufferCounter)+1
 17053 6210 0E94 0000 		call Sensors_ReadHumidity
 17054 6214 212F      		mov r18,r17
 17055 6216 30E0      		ldi r19,lo8(0)
 17056 6218 F901      		movw r30,r18
 17057 621a 13E0      		ldi r17,3
 17058 621c EE0F      	1:	lsl r30
 17059 621e FF1F      		rol r31
 17060 6220 1A95      		dec r17
 17061 6222 01F4      		brne 1b
 17062 6224 220F      		lsl r18
 17063 6226 331F      		rol r19
 17064 6228 E20F      		add r30,r18
 17065 622a F31F      		adc r31,r19
 17066 622c EE0D      		add r30,r14
 17067 622e FF1D      		adc r31,r15
 17068 6230 EE0F      		lsl r30
 17069 6232 FF1F      		rol r31
 17070 6234 E050      		subi r30,lo8(-(humidityBuffer))
 17071 6236 F040      		sbci r31,hi8(-(humidityBuffer))
 17072 6238 8083      		st Z,r24
 17073 623a 9183      		std Z+1,r25
 17074               	.LM1681:
 17075 623c 8091 0000 		lds r24,humidityBufferCounter
 17076 6240 9091 0000 		lds r25,(humidityBufferCounter)+1
 17077 6244 0196      		adiw r24,1
 17078 6246 8093 0000 		sts humidityBufferCounter,r24
 17079 624a 9093 0000 		sts (humidityBufferCounter)+1,r25
 17080               	.LM1682:
 17081 624e 0A97      		sbiw r24,10
 17082 6250 01F4      		brne .L938
 17083               	.LM1683:
 17084 6252 1092 0000 		sts humidityBufferCounter,__zero_reg__
 17085 6256 1092 0000 		sts (humidityBufferCounter)+1,__zero_reg__
 17086               	.LM1684:
 17087 625a 8091 0000 		lds r24,humidityBufferToWriteTo
 17088 625e E82F      		mov r30,r24
 17089 6260 F0E0      		ldi r31,lo8(0)
 17090 6262 E050      		subi r30,lo8(-(okToSendHumidityBuffer))
 17091 6264 F040      		sbci r31,hi8(-(okToSendHumidityBuffer))
 17092 6266 91E0      		ldi r25,lo8(1)
 17093 6268 9083      		st Z,r25
 17094               	.LM1685:
 17095 626a 8F5F      		subi r24,lo8(-(1))
 17096 626c 8093 0000 		sts humidityBufferToWriteTo,r24
 17097               	.LM1686:
 17098 6270 8230      		cpi r24,lo8(2)
 17099 6272 01F4      		brne .L938
 17100               	.LM1687:
 17101 6274 1092 0000 		sts humidityBufferToWriteTo,__zero_reg__
 17102               	.L938:
 17103               	/* epilogue start */
 17104               	.LM1688:
 17105 6278 FF91      		pop r31
 17106 627a EF91      		pop r30
 17107 627c DF91      		pop r29
 17108 627e CF91      		pop r28
 17109 6280 BF91      		pop r27
 17110 6282 AF91      		pop r26
 17111 6284 9F91      		pop r25
 17112 6286 8F91      		pop r24
 17113 6288 7F91      		pop r23
 17114 628a 6F91      		pop r22
 17115 628c 5F91      		pop r21
 17116 628e 4F91      		pop r20
 17117 6290 3F91      		pop r19
 17118 6292 2F91      		pop r18
 17119 6294 1F91      		pop r17
 17120 6296 FF90      		pop r15
 17121 6298 EF90      		pop r14
 17122 629a 0F90      		pop r0
 17123 629c 0BBE      		out 59-0,r0
 17124 629e 0F90      		pop r0
 17125 62a0 0FBE      		out __SREG__,r0
 17126 62a2 0F90      		pop r0
 17127 62a4 1F90      		pop __zero_reg__
 17128 62a6 1895      		reti
 17129               	.LFE122:
 17131               	.global	SP_ReadCalibrationByte
 17133               	SP_ReadCalibrationByte:
 17134               	.LFB123:
 17135               	.LM1689:
 17136               	.LVL1377:
 17137               	/* prologue: function */
 17138               	/* frame size = 0 */
 17139               	.LM1690:
 17140 62a8 AAEC      		ldi r26,lo8(458)
 17141 62aa B1E0      		ldi r27,hi8(458)
 17142 62ac 92E0      		ldi r25,lo8(2)
 17143 62ae 9C93      		st X,r25
 17144               	.LBB715:
 17145               	.LM1691:
 17146 62b0 E82F      		mov r30,r24
 17147 62b2 F0E0      		ldi r31,lo8(0)
 17148               	.LVL1378:
 17149               	/* #APP */
 17150               	 ;  264 "sensorsCS.c" 1
 17151 62b4 E491      		lpm r30, Z
 17152               		
 17153               	 ;  0 "" 2
 17154               	.LVL1379:
 17155               	/* #NOAPP */
 17156               	.LBE715:
 17157               	.LM1692:
 17158 62b6 1C92      		st X,__zero_reg__
 17159               	.LM1693:
 17160 62b8 8E2F      		mov r24,r30
 17161               	.LVL1380:
 17162               	/* epilogue start */
 17163 62ba 0895      		ret
 17164               	.LFE123:
 17166               	.global	Uploader_getTime
 17168               	Uploader_getTime:
 17169               	.LFB126:
 17170               	.LM1694:
 17171 62bc EF92      		push r14
 17172 62be FF92      		push r15
 17173 62c0 0F93      		push r16
 17174 62c2 1F93      		push r17
 17175 62c4 DF93      		push r29
 17176 62c6 CF93      		push r28
 17177 62c8 00D0      		rcall .
 17178 62ca 00D0      		rcall .
 17179 62cc CDB7      		in r28,__SP_L__
 17180 62ce DEB7      		in r29,__SP_H__
 17181               	/* prologue: function */
 17182               	/* frame size = 6 */
 17183               	.LM1695:
 17184 62d0 1B82      		std Y+3,__zero_reg__
 17185 62d2 1C82      		std Y+4,__zero_reg__
 17186 62d4 1D82      		std Y+5,__zero_reg__
 17187 62d6 1E82      		std Y+6,__zero_reg__
 17188               	.LVL1381:
 17189               	.LM1696:
 17190 62d8 1982      		std Y+1,__zero_reg__
 17191               	.LVL1382:
 17192               	.LM1697:
 17193 62da 1A82      		std Y+2,__zero_reg__
 17194               	.LVL1383:
 17195               	.LM1698:
 17196 62dc 84E5      		ldi r24,lo8(84)
 17197 62de 0E94 0000 		call Debug_SendByte
 17198 62e2 8823      		tst r24
 17199 62e4 01F4      		brne .+2
 17200 62e6 00C0      		rjmp .L942
 17201               	.LBB716:
 17202               	.LBB717:
 17203               	.LBB718:
 17204               	.LBB719:
 17205               	.LM1699:
 17206 62e8 66E6      		ldi r22,lo8(3686)
 17207 62ea E62E      		mov r14,r22
 17208 62ec 6EE0      		ldi r22,hi8(3686)
 17209 62ee F62E      		mov r15,r22
 17210               	.L950:
 17211               	.LBE719:
 17212               	.LBE718:
 17213               	.LBE717:
 17214               	.LBE716:
 17215               	.LM1700:
 17216 62f0 0E94 0000 		call Debug_CharReadyToRead
 17217 62f4 8823      		tst r24
 17218 62f6 01F4      		brne .+2
 17219 62f8 00C0      		rjmp .L943
 17220               	.LM1701:
 17221 62fa 1A81      		ldd r17,Y+2
 17222 62fc 80E0      		ldi r24,lo8(0)
 17223 62fe 0E94 0000 		call Debug_GetByte
 17224 6302 E12F      		mov r30,r17
 17225 6304 F0E0      		ldi r31,lo8(0)
 17226 6306 E050      		subi r30,lo8(-(command))
 17227 6308 F040      		sbci r31,hi8(-(command))
 17228 630a 8183      		std Z+1,r24
 17229               	.LM1702:
 17230 630c 8A81      		ldd r24,Y+2
 17231 630e 8F5F      		subi r24,lo8(-(1))
 17232 6310 8A83      		std Y+2,r24
 17233               	.LVL1384:
 17234               	.LM1703:
 17235 6312 8A81      		ldd r24,Y+2
 17236 6314 8430      		cpi r24,lo8(4)
 17237 6316 01F0      		breq .+2
 17238 6318 00C0      		rjmp .L943
 17239               	.LM1704:
 17240 631a 8091 0000 		lds r24,command+1
 17241 631e 90E0      		ldi r25,lo8(0)
 17242               	.LVL1385:
 17243 6320 A0E0      		ldi r26,lo8(0)
 17244 6322 B0E0      		ldi r27,hi8(0)
 17245               	.LVL1386:
 17246 6324 8B83      		std Y+3,r24
 17247 6326 9C83      		std Y+4,r25
 17248 6328 AD83      		std Y+5,r26
 17249 632a BE83      		std Y+6,r27
 17250               	.LM1705:
 17251 632c 8B81      		ldd r24,Y+3
 17252 632e 9C81      		ldd r25,Y+4
 17253 6330 AD81      		ldd r26,Y+5
 17254 6332 BE81      		ldd r27,Y+6
 17255 6334 BA2F      		mov r27,r26
 17256 6336 A92F      		mov r26,r25
 17257 6338 982F      		mov r25,r24
 17258 633a 8827      		clr r24
 17259               	.LVL1387:
 17260 633c 8B83      		std Y+3,r24
 17261 633e 9C83      		std Y+4,r25
 17262 6340 AD83      		std Y+5,r26
 17263 6342 BE83      		std Y+6,r27
 17264               	.LM1706:
 17265 6344 8B81      		ldd r24,Y+3
 17266 6346 9C81      		ldd r25,Y+4
 17267 6348 AD81      		ldd r26,Y+5
 17268 634a BE81      		ldd r27,Y+6
 17269               	.LVL1388:
 17270 634c 2091 0000 		lds r18,command+2
 17271 6350 820F      		add r24,r18
 17272 6352 911D      		adc r25,__zero_reg__
 17273 6354 A11D      		adc r26,__zero_reg__
 17274 6356 B11D      		adc r27,__zero_reg__
 17275 6358 8B83      		std Y+3,r24
 17276 635a 9C83      		std Y+4,r25
 17277 635c AD83      		std Y+5,r26
 17278 635e BE83      		std Y+6,r27
 17279               	.LVL1389:
 17280               	.LM1707:
 17281 6360 8B81      		ldd r24,Y+3
 17282 6362 9C81      		ldd r25,Y+4
 17283 6364 AD81      		ldd r26,Y+5
 17284 6366 BE81      		ldd r27,Y+6
 17285 6368 BA2F      		mov r27,r26
 17286 636a A92F      		mov r26,r25
 17287 636c 982F      		mov r25,r24
 17288 636e 8827      		clr r24
 17289               	.LVL1390:
 17290 6370 8B83      		std Y+3,r24
 17291 6372 9C83      		std Y+4,r25
 17292 6374 AD83      		std Y+5,r26
 17293 6376 BE83      		std Y+6,r27
 17294               	.LM1708:
 17295 6378 8B81      		ldd r24,Y+3
 17296 637a 9C81      		ldd r25,Y+4
 17297 637c AD81      		ldd r26,Y+5
 17298 637e BE81      		ldd r27,Y+6
 17299               	.LVL1391:
 17300 6380 2091 0000 		lds r18,command+3
 17301 6384 820F      		add r24,r18
 17302 6386 911D      		adc r25,__zero_reg__
 17303 6388 A11D      		adc r26,__zero_reg__
 17304 638a B11D      		adc r27,__zero_reg__
 17305 638c 8B83      		std Y+3,r24
 17306 638e 9C83      		std Y+4,r25
 17307 6390 AD83      		std Y+5,r26
 17308 6392 BE83      		std Y+6,r27
 17309               	.LVL1392:
 17310               	.LM1709:
 17311 6394 8B81      		ldd r24,Y+3
 17312 6396 9C81      		ldd r25,Y+4
 17313 6398 AD81      		ldd r26,Y+5
 17314 639a BE81      		ldd r27,Y+6
 17315 639c BA2F      		mov r27,r26
 17316 639e A92F      		mov r26,r25
 17317 63a0 982F      		mov r25,r24
 17318 63a2 8827      		clr r24
 17319               	.LVL1393:
 17320 63a4 8B83      		std Y+3,r24
 17321 63a6 9C83      		std Y+4,r25
 17322 63a8 AD83      		std Y+5,r26
 17323 63aa BE83      		std Y+6,r27
 17324               	.LM1710:
 17325 63ac 8B81      		ldd r24,Y+3
 17326 63ae 9C81      		ldd r25,Y+4
 17327 63b0 AD81      		ldd r26,Y+5
 17328 63b2 BE81      		ldd r27,Y+6
 17329               	.LVL1394:
 17330 63b4 2091 0000 		lds r18,command+4
 17331 63b8 820F      		add r24,r18
 17332 63ba 911D      		adc r25,__zero_reg__
 17333 63bc A11D      		adc r26,__zero_reg__
 17334 63be B11D      		adc r27,__zero_reg__
 17335 63c0 8B83      		std Y+3,r24
 17336 63c2 9C83      		std Y+4,r25
 17337 63c4 AD83      		std Y+5,r26
 17338 63c6 BE83      		std Y+6,r27
 17339               	.LVL1395:
 17340               	.LM1711:
 17341 63c8 8B81      		ldd r24,Y+3
 17342 63ca 9C81      		ldd r25,Y+4
 17343 63cc AD81      		ldd r26,Y+5
 17344 63ce BE81      		ldd r27,Y+6
 17345 63d0 8050      		subi r24,lo8(1260000000)
 17346 63d2 9341      		sbci r25,hi8(1260000000)
 17347 63d4 AA41      		sbci r26,hlo8(1260000000)
 17348 63d6 BB44      		sbci r27,hhi8(1260000000)
 17349 63d8 00F4      		brsh .L944
 17350 63da 10E0      		ldi r17,lo8(0)
 17351               	.LVL1396:
 17352               	.L945:
 17353               	.LBB723:
 17354               	.LM1712:
 17355 63dc 80E3      		ldi r24,lo8(48)
 17356 63de 0E94 0000 		call Debug_SendByte
 17357               	.LVL1397:
 17358 63e2 8823      		tst r24
 17359 63e4 01F0      		breq .L942
 17360               	.LM1713:
 17361 63e6 1F5F      		subi r17,lo8(-(1))
 17362 63e8 1430      		cpi r17,lo8(4)
 17363 63ea 01F4      		brne .L945
 17364 63ec 00C0      		rjmp .L942
 17365               	.LVL1398:
 17366               	.L944:
 17367 63ee 00E0      		ldi r16,lo8(command+1)
 17368 63f0 10E0      		ldi r17,hi8(command+1)
 17369               	.L946:
 17370               	.LBE723:
 17371               	.LBB724:
 17372               	.LM1714:
 17373 63f2 F801      		movw r30,r16
 17374 63f4 8081      		ld r24,Z
 17375 63f6 0E94 0000 		call Debug_SendByte
 17376               	.LVL1399:
 17377 63fa 8823      		tst r24
 17378 63fc 01F0      		breq .L942
 17379 63fe 0F5F      		subi r16,lo8(-(1))
 17380 6400 1F4F      		sbci r17,hi8(-(1))
 17381               	.LM1715:
 17382 6402 F0E0      		ldi r31,hi8(command+5)
 17383 6404 0030      		cpi r16,lo8(command+5)
 17384 6406 1F07      		cpc r17,r31
 17385 6408 01F4      		brne .L946
 17386               	.LBE724:
 17387               	.LM1716:
 17388 640a 6B81      		ldd r22,Y+3
 17389 640c 7C81      		ldd r23,Y+4
 17390 640e 8D81      		ldd r24,Y+5
 17391 6410 9E81      		ldd r25,Y+6
 17392 6412 0E94 0000 		call Time_Set
 17393 6416 81E0      		ldi r24,lo8(1)
 17394 6418 00C0      		rjmp .L947
 17395               	.L943:
 17396               	.LBB725:
 17397               	.LBB722:
 17398               	.LBB721:
 17399               	.LBB720:
 17400               	.LM1717:
 17401 641a C701      		movw r24,r14
 17402               	.LVL1400:
 17403               	/* #APP */
 17404               	 ;  105 "/usr/local/CrossPack-AVR-20100115/lib/gcc/avr/4.3.3/../../../../avr/include/util/delay_bas
 17405 641c 0197      		1: sbiw r24,1
 17406 641e 01F4      		brne 1b
 17407               	 ;  0 "" 2
 17408               	/* #NOAPP */
 17409               	.LBE720:
 17410               	.LBE721:
 17411               	.LBE722:
 17412               	.LBE725:
 17413               	.LM1718:
 17414 6420 8981      		ldd r24,Y+1
 17415               	.LVL1401:
 17416 6422 8F5F      		subi r24,lo8(-(1))
 17417 6424 8983      		std Y+1,r24
 17418               	.LVL1402:
 17419               	.LM1719:
 17420 6426 8981      		ldd r24,Y+1
 17421 6428 8536      		cpi r24,lo8(101)
 17422 642a 00F4      		brsh .+2
 17423 642c 00C0      		rjmp .L950
 17424               	.LVL1403:
 17425               	.L942:
 17426 642e 80E0      		ldi r24,lo8(0)
 17427               	.L947:
 17428               	/* epilogue start */
 17429               	.LM1720:
 17430 6430 2696      		adiw r28,6
 17431 6432 CDBF      		out __SP_L__,r28
 17432 6434 DEBF      		out __SP_H__,r29
 17433 6436 CF91      		pop r28
 17434 6438 DF91      		pop r29
 17435 643a 1F91      		pop r17
 17436               	.LVL1404:
 17437 643c 0F91      		pop r16
 17438 643e FF90      		pop r15
 17439 6440 EF90      		pop r14
 17440 6442 0895      		ret
 17441               	.LFE126:
 17443               	.global	Uploader_eraseFile
 17445               	Uploader_eraseFile:
 17446               	.LFB134:
 17447               	.LM1721:
 17448 6444 FF92      		push r15
 17449 6446 0F93      		push r16
 17450 6448 1F93      		push r17
 17451 644a CF93      		push r28
 17452 644c DF93      		push r29
 17453               	/* prologue: function */
 17454               	/* frame size = 0 */
 17455               	.LM1722:
 17456 644e 85E4      		ldi r24,lo8(69)
 17457 6450 0E94 0000 		call Debug_SendByte
 17458 6454 8823      		tst r24
 17459 6456 01F4      		brne .+2
 17460 6458 00C0      		rjmp .L955
 17461 645a FF24      		clr r15
 17462               	.LVL1405:
 17463 645c 10E0      		ldi r17,lo8(0)
 17464               	.LVL1406:
 17465 645e 00E0      		ldi r16,lo8(0)
 17466               	.LVL1407:
 17467               	.LBB726:
 17468               	.LBB727:
 17469               	.LBB728:
 17470               	.LBB729:
 17471               	.LM1723:
 17472 6460 C6E6      		ldi r28,lo8(3686)
 17473 6462 DEE0      		ldi r29,hi8(3686)
 17474               	.LVL1408:
 17475               	.L964:
 17476               	.LBE729:
 17477               	.LBE728:
 17478               	.LBE727:
 17479               	.LBE726:
 17480               	.LM1724:
 17481 6464 0E94 0000 		call Debug_CharReadyToRead
 17482               	.LVL1409:
 17483 6468 8823      		tst r24
 17484 646a 01F0      		breq .L956
 17485               	.LM1725:
 17486 646c 1123      		tst r17
 17487 646e 01F4      		brne .L957
 17488               	.LM1726:
 17489 6470 80E0      		ldi r24,lo8(0)
 17490 6472 0E94 0000 		call Debug_GetByte
 17491 6476 082F      		mov r16,r24
 17492               	.LM1727:
 17493 6478 0E94 0000 		call Debug_SendByte
 17494 647c 8823      		tst r24
 17495 647e 01F4      		brne .L968
 17496 6480 00C0      		rjmp .L955
 17497               	.L957:
 17498               	.LM1728:
 17499 6482 80E0      		ldi r24,lo8(0)
 17500 6484 0E94 0000 		call Debug_GetByte
 17501 6488 E12F      		mov r30,r17
 17502 648a F0E0      		ldi r31,lo8(0)
 17503               	.LVL1410:
 17504 648c E050      		subi r30,lo8(-(fileToErase-1))
 17505 648e F040      		sbci r31,hi8(-(fileToErase-1))
 17506               	.LVL1411:
 17507 6490 8083      		st Z,r24
 17508               	.LM1729:
 17509 6492 0E94 0000 		call Debug_SendByte
 17510               	.LVL1412:
 17511 6496 8823      		tst r24
 17512 6498 01F0      		breq .L955
 17513               	.LM1730:
 17514 649a 1F5F      		subi r17,lo8(-(1))
 17515               	.LVL1413:
 17516               	.LM1731:
 17517 649c 802F      		mov r24,r16
 17518 649e 90E0      		ldi r25,lo8(0)
 17519               	.LVL1414:
 17520 64a0 0196      		adiw r24,1
 17521               	.LVL1415:
 17522 64a2 E12F      		mov r30,r17
 17523 64a4 F0E0      		ldi r31,lo8(0)
 17524               	.LVL1416:
 17525 64a6 E817      		cp r30,r24
 17526 64a8 F907      		cpc r31,r25
 17527 64aa 01F4      		brne .L956
 17528               	.LVL1417:
 17529               	.LM1732:
 17530 64ac E050      		subi r30,lo8(-(fileToErase))
 17531 64ae F040      		sbci r31,hi8(-(fileToErase))
 17532               	.LVL1418:
 17533 64b0 1082      		st Z,__zero_reg__
 17534               	.LM1733:
 17535 64b2 81E0      		ldi r24,lo8(1)
 17536               	.LVL1419:
 17537 64b4 8093 0000 		sts okToEraseFile,r24
 17538               	.L959:
 17539               	.LM1734:
 17540 64b8 8091 0000 		lds r24,okToEraseFile
 17541 64bc 8823      		tst r24
 17542 64be 01F4      		brne .L959
 17543               	.LM1735:
 17544 64c0 8091 0000 		lds r24,eraseFileReturn
 17545 64c4 8823      		tst r24
 17546 64c6 01F4      		brne .L960
 17547               	.LM1736:
 17548 64c8 84E5      		ldi r24,lo8(84)
 17549 64ca 00C0      		rjmp .L970
 17550               	.L960:
 17551               	.LM1737:
 17552 64cc 86E4      		ldi r24,lo8(70)
 17553               	.L970:
 17554 64ce 0E94 0000 		call Debug_SendByte
 17555               	.LVL1420:
 17556 64d2 8823      		tst r24
 17557 64d4 01F0      		breq .L962
 17558 64d6 81E0      		ldi r24,lo8(1)
 17559 64d8 00C0      		rjmp .L962
 17560               	.LVL1421:
 17561               	.L968:
 17562 64da 11E0      		ldi r17,lo8(1)
 17563               	.LVL1422:
 17564               	.L956:
 17565               	.LBB733:
 17566               	.LBB732:
 17567               	.LBB731:
 17568               	.LBB730:
 17569               	.LM1738:
 17570 64dc CE01      		movw r24,r28
 17571               	.LVL1423:
 17572               	/* #APP */
 17573               	 ;  105 "/usr/local/CrossPack-AVR-20100115/lib/gcc/avr/4.3.3/../../../../avr/include/util/delay_bas
 17574 64de 0197      		1: sbiw r24,1
 17575 64e0 01F4      		brne 1b
 17576               	 ;  0 "" 2
 17577               	/* #NOAPP */
 17578               	.LBE730:
 17579               	.LBE731:
 17580               	.LBE732:
 17581               	.LBE733:
 17582               	.LM1739:
 17583 64e2 F394      		inc r15
 17584               	.LM1740:
 17585 64e4 85E6      		ldi r24,lo8(101)
 17586               	.LVL1424:
 17587 64e6 F816      		cp r15,r24
 17588 64e8 01F0      		breq .+2
 17589 64ea 00C0      		rjmp .L964
 17590               	.L955:
 17591 64ec 80E0      		ldi r24,lo8(0)
 17592               	.L962:
 17593               	/* epilogue start */
 17594               	.LM1741:
 17595 64ee DF91      		pop r29
 17596 64f0 CF91      		pop r28
 17597 64f2 1F91      		pop r17
 17598               	.LVL1425:
 17599 64f4 0F91      		pop r16
 17600               	.LVL1426:
 17601 64f6 FF90      		pop r15
 17602               	.LVL1427:
 17603 64f8 0895      		ret
 17604               	.LFE134:
 17606               	.global	Uploader_ClearCRC
 17608               	Uploader_ClearCRC:
 17609               	.LFB137:
 17610               	.LM1742:
 17611               	/* prologue: function */
 17612               	/* frame size = 0 */
 17613               	.LM1743:
 17614 64fa 8FEF      		ldi r24,lo8(-1)
 17615 64fc 9FEF      		ldi r25,hi8(-1)
 17616 64fe AFEF      		ldi r26,hlo8(-1)
 17617 6500 BFEF      		ldi r27,hhi8(-1)
 17618 6502 8093 0000 		sts uploadCRC,r24
 17619 6506 9093 0000 		sts (uploadCRC)+1,r25
 17620 650a A093 0000 		sts (uploadCRC)+2,r26
 17621 650e B093 0000 		sts (uploadCRC)+3,r27
 17622               	/* epilogue start */
 17623               	.LM1744:
 17624 6512 0895      		ret
 17625               	.LFE137:
 17627               	.global	Uploader_WriteCRC
 17629               	Uploader_WriteCRC:
 17630               	.LFB138:
 17631               	.LM1745:
 17632 6514 EF92      		push r14
 17633 6516 FF92      		push r15
 17634 6518 0F93      		push r16
 17635 651a 1F93      		push r17
 17636               	/* prologue: function */
 17637               	/* frame size = 0 */
 17638               	.LM1746:
 17639 651c E090 0000 		lds r14,uploadCRC
 17640 6520 F090 0000 		lds r15,(uploadCRC)+1
 17641 6524 0091 0000 		lds r16,(uploadCRC)+2
 17642 6528 1091 0000 		lds r17,(uploadCRC)+3
 17643               	.LVL1428:
 17644 652c E094      		com r14
 17645 652e F094      		com r15
 17646 6530 0095      		com r16
 17647 6532 1095      		com r17
 17648               	.LM1747:
 17649 6534 812F      		mov r24,r17
 17650 6536 9927      		clr r25
 17651 6538 AA27      		clr r26
 17652 653a BB27      		clr r27
 17653 653c 0E94 0000 		call Debug_SendByte
 17654 6540 8823      		tst r24
 17655 6542 01F0      		breq .L974
 17656               	.LM1748:
 17657 6544 C801      		movw r24,r16
 17658 6546 AA27      		clr r26
 17659 6548 BB27      		clr r27
 17660 654a 0E94 0000 		call Debug_SendByte
 17661 654e 8823      		tst r24
 17662 6550 01F0      		breq .L974
 17663               	.LM1749:
 17664 6552 BB27      		clr r27
 17665 6554 A12F      		mov r26,r17
 17666 6556 902F      		mov r25,r16
 17667 6558 8F2D      		mov r24,r15
 17668 655a 0E94 0000 		call Debug_SendByte
 17669 655e 8823      		tst r24
 17670 6560 01F0      		breq .L974
 17671               	.LM1750:
 17672 6562 8E2D      		mov r24,r14
 17673 6564 0E94 0000 		call Debug_SendByte
 17674 6568 8823      		tst r24
 17675 656a 01F0      		breq .L976
 17676 656c 81E0      		ldi r24,lo8(1)
 17677 656e 00C0      		rjmp .L976
 17678               	.L974:
 17679 6570 80E0      		ldi r24,lo8(0)
 17680               	.L976:
 17681               	/* epilogue start */
 17682               	.LM1751:
 17683 6572 1F91      		pop r17
 17684 6574 0F91      		pop r16
 17685 6576 FF90      		pop r15
 17686 6578 EF90      		pop r14
 17687               	.LVL1429:
 17688 657a 0895      		ret
 17689               	.LFE138:
 17691               	.global	Uploader_uploadFile
 17693               	Uploader_uploadFile:
 17694               	.LFB133:
 17695               	.LM1752:
 17696 657c 5F92      		push r5
 17697 657e 6F92      		push r6
 17698 6580 7F92      		push r7
 17699 6582 8F92      		push r8
 17700 6584 9F92      		push r9
 17701 6586 AF92      		push r10
 17702 6588 BF92      		push r11
 17703 658a CF92      		push r12
 17704 658c DF92      		push r13
 17705 658e EF92      		push r14
 17706 6590 FF92      		push r15
 17707 6592 0F93      		push r16
 17708 6594 1F93      		push r17
 17709 6596 CF93      		push r28
 17710 6598 DF93      		push r29
 17711               	/* prologue: function */
 17712               	/* frame size = 0 */
 17713               	.LM1753:
 17714 659a 81E0      		ldi r24,lo8(1)
 17715 659c 8093 0000 		sts uploading,r24
 17716 65a0 88EE      		ldi r24,lo8(1000)
 17717 65a2 93E0      		ldi r25,hi8(1000)
 17718               	.LVL1430:
 17719               	.LBB734:
 17720               	.LBB735:
 17721               	.LBB736:
 17722               	.LBB737:
 17723               	.LM1754:
 17724 65a4 20E7      		ldi r18,lo8(368)
 17725 65a6 31E0      		ldi r19,hi8(368)
 17726               	.L979:
 17727 65a8 F901      		movw r30,r18
 17728               	.LVL1431:
 17729               	/* #APP */
 17730               	 ;  105 "/usr/local/CrossPack-AVR-20100115/lib/gcc/avr/4.3.3/../../../../avr/include/util/delay_bas
 17731 65aa 3197      		1: sbiw r30,1
 17732 65ac 01F4      		brne 1b
 17733               	 ;  0 "" 2
 17734               	/* #NOAPP */
 17735               	.LBE737:
 17736               	.LBE736:
 17737               	.LM1755:
 17738 65ae 0197      		sbiw r24,1
 17739               	.LM1756:
 17740 65b0 01F4      		brne .L979
 17741               	.LBE735:
 17742               	.LBE734:
 17743               	.LM1757:
 17744 65b2 84E4      		ldi r24,lo8(68)
 17745               	.LVL1432:
 17746 65b4 0E94 0000 		call Debug_SendByte
 17747               	.LVL1433:
 17748 65b8 8823      		tst r24
 17749 65ba 01F4      		brne .+2
 17750 65bc 00C0      		rjmp .L980
 17751 65be FF24      		clr r15
 17752               	.LVL1434:
 17753 65c0 10E0      		ldi r17,lo8(0)
 17754               	.LVL1435:
 17755 65c2 00E0      		ldi r16,lo8(0)
 17756               	.LVL1436:
 17757               	.LBB738:
 17758               	.LBB739:
 17759               	.LBB740:
 17760               	.LBB741:
 17761               	.LM1758:
 17762 65c4 C6E6      		ldi r28,lo8(3686)
 17763 65c6 DEE0      		ldi r29,hi8(3686)
 17764               	.LVL1437:
 17765               	.L984:
 17766               	.LBE741:
 17767               	.LBE740:
 17768               	.LBE739:
 17769               	.LBE738:
 17770               	.LM1759:
 17771 65c8 0E94 0000 		call Debug_CharReadyToRead
 17772               	.LVL1438:
 17773 65cc 8823      		tst r24
 17774 65ce 01F0      		breq .L981
 17775               	.LM1760:
 17776 65d0 1123      		tst r17
 17777 65d2 01F4      		brne .L982
 17778               	.LM1761:
 17779 65d4 80E0      		ldi r24,lo8(0)
 17780 65d6 0E94 0000 		call Debug_GetByte
 17781 65da 082F      		mov r16,r24
 17782               	.LM1762:
 17783 65dc 0E94 0000 		call Debug_SendByte
 17784 65e0 8823      		tst r24
 17785 65e2 01F4      		brne .+2
 17786 65e4 00C0      		rjmp .L980
 17787 65e6 11E0      		ldi r17,lo8(1)
 17788 65e8 00C0      		rjmp .L981
 17789               	.L982:
 17790               	.LM1763:
 17791 65ea 80E0      		ldi r24,lo8(0)
 17792 65ec 0E94 0000 		call Debug_GetByte
 17793 65f0 E12F      		mov r30,r17
 17794 65f2 F0E0      		ldi r31,lo8(0)
 17795               	.LVL1439:
 17796 65f4 E050      		subi r30,lo8(-(fileToUpload-1))
 17797 65f6 F040      		sbci r31,hi8(-(fileToUpload-1))
 17798               	.LVL1440:
 17799 65f8 8083      		st Z,r24
 17800               	.LM1764:
 17801 65fa 0E94 0000 		call Debug_SendByte
 17802               	.LVL1441:
 17803 65fe 8823      		tst r24
 17804 6600 01F4      		brne .+2
 17805 6602 00C0      		rjmp .L980
 17806               	.LM1765:
 17807 6604 1F5F      		subi r17,lo8(-(1))
 17808               	.LVL1442:
 17809               	.LM1766:
 17810 6606 E12F      		mov r30,r17
 17811 6608 F0E0      		ldi r31,lo8(0)
 17812 660a 802F      		mov r24,r16
 17813 660c 90E0      		ldi r25,lo8(0)
 17814               	.LVL1443:
 17815 660e 0196      		adiw r24,1
 17816               	.LVL1444:
 17817 6610 E817      		cp r30,r24
 17818 6612 F907      		cpc r31,r25
 17819 6614 01F4      		brne .L981
 17820               	.LM1767:
 17821 6616 E050      		subi r30,lo8(-(fileToUpload))
 17822 6618 F040      		sbci r31,hi8(-(fileToUpload))
 17823 661a 1082      		st Z,__zero_reg__
 17824 661c 21E0      		ldi r18,lo8(1)
 17825               	.LVL1445:
 17826 661e 00C0      		rjmp .L983
 17827               	.LVL1446:
 17828               	.L981:
 17829 6620 20E0      		ldi r18,lo8(0)
 17830               	.LVL1447:
 17831               	.L983:
 17832               	.LBB745:
 17833               	.LBB744:
 17834               	.LBB743:
 17835               	.LBB742:
 17836               	.LM1768:
 17837 6622 CE01      		movw r24,r28
 17838               	.LVL1448:
 17839               	/* #APP */
 17840               	 ;  105 "/usr/local/CrossPack-AVR-20100115/lib/gcc/avr/4.3.3/../../../../avr/include/util/delay_bas
 17841 6624 0197      		1: sbiw r24,1
 17842 6626 01F4      		brne 1b
 17843               	 ;  0 "" 2
 17844               	/* #NOAPP */
 17845               	.LBE742:
 17846               	.LBE743:
 17847               	.LBE744:
 17848               	.LBE745:
 17849               	.LM1769:
 17850 6628 F394      		inc r15
 17851               	.LM1770:
 17852 662a 85E6      		ldi r24,lo8(101)
 17853               	.LVL1449:
 17854 662c F816      		cp r15,r24
 17855 662e 01F4      		brne .+2
 17856 6630 00C0      		rjmp .L980
 17857               	.LM1771:
 17858 6632 2223      		tst r18
 17859 6634 01F0      		breq .L984
 17860               	.LM1772:
 17861 6636 81E0      		ldi r24,lo8(1)
 17862 6638 8093 0000 		sts okToOpenFileToUpload,r24
 17863               	.L985:
 17864               	.LM1773:
 17865 663c 8091 0000 		lds r24,uploadFileOpened
 17866 6640 8823      		tst r24
 17867 6642 01F0      		breq .L985
 17868 6644 80E1      		ldi r24,lo8(10000)
 17869 6646 97E2      		ldi r25,hi8(10000)
 17870               	.LVL1450:
 17871               	.LBB746:
 17872               	.LBB747:
 17873               	.LBB748:
 17874               	.LBB749:
 17875               	.LM1774:
 17876 6648 20E7      		ldi r18,lo8(368)
 17877 664a 31E0      		ldi r19,hi8(368)
 17878               	.LVL1451:
 17879               	.L986:
 17880 664c F901      		movw r30,r18
 17881               	.LVL1452:
 17882               	/* #APP */
 17883               	 ;  105 "/usr/local/CrossPack-AVR-20100115/lib/gcc/avr/4.3.3/../../../../avr/include/util/delay_bas
 17884 664e 3197      		1: sbiw r30,1
 17885 6650 01F4      		brne 1b
 17886               	 ;  0 "" 2
 17887               	/* #NOAPP */
 17888               	.LBE749:
 17889               	.LBE748:
 17890               	.LM1775:
 17891 6652 0197      		sbiw r24,1
 17892               	.LM1776:
 17893 6654 01F4      		brne .L986
 17894               	.LBE747:
 17895               	.LBE746:
 17896               	.LM1777:
 17897 6656 8091 0000 		lds r24,fileExists
 17898               	.LVL1453:
 17899 665a 8823      		tst r24
 17900 665c 01F4      		brne .L987
 17901               	.LM1778:
 17902 665e 0E94 0000 		call Debug_SendByte
 17903               	.LVL1454:
 17904 6662 8823      		tst r24
 17905 6664 01F4      		brne .+2
 17906 6666 00C0      		rjmp .L980
 17907               	.LM1779:
 17908 6668 80E0      		ldi r24,lo8(0)
 17909 666a 0E94 0000 		call Debug_SendByte
 17910 666e 8823      		tst r24
 17911 6670 01F4      		brne .+2
 17912 6672 00C0      		rjmp .L980
 17913               	.LM1780:
 17914 6674 80E0      		ldi r24,lo8(0)
 17915 6676 0E94 0000 		call Debug_SendByte
 17916 667a 8823      		tst r24
 17917 667c 01F4      		brne .+2
 17918 667e 00C0      		rjmp .L980
 17919               	.LM1781:
 17920 6680 80E0      		ldi r24,lo8(0)
 17921 6682 0E94 0000 		call Debug_SendByte
 17922 6686 8823      		tst r24
 17923 6688 01F4      		brne .+2
 17924 668a 00C0      		rjmp .L980
 17925               	.LM1782:
 17926 668c 81E0      		ldi r24,lo8(1)
 17927 668e 8093 0000 		sts okToCloseUploadFile,r24
 17928               	.L988:
 17929               	.LM1783:
 17930 6692 8091 0000 		lds r24,okToCloseUploadFile
 17931 6696 8823      		tst r24
 17932 6698 01F4      		brne .L988
 17933               	.LM1784:
 17934 669a 1092 0000 		sts uploading,__zero_reg__
 17935               	.LM1785:
 17936 669e 1092 0000 		sts okToUpload,__zero_reg__
 17937 66a2 00C0      		rjmp .L1008
 17938               	.LVL1455:
 17939               	.L987:
 17940               	.LBB750:
 17941               	.LBB751:
 17942               	.LM1786:
 17943 66a4 8FEF      		ldi r24,lo8(-1)
 17944 66a6 9FEF      		ldi r25,hi8(-1)
 17945 66a8 AFEF      		ldi r26,hlo8(-1)
 17946 66aa BFEF      		ldi r27,hhi8(-1)
 17947 66ac 8093 0000 		sts uploadCRC,r24
 17948 66b0 9093 0000 		sts (uploadCRC)+1,r25
 17949 66b4 A093 0000 		sts (uploadCRC)+2,r26
 17950 66b8 B093 0000 		sts (uploadCRC)+3,r27
 17951               	.LBE751:
 17952               	.LBE750:
 17953               	.LM1787:
 17954 66bc E090 0000 		lds r14,uploadFileSize
 17955 66c0 F090 0000 		lds r15,(uploadFileSize)+1
 17956 66c4 0091 0000 		lds r16,(uploadFileSize)+2
 17957 66c8 1091 0000 		lds r17,(uploadFileSize)+3
 17958               	.LVL1456:
 17959 66cc 84E0      		ldi r24,lo8(4)
 17960 66ce 90E0      		ldi r25,hi8(4)
 17961 66d0 A0E0      		ldi r26,hlo8(4)
 17962 66d2 B0E0      		ldi r27,hhi8(4)
 17963 66d4 E80E      		add r14,r24
 17964 66d6 F91E      		adc r15,r25
 17965 66d8 0A1F      		adc r16,r26
 17966 66da 1B1F      		adc r17,r27
 17967               	.LM1788:
 17968 66dc 812F      		mov r24,r17
 17969 66de 9927      		clr r25
 17970 66e0 AA27      		clr r26
 17971 66e2 BB27      		clr r27
 17972 66e4 0E94 0000 		call Debug_SendByte
 17973               	.LVL1457:
 17974 66e8 8823      		tst r24
 17975 66ea 01F4      		brne .+2
 17976 66ec 00C0      		rjmp .L980
 17977               	.LM1789:
 17978 66ee C801      		movw r24,r16
 17979 66f0 AA27      		clr r26
 17980 66f2 BB27      		clr r27
 17981 66f4 0E94 0000 		call Debug_SendByte
 17982 66f8 8823      		tst r24
 17983 66fa 01F4      		brne .+2
 17984 66fc 00C0      		rjmp .L980
 17985               	.LM1790:
 17986 66fe BB27      		clr r27
 17987 6700 A12F      		mov r26,r17
 17988 6702 902F      		mov r25,r16
 17989 6704 8F2D      		mov r24,r15
 17990 6706 0E94 0000 		call Debug_SendByte
 17991 670a 8823      		tst r24
 17992 670c 01F4      		brne .+2
 17993 670e 00C0      		rjmp .L980
 17994               	.LM1791:
 17995 6710 8E2D      		mov r24,r14
 17996 6712 0E94 0000 		call Debug_SendByte
 17997 6716 8823      		tst r24
 17998 6718 01F4      		brne .+2
 17999 671a 00C0      		rjmp .L980
 18000               	.LM1792:
 18001 671c 6091 0000 		lds r22,uploadFileSize
 18002 6720 7091 0000 		lds r23,(uploadFileSize)+1
 18003 6724 8091 0000 		lds r24,(uploadFileSize)+2
 18004 6728 9091 0000 		lds r25,(uploadFileSize)+3
 18005 672c 28EE      		ldi r18,lo8(1000)
 18006 672e 33E0      		ldi r19,hi8(1000)
 18007 6730 40E0      		ldi r20,hlo8(1000)
 18008 6732 50E0      		ldi r21,hhi8(1000)
 18009 6734 0E94 0000 		call __udivmodsi4
 18010 6738 C901      		movw r24,r18
 18011 673a DA01      		movw r26,r20
 18012 673c 8093 0000 		sts numberOfPacketsToUpload,r24
 18013 6740 9093 0000 		sts (numberOfPacketsToUpload)+1,r25
 18014 6744 A093 0000 		sts (numberOfPacketsToUpload)+2,r26
 18015 6748 B093 0000 		sts (numberOfPacketsToUpload)+3,r27
 18016               	.LM1793:
 18017 674c 6091 0000 		lds r22,uploadFileSize
 18018 6750 7091 0000 		lds r23,(uploadFileSize)+1
 18019 6754 8091 0000 		lds r24,(uploadFileSize)+2
 18020 6758 9091 0000 		lds r25,(uploadFileSize)+3
 18021 675c 28EE      		ldi r18,lo8(1000)
 18022 675e 33E0      		ldi r19,hi8(1000)
 18023 6760 40E0      		ldi r20,hlo8(1000)
 18024 6762 50E0      		ldi r21,hhi8(1000)
 18025 6764 0E94 0000 		call __udivmodsi4
 18026 6768 9B01      		movw r18,r22
 18027 676a AC01      		movw r20,r24
 18028 676c 2093 0000 		sts leftOverBytesToUpload,r18
 18029 6770 3093 0000 		sts (leftOverBytesToUpload)+1,r19
 18030 6774 4093 0000 		sts (leftOverBytesToUpload)+2,r20
 18031 6778 5093 0000 		sts (leftOverBytesToUpload)+3,r21
 18032 677c 6624      		clr r6
 18033 677e 7724      		clr r7
 18034 6780 4301      		movw r8,r6
 18035               	.LVL1458:
 18036 6782 AA24      		clr r10
 18037 6784 BB24      		clr r11
 18038 6786 6501      		movw r12,r10
 18039               	.LBB752:
 18040               	.LM1794:
 18041 6788 5524      		clr r5
 18042 678a 5394      		inc r5
 18043 678c 00C0      		rjmp .L990
 18044               	.L993:
 18045               	.LM1795:
 18046 678e 1092 0000 		sts uploadFileBufferFull,__zero_reg__
 18047               	.LM1796:
 18048 6792 5092 0000 		sts okToFillUploadFileBuffer,r5
 18049               	.LM1797:
 18050 6796 2091 0000 		lds r18,numberOfPacketsToUpload
 18051 679a 3091 0000 		lds r19,(numberOfPacketsToUpload)+1
 18052 679e 4091 0000 		lds r20,(numberOfPacketsToUpload)+2
 18053 67a2 5091 0000 		lds r21,(numberOfPacketsToUpload)+3
 18054 67a6 C601      		movw r24,r12
 18055 67a8 B501      		movw r22,r10
 18056 67aa 0E94 0000 		call __udivmodsi4
 18057 67ae 2093 0000 		sts uploadPercentBS,r18
 18058               	.L991:
 18059               	.LM1798:
 18060 67b2 8091 0000 		lds r24,uploadFileBufferFull
 18061 67b6 8823      		tst r24
 18062 67b8 01F0      		breq .L991
 18063 67ba C0E0      		ldi r28,lo8(uploadFileBuffer)
 18064 67bc D0E0      		ldi r29,hi8(uploadFileBuffer)
 18065               	.L992:
 18066               	.LBB753:
 18067               	.LM1799:
 18068 67be 8881      		ld r24,Y
 18069 67c0 0E94 0000 		call Debug_SendByte
 18070 67c4 8823      		tst r24
 18071 67c6 01F4      		brne .+2
 18072 67c8 00C0      		rjmp .L980
 18073               	.LBB754:
 18074               	.LBB755:
 18075               	.LM1800:
 18076 67ca E090 0000 		lds r14,uploadCRC
 18077 67ce F090 0000 		lds r15,(uploadCRC)+1
 18078 67d2 0091 0000 		lds r16,(uploadCRC)+2
 18079 67d6 1091 0000 		lds r17,(uploadCRC)+3
 18080               	.LVL1459:
 18081 67da 8091 0000 		lds r24,uploadCRC
 18082 67de 9091 0000 		lds r25,(uploadCRC)+1
 18083 67e2 A091 0000 		lds r26,(uploadCRC)+2
 18084 67e6 B091 0000 		lds r27,(uploadCRC)+3
 18085 67ea 9070      		andi r25,hi8(255)
 18086 67ec A070      		andi r26,hlo8(255)
 18087 67ee B070      		andi r27,hhi8(255)
 18088 67f0 2991      		ld r18,Y+
 18089 67f2 30E0      		ldi r19,lo8(0)
 18090 67f4 40E0      		ldi r20,lo8(0)
 18091 67f6 50E0      		ldi r21,hi8(0)
 18092 67f8 8227      		eor r24,r18
 18093 67fa 9327      		eor r25,r19
 18094 67fc A427      		eor r26,r20
 18095 67fe B527      		eor r27,r21
 18096 6800 880F      		lsl r24
 18097 6802 991F      		rol r25
 18098 6804 880F      		lsl r24
 18099 6806 991F      		rol r25
 18100 6808 8050      		subi r24,lo8(-(crc_table))
 18101 680a 9040      		sbci r25,hi8(-(crc_table))
 18102 680c EF2C      		mov r14,r15
 18103 680e F02E      		mov r15,r16
 18104 6810 012F      		mov r16,r17
 18105 6812 1127      		clr r17
 18106 6814 FC01      		movw r30,r24
 18107 6816 8081      		ld r24,Z
 18108 6818 9181      		ldd r25,Z+1
 18109 681a A281      		ldd r26,Z+2
 18110 681c B381      		ldd r27,Z+3
 18111 681e E826      		eor r14,r24
 18112 6820 F926      		eor r15,r25
 18113 6822 0A27      		eor r16,r26
 18114 6824 1B27      		eor r17,r27
 18115 6826 E092 0000 		sts uploadCRC,r14
 18116 682a F092 0000 		sts (uploadCRC)+1,r15
 18117 682e 0093 0000 		sts (uploadCRC)+2,r16
 18118 6832 1093 0000 		sts (uploadCRC)+3,r17
 18119               	.LBE755:
 18120               	.LBE754:
 18121               	.LM1801:
 18122 6836 F0E0      		ldi r31,hi8(uploadFileBuffer+1000)
 18123 6838 C030      		cpi r28,lo8(uploadFileBuffer+1000)
 18124 683a DF07      		cpc r29,r31
 18125 683c 01F0      		breq .+2
 18126 683e 00C0      		rjmp .L992
 18127               	.LBE753:
 18128               	.LM1802:
 18129 6840 0894      		sec
 18130 6842 611C      		adc r6,__zero_reg__
 18131 6844 711C      		adc r7,__zero_reg__
 18132 6846 811C      		adc r8,__zero_reg__
 18133 6848 911C      		adc r9,__zero_reg__
 18134 684a 84E6      		ldi r24,lo8(100)
 18135 684c 90E0      		ldi r25,hi8(100)
 18136 684e A0E0      		ldi r26,hlo8(100)
 18137 6850 B0E0      		ldi r27,hhi8(100)
 18138 6852 A80E      		add r10,r24
 18139 6854 B91E      		adc r11,r25
 18140 6856 CA1E      		adc r12,r26
 18141 6858 DB1E      		adc r13,r27
 18142               	.LVL1460:
 18143               	.L990:
 18144 685a 8091 0000 		lds r24,numberOfPacketsToUpload
 18145 685e 9091 0000 		lds r25,(numberOfPacketsToUpload)+1
 18146 6862 A091 0000 		lds r26,(numberOfPacketsToUpload)+2
 18147 6866 B091 0000 		lds r27,(numberOfPacketsToUpload)+3
 18148 686a 6816      		cp r6,r24
 18149 686c 7906      		cpc r7,r25
 18150 686e 8A06      		cpc r8,r26
 18151 6870 9B06      		cpc r9,r27
 18152 6872 00F4      		brsh .+2
 18153 6874 00C0      		rjmp .L993
 18154               	.LBE752:
 18155               	.LM1803:
 18156 6876 1092 0000 		sts uploadFileBufferFull,__zero_reg__
 18157               	.LM1804:
 18158 687a 81E0      		ldi r24,lo8(1)
 18159 687c 8093 0000 		sts okToFillUploadFileBuffer,r24
 18160               	.L994:
 18161               	.LM1805:
 18162 6880 8091 0000 		lds r24,uploadFileBufferFull
 18163 6884 8823      		tst r24
 18164 6886 01F0      		breq .L994
 18165 6888 C0E0      		ldi r28,lo8(uploadFileBuffer)
 18166 688a D0E0      		ldi r29,hi8(uploadFileBuffer)
 18167 688c AA24      		clr r10
 18168 688e BB24      		clr r11
 18169 6890 6501      		movw r12,r10
 18170 6892 00C0      		rjmp .L995
 18171               	.L996:
 18172               	.LBB756:
 18173               	.LM1806:
 18174 6894 8881      		ld r24,Y
 18175 6896 0E94 0000 		call Debug_SendByte
 18176 689a 0894      		sec
 18177 689c A11C      		adc r10,__zero_reg__
 18178 689e B11C      		adc r11,__zero_reg__
 18179 68a0 C11C      		adc r12,__zero_reg__
 18180 68a2 D11C      		adc r13,__zero_reg__
 18181 68a4 8823      		tst r24
 18182 68a6 01F4      		brne .+2
 18183 68a8 00C0      		rjmp .L980
 18184               	.LBB757:
 18185               	.LBB758:
 18186               	.LM1807:
 18187 68aa E090 0000 		lds r14,uploadCRC
 18188 68ae F090 0000 		lds r15,(uploadCRC)+1
 18189 68b2 0091 0000 		lds r16,(uploadCRC)+2
 18190 68b6 1091 0000 		lds r17,(uploadCRC)+3
 18191               	.LVL1461:
 18192 68ba 8091 0000 		lds r24,uploadCRC
 18193 68be 9091 0000 		lds r25,(uploadCRC)+1
 18194 68c2 A091 0000 		lds r26,(uploadCRC)+2
 18195 68c6 B091 0000 		lds r27,(uploadCRC)+3
 18196 68ca 9070      		andi r25,hi8(255)
 18197 68cc A070      		andi r26,hlo8(255)
 18198 68ce B070      		andi r27,hhi8(255)
 18199 68d0 2991      		ld r18,Y+
 18200 68d2 30E0      		ldi r19,lo8(0)
 18201 68d4 40E0      		ldi r20,lo8(0)
 18202 68d6 50E0      		ldi r21,hi8(0)
 18203 68d8 8227      		eor r24,r18
 18204 68da 9327      		eor r25,r19
 18205 68dc A427      		eor r26,r20
 18206 68de B527      		eor r27,r21
 18207 68e0 880F      		lsl r24
 18208 68e2 991F      		rol r25
 18209 68e4 880F      		lsl r24
 18210 68e6 991F      		rol r25
 18211 68e8 8050      		subi r24,lo8(-(crc_table))
 18212 68ea 9040      		sbci r25,hi8(-(crc_table))
 18213 68ec EF2C      		mov r14,r15
 18214 68ee F02E      		mov r15,r16
 18215 68f0 012F      		mov r16,r17
 18216 68f2 1127      		clr r17
 18217 68f4 FC01      		movw r30,r24
 18218 68f6 8081      		ld r24,Z
 18219 68f8 9181      		ldd r25,Z+1
 18220 68fa A281      		ldd r26,Z+2
 18221 68fc B381      		ldd r27,Z+3
 18222 68fe E826      		eor r14,r24
 18223 6900 F926      		eor r15,r25
 18224 6902 0A27      		eor r16,r26
 18225 6904 1B27      		eor r17,r27
 18226 6906 E092 0000 		sts uploadCRC,r14
 18227 690a F092 0000 		sts (uploadCRC)+1,r15
 18228 690e 0093 0000 		sts (uploadCRC)+2,r16
 18229 6912 1093 0000 		sts (uploadCRC)+3,r17
 18230               	.LVL1462:
 18231               	.L995:
 18232               	.LBE758:
 18233               	.LBE757:
 18234               	.LM1808:
 18235 6916 8091 0000 		lds r24,leftOverBytesToUpload
 18236 691a 9091 0000 		lds r25,(leftOverBytesToUpload)+1
 18237 691e A091 0000 		lds r26,(leftOverBytesToUpload)+2
 18238 6922 B091 0000 		lds r27,(leftOverBytesToUpload)+3
 18239 6926 A816      		cp r10,r24
 18240 6928 B906      		cpc r11,r25
 18241 692a CA06      		cpc r12,r26
 18242 692c DB06      		cpc r13,r27
 18243 692e 00F4      		brsh .+2
 18244 6930 00C0      		rjmp .L996
 18245               	.LBE756:
 18246               	.LM1809:
 18247 6932 0E94 0000 		call Uploader_WriteCRC
 18248               	.LM1810:
 18249 6936 81E0      		ldi r24,lo8(1)
 18250 6938 8093 0000 		sts okToCloseUploadFile,r24
 18251               	.L997:
 18252               	.LM1811:
 18253 693c 8091 0000 		lds r24,okToCloseUploadFile
 18254 6940 8823      		tst r24
 18255 6942 01F4      		brne .L997
 18256               	.LM1812:
 18257 6944 1092 0000 		sts uploading,__zero_reg__
 18258               	.LM1813:
 18259 6948 1092 0000 		sts okToUpload,__zero_reg__
 18260               	.LM1814:
 18261 694c 84E6      		ldi r24,lo8(100)
 18262 694e 8093 0000 		sts uploadPercentBS,r24
 18263               	.L1008:
 18264 6952 81E0      		ldi r24,lo8(1)
 18265 6954 00C0      		rjmp .L989
 18266               	.LVL1463:
 18267               	.L980:
 18268               	.LM1815:
 18269 6956 80E0      		ldi r24,lo8(0)
 18270               	.L989:
 18271               	/* epilogue start */
 18272               	.LM1816:
 18273 6958 DF91      		pop r29
 18274 695a CF91      		pop r28
 18275 695c 1F91      		pop r17
 18276               	.LVL1464:
 18277 695e 0F91      		pop r16
 18278               	.LVL1465:
 18279 6960 FF90      		pop r15
 18280               	.LVL1466:
 18281 6962 EF90      		pop r14
 18282               	.LVL1467:
 18283 6964 DF90      		pop r13
 18284 6966 CF90      		pop r12
 18285 6968 BF90      		pop r11
 18286 696a AF90      		pop r10
 18287 696c 9F90      		pop r9
 18288 696e 8F90      		pop r8
 18289 6970 7F90      		pop r7
 18290 6972 6F90      		pop r6
 18291               	.LVL1468:
 18292 6974 5F90      		pop r5
 18293 6976 0895      		ret
 18294               	.LFE133:
 18296               	.global	Uploader_UpdateCRC
 18298               	Uploader_UpdateCRC:
 18299               	.LFB139:
 18300               	.LM1817:
 18301               	.LVL1469:
 18302 6978 EF92      		push r14
 18303 697a FF92      		push r15
 18304 697c 0F93      		push r16
 18305 697e 1F93      		push r17
 18306               	/* prologue: function */
 18307               	/* frame size = 0 */
 18308               	.LM1818:
 18309 6980 E090 0000 		lds r14,uploadCRC
 18310 6984 F090 0000 		lds r15,(uploadCRC)+1
 18311 6988 0091 0000 		lds r16,(uploadCRC)+2
 18312 698c 1091 0000 		lds r17,(uploadCRC)+3
 18313 6990 2091 0000 		lds r18,uploadCRC
 18314 6994 3091 0000 		lds r19,(uploadCRC)+1
 18315 6998 4091 0000 		lds r20,(uploadCRC)+2
 18316 699c 5091 0000 		lds r21,(uploadCRC)+3
 18317 69a0 90E0      		ldi r25,lo8(0)
 18318               	.LVL1470:
 18319 69a2 A0E0      		ldi r26,lo8(0)
 18320 69a4 B0E0      		ldi r27,hi8(0)
 18321               	.LVL1471:
 18322 69a6 3070      		andi r19,hi8(255)
 18323 69a8 4070      		andi r20,hlo8(255)
 18324 69aa 5070      		andi r21,hhi8(255)
 18325 69ac 8227      		eor r24,r18
 18326 69ae 9327      		eor r25,r19
 18327 69b0 A427      		eor r26,r20
 18328 69b2 B527      		eor r27,r21
 18329               	.LVL1472:
 18330 69b4 880F      		lsl r24
 18331 69b6 991F      		rol r25
 18332 69b8 880F      		lsl r24
 18333 69ba 991F      		rol r25
 18334               	.LVL1473:
 18335 69bc 8050      		subi r24,lo8(-(crc_table))
 18336 69be 9040      		sbci r25,hi8(-(crc_table))
 18337 69c0 EF2C      		mov r14,r15
 18338 69c2 F02E      		mov r15,r16
 18339 69c4 012F      		mov r16,r17
 18340 69c6 1127      		clr r17
 18341 69c8 FC01      		movw r30,r24
 18342 69ca 8081      		ld r24,Z
 18343 69cc 9181      		ldd r25,Z+1
 18344 69ce A281      		ldd r26,Z+2
 18345 69d0 B381      		ldd r27,Z+3
 18346 69d2 E826      		eor r14,r24
 18347 69d4 F926      		eor r15,r25
 18348 69d6 0A27      		eor r16,r26
 18349 69d8 1B27      		eor r17,r27
 18350 69da E092 0000 		sts uploadCRC,r14
 18351 69de F092 0000 		sts (uploadCRC)+1,r15
 18352 69e2 0093 0000 		sts (uploadCRC)+2,r16
 18353 69e6 1093 0000 		sts (uploadCRC)+3,r17
 18354               	/* epilogue start */
 18355               	.LM1819:
 18356 69ea 1F91      		pop r17
 18357 69ec 0F91      		pop r16
 18358 69ee FF90      		pop r15
 18359 69f0 EF90      		pop r14
 18360 69f2 0895      		ret
 18361               	.LFE139:
 18363               	.global	Clock_Init
 18365               	Clock_Init:
 18366               	.LFB141:
 18367               	.LM1820:
 18368 69f4 0F93      		push r16
 18369 69f6 DF93      		push r29
 18370 69f8 CF93      		push r28
 18371 69fa 0F92      		push __tmp_reg__
 18372 69fc CDB7      		in r28,__SP_L__
 18373 69fe DEB7      		in r29,__SP_H__
 18374               	/* prologue: function */
 18375               	/* frame size = 1 */
 18376               	.LM1821:
 18377 6a00 80EC      		ldi r24,lo8(-64)
 18378 6a02 E0E5      		ldi r30,lo8(80)
 18379 6a04 F0E0      		ldi r31,hi8(80)
 18380 6a06 8283      		std Z+2,r24
 18381               	.LM1822:
 18382 6a08 8091 5000 		lds r24,80
 18383 6a0c 8860      		ori r24,lo8(8)
 18384 6a0e 8093 5000 		sts 80,r24
 18385               	.L1012:
 18386               	.LM1823:
 18387 6a12 8091 5100 		lds r24,81
 18388 6a16 83FF      		sbrs r24,3
 18389 6a18 00C0      		rjmp .L1012
 18390               	.LM1824:
 18391 6a1a 2091 4000 		lds r18,64
 18392               	.LBB759:
 18393               	.LBB760:
 18394               	.LM1825:
 18395 6a1e 8FB7      		in r24,__SREG__
 18396 6a20 8983      		std Y+1,r24
 18397               	.LVL1474:
 18398               	.LM1826:
 18399               	/* #APP */
 18400               	 ;  83 "mainChestStrap.h" 1
 18401 6a22 F894      		cli
 18402               	 ;  0 "" 2
 18403               	.LM1827:
 18404               	/* #NOAPP */
 18405 6a24 1BBE      		out 59-0,__zero_reg__
 18406               	.LM1828:
 18407 6a26 287F      		andi r18,lo8(-8)
 18408 6a28 2360      		ori r18,lo8(3)
 18409 6a2a 80E4      		ldi r24,lo8(64)
 18410 6a2c 90E0      		ldi r25,hi8(64)
 18411               	/* #APP */
 18412               	 ;  105 "mainChestStrap.h" 1
 18413 6a2e FC01      		movw r30,  r24
 18414 6a30 08ED      		ldi  r16,  216
 18415 6a32 04BF      		out   52, r16
 18416 6a34 2083      		st     Z,  r18
 18417               		
 18418               	 ;  0 "" 2
 18419               	.LM1829:
 18420               	/* #NOAPP */
 18421 6a36 8981      		ldd r24,Y+1
 18422 6a38 8FBF      		out __SREG__,r24
 18423               	.LBE760:
 18424               	.LBE759:
 18425               	.LM1830:
 18426 6a3a 8091 5000 		lds r24,80
 18427 6a3e 8E7F      		andi r24,lo8(-2)
 18428 6a40 8093 5000 		sts 80,r24
 18429               	/* epilogue start */
 18430               	.LM1831:
 18431 6a44 0F90      		pop __tmp_reg__
 18432 6a46 CF91      		pop r28
 18433 6a48 DF91      		pop r29
 18434 6a4a 0F91      		pop r16
 18435 6a4c 0895      		ret
 18436               	.LFE141:
 18438               	.global	Disable_JTAG
 18440               	Disable_JTAG:
 18441               	.LFB142:
 18442               	.LM1832:
 18443 6a4e 0F93      		push r16
 18444 6a50 DF93      		push r29
 18445 6a52 CF93      		push r28
 18446 6a54 0F92      		push __tmp_reg__
 18447 6a56 CDB7      		in r28,__SP_L__
 18448 6a58 DEB7      		in r29,__SP_H__
 18449               	/* prologue: function */
 18450               	/* frame size = 1 */
 18451               	.LBB761:
 18452               	.LBB762:
 18453               	.LM1833:
 18454 6a5a 8FB7      		in r24,__SREG__
 18455 6a5c 8983      		std Y+1,r24
 18456               	.LVL1475:
 18457               	.LM1834:
 18458               	/* #APP */
 18459               	 ;  83 "mainChestStrap.h" 1
 18460 6a5e F894      		cli
 18461               	 ;  0 "" 2
 18462               	.LM1835:
 18463               	/* #NOAPP */
 18464 6a60 1BBE      		out 59-0,__zero_reg__
 18465               	.LM1836:
 18466 6a62 21E0      		ldi r18,lo8(1)
 18467 6a64 86E9      		ldi r24,lo8(150)
 18468 6a66 90E0      		ldi r25,hi8(150)
 18469               	/* #APP */
 18470               	 ;  105 "mainChestStrap.h" 1
 18471 6a68 FC01      		movw r30,  r24
 18472 6a6a 08ED      		ldi  r16,  216
 18473 6a6c 04BF      		out   52, r16
 18474 6a6e 2083      		st     Z,  r18
 18475               		
 18476               	 ;  0 "" 2
 18477               	.LM1837:
 18478               	/* #NOAPP */
 18479 6a70 8981      		ldd r24,Y+1
 18480 6a72 8FBF      		out __SREG__,r24
 18481               	/* epilogue start */
 18482               	.LBE762:
 18483               	.LBE761:
 18484               	.LM1838:
 18485 6a74 0F90      		pop __tmp_reg__
 18486 6a76 CF91      		pop r28
 18487 6a78 DF91      		pop r29
 18488 6a7a 0F91      		pop r16
 18489 6a7c 0895      		ret
 18490               	.LFE142:
 18492               	.global	Interrupt_Init
 18494               	Interrupt_Init:
 18495               	.LFB143:
 18496               	.LM1839:
 18497               	/* prologue: function */
 18498               	/* frame size = 0 */
 18499               	.LM1840:
 18500 6a7e E0EA      		ldi r30,lo8(160)
 18501 6a80 F0E0      		ldi r31,hi8(160)
 18502 6a82 8281      		ldd r24,Z+2
 18503 6a84 8760      		ori r24,lo8(7)
 18504 6a86 8283      		std Z+2,r24
 18505               	.LM1841:
 18506               	/* #APP */
 18507               	 ;  180 "mainChestStrap.c" 1
 18508 6a88 7894      		sei
 18509               	 ;  0 "" 2
 18510               	/* epilogue start */
 18511               	.LM1842:
 18512               	/* #NOAPP */
 18513 6a8a 0895      		ret
 18514               	.LFE143:
 18516               	.global	__vector_104
 18518               	__vector_104:
 18519               	.LFB144:
 18520               	.LM1843:
 18521 6a8c 1F92      		push __zero_reg__
 18522 6a8e 0F92      		push r0
 18523 6a90 0FB6      		in r0,__SREG__
 18524 6a92 0F92      		push r0
 18525 6a94 0BB6      		in r0,59-0
 18526 6a96 0F92      		push r0
 18527 6a98 1124      		clr __zero_reg__
 18528 6a9a 2F93      		push r18
 18529 6a9c 3F93      		push r19
 18530 6a9e 4F93      		push r20
 18531 6aa0 5F93      		push r21
 18532 6aa2 6F93      		push r22
 18533 6aa4 7F93      		push r23
 18534 6aa6 8F93      		push r24
 18535 6aa8 9F93      		push r25
 18536 6aaa AF93      		push r26
 18537 6aac BF93      		push r27
 18538 6aae EF93      		push r30
 18539 6ab0 FF93      		push r31
 18540               	/* prologue: Signal */
 18541               	/* frame size = 0 */
 18542               	.LM1844:
 18543 6ab2 8091 0000 		lds r24,okToOpenLogFile
 18544 6ab6 8823      		tst r24
 18545 6ab8 01F4      		brne .L1020
 18546 6aba 8091 0000 		lds r24,recording
 18547 6abe 8823      		tst r24
 18548 6ac0 01F4      		brne .L1020
 18549 6ac2 8091 0000 		lds r24,timeIsValid
 18550 6ac6 8823      		tst r24
 18551 6ac8 01F0      		breq .L1020
 18552               	.LBB763:
 18553               	.LBB764:
 18554               	.LM1845:
 18555 6aca 8091 0000 		lds r24,sdValid
 18556               	.LBE764:
 18557               	.LBE763:
 18558               	.LM1846:
 18559 6ace 8823      		tst r24
 18560 6ad0 01F0      		breq .L1020
 18561 6ad2 8091 0000 		lds r24,debounceEnabled
 18562 6ad6 8823      		tst r24
 18563 6ad8 01F4      		brne .L1020
 18564               	.LM1847:
 18565 6ada 8091 0000 		lds r24,percentDiskUsed
 18566 6ade 9091 0000 		lds r25,(percentDiskUsed)+1
 18567 6ae2 A091 0000 		lds r26,(percentDiskUsed)+2
 18568 6ae6 B091 0000 		lds r27,(percentDiskUsed)+3
 18569 6aea 865B      		subi r24,lo8(950)
 18570 6aec 9340      		sbci r25,hi8(950)
 18571 6aee A040      		sbci r26,hlo8(950)
 18572 6af0 B040      		sbci r27,hhi8(950)
 18573 6af2 00F4      		brsh .L1022
 18574               	.LM1848:
 18575 6af4 81E0      		ldi r24,lo8(1)
 18576 6af6 8093 0000 		sts debounceEnabled,r24
 18577               	.LM1849:
 18578 6afa 8093 0000 		sts okToOpenLogFile,r24
 18579 6afe 00C0      		rjmp .L1022
 18580               	.L1020:
 18581               	.LM1850:
 18582 6b00 8091 0000 		lds r24,recording
 18583 6b04 8823      		tst r24
 18584 6b06 01F0      		breq .L1022
 18585 6b08 8091 0000 		lds r24,debounceEnabled
 18586 6b0c 8823      		tst r24
 18587 6b0e 01F4      		brne .L1022
 18588               	.LM1851:
 18589 6b10 1092 0000 		sts recording,__zero_reg__
 18590               	.LM1852:
 18591 6b14 0E94 0000 		call Sensors_ResetHumidityBuffers
 18592               	.LM1853:
 18593 6b18 0E94 0000 		call Sensors_ResetTemperatureBuffers
 18594               	.LM1854:
 18595 6b1c 0E94 0000 		call Sensors_ResetRespirationBuffers
 18596               	.LM1855:
 18597 6b20 0E94 0000 		call Sensors_ResetEKGBuffers
 18598               	.LM1856:
 18599 6b24 0E94 0000 		call Sensors_ResetAccelBuffers
 18600               	.LM1857:
 18601 6b28 81E0      		ldi r24,lo8(1)
 18602 6b2a 8093 0000 		sts okToCloseLogFile,r24
 18603               	.LM1858:
 18604 6b2e 8093 0000 		sts debounceEnabled,r24
 18605               	.L1022:
 18606               	/* epilogue start */
 18607               	.LM1859:
 18608 6b32 FF91      		pop r31
 18609 6b34 EF91      		pop r30
 18610 6b36 BF91      		pop r27
 18611 6b38 AF91      		pop r26
 18612 6b3a 9F91      		pop r25
 18613 6b3c 8F91      		pop r24
 18614 6b3e 7F91      		pop r23
 18615 6b40 6F91      		pop r22
 18616 6b42 5F91      		pop r21
 18617 6b44 4F91      		pop r20
 18618 6b46 3F91      		pop r19
 18619 6b48 2F91      		pop r18
 18620 6b4a 0F90      		pop r0
 18621 6b4c 0BBE      		out 59-0,r0
 18622 6b4e 0F90      		pop r0
 18623 6b50 0FBE      		out __SREG__,r0
 18624 6b52 0F90      		pop r0
 18625 6b54 1F90      		pop __zero_reg__
 18626 6b56 1895      		reti
 18627               	.LFE144:
 18629               	.global	Charger_Init
 18631               	Charger_Init:
 18632               	.LFB145:
 18633               	.LM1860:
 18634               	/* prologue: function */
 18635               	/* frame size = 0 */
 18636               	.LM1861:
 18637 6b58 E0E6      		ldi r30,lo8(1632)
 18638 6b5a F6E0      		ldi r31,hi8(1632)
 18639 6b5c 88E0      		ldi r24,lo8(8)
 18640 6b5e 8283      		std Z+2,r24
 18641               	.LM1862:
 18642 6b60 88E3      		ldi r24,lo8(56)
 18643 6b62 838B      		std Z+19,r24
 18644               	/* epilogue start */
 18645               	.LM1863:
 18646 6b64 0895      		ret
 18647               	.LFE145:
 18649               	.global	Charged
 18651               	Charged:
 18652               	.LFB146:
 18653               	.LM1864:
 18654               	/* prologue: function */
 18655               	/* frame size = 0 */
 18656               	.LM1865:
 18657 6b66 E0EA      		ldi r30,lo8(1696)
 18658 6b68 F6E0      		ldi r31,hi8(1696)
 18659 6b6a 8085      		ldd r24,Z+8
 18660 6b6c 90E0      		ldi r25,lo8(0)
 18661 6b6e F3E0      		ldi r31,3
 18662 6b70 9695      	1:	lsr r25
 18663 6b72 8795      		ror r24
 18664 6b74 FA95      		dec r31
 18665 6b76 01F4      		brne 1b
 18666               	.LM1866:
 18667 6b78 8170      		andi r24,lo8(1)
 18668               	/* epilogue start */
 18669 6b7a 0895      		ret
 18670               	.LFE146:
 18672               	.global	GUI_Init
 18674               	GUI_Init:
 18675               	.LFB147:
 18676               	.LM1867:
 18677               	/* prologue: function */
 18678               	/* frame size = 0 */
 18679               	.LM1868:
 18680 6b7c E0E0      		ldi r30,lo8(2304)
 18681 6b7e F9E0      		ldi r31,hi8(2304)
 18682 6b80 80EA      		ldi r24,lo8(1440)
 18683 6b82 95E0      		ldi r25,hi8(1440)
 18684 6b84 86A3      		std Z+38,r24
 18685 6b86 97A3      		std Z+39,r25
 18686               	.LM1869:
 18687 6b88 8081      		ld r24,Z
 18688 6b8a 807F      		andi r24,lo8(-16)
 18689 6b8c 8760      		ori r24,lo8(7)
 18690 6b8e 8083      		st Z,r24
 18691               	.LM1870:
 18692 6b90 8681      		ldd r24,Z+6
 18693 6b92 8C7F      		andi r24,lo8(-4)
 18694 6b94 8160      		ori r24,lo8(1)
 18695 6b96 8683      		std Z+6,r24
 18696               	/* epilogue start */
 18697               	.LM1871:
 18698 6b98 0895      		ret
 18699               	.LFE147:
 18701               	.global	__vector_77
 18703               	__vector_77:
 18704               	.LFB148:
 18705               	.LM1872:
 18706 6b9a 1F92      		push __zero_reg__
 18707 6b9c 0F92      		push r0
 18708 6b9e 0FB6      		in r0,__SREG__
 18709 6ba0 0F92      		push r0
 18710 6ba2 0BB6      		in r0,59-0
 18711 6ba4 0F92      		push r0
 18712 6ba6 1124      		clr __zero_reg__
 18713 6ba8 2F93      		push r18
 18714 6baa 3F93      		push r19
 18715 6bac 4F93      		push r20
 18716 6bae 5F93      		push r21
 18717 6bb0 8F93      		push r24
 18718 6bb2 9F93      		push r25
 18719 6bb4 AF93      		push r26
 18720 6bb6 BF93      		push r27
 18721 6bb8 CF93      		push r28
 18722 6bba DF93      		push r29
 18723 6bbc EF93      		push r30
 18724 6bbe FF93      		push r31
 18725               	/* prologue: Signal */
 18726               	/* frame size = 0 */
 18727               	.LM1873:
 18728 6bc0 8091 0000 		lds r24,recording
 18729 6bc4 8823      		tst r24
 18730 6bc6 01F0      		breq .L1030
 18731               	.LM1874:
 18732 6bc8 8091 0000 		lds r24,lengthOfCurrentFile
 18733 6bcc 9091 0000 		lds r25,(lengthOfCurrentFile)+1
 18734 6bd0 0196      		adiw r24,1
 18735 6bd2 8093 0000 		sts lengthOfCurrentFile,r24
 18736 6bd6 9093 0000 		sts (lengthOfCurrentFile)+1,r25
 18737               	.LM1875:
 18738 6bda 8091 0000 		lds r24,lengthOfCurrentFile
 18739 6bde 9091 0000 		lds r25,(lengthOfCurrentFile)+1
 18740 6be2 8952      		subi r24,lo8(9001)
 18741 6be4 9342      		sbci r25,hi8(9001)
 18742 6be6 00F0      		brlo .L1030
 18743               	.LM1876:
 18744 6be8 81E0      		ldi r24,lo8(1)
 18745 6bea 8093 0000 		sts restartingFile,r24
 18746               	.LM1877:
 18747 6bee 1092 0000 		sts recording,__zero_reg__
 18748               	.LM1878:
 18749 6bf2 8093 0000 		sts okToCloseLogFile,r24
 18750               	.L1031:
 18751               	.LM1879:
 18752 6bf6 8091 0000 		lds r24,okToCloseLogFile
 18753 6bfa 8823      		tst r24
 18754 6bfc 01F4      		brne .L1031
 18755               	.LM1880:
 18756 6bfe 8091 0000 		lds r24,percentDiskUsed
 18757 6c02 9091 0000 		lds r25,(percentDiskUsed)+1
 18758 6c06 A091 0000 		lds r26,(percentDiskUsed)+2
 18759 6c0a B091 0000 		lds r27,(percentDiskUsed)+3
 18760 6c0e 865B      		subi r24,lo8(950)
 18761 6c10 9340      		sbci r25,hi8(950)
 18762 6c12 A040      		sbci r26,hlo8(950)
 18763 6c14 B040      		sbci r27,hhi8(950)
 18764 6c16 00F4      		brsh .L1032
 18765               	.LM1881:
 18766 6c18 81E0      		ldi r24,lo8(1)
 18767 6c1a 8093 0000 		sts okToOpenLogFile,r24
 18768               	.L1033:
 18769               	.LM1882:
 18770 6c1e 8091 0000 		lds r24,recording
 18771 6c22 8823      		tst r24
 18772 6c24 01F0      		breq .L1033
 18773               	.L1032:
 18774               	.LM1883:
 18775 6c26 1092 0000 		sts restartingFile,__zero_reg__
 18776               	.L1030:
 18777               	.LM1884:
 18778 6c2a 8091 0000 		lds r24,timeIsValid
 18779 6c2e 8823      		tst r24
 18780 6c30 01F0      		breq .L1034
 18781 6c32 8091 0000 		lds r24,okToSendRTCBlock
 18782 6c36 8823      		tst r24
 18783 6c38 01F4      		brne .L1034
 18784               	.LM1885:
 18785 6c3a 8091 0000 		lds r24,syncCounter
 18786 6c3e 9091 0000 		lds r25,(syncCounter)+1
 18787 6c42 0196      		adiw r24,1
 18788 6c44 8093 0000 		sts syncCounter,r24
 18789 6c48 9093 0000 		sts (syncCounter)+1,r25
 18790               	.LM1886:
 18791 6c4c 8091 0000 		lds r24,syncCounter
 18792 6c50 9091 0000 		lds r25,(syncCounter)+1
 18793 6c54 8157      		subi r24,lo8(6001)
 18794 6c56 9741      		sbci r25,hi8(6001)
 18795 6c58 00F0      		brlo .L1034
 18796               	.LM1887:
 18797 6c5a 1092 0000 		sts syncCounter,__zero_reg__
 18798 6c5e 1092 0000 		sts (syncCounter)+1,__zero_reg__
 18799               	.LBB765:
 18800               	.LBB766:
 18801               	.LM1888:
 18802 6c62 8091 2104 		lds r24,1057
 18803 6c66 8061      		ori r24,lo8(16)
 18804 6c68 E0E2      		ldi r30,lo8(1056)
 18805 6c6a F4E0      		ldi r31,hi8(1056)
 18806 6c6c 8183      		std Z+1,r24
 18807               	.L1035:
 18808               	.LM1889:
 18809 6c6e 8091 2104 		lds r24,1057
 18810 6c72 84FD      		sbrc r24,4
 18811 6c74 00C0      		rjmp .L1035
 18812               	.LM1890:
 18813 6c76 8091 2404 		lds r24,1060
 18814 6c7a 9091 2504 		lds r25,(1060)+1
 18815 6c7e A091 2604 		lds r26,(1060)+2
 18816 6c82 B091 2704 		lds r27,(1060)+3
 18817               	.LBE766:
 18818               	.LBE765:
 18819               	.LM1891:
 18820 6c86 8093 0000 		sts UNIX_Time,r24
 18821 6c8a 9093 0000 		sts (UNIX_Time)+1,r25
 18822 6c8e A093 0000 		sts (UNIX_Time)+2,r26
 18823 6c92 B093 0000 		sts (UNIX_Time)+3,r27
 18824               	.L1034:
 18825               	.LM1892:
 18826 6c96 8091 0000 		lds r24,spaceRemainingCounter
 18827 6c9a 8F5F      		subi r24,lo8(-(1))
 18828 6c9c 8093 0000 		sts spaceRemainingCounter,r24
 18829               	.LM1893:
 18830 6ca0 8091 0000 		lds r24,spaceRemainingCounter
 18831 6ca4 8823      		tst r24
 18832 6ca6 01F4      		brne .L1036
 18833               	.LM1894:
 18834 6ca8 81E0      		ldi r24,lo8(1)
 18835 6caa 8093 0000 		sts okToGetRemainingSpace,r24
 18836               	.L1037:
 18837               	.LM1895:
 18838 6cae 8091 0000 		lds r24,okToGetRemainingSpace
 18839 6cb2 8823      		tst r24
 18840 6cb4 01F4      		brne .L1037
 18841               	.L1036:
 18842               	.LM1896:
 18843 6cb6 8091 0000 		lds r24,debounceEnabled
 18844 6cba 8823      		tst r24
 18845 6cbc 01F0      		breq .L1038
 18846               	.LM1897:
 18847 6cbe 8091 0000 		lds r24,debounceTimer
 18848 6cc2 8F5F      		subi r24,lo8(-(1))
 18849 6cc4 8093 0000 		sts debounceTimer,r24
 18850               	.LM1898:
 18851 6cc8 8091 0000 		lds r24,debounceTimer
 18852 6ccc 8B30      		cpi r24,lo8(11)
 18853 6cce 00F0      		brlo .L1038
 18854               	.LM1899:
 18855 6cd0 1092 0000 		sts debounceTimer,__zero_reg__
 18856               	.LM1900:
 18857 6cd4 1092 0000 		sts debounceEnabled,__zero_reg__
 18858               	.L1038:
 18859               	.LBB767:
 18860               	.LBB768:
 18861               	.LM1901:
 18862 6cd8 8091 0000 		lds r24,sdValid
 18863               	.LBE768:
 18864               	.LBE767:
 18865               	.LM1902:
 18866 6cdc 8823      		tst r24
 18867 6cde 01F4      		brne .L1039
 18868               	.LBB769:
 18869               	.LBB770:
 18870               	.LM1903:
 18871 6ce0 81E0      		ldi r24,lo8(1)
 18872 6ce2 8093 0000 		sts ledState,r24
 18873               	.LBE770:
 18874               	.LBE769:
 18875               	.LM1904:
 18876 6ce6 1092 0000 		sts recording,__zero_reg__
 18877 6cea 00C0      		rjmp .L1040
 18878               	.L1039:
 18879               	.LM1905:
 18880 6cec 8091 0000 		lds r24,timeIsValid
 18881 6cf0 8823      		tst r24
 18882 6cf2 01F4      		brne .L1041
 18883               	.LBB771:
 18884               	.LBB772:
 18885               	.LM1906:
 18886 6cf4 82E0      		ldi r24,lo8(2)
 18887 6cf6 00C0      		rjmp .L1060
 18888               	.L1041:
 18889               	.LBE772:
 18890               	.LBE771:
 18891               	.LM1907:
 18892 6cf8 8091 0000 		lds r24,batteryVoltageOk
 18893 6cfc 8823      		tst r24
 18894 6cfe 01F4      		brne .L1042
 18895               	.LBB773:
 18896               	.LBB774:
 18897               	.LM1908:
 18898 6d00 83E0      		ldi r24,lo8(3)
 18899               	.L1060:
 18900 6d02 8093 0000 		sts ledState,r24
 18901 6d06 00C0      		rjmp .L1040
 18902               	.L1042:
 18903               	.LBE774:
 18904               	.LBE773:
 18905               	.LBB775:
 18906               	.LBB776:
 18907 6d08 1092 0000 		sts ledState,__zero_reg__
 18908               	.L1040:
 18909               	.LBE776:
 18910               	.LBE775:
 18911               	.LM1909:
 18912 6d0c 8091 0000 		lds r24,recording
 18913 6d10 8823      		tst r24
 18914 6d12 01F0      		breq .L1043
 18915               	.LBB777:
 18916               	.LBB778:
 18917               	.LM1910:
 18918 6d14 81E0      		ldi r24,lo8(1)
 18919 6d16 00C0      		rjmp .L1061
 18920               	.L1043:
 18921               	.LBE778:
 18922               	.LBE777:
 18923               	.LM1911:
 18924 6d18 8091 0000 		lds r24,connected
 18925 6d1c 8823      		tst r24
 18926 6d1e 01F0      		breq .L1045
 18927               	.LBB779:
 18928               	.LBB780:
 18929               	.LM1912:
 18930 6d20 8091 A806 		lds r24,1704
 18931 6d24 83FF      		sbrs r24,3
 18932 6d26 00C0      		rjmp .L1046
 18933               	.L1045:
 18934               	.LBE780:
 18935               	.LBE779:
 18936               	.LBB781:
 18937               	.LBB782:
 18938 6d28 8091 A806 		lds r24,1704
 18939 6d2c 83FF      		sbrs r24,3
 18940 6d2e 00C0      		rjmp .L1047
 18941               	.LBE782:
 18942               	.LBE781:
 18943               	.LBB783:
 18944               	.LBB784:
 18945               	.LM1913:
 18946 6d30 83E0      		ldi r24,lo8(3)
 18947               	.L1061:
 18948 6d32 8093 0000 		sts ledState+1,r24
 18949               	.L1044:
 18950 6d36 20E0      		ldi r18,lo8(0)
 18951 6d38 30E0      		ldi r19,hi8(0)
 18952               	.LBE784:
 18953               	.LBE783:
 18954               	.LBB785:
 18955               	.LBB786:
 18956               	.LBB787:
 18957               	.LM1914:
 18958 6d3a 41E0      		ldi r20,lo8(1)
 18959 6d3c 50E0      		ldi r21,hi8(1)
 18960 6d3e C0EA      		ldi r28,lo8(1696)
 18961 6d40 D6E0      		ldi r29,hi8(1696)
 18962               	.L1052:
 18963               	.LBE787:
 18964               	.LBE786:
 18965               	.LM1915:
 18966 6d42 D901      		movw r26,r18
 18967 6d44 A050      		subi r26,lo8(-(ledCounter))
 18968 6d46 B040      		sbci r27,hi8(-(ledCounter))
 18969 6d48 8C91      		ld r24,X
 18970 6d4a 8F5F      		subi r24,lo8(-(1))
 18971 6d4c 8C93      		st X,r24
 18972               	.LM1916:
 18973 6d4e F901      		movw r30,r18
 18974 6d50 E050      		subi r30,lo8(-(ledState))
 18975 6d52 F040      		sbci r31,hi8(-(ledState))
 18976 6d54 8081      		ld r24,Z
 18977 6d56 8130      		cpi r24,lo8(1)
 18978 6d58 01F4      		brne .L1048
 18979               	.LBB789:
 18980               	.LBB790:
 18981               	.LM1917:
 18982 6d5a CA01      		movw r24,r20
 18983 6d5c 022E      		mov r0,r18
 18984 6d5e 00C0      		rjmp 2f
 18985 6d60 880F      	1:	lsl r24
 18986 6d62 991F      		rol r25
 18987 6d64 0A94      	2:	dec r0
 18988 6d66 02F4      		brpl 1b
 18989 6d68 8D83      		std Y+5,r24
 18990 6d6a 00C0      		rjmp .L1049
 18991               	.L1048:
 18992               	.LBE790:
 18993               	.LBE789:
 18994               	.LM1918:
 18995 6d6c 8081      		ld r24,Z
 18996 6d6e 8230      		cpi r24,lo8(2)
 18997 6d70 01F4      		brne .L1050
 18998               	.LM1919:
 18999 6d72 8C91      		ld r24,X
 19000 6d74 8B30      		cpi r24,lo8(11)
 19001 6d76 00F0      		brlo .L1049
 19002 6d78 00C0      		rjmp .L1062
 19003               	.L1050:
 19004               	.LM1920:
 19005 6d7a 8081      		ld r24,Z
 19006 6d7c 8330      		cpi r24,lo8(3)
 19007 6d7e 01F4      		brne .L1051
 19008               	.LM1921:
 19009 6d80 8C91      		ld r24,X
 19010 6d82 8330      		cpi r24,lo8(3)
 19011 6d84 00F0      		brlo .L1049
 19012               	.L1062:
 19013               	.LBB791:
 19014               	.LBB792:
 19015               	.LM1922:
 19016 6d86 CA01      		movw r24,r20
 19017 6d88 022E      		mov r0,r18
 19018 6d8a 00C0      		rjmp 2f
 19019 6d8c 880F      	1:	lsl r24
 19020 6d8e 991F      		rol r25
 19021 6d90 0A94      	2:	dec r0
 19022 6d92 02F4      		brpl 1b
 19023 6d94 8F83      		std Y+7,r24
 19024               	.LBE792:
 19025               	.LBE791:
 19026               	.LM1923:
 19027 6d96 1C92      		st X,__zero_reg__
 19028 6d98 00C0      		rjmp .L1049
 19029               	.L1051:
 19030               	.LBB793:
 19031               	.LBB788:
 19032               	.LM1924:
 19033 6d9a CA01      		movw r24,r20
 19034 6d9c 022E      		mov r0,r18
 19035 6d9e 00C0      		rjmp 2f
 19036 6da0 880F      	1:	lsl r24
 19037 6da2 991F      		rol r25
 19038 6da4 0A94      	2:	dec r0
 19039 6da6 02F4      		brpl 1b
 19040 6da8 8E83      		std Y+6,r24
 19041               	.L1049:
 19042 6daa 2F5F      		subi r18,lo8(-(1))
 19043 6dac 3F4F      		sbci r19,hi8(-(1))
 19044               	.LBE788:
 19045               	.LBE793:
 19046               	.LM1925:
 19047 6dae 2230      		cpi r18,2
 19048 6db0 3105      		cpc r19,__zero_reg__
 19049 6db2 01F4      		brne .L1052
 19050 6db4 00C0      		rjmp .L1063
 19051               	.L1046:
 19052               	.LBE785:
 19053               	.LBB794:
 19054               	.LBB795:
 19055               	.LM1926:
 19056 6db6 82E0      		ldi r24,lo8(2)
 19057 6db8 00C0      		rjmp .L1061
 19058               	.L1047:
 19059               	.LBE795:
 19060               	.LBE794:
 19061               	.LBB796:
 19062               	.LBB797:
 19063               	.LM1927:
 19064 6dba 1092 0000 		sts ledState+1,__zero_reg__
 19065 6dbe 00C0      		rjmp .L1044
 19066               	.L1063:
 19067               	/* epilogue start */
 19068               	.LBE797:
 19069               	.LBE796:
 19070               	.LM1928:
 19071 6dc0 FF91      		pop r31
 19072 6dc2 EF91      		pop r30
 19073 6dc4 DF91      		pop r29
 19074 6dc6 CF91      		pop r28
 19075 6dc8 BF91      		pop r27
 19076 6dca AF91      		pop r26
 19077 6dcc 9F91      		pop r25
 19078 6dce 8F91      		pop r24
 19079 6dd0 5F91      		pop r21
 19080 6dd2 4F91      		pop r20
 19081 6dd4 3F91      		pop r19
 19082 6dd6 2F91      		pop r18
 19083 6dd8 0F90      		pop r0
 19084 6dda 0BBE      		out 59-0,r0
 19085 6ddc 0F90      		pop r0
 19086 6dde 0FBE      		out __SREG__,r0
 19087 6de0 0F90      		pop r0
 19088 6de2 1F90      		pop __zero_reg__
 19089 6de4 1895      		reti
 19090               	.LFE148:
 19092               	.global	SD_BackroundWriter_Init
 19094               	SD_BackroundWriter_Init:
 19095               	.LFB149:
 19096               	.LM1929:
 19097               	/* prologue: function */
 19098               	/* frame size = 0 */
 19099               	.LM1930:
 19100 6de6 E0E4      		ldi r30,lo8(2624)
 19101 6de8 FAE0      		ldi r31,hi8(2624)
 19102 6dea 80E0      		ldi r24,lo8(2304)
 19103 6dec 99E0      		ldi r25,hi8(2304)
 19104 6dee 86A3      		std Z+38,r24
 19105 6df0 97A3      		std Z+39,r25
 19106               	.LM1931:
 19107 6df2 8081      		ld r24,Z
 19108 6df4 807F      		andi r24,lo8(-16)
 19109 6df6 8560      		ori r24,lo8(5)
 19110 6df8 8083      		st Z,r24
 19111               	.LM1932:
 19112 6dfa 8681      		ldd r24,Z+6
 19113 6dfc 8C7F      		andi r24,lo8(-4)
 19114 6dfe 8260      		ori r24,lo8(2)
 19115 6e00 8683      		std Z+6,r24
 19116               	/* epilogue start */
 19117               	.LM1933:
 19118 6e02 0895      		ret
 19119               	.LFE149:
 19121               	.global	SD_WriteRTCBlock
 19123               	SD_WriteRTCBlock:
 19124               	.LFB152:
 19125               	.LM1934:
 19126               	.LVL1476:
 19127 6e04 AF92      		push r10
 19128 6e06 BF92      		push r11
 19129 6e08 CF92      		push r12
 19130 6e0a DF92      		push r13
 19131 6e0c EF92      		push r14
 19132 6e0e FF92      		push r15
 19133 6e10 0F93      		push r16
 19134 6e12 1F93      		push r17
 19135               	/* prologue: function */
 19136               	/* frame size = 0 */
 19137 6e14 7B01      		movw r14,r22
 19138 6e16 8C01      		movw r16,r24
 19139 6e18 5901      		movw r10,r18
 19140 6e1a 6A01      		movw r12,r20
 19141               	.LBB798:
 19142               	.LBB799:
 19143               	.LM1935:
 19144 6e1c 8FEF      		ldi r24,lo8(-1)
 19145 6e1e 9FEF      		ldi r25,hi8(-1)
 19146 6e20 AFEF      		ldi r26,hlo8(-1)
 19147 6e22 BFEF      		ldi r27,hhi8(-1)
 19148 6e24 8093 0000 		sts CRC,r24
 19149 6e28 9093 0000 		sts (CRC)+1,r25
 19150 6e2c A093 0000 		sts (CRC)+2,r26
 19151 6e30 B093 0000 		sts (CRC)+3,r27
 19152               	.LBE799:
 19153               	.LBE798:
 19154               	.LM1936:
 19155 6e34 6CE4      		ldi r22,lo8(-1327598516)
 19156 6e36 74E7      		ldi r23,hi8(-1327598516)
 19157 6e38 8EED      		ldi r24,hlo8(-1327598516)
 19158 6e3a 90EB      		ldi r25,hhi8(-1327598516)
 19159               	.LVL1477:
 19160 6e3c 0E94 0000 		call SD_Write32
 19161               	.LVL1478:
 19162               	.LM1937:
 19163 6e40 6BE1      		ldi r22,lo8(27)
 19164 6e42 70E0      		ldi r23,hi8(27)
 19165 6e44 80E0      		ldi r24,hlo8(27)
 19166 6e46 90E0      		ldi r25,hhi8(27)
 19167 6e48 0E94 0000 		call SD_Write32
 19168               	.LM1938:
 19169 6e4c 82E0      		ldi r24,lo8(2)
 19170 6e4e 90E0      		ldi r25,hi8(2)
 19171 6e50 0E94 0000 		call SD_Write16
 19172               	.LM1939:
 19173 6e54 C801      		movw r24,r16
 19174 6e56 B701      		movw r22,r14
 19175 6e58 0E94 0000 		call SD_Write32
 19176               	.LM1940:
 19177 6e5c C601      		movw r24,r12
 19178 6e5e B501      		movw r22,r10
 19179 6e60 0E94 0000 		call SD_Write32
 19180               	.LM1941:
 19181 6e64 80E0      		ldi r24,lo8(0)
 19182 6e66 0E94 0000 		call SD_Write8
 19183               	.LM1942:
 19184 6e6a 60E0      		ldi r22,lo8(0)
 19185 6e6c 70E0      		ldi r23,hi8(0)
 19186 6e6e 80E0      		ldi r24,hlo8(0)
 19187 6e70 90E0      		ldi r25,hhi8(0)
 19188 6e72 0E94 0000 		call SD_Write32
 19189               	.LM1943:
 19190 6e76 0E94 0000 		call SD_WriteCRC
 19191               	.LM1944:
 19192 6e7a 80E0      		ldi r24,lo8(Log_File)
 19193 6e7c 90E0      		ldi r25,hi8(Log_File)
 19194 6e7e 0E94 0000 		call f_sync
 19195 6e82 8823      		tst r24
 19196 6e84 01F0      		breq .L1068
 19197               	.LM1945:
 19198 6e86 1092 0000 		sts sdValid,__zero_reg__
 19199               	.L1068:
 19200               	/* epilogue start */
 19201               	.LM1946:
 19202 6e8a 1F91      		pop r17
 19203 6e8c 0F91      		pop r16
 19204 6e8e FF90      		pop r15
 19205 6e90 EF90      		pop r14
 19206               	.LVL1479:
 19207 6e92 DF90      		pop r13
 19208 6e94 CF90      		pop r12
 19209 6e96 BF90      		pop r11
 19210 6e98 AF90      		pop r10
 19211               	.LVL1480:
 19212 6e9a 0895      		ret
 19213               	.LFE152:
 19215               	.global	getDeviceID
 19217               	getDeviceID:
 19218               	.LFB158:
 19219               	.LM1947:
 19220 6e9c BF92      		push r11
 19221 6e9e CF92      		push r12
 19222 6ea0 DF92      		push r13
 19223 6ea2 EF92      		push r14
 19224 6ea4 FF92      		push r15
 19225 6ea6 0F93      		push r16
 19226 6ea8 1F93      		push r17
 19227 6eaa DF93      		push r29
 19228 6eac CF93      		push r28
 19229 6eae CDB7      		in r28,__SP_L__
 19230 6eb0 DEB7      		in r29,__SP_H__
 19231 6eb2 2597      		sbiw r28,5
 19232 6eb4 CDBF      		out __SP_L__,r28
 19233 6eb6 DEBF      		out __SP_H__,r29
 19234               	/* prologue: function */
 19235               	/* frame size = 5 */
 19236               	.LBB800:
 19237               	.LBB801:
 19238               	.LM1948:
 19239 6eb8 0AEC      		ldi r16,lo8(458)
 19240 6eba 11E0      		ldi r17,hi8(458)
 19241 6ebc B2E0      		ldi r27,lo8(2)
 19242 6ebe BB2E      		mov r11,r27
 19243 6ec0 D801      		movw r26,r16
 19244 6ec2 BC92      		st X,r11
 19245               	.LBB802:
 19246               	.LM1949:
 19247 6ec4 E8E0      		ldi r30,lo8(8)
 19248 6ec6 F0E0      		ldi r31,hi8(8)
 19249               	/* #APP */
 19250               	 ;  264 "sensorsCS.c" 1
 19251 6ec8 E491      		lpm r30, Z
 19252               		
 19253               	 ;  0 "" 2
 19254               	.LVL1481:
 19255               	/* #NOAPP */
 19256               	.LBE802:
 19257               	.LM1950:
 19258 6eca 1C92      		st X,__zero_reg__
 19259               	.LBE801:
 19260               	.LBE800:
 19261               	.LM1951:
 19262 6ecc 8E2F      		mov r24,r30
 19263 6ece 90E0      		ldi r25,lo8(0)
 19264 6ed0 6E01      		movw r12,r28
 19265 6ed2 0894      		sec
 19266 6ed4 C11C      		adc r12,__zero_reg__
 19267 6ed6 D11C      		adc r13,__zero_reg__
 19268 6ed8 B601      		movw r22,r12
 19269 6eda 40E1      		ldi r20,lo8(16)
 19270 6edc 50E0      		ldi r21,hi8(16)
 19271 6ede 0E94 0000 		call itoa
 19272               	.LVL1482:
 19273 6ee2 BC01      		movw r22,r24
 19274 6ee4 A0E0      		ldi r26,lo8(deviceID)
 19275 6ee6 EA2E      		mov r14,r26
 19276 6ee8 A0E0      		ldi r26,hi8(deviceID)
 19277 6eea FA2E      		mov r15,r26
 19278 6eec C701      		movw r24,r14
 19279 6eee 0E94 0000 		call strcpy
 19280               	.LBB803:
 19281               	.LBB804:
 19282               	.LM1952:
 19283 6ef2 F801      		movw r30,r16
 19284 6ef4 B082      		st Z,r11
 19285               	.LBB805:
 19286               	.LM1953:
 19287 6ef6 E9E0      		ldi r30,lo8(9)
 19288 6ef8 F0E0      		ldi r31,hi8(9)
 19289               	/* #APP */
 19290               	 ;  264 "sensorsCS.c" 1
 19291 6efa E491      		lpm r30, Z
 19292               		
 19293               	 ;  0 "" 2
 19294               	.LVL1483:
 19295               	/* #NOAPP */
 19296               	.LBE805:
 19297               	.LM1954:
 19298 6efc D801      		movw r26,r16
 19299 6efe 1C92      		st X,__zero_reg__
 19300               	.LBE804:
 19301               	.LBE803:
 19302               	.LM1955:
 19303 6f00 8E2F      		mov r24,r30
 19304 6f02 90E0      		ldi r25,lo8(0)
 19305 6f04 B601      		movw r22,r12
 19306 6f06 40E1      		ldi r20,lo8(16)
 19307 6f08 50E0      		ldi r21,hi8(16)
 19308 6f0a 0E94 0000 		call itoa
 19309               	.LVL1484:
 19310 6f0e BC01      		movw r22,r24
 19311 6f10 C701      		movw r24,r14
 19312 6f12 0E94 0000 		call strcat
 19313               	.LBB806:
 19314               	.LBB807:
 19315               	.LM1956:
 19316 6f16 F801      		movw r30,r16
 19317 6f18 B082      		st Z,r11
 19318               	.LBB808:
 19319               	.LM1957:
 19320 6f1a EAE0      		ldi r30,lo8(10)
 19321 6f1c F0E0      		ldi r31,hi8(10)
 19322               	/* #APP */
 19323               	 ;  264 "sensorsCS.c" 1
 19324 6f1e E491      		lpm r30, Z
 19325               		
 19326               	 ;  0 "" 2
 19327               	.LVL1485:
 19328               	/* #NOAPP */
 19329               	.LBE808:
 19330               	.LM1958:
 19331 6f20 D801      		movw r26,r16
 19332 6f22 1C92      		st X,__zero_reg__
 19333               	.LBE807:
 19334               	.LBE806:
 19335               	.LM1959:
 19336 6f24 8E2F      		mov r24,r30
 19337 6f26 90E0      		ldi r25,lo8(0)
 19338 6f28 B601      		movw r22,r12
 19339 6f2a 40E1      		ldi r20,lo8(16)
 19340 6f2c 50E0      		ldi r21,hi8(16)
 19341 6f2e 0E94 0000 		call itoa
 19342               	.LVL1486:
 19343 6f32 BC01      		movw r22,r24
 19344 6f34 C701      		movw r24,r14
 19345 6f36 0E94 0000 		call strcat
 19346               	.LBB809:
 19347               	.LBB810:
 19348               	.LM1960:
 19349 6f3a F801      		movw r30,r16
 19350 6f3c B082      		st Z,r11
 19351               	.LBB811:
 19352               	.LM1961:
 19353 6f3e EBE0      		ldi r30,lo8(11)
 19354 6f40 F0E0      		ldi r31,hi8(11)
 19355               	/* #APP */
 19356               	 ;  264 "sensorsCS.c" 1
 19357 6f42 E491      		lpm r30, Z
 19358               		
 19359               	 ;  0 "" 2
 19360               	.LVL1487:
 19361               	/* #NOAPP */
 19362               	.LBE811:
 19363               	.LM1962:
 19364 6f44 D801      		movw r26,r16
 19365 6f46 1C92      		st X,__zero_reg__
 19366               	.LBE810:
 19367               	.LBE809:
 19368               	.LM1963:
 19369 6f48 8E2F      		mov r24,r30
 19370 6f4a 90E0      		ldi r25,lo8(0)
 19371 6f4c B601      		movw r22,r12
 19372 6f4e 40E1      		ldi r20,lo8(16)
 19373 6f50 50E0      		ldi r21,hi8(16)
 19374 6f52 0E94 0000 		call itoa
 19375               	.LVL1488:
 19376 6f56 BC01      		movw r22,r24
 19377 6f58 C701      		movw r24,r14
 19378 6f5a 0E94 0000 		call strcat
 19379               	.LBB812:
 19380               	.LBB813:
 19381               	.LM1964:
 19382 6f5e F801      		movw r30,r16
 19383 6f60 B082      		st Z,r11
 19384               	.LBB814:
 19385               	.LM1965:
 19386 6f62 ECE0      		ldi r30,lo8(12)
 19387 6f64 F0E0      		ldi r31,hi8(12)
 19388               	/* #APP */
 19389               	 ;  264 "sensorsCS.c" 1
 19390 6f66 E491      		lpm r30, Z
 19391               		
 19392               	 ;  0 "" 2
 19393               	.LVL1489:
 19394               	/* #NOAPP */
 19395               	.LBE814:
 19396               	.LM1966:
 19397 6f68 D801      		movw r26,r16
 19398 6f6a 1C92      		st X,__zero_reg__
 19399               	.LBE813:
 19400               	.LBE812:
 19401               	.LM1967:
 19402 6f6c 8E2F      		mov r24,r30
 19403 6f6e 90E0      		ldi r25,lo8(0)
 19404 6f70 B601      		movw r22,r12
 19405 6f72 40E1      		ldi r20,lo8(16)
 19406 6f74 50E0      		ldi r21,hi8(16)
 19407 6f76 0E94 0000 		call itoa
 19408               	.LVL1490:
 19409 6f7a BC01      		movw r22,r24
 19410 6f7c C701      		movw r24,r14
 19411 6f7e 0E94 0000 		call strcat
 19412               	.LBB815:
 19413               	.LBB816:
 19414               	.LM1968:
 19415 6f82 F801      		movw r30,r16
 19416 6f84 B082      		st Z,r11
 19417               	.LBB817:
 19418               	.LM1969:
 19419 6f86 EDE0      		ldi r30,lo8(13)
 19420 6f88 F0E0      		ldi r31,hi8(13)
 19421               	/* #APP */
 19422               	 ;  264 "sensorsCS.c" 1
 19423 6f8a E491      		lpm r30, Z
 19424               		
 19425               	 ;  0 "" 2
 19426               	.LVL1491:
 19427               	/* #NOAPP */
 19428               	.LBE817:
 19429               	.LM1970:
 19430 6f8c D801      		movw r26,r16
 19431 6f8e 1C92      		st X,__zero_reg__
 19432               	.LBE816:
 19433               	.LBE815:
 19434               	.LM1971:
 19435 6f90 8E2F      		mov r24,r30
 19436 6f92 90E0      		ldi r25,lo8(0)
 19437 6f94 B601      		movw r22,r12
 19438 6f96 40E1      		ldi r20,lo8(16)
 19439 6f98 50E0      		ldi r21,hi8(16)
 19440 6f9a 0E94 0000 		call itoa
 19441               	.LVL1492:
 19442 6f9e BC01      		movw r22,r24
 19443 6fa0 C701      		movw r24,r14
 19444 6fa2 0E94 0000 		call strcat
 19445               	.LBB818:
 19446               	.LBB819:
 19447               	.LM1972:
 19448 6fa6 F801      		movw r30,r16
 19449 6fa8 B082      		st Z,r11
 19450               	.LBB820:
 19451               	.LM1973:
 19452 6faa E0E1      		ldi r30,lo8(16)
 19453 6fac F0E0      		ldi r31,hi8(16)
 19454               	/* #APP */
 19455               	 ;  264 "sensorsCS.c" 1
 19456 6fae E491      		lpm r30, Z
 19457               		
 19458               	 ;  0 "" 2
 19459               	.LVL1493:
 19460               	/* #NOAPP */
 19461               	.LBE820:
 19462               	.LM1974:
 19463 6fb0 D801      		movw r26,r16
 19464 6fb2 1C92      		st X,__zero_reg__
 19465               	.LBE819:
 19466               	.LBE818:
 19467               	.LM1975:
 19468 6fb4 8E2F      		mov r24,r30
 19469 6fb6 90E0      		ldi r25,lo8(0)
 19470 6fb8 B601      		movw r22,r12
 19471 6fba 40E1      		ldi r20,lo8(16)
 19472 6fbc 50E0      		ldi r21,hi8(16)
 19473 6fbe 0E94 0000 		call itoa
 19474               	.LVL1494:
 19475 6fc2 BC01      		movw r22,r24
 19476 6fc4 C701      		movw r24,r14
 19477 6fc6 0E94 0000 		call strcat
 19478               	.LBB821:
 19479               	.LBB822:
 19480               	.LM1976:
 19481 6fca F801      		movw r30,r16
 19482 6fcc B082      		st Z,r11
 19483               	.LBB823:
 19484               	.LM1977:
 19485 6fce E2E1      		ldi r30,lo8(18)
 19486 6fd0 F0E0      		ldi r31,hi8(18)
 19487               	/* #APP */
 19488               	 ;  264 "sensorsCS.c" 1
 19489 6fd2 E491      		lpm r30, Z
 19490               		
 19491               	 ;  0 "" 2
 19492               	.LVL1495:
 19493               	/* #NOAPP */
 19494               	.LBE823:
 19495               	.LM1978:
 19496 6fd4 D801      		movw r26,r16
 19497 6fd6 1C92      		st X,__zero_reg__
 19498               	.LBE822:
 19499               	.LBE821:
 19500               	.LM1979:
 19501 6fd8 8E2F      		mov r24,r30
 19502 6fda 90E0      		ldi r25,lo8(0)
 19503 6fdc B601      		movw r22,r12
 19504 6fde 40E1      		ldi r20,lo8(16)
 19505 6fe0 50E0      		ldi r21,hi8(16)
 19506 6fe2 0E94 0000 		call itoa
 19507               	.LVL1496:
 19508 6fe6 BC01      		movw r22,r24
 19509 6fe8 C701      		movw r24,r14
 19510 6fea 0E94 0000 		call strcat
 19511               	.LBB824:
 19512               	.LBB825:
 19513               	.LM1980:
 19514 6fee F801      		movw r30,r16
 19515 6ff0 B082      		st Z,r11
 19516               	.LBB826:
 19517               	.LM1981:
 19518 6ff2 E3E1      		ldi r30,lo8(19)
 19519 6ff4 F0E0      		ldi r31,hi8(19)
 19520               	/* #APP */
 19521               	 ;  264 "sensorsCS.c" 1
 19522 6ff6 E491      		lpm r30, Z
 19523               		
 19524               	 ;  0 "" 2
 19525               	.LVL1497:
 19526               	/* #NOAPP */
 19527               	.LBE826:
 19528               	.LM1982:
 19529 6ff8 D801      		movw r26,r16
 19530 6ffa 1C92      		st X,__zero_reg__
 19531               	.LBE825:
 19532               	.LBE824:
 19533               	.LM1983:
 19534 6ffc 8E2F      		mov r24,r30
 19535 6ffe 90E0      		ldi r25,lo8(0)
 19536 7000 B601      		movw r22,r12
 19537 7002 40E1      		ldi r20,lo8(16)
 19538 7004 50E0      		ldi r21,hi8(16)
 19539 7006 0E94 0000 		call itoa
 19540               	.LVL1498:
 19541 700a BC01      		movw r22,r24
 19542 700c C701      		movw r24,r14
 19543 700e 0E94 0000 		call strcat
 19544               	.LBB827:
 19545               	.LBB828:
 19546               	.LM1984:
 19547 7012 F801      		movw r30,r16
 19548 7014 B082      		st Z,r11
 19549               	.LBB829:
 19550               	.LM1985:
 19551 7016 E4E1      		ldi r30,lo8(20)
 19552 7018 F0E0      		ldi r31,hi8(20)
 19553               	/* #APP */
 19554               	 ;  264 "sensorsCS.c" 1
 19555 701a E491      		lpm r30, Z
 19556               		
 19557               	 ;  0 "" 2
 19558               	.LVL1499:
 19559               	/* #NOAPP */
 19560               	.LBE829:
 19561               	.LM1986:
 19562 701c D801      		movw r26,r16
 19563 701e 1C92      		st X,__zero_reg__
 19564               	.LBE828:
 19565               	.LBE827:
 19566               	.LM1987:
 19567 7020 8E2F      		mov r24,r30
 19568 7022 90E0      		ldi r25,lo8(0)
 19569 7024 B601      		movw r22,r12
 19570 7026 40E1      		ldi r20,lo8(16)
 19571 7028 50E0      		ldi r21,hi8(16)
 19572 702a 0E94 0000 		call itoa
 19573               	.LVL1500:
 19574 702e BC01      		movw r22,r24
 19575 7030 C701      		movw r24,r14
 19576 7032 0E94 0000 		call strcat
 19577               	.LBB830:
 19578               	.LBB831:
 19579               	.LM1988:
 19580 7036 F801      		movw r30,r16
 19581 7038 B082      		st Z,r11
 19582               	.LBB832:
 19583               	.LM1989:
 19584 703a E5E1      		ldi r30,lo8(21)
 19585 703c F0E0      		ldi r31,hi8(21)
 19586               	/* #APP */
 19587               	 ;  264 "sensorsCS.c" 1
 19588 703e E491      		lpm r30, Z
 19589               		
 19590               	 ;  0 "" 2
 19591               	.LVL1501:
 19592               	/* #NOAPP */
 19593               	.LBE832:
 19594               	.LM1990:
 19595 7040 D801      		movw r26,r16
 19596 7042 1C92      		st X,__zero_reg__
 19597               	.LBE831:
 19598               	.LBE830:
 19599               	.LM1991:
 19600 7044 8E2F      		mov r24,r30
 19601 7046 90E0      		ldi r25,lo8(0)
 19602 7048 B601      		movw r22,r12
 19603 704a 40E1      		ldi r20,lo8(16)
 19604 704c 50E0      		ldi r21,hi8(16)
 19605 704e 0E94 0000 		call itoa
 19606               	.LVL1502:
 19607 7052 BC01      		movw r22,r24
 19608 7054 C701      		movw r24,r14
 19609 7056 0E94 0000 		call strcat
 19610               	/* epilogue start */
 19611               	.LM1992:
 19612 705a 2596      		adiw r28,5
 19613 705c CDBF      		out __SP_L__,r28
 19614 705e DEBF      		out __SP_H__,r29
 19615 7060 CF91      		pop r28
 19616 7062 DF91      		pop r29
 19617 7064 1F91      		pop r17
 19618 7066 0F91      		pop r16
 19619 7068 FF90      		pop r15
 19620 706a EF90      		pop r14
 19621 706c DF90      		pop r13
 19622 706e CF90      		pop r12
 19623 7070 BF90      		pop r11
 19624 7072 0895      		ret
 19625               	.LFE158:
 19627               	.global	SD_WriteString
 19629               	SD_WriteString:
 19630               	.LFB94:
 19631               	.LM1993:
 19632               	.LVL1503:
 19633 7074 EF92      		push r14
 19634 7076 FF92      		push r15
 19635 7078 0F93      		push r16
 19636 707a 1F93      		push r17
 19637 707c CF93      		push r28
 19638 707e DF93      		push r29
 19639               	/* prologue: function */
 19640               	/* frame size = 0 */
 19641 7080 EC01      		movw r28,r24
 19642               	.LM1994:
 19643 7082 60E0      		ldi r22,lo8(Log_File)
 19644 7084 70E0      		ldi r23,hi8(Log_File)
 19645 7086 0E94 0000 		call f_puts
 19646               	.LVL1504:
 19647 708a 60E0      		ldi r22,lo8(0)
 19648 708c 70E0      		ldi r23,hi8(0)
 19649               	.LVL1505:
 19650 708e 00C0      		rjmp .L1072
 19651               	.L1073:
 19652               	.LBB833:
 19653               	.LM1995:
 19654 7090 E090 0000 		lds r14,CRC
 19655 7094 F090 0000 		lds r15,(CRC)+1
 19656 7098 0091 0000 		lds r16,(CRC)+2
 19657 709c 1091 0000 		lds r17,(CRC)+3
 19658 70a0 2091 0000 		lds r18,CRC
 19659 70a4 3091 0000 		lds r19,(CRC)+1
 19660 70a8 4091 0000 		lds r20,(CRC)+2
 19661 70ac 5091 0000 		lds r21,(CRC)+3
 19662 70b0 3070      		andi r19,hi8(255)
 19663 70b2 4070      		andi r20,hlo8(255)
 19664 70b4 5070      		andi r21,hhi8(255)
 19665 70b6 FE01      		movw r30,r28
 19666 70b8 E60F      		add r30,r22
 19667 70ba F71F      		adc r31,r23
 19668 70bc 8081      		ld r24,Z
 19669 70be 90E0      		ldi r25,lo8(0)
 19670 70c0 A0E0      		ldi r26,lo8(0)
 19671 70c2 B0E0      		ldi r27,hi8(0)
 19672 70c4 2827      		eor r18,r24
 19673 70c6 3927      		eor r19,r25
 19674 70c8 4A27      		eor r20,r26
 19675 70ca 5B27      		eor r21,r27
 19676 70cc 220F      		lsl r18
 19677 70ce 331F      		rol r19
 19678 70d0 220F      		lsl r18
 19679 70d2 331F      		rol r19
 19680 70d4 2050      		subi r18,lo8(-(crc_table))
 19681 70d6 3040      		sbci r19,hi8(-(crc_table))
 19682 70d8 EF2C      		mov r14,r15
 19683 70da F02E      		mov r15,r16
 19684 70dc 012F      		mov r16,r17
 19685 70de 1127      		clr r17
 19686 70e0 F901      		movw r30,r18
 19687 70e2 8081      		ld r24,Z
 19688 70e4 9181      		ldd r25,Z+1
 19689 70e6 A281      		ldd r26,Z+2
 19690 70e8 B381      		ldd r27,Z+3
 19691 70ea E826      		eor r14,r24
 19692 70ec F926      		eor r15,r25
 19693 70ee 0A27      		eor r16,r26
 19694 70f0 1B27      		eor r17,r27
 19695 70f2 E092 0000 		sts CRC,r14
 19696 70f6 F092 0000 		sts (CRC)+1,r15
 19697 70fa 0093 0000 		sts (CRC)+2,r16
 19698 70fe 1093 0000 		sts (CRC)+3,r17
 19699               	.LM1996:
 19700 7102 6F5F      		subi r22,lo8(-(1))
 19701 7104 7F4F      		sbci r23,hi8(-(1))
 19702               	.L1072:
 19703 7106 FE01      		movw r30,r28
 19704 7108 0190      		ld __tmp_reg__,Z+
 19705 710a 0020      		tst __tmp_reg__
 19706 710c 01F4      		brne .-6
 19707 710e 3197      		sbiw r30,1
 19708 7110 EC1B      		sub r30,r28
 19709 7112 FD0B      		sbc r31,r29
 19710 7114 6E17      		cp r22,r30
 19711 7116 7F07      		cpc r23,r31
 19712 7118 00F4      		brsh .+2
 19713 711a 00C0      		rjmp .L1073
 19714               	/* epilogue start */
 19715               	.LBE833:
 19716               	.LM1997:
 19717 711c DF91      		pop r29
 19718 711e CF91      		pop r28
 19719               	.LVL1506:
 19720 7120 1F91      		pop r17
 19721 7122 0F91      		pop r16
 19722 7124 FF90      		pop r15
 19723 7126 EF90      		pop r14
 19724 7128 0895      		ret
 19725               	.LFE94:
 19727               		.data
 19728               	.LC4:
 19729 0036 4163 6365 		.string	"Accel_X"
 19729      6C5F 5800 
 19730               	.LC5:
 19731 003e 3136 00   		.string	"16"
 19732               	.LC6:
 19733 0041 4163 6365 		.string	"Accel_Y"
 19733      6C5F 5900 
 19734               	.LC7:
 19735 0049 4163 6365 		.string	"Accel_Z"
 19735      6C5F 5A00 
 19736               		.text
 19737               	.global	SD_WriteAccelBuffer
 19739               	SD_WriteAccelBuffer:
 19740               	.LFB157:
 19741               	.LM1998:
 19742               	.LVL1507:
 19743 712a EF92      		push r14
 19744 712c FF92      		push r15
 19745 712e 0F93      		push r16
 19746 7130 1F93      		push r17
 19747 7132 CF93      		push r28
 19748 7134 DF93      		push r29
 19749               	/* prologue: function */
 19750               	/* frame size = 0 */
 19751 7136 082F      		mov r16,r24
 19752               	.LBB834:
 19753               	.LBB835:
 19754               	.LM1999:
 19755 7138 8FEF      		ldi r24,lo8(-1)
 19756 713a 9FEF      		ldi r25,hi8(-1)
 19757 713c AFEF      		ldi r26,hlo8(-1)
 19758 713e BFEF      		ldi r27,hhi8(-1)
 19759               	.LVL1508:
 19760 7140 8093 0000 		sts CRC,r24
 19761 7144 9093 0000 		sts (CRC)+1,r25
 19762 7148 A093 0000 		sts (CRC)+2,r26
 19763 714c B093 0000 		sts (CRC)+3,r27
 19764               	.LBE835:
 19765               	.LBE834:
 19766               	.LM2000:
 19767 7150 6CE4      		ldi r22,lo8(-1327598516)
 19768 7152 74E7      		ldi r23,hi8(-1327598516)
 19769 7154 8EED      		ldi r24,hlo8(-1327598516)
 19770 7156 90EB      		ldi r25,hhi8(-1327598516)
 19771 7158 0E94 0000 		call SD_Write32
 19772               	.LM2001:
 19773 715c 64E4      		ldi r22,lo8(1860)
 19774 715e 77E0      		ldi r23,hi8(1860)
 19775 7160 80E0      		ldi r24,hlo8(1860)
 19776 7162 90E0      		ldi r25,hhi8(1860)
 19777 7164 0E94 0000 		call SD_Write32
 19778               	.LM2002:
 19779 7168 83E0      		ldi r24,lo8(3)
 19780 716a 90E0      		ldi r25,hi8(3)
 19781 716c 0E94 0000 		call SD_Write16
 19782               	.LM2003:
 19783 7170 10E0      		ldi r17,lo8(0)
 19784 7172 F801      		movw r30,r16
 19785               	.LVL1509:
 19786 7174 EE0F      		lsl r30
 19787 7176 FF1F      		rol r31
 19788 7178 EE0F      		lsl r30
 19789 717a FF1F      		rol r31
 19790 717c E050      		subi r30,lo8(-(accelSampleStartTime))
 19791 717e F040      		sbci r31,hi8(-(accelSampleStartTime))
 19792 7180 6081      		ld r22,Z
 19793 7182 7181      		ldd r23,Z+1
 19794 7184 8281      		ldd r24,Z+2
 19795 7186 9381      		ldd r25,Z+3
 19796 7188 0E94 0000 		call SD_Write32
 19797               	.LM2004:
 19798 718c 60E8      		ldi r22,lo8(5760)
 19799 718e 76E1      		ldi r23,hi8(5760)
 19800 7190 80E0      		ldi r24,hlo8(5760)
 19801 7192 90E0      		ldi r25,hhi8(5760)
 19802 7194 0E94 0000 		call SD_Write32
 19803               	.LM2005:
 19804 7198 6CE2      		ldi r22,lo8(300)
 19805 719a 71E0      		ldi r23,hi8(300)
 19806 719c 80E0      		ldi r24,hlo8(300)
 19807 719e 90E0      		ldi r25,hhi8(300)
 19808 71a0 0E94 0000 		call SD_Write32
 19809               	.LM2006:
 19810 71a4 80E0      		ldi r24,lo8(.LC4)
 19811 71a6 90E0      		ldi r25,hi8(.LC4)
 19812 71a8 0E94 0000 		call SD_WriteString
 19813               	.LM2007:
 19814 71ac 89E0      		ldi r24,lo8(9)
 19815 71ae 0E94 0000 		call SD_Write8
 19816               	.LM2008:
 19817 71b2 80E0      		ldi r24,lo8(.LC5)
 19818 71b4 90E0      		ldi r25,hi8(.LC5)
 19819 71b6 0E94 0000 		call SD_WriteString
 19820               	.LM2009:
 19821 71ba 8AE0      		ldi r24,lo8(10)
 19822 71bc 0E94 0000 		call SD_Write8
 19823               	.LM2010:
 19824 71c0 80E0      		ldi r24,lo8(.LC6)
 19825 71c2 90E0      		ldi r25,hi8(.LC6)
 19826 71c4 0E94 0000 		call SD_WriteString
 19827               	.LM2011:
 19828 71c8 89E0      		ldi r24,lo8(9)
 19829 71ca 0E94 0000 		call SD_Write8
 19830               	.LM2012:
 19831 71ce 80E0      		ldi r24,lo8(.LC5)
 19832 71d0 90E0      		ldi r25,hi8(.LC5)
 19833 71d2 0E94 0000 		call SD_WriteString
 19834               	.LM2013:
 19835 71d6 8AE0      		ldi r24,lo8(10)
 19836 71d8 0E94 0000 		call SD_Write8
 19837               	.LM2014:
 19838 71dc 80E0      		ldi r24,lo8(.LC7)
 19839 71de 90E0      		ldi r25,hi8(.LC7)
 19840 71e0 0E94 0000 		call SD_WriteString
 19841               	.LM2015:
 19842 71e4 89E0      		ldi r24,lo8(9)
 19843 71e6 0E94 0000 		call SD_Write8
 19844               	.LM2016:
 19845 71ea 80E0      		ldi r24,lo8(.LC5)
 19846 71ec 90E0      		ldi r25,hi8(.LC5)
 19847 71ee 0E94 0000 		call SD_WriteString
 19848               	.LM2017:
 19849 71f2 8AE0      		ldi r24,lo8(10)
 19850 71f4 0E94 0000 		call SD_Write8
 19851               	.LM2018:
 19852 71f8 80E0      		ldi r24,lo8(0)
 19853 71fa 0E94 0000 		call SD_Write8
 19854 71fe 88E0      		ldi r24,lo8(1800)
 19855 7200 97E0      		ldi r25,hi8(1800)
 19856 7202 089F      		mul r16,r24
 19857 7204 7001      		movw r14,r0
 19858 7206 099F      		mul r16,r25
 19859 7208 F00C      		add r15,r0
 19860 720a 189F      		mul r17,r24
 19861 720c F00C      		add r15,r0
 19862 720e 1124      		clr r1
 19863 7210 80E0      		ldi r24,lo8(accelBuffer)
 19864 7212 90E0      		ldi r25,hi8(accelBuffer)
 19865 7214 E80E      		add r14,r24
 19866 7216 F91E      		adc r15,r25
 19867 7218 C0E0      		ldi r28,lo8(0)
 19868 721a D0E0      		ldi r29,hi8(0)
 19869               	.LVL1510:
 19870               	.L1076:
 19871               	.LBB836:
 19872               	.LM2019:
 19873 721c F701      		movw r30,r14
 19874 721e 8191      		ld r24,Z+
 19875 7220 9191      		ld r25,Z+
 19876 7222 7F01      		movw r14,r30
 19877 7224 0E94 0000 		call SD_Write16
 19878               	.LM2020:
 19879 7228 2196      		adiw r28,1
 19880 722a F3E0      		ldi r31,hi8(900)
 19881 722c C438      		cpi r28,lo8(900)
 19882 722e DF07      		cpc r29,r31
 19883 7230 01F4      		brne .L1076
 19884               	.LBE836:
 19885               	.LM2021:
 19886 7232 0E94 0000 		call SD_WriteCRC
 19887               	.LM2022:
 19888 7236 80E0      		ldi r24,lo8(Log_File)
 19889 7238 90E0      		ldi r25,hi8(Log_File)
 19890 723a 0E94 0000 		call f_sync
 19891 723e 8823      		tst r24
 19892 7240 01F0      		breq .L1078
 19893               	.LM2023:
 19894 7242 1092 0000 		sts sdValid,__zero_reg__
 19895               	.L1078:
 19896               	/* epilogue start */
 19897               	.LM2024:
 19898 7246 DF91      		pop r29
 19899 7248 CF91      		pop r28
 19900               	.LVL1511:
 19901 724a 1F91      		pop r17
 19902 724c 0F91      		pop r16
 19903 724e FF90      		pop r15
 19904 7250 EF90      		pop r14
 19905 7252 0895      		ret
 19906               	.LFE157:
 19908               		.data
 19909               	.LC8:
 19910 0051 454B 4700 		.string	"EKG"
 19911               		.text
 19912               	.global	SD_WriteEKGBuffer
 19914               	SD_WriteEKGBuffer:
 19915               	.LFB156:
 19916               	.LM2025:
 19917               	.LVL1512:
 19918 7254 EF92      		push r14
 19919 7256 FF92      		push r15
 19920 7258 0F93      		push r16
 19921 725a 1F93      		push r17
 19922 725c CF93      		push r28
 19923 725e DF93      		push r29
 19924               	/* prologue: function */
 19925               	/* frame size = 0 */
 19926 7260 082F      		mov r16,r24
 19927               	.LBB837:
 19928               	.LBB838:
 19929               	.LM2026:
 19930 7262 8FEF      		ldi r24,lo8(-1)
 19931 7264 9FEF      		ldi r25,hi8(-1)
 19932 7266 AFEF      		ldi r26,hlo8(-1)
 19933 7268 BFEF      		ldi r27,hhi8(-1)
 19934               	.LVL1513:
 19935 726a 8093 0000 		sts CRC,r24
 19936 726e 9093 0000 		sts (CRC)+1,r25
 19937 7272 A093 0000 		sts (CRC)+2,r26
 19938 7276 B093 0000 		sts (CRC)+3,r27
 19939               	.LBE838:
 19940               	.LBE837:
 19941               	.LM2027:
 19942 727a 6CE4      		ldi r22,lo8(-1327598516)
 19943 727c 74E7      		ldi r23,hi8(-1327598516)
 19944 727e 8EED      		ldi r24,hlo8(-1327598516)
 19945 7280 90EB      		ldi r25,hhi8(-1327598516)
 19946 7282 0E94 0000 		call SD_Write32
 19947               	.LM2028:
 19948 7286 6AE7      		ldi r22,lo8(634)
 19949 7288 72E0      		ldi r23,hi8(634)
 19950 728a 80E0      		ldi r24,hlo8(634)
 19951 728c 90E0      		ldi r25,hhi8(634)
 19952 728e 0E94 0000 		call SD_Write32
 19953               	.LM2029:
 19954 7292 83E0      		ldi r24,lo8(3)
 19955 7294 90E0      		ldi r25,hi8(3)
 19956 7296 0E94 0000 		call SD_Write16
 19957               	.LM2030:
 19958 729a 10E0      		ldi r17,lo8(0)
 19959 729c F801      		movw r30,r16
 19960               	.LVL1514:
 19961 729e EE0F      		lsl r30
 19962 72a0 FF1F      		rol r31
 19963 72a2 EE0F      		lsl r30
 19964 72a4 FF1F      		rol r31
 19965 72a6 E050      		subi r30,lo8(-(EKGSampleStartTime))
 19966 72a8 F040      		sbci r31,hi8(-(EKGSampleStartTime))
 19967 72aa 6081      		ld r22,Z
 19968 72ac 7181      		ldd r23,Z+1
 19969 72ae 8281      		ldd r24,Z+2
 19970 72b0 9381      		ldd r25,Z+3
 19971 72b2 0E94 0000 		call SD_Write32
 19972               	.LM2031:
 19973 72b6 60E0      		ldi r22,lo8(6144)
 19974 72b8 78E1      		ldi r23,hi8(6144)
 19975 72ba 80E0      		ldi r24,hlo8(6144)
 19976 72bc 90E0      		ldi r25,hhi8(6144)
 19977 72be 0E94 0000 		call SD_Write32
 19978               	.LM2032:
 19979 72c2 6CE2      		ldi r22,lo8(300)
 19980 72c4 71E0      		ldi r23,hi8(300)
 19981 72c6 80E0      		ldi r24,hlo8(300)
 19982 72c8 90E0      		ldi r25,hhi8(300)
 19983 72ca 0E94 0000 		call SD_Write32
 19984               	.LM2033:
 19985 72ce 80E0      		ldi r24,lo8(.LC8)
 19986 72d0 90E0      		ldi r25,hi8(.LC8)
 19987 72d2 0E94 0000 		call SD_WriteString
 19988               	.LM2034:
 19989 72d6 89E0      		ldi r24,lo8(9)
 19990 72d8 0E94 0000 		call SD_Write8
 19991               	.LM2035:
 19992 72dc 80E0      		ldi r24,lo8(.LC5)
 19993 72de 90E0      		ldi r25,hi8(.LC5)
 19994 72e0 0E94 0000 		call SD_WriteString
 19995               	.LM2036:
 19996 72e4 8AE0      		ldi r24,lo8(10)
 19997 72e6 0E94 0000 		call SD_Write8
 19998               	.LM2037:
 19999 72ea 80E0      		ldi r24,lo8(0)
 20000 72ec 0E94 0000 		call SD_Write8
 20001 72f0 88E5      		ldi r24,lo8(600)
 20002 72f2 92E0      		ldi r25,hi8(600)
 20003 72f4 089F      		mul r16,r24
 20004 72f6 7001      		movw r14,r0
 20005 72f8 099F      		mul r16,r25
 20006 72fa F00C      		add r15,r0
 20007 72fc 189F      		mul r17,r24
 20008 72fe F00C      		add r15,r0
 20009 7300 1124      		clr r1
 20010 7302 80E0      		ldi r24,lo8(EKGBuffer)
 20011 7304 90E0      		ldi r25,hi8(EKGBuffer)
 20012 7306 E80E      		add r14,r24
 20013 7308 F91E      		adc r15,r25
 20014 730a C0E0      		ldi r28,lo8(0)
 20015 730c D0E0      		ldi r29,hi8(0)
 20016               	.LVL1515:
 20017               	.L1081:
 20018               	.LBB839:
 20019               	.LM2038:
 20020 730e F701      		movw r30,r14
 20021 7310 8191      		ld r24,Z+
 20022 7312 9191      		ld r25,Z+
 20023 7314 7F01      		movw r14,r30
 20024 7316 0E94 0000 		call SD_Write16
 20025               	.LM2039:
 20026 731a 2196      		adiw r28,1
 20027 731c F1E0      		ldi r31,hi8(300)
 20028 731e CC32      		cpi r28,lo8(300)
 20029 7320 DF07      		cpc r29,r31
 20030 7322 01F4      		brne .L1081
 20031               	.LBE839:
 20032               	.LM2040:
 20033 7324 0E94 0000 		call SD_WriteCRC
 20034               	.LM2041:
 20035 7328 80E0      		ldi r24,lo8(Log_File)
 20036 732a 90E0      		ldi r25,hi8(Log_File)
 20037 732c 0E94 0000 		call f_sync
 20038 7330 8823      		tst r24
 20039 7332 01F0      		breq .L1083
 20040               	.LM2042:
 20041 7334 1092 0000 		sts sdValid,__zero_reg__
 20042               	.L1083:
 20043               	/* epilogue start */
 20044               	.LM2043:
 20045 7338 DF91      		pop r29
 20046 733a CF91      		pop r28
 20047               	.LVL1516:
 20048 733c 1F91      		pop r17
 20049 733e 0F91      		pop r16
 20050 7340 FF90      		pop r15
 20051 7342 EF90      		pop r14
 20052 7344 0895      		ret
 20053               	.LFE156:
 20055               		.data
 20056               	.LC9:
 20057 0055 5265 7370 		.string	"Respiration"
 20057      6972 6174 
 20057      696F 6E00 
 20058               		.text
 20059               	.global	SD_WriteRespirationBuffer
 20061               	SD_WriteRespirationBuffer:
 20062               	.LFB155:
 20063               	.LM2044:
 20064               	.LVL1517:
 20065 7346 EF92      		push r14
 20066 7348 FF92      		push r15
 20067 734a 0F93      		push r16
 20068 734c 1F93      		push r17
 20069 734e CF93      		push r28
 20070 7350 DF93      		push r29
 20071               	/* prologue: function */
 20072               	/* frame size = 0 */
 20073 7352 082F      		mov r16,r24
 20074               	.LBB840:
 20075               	.LBB841:
 20076               	.LM2045:
 20077 7354 8FEF      		ldi r24,lo8(-1)
 20078 7356 9FEF      		ldi r25,hi8(-1)
 20079 7358 AFEF      		ldi r26,hlo8(-1)
 20080 735a BFEF      		ldi r27,hhi8(-1)
 20081               	.LVL1518:
 20082 735c 8093 0000 		sts CRC,r24
 20083 7360 9093 0000 		sts (CRC)+1,r25
 20084 7364 A093 0000 		sts (CRC)+2,r26
 20085 7368 B093 0000 		sts (CRC)+3,r27
 20086               	.LBE841:
 20087               	.LBE840:
 20088               	.LM2046:
 20089 736c 6CE4      		ldi r22,lo8(-1327598516)
 20090 736e 74E7      		ldi r23,hi8(-1327598516)
 20091 7370 8EED      		ldi r24,hlo8(-1327598516)
 20092 7372 90EB      		ldi r25,hhi8(-1327598516)
 20093 7374 0E94 0000 		call SD_Write32
 20094               	.LM2047:
 20095 7378 6EE8      		ldi r22,lo8(142)
 20096 737a 70E0      		ldi r23,hi8(142)
 20097 737c 80E0      		ldi r24,hlo8(142)
 20098 737e 90E0      		ldi r25,hhi8(142)
 20099 7380 0E94 0000 		call SD_Write32
 20100               	.LM2048:
 20101 7384 83E0      		ldi r24,lo8(3)
 20102 7386 90E0      		ldi r25,hi8(3)
 20103 7388 0E94 0000 		call SD_Write16
 20104               	.LM2049:
 20105 738c 10E0      		ldi r17,lo8(0)
 20106 738e F801      		movw r30,r16
 20107               	.LVL1519:
 20108 7390 EE0F      		lsl r30
 20109 7392 FF1F      		rol r31
 20110 7394 EE0F      		lsl r30
 20111 7396 FF1F      		rol r31
 20112 7398 E050      		subi r30,lo8(-(respirationSampleStartTime))
 20113 739a F040      		sbci r31,hi8(-(respirationSampleStartTime))
 20114 739c 6081      		ld r22,Z
 20115 739e 7181      		ldd r23,Z+1
 20116 73a0 8281      		ldd r24,Z+2
 20117 73a2 9381      		ldd r25,Z+3
 20118 73a4 0E94 0000 		call SD_Write32
 20119               	.LM2050:
 20120 73a8 60E0      		ldi r22,lo8(36864)
 20121 73aa 70E9      		ldi r23,hi8(36864)
 20122 73ac 80E0      		ldi r24,hlo8(36864)
 20123 73ae 90E0      		ldi r25,hhi8(36864)
 20124 73b0 0E94 0000 		call SD_Write32
 20125               	.LM2051:
 20126 73b4 62E3      		ldi r22,lo8(50)
 20127 73b6 70E0      		ldi r23,hi8(50)
 20128 73b8 80E0      		ldi r24,hlo8(50)
 20129 73ba 90E0      		ldi r25,hhi8(50)
 20130 73bc 0E94 0000 		call SD_Write32
 20131               	.LM2052:
 20132 73c0 80E0      		ldi r24,lo8(.LC9)
 20133 73c2 90E0      		ldi r25,hi8(.LC9)
 20134 73c4 0E94 0000 		call SD_WriteString
 20135               	.LM2053:
 20136 73c8 89E0      		ldi r24,lo8(9)
 20137 73ca 0E94 0000 		call SD_Write8
 20138               	.LM2054:
 20139 73ce 80E0      		ldi r24,lo8(.LC5)
 20140 73d0 90E0      		ldi r25,hi8(.LC5)
 20141 73d2 0E94 0000 		call SD_WriteString
 20142               	.LM2055:
 20143 73d6 8AE0      		ldi r24,lo8(10)
 20144 73d8 0E94 0000 		call SD_Write8
 20145               	.LM2056:
 20146 73dc 80E0      		ldi r24,lo8(0)
 20147 73de 0E94 0000 		call SD_Write8
 20148 73e2 84E6      		ldi r24,lo8(100)
 20149 73e4 90E0      		ldi r25,hi8(100)
 20150 73e6 089F      		mul r16,r24
 20151 73e8 7001      		movw r14,r0
 20152 73ea 099F      		mul r16,r25
 20153 73ec F00C      		add r15,r0
 20154 73ee 189F      		mul r17,r24
 20155 73f0 F00C      		add r15,r0
 20156 73f2 1124      		clr r1
 20157 73f4 80E0      		ldi r24,lo8(respirationBuffer)
 20158 73f6 90E0      		ldi r25,hi8(respirationBuffer)
 20159 73f8 E80E      		add r14,r24
 20160 73fa F91E      		adc r15,r25
 20161 73fc C0E0      		ldi r28,lo8(0)
 20162 73fe D0E0      		ldi r29,hi8(0)
 20163               	.LVL1520:
 20164               	.L1086:
 20165               	.LBB842:
 20166               	.LM2057:
 20167 7400 F701      		movw r30,r14
 20168 7402 8191      		ld r24,Z+
 20169 7404 9191      		ld r25,Z+
 20170 7406 7F01      		movw r14,r30
 20171 7408 0E94 0000 		call SD_Write16
 20172               	.LM2058:
 20173 740c 2196      		adiw r28,1
 20174 740e C233      		cpi r28,50
 20175 7410 D105      		cpc r29,__zero_reg__
 20176 7412 01F4      		brne .L1086
 20177               	.LBE842:
 20178               	.LM2059:
 20179 7414 0E94 0000 		call SD_WriteCRC
 20180               	.LM2060:
 20181 7418 80E0      		ldi r24,lo8(Log_File)
 20182 741a 90E0      		ldi r25,hi8(Log_File)
 20183 741c 0E94 0000 		call f_sync
 20184 7420 8823      		tst r24
 20185 7422 01F0      		breq .L1088
 20186               	.LM2061:
 20187 7424 1092 0000 		sts sdValid,__zero_reg__
 20188               	.L1088:
 20189               	/* epilogue start */
 20190               	.LM2062:
 20191 7428 DF91      		pop r29
 20192 742a CF91      		pop r28
 20193               	.LVL1521:
 20194 742c 1F91      		pop r17
 20195 742e 0F91      		pop r16
 20196 7430 FF90      		pop r15
 20197 7432 EF90      		pop r14
 20198 7434 0895      		ret
 20199               	.LFE155:
 20201               		.data
 20202               	.LC10:
 20203 0061 4875 6D69 		.string	"Humidity"
 20203      6469 7479 
 20203      00
 20204               		.text
 20205               	.global	SD_WriteHumidityBuffer
 20207               	SD_WriteHumidityBuffer:
 20208               	.LFB154:
 20209               	.LM2063:
 20210               	.LVL1522:
 20211 7436 0F93      		push r16
 20212 7438 1F93      		push r17
 20213 743a CF93      		push r28
 20214 743c DF93      		push r29
 20215               	/* prologue: function */
 20216               	/* frame size = 0 */
 20217 743e 082F      		mov r16,r24
 20218               	.LBB843:
 20219               	.LBB844:
 20220               	.LM2064:
 20221 7440 8FEF      		ldi r24,lo8(-1)
 20222 7442 9FEF      		ldi r25,hi8(-1)
 20223 7444 AFEF      		ldi r26,hlo8(-1)
 20224 7446 BFEF      		ldi r27,hhi8(-1)
 20225               	.LVL1523:
 20226 7448 8093 0000 		sts CRC,r24
 20227 744c 9093 0000 		sts (CRC)+1,r25
 20228 7450 A093 0000 		sts (CRC)+2,r26
 20229 7454 B093 0000 		sts (CRC)+3,r27
 20230               	.LBE844:
 20231               	.LBE843:
 20232               	.LM2065:
 20233 7458 6CE4      		ldi r22,lo8(-1327598516)
 20234 745a 74E7      		ldi r23,hi8(-1327598516)
 20235 745c 8EED      		ldi r24,hlo8(-1327598516)
 20236 745e 90EB      		ldi r25,hhi8(-1327598516)
 20237 7460 0E94 0000 		call SD_Write32
 20238               	.LM2066:
 20239 7464 6BE3      		ldi r22,lo8(59)
 20240 7466 70E0      		ldi r23,hi8(59)
 20241 7468 80E0      		ldi r24,hlo8(59)
 20242 746a 90E0      		ldi r25,hhi8(59)
 20243 746c 0E94 0000 		call SD_Write32
 20244               	.LM2067:
 20245 7470 83E0      		ldi r24,lo8(3)
 20246 7472 90E0      		ldi r25,hi8(3)
 20247 7474 0E94 0000 		call SD_Write16
 20248               	.LM2068:
 20249 7478 10E0      		ldi r17,lo8(0)
 20250 747a F801      		movw r30,r16
 20251               	.LVL1524:
 20252 747c EE0F      		lsl r30
 20253 747e FF1F      		rol r31
 20254 7480 EE0F      		lsl r30
 20255 7482 FF1F      		rol r31
 20256 7484 E050      		subi r30,lo8(-(humiditySampleStartTime))
 20257 7486 F040      		sbci r31,hi8(-(humiditySampleStartTime))
 20258 7488 6081      		ld r22,Z
 20259 748a 7181      		ldd r23,Z+1
 20260 748c 8281      		ldd r24,Z+2
 20261 748e 9381      		ldd r25,Z+3
 20262 7490 0E94 0000 		call SD_Write32
 20263               	.LM2069:
 20264 7494 60E0      		ldi r22,lo8(1843200)
 20265 7496 70E2      		ldi r23,hi8(1843200)
 20266 7498 8CE1      		ldi r24,hlo8(1843200)
 20267 749a 90E0      		ldi r25,hhi8(1843200)
 20268 749c 0E94 0000 		call SD_Write32
 20269               	.LM2070:
 20270 74a0 6AE0      		ldi r22,lo8(10)
 20271 74a2 70E0      		ldi r23,hi8(10)
 20272 74a4 80E0      		ldi r24,hlo8(10)
 20273 74a6 90E0      		ldi r25,hhi8(10)
 20274 74a8 0E94 0000 		call SD_Write32
 20275               	.LM2071:
 20276 74ac 80E0      		ldi r24,lo8(.LC10)
 20277 74ae 90E0      		ldi r25,hi8(.LC10)
 20278 74b0 0E94 0000 		call SD_WriteString
 20279               	.LM2072:
 20280 74b4 89E0      		ldi r24,lo8(9)
 20281 74b6 0E94 0000 		call SD_Write8
 20282               	.LM2073:
 20283 74ba 80E0      		ldi r24,lo8(.LC5)
 20284 74bc 90E0      		ldi r25,hi8(.LC5)
 20285 74be 0E94 0000 		call SD_WriteString
 20286               	.LM2074:
 20287 74c2 8AE0      		ldi r24,lo8(10)
 20288 74c4 0E94 0000 		call SD_Write8
 20289               	.LM2075:
 20290 74c8 80E0      		ldi r24,lo8(0)
 20291 74ca 0E94 0000 		call SD_Write8
 20292 74ce 84E1      		ldi r24,lo8(20)
 20293 74d0 90E0      		ldi r25,hi8(20)
 20294 74d2 089F      		mul r16,r24
 20295 74d4 E001      		movw r28,r0
 20296 74d6 099F      		mul r16,r25
 20297 74d8 D00D      		add r29,r0
 20298 74da 189F      		mul r17,r24
 20299 74dc D00D      		add r29,r0
 20300 74de 1124      		clr r1
 20301 74e0 C050      		subi r28,lo8(-(humidityBuffer))
 20302 74e2 D040      		sbci r29,hi8(-(humidityBuffer))
 20303 74e4 00E0      		ldi r16,lo8(0)
 20304               	.LVL1525:
 20305               	.L1091:
 20306               	.LBB845:
 20307               	.LM2076:
 20308 74e6 8991      		ld r24,Y+
 20309 74e8 9991      		ld r25,Y+
 20310 74ea 0E94 0000 		call SD_Write16
 20311               	.LM2077:
 20312 74ee 0F5F      		subi r16,lo8(-(1))
 20313 74f0 0A30      		cpi r16,lo8(10)
 20314 74f2 01F4      		brne .L1091
 20315               	.LBE845:
 20316               	.LM2078:
 20317 74f4 0E94 0000 		call SD_WriteCRC
 20318               	.LM2079:
 20319 74f8 80E0      		ldi r24,lo8(Log_File)
 20320 74fa 90E0      		ldi r25,hi8(Log_File)
 20321 74fc 0E94 0000 		call f_sync
 20322 7500 8823      		tst r24
 20323 7502 01F0      		breq .L1093
 20324               	.LM2080:
 20325 7504 1092 0000 		sts sdValid,__zero_reg__
 20326               	.L1093:
 20327               	/* epilogue start */
 20328               	.LM2081:
 20329 7508 DF91      		pop r29
 20330 750a CF91      		pop r28
 20331 750c 1F91      		pop r17
 20332 750e 0F91      		pop r16
 20333               	.LVL1526:
 20334 7510 0895      		ret
 20335               	.LFE154:
 20337               		.data
 20338               	.LC11:
 20339 006a 5465 6D70 		.string	"Temperature"
 20339      6572 6174 
 20339      7572 6500 
 20340               		.text
 20341               	.global	SD_WriteTemperatureBuffer
 20343               	SD_WriteTemperatureBuffer:
 20344               	.LFB153:
 20345               	.LM2082:
 20346               	.LVL1527:
 20347 7512 0F93      		push r16
 20348 7514 1F93      		push r17
 20349 7516 CF93      		push r28
 20350 7518 DF93      		push r29
 20351               	/* prologue: function */
 20352               	/* frame size = 0 */
 20353 751a 082F      		mov r16,r24
 20354               	.LBB846:
 20355               	.LBB847:
 20356               	.LM2083:
 20357 751c 8FEF      		ldi r24,lo8(-1)
 20358 751e 9FEF      		ldi r25,hi8(-1)
 20359 7520 AFEF      		ldi r26,hlo8(-1)
 20360 7522 BFEF      		ldi r27,hhi8(-1)
 20361               	.LVL1528:
 20362 7524 8093 0000 		sts CRC,r24
 20363 7528 9093 0000 		sts (CRC)+1,r25
 20364 752c A093 0000 		sts (CRC)+2,r26
 20365 7530 B093 0000 		sts (CRC)+3,r27
 20366               	.LBE847:
 20367               	.LBE846:
 20368               	.LM2084:
 20369 7534 6CE4      		ldi r22,lo8(-1327598516)
 20370 7536 74E7      		ldi r23,hi8(-1327598516)
 20371 7538 8EED      		ldi r24,hlo8(-1327598516)
 20372 753a 90EB      		ldi r25,hhi8(-1327598516)
 20373 753c 0E94 0000 		call SD_Write32
 20374               	.LM2085:
 20375 7540 6EE3      		ldi r22,lo8(62)
 20376 7542 70E0      		ldi r23,hi8(62)
 20377 7544 80E0      		ldi r24,hlo8(62)
 20378 7546 90E0      		ldi r25,hhi8(62)
 20379 7548 0E94 0000 		call SD_Write32
 20380               	.LM2086:
 20381 754c 83E0      		ldi r24,lo8(3)
 20382 754e 90E0      		ldi r25,hi8(3)
 20383 7550 0E94 0000 		call SD_Write16
 20384               	.LM2087:
 20385 7554 10E0      		ldi r17,lo8(0)
 20386 7556 F801      		movw r30,r16
 20387               	.LVL1529:
 20388 7558 EE0F      		lsl r30
 20389 755a FF1F      		rol r31
 20390 755c EE0F      		lsl r30
 20391 755e FF1F      		rol r31
 20392 7560 E050      		subi r30,lo8(-(temperatureSampleStartTime))
 20393 7562 F040      		sbci r31,hi8(-(temperatureSampleStartTime))
 20394 7564 6081      		ld r22,Z
 20395 7566 7181      		ldd r23,Z+1
 20396 7568 8281      		ldd r24,Z+2
 20397 756a 9381      		ldd r25,Z+3
 20398 756c 0E94 0000 		call SD_Write32
 20399               	.LM2088:
 20400 7570 60E0      		ldi r22,lo8(1843200)
 20401 7572 70E2      		ldi r23,hi8(1843200)
 20402 7574 8CE1      		ldi r24,hlo8(1843200)
 20403 7576 90E0      		ldi r25,hhi8(1843200)
 20404 7578 0E94 0000 		call SD_Write32
 20405               	.LM2089:
 20406 757c 6AE0      		ldi r22,lo8(10)
 20407 757e 70E0      		ldi r23,hi8(10)
 20408 7580 80E0      		ldi r24,hlo8(10)
 20409 7582 90E0      		ldi r25,hhi8(10)
 20410 7584 0E94 0000 		call SD_Write32
 20411               	.LM2090:
 20412 7588 80E0      		ldi r24,lo8(.LC11)
 20413 758a 90E0      		ldi r25,hi8(.LC11)
 20414 758c 0E94 0000 		call SD_WriteString
 20415               	.LM2091:
 20416 7590 89E0      		ldi r24,lo8(9)
 20417 7592 0E94 0000 		call SD_Write8
 20418               	.LM2092:
 20419 7596 80E0      		ldi r24,lo8(.LC5)
 20420 7598 90E0      		ldi r25,hi8(.LC5)
 20421 759a 0E94 0000 		call SD_WriteString
 20422               	.LM2093:
 20423 759e 8AE0      		ldi r24,lo8(10)
 20424 75a0 0E94 0000 		call SD_Write8
 20425               	.LM2094:
 20426 75a4 80E0      		ldi r24,lo8(0)
 20427 75a6 0E94 0000 		call SD_Write8
 20428 75aa 84E1      		ldi r24,lo8(20)
 20429 75ac 90E0      		ldi r25,hi8(20)
 20430 75ae 089F      		mul r16,r24
 20431 75b0 E001      		movw r28,r0
 20432 75b2 099F      		mul r16,r25
 20433 75b4 D00D      		add r29,r0
 20434 75b6 189F      		mul r17,r24
 20435 75b8 D00D      		add r29,r0
 20436 75ba 1124      		clr r1
 20437 75bc C050      		subi r28,lo8(-(temperatureBuffer))
 20438 75be D040      		sbci r29,hi8(-(temperatureBuffer))
 20439 75c0 00E0      		ldi r16,lo8(0)
 20440               	.LVL1530:
 20441               	.L1096:
 20442               	.LBB848:
 20443               	.LM2095:
 20444 75c2 8991      		ld r24,Y+
 20445 75c4 9991      		ld r25,Y+
 20446 75c6 0E94 0000 		call SD_Write16
 20447               	.LM2096:
 20448 75ca 0F5F      		subi r16,lo8(-(1))
 20449 75cc 0A30      		cpi r16,lo8(10)
 20450 75ce 01F4      		brne .L1096
 20451               	.LBE848:
 20452               	.LM2097:
 20453 75d0 0E94 0000 		call SD_WriteCRC
 20454               	.LM2098:
 20455 75d4 80E0      		ldi r24,lo8(Log_File)
 20456 75d6 90E0      		ldi r25,hi8(Log_File)
 20457 75d8 0E94 0000 		call f_sync
 20458 75dc 8823      		tst r24
 20459 75de 01F0      		breq .L1098
 20460               	.LM2099:
 20461 75e0 1092 0000 		sts sdValid,__zero_reg__
 20462               	.L1098:
 20463               	/* epilogue start */
 20464               	.LM2100:
 20465 75e4 DF91      		pop r29
 20466 75e6 CF91      		pop r28
 20467 75e8 1F91      		pop r17
 20468 75ea 0F91      		pop r16
 20469               	.LVL1531:
 20470 75ec 0895      		ret
 20471               	.LFE153:
 20473               	.global	Debug_SendString
 20475               	Debug_SendString:
 20476               	.LFB13:
 20477               	.LM2101:
 20478               	.LVL1532:
 20479 75ee EF92      		push r14
 20480 75f0 FF92      		push r15
 20481 75f2 0F93      		push r16
 20482 75f4 1F93      		push r17
 20483 75f6 CF93      		push r28
 20484 75f8 DF93      		push r29
 20485               	/* prologue: function */
 20486               	/* frame size = 0 */
 20487 75fa 8C01      		movw r16,r24
 20488 75fc E62E      		mov r14,r22
 20489               	.LM2102:
 20490 75fe FF24      		clr r15
 20491               	.LVL1533:
 20492 7600 00C0      		rjmp .L1101
 20493               	.LVL1534:
 20494               	.L1103:
 20495               	.LBB849:
 20496               	.LM2103:
 20497 7602 C00F      		add r28,r16
 20498 7604 D11F      		adc r29,r17
 20499 7606 8881      		ld r24,Y
 20500 7608 0E94 0000 		call Debug_SendByte
 20501 760c 8823      		tst r24
 20502 760e 01F0      		breq .L1102
 20503               	.LM2104:
 20504 7610 F394      		inc r15
 20505               	.LVL1535:
 20506               	.L1101:
 20507 7612 CF2D      		mov r28,r15
 20508 7614 D0E0      		ldi r29,lo8(0)
 20509 7616 F801      		movw r30,r16
 20510 7618 0190      		ld __tmp_reg__,Z+
 20511 761a 0020      		tst __tmp_reg__
 20512 761c 01F4      		brne .-6
 20513 761e 3197      		sbiw r30,1
 20514 7620 E01B      		sub r30,r16
 20515 7622 F10B      		sbc r31,r17
 20516 7624 CE17      		cp r28,r30
 20517 7626 DF07      		cpc r29,r31
 20518 7628 00F0      		brlo .L1103
 20519               	.LBE849:
 20520               	.LM2105:
 20521 762a EE20      		tst r14
 20522 762c 01F0      		breq .L1108
 20523               	.L1104:
 20524               	.LM2106:
 20525 762e 8DE0      		ldi r24,lo8(13)
 20526 7630 0E94 0000 		call Debug_SendByte
 20527 7634 8823      		tst r24
 20528 7636 01F0      		breq .L1102
 20529               	.LM2107:
 20530 7638 8AE0      		ldi r24,lo8(10)
 20531 763a 0E94 0000 		call Debug_SendByte
 20532 763e 8823      		tst r24
 20533 7640 01F0      		breq .L1105
 20534               	.LVL1536:
 20535               	.L1108:
 20536 7642 81E0      		ldi r24,lo8(1)
 20537 7644 00C0      		rjmp .L1105
 20538               	.LVL1537:
 20539               	.L1102:
 20540 7646 80E0      		ldi r24,lo8(0)
 20541               	.LVL1538:
 20542               	.L1105:
 20543               	/* epilogue start */
 20544               	.LM2108:
 20545 7648 DF91      		pop r29
 20546 764a CF91      		pop r28
 20547 764c 1F91      		pop r17
 20548 764e 0F91      		pop r16
 20549               	.LVL1539:
 20550 7650 FF90      		pop r15
 20551               	.LVL1540:
 20552 7652 EF90      		pop r14
 20553               	.LVL1541:
 20554 7654 0895      		ret
 20555               	.LFE13:
 20557               		.data
 20558               	.LC12:
 20559 0076 4253 00   		.string	"BS"
 20560               	.LC13:
 20561 0079 4254 00   		.string	"BT"
 20562               		.text
 20563               	.global	Uploader_connectToComputer
 20565               	Uploader_connectToComputer:
 20566               	.LFB125:
 20567               	.LM2109:
 20568 7656 DF92      		push r13
 20569 7658 EF92      		push r14
 20570 765a FF92      		push r15
 20571 765c 0F93      		push r16
 20572 765e 1F93      		push r17
 20573 7660 CF93      		push r28
 20574 7662 DF93      		push r29
 20575               	/* prologue: function */
 20576               	/* frame size = 0 */
 20577               	.LM2110:
 20578 7664 1092 0000 		sts connected,__zero_reg__
 20579               	.LM2111:
 20580 7668 0E94 0000 		call Debug_ClearBuffer
 20581               	.LBB850:
 20582               	.LBB851:
 20583               	.LBB852:
 20584               	.LBB853:
 20585               	.LM2112:
 20586 766c E12C      		mov r14,__zero_reg__
 20587 766e 78E4      		ldi r23,hi8(18432)
 20588 7670 F72E      		mov r15,r23
 20589               	.LBE853:
 20590               	.LBE852:
 20591               	.LBE851:
 20592               	.LBE850:
 20593               	.LBB857:
 20594               	.LBB858:
 20595               	.LBB859:
 20596               	.LBB860:
 20597 7672 06E6      		ldi r16,lo8(3686)
 20598 7674 1EE0      		ldi r17,hi8(3686)
 20599               	.LBE860:
 20600               	.LBE859:
 20601               	.LBE858:
 20602               	.LBE857:
 20603               	.LM2113:
 20604 7676 DD24      		clr r13
 20605 7678 D394      		inc r13
 20606 767a 00C0      		rjmp .L1118
 20607               	.LVL1542:
 20608               	.L1114:
 20609               	.LM2114:
 20610 767c 80E0      		ldi r24,lo8(.LC12)
 20611 767e 90E0      		ldi r25,hi8(.LC12)
 20612 7680 60E0      		ldi r22,lo8(0)
 20613 7682 0E94 0000 		call Debug_SendString
 20614 7686 8823      		tst r24
 20615 7688 01F0      		breq .L1111
 20616 768a CEEE      		ldi r28,lo8(750)
 20617 768c D2E0      		ldi r29,hi8(750)
 20618               	.LVL1543:
 20619               	.L1113:
 20620               	.LM2115:
 20621 768e 0E94 0000 		call Debug_CharReadyToRead
 20622               	.LVL1544:
 20623 7692 8823      		tst r24
 20624 7694 01F0      		breq .L1112
 20625               	.LM2116:
 20626 7696 80E0      		ldi r24,lo8(0)
 20627 7698 0E94 0000 		call Debug_GetByte
 20628               	.LM2117:
 20629 769c 8234      		cpi r24,lo8(66)
 20630 769e 01F4      		brne .L1112
 20631               	.LBB864:
 20632               	.LBB856:
 20633               	.LBB855:
 20634               	.LBB854:
 20635               	.LM2118:
 20636 76a0 C701      		movw r24,r14
 20637               	.LVL1545:
 20638               	/* #APP */
 20639               	 ;  105 "/usr/local/CrossPack-AVR-20100115/lib/gcc/avr/4.3.3/../../../../avr/include/util/delay_bas
 20640 76a2 0197      		1: sbiw r24,1
 20641 76a4 01F4      		brne 1b
 20642               	 ;  0 "" 2
 20643               	/* #NOAPP */
 20644               	.LBE854:
 20645               	.LBE855:
 20646               	.LBE856:
 20647               	.LBE864:
 20648               	.LM2119:
 20649 76a6 80E0      		ldi r24,lo8(0)
 20650               	.LVL1546:
 20651 76a8 0E94 0000 		call Debug_GetByte
 20652               	.LM2120:
 20653 76ac 8435      		cpi r24,lo8(84)
 20654 76ae 01F4      		brne .L1112
 20655               	.LM2121:
 20656 76b0 80E0      		ldi r24,lo8(.LC13)
 20657 76b2 90E0      		ldi r25,hi8(.LC13)
 20658 76b4 60E0      		ldi r22,lo8(0)
 20659 76b6 0E94 0000 		call Debug_SendString
 20660 76ba 8823      		tst r24
 20661 76bc 01F0      		breq .L1111
 20662               	.LM2122:
 20663 76be D092 0000 		sts connected,r13
 20664               	.LM2123:
 20665 76c2 1092 0000 		sts timeOutCounter,__zero_reg__
 20666 76c6 1092 0000 		sts (timeOutCounter)+1,__zero_reg__
 20667               	.LM2124:
 20668 76ca 0E94 0000 		call Debug_ClearBuffer
 20669 76ce 00C0      		rjmp .L1118
 20670               	.L1112:
 20671               	.LBB865:
 20672               	.LBB863:
 20673               	.LBB862:
 20674               	.LBB861:
 20675               	.LM2125:
 20676 76d0 C801      		movw r24,r16
 20677               	.LVL1547:
 20678               	/* #APP */
 20679               	 ;  105 "/usr/local/CrossPack-AVR-20100115/lib/gcc/avr/4.3.3/../../../../avr/include/util/delay_bas
 20680 76d2 0197      		1: sbiw r24,1
 20681 76d4 01F4      		brne 1b
 20682               	 ;  0 "" 2
 20683               	/* #NOAPP */
 20684               	.LBE861:
 20685               	.LBE862:
 20686               	.LBE863:
 20687               	.LBE865:
 20688               	.LM2126:
 20689 76d6 2197      		sbiw r28,1
 20690               	.LM2127:
 20691 76d8 01F4      		brne .L1113
 20692               	.L1118:
 20693               	.LM2128:
 20694 76da 8091 0000 		lds r24,connected
 20695               	.LVL1548:
 20696 76de 8823      		tst r24
 20697 76e0 01F0      		breq .L1114
 20698 76e2 81E0      		ldi r24,lo8(1)
 20699 76e4 00C0      		rjmp .L1115
 20700               	.L1111:
 20701 76e6 80E0      		ldi r24,lo8(0)
 20702               	.L1115:
 20703               	/* epilogue start */
 20704               	.LM2129:
 20705 76e8 DF91      		pop r29
 20706 76ea CF91      		pop r28
 20707               	.LVL1549:
 20708 76ec 1F91      		pop r17
 20709 76ee 0F91      		pop r16
 20710 76f0 FF90      		pop r15
 20711 76f2 EF90      		pop r14
 20712 76f4 DF90      		pop r13
 20713 76f6 0895      		ret
 20714               	.LFE125:
 20716               	.global	Uploader_sendPort
 20718               	Uploader_sendPort:
 20719               	.LFB136:
 20720               	.LM2130:
 20721 76f8 CF93      		push r28
 20722 76fa DF93      		push r29
 20723               	/* prologue: function */
 20724               	/* frame size = 0 */
 20725               	.LM2131:
 20726 76fc 8FE4      		ldi r24,lo8(79)
 20727 76fe 0E94 0000 		call Debug_SendByte
 20728 7702 8823      		tst r24
 20729 7704 01F0      		breq .L1120
 20730               	.LM2132:
 20731 7706 E0E0      		ldi r30,lo8(port)
 20732 7708 F0E0      		ldi r31,hi8(port)
 20733 770a 0190      		ld __tmp_reg__,Z+
 20734 770c 0020      		tst __tmp_reg__
 20735 770e 01F4      		brne .-6
 20736 7710 3297      		sbiw r30,2
 20737 7712 8081      		ld r24,Z
 20738 7714 8032      		cpi r24,lo8(32)
 20739 7716 00F4      		brsh .L1121
 20740               	.LM2133:
 20741 7718 1082      		st Z,__zero_reg__
 20742               	.L1121:
 20743               	.LM2134:
 20744 771a C0E0      		ldi r28,lo8(port)
 20745 771c D0E0      		ldi r29,hi8(port)
 20746 771e FE01      		movw r30,r28
 20747 7720 0190      		ld __tmp_reg__,Z+
 20748 7722 0020      		tst __tmp_reg__
 20749 7724 01F4      		brne .-6
 20750 7726 3197      		sbiw r30,1
 20751 7728 EC1B      		sub r30,r28
 20752 772a FD0B      		sbc r31,r29
 20753 772c 8E2F      		mov r24,r30
 20754 772e 8E5F      		subi r24,lo8(-(2))
 20755 7730 0E94 0000 		call Debug_SendByte
 20756 7734 8823      		tst r24
 20757 7736 01F0      		breq .L1120
 20758               	.LM2135:
 20759 7738 CE01      		movw r24,r28
 20760 773a 61E0      		ldi r22,lo8(1)
 20761 773c 0E94 0000 		call Debug_SendString
 20762 7740 8823      		tst r24
 20763 7742 01F0      		breq .L1123
 20764 7744 81E0      		ldi r24,lo8(1)
 20765 7746 00C0      		rjmp .L1123
 20766               	.L1120:
 20767 7748 80E0      		ldi r24,lo8(0)
 20768               	.L1123:
 20769               	/* epilogue start */
 20770               	.LM2136:
 20771 774a DF91      		pop r29
 20772 774c CF91      		pop r28
 20773 774e 0895      		ret
 20774               	.LFE136:
 20776               	.global	Uploader_sendServer
 20778               	Uploader_sendServer:
 20779               	.LFB135:
 20780               	.LM2137:
 20781 7750 CF93      		push r28
 20782 7752 DF93      		push r29
 20783               	/* prologue: function */
 20784               	/* frame size = 0 */
 20785               	.LM2138:
 20786 7754 86E5      		ldi r24,lo8(86)
 20787 7756 0E94 0000 		call Debug_SendByte
 20788 775a 8823      		tst r24
 20789 775c 01F0      		breq .L1126
 20790               	.LM2139:
 20791 775e E0E0      		ldi r30,lo8(server)
 20792 7760 F0E0      		ldi r31,hi8(server)
 20793 7762 0190      		ld __tmp_reg__,Z+
 20794 7764 0020      		tst __tmp_reg__
 20795 7766 01F4      		brne .-6
 20796 7768 3297      		sbiw r30,2
 20797 776a 8081      		ld r24,Z
 20798 776c 8032      		cpi r24,lo8(32)
 20799 776e 00F4      		brsh .L1127
 20800               	.LM2140:
 20801 7770 1082      		st Z,__zero_reg__
 20802               	.L1127:
 20803               	.LM2141:
 20804 7772 C0E0      		ldi r28,lo8(server)
 20805 7774 D0E0      		ldi r29,hi8(server)
 20806 7776 FE01      		movw r30,r28
 20807 7778 0190      		ld __tmp_reg__,Z+
 20808 777a 0020      		tst __tmp_reg__
 20809 777c 01F4      		brne .-6
 20810 777e 3197      		sbiw r30,1
 20811 7780 EC1B      		sub r30,r28
 20812 7782 FD0B      		sbc r31,r29
 20813 7784 8E2F      		mov r24,r30
 20814 7786 8E5F      		subi r24,lo8(-(2))
 20815 7788 0E94 0000 		call Debug_SendByte
 20816 778c 8823      		tst r24
 20817 778e 01F0      		breq .L1126
 20818               	.LM2142:
 20819 7790 CE01      		movw r24,r28
 20820 7792 61E0      		ldi r22,lo8(1)
 20821 7794 0E94 0000 		call Debug_SendString
 20822 7798 8823      		tst r24
 20823 779a 01F0      		breq .L1129
 20824 779c 81E0      		ldi r24,lo8(1)
 20825 779e 00C0      		rjmp .L1129
 20826               	.L1126:
 20827 77a0 80E0      		ldi r24,lo8(0)
 20828               	.L1129:
 20829               	/* epilogue start */
 20830               	.LM2143:
 20831 77a2 DF91      		pop r29
 20832 77a4 CF91      		pop r28
 20833 77a6 0895      		ret
 20834               	.LFE135:
 20836               	.global	Uploader_sendNickname
 20838               	Uploader_sendNickname:
 20839               	.LFB131:
 20840               	.LM2144:
 20841 77a8 CF93      		push r28
 20842 77aa DF93      		push r29
 20843               	/* prologue: function */
 20844               	/* frame size = 0 */
 20845               	.LM2145:
 20846 77ac 8EE4      		ldi r24,lo8(78)
 20847 77ae 0E94 0000 		call Debug_SendByte
 20848 77b2 8823      		tst r24
 20849 77b4 01F0      		breq .L1132
 20850               	.LM2146:
 20851 77b6 E0E0      		ldi r30,lo8(nickname)
 20852 77b8 F0E0      		ldi r31,hi8(nickname)
 20853 77ba 0190      		ld __tmp_reg__,Z+
 20854 77bc 0020      		tst __tmp_reg__
 20855 77be 01F4      		brne .-6
 20856 77c0 3297      		sbiw r30,2
 20857 77c2 8081      		ld r24,Z
 20858 77c4 8032      		cpi r24,lo8(32)
 20859 77c6 00F4      		brsh .L1133
 20860               	.LM2147:
 20861 77c8 1082      		st Z,__zero_reg__
 20862               	.L1133:
 20863               	.LM2148:
 20864 77ca C0E0      		ldi r28,lo8(nickname)
 20865 77cc D0E0      		ldi r29,hi8(nickname)
 20866 77ce FE01      		movw r30,r28
 20867 77d0 0190      		ld __tmp_reg__,Z+
 20868 77d2 0020      		tst __tmp_reg__
 20869 77d4 01F4      		brne .-6
 20870 77d6 3197      		sbiw r30,1
 20871 77d8 EC1B      		sub r30,r28
 20872 77da FD0B      		sbc r31,r29
 20873 77dc 8E2F      		mov r24,r30
 20874 77de 8E5F      		subi r24,lo8(-(2))
 20875 77e0 0E94 0000 		call Debug_SendByte
 20876 77e4 8823      		tst r24
 20877 77e6 01F0      		breq .L1132
 20878               	.LM2149:
 20879 77e8 CE01      		movw r24,r28
 20880 77ea 61E0      		ldi r22,lo8(1)
 20881 77ec 0E94 0000 		call Debug_SendString
 20882 77f0 8823      		tst r24
 20883 77f2 01F0      		breq .L1135
 20884 77f4 81E0      		ldi r24,lo8(1)
 20885 77f6 00C0      		rjmp .L1135
 20886               	.L1132:
 20887 77f8 80E0      		ldi r24,lo8(0)
 20888               	.L1135:
 20889               	/* epilogue start */
 20890               	.LM2150:
 20891 77fa DF91      		pop r29
 20892 77fc CF91      		pop r28
 20893 77fe 0895      		ret
 20894               	.LFE131:
 20896               	.global	Uploader_sendUser
 20898               	Uploader_sendUser:
 20899               	.LFB130:
 20900               	.LM2151:
 20901 7800 CF93      		push r28
 20902 7802 DF93      		push r29
 20903               	/* prologue: function */
 20904               	/* frame size = 0 */
 20905               	.LM2152:
 20906 7804 85E5      		ldi r24,lo8(85)
 20907 7806 0E94 0000 		call Debug_SendByte
 20908 780a 8823      		tst r24
 20909 780c 01F0      		breq .L1138
 20910               	.LM2153:
 20911 780e E0E0      		ldi r30,lo8(user)
 20912 7810 F0E0      		ldi r31,hi8(user)
 20913 7812 0190      		ld __tmp_reg__,Z+
 20914 7814 0020      		tst __tmp_reg__
 20915 7816 01F4      		brne .-6
 20916 7818 3297      		sbiw r30,2
 20917 781a 8081      		ld r24,Z
 20918 781c 8032      		cpi r24,lo8(32)
 20919 781e 00F4      		brsh .L1139
 20920               	.LM2154:
 20921 7820 1082      		st Z,__zero_reg__
 20922               	.L1139:
 20923               	.LM2155:
 20924 7822 C0E0      		ldi r28,lo8(user)
 20925 7824 D0E0      		ldi r29,hi8(user)
 20926 7826 FE01      		movw r30,r28
 20927 7828 0190      		ld __tmp_reg__,Z+
 20928 782a 0020      		tst __tmp_reg__
 20929 782c 01F4      		brne .-6
 20930 782e 3197      		sbiw r30,1
 20931 7830 EC1B      		sub r30,r28
 20932 7832 FD0B      		sbc r31,r29
 20933 7834 8E2F      		mov r24,r30
 20934 7836 8E5F      		subi r24,lo8(-(2))
 20935 7838 0E94 0000 		call Debug_SendByte
 20936 783c 8823      		tst r24
 20937 783e 01F0      		breq .L1138
 20938               	.LM2156:
 20939 7840 CE01      		movw r24,r28
 20940 7842 61E0      		ldi r22,lo8(1)
 20941 7844 0E94 0000 		call Debug_SendString
 20942 7848 8823      		tst r24
 20943 784a 01F0      		breq .L1141
 20944 784c 81E0      		ldi r24,lo8(1)
 20945 784e 00C0      		rjmp .L1141
 20946               	.L1138:
 20947 7850 80E0      		ldi r24,lo8(0)
 20948               	.L1141:
 20949               	/* epilogue start */
 20950               	.LM2157:
 20951 7852 DF91      		pop r29
 20952 7854 CF91      		pop r28
 20953 7856 0895      		ret
 20954               	.LFE130:
 20956               		.data
 20957               	.LC14:
 20958 007c 00        		.string	""
 20959               		.text
 20960               	.global	Uploader_sendKey
 20962               	Uploader_sendKey:
 20963               	.LFB129:
 20964               	.LM2158:
 20965 7858 CF93      		push r28
 20966 785a DF93      		push r29
 20967               	/* prologue: function */
 20968               	/* frame size = 0 */
 20969               	.LM2159:
 20970 785c 8091 0000 		lds r24,phraseRead
 20971 7860 8823      		tst r24
 20972 7862 01F0      		breq .L1144
 20973               	.LM2160:
 20974 7864 E0E0      		ldi r30,lo8(phrase)
 20975 7866 F0E0      		ldi r31,hi8(phrase)
 20976 7868 0190      		ld __tmp_reg__,Z+
 20977 786a 0020      		tst __tmp_reg__
 20978 786c 01F4      		brne .-6
 20979 786e 3297      		sbiw r30,2
 20980 7870 8081      		ld r24,Z
 20981 7872 8032      		cpi r24,lo8(32)
 20982 7874 00F4      		brsh .L1145
 20983               	.LM2161:
 20984 7876 1082      		st Z,__zero_reg__
 20985               	.L1145:
 20986               	.LM2162:
 20987 7878 8BE4      		ldi r24,lo8(75)
 20988 787a 0E94 0000 		call Debug_SendByte
 20989 787e 8823      		tst r24
 20990 7880 01F0      		breq .L1146
 20991               	.LM2163:
 20992 7882 C0E0      		ldi r28,lo8(phrase)
 20993 7884 D0E0      		ldi r29,hi8(phrase)
 20994 7886 00C0      		rjmp .L1159
 20995               	.L1144:
 20996               	.LM2164:
 20997 7888 8091 0000 		lds r24,keyRead
 20998 788c 8823      		tst r24
 20999 788e 01F0      		breq .L1149
 21000               	.LM2165:
 21001 7890 E0E0      		ldi r30,lo8(key)
 21002 7892 F0E0      		ldi r31,hi8(key)
 21003 7894 0190      		ld __tmp_reg__,Z+
 21004 7896 0020      		tst __tmp_reg__
 21005 7898 01F4      		brne .-6
 21006 789a 3297      		sbiw r30,2
 21007 789c 8081      		ld r24,Z
 21008 789e 8032      		cpi r24,lo8(32)
 21009 78a0 00F4      		brsh .L1150
 21010               	.LM2166:
 21011 78a2 1082      		st Z,__zero_reg__
 21012               	.L1150:
 21013               	.LM2167:
 21014 78a4 8BE4      		ldi r24,lo8(75)
 21015 78a6 0E94 0000 		call Debug_SendByte
 21016 78aa 8823      		tst r24
 21017 78ac 01F0      		breq .L1146
 21018               	.LM2168:
 21019 78ae C0E0      		ldi r28,lo8(key)
 21020 78b0 D0E0      		ldi r29,hi8(key)
 21021               	.L1159:
 21022 78b2 FE01      		movw r30,r28
 21023 78b4 0190      		ld __tmp_reg__,Z+
 21024 78b6 0020      		tst __tmp_reg__
 21025 78b8 01F4      		brne .-6
 21026 78ba 3197      		sbiw r30,1
 21027 78bc EC1B      		sub r30,r28
 21028 78be FD0B      		sbc r31,r29
 21029 78c0 8E2F      		mov r24,r30
 21030 78c2 8E5F      		subi r24,lo8(-(2))
 21031 78c4 0E94 0000 		call Debug_SendByte
 21032 78c8 8823      		tst r24
 21033 78ca 01F0      		breq .L1146
 21034               	.LM2169:
 21035 78cc CE01      		movw r24,r28
 21036 78ce 00C0      		rjmp .L1156
 21037               	.L1149:
 21038               	.LM2170:
 21039 78d0 8BE4      		ldi r24,lo8(75)
 21040 78d2 0E94 0000 		call Debug_SendByte
 21041 78d6 8823      		tst r24
 21042 78d8 01F0      		breq .L1146
 21043               	.LM2171:
 21044 78da 80E0      		ldi r24,lo8(0)
 21045 78dc 0E94 0000 		call Debug_SendByte
 21046 78e0 8823      		tst r24
 21047 78e2 01F0      		breq .L1146
 21048               	.LM2172:
 21049 78e4 80E0      		ldi r24,lo8(.LC14)
 21050 78e6 90E0      		ldi r25,hi8(.LC14)
 21051               	.L1156:
 21052 78e8 61E0      		ldi r22,lo8(1)
 21053 78ea 0E94 0000 		call Debug_SendString
 21054 78ee 8823      		tst r24
 21055 78f0 01F0      		breq .L1148
 21056 78f2 81E0      		ldi r24,lo8(1)
 21057 78f4 00C0      		rjmp .L1148
 21058               	.L1146:
 21059 78f6 80E0      		ldi r24,lo8(0)
 21060               	.L1148:
 21061               	/* epilogue start */
 21062               	.LM2173:
 21063 78f8 DF91      		pop r29
 21064 78fa CF91      		pop r28
 21065 78fc 0895      		ret
 21066               	.LFE129:
 21068               	.global	Uploader_sendAuthType
 21070               	Uploader_sendAuthType:
 21071               	.LFB128:
 21072               	.LM2174:
 21073 78fe CF93      		push r28
 21074 7900 DF93      		push r29
 21075               	/* prologue: function */
 21076               	/* frame size = 0 */
 21077               	.LM2175:
 21078 7902 8091 0000 		lds r24,authRead
 21079 7906 8823      		tst r24
 21080 7908 01F0      		breq .L1161
 21081               	.LM2176:
 21082 790a E0E0      		ldi r30,lo8(auth)
 21083 790c F0E0      		ldi r31,hi8(auth)
 21084 790e 0190      		ld __tmp_reg__,Z+
 21085 7910 0020      		tst __tmp_reg__
 21086 7912 01F4      		brne .-6
 21087 7914 3297      		sbiw r30,2
 21088 7916 8081      		ld r24,Z
 21089 7918 8032      		cpi r24,lo8(32)
 21090 791a 00F4      		brsh .L1162
 21091               	.LM2177:
 21092 791c 1082      		st Z,__zero_reg__
 21093               	.L1162:
 21094               	.LM2178:
 21095 791e 81E4      		ldi r24,lo8(65)
 21096 7920 0E94 0000 		call Debug_SendByte
 21097 7924 8823      		tst r24
 21098 7926 01F0      		breq .L1163
 21099               	.LM2179:
 21100 7928 C0E0      		ldi r28,lo8(auth)
 21101 792a D0E0      		ldi r29,hi8(auth)
 21102 792c FE01      		movw r30,r28
 21103 792e 0190      		ld __tmp_reg__,Z+
 21104 7930 0020      		tst __tmp_reg__
 21105 7932 01F4      		brne .-6
 21106 7934 3197      		sbiw r30,1
 21107 7936 EC1B      		sub r30,r28
 21108 7938 FD0B      		sbc r31,r29
 21109 793a 8E2F      		mov r24,r30
 21110 793c 8E5F      		subi r24,lo8(-(2))
 21111 793e 0E94 0000 		call Debug_SendByte
 21112 7942 8823      		tst r24
 21113 7944 01F0      		breq .L1163
 21114               	.LM2180:
 21115 7946 CE01      		movw r24,r28
 21116 7948 00C0      		rjmp .L1169
 21117               	.L1161:
 21118               	.LM2181:
 21119 794a 81E4      		ldi r24,lo8(65)
 21120 794c 0E94 0000 		call Debug_SendByte
 21121 7950 8823      		tst r24
 21122 7952 01F0      		breq .L1163
 21123               	.LM2182:
 21124 7954 80E0      		ldi r24,lo8(0)
 21125 7956 0E94 0000 		call Debug_SendByte
 21126 795a 8823      		tst r24
 21127 795c 01F0      		breq .L1163
 21128               	.LM2183:
 21129 795e 80E0      		ldi r24,lo8(.LC14)
 21130 7960 90E0      		ldi r25,hi8(.LC14)
 21131               	.L1169:
 21132 7962 61E0      		ldi r22,lo8(1)
 21133 7964 0E94 0000 		call Debug_SendString
 21134 7968 8823      		tst r24
 21135 796a 01F0      		breq .L1165
 21136 796c 81E0      		ldi r24,lo8(1)
 21137 796e 00C0      		rjmp .L1165
 21138               	.L1163:
 21139 7970 80E0      		ldi r24,lo8(0)
 21140               	.L1165:
 21141               	/* epilogue start */
 21142               	.LM2184:
 21143 7972 DF91      		pop r29
 21144 7974 CF91      		pop r28
 21145 7976 0895      		ret
 21146               	.LFE128:
 21148               	.global	Uploader_sendSSID
 21150               	Uploader_sendSSID:
 21151               	.LFB127:
 21152               	.LM2185:
 21153 7978 CF93      		push r28
 21154 797a DF93      		push r29
 21155               	/* prologue: function */
 21156               	/* frame size = 0 */
 21157               	.LM2186:
 21158 797c 8091 0000 		lds r24,ssidRead
 21159 7980 8823      		tst r24
 21160 7982 01F0      		breq .L1171
 21161               	.LM2187:
 21162 7984 E0E0      		ldi r30,lo8(ssid)
 21163 7986 F0E0      		ldi r31,hi8(ssid)
 21164 7988 0190      		ld __tmp_reg__,Z+
 21165 798a 0020      		tst __tmp_reg__
 21166 798c 01F4      		brne .-6
 21167 798e 3297      		sbiw r30,2
 21168 7990 8081      		ld r24,Z
 21169 7992 8032      		cpi r24,lo8(32)
 21170 7994 00F4      		brsh .L1172
 21171               	.LM2188:
 21172 7996 1082      		st Z,__zero_reg__
 21173               	.L1172:
 21174               	.LM2189:
 21175 7998 83E5      		ldi r24,lo8(83)
 21176 799a 0E94 0000 		call Debug_SendByte
 21177 799e 8823      		tst r24
 21178 79a0 01F0      		breq .L1173
 21179               	.LM2190:
 21180 79a2 C0E0      		ldi r28,lo8(ssid)
 21181 79a4 D0E0      		ldi r29,hi8(ssid)
 21182 79a6 FE01      		movw r30,r28
 21183 79a8 0190      		ld __tmp_reg__,Z+
 21184 79aa 0020      		tst __tmp_reg__
 21185 79ac 01F4      		brne .-6
 21186 79ae 3197      		sbiw r30,1
 21187 79b0 EC1B      		sub r30,r28
 21188 79b2 FD0B      		sbc r31,r29
 21189 79b4 8E2F      		mov r24,r30
 21190 79b6 8E5F      		subi r24,lo8(-(2))
 21191 79b8 0E94 0000 		call Debug_SendByte
 21192 79bc 8823      		tst r24
 21193 79be 01F0      		breq .L1173
 21194               	.LM2191:
 21195 79c0 CE01      		movw r24,r28
 21196 79c2 00C0      		rjmp .L1179
 21197               	.L1171:
 21198               	.LM2192:
 21199 79c4 83E5      		ldi r24,lo8(83)
 21200 79c6 0E94 0000 		call Debug_SendByte
 21201 79ca 8823      		tst r24
 21202 79cc 01F0      		breq .L1173
 21203               	.LM2193:
 21204 79ce 80E0      		ldi r24,lo8(0)
 21205 79d0 0E94 0000 		call Debug_SendByte
 21206 79d4 8823      		tst r24
 21207 79d6 01F0      		breq .L1173
 21208               	.LM2194:
 21209 79d8 80E0      		ldi r24,lo8(.LC14)
 21210 79da 90E0      		ldi r25,hi8(.LC14)
 21211               	.L1179:
 21212 79dc 61E0      		ldi r22,lo8(1)
 21213 79de 0E94 0000 		call Debug_SendString
 21214 79e2 8823      		tst r24
 21215 79e4 01F0      		breq .L1175
 21216 79e6 81E0      		ldi r24,lo8(1)
 21217 79e8 00C0      		rjmp .L1175
 21218               	.L1173:
 21219 79ea 80E0      		ldi r24,lo8(0)
 21220               	.L1175:
 21221               	/* epilogue start */
 21222               	.LM2195:
 21223 79ec DF91      		pop r29
 21224 79ee CF91      		pop r28
 21225 79f0 0895      		ret
 21226               	.LFE127:
 21228               		.data
 21229               	.LC15:
 21230 007d 2E42 5400 		.string	".BT"
 21231               		.text
 21232               	.global	Uploader_sendFilename
 21234               	Uploader_sendFilename:
 21235               	.LFB132:
 21236               	.LM2196:
 21237 79f2 1F93      		push r17
 21238               	/* prologue: function */
 21239               	/* frame size = 0 */
 21240               	.LM2197:
 21241 79f4 86E4      		ldi r24,lo8(70)
 21242 79f6 0E94 0000 		call Debug_SendByte
 21243 79fa 8823      		tst r24
 21244 79fc 01F4      		brne .+2
 21245 79fe 00C0      		rjmp .L1181
 21246               	.LM2198:
 21247 7a00 81E0      		ldi r24,lo8(1)
 21248 7a02 8093 0000 		sts okToOpenDirectory,r24
 21249               	.L1182:
 21250               	.LM2199:
 21251 7a06 8091 0000 		lds r24,okToOpenDirectory
 21252 7a0a 8823      		tst r24
 21253 7a0c 01F4      		brne .L1182
 21254               	.LM2200:
 21255 7a0e 11E0      		ldi r17,lo8(1)
 21256               	.L1194:
 21257 7a10 1093 0000 		sts okToGrabNextFileName,r17
 21258               	.L1183:
 21259               	.LM2201:
 21260 7a14 8091 0000 		lds r24,okToGrabNextFileName
 21261 7a18 8823      		tst r24
 21262 7a1a 01F4      		brne .L1183
 21263               	.LM2202:
 21264 7a1c 8091 0000 		lds r24,availableFileName
 21265 7a20 8823      		tst r24
 21266 7a22 01F4      		brne .L1184
 21267               	.LM2203:
 21268 7a24 80E0      		ldi r24,lo8(.LC14)
 21269 7a26 90E0      		ldi r25,hi8(.LC14)
 21270 7a28 61E0      		ldi r22,lo8(1)
 21271 7a2a 0E94 0000 		call Debug_SendString
 21272 7a2e 8823      		tst r24
 21273 7a30 01F0      		breq .L1186
 21274 7a32 81E0      		ldi r24,lo8(1)
 21275 7a34 00C0      		rjmp .L1186
 21276               	.L1184:
 21277               	.LM2204:
 21278 7a36 8091 0000 		lds r24,recording
 21279 7a3a 8823      		tst r24
 21280 7a3c 01F0      		breq .L1187
 21281               	.LM2205:
 21282 7a3e 80E0      		ldi r24,lo8(currentLogFile)
 21283 7a40 90E0      		ldi r25,hi8(currentLogFile)
 21284 7a42 60E0      		ldi r22,lo8(availableFileName)
 21285 7a44 70E0      		ldi r23,hi8(availableFileName)
 21286 7a46 0E94 0000 		call strcasecmp
 21287 7a4a 892B      		or r24,r25
 21288 7a4c 01F0      		breq .L1194
 21289               	.LM2206:
 21290 7a4e 80E0      		ldi r24,lo8(availableFileName)
 21291 7a50 90E0      		ldi r25,hi8(availableFileName)
 21292 7a52 60E0      		ldi r22,lo8(.LC15)
 21293 7a54 70E0      		ldi r23,hi8(.LC15)
 21294 7a56 0E94 0000 		call strcasestr
 21295 7a5a 00C0      		rjmp .L1199
 21296               	.L1187:
 21297               	.LM2207:
 21298 7a5c 80E0      		ldi r24,lo8(availableFileName)
 21299 7a5e 90E0      		ldi r25,hi8(availableFileName)
 21300 7a60 60E0      		ldi r22,lo8(.LC15)
 21301 7a62 70E0      		ldi r23,hi8(.LC15)
 21302 7a64 0E94 0000 		call strcasestr
 21303               	.L1199:
 21304 7a68 892B      		or r24,r25
 21305 7a6a 01F0      		breq .L1194
 21306               	.LM2208:
 21307 7a6c 80E0      		ldi r24,lo8(availableFileName)
 21308 7a6e 90E0      		ldi r25,hi8(availableFileName)
 21309 7a70 60E0      		ldi r22,lo8(0)
 21310 7a72 0E94 0000 		call Debug_SendString
 21311 7a76 8823      		tst r24
 21312 7a78 01F0      		breq .L1181
 21313               	.LM2209:
 21314 7a7a 8CE2      		ldi r24,lo8(44)
 21315 7a7c 0E94 0000 		call Debug_SendByte
 21316 7a80 8823      		tst r24
 21317 7a82 01F4      		brne .L1194
 21318               	.L1181:
 21319 7a84 80E0      		ldi r24,lo8(0)
 21320               	.L1186:
 21321               	/* epilogue start */
 21322               	.LM2210:
 21323 7a86 1F91      		pop r17
 21324 7a88 0895      		ret
 21325               	.LFE132:
 21327               	.global	Uploader_Update
 21329               	Uploader_Update:
 21330               	.LFB124:
 21331               	.LM2211:
 21332               	/* prologue: function */
 21333               	/* frame size = 0 */
 21334               	.LM2212:
 21335 7a8a 0E94 0000 		call Debug_CharReadyToRead
 21336 7a8e 8823      		tst r24
 21337 7a90 01F4      		brne .+2
 21338 7a92 00C0      		rjmp .L1201
 21339               	.LM2213:
 21340 7a94 1092 0000 		sts timeOutCounter,__zero_reg__
 21341 7a98 1092 0000 		sts (timeOutCounter)+1,__zero_reg__
 21342               	.LM2214:
 21343 7a9c 80E0      		ldi r24,lo8(0)
 21344 7a9e 0E94 0000 		call Debug_GetByte
 21345 7aa2 8093 0000 		sts command,r24
 21346               	.LM2215:
 21347 7aa6 8435      		cpi r24,lo8(84)
 21348 7aa8 01F4      		brne .L1202
 21349               	.LM2216:
 21350 7aaa 0E94 0000 		call Uploader_getTime
 21351 7aae 8823      		tst r24
 21352 7ab0 01F0      		breq .L1203
 21353               	.LBB866:
 21354               	.LBB867:
 21355               	.LM2217:
 21356 7ab2 8091 2104 		lds r24,1057
 21357 7ab6 8061      		ori r24,lo8(16)
 21358 7ab8 E0E2      		ldi r30,lo8(1056)
 21359 7aba F4E0      		ldi r31,hi8(1056)
 21360 7abc 8183      		std Z+1,r24
 21361               	.L1204:
 21362               	.LM2218:
 21363 7abe 8091 2104 		lds r24,1057
 21364 7ac2 84FD      		sbrc r24,4
 21365 7ac4 00C0      		rjmp .L1204
 21366               	.LM2219:
 21367 7ac6 8091 2404 		lds r24,1060
 21368 7aca 9091 2504 		lds r25,(1060)+1
 21369 7ace A091 2604 		lds r26,(1060)+2
 21370 7ad2 B091 2704 		lds r27,(1060)+3
 21371               	.LBE867:
 21372               	.LBE866:
 21373               	.LM2220:
 21374 7ad6 8093 0000 		sts UNIX_Time,r24
 21375 7ada 9093 0000 		sts (UNIX_Time)+1,r25
 21376 7ade A093 0000 		sts (UNIX_Time)+2,r26
 21377 7ae2 B093 0000 		sts (UNIX_Time)+3,r27
 21378               	.LM2221:
 21379 7ae6 81E0      		ldi r24,lo8(1)
 21380 7ae8 8093 0000 		sts timeIsValid,r24
 21381 7aec 00C0      		rjmp .L1201
 21382               	.L1203:
 21383               	.LM2222:
 21384 7aee 1092 0000 		sts timeIsValid,__zero_reg__
 21385 7af2 00C0      		rjmp .L1207
 21386               	.L1202:
 21387               	.LM2223:
 21388 7af4 8335      		cpi r24,lo8(83)
 21389 7af6 01F4      		brne .L1206
 21390               	.LM2224:
 21391 7af8 0E94 0000 		call Uploader_sendSSID
 21392 7afc 00C0      		rjmp .L1221
 21393               	.L1206:
 21394               	.LM2225:
 21395 7afe 8134      		cpi r24,lo8(65)
 21396 7b00 01F4      		brne .L1208
 21397               	.LM2226:
 21398 7b02 0E94 0000 		call Uploader_sendAuthType
 21399 7b06 00C0      		rjmp .L1221
 21400               	.L1208:
 21401               	.LM2227:
 21402 7b08 8B34      		cpi r24,lo8(75)
 21403 7b0a 01F4      		brne .L1209
 21404               	.LM2228:
 21405 7b0c 0E94 0000 		call Uploader_sendKey
 21406 7b10 00C0      		rjmp .L1221
 21407               	.L1209:
 21408               	.LM2229:
 21409 7b12 8535      		cpi r24,lo8(85)
 21410 7b14 01F4      		brne .L1210
 21411               	.LM2230:
 21412 7b16 0E94 0000 		call Uploader_sendUser
 21413 7b1a 00C0      		rjmp .L1221
 21414               	.L1210:
 21415               	.LM2231:
 21416 7b1c 8E34      		cpi r24,lo8(78)
 21417 7b1e 01F4      		brne .L1211
 21418               	.LM2232:
 21419 7b20 0E94 0000 		call Uploader_sendNickname
 21420 7b24 00C0      		rjmp .L1221
 21421               	.L1211:
 21422               	.LM2233:
 21423 7b26 8634      		cpi r24,lo8(70)
 21424 7b28 01F4      		brne .L1212
 21425               	.LM2234:
 21426 7b2a 0E94 0000 		call Uploader_sendFilename
 21427 7b2e 00C0      		rjmp .L1221
 21428               	.L1212:
 21429               	.LM2235:
 21430 7b30 8434      		cpi r24,lo8(68)
 21431 7b32 01F4      		brne .L1213
 21432               	.LM2236:
 21433 7b34 0E94 0000 		call Uploader_uploadFile
 21434 7b38 00C0      		rjmp .L1221
 21435               	.L1213:
 21436               	.LM2237:
 21437 7b3a 8534      		cpi r24,lo8(69)
 21438 7b3c 01F4      		brne .L1214
 21439               	.LM2238:
 21440 7b3e 0E94 0000 		call Uploader_eraseFile
 21441 7b42 00C0      		rjmp .L1221
 21442               	.L1214:
 21443               	.LM2239:
 21444 7b44 8635      		cpi r24,lo8(86)
 21445 7b46 01F4      		brne .L1215
 21446               	.LM2240:
 21447 7b48 0E94 0000 		call Uploader_sendServer
 21448 7b4c 00C0      		rjmp .L1221
 21449               	.L1215:
 21450               	.LM2241:
 21451 7b4e 8F34      		cpi r24,lo8(79)
 21452 7b50 01F4      		brne .L1216
 21453               	.LM2242:
 21454 7b52 0E94 0000 		call Uploader_sendPort
 21455               	.L1221:
 21456 7b56 8823      		tst r24
 21457 7b58 01F4      		brne .L1201
 21458 7b5a 00C0      		rjmp .L1207
 21459               	.L1216:
 21460               	.LM2243:
 21461 7b5c 8235      		cpi r24,lo8(82)
 21462 7b5e 01F4      		brne .L1201
 21463               	.LBB868:
 21464               	.LBB869:
 21465               	.LBB870:
 21466               	.LBB871:
 21467               	.LM2244:
 21468 7b60 80E0      		ldi r24,lo8(18432)
 21469 7b62 98E4      		ldi r25,hi8(18432)
 21470               	.LVL1550:
 21471               	/* #APP */
 21472               	 ;  105 "/usr/local/CrossPack-AVR-20100115/lib/gcc/avr/4.3.3/../../../../avr/include/util/delay_bas
 21473 7b64 0197      		1: sbiw r24,1
 21474 7b66 01F4      		brne 1b
 21475               	 ;  0 "" 2
 21476               	/* #NOAPP */
 21477               	.LBE871:
 21478               	.LBE870:
 21479               	.LBE869:
 21480               	.LBE868:
 21481               	.LM2245:
 21482 7b68 82E5      		ldi r24,lo8(82)
 21483               	.LVL1551:
 21484 7b6a 0E94 0000 		call Debug_SendByte
 21485 7b6e 00C0      		rjmp .L1207
 21486               	.L1201:
 21487               	.LBB872:
 21488               	.LBB873:
 21489               	.LBB874:
 21490               	.LBB875:
 21491               	.LM2246:
 21492 7b70 86E6      		ldi r24,lo8(3686)
 21493 7b72 9EE0      		ldi r25,hi8(3686)
 21494               	.LVL1552:
 21495               	/* #APP */
 21496               	 ;  105 "/usr/local/CrossPack-AVR-20100115/lib/gcc/avr/4.3.3/../../../../avr/include/util/delay_bas
 21497 7b74 0197      		1: sbiw r24,1
 21498 7b76 01F4      		brne 1b
 21499               	 ;  0 "" 2
 21500               	/* #NOAPP */
 21501               	.LBE875:
 21502               	.LBE874:
 21503               	.LBE873:
 21504               	.LBE872:
 21505               	.LM2247:
 21506 7b78 8091 0000 		lds r24,timeOutCounter
 21507 7b7c 9091 0000 		lds r25,(timeOutCounter)+1
 21508               	.LVL1553:
 21509 7b80 0196      		adiw r24,1
 21510 7b82 8093 0000 		sts timeOutCounter,r24
 21511 7b86 9093 0000 		sts (timeOutCounter)+1,r25
 21512               	.LM2248:
 21513 7b8a 8091 0000 		lds r24,timeOutCounter
 21514 7b8e 9091 0000 		lds r25,(timeOutCounter)+1
 21515 7b92 20E0      		ldi r18,lo8(0)
 21516 7b94 8153      		subi r24,lo8(30001)
 21517 7b96 9547      		sbci r25,hi8(30001)
 21518 7b98 00F4      		brsh .L1205
 21519 7b9a 21E0      		ldi r18,lo8(1)
 21520 7b9c 00C0      		rjmp .L1205
 21521               	.L1207:
 21522 7b9e 20E0      		ldi r18,lo8(0)
 21523               	.L1205:
 21524               	.LM2249:
 21525 7ba0 822F      		mov r24,r18
 21526               	/* epilogue start */
 21527 7ba2 0895      		ret
 21528               	.LFE124:
 21530               		.data
 21531               	.LC16:
 21532 0081 2E62 7400 		.string	".bt"
 21533               		.text
 21534               	.global	SD_MakeFileName
 21536               	SD_MakeFileName:
 21537               	.LFB98:
 21538               	.LM2250:
 21539               	.LVL1554:
 21540 7ba4 0F93      		push r16
 21541 7ba6 1F93      		push r17
 21542               	/* prologue: function */
 21543               	/* frame size = 0 */
 21544               	.LM2251:
 21545 7ba8 00E0      		ldi r16,lo8(fileName)
 21546 7baa 10E0      		ldi r17,hi8(fileName)
 21547 7bac 2FE2      		ldi r18,lo8(47)
 21548 7bae 2093 0000 		sts fileName,r18
 21549               	.LM2252:
 21550 7bb2 A801      		movw r20,r16
 21551 7bb4 4F5F      		subi r20,lo8(-(1))
 21552 7bb6 5F4F      		sbci r21,hi8(-(1))
 21553 7bb8 20E1      		ldi r18,lo8(16)
 21554 7bba 30E0      		ldi r19,hi8(16)
 21555 7bbc 0E94 0000 		call ltoa
 21556               	.LVL1555:
 21557               	.LM2253:
 21558 7bc0 C801      		movw r24,r16
 21559 7bc2 60E0      		ldi r22,lo8(.LC16)
 21560 7bc4 70E0      		ldi r23,hi8(.LC16)
 21561 7bc6 0E94 0000 		call strcat
 21562               	/* epilogue start */
 21563               	.LM2254:
 21564 7bca 1F91      		pop r17
 21565 7bcc 0F91      		pop r16
 21566 7bce 0895      		ret
 21567               	.LFE98:
 21569               	.global	SD_Open
 21571               	SD_Open:
 21572               	.LFB88:
 21573               	.LM2255:
 21574               	.LVL1556:
 21575 7bd0 CF93      		push r28
 21576 7bd2 DF93      		push r29
 21577               	/* prologue: function */
 21578               	/* frame size = 0 */
 21579 7bd4 EC01      		movw r28,r24
 21580               	.LM2256:
 21581 7bd6 80E0      		ldi r24,lo8(currentLogFile)
 21582 7bd8 90E0      		ldi r25,hi8(currentLogFile)
 21583               	.LVL1557:
 21584 7bda BE01      		movw r22,r28
 21585 7bdc 0E94 0000 		call strcpy
 21586               	.LM2257:
 21587 7be0 80E0      		ldi r24,lo8(currentLogFile)
 21588 7be2 90E0      		ldi r25,hi8(currentLogFile)
 21589 7be4 0E94 0000 		call strupr
 21590 7be8 21E0      		ldi r18,lo8(1)
 21591               	.LVL1558:
 21592               	.LBB876:
 21593               	.LM2258:
 21594 7bea A0E0      		ldi r26,lo8(currentLogFile)
 21595 7bec B0E0      		ldi r27,hi8(currentLogFile)
 21596 7bee 00C0      		rjmp .L1239
 21597               	.LVL1559:
 21598               	.L1240:
 21599               	.LM2259:
 21600 7bf0 FC01      		movw r30,r24
 21601 7bf2 E050      		subi r30,lo8(-(currentLogFile))
 21602 7bf4 F040      		sbci r31,hi8(-(currentLogFile))
 21603 7bf6 8081      		ld r24,Z
 21604               	.LVL1560:
 21605 7bf8 3197      		sbiw r30,1
 21606 7bfa 8083      		st Z,r24
 21607               	.LM2260:
 21608 7bfc 2F5F      		subi r18,lo8(-(1))
 21609               	.L1239:
 21610 7bfe FD01      		movw r30,r26
 21611 7c00 0190      		ld __tmp_reg__,Z+
 21612 7c02 0020      		tst __tmp_reg__
 21613 7c04 01F4      		brne .-6
 21614 7c06 3197      		sbiw r30,1
 21615 7c08 E050      		subi r30,lo8(currentLogFile)
 21616 7c0a F040      		sbci r31,hi8(currentLogFile)
 21617 7c0c 822F      		mov r24,r18
 21618 7c0e 90E0      		ldi r25,lo8(0)
 21619 7c10 8E17      		cp r24,r30
 21620 7c12 9F07      		cpc r25,r31
 21621 7c14 00F0      		brlo .L1240
 21622               	.LVL1561:
 21623               	.LBE876:
 21624               	.LM2261:
 21625 7c16 E050      		subi r30,lo8(-(currentLogFile-1))
 21626 7c18 F040      		sbci r31,hi8(-(currentLogFile-1))
 21627 7c1a 1082      		st Z,__zero_reg__
 21628               	.LM2262:
 21629 7c1c 80E0      		ldi r24,lo8(Log_File)
 21630 7c1e 90E0      		ldi r25,hi8(Log_File)
 21631               	.LVL1562:
 21632 7c20 BE01      		movw r22,r28
 21633 7c22 43E1      		ldi r20,lo8(19)
 21634 7c24 0E94 0000 		call f_open
 21635               	.LVL1563:
 21636               	/* epilogue start */
 21637               	.LM2263:
 21638 7c28 DF91      		pop r29
 21639 7c2a CF91      		pop r28
 21640               	.LVL1564:
 21641 7c2c 0895      		ret
 21642               	.LFE88:
 21644               		.data
 21645               	.LC17:
 21646 0085 6465 7669 		.string	"device_class"
 21646      6365 5F63 
 21646      6C61 7373 
 21646      00
 21647               	.LC18:
 21648 0092 4368 6573 		.string	"ChestStrap"
 21648      7453 7472 
 21648      6170 00
 21649               	.LC19:
 21650 009d 6465 7669 		.string	"device_id"
 21650      6365 5F69 
 21650      6400 
 21651               	.LC20:
 21652 00a7 6669 726D 		.string	"firmware_version"
 21652      7761 7265 
 21652      5F76 6572 
 21652      7369 6F6E 
 21652      00
 21653               	.LC21:
 21654 00b8 332E 3035 		.string	"3.05"
 21654      00
 21655               	.LC22:
 21656 00bd 6861 7264 		.string	"hardware_version"
 21656      7761 7265 
 21656      5F76 6572 
 21656      7369 6F6E 
 21656      00
 21657               	.LC23:
 21658 00ce 3300      		.string	"3"
 21659               	.LC24:
 21660 00d0 6368 616E 		.string	"channel_specs"
 21660      6E65 6C5F 
 21660      7370 6563 
 21660      7300 
 21661               	.LC25:
 21662 00de 7B22 5465 		.string	"{\"Temperature\":{\"units\": \"bits\", \"scale\": 1},"
 21662      6D70 6572 
 21662      6174 7572 
 21662      6522 3A7B 
 21662      2275 6E69 
 21663               	.LC26:
 21664 010c 2252 6573 		.string	"\"Respiration\":{\"units\": \"bits\", \"scale\": 1},"
 21664      7069 7261 
 21664      7469 6F6E 
 21664      223A 7B22 
 21664      756E 6974 
 21665               	.LC27:
 21666 0139 2245 4B47 		.string	"\"EKG\":{\"units\": \"bits\", \"scale\": -1},"
 21666      223A 7B22 
 21666      756E 6974 
 21666      7322 3A20 
 21666      2262 6974 
 21667               	.LC28:
 21668 015f 2248 756D 		.string	"\"Humidity\":{\"units\": \"%RH\", \"scale\": 0.1},"
 21668      6964 6974 
 21668      7922 3A7B 
 21668      2275 6E69 
 21668      7473 223A 
 21669               	.LC29:
 21670 018a 2241 6363 		.string	"\"Accel_X\":{\"units\": \"bits\", \"offset\": -1024, \"scale\": 0.004},"
 21670      656C 5F58 
 21670      223A 7B22 
 21670      756E 6974 
 21670      7322 3A20 
 21671               	.LC30:
 21672 01c8 2241 6363 		.string	"\"Accel_Y\":{\"units\": \"bits\", \"offset\": -1024, \"scale\": 0.004},"
 21672      656C 5F59 
 21672      223A 7B22 
 21672      756E 6974 
 21672      7322 3A20 
 21673               	.LC31:
 21674 0206 2241 6363 		.string	"\"Accel_Z\":{\"units\": \"bits\", \"offset\": -1024, \"scale\": 0.004}}"
 21674      656C 5F5A 
 21674      223A 7B22 
 21674      756E 6974 
 21674      7322 3A20 
 21675               		.text
 21676               	.global	SD_StartLogFile
 21678               	SD_StartLogFile:
 21679               	.LFB151:
 21680               	.LM2264:
 21681               	.LVL1565:
 21682 7c2e FF92      		push r15
 21683 7c30 0F93      		push r16
 21684 7c32 1F93      		push r17
 21685 7c34 CF93      		push r28
 21686 7c36 DF93      		push r29
 21687               	/* prologue: function */
 21688               	/* frame size = 0 */
 21689               	.LM2265:
 21690 7c38 00E0      		ldi r16,lo8(deviceID)
 21691 7c3a 10E0      		ldi r17,hi8(deviceID)
 21692 7c3c E801      		movw r28,r16
 21693 7c3e 0990      		ld __tmp_reg__,Y+
 21694 7c40 0020      		tst __tmp_reg__
 21695 7c42 01F4      		brne .-6
 21696 7c44 2197      		sbiw r28,1
 21697 7c46 C01B      		sub r28,r16
 21698 7c48 D10B      		sbc r29,r17
 21699               	.LM2266:
 21700 7c4a 0E94 0000 		call SD_MakeFileName
 21701               	.LVL1566:
 21702               	.LM2267:
 21703 7c4e 80E0      		ldi r24,lo8(fileName)
 21704 7c50 90E0      		ldi r25,hi8(fileName)
 21705 7c52 0E94 0000 		call SD_Open
 21706 7c56 F82E      		mov r15,r24
 21707               	.LVL1567:
 21708               	.LM2268:
 21709 7c58 8823      		tst r24
 21710 7c5a 01F0      		breq .+2
 21711 7c5c 00C0      		rjmp .L1246
 21712               	.LVL1568:
 21713               	.L1243:
 21714               	.LBB877:
 21715               	.LBB878:
 21716               	.LM2269:
 21717 7c5e 8FEF      		ldi r24,lo8(-1)
 21718 7c60 9FEF      		ldi r25,hi8(-1)
 21719 7c62 AFEF      		ldi r26,hlo8(-1)
 21720 7c64 BFEF      		ldi r27,hhi8(-1)
 21721               	.LVL1569:
 21722 7c66 8093 0000 		sts CRC,r24
 21723 7c6a 9093 0000 		sts (CRC)+1,r25
 21724 7c6e A093 0000 		sts (CRC)+2,r26
 21725 7c72 B093 0000 		sts (CRC)+3,r27
 21726               	.LBE878:
 21727               	.LBE877:
 21728               	.LM2270:
 21729 7c76 6CE4      		ldi r22,lo8(-1327598516)
 21730 7c78 74E7      		ldi r23,hi8(-1327598516)
 21731 7c7a 8EED      		ldi r24,hlo8(-1327598516)
 21732 7c7c 90EB      		ldi r25,hhi8(-1327598516)
 21733 7c7e 0E94 0000 		call SD_Write32
 21734               	.LM2271:
 21735 7c82 BE01      		movw r22,r28
 21736 7c84 6A52      		subi r22,lo8(-(470))
 21737 7c86 7E4F      		sbci r23,hi8(-(470))
 21738 7c88 80E0      		ldi r24,lo8(0)
 21739 7c8a 90E0      		ldi r25,hi8(0)
 21740 7c8c 0E94 0000 		call SD_Write32
 21741               	.LM2272:
 21742 7c90 81E0      		ldi r24,lo8(1)
 21743 7c92 90E0      		ldi r25,hi8(1)
 21744 7c94 0E94 0000 		call SD_Write16
 21745               	.LM2273:
 21746 7c98 80E0      		ldi r24,lo8(256)
 21747 7c9a 91E0      		ldi r25,hi8(256)
 21748 7c9c 0E94 0000 		call SD_Write16
 21749               	.LM2274:
 21750 7ca0 82E0      		ldi r24,lo8(2)
 21751 7ca2 0E94 0000 		call SD_Write8
 21752               	.LM2275:
 21753 7ca6 0E94 0000 		call Time_Get32BitTimer
 21754 7caa 0E94 0000 		call SD_Write32
 21755               	.LM2276:
 21756 7cae 67E4      		ldi r22,lo8(542535)
 21757 7cb0 77E4      		ldi r23,hi8(542535)
 21758 7cb2 88E0      		ldi r24,hlo8(542535)
 21759 7cb4 90E0      		ldi r25,hhi8(542535)
 21760 7cb6 0E94 0000 		call SD_Write32
 21761               	.LM2277:
 21762 7cba 80E0      		ldi r24,lo8(0)
 21763 7cbc 90E0      		ldi r25,hi8(0)
 21764 7cbe 0E94 0000 		call SD_Write16
 21765               	.LM2278:
 21766 7cc2 80E0      		ldi r24,lo8(.LC17)
 21767 7cc4 90E0      		ldi r25,hi8(.LC17)
 21768 7cc6 0E94 0000 		call SD_WriteString
 21769               	.LM2279:
 21770 7cca 89E0      		ldi r24,lo8(9)
 21771 7ccc 0E94 0000 		call SD_Write8
 21772               	.LM2280:
 21773 7cd0 80E0      		ldi r24,lo8(.LC18)
 21774 7cd2 90E0      		ldi r25,hi8(.LC18)
 21775 7cd4 0E94 0000 		call SD_WriteString
 21776               	.LM2281:
 21777 7cd8 8AE0      		ldi r24,lo8(10)
 21778 7cda 0E94 0000 		call SD_Write8
 21779               	.LM2282:
 21780 7cde 80E0      		ldi r24,lo8(.LC19)
 21781 7ce0 90E0      		ldi r25,hi8(.LC19)
 21782 7ce2 0E94 0000 		call SD_WriteString
 21783               	.LM2283:
 21784 7ce6 89E0      		ldi r24,lo8(9)
 21785 7ce8 0E94 0000 		call SD_Write8
 21786               	.LM2284:
 21787 7cec C801      		movw r24,r16
 21788 7cee 0E94 0000 		call SD_WriteString
 21789               	.LM2285:
 21790 7cf2 8AE0      		ldi r24,lo8(10)
 21791 7cf4 0E94 0000 		call SD_Write8
 21792               	.LM2286:
 21793 7cf8 80E0      		ldi r24,lo8(.LC20)
 21794 7cfa 90E0      		ldi r25,hi8(.LC20)
 21795 7cfc 0E94 0000 		call SD_WriteString
 21796               	.LM2287:
 21797 7d00 89E0      		ldi r24,lo8(9)
 21798 7d02 0E94 0000 		call SD_Write8
 21799               	.LM2288:
 21800 7d06 80E0      		ldi r24,lo8(.LC21)
 21801 7d08 90E0      		ldi r25,hi8(.LC21)
 21802 7d0a 0E94 0000 		call SD_WriteString
 21803               	.LM2289:
 21804 7d0e 8AE0      		ldi r24,lo8(10)
 21805 7d10 0E94 0000 		call SD_Write8
 21806               	.LM2290:
 21807 7d14 80E0      		ldi r24,lo8(.LC22)
 21808 7d16 90E0      		ldi r25,hi8(.LC22)
 21809 7d18 0E94 0000 		call SD_WriteString
 21810               	.LM2291:
 21811 7d1c 89E0      		ldi r24,lo8(9)
 21812 7d1e 0E94 0000 		call SD_Write8
 21813               	.LM2292:
 21814 7d22 80E0      		ldi r24,lo8(.LC23)
 21815 7d24 90E0      		ldi r25,hi8(.LC23)
 21816 7d26 0E94 0000 		call SD_WriteString
 21817               	.LM2293:
 21818 7d2a 8AE0      		ldi r24,lo8(10)
 21819 7d2c 0E94 0000 		call SD_Write8
 21820               	.LM2294:
 21821 7d30 80E0      		ldi r24,lo8(.LC24)
 21822 7d32 90E0      		ldi r25,hi8(.LC24)
 21823 7d34 0E94 0000 		call SD_WriteString
 21824               	.LM2295:
 21825 7d38 89E0      		ldi r24,lo8(9)
 21826 7d3a 0E94 0000 		call SD_Write8
 21827               	.LM2296:
 21828 7d3e 80E0      		ldi r24,lo8(.LC25)
 21829 7d40 90E0      		ldi r25,hi8(.LC25)
 21830 7d42 0E94 0000 		call SD_WriteString
 21831               	.LM2297:
 21832 7d46 80E0      		ldi r24,lo8(.LC26)
 21833 7d48 90E0      		ldi r25,hi8(.LC26)
 21834 7d4a 0E94 0000 		call SD_WriteString
 21835               	.LM2298:
 21836 7d4e 80E0      		ldi r24,lo8(.LC27)
 21837 7d50 90E0      		ldi r25,hi8(.LC27)
 21838 7d52 0E94 0000 		call SD_WriteString
 21839               	.LM2299:
 21840 7d56 80E0      		ldi r24,lo8(.LC28)
 21841 7d58 90E0      		ldi r25,hi8(.LC28)
 21842 7d5a 0E94 0000 		call SD_WriteString
 21843               	.LM2300:
 21844 7d5e 80E0      		ldi r24,lo8(.LC29)
 21845 7d60 90E0      		ldi r25,hi8(.LC29)
 21846 7d62 0E94 0000 		call SD_WriteString
 21847               	.LM2301:
 21848 7d66 80E0      		ldi r24,lo8(.LC30)
 21849 7d68 90E0      		ldi r25,hi8(.LC30)
 21850 7d6a 0E94 0000 		call SD_WriteString
 21851               	.LM2302:
 21852 7d6e 80E0      		ldi r24,lo8(.LC31)
 21853 7d70 90E0      		ldi r25,hi8(.LC31)
 21854 7d72 0E94 0000 		call SD_WriteString
 21855               	.LM2303:
 21856 7d76 8AE0      		ldi r24,lo8(10)
 21857 7d78 0E94 0000 		call SD_Write8
 21858               	.LM2304:
 21859 7d7c 80E0      		ldi r24,lo8(0)
 21860 7d7e 0E94 0000 		call SD_Write8
 21861               	.LM2305:
 21862 7d82 0E94 0000 		call SD_WriteCRC
 21863               	.LM2306:
 21864 7d86 80E0      		ldi r24,lo8(Log_File)
 21865 7d88 90E0      		ldi r25,hi8(Log_File)
 21866 7d8a 0E94 0000 		call f_sync
 21867 7d8e 8823      		tst r24
 21868 7d90 01F0      		breq .L1244
 21869               	.LVL1570:
 21870               	.L1246:
 21871               	.LM2307:
 21872 7d92 1092 0000 		sts sdValid,__zero_reg__
 21873               	.L1244:
 21874               	.LM2308:
 21875 7d96 8F2D      		mov r24,r15
 21876               	/* epilogue start */
 21877 7d98 DF91      		pop r29
 21878 7d9a CF91      		pop r28
 21879 7d9c 1F91      		pop r17
 21880 7d9e 0F91      		pop r16
 21881 7da0 FF90      		pop r15
 21882               	.LVL1571:
 21883 7da2 0895      		ret
 21884               	.LFE151:
 21886               		.data
 21887               	.LC32:
 21888 0244 2F00      		.string	"/"
 21889               		.text
 21890               	.global	__vector_53
 21892               	__vector_53:
 21893               	.LFB150:
 21894               	.LM2309:
 21895 7da4 1F92      		push __zero_reg__
 21896 7da6 0F92      		push r0
 21897 7da8 0FB6      		in r0,__SREG__
 21898 7daa 0F92      		push r0
 21899 7dac 0BB6      		in r0,59-0
 21900 7dae 0F92      		push r0
 21901 7db0 1124      		clr __zero_reg__
 21902 7db2 EF92      		push r14
 21903 7db4 FF92      		push r15
 21904 7db6 0F93      		push r16
 21905 7db8 1F93      		push r17
 21906 7dba 2F93      		push r18
 21907 7dbc 3F93      		push r19
 21908 7dbe 4F93      		push r20
 21909 7dc0 5F93      		push r21
 21910 7dc2 6F93      		push r22
 21911 7dc4 7F93      		push r23
 21912 7dc6 8F93      		push r24
 21913 7dc8 9F93      		push r25
 21914 7dca AF93      		push r26
 21915 7dcc BF93      		push r27
 21916 7dce EF93      		push r30
 21917 7dd0 FF93      		push r31
 21918 7dd2 DF93      		push r29
 21919 7dd4 CF93      		push r28
 21920 7dd6 0F92      		push __tmp_reg__
 21921 7dd8 0F92      		push __tmp_reg__
 21922 7dda CDB7      		in r28,__SP_L__
 21923 7ddc DEB7      		in r29,__SP_H__
 21924               	/* prologue: Signal */
 21925               	/* frame size = 2 */
 21926               	.LM2310:
 21927 7dde 8091 0000 		lds r24,recording
 21928 7de2 8823      		tst r24
 21929 7de4 01F4      		brne .+2
 21930 7de6 00C0      		rjmp .L1248
 21931               	.LBB879:
 21932               	.LM2311:
 21933 7de8 8091 0000 		lds r24,okToSendAccelBuffer
 21934 7dec 8823      		tst r24
 21935 7dee 01F0      		breq .L1249
 21936 7df0 8091 0000 		lds r24,lastAccelerometerBufferSent
 21937 7df4 8823      		tst r24
 21938 7df6 01F0      		breq .L1249
 21939               	.LM2312:
 21940 7df8 80E0      		ldi r24,lo8(0)
 21941 7dfa 0E94 0000 		call SD_WriteAccelBuffer
 21942               	.LM2313:
 21943 7dfe 1092 0000 		sts lastAccelerometerBufferSent,__zero_reg__
 21944               	.LM2314:
 21945 7e02 1092 0000 		sts okToSendAccelBuffer,__zero_reg__
 21946               	.L1249:
 21947               	.LM2315:
 21948 7e06 8091 0000 		lds r24,okToSendAccelBuffer+1
 21949 7e0a 8823      		tst r24
 21950 7e0c 01F0      		breq .L1250
 21951 7e0e 8091 0000 		lds r24,lastAccelerometerBufferSent
 21952 7e12 8130      		cpi r24,lo8(1)
 21953 7e14 01F0      		breq .L1250
 21954               	.LM2316:
 21955 7e16 81E0      		ldi r24,lo8(1)
 21956 7e18 0E94 0000 		call SD_WriteAccelBuffer
 21957               	.LM2317:
 21958 7e1c 81E0      		ldi r24,lo8(1)
 21959 7e1e 8093 0000 		sts lastAccelerometerBufferSent,r24
 21960               	.LM2318:
 21961 7e22 1092 0000 		sts okToSendAccelBuffer+1,__zero_reg__
 21962               	.L1250:
 21963 7e26 00E0      		ldi r16,lo8(0)
 21964 7e28 10E0      		ldi r17,hi8(0)
 21965               	.L1252:
 21966               	.LBE879:
 21967               	.LBB880:
 21968               	.LM2319:
 21969 7e2a F0E0      		ldi r31,lo8(okToSendEKGBuffer)
 21970 7e2c EF2E      		mov r14,r31
 21971 7e2e F0E0      		ldi r31,hi8(okToSendEKGBuffer)
 21972 7e30 FF2E      		mov r15,r31
 21973 7e32 E00E      		add r14,r16
 21974 7e34 F11E      		adc r15,r17
 21975 7e36 F701      		movw r30,r14
 21976 7e38 8081      		ld r24,Z
 21977 7e3a 8823      		tst r24
 21978 7e3c 01F0      		breq .L1251
 21979 7e3e 8091 0000 		lds r24,lastEKGBufferSent
 21980 7e42 8017      		cp r24,r16
 21981               	.LVL1572:
 21982 7e44 01F0      		breq .L1251
 21983               	.LM2320:
 21984 7e46 802F      		mov r24,r16
 21985               	.LVL1573:
 21986 7e48 0E94 0000 		call SD_WriteEKGBuffer
 21987               	.LM2321:
 21988 7e4c 0093 0000 		sts lastEKGBufferSent,r16
 21989               	.LM2322:
 21990 7e50 F701      		movw r30,r14
 21991 7e52 1082      		st Z,__zero_reg__
 21992               	.LVL1574:
 21993               	.L1251:
 21994 7e54 0F5F      		subi r16,lo8(-(1))
 21995 7e56 1F4F      		sbci r17,hi8(-(1))
 21996               	.LVL1575:
 21997               	.LM2323:
 21998 7e58 0330      		cpi r16,3
 21999 7e5a 1105      		cpc r17,__zero_reg__
 22000 7e5c 01F4      		brne .L1252
 22001 7e5e 00E0      		ldi r16,lo8(0)
 22002 7e60 10E0      		ldi r17,hi8(0)
 22003               	.L1254:
 22004               	.LBE880:
 22005               	.LBB881:
 22006               	.LM2324:
 22007 7e62 E0E0      		ldi r30,lo8(okToSendRespirationBuffer)
 22008 7e64 EE2E      		mov r14,r30
 22009 7e66 E0E0      		ldi r30,hi8(okToSendRespirationBuffer)
 22010 7e68 FE2E      		mov r15,r30
 22011 7e6a E00E      		add r14,r16
 22012 7e6c F11E      		adc r15,r17
 22013 7e6e F701      		movw r30,r14
 22014 7e70 8081      		ld r24,Z
 22015 7e72 8823      		tst r24
 22016 7e74 01F0      		breq .L1253
 22017 7e76 8091 0000 		lds r24,lastRespirationBufferSent
 22018 7e7a 8017      		cp r24,r16
 22019               	.LVL1576:
 22020 7e7c 01F0      		breq .L1253
 22021               	.LM2325:
 22022 7e7e 802F      		mov r24,r16
 22023               	.LVL1577:
 22024 7e80 0E94 0000 		call SD_WriteRespirationBuffer
 22025               	.LM2326:
 22026 7e84 0093 0000 		sts lastRespirationBufferSent,r16
 22027               	.LM2327:
 22028 7e88 F701      		movw r30,r14
 22029 7e8a 1082      		st Z,__zero_reg__
 22030               	.LVL1578:
 22031               	.L1253:
 22032 7e8c 0F5F      		subi r16,lo8(-(1))
 22033 7e8e 1F4F      		sbci r17,hi8(-(1))
 22034               	.LVL1579:
 22035               	.LM2328:
 22036 7e90 0330      		cpi r16,3
 22037 7e92 1105      		cpc r17,__zero_reg__
 22038 7e94 01F4      		brne .L1254
 22039               	.LBE881:
 22040               	.LBB882:
 22041               	.LM2329:
 22042 7e96 8091 0000 		lds r24,okToSendTemperatureBuffer
 22043 7e9a 8823      		tst r24
 22044 7e9c 01F0      		breq .L1255
 22045 7e9e 8091 0000 		lds r24,lastTemperatureBufferSent
 22046 7ea2 8823      		tst r24
 22047 7ea4 01F0      		breq .L1255
 22048               	.LM2330:
 22049 7ea6 80E0      		ldi r24,lo8(0)
 22050 7ea8 0E94 0000 		call SD_WriteTemperatureBuffer
 22051               	.LM2331:
 22052 7eac 1092 0000 		sts lastTemperatureBufferSent,__zero_reg__
 22053               	.LM2332:
 22054 7eb0 1092 0000 		sts okToSendTemperatureBuffer,__zero_reg__
 22055               	.L1255:
 22056               	.LM2333:
 22057 7eb4 8091 0000 		lds r24,okToSendTemperatureBuffer+1
 22058 7eb8 8823      		tst r24
 22059 7eba 01F0      		breq .L1256
 22060 7ebc 8091 0000 		lds r24,lastTemperatureBufferSent
 22061 7ec0 8130      		cpi r24,lo8(1)
 22062 7ec2 01F0      		breq .L1256
 22063               	.LM2334:
 22064 7ec4 81E0      		ldi r24,lo8(1)
 22065 7ec6 0E94 0000 		call SD_WriteTemperatureBuffer
 22066               	.LM2335:
 22067 7eca 81E0      		ldi r24,lo8(1)
 22068 7ecc 8093 0000 		sts lastTemperatureBufferSent,r24
 22069               	.LM2336:
 22070 7ed0 1092 0000 		sts okToSendTemperatureBuffer+1,__zero_reg__
 22071               	.L1256:
 22072               	.LBE882:
 22073               	.LBB883:
 22074               	.LM2337:
 22075 7ed4 8091 0000 		lds r24,okToSendHumidityBuffer
 22076 7ed8 8823      		tst r24
 22077 7eda 01F0      		breq .L1257
 22078 7edc 8091 0000 		lds r24,lastHumidityBufferSent
 22079 7ee0 8823      		tst r24
 22080 7ee2 01F0      		breq .L1257
 22081               	.LM2338:
 22082 7ee4 80E0      		ldi r24,lo8(0)
 22083 7ee6 0E94 0000 		call SD_WriteHumidityBuffer
 22084               	.LM2339:
 22085 7eea 1092 0000 		sts lastHumidityBufferSent,__zero_reg__
 22086               	.LM2340:
 22087 7eee 1092 0000 		sts okToSendHumidityBuffer,__zero_reg__
 22088               	.L1257:
 22089               	.LM2341:
 22090 7ef2 8091 0000 		lds r24,okToSendHumidityBuffer+1
 22091 7ef6 8823      		tst r24
 22092 7ef8 01F0      		breq .L1258
 22093 7efa 8091 0000 		lds r24,lastHumidityBufferSent
 22094 7efe 8130      		cpi r24,lo8(1)
 22095 7f00 01F0      		breq .L1258
 22096               	.LM2342:
 22097 7f02 81E0      		ldi r24,lo8(1)
 22098 7f04 0E94 0000 		call SD_WriteHumidityBuffer
 22099               	.LM2343:
 22100 7f08 81E0      		ldi r24,lo8(1)
 22101 7f0a 8093 0000 		sts lastHumidityBufferSent,r24
 22102               	.LM2344:
 22103 7f0e 1092 0000 		sts okToSendHumidityBuffer+1,__zero_reg__
 22104               	.L1258:
 22105               	.LBE883:
 22106               	.LM2345:
 22107 7f12 8091 0000 		lds r24,okToSendRTCBlock
 22108 7f16 8823      		tst r24
 22109 7f18 01F0      		breq .L1248
 22110               	.LBB884:
 22111               	.LBB885:
 22112               	.LM2346:
 22113 7f1a 8091 2104 		lds r24,1057
 22114 7f1e 8061      		ori r24,lo8(16)
 22115 7f20 E0E2      		ldi r30,lo8(1056)
 22116 7f22 F4E0      		ldi r31,hi8(1056)
 22117 7f24 8183      		std Z+1,r24
 22118               	.L1259:
 22119               	.LM2347:
 22120 7f26 8091 2104 		lds r24,1057
 22121 7f2a 84FD      		sbrc r24,4
 22122 7f2c 00C0      		rjmp .L1259
 22123               	.LM2348:
 22124 7f2e 8091 2404 		lds r24,1060
 22125 7f32 9091 2504 		lds r25,(1060)+1
 22126 7f36 A091 2604 		lds r26,(1060)+2
 22127 7f3a B091 2704 		lds r27,(1060)+3
 22128               	.LBE885:
 22129               	.LBE884:
 22130               	.LM2349:
 22131 7f3e 8093 0000 		sts UNIX_Time,r24
 22132 7f42 9093 0000 		sts (UNIX_Time)+1,r25
 22133 7f46 A093 0000 		sts (UNIX_Time)+2,r26
 22134 7f4a B093 0000 		sts (UNIX_Time)+3,r27
 22135               	.LM2350:
 22136 7f4e 0E94 0000 		call Time_Get32BitTimer
 22137 7f52 2091 0000 		lds r18,UNIX_Time
 22138 7f56 3091 0000 		lds r19,(UNIX_Time)+1
 22139 7f5a 4091 0000 		lds r20,(UNIX_Time)+2
 22140 7f5e 5091 0000 		lds r21,(UNIX_Time)+3
 22141 7f62 0E94 0000 		call SD_WriteRTCBlock
 22142               	.LM2351:
 22143 7f66 1092 0000 		sts okToSendRTCBlock,__zero_reg__
 22144               	.L1248:
 22145               	.LM2352:
 22146 7f6a 8091 0000 		lds r24,okToOpenLogFile
 22147 7f6e 8823      		tst r24
 22148 7f70 01F4      		brne .+2
 22149 7f72 00C0      		rjmp .L1260
 22150               	.LM2353:
 22151 7f74 6091 0000 		lds r22,UNIX_Time
 22152 7f78 7091 0000 		lds r23,(UNIX_Time)+1
 22153 7f7c 8091 0000 		lds r24,(UNIX_Time)+2
 22154 7f80 9091 0000 		lds r25,(UNIX_Time)+3
 22155 7f84 0E94 0000 		call SD_StartLogFile
 22156 7f88 8823      		tst r24
 22157 7f8a 01F4      		brne .L1261
 22158 7f8c 88EE      		ldi r24,lo8(1000)
 22159 7f8e 93E0      		ldi r25,hi8(1000)
 22160               	.LVL1580:
 22161               	.LBB886:
 22162               	.LBB887:
 22163               	.LBB888:
 22164               	.LBB889:
 22165               	.LM2354:
 22166 7f90 20E7      		ldi r18,lo8(368)
 22167 7f92 31E0      		ldi r19,hi8(368)
 22168               	.L1262:
 22169 7f94 F901      		movw r30,r18
 22170               	.LVL1581:
 22171               	/* #APP */
 22172               	 ;  105 "/usr/local/CrossPack-AVR-20100115/lib/gcc/avr/4.3.3/../../../../avr/include/util/delay_bas
 22173 7f96 3197      		1: sbiw r30,1
 22174 7f98 01F4      		brne 1b
 22175               	 ;  0 "" 2
 22176               	/* #NOAPP */
 22177               	.LBE889:
 22178               	.LBE888:
 22179               	.LM2355:
 22180 7f9a 0197      		sbiw r24,1
 22181               	.LM2356:
 22182 7f9c 01F4      		brne .L1262
 22183               	.LBE887:
 22184               	.LBE886:
 22185               	.LM2357:
 22186 7f9e 1092 0000 		sts lengthOfCurrentFile,__zero_reg__
 22187 7fa2 1092 0000 		sts (lengthOfCurrentFile)+1,__zero_reg__
 22188               	.LM2358:
 22189 7fa6 8091 0000 		lds r24,UNIX_Time
 22190 7faa 9091 0000 		lds r25,(UNIX_Time)+1
 22191 7fae A091 0000 		lds r26,(UNIX_Time)+2
 22192 7fb2 B091 0000 		lds r27,(UNIX_Time)+3
 22193               	.LVL1582:
 22194 7fb6 8093 0000 		sts timeRecordingStarted,r24
 22195 7fba 9093 0000 		sts (timeRecordingStarted)+1,r25
 22196 7fbe A093 0000 		sts (timeRecordingStarted)+2,r26
 22197 7fc2 B093 0000 		sts (timeRecordingStarted)+3,r27
 22198               	.LM2359:
 22199 7fc6 0E94 0000 		call Time_Get32BitTimer
 22200               	.LVL1583:
 22201 7fca 2091 0000 		lds r18,UNIX_Time
 22202 7fce 3091 0000 		lds r19,(UNIX_Time)+1
 22203 7fd2 4091 0000 		lds r20,(UNIX_Time)+2
 22204 7fd6 5091 0000 		lds r21,(UNIX_Time)+3
 22205 7fda 0E94 0000 		call SD_WriteRTCBlock
 22206               	.LM2360:
 22207 7fde 81E0      		ldi r24,lo8(1)
 22208 7fe0 8093 0000 		sts recording,r24
 22209 7fe4 00C0      		rjmp .L1263
 22210               	.L1261:
 22211               	.LM2361:
 22212 7fe6 1092 0000 		sts sdValid,__zero_reg__
 22213               	.L1263:
 22214               	.LM2362:
 22215 7fea 1092 0000 		sts okToOpenLogFile,__zero_reg__
 22216               	.L1260:
 22217               	.LM2363:
 22218 7fee 8091 0000 		lds r24,okToCloseLogFile
 22219 7ff2 8823      		tst r24
 22220 7ff4 01F0      		breq .L1264
 22221               	.LM2364:
 22222 7ff6 0E94 0000 		call SD_Close
 22223               	.LM2365:
 22224 7ffa 1092 0000 		sts okToCloseLogFile,__zero_reg__
 22225               	.L1264:
 22226               	.LM2366:
 22227 7ffe 8091 0000 		lds r24,okToOpenDirectory
 22228 8002 8823      		tst r24
 22229 8004 01F0      		breq .L1265
 22230               	.LM2367:
 22231 8006 80E0      		ldi r24,lo8(dir)
 22232 8008 90E0      		ldi r25,hi8(dir)
 22233 800a 60E0      		ldi r22,lo8(.LC32)
 22234 800c 70E0      		ldi r23,hi8(.LC32)
 22235 800e 0E94 0000 		call f_opendir
 22236 8012 8823      		tst r24
 22237 8014 01F0      		breq .L1266
 22238               	.LM2368:
 22239 8016 1092 0000 		sts sdValid,__zero_reg__
 22240               	.L1266:
 22241               	.LM2369:
 22242 801a 1092 0000 		sts okToOpenDirectory,__zero_reg__
 22243               	.L1265:
 22244               	.LM2370:
 22245 801e 8091 0000 		lds r24,okToGrabNextFileName
 22246 8022 8823      		tst r24
 22247 8024 01F0      		breq .L1267
 22248               	.LM2371:
 22249 8026 1092 0000 		sts availableFileName,__zero_reg__
 22250               	.LM2372:
 22251 802a 80E0      		ldi r24,lo8(dir)
 22252 802c 90E0      		ldi r25,hi8(dir)
 22253 802e 60E0      		ldi r22,lo8(fno)
 22254 8030 70E0      		ldi r23,hi8(fno)
 22255 8032 0E94 0000 		call f_readdir
 22256 8036 8823      		tst r24
 22257 8038 01F4      		brne .L1268
 22258               	.LM2373:
 22259 803a 8091 0000 		lds r24,fno+9
 22260 803e 8823      		tst r24
 22261 8040 01F0      		breq .L1269
 22262               	.LM2374:
 22263 8042 80E0      		ldi r24,lo8(availableFileName)
 22264 8044 90E0      		ldi r25,hi8(availableFileName)
 22265 8046 60E0      		ldi r22,lo8(fno+9)
 22266 8048 70E0      		ldi r23,hi8(fno+9)
 22267 804a 0E94 0000 		call strcpy
 22268               	.L1269:
 22269               	.LM2375:
 22270 804e 1092 0000 		sts okToGrabNextFileName,__zero_reg__
 22271 8052 00C0      		rjmp .L1267
 22272               	.L1268:
 22273               	.LBB890:
 22274               	.LBB891:
 22275               	.LM2376:
 22276 8054 8091 0000 		lds r24,sdValid
 22277               	.LBE891:
 22278               	.LBE890:
 22279               	.LM2377:
 22280 8058 8823      		tst r24
 22281 805a 01F0      		breq .L1267
 22282               	.LM2378:
 22283 805c 0E94 0000 		call SD_Init
 22284               	.LM2379:
 22285 8060 80E0      		ldi r24,lo8(dir)
 22286 8062 90E0      		ldi r25,hi8(dir)
 22287 8064 60E0      		ldi r22,lo8(.LC32)
 22288 8066 70E0      		ldi r23,hi8(.LC32)
 22289 8068 0E94 0000 		call f_opendir
 22290               	.L1267:
 22291               	.LM2380:
 22292 806c 8091 0000 		lds r24,okToOpenFileToUpload
 22293 8070 8823      		tst r24
 22294 8072 01F0      		breq .L1270
 22295               	.LM2381:
 22296 8074 80E0      		ldi r24,lo8(fileToUpload)
 22297 8076 90E0      		ldi r25,hi8(fileToUpload)
 22298 8078 60E0      		ldi r22,lo8(fno)
 22299 807a 70E0      		ldi r23,hi8(fno)
 22300 807c 0E94 0000 		call f_stat
 22301               	.LM2382:
 22302 8080 8091 0000 		lds r24,fno
 22303 8084 9091 0000 		lds r25,(fno)+1
 22304 8088 A091 0000 		lds r26,(fno)+2
 22305 808c B091 0000 		lds r27,(fno)+3
 22306 8090 8093 0000 		sts uploadFileSize,r24
 22307 8094 9093 0000 		sts (uploadFileSize)+1,r25
 22308 8098 A093 0000 		sts (uploadFileSize)+2,r26
 22309 809c B093 0000 		sts (uploadFileSize)+3,r27
 22310               	.LM2383:
 22311 80a0 80E0      		ldi r24,lo8(Upload_File)
 22312 80a2 90E0      		ldi r25,hi8(Upload_File)
 22313 80a4 60E0      		ldi r22,lo8(fileToUpload)
 22314 80a6 70E0      		ldi r23,hi8(fileToUpload)
 22315 80a8 43E0      		ldi r20,lo8(3)
 22316 80aa 0E94 0000 		call f_open
 22317 80ae 8823      		tst r24
 22318 80b0 01F4      		brne .L1271
 22319               	.LM2384:
 22320 80b2 81E0      		ldi r24,lo8(1)
 22321 80b4 8093 0000 		sts fileExists,r24
 22322 80b8 00C0      		rjmp .L1272
 22323               	.L1271:
 22324               	.LM2385:
 22325 80ba 1092 0000 		sts fileExists,__zero_reg__
 22326               	.L1272:
 22327               	.LM2386:
 22328 80be 80E0      		ldi r24,lo8(Upload_File)
 22329 80c0 90E0      		ldi r25,hi8(Upload_File)
 22330 80c2 40E0      		ldi r20,lo8(0)
 22331 80c4 50E0      		ldi r21,hi8(0)
 22332 80c6 60E0      		ldi r22,hlo8(0)
 22333 80c8 70E0      		ldi r23,hhi8(0)
 22334 80ca 0E94 0000 		call f_lseek
 22335               	.LM2387:
 22336 80ce 81E0      		ldi r24,lo8(1)
 22337 80d0 8093 0000 		sts uploadFileOpened,r24
 22338               	.LM2388:
 22339 80d4 1092 0000 		sts okToOpenFileToUpload,__zero_reg__
 22340               	.L1270:
 22341               	.LM2389:
 22342 80d8 8091 0000 		lds r24,okToFillUploadFileBuffer
 22343 80dc 8823      		tst r24
 22344 80de 01F0      		breq .L1273
 22345               	.LBB892:
 22346               	.LM2390:
 22347 80e0 80E0      		ldi r24,lo8(Upload_File)
 22348 80e2 90E0      		ldi r25,hi8(Upload_File)
 22349 80e4 60E0      		ldi r22,lo8(uploadFileBuffer)
 22350 80e6 70E0      		ldi r23,hi8(uploadFileBuffer)
 22351 80e8 48EE      		ldi r20,lo8(1000)
 22352 80ea 53E0      		ldi r21,hi8(1000)
 22353 80ec 9E01      		movw r18,r28
 22354 80ee 2F5F      		subi r18,lo8(-(1))
 22355 80f0 3F4F      		sbci r19,hi8(-(1))
 22356 80f2 0E94 0000 		call f_read
 22357 80f6 8823      		tst r24
 22358 80f8 01F0      		breq .L1274
 22359               	.LM2391:
 22360 80fa 1092 0000 		sts sdValid,__zero_reg__
 22361               	.L1274:
 22362               	.LM2392:
 22363 80fe 1092 0000 		sts okToFillUploadFileBuffer,__zero_reg__
 22364               	.LM2393:
 22365 8102 81E0      		ldi r24,lo8(1)
 22366 8104 8093 0000 		sts uploadFileBufferFull,r24
 22367               	.L1273:
 22368               	.LBE892:
 22369               	.LM2394:
 22370 8108 8091 0000 		lds r24,okToCloseUploadFile
 22371 810c 8823      		tst r24
 22372 810e 01F0      		breq .L1275
 22373               	.LM2395:
 22374 8110 80E0      		ldi r24,lo8(Upload_File)
 22375 8112 90E0      		ldi r25,hi8(Upload_File)
 22376 8114 0E94 0000 		call f_sync
 22377 8118 8823      		tst r24
 22378 811a 01F0      		breq .L1276
 22379               	.LM2396:
 22380 811c 1092 0000 		sts sdValid,__zero_reg__
 22381               	.L1276:
 22382               	.LM2397:
 22383 8120 80E0      		ldi r24,lo8(Upload_File)
 22384 8122 90E0      		ldi r25,hi8(Upload_File)
 22385 8124 0E94 0000 		call f_close
 22386               	.LM2398:
 22387 8128 80E0      		ldi r24,lo8(fileToUpload)
 22388 812a 90E0      		ldi r25,hi8(fileToUpload)
 22389 812c 60E0      		ldi r22,lo8(.LC14)
 22390 812e 70E0      		ldi r23,hi8(.LC14)
 22391 8130 0E94 0000 		call strcpy
 22392               	.LM2399:
 22393 8134 1092 0000 		sts okToCloseUploadFile,__zero_reg__
 22394               	.L1275:
 22395               	.LM2400:
 22396 8138 8091 0000 		lds r24,okToGetRemainingSpace
 22397 813c 8823      		tst r24
 22398 813e 01F0      		breq .L1277
 22399               	.LM2401:
 22400 8140 0E94 0000 		call SD_GetSpaceRemaining
 22401               	.LM2402:
 22402 8144 1092 0000 		sts okToGetRemainingSpace,__zero_reg__
 22403               	.L1277:
 22404               	.LM2403:
 22405 8148 8091 0000 		lds r24,okToEraseFile
 22406 814c 8823      		tst r24
 22407 814e 01F0      		breq .L1280
 22408               	.LM2404:
 22409 8150 80E0      		ldi r24,lo8(fileToErase)
 22410 8152 90E0      		ldi r25,hi8(fileToErase)
 22411 8154 0E94 0000 		call f_unlink
 22412 8158 8093 0000 		sts eraseFileReturn,r24
 22413               	.LM2405:
 22414 815c 8091 0000 		lds r24,eraseFileReturn
 22415 8160 8823      		tst r24
 22416 8162 01F0      		breq .L1279
 22417               	.LM2406:
 22418 8164 1092 0000 		sts sdValid,__zero_reg__
 22419               	.L1279:
 22420               	.LM2407:
 22421 8168 80E0      		ldi r24,lo8(fileToUpload)
 22422 816a 90E0      		ldi r25,hi8(fileToUpload)
 22423 816c 60E0      		ldi r22,lo8(.LC14)
 22424 816e 70E0      		ldi r23,hi8(.LC14)
 22425 8170 0E94 0000 		call strcpy
 22426               	.LM2408:
 22427 8174 1092 0000 		sts okToEraseFile,__zero_reg__
 22428               	.L1280:
 22429               	/* epilogue start */
 22430               	.LM2409:
 22431 8178 0F90      		pop __tmp_reg__
 22432 817a 0F90      		pop __tmp_reg__
 22433 817c CF91      		pop r28
 22434 817e DF91      		pop r29
 22435 8180 FF91      		pop r31
 22436 8182 EF91      		pop r30
 22437 8184 BF91      		pop r27
 22438 8186 AF91      		pop r26
 22439 8188 9F91      		pop r25
 22440 818a 8F91      		pop r24
 22441 818c 7F91      		pop r23
 22442 818e 6F91      		pop r22
 22443 8190 5F91      		pop r21
 22444 8192 4F91      		pop r20
 22445 8194 3F91      		pop r19
 22446 8196 2F91      		pop r18
 22447 8198 1F91      		pop r17
 22448 819a 0F91      		pop r16
 22449 819c FF90      		pop r15
 22450 819e EF90      		pop r14
 22451 81a0 0F90      		pop r0
 22452 81a2 0BBE      		out 59-0,r0
 22453 81a4 0F90      		pop r0
 22454 81a6 0FBE      		out __SREG__,r0
 22455 81a8 0F90      		pop r0
 22456 81aa 1F90      		pop __zero_reg__
 22457 81ac 1895      		reti
 22458               	.LFE150:
 22460               		.data
 22461               	.LC33:
 22462 0246 2F63 6F6E 		.string	"/config.txt"
 22462      6669 672E 
 22462      7478 7400 
 22463               	.LC34:
 22464 0252 7373 6964 		.string	"ssid"
 22464      00
 22465               	.LC35:
 22466 0257 3D00      		.string	"="
 22467               	.LC36:
 22468 0259 7068 7261 		.string	"phrase"
 22468      7365 00
 22469               	.LC37:
 22470 0260 6B65 7900 		.string	"key"
 22471               	.LC38:
 22472 0264 706F 7274 		.string	"port"
 22472      00
 22473               	.LC39:
 22474 0269 6175 7468 		.string	"auth"
 22474      00
 22475               	.LC40:
 22476 026e 7573 6572 		.string	"user"
 22476      00
 22477               	.LC41:
 22478 0273 6E69 636B 		.string	"nickname"
 22478      6E61 6D65 
 22478      00
 22479               	.LC42:
 22480 027c 7365 7276 		.string	"server"
 22480      6572 00
 22481               	.LC43:
 22482 0283 6461 796C 		.string	"daylightTime"
 22482      6967 6874 
 22482      5469 6D65 
 22482      00
 22483               	.LC44:
 22484 0290 6465 6D6F 		.string	"demoMode"
 22484      4D6F 6465 
 22484      00
 22485               	.LC45:
 22486 0299 7265 636F 		.string	"recordFast"
 22486      7264 4661 
 22486      7374 00
 22487               	.LC46:
 22488 02a4 7A6F 6E65 		.string	"zone"
 22488      00
 22489               	.LC47:
 22490 02a9 4553 5400 		.string	"EST"
 22491               	.LC48:
 22492 02ad 4353 5400 		.string	"CST"
 22493               	.LC49:
 22494 02b1 4D53 5400 		.string	"MST"
 22495               	.LC50:
 22496 02b5 5053 5400 		.string	"PST"
 22497               	.LC51:
 22498 02b9 2000      		.string	" "
 22499               	.LC52:
 22500 02bb 7472 7565 		.string	"true"
 22500      00
 22501               		.text
 22502               	.global	SD_Read_config_file
 22504               	SD_Read_config_file:
 22505               	.LFB99:
 22506               	.LM2410:
 22507 81ae AF92      		push r10
 22508 81b0 BF92      		push r11
 22509 81b2 CF92      		push r12
 22510 81b4 DF92      		push r13
 22511 81b6 EF92      		push r14
 22512 81b8 FF92      		push r15
 22513 81ba 0F93      		push r16
 22514 81bc 1F93      		push r17
 22515 81be DF93      		push r29
 22516 81c0 CF93      		push r28
 22517 81c2 CDB7      		in r28,__SP_L__
 22518 81c4 DEB7      		in r29,__SP_H__
 22519 81c6 E297      		sbiw r28,50
 22520 81c8 CDBF      		out __SP_L__,r28
 22521 81ca DEBF      		out __SP_H__,r29
 22522               	/* prologue: function */
 22523               	/* frame size = 50 */
 22524               	.LM2411:
 22525 81cc 80E0      		ldi r24,lo8(.LC33)
 22526 81ce 90E0      		ldi r25,hi8(.LC33)
 22527 81d0 0E94 0000 		call SD_Open
 22528               	.LM2412:
 22529 81d4 80E0      		ldi r24,lo8(Log_File)
 22530 81d6 90E0      		ldi r25,hi8(Log_File)
 22531 81d8 40E0      		ldi r20,lo8(0)
 22532 81da 50E0      		ldi r21,hi8(0)
 22533 81dc 60E0      		ldi r22,hlo8(0)
 22534 81de 70E0      		ldi r23,hhi8(0)
 22535 81e0 0E94 0000 		call f_lseek
 22536               	.LM2413:
 22537 81e4 8E01      		movw r16,r28
 22538 81e6 0F5F      		subi r16,lo8(-(1))
 22539 81e8 1F4F      		sbci r17,hi8(-(1))
 22540               	.LM2414:
 22541 81ea 80E0      		ldi r24,lo8(zone)
 22542 81ec E82E      		mov r14,r24
 22543 81ee 80E0      		ldi r24,hi8(zone)
 22544 81f0 F82E      		mov r15,r24
 22545               	.LM2415:
 22546 81f2 B0E0      		ldi r27,lo8(nickname)
 22547 81f4 CB2E      		mov r12,r27
 22548 81f6 B0E0      		ldi r27,hi8(nickname)
 22549 81f8 DB2E      		mov r13,r27
 22550               	.LM2416:
 22551 81fa A0E0      		ldi r26,lo8(user)
 22552 81fc AA2E      		mov r10,r26
 22553 81fe A0E0      		ldi r26,hi8(user)
 22554 8200 BA2E      		mov r11,r26
 22555               	.LVL1584:
 22556               	.L1318:
 22557               	.LM2417:
 22558 8202 C801      		movw r24,r16
 22559 8204 62E3      		ldi r22,lo8(50)
 22560 8206 70E0      		ldi r23,hi8(50)
 22561 8208 40E0      		ldi r20,lo8(Log_File)
 22562 820a 50E0      		ldi r21,hi8(Log_File)
 22563 820c 0E94 0000 		call f_gets
 22564               	.LVL1585:
 22565               	.LM2418:
 22566 8210 8981      		ldd r24,Y+1
 22567 8212 8823      		tst r24
 22568 8214 01F4      		brne .+2
 22569 8216 00C0      		rjmp .L1286
 22570               	.LM2419:
 22571 8218 C801      		movw r24,r16
 22572 821a 60E0      		ldi r22,lo8(.LC34)
 22573 821c 70E0      		ldi r23,hi8(.LC34)
 22574 821e 0E94 0000 		call strstr
 22575 8222 0097      		sbiw r24,0
 22576 8224 01F0      		breq .L1287
 22577               	.LM2420:
 22578 8226 C801      		movw r24,r16
 22579 8228 60E0      		ldi r22,lo8(.LC35)
 22580 822a 70E0      		ldi r23,hi8(.LC35)
 22581 822c 0E94 0000 		call strtok
 22582               	.LM2421:
 22583 8230 80E0      		ldi r24,lo8(0)
 22584 8232 90E0      		ldi r25,hi8(0)
 22585 8234 60E0      		ldi r22,lo8(.LC35)
 22586 8236 70E0      		ldi r23,hi8(.LC35)
 22587 8238 0E94 0000 		call strtok
 22588 823c BC01      		movw r22,r24
 22589 823e 80E0      		ldi r24,lo8(ssid)
 22590 8240 90E0      		ldi r25,hi8(ssid)
 22591 8242 0E94 0000 		call strcpy
 22592               	.LM2422:
 22593 8246 81E0      		ldi r24,lo8(1)
 22594 8248 8093 0000 		sts ssidRead,r24
 22595 824c 00C0      		rjmp .L1318
 22596               	.L1287:
 22597               	.LM2423:
 22598 824e C801      		movw r24,r16
 22599 8250 60E0      		ldi r22,lo8(.LC36)
 22600 8252 70E0      		ldi r23,hi8(.LC36)
 22601 8254 0E94 0000 		call strstr
 22602 8258 0097      		sbiw r24,0
 22603 825a 01F0      		breq .L1289
 22604               	.LM2424:
 22605 825c C801      		movw r24,r16
 22606 825e 60E0      		ldi r22,lo8(.LC35)
 22607 8260 70E0      		ldi r23,hi8(.LC35)
 22608 8262 0E94 0000 		call strtok
 22609               	.LM2425:
 22610 8266 80E0      		ldi r24,lo8(0)
 22611 8268 90E0      		ldi r25,hi8(0)
 22612 826a 60E0      		ldi r22,lo8(.LC35)
 22613 826c 70E0      		ldi r23,hi8(.LC35)
 22614 826e 0E94 0000 		call strtok
 22615 8272 BC01      		movw r22,r24
 22616 8274 80E0      		ldi r24,lo8(phrase)
 22617 8276 90E0      		ldi r25,hi8(phrase)
 22618 8278 0E94 0000 		call strcpy
 22619               	.LM2426:
 22620 827c 81E0      		ldi r24,lo8(1)
 22621 827e 8093 0000 		sts phraseRead,r24
 22622 8282 00C0      		rjmp .L1318
 22623               	.L1289:
 22624               	.LM2427:
 22625 8284 C801      		movw r24,r16
 22626 8286 60E0      		ldi r22,lo8(.LC37)
 22627 8288 70E0      		ldi r23,hi8(.LC37)
 22628 828a 0E94 0000 		call strstr
 22629 828e 0097      		sbiw r24,0
 22630 8290 01F0      		breq .L1290
 22631               	.LM2428:
 22632 8292 C801      		movw r24,r16
 22633 8294 60E0      		ldi r22,lo8(.LC35)
 22634 8296 70E0      		ldi r23,hi8(.LC35)
 22635 8298 0E94 0000 		call strtok
 22636               	.LM2429:
 22637 829c 80E0      		ldi r24,lo8(0)
 22638 829e 90E0      		ldi r25,hi8(0)
 22639 82a0 60E0      		ldi r22,lo8(.LC35)
 22640 82a2 70E0      		ldi r23,hi8(.LC35)
 22641 82a4 0E94 0000 		call strtok
 22642 82a8 BC01      		movw r22,r24
 22643 82aa 80E0      		ldi r24,lo8(key)
 22644 82ac 90E0      		ldi r25,hi8(key)
 22645 82ae 0E94 0000 		call strcpy
 22646               	.LM2430:
 22647 82b2 81E0      		ldi r24,lo8(1)
 22648 82b4 8093 0000 		sts keyRead,r24
 22649 82b8 00C0      		rjmp .L1318
 22650               	.L1290:
 22651               	.LM2431:
 22652 82ba C801      		movw r24,r16
 22653 82bc 60E0      		ldi r22,lo8(.LC38)
 22654 82be 70E0      		ldi r23,hi8(.LC38)
 22655 82c0 0E94 0000 		call strstr
 22656 82c4 0097      		sbiw r24,0
 22657 82c6 01F0      		breq .L1291
 22658               	.LM2432:
 22659 82c8 C801      		movw r24,r16
 22660 82ca 60E0      		ldi r22,lo8(.LC35)
 22661 82cc 70E0      		ldi r23,hi8(.LC35)
 22662 82ce 0E94 0000 		call strtok
 22663               	.LM2433:
 22664 82d2 80E0      		ldi r24,lo8(0)
 22665 82d4 90E0      		ldi r25,hi8(0)
 22666 82d6 60E0      		ldi r22,lo8(.LC35)
 22667 82d8 70E0      		ldi r23,hi8(.LC35)
 22668 82da 0E94 0000 		call strtok
 22669 82de BC01      		movw r22,r24
 22670 82e0 80E0      		ldi r24,lo8(port)
 22671 82e2 90E0      		ldi r25,hi8(port)
 22672 82e4 00C0      		rjmp .L1320
 22673               	.L1291:
 22674               	.LM2434:
 22675 82e6 C801      		movw r24,r16
 22676 82e8 60E0      		ldi r22,lo8(.LC39)
 22677 82ea 70E0      		ldi r23,hi8(.LC39)
 22678 82ec 0E94 0000 		call strstr
 22679 82f0 0097      		sbiw r24,0
 22680 82f2 01F0      		breq .L1292
 22681               	.LM2435:
 22682 82f4 C801      		movw r24,r16
 22683 82f6 60E0      		ldi r22,lo8(.LC35)
 22684 82f8 70E0      		ldi r23,hi8(.LC35)
 22685 82fa 0E94 0000 		call strtok
 22686               	.LM2436:
 22687 82fe 80E0      		ldi r24,lo8(0)
 22688 8300 90E0      		ldi r25,hi8(0)
 22689 8302 60E0      		ldi r22,lo8(.LC35)
 22690 8304 70E0      		ldi r23,hi8(.LC35)
 22691 8306 0E94 0000 		call strtok
 22692 830a BC01      		movw r22,r24
 22693 830c 80E0      		ldi r24,lo8(auth)
 22694 830e 90E0      		ldi r25,hi8(auth)
 22695 8310 0E94 0000 		call strcpy
 22696               	.LM2437:
 22697 8314 81E0      		ldi r24,lo8(1)
 22698 8316 8093 0000 		sts authRead,r24
 22699 831a 00C0      		rjmp .L1318
 22700               	.L1292:
 22701               	.LM2438:
 22702 831c C801      		movw r24,r16
 22703 831e 60E0      		ldi r22,lo8(.LC40)
 22704 8320 70E0      		ldi r23,hi8(.LC40)
 22705 8322 0E94 0000 		call strstr
 22706 8326 0097      		sbiw r24,0
 22707 8328 01F0      		breq .L1293
 22708               	.LM2439:
 22709 832a C801      		movw r24,r16
 22710 832c 60E0      		ldi r22,lo8(.LC35)
 22711 832e 70E0      		ldi r23,hi8(.LC35)
 22712 8330 0E94 0000 		call strtok
 22713               	.LM2440:
 22714 8334 80E0      		ldi r24,lo8(0)
 22715 8336 90E0      		ldi r25,hi8(0)
 22716 8338 60E0      		ldi r22,lo8(.LC35)
 22717 833a 70E0      		ldi r23,hi8(.LC35)
 22718 833c 0E94 0000 		call strtok
 22719 8340 BC01      		movw r22,r24
 22720 8342 80E0      		ldi r24,lo8(user)
 22721 8344 90E0      		ldi r25,hi8(user)
 22722 8346 0E94 0000 		call strcpy
 22723               	.LBB893:
 22724               	.LM2441:
 22725 834a F501      		movw r30,r10
 22726 834c 0190      		ld __tmp_reg__,Z+
 22727 834e 0020      		tst __tmp_reg__
 22728 8350 01F4      		brne .-6
 22729 8352 3197      		sbiw r30,1
 22730 8354 E050      		subi r30,lo8(user)
 22731 8356 F040      		sbci r31,hi8(user)
 22732 8358 20E0      		ldi r18,lo8(0)
 22733               	.LVL1586:
 22734 835a 00C0      		rjmp .L1294
 22735               	.LVL1587:
 22736               	.L1296:
 22737               	.LM2442:
 22738 835c DC01      		movw r26,r24
 22739 835e A050      		subi r26,lo8(-(user))
 22740 8360 B040      		sbci r27,hi8(-(user))
 22741 8362 8C91      		ld r24,X
 22742               	.LVL1588:
 22743 8364 8032      		cpi r24,lo8(32)
 22744 8366 00F0      		brlo .L1321
 22745               	.L1295:
 22746               	.LM2443:
 22747 8368 2F5F      		subi r18,lo8(-(1))
 22748               	.L1294:
 22749 836a 822F      		mov r24,r18
 22750 836c 90E0      		ldi r25,lo8(0)
 22751 836e 8E17      		cp r24,r30
 22752 8370 9F07      		cpc r25,r31
 22753 8372 00F0      		brlo .L1296
 22754               	.LVL1589:
 22755 8374 00C0      		rjmp .L1318
 22756               	.LVL1590:
 22757               	.L1293:
 22758               	.LBE893:
 22759               	.LM2444:
 22760 8376 C801      		movw r24,r16
 22761 8378 60E0      		ldi r22,lo8(.LC41)
 22762 837a 70E0      		ldi r23,hi8(.LC41)
 22763 837c 0E94 0000 		call strstr
 22764 8380 0097      		sbiw r24,0
 22765 8382 01F0      		breq .L1297
 22766               	.LM2445:
 22767 8384 C801      		movw r24,r16
 22768 8386 60E0      		ldi r22,lo8(.LC35)
 22769 8388 70E0      		ldi r23,hi8(.LC35)
 22770 838a 0E94 0000 		call strtok
 22771               	.LM2446:
 22772 838e 80E0      		ldi r24,lo8(0)
 22773 8390 90E0      		ldi r25,hi8(0)
 22774 8392 60E0      		ldi r22,lo8(.LC35)
 22775 8394 70E0      		ldi r23,hi8(.LC35)
 22776 8396 0E94 0000 		call strtok
 22777 839a BC01      		movw r22,r24
 22778 839c 80E0      		ldi r24,lo8(nickname)
 22779 839e 90E0      		ldi r25,hi8(nickname)
 22780 83a0 0E94 0000 		call strcpy
 22781               	.LBB894:
 22782               	.LM2447:
 22783 83a4 F601      		movw r30,r12
 22784 83a6 0190      		ld __tmp_reg__,Z+
 22785 83a8 0020      		tst __tmp_reg__
 22786 83aa 01F4      		brne .-6
 22787 83ac 3197      		sbiw r30,1
 22788 83ae E050      		subi r30,lo8(nickname)
 22789 83b0 F040      		sbci r31,hi8(nickname)
 22790 83b2 20E0      		ldi r18,lo8(0)
 22791               	.LVL1591:
 22792 83b4 00C0      		rjmp .L1298
 22793               	.LVL1592:
 22794               	.L1300:
 22795               	.LM2448:
 22796 83b6 DC01      		movw r26,r24
 22797 83b8 A050      		subi r26,lo8(-(nickname))
 22798 83ba B040      		sbci r27,hi8(-(nickname))
 22799 83bc 8C91      		ld r24,X
 22800               	.LVL1593:
 22801 83be 8032      		cpi r24,lo8(32)
 22802 83c0 00F4      		brsh .L1299
 22803               	.LVL1594:
 22804               	.L1321:
 22805               	.LM2449:
 22806 83c2 1C92      		st X,__zero_reg__
 22807 83c4 00C0      		rjmp .L1318
 22808               	.LVL1595:
 22809               	.L1299:
 22810               	.LM2450:
 22811 83c6 2F5F      		subi r18,lo8(-(1))
 22812               	.L1298:
 22813 83c8 822F      		mov r24,r18
 22814 83ca 90E0      		ldi r25,lo8(0)
 22815 83cc 8E17      		cp r24,r30
 22816 83ce 9F07      		cpc r25,r31
 22817 83d0 00F0      		brlo .L1300
 22818               	.LVL1596:
 22819 83d2 00C0      		rjmp .L1318
 22820               	.LVL1597:
 22821               	.L1297:
 22822               	.LBE894:
 22823               	.LM2451:
 22824 83d4 C801      		movw r24,r16
 22825 83d6 60E0      		ldi r22,lo8(.LC42)
 22826 83d8 70E0      		ldi r23,hi8(.LC42)
 22827 83da 0E94 0000 		call strstr
 22828 83de 0097      		sbiw r24,0
 22829 83e0 01F0      		breq .L1301
 22830               	.LM2452:
 22831 83e2 C801      		movw r24,r16
 22832 83e4 60E0      		ldi r22,lo8(.LC35)
 22833 83e6 70E0      		ldi r23,hi8(.LC35)
 22834 83e8 0E94 0000 		call strtok
 22835               	.LM2453:
 22836 83ec 80E0      		ldi r24,lo8(0)
 22837 83ee 90E0      		ldi r25,hi8(0)
 22838 83f0 60E0      		ldi r22,lo8(.LC35)
 22839 83f2 70E0      		ldi r23,hi8(.LC35)
 22840 83f4 0E94 0000 		call strtok
 22841 83f8 BC01      		movw r22,r24
 22842 83fa 80E0      		ldi r24,lo8(server)
 22843 83fc 90E0      		ldi r25,hi8(server)
 22844               	.L1320:
 22845 83fe 0E94 0000 		call strcpy
 22846 8402 00C0      		rjmp .L1318
 22847               	.L1301:
 22848               	.LM2454:
 22849 8404 C801      		movw r24,r16
 22850 8406 60E0      		ldi r22,lo8(.LC43)
 22851 8408 70E0      		ldi r23,hi8(.LC43)
 22852 840a 0E94 0000 		call strstr
 22853 840e 0097      		sbiw r24,0
 22854 8410 01F0      		breq .L1302
 22855               	.LM2455:
 22856 8412 C801      		movw r24,r16
 22857 8414 60E0      		ldi r22,lo8(.LC35)
 22858 8416 70E0      		ldi r23,hi8(.LC35)
 22859 8418 0E94 0000 		call strtok
 22860               	.LM2456:
 22861 841c 80E0      		ldi r24,lo8(0)
 22862 841e 90E0      		ldi r25,hi8(0)
 22863 8420 60E0      		ldi r22,lo8(.LC35)
 22864 8422 70E0      		ldi r23,hi8(.LC35)
 22865 8424 0E94 0000 		call strtok
 22866 8428 BC01      		movw r22,r24
 22867 842a 80E0      		ldi r24,lo8(daylightTime)
 22868 842c 90E0      		ldi r25,hi8(daylightTime)
 22869 842e 00C0      		rjmp .L1320
 22870               	.L1302:
 22871               	.LM2457:
 22872 8430 C801      		movw r24,r16
 22873 8432 60E0      		ldi r22,lo8(.LC44)
 22874 8434 70E0      		ldi r23,hi8(.LC44)
 22875 8436 0E94 0000 		call strstr
 22876 843a 0097      		sbiw r24,0
 22877 843c 01F0      		breq .L1303
 22878               	.LM2458:
 22879 843e C801      		movw r24,r16
 22880 8440 60E0      		ldi r22,lo8(.LC35)
 22881 8442 70E0      		ldi r23,hi8(.LC35)
 22882 8444 0E94 0000 		call strtok
 22883               	.LM2459:
 22884 8448 80E0      		ldi r24,lo8(0)
 22885 844a 90E0      		ldi r25,hi8(0)
 22886 844c 60E0      		ldi r22,lo8(.LC35)
 22887 844e 70E0      		ldi r23,hi8(.LC35)
 22888 8450 0E94 0000 		call strtok
 22889 8454 BC01      		movw r22,r24
 22890 8456 80E0      		ldi r24,lo8(demoModeString)
 22891 8458 90E0      		ldi r25,hi8(demoModeString)
 22892 845a 00C0      		rjmp .L1320
 22893               	.L1303:
 22894               	.LM2460:
 22895 845c C801      		movw r24,r16
 22896 845e 60E0      		ldi r22,lo8(.LC45)
 22897 8460 70E0      		ldi r23,hi8(.LC45)
 22898 8462 0E94 0000 		call strstr
 22899 8466 0097      		sbiw r24,0
 22900 8468 01F0      		breq .L1304
 22901               	.LM2461:
 22902 846a C801      		movw r24,r16
 22903 846c 60E0      		ldi r22,lo8(.LC35)
 22904 846e 70E0      		ldi r23,hi8(.LC35)
 22905 8470 0E94 0000 		call strtok
 22906               	.LM2462:
 22907 8474 80E0      		ldi r24,lo8(0)
 22908 8476 90E0      		ldi r25,hi8(0)
 22909 8478 60E0      		ldi r22,lo8(.LC35)
 22910 847a 70E0      		ldi r23,hi8(.LC35)
 22911 847c 0E94 0000 		call strtok
 22912 8480 BC01      		movw r22,r24
 22913 8482 80E0      		ldi r24,lo8(fastString)
 22914 8484 90E0      		ldi r25,hi8(fastString)
 22915 8486 00C0      		rjmp .L1320
 22916               	.L1304:
 22917               	.LM2463:
 22918 8488 C801      		movw r24,r16
 22919 848a 60E0      		ldi r22,lo8(.LC46)
 22920 848c 70E0      		ldi r23,hi8(.LC46)
 22921 848e 0E94 0000 		call strstr
 22922 8492 0097      		sbiw r24,0
 22923 8494 01F4      		brne .+2
 22924 8496 00C0      		rjmp .L1318
 22925               	.LM2464:
 22926 8498 C801      		movw r24,r16
 22927 849a 60E0      		ldi r22,lo8(.LC35)
 22928 849c 70E0      		ldi r23,hi8(.LC35)
 22929 849e 0E94 0000 		call strtok
 22930               	.LM2465:
 22931 84a2 80E0      		ldi r24,lo8(0)
 22932 84a4 90E0      		ldi r25,hi8(0)
 22933 84a6 60E0      		ldi r22,lo8(.LC35)
 22934 84a8 70E0      		ldi r23,hi8(.LC35)
 22935 84aa 0E94 0000 		call strtok
 22936 84ae BC01      		movw r22,r24
 22937 84b0 80E0      		ldi r24,lo8(zone)
 22938 84b2 90E0      		ldi r25,hi8(zone)
 22939 84b4 44E0      		ldi r20,lo8(4)
 22940 84b6 50E0      		ldi r21,hi8(4)
 22941 84b8 0E94 0000 		call memmove
 22942 84bc 20E0      		ldi r18,lo8(0)
 22943               	.LVL1598:
 22944 84be 00C0      		rjmp .L1305
 22945               	.LVL1599:
 22946               	.L1307:
 22947               	.LBB895:
 22948               	.LM2466:
 22949 84c0 FC01      		movw r30,r24
 22950 84c2 E050      		subi r30,lo8(-(zone))
 22951 84c4 F040      		sbci r31,hi8(-(zone))
 22952 84c6 8081      		ld r24,Z
 22953               	.LVL1600:
 22954 84c8 8032      		cpi r24,lo8(32)
 22955 84ca 00F4      		brsh .L1306
 22956               	.LM2467:
 22957 84cc 1082      		st Z,__zero_reg__
 22958               	.L1306:
 22959               	.LM2468:
 22960 84ce 2F5F      		subi r18,lo8(-(1))
 22961               	.L1305:
 22962 84d0 F701      		movw r30,r14
 22963 84d2 0190      		ld __tmp_reg__,Z+
 22964 84d4 0020      		tst __tmp_reg__
 22965 84d6 01F4      		brne .-6
 22966 84d8 3197      		sbiw r30,1
 22967 84da E050      		subi r30,lo8(zone)
 22968 84dc F040      		sbci r31,hi8(zone)
 22969 84de 822F      		mov r24,r18
 22970 84e0 90E0      		ldi r25,lo8(0)
 22971 84e2 8E17      		cp r24,r30
 22972 84e4 9F07      		cpc r25,r31
 22973 84e6 00F0      		brlo .L1307
 22974               	.LVL1601:
 22975               	.LBE895:
 22976               	.LM2469:
 22977 84e8 80E0      		ldi r24,lo8(zone)
 22978 84ea 90E0      		ldi r25,hi8(zone)
 22979               	.LVL1602:
 22980 84ec 60E0      		ldi r22,lo8(.LC47)
 22981 84ee 70E0      		ldi r23,hi8(.LC47)
 22982 84f0 0E94 0000 		call strcmp
 22983               	.LVL1603:
 22984 84f4 0097      		sbiw r24,0
 22985 84f6 01F4      		brne .L1308
 22986               	.LM2470:
 22987 84f8 85E0      		ldi r24,lo8(5)
 22988 84fa 00C0      		rjmp .L1319
 22989               	.L1308:
 22990               	.LM2471:
 22991 84fc 80E0      		ldi r24,lo8(zone)
 22992 84fe 90E0      		ldi r25,hi8(zone)
 22993 8500 60E0      		ldi r22,lo8(.LC48)
 22994 8502 70E0      		ldi r23,hi8(.LC48)
 22995 8504 0E94 0000 		call strcmp
 22996 8508 0097      		sbiw r24,0
 22997 850a 01F4      		brne .L1309
 22998               	.LM2472:
 22999 850c 86E0      		ldi r24,lo8(6)
 23000 850e 00C0      		rjmp .L1319
 23001               	.L1309:
 23002               	.LM2473:
 23003 8510 80E0      		ldi r24,lo8(zone)
 23004 8512 90E0      		ldi r25,hi8(zone)
 23005 8514 60E0      		ldi r22,lo8(.LC49)
 23006 8516 70E0      		ldi r23,hi8(.LC49)
 23007 8518 0E94 0000 		call strcmp
 23008 851c 0097      		sbiw r24,0
 23009 851e 01F4      		brne .L1310
 23010               	.LM2474:
 23011 8520 87E0      		ldi r24,lo8(7)
 23012 8522 00C0      		rjmp .L1319
 23013               	.L1310:
 23014               	.LM2475:
 23015 8524 80E0      		ldi r24,lo8(zone)
 23016 8526 90E0      		ldi r25,hi8(zone)
 23017 8528 60E0      		ldi r22,lo8(.LC50)
 23018 852a 70E0      		ldi r23,hi8(.LC50)
 23019 852c 0E94 0000 		call strcmp
 23020 8530 0097      		sbiw r24,0
 23021 8532 01F0      		breq .+2
 23022 8534 00C0      		rjmp .L1318
 23023               	.LM2476:
 23024 8536 88E0      		ldi r24,lo8(8)
 23025               	.L1319:
 23026 8538 8093 0000 		sts timeZoneShift,r24
 23027               	.LM2477:
 23028 853c 81E0      		ldi r24,lo8(1)
 23029 853e 8093 0000 		sts zoneChanged,r24
 23030 8542 00C0      		rjmp .L1318
 23031               	.L1286:
 23032               	.LM2478:
 23033 8544 E0E0      		ldi r30,lo8(server)
 23034 8546 F0E0      		ldi r31,hi8(server)
 23035 8548 0190      		ld __tmp_reg__,Z+
 23036 854a 0020      		tst __tmp_reg__
 23037 854c 01F4      		brne .-6
 23038 854e 3297      		sbiw r30,2
 23039 8550 8081      		ld r24,Z
 23040 8552 8032      		cpi r24,lo8(32)
 23041 8554 00F4      		brsh .L1311
 23042               	.LM2479:
 23043 8556 1082      		st Z,__zero_reg__
 23044               	.L1311:
 23045               	.LM2480:
 23046 8558 80E0      		ldi r24,lo8(serverOpenCommand)
 23047 855a 90E0      		ldi r25,hi8(serverOpenCommand)
 23048 855c 60E0      		ldi r22,lo8(server)
 23049 855e 70E0      		ldi r23,hi8(server)
 23050 8560 0E94 0000 		call strcat
 23051               	.LM2481:
 23052 8564 80E0      		ldi r24,lo8(serverOpenCommand)
 23053 8566 90E0      		ldi r25,hi8(serverOpenCommand)
 23054 8568 60E0      		ldi r22,lo8(.LC51)
 23055 856a 70E0      		ldi r23,hi8(.LC51)
 23056 856c 0E94 0000 		call strcat
 23057               	.LM2482:
 23058 8570 80E0      		ldi r24,lo8(serverOpenCommand)
 23059 8572 90E0      		ldi r25,hi8(serverOpenCommand)
 23060 8574 60E0      		ldi r22,lo8(port)
 23061 8576 70E0      		ldi r23,hi8(port)
 23062 8578 0E94 0000 		call strcat
 23063               	.LM2483:
 23064 857c 80E0      		ldi r24,lo8(daylightTime)
 23065 857e 90E0      		ldi r25,hi8(daylightTime)
 23066 8580 60E0      		ldi r22,lo8(.LC52)
 23067 8582 70E0      		ldi r23,hi8(.LC52)
 23068 8584 0E94 0000 		call strstr
 23069 8588 0097      		sbiw r24,0
 23070 858a 01F0      		breq .L1312
 23071               	.LM2484:
 23072 858c 8091 0000 		lds r24,timeZoneShift
 23073 8590 8150      		subi r24,lo8(-(-1))
 23074 8592 8093 0000 		sts timeZoneShift,r24
 23075               	.L1312:
 23076               	.LM2485:
 23077 8596 80E0      		ldi r24,lo8(demoModeString)
 23078 8598 90E0      		ldi r25,hi8(demoModeString)
 23079 859a 60E0      		ldi r22,lo8(.LC52)
 23080 859c 70E0      		ldi r23,hi8(.LC52)
 23081 859e 0E94 0000 		call strstr
 23082 85a2 0097      		sbiw r24,0
 23083 85a4 01F0      		breq .L1313
 23084               	.LM2486:
 23085 85a6 81E0      		ldi r24,lo8(1)
 23086 85a8 8093 0000 		sts demoMode,r24
 23087               	.L1313:
 23088               	.LM2487:
 23089 85ac 80E0      		ldi r24,lo8(fastString)
 23090 85ae 90E0      		ldi r25,hi8(fastString)
 23091 85b0 60E0      		ldi r22,lo8(.LC52)
 23092 85b2 70E0      		ldi r23,hi8(.LC52)
 23093 85b4 0E94 0000 		call strstr
 23094 85b8 0097      		sbiw r24,0
 23095 85ba 01F0      		breq .L1315
 23096               	.LM2488:
 23097 85bc 81E0      		ldi r24,lo8(1)
 23098 85be 8093 0000 		sts wantToRecordFast,r24
 23099               	.L1315:
 23100               	/* epilogue start */
 23101               	.LM2489:
 23102 85c2 E296      		adiw r28,50
 23103 85c4 CDBF      		out __SP_L__,r28
 23104 85c6 DEBF      		out __SP_H__,r29
 23105 85c8 CF91      		pop r28
 23106 85ca DF91      		pop r29
 23107 85cc 1F91      		pop r17
 23108 85ce 0F91      		pop r16
 23109 85d0 FF90      		pop r15
 23110 85d2 EF90      		pop r14
 23111 85d4 DF90      		pop r13
 23112 85d6 CF90      		pop r12
 23113 85d8 BF90      		pop r11
 23114 85da AF90      		pop r10
 23115 85dc 0895      		ret
 23116               	.LFE99:
 23118               	.global	main
 23120               	main:
 23121               	.LFB140:
 23122               	.LM2490:
 23123 85de FF92      		push r15
 23124 85e0 0F93      		push r16
 23125 85e2 1F93      		push r17
 23126 85e4 DF93      		push r29
 23127 85e6 CF93      		push r28
 23128 85e8 0F92      		push __tmp_reg__
 23129 85ea CDB7      		in r28,__SP_L__
 23130 85ec DEB7      		in r29,__SP_H__
 23131               	/* prologue: function */
 23132               	/* frame size = 1 */
 23133               	.LM2491:
 23134 85ee 0E94 0000 		call Clock_Init
 23135               	.LBB896:
 23136               	.LBB897:
 23137               	.LBB898:
 23138               	.LBB899:
 23139               	.LM2492:
 23140 85f2 8FB7      		in r24,__SREG__
 23141 85f4 8983      		std Y+1,r24
 23142               	.LVL1604:
 23143               	.LM2493:
 23144               	/* #APP */
 23145               	 ;  83 "mainChestStrap.h" 1
 23146 85f6 F894      		cli
 23147               	 ;  0 "" 2
 23148               	.LM2494:
 23149               	/* #NOAPP */
 23150 85f8 1BBE      		out 59-0,__zero_reg__
 23151               	.LM2495:
 23152 85fa 11E0      		ldi r17,lo8(1)
 23153 85fc 86E9      		ldi r24,lo8(150)
 23154 85fe 90E0      		ldi r25,hi8(150)
 23155               	/* #APP */
 23156               	 ;  105 "mainChestStrap.h" 1
 23157 8600 FC01      		movw r30,  r24
 23158 8602 08ED      		ldi  r16,  216
 23159 8604 04BF      		out   52, r16
 23160 8606 1083      		st     Z,  r17
 23161               		
 23162               	 ;  0 "" 2
 23163               	.LM2496:
 23164               	/* #NOAPP */
 23165 8608 8981      		ldd r24,Y+1
 23166 860a 8FBF      		out __SREG__,r24
 23167               	.LBE899:
 23168               	.LBE898:
 23169               	.LBE897:
 23170               	.LBE896:
 23171               	.LM2497:
 23172 860c 0E94 0000 		call getDeviceID
 23173               	.LM2498:
 23174 8610 0E94 0000 		call Time_Init
 23175               	.LM2499:
 23176 8614 0E94 0000 		call Sensors_Init
 23177               	.LM2500:
 23178 8618 60E0      		ldi r22,lo8(460800)
 23179 861a 78E0      		ldi r23,hi8(460800)
 23180 861c 87E0      		ldi r24,hlo8(460800)
 23181 861e 90E0      		ldi r25,hhi8(460800)
 23182 8620 0E94 0000 		call Debug_Init
 23183               	.LM2501:
 23184 8624 86E0      		ldi r24,lo8(6)
 23185 8626 61E0      		ldi r22,lo8(1)
 23186 8628 42E0      		ldi r20,lo8(2)
 23187 862a 20E0      		ldi r18,lo8(0)
 23188 862c 03E0      		ldi r16,lo8(3)
 23189 862e 0E94 0000 		call Button_Init
 23190               	.LM2502:
 23191 8632 0E94 0000 		call Accel_Init
 23192               	.LBB900:
 23193               	.LBB901:
 23194               	.LM2503:
 23195 8636 E0EA      		ldi r30,lo8(1696)
 23196 8638 F6E0      		ldi r31,hi8(1696)
 23197 863a 82E0      		ldi r24,lo8(2)
 23198 863c 8183      		std Z+1,r24
 23199               	.LBB902:
 23200               	.LBB903:
 23201               	.LM2504:
 23202 863e 1092 0000 		sts ledState+1,__zero_reg__
 23203               	.LBE903:
 23204               	.LBE902:
 23205               	.LBE901:
 23206               	.LBE900:
 23207               	.LBB904:
 23208               	.LBB905:
 23209               	.LM2505:
 23210 8642 1183      		std Z+1,r17
 23211               	.LBB906:
 23212               	.LBB907:
 23213               	.LM2506:
 23214 8644 1092 0000 		sts ledState,__zero_reg__
 23215               	.LBE907:
 23216               	.LBE906:
 23217               	.LBE905:
 23218               	.LBE904:
 23219               	.LM2507:
 23220 8648 0E94 0000 		call GUI_Init
 23221               	.LM2508:
 23222 864c 0E94 0000 		call SD_BackroundWriter_Init
 23223               	.LM2509:
 23224 8650 0E94 0000 		call SD_Init
 23225               	.LBB908:
 23226               	.LBB909:
 23227               	.LM2510:
 23228 8654 8091 A200 		lds r24,162
 23229 8658 8760      		ori r24,lo8(7)
 23230 865a E0EA      		ldi r30,lo8(160)
 23231 865c F0E0      		ldi r31,hi8(160)
 23232 865e 8283      		std Z+2,r24
 23233               	.LM2511:
 23234               	/* #APP */
 23235               	 ;  180 "mainChestStrap.c" 1
 23236 8660 7894      		sei
 23237               	 ;  0 "" 2
 23238               	/* #NOAPP */
 23239               	.LBE909:
 23240               	.LBE908:
 23241               	.LM2512:
 23242 8662 0E94 0000 		call Time_CheckVBatSystem
 23243 8666 8823      		tst r24
 23244 8668 01F0      		breq .L1323
 23245               	.LBB910:
 23246               	.LBB911:
 23247               	.LM2513:
 23248 866a 8091 2104 		lds r24,1057
 23249 866e 8061      		ori r24,lo8(16)
 23250 8670 E0E2      		ldi r30,lo8(1056)
 23251 8672 F4E0      		ldi r31,hi8(1056)
 23252 8674 8183      		std Z+1,r24
 23253               	.L1324:
 23254               	.LM2514:
 23255 8676 E0E2      		ldi r30,lo8(1056)
 23256 8678 F4E0      		ldi r31,hi8(1056)
 23257 867a 8091 2104 		lds r24,1057
 23258 867e 84FD      		sbrc r24,4
 23259 8680 00C0      		rjmp .L1324
 23260               	.LM2515:
 23261 8682 8091 2404 		lds r24,1060
 23262 8686 9091 2504 		lds r25,(1060)+1
 23263 868a A091 2604 		lds r26,(1060)+2
 23264 868e B091 2704 		lds r27,(1060)+3
 23265               	.LBE911:
 23266               	.LBE910:
 23267               	.LM2516:
 23268 8692 8154      		subi r24,lo8(1000001)
 23269 8694 9244      		sbci r25,hi8(1000001)
 23270 8696 AF40      		sbci r26,hlo8(1000001)
 23271 8698 B040      		sbci r27,hhi8(1000001)
 23272 869a 00F0      		brlo .L1323
 23273               	.LM2517:
 23274 869c 81E0      		ldi r24,lo8(1)
 23275 869e 8093 0000 		sts timeIsValid,r24
 23276               	.LM2518:
 23277 86a2 8091 2204 		lds r24,1058
 23278 86a6 837F      		andi r24,lo8(-13)
 23279 86a8 8460      		ori r24,lo8(4)
 23280 86aa 8283      		std Z+2,r24
 23281               	.LBB912:
 23282               	.LBB913:
 23283               	.LM2519:
 23284 86ac 8091 2104 		lds r24,1057
 23285 86b0 8061      		ori r24,lo8(16)
 23286 86b2 8183      		std Z+1,r24
 23287               	.L1325:
 23288               	.LM2520:
 23289 86b4 8091 2104 		lds r24,1057
 23290 86b8 84FD      		sbrc r24,4
 23291 86ba 00C0      		rjmp .L1325
 23292               	.LM2521:
 23293 86bc 8091 2404 		lds r24,1060
 23294 86c0 9091 2504 		lds r25,(1060)+1
 23295 86c4 A091 2604 		lds r26,(1060)+2
 23296 86c8 B091 2704 		lds r27,(1060)+3
 23297               	.LBE913:
 23298               	.LBE912:
 23299               	.LM2522:
 23300 86cc 8093 0000 		sts UNIX_Time,r24
 23301 86d0 9093 0000 		sts (UNIX_Time)+1,r25
 23302 86d4 A093 0000 		sts (UNIX_Time)+2,r26
 23303 86d8 B093 0000 		sts (UNIX_Time)+3,r27
 23304 86dc 00C0      		rjmp .L1326
 23305               	.L1323:
 23306               	.LM2523:
 23307 86de 82E0      		ldi r24,lo8(2)
 23308 86e0 8093 F000 		sts 240,r24
 23309               	.LBB914:
 23310               	.LBB915:
 23311               	.LM2524:
 23312 86e4 8FB7      		in r24,__SREG__
 23313 86e6 8983      		std Y+1,r24
 23314               	.LVL1605:
 23315               	.LM2525:
 23316               	/* #APP */
 23317               	 ;  83 "mainChestStrap.h" 1
 23318 86e8 F894      		cli
 23319               	 ;  0 "" 2
 23320               	.LM2526:
 23321               	/* #NOAPP */
 23322 86ea 1BBE      		out 59-0,__zero_reg__
 23323               	.LM2527:
 23324 86ec 21E0      		ldi r18,lo8(1)
 23325 86ee 80EF      		ldi r24,lo8(240)
 23326 86f0 90E0      		ldi r25,hi8(240)
 23327               	/* #APP */
 23328               	 ;  105 "mainChestStrap.h" 1
 23329 86f2 FC01      		movw r30,  r24
 23330 86f4 08ED      		ldi  r16,  216
 23331 86f6 04BF      		out   52, r16
 23332 86f8 2083      		st     Z,  r18
 23333               		
 23334               	 ;  0 "" 2
 23335               	.LM2528:
 23336               	/* #NOAPP */
 23337 86fa 8981      		ldd r24,Y+1
 23338 86fc 8FBF      		out __SREG__,r24
 23339               	.LBE915:
 23340               	.LBE914:
 23341               	.LM2529:
 23342 86fe 1092 2004 		sts 1056,__zero_reg__
 23343               	.LM2530:
 23344 8702 E0E2      		ldi r30,lo8(1056)
 23345 8704 F4E0      		ldi r31,hi8(1056)
 23346 8706 1282      		std Z+2,__zero_reg__
 23347 8708 00C0      		rjmp .L1326
 23348               	.LVL1606:
 23349               	.L1328:
 23350               	.LM2531:
 23351 870a 0E94 0000 		call SD_Init
 23352               	.LVL1607:
 23353 870e 84EC      		ldi r24,lo8(2500)
 23354 8710 99E0      		ldi r25,hi8(2500)
 23355               	.LVL1608:
 23356               	.L1327:
 23357               	.LBB916:
 23358               	.LBB917:
 23359               	.LBB918:
 23360               	.LBB919:
 23361               	.LM2532:
 23362 8712 F801      		movw r30,r16
 23363               	.LVL1609:
 23364               	/* #APP */
 23365               	 ;  105 "/usr/local/CrossPack-AVR-20100115/lib/gcc/avr/4.3.3/../../../../avr/include/util/delay_bas
 23366 8714 3197      		1: sbiw r30,1
 23367 8716 01F4      		brne 1b
 23368               	 ;  0 "" 2
 23369               	/* #NOAPP */
 23370               	.LBE919:
 23371               	.LBE918:
 23372               	.LM2533:
 23373 8718 0197      		sbiw r24,1
 23374               	.LM2534:
 23375 871a 01F4      		brne .L1327
 23376 871c 00C0      		rjmp .L1343
 23377               	.LVL1610:
 23378               	.L1326:
 23379               	.LBB921:
 23380               	.LBB920:
 23381               	.LM2535:
 23382 871e 00E7      		ldi r16,lo8(368)
 23383 8720 11E0      		ldi r17,hi8(368)
 23384               	.LVL1611:
 23385               	.L1343:
 23386               	.LBE920:
 23387               	.LBE921:
 23388               	.LBE917:
 23389               	.LBE916:
 23390               	.LBB922:
 23391               	.LBB923:
 23392               	.LM2536:
 23393 8722 8091 0000 		lds r24,sdValid
 23394               	.LVL1612:
 23395               	.LBE923:
 23396               	.LBE922:
 23397               	.LM2537:
 23398 8726 8823      		tst r24
 23399 8728 01F0      		breq .L1328
 23400 872a 88E8      		ldi r24,lo8(5000)
 23401 872c 93E1      		ldi r25,hi8(5000)
 23402               	.LVL1613:
 23403               	.LBB924:
 23404               	.LBB925:
 23405               	.LBB926:
 23406               	.LBB927:
 23407               	.LM2538:
 23408 872e 20E7      		ldi r18,lo8(368)
 23409 8730 31E0      		ldi r19,hi8(368)
 23410               	.LVL1614:
 23411               	.L1329:
 23412 8732 F901      		movw r30,r18
 23413               	.LVL1615:
 23414               	/* #APP */
 23415               	 ;  105 "/usr/local/CrossPack-AVR-20100115/lib/gcc/avr/4.3.3/../../../../avr/include/util/delay_bas
 23416 8734 3197      		1: sbiw r30,1
 23417 8736 01F4      		brne 1b
 23418               	 ;  0 "" 2
 23419               	/* #NOAPP */
 23420               	.LBE927:
 23421               	.LBE926:
 23422               	.LM2539:
 23423 8738 0197      		sbiw r24,1
 23424               	.LM2540:
 23425 873a 01F4      		brne .L1329
 23426               	.LBE925:
 23427               	.LBE924:
 23428               	.LM2541:
 23429 873c 0E94 0000 		call SD_Read_config_file
 23430               	.LVL1616:
 23431 8740 28E8      		ldi r18,lo8(5000)
 23432 8742 33E1      		ldi r19,hi8(5000)
 23433               	.LVL1617:
 23434               	.LM2542:
 23435 8744 FF24      		clr r15
 23436 8746 F394      		inc r15
 23437               	.LBB928:
 23438               	.LBB929:
 23439               	.LBB930:
 23440               	.LBB931:
 23441               	.LM2543:
 23442 8748 00E7      		ldi r16,lo8(368)
 23443 874a 11E0      		ldi r17,hi8(368)
 23444 874c 00C0      		rjmp .L1344
 23445               	.LVL1618:
 23446               	.L1331:
 23447 874e C801      		movw r24,r16
 23448               	/* #APP */
 23449               	 ;  105 "/usr/local/CrossPack-AVR-20100115/lib/gcc/avr/4.3.3/../../../../avr/include/util/delay_bas
 23450 8750 0197      		1: sbiw r24,1
 23451 8752 01F4      		brne 1b
 23452               	 ;  0 "" 2
 23453               	/* #NOAPP */
 23454               	.LBE931:
 23455               	.LBE930:
 23456               	.LM2544:
 23457 8754 2150      		subi r18,lo8(-(-1))
 23458 8756 3040      		sbci r19,hi8(-(-1))
 23459               	.L1344:
 23460               	.LM2545:
 23461 8758 2115      		cp r18,__zero_reg__
 23462 875a 3105      		cpc r19,__zero_reg__
 23463 875c 01F4      		brne .L1331
 23464               	.LBE929:
 23465               	.LBE928:
 23466               	.LM2546:
 23467 875e F092 0000 		sts okToGetRemainingSpace,r15
 23468               	.L1332:
 23469               	.LM2547:
 23470 8762 8091 0000 		lds r24,okToGetRemainingSpace
 23471               	.LVL1619:
 23472 8766 8823      		tst r24
 23473 8768 01F4      		brne .L1332
 23474               	.LM2548:
 23475 876a 1092 0000 		sts connected,__zero_reg__
 23476               	.L1333:
 23477               	.LM2549:
 23478 876e 0E94 0000 		call Uploader_connectToComputer
 23479               	.LVL1620:
 23480 8772 8823      		tst r24
 23481 8774 01F0      		breq .L1333
 23482               	.LM2550:
 23483 8776 F092 0000 		sts connected,r15
 23484               	.L1334:
 23485               	.LM2551:
 23486 877a 0E94 0000 		call Uploader_Update
 23487 877e 8823      		tst r24
 23488 8780 01F4      		brne .L1334
 23489 8782 28E8      		ldi r18,lo8(5000)
 23490 8784 33E1      		ldi r19,hi8(5000)
 23491               	.LVL1621:
 23492 8786 00C0      		rjmp .L1331
 23493               	.LFE140:
 23495               	.global	f_printf
 23497               	f_printf:
 23498               	.LFB86:
 23499               	.LM2552:
 23500               	.LVL1622:
 23501 8788 2F92      		push r2
 23502 878a 3F92      		push r3
 23503 878c 4F92      		push r4
 23504 878e 5F92      		push r5
 23505 8790 6F92      		push r6
 23506 8792 7F92      		push r7
 23507 8794 8F92      		push r8
 23508 8796 9F92      		push r9
 23509 8798 AF92      		push r10
 23510 879a BF92      		push r11
 23511 879c CF92      		push r12
 23512 879e DF92      		push r13
 23513 87a0 EF92      		push r14
 23514 87a2 FF92      		push r15
 23515 87a4 0F93      		push r16
 23516 87a6 1F93      		push r17
 23517 87a8 DF93      		push r29
 23518 87aa CF93      		push r28
 23519 87ac CDB7      		in r28,__SP_L__
 23520 87ae DEB7      		in r29,__SP_H__
 23521 87b0 6397      		sbiw r28,19
 23522 87b2 CDBF      		out __SP_L__,r28
 23523 87b4 DEBF      		out __SP_H__,r29
 23524               	/* prologue: function */
 23525               	/* frame size = 19 */
 23526 87b6 6BA4      		ldd r6,Y+43
 23527 87b8 7CA4      		ldd r7,Y+44
 23528               	.LM2553:
 23529 87ba 8E01      		movw r16,r28
 23530               	.LVL1623:
 23531 87bc 035D      		subi r16,lo8(-(45))
 23532 87be 1F4F      		sbci r17,hi8(-(45))
 23533 87c0 198A      		std Y+17,__zero_reg__
 23534 87c2 1A8A      		std Y+18,__zero_reg__
 23535               	.LVL1624:
 23536 87c4 20E0      		ldi r18,lo8(0)
 23537 87c6 30E0      		ldi r19,hi8(0)
 23538               	.LVL1625:
 23539               	.LVL1626:
 23540               	.L1373:
 23541               	.LM2554:
 23542 87c8 D301      		movw r26,r6
 23543 87ca 8C91      		ld r24,X
 23544               	.LVL1627:
 23545               	.LM2555:
 23546 87cc 8823      		tst r24
 23547 87ce 01F4      		brne .+2
 23548 87d0 00C0      		rjmp .L1346
 23549               	.LM2556:
 23550 87d2 0894      		sec
 23551 87d4 611C      		adc r6,__zero_reg__
 23552 87d6 711C      		adc r7,__zero_reg__
 23553               	.LM2557:
 23554 87d8 8532      		cpi r24,lo8(37)
 23555 87da 01F0      		breq .L1347
 23556               	.LM2558:
 23557 87dc 90E0      		ldi r25,lo8(0)
 23558 87de 69A5      		ldd r22,Y+41
 23559 87e0 7AA5      		ldd r23,Y+42
 23560 87e2 0E94 0000 		call f_putc
 23561               	.LVL1628:
 23562 87e6 9C01      		movw r18,r24
 23563               	.LVL1629:
 23564               	.LM2559:
 23565 87e8 BFEF      		ldi r27,hi8(-1)
 23566 87ea 8F3F      		cpi r24,lo8(-1)
 23567 87ec 9B07      		cpc r25,r27
 23568 87ee 01F4      		brne .L1348
 23569               	.LVL1630:
 23570 87f0 4801      		movw r8,r16
 23571 87f2 00C0      		rjmp .L1349
 23572               	.L1348:
 23573 87f4 4801      		movw r8,r16
 23574 87f6 00C0      		rjmp .L1376
 23575               	.LVL1631:
 23576               	.L1347:
 23577               	.LM2560:
 23578 87f8 D301      		movw r26,r6
 23579 87fa ED91      		ld r30,X+
 23580               	.LVL1632:
 23581 87fc 3D01      		movw r6,r26
 23582               	.LM2561:
 23583 87fe E033      		cpi r30,lo8(48)
 23584 8800 01F0      		breq .L1350
 23585 8802 1B8A      		std Y+19,__zero_reg__
 23586               	.LVL1633:
 23587 8804 00C0      		rjmp .L1351
 23588               	.L1350:
 23589               	.LM2562:
 23590 8806 ED91      		ld r30,X+
 23591 8808 3D01      		movw r6,r26
 23592 880a B1E0      		ldi r27,lo8(1)
 23593 880c BB8B      		std Y+19,r27
 23594               	.LVL1634:
 23595               	.L1351:
 23596 880e AA24      		clr r10
 23597 8810 BB24      		clr r11
 23598 8812 00C0      		rjmp .L1352
 23599               	.L1353:
 23600               	.LM2563:
 23601 8814 C501      		movw r24,r10
 23602 8816 73E0      		ldi r23,3
 23603 8818 880F      	1:	lsl r24
 23604 881a 991F      		rol r25
 23605 881c 7A95      		dec r23
 23606 881e 01F4      		brne 1b
 23607 8820 AA0C      		lsl r10
 23608 8822 BB1C      		rol r11
 23609 8824 A80E      		add r10,r24
 23610 8826 B91E      		adc r11,r25
 23611 8828 AE0E      		add r10,r30
 23612 882a B11C      		adc r11,__zero_reg__
 23613 882c E0ED      		ldi r30,lo8(-48)
 23614 882e FFEF      		ldi r31,hi8(-48)
 23615               	.LVL1635:
 23616 8830 AE0E      		add r10,r30
 23617 8832 BF1E      		adc r11,r31
 23618               	.LM2564:
 23619 8834 D301      		movw r26,r6
 23620 8836 ED91      		ld r30,X+
 23621               	.LVL1636:
 23622 8838 3D01      		movw r6,r26
 23623               	.L1352:
 23624               	.LM2565:
 23625 883a 8E2F      		mov r24,r30
 23626 883c 8053      		subi r24,lo8(-(-48))
 23627 883e 8A30      		cpi r24,lo8(10)
 23628 8840 00F0      		brlo .L1353
 23629               	.LM2566:
 23630 8842 EC36      		cpi r30,lo8(108)
 23631 8844 01F4      		brne .L1354
 23632               	.LM2567:
 23633 8846 BB89      		ldd r27,Y+19
 23634 8848 B260      		ori r27,lo8(2)
 23635 884a BB8B      		std Y+19,r27
 23636               	.LVL1637:
 23637 884c D301      		movw r26,r6
 23638 884e ED91      		ld r30,X+
 23639 8850 3D01      		movw r6,r26
 23640               	.L1354:
 23641               	.LM2568:
 23642 8852 E337      		cpi r30,lo8(115)
 23643 8854 01F4      		brne .L1355
 23644               	.LM2569:
 23645 8856 52E0      		ldi r21,lo8(2)
 23646 8858 852E      		mov r8,r21
 23647 885a 912C      		mov r9,__zero_reg__
 23648               	.LVL1638:
 23649 885c 800E      		add r8,r16
 23650 885e 911E      		adc r9,r17
 23651 8860 F801      		movw r30,r16
 23652               	.LVL1639:
 23653 8862 8081      		ld r24,Z
 23654 8864 9181      		ldd r25,Z+1
 23655 8866 00C0      		rjmp .L1377
 23656               	.LVL1640:
 23657               	.L1355:
 23658               	.LM2570:
 23659 8868 E336      		cpi r30,lo8(99)
 23660 886a 01F4      		brne .L1356
 23661               	.LM2571:
 23662 886c 42E0      		ldi r20,lo8(2)
 23663 886e 842E      		mov r8,r20
 23664 8870 912C      		mov r9,__zero_reg__
 23665               	.LVL1641:
 23666 8872 800E      		add r8,r16
 23667 8874 911E      		adc r9,r17
 23668 8876 D801      		movw r26,r16
 23669 8878 8D91      		ld r24,X+
 23670 887a 9C91      		ld r25,X
 23671 887c 69A5      		ldd r22,Y+41
 23672 887e 7AA5      		ldd r23,Y+42
 23673 8880 0E94 0000 		call f_putc
 23674               	.LVL1642:
 23675 8884 9C01      		movw r18,r24
 23676               	.LVL1643:
 23677               	.LM2572:
 23678 8886 BFEF      		ldi r27,hi8(-1)
 23679 8888 8F3F      		cpi r24,lo8(-1)
 23680 888a 9B07      		cpc r25,r27
 23681 888c 01F4      		brne .+2
 23682 888e 00C0      		rjmp .L1349
 23683               	.LVL1644:
 23684               	.L1376:
 23685 8890 21E0      		ldi r18,lo8(1)
 23686 8892 30E0      		ldi r19,hi8(1)
 23687               	.LVL1645:
 23688 8894 00C0      		rjmp .L1349
 23689               	.LVL1646:
 23690               	.L1356:
 23691               	.LM2573:
 23692 8896 E436      		cpi r30,lo8(100)
 23693 8898 01F0      		breq .L1357
 23694               	.LM2574:
 23695 889a E537      		cpi r30,lo8(117)
 23696 889c 01F0      		breq .L1357
 23697               	.LM2575:
 23698 889e E835      		cpi r30,lo8(88)
 23699 88a0 01F0      		breq .+2
 23700 88a2 00C0      		rjmp .L1346
 23701 88a4 20E1      		ldi r18,lo8(16)
 23702               	.LVL1647:
 23703 88a6 00C0      		rjmp .L1358
 23704               	.LVL1648:
 23705               	.L1357:
 23706 88a8 2AE0      		ldi r18,lo8(10)
 23707               	.LVL1649:
 23708               	.L1358:
 23709               	.LM2576:
 23710 88aa FB89      		ldd r31,Y+19
 23711 88ac F1FF      		sbrs r31,1
 23712 88ae 00C0      		rjmp .L1359
 23713               	.LM2577:
 23714 88b0 34E0      		ldi r19,lo8(4)
 23715 88b2 832E      		mov r8,r19
 23716 88b4 912C      		mov r9,__zero_reg__
 23717               	.LVL1650:
 23718 88b6 800E      		add r8,r16
 23719 88b8 911E      		adc r9,r17
 23720 88ba D801      		movw r26,r16
 23721 88bc ED90      		ld r14,X+
 23722 88be FD90      		ld r15,X+
 23723 88c0 0D91      		ld r16,X+
 23724 88c2 1C91      		ld r17,X
 23725               	.LM2578:
 23726 88c4 E436      		cpi r30,lo8(100)
 23727 88c6 01F4      		brne .L1361
 23728               	.LVL1651:
 23729 88c8 00C0      		rjmp .L1360
 23730               	.L1359:
 23731 88ca C801      		movw r24,r16
 23732 88cc 0296      		adiw r24,2
 23733               	.LVL1652:
 23734 88ce D801      		movw r26,r16
 23735 88d0 6D91      		ld r22,X+
 23736 88d2 7C91      		ld r23,X
 23737               	.LM2579:
 23738 88d4 E436      		cpi r30,lo8(100)
 23739 88d6 01F4      		brne .L1362
 23740               	.LVL1653:
 23741 88d8 4C01      		movw r8,r24
 23742 88da 7B01      		movw r14,r22
 23743 88dc 0027      		clr r16
 23744 88de F7FC      		sbrc r15,7
 23745 88e0 0095      		com r16
 23746 88e2 102F      		mov r17,r16
 23747 88e4 00C0      		rjmp .L1360
 23748               	.LVL1654:
 23749               	.L1362:
 23750 88e6 4C01      		movw r8,r24
 23751 88e8 7B01      		movw r14,r22
 23752               	.LVL1655:
 23753 88ea 00E0      		ldi r16,lo8(0)
 23754 88ec 10E0      		ldi r17,hi8(0)
 23755               	.LVL1656:
 23756 88ee 00C0      		rjmp .L1361
 23757               	.LVL1657:
 23758               	.L1360:
 23759               	.LM2580:
 23760 88f0 17FF      		sbrs r17,7
 23761 88f2 00C0      		rjmp .L1361
 23762               	.LM2581:
 23763 88f4 1095      		com r17
 23764 88f6 0095      		com r16
 23765 88f8 F094      		com r15
 23766 88fa E094      		com r14
 23767 88fc E11C      		adc r14,__zero_reg__
 23768 88fe F11C      		adc r15,__zero_reg__
 23769 8900 011D      		adc r16,__zero_reg__
 23770 8902 111D      		adc r17,__zero_reg__
 23771               	.LM2582:
 23772 8904 BB89      		ldd r27,Y+19
 23773 8906 B460      		ori r27,lo8(4)
 23774 8908 BB8B      		std Y+19,r27
 23775               	.LVL1658:
 23776               	.L1361:
 23777               	.LM2583:
 23778 890a 188A      		std Y+16,__zero_reg__
 23779 890c 9FE0      		ldi r25,lo8(15)
 23780 890e C92E      		mov r12,r25
 23781 8910 D12C      		mov r13,__zero_reg__
 23782               	.LM2584:
 23783 8912 222E      		mov r2,r18
 23784 8914 3324      		clr r3
 23785 8916 4424      		clr r4
 23786 8918 5524      		clr r5
 23787               	.LVL1659:
 23788               	.L1366:
 23789 891a C801      		movw r24,r16
 23790 891c B701      		movw r22,r14
 23791 891e A201      		movw r20,r4
 23792 8920 9101      		movw r18,r2
 23793               	.LVL1660:
 23794 8922 0E94 0000 		call __udivmodsi4
 23795               	.LVL1661:
 23796 8926 862F      		mov r24,r22
 23797               	.LVL1662:
 23798 8928 805D      		subi r24,lo8(-(48))
 23799               	.LM2585:
 23800 892a 8A33      		cpi r24,lo8(58)
 23801 892c 00F0      		brlo .L1363
 23802 892e 895F      		subi r24,lo8(-(7))
 23803               	.L1363:
 23804               	.LM2586:
 23805 8930 0894      		sec
 23806 8932 C108      		sbc r12,__zero_reg__
 23807 8934 D108      		sbc r13,__zero_reg__
 23808 8936 E1E0      		ldi r30,lo8(1)
 23809 8938 F0E0      		ldi r31,hi8(1)
 23810 893a EC0F      		add r30,r28
 23811 893c FD1F      		adc r31,r29
 23812 893e EC0D      		add r30,r12
 23813 8940 FD1D      		adc r31,r13
 23814 8942 8083      		st Z,r24
 23815               	.LM2587:
 23816 8944 C114      		cp r12,__zero_reg__
 23817 8946 D104      		cpc r13,__zero_reg__
 23818 8948 01F0      		breq .L1365
 23819               	.LM2588:
 23820 894a C801      		movw r24,r16
 23821 894c B701      		movw r22,r14
 23822 894e A201      		movw r20,r4
 23823 8950 9101      		movw r18,r2
 23824 8952 0E94 0000 		call __udivmodsi4
 23825 8956 C901      		movw r24,r18
 23826               	.LVL1663:
 23827 8958 DA01      		movw r26,r20
 23828 895a 7C01      		movw r14,r24
 23829 895c 8D01      		movw r16,r26
 23830               	.LM2589:
 23831 895e E114      		cp r14,__zero_reg__
 23832 8960 F104      		cpc r15,__zero_reg__
 23833 8962 0105      		cpc r16,__zero_reg__
 23834 8964 1105      		cpc r17,__zero_reg__
 23835 8966 01F4      		brne .L1366
 23836               	.LM2590:
 23837 8968 EB89      		ldd r30,Y+19
 23838 896a E2FF      		sbrs r30,2
 23839 896c 00C0      		rjmp .L1365
 23840 896e 0894      		sec
 23841 8970 C108      		sbc r12,__zero_reg__
 23842 8972 D108      		sbc r13,__zero_reg__
 23843 8974 E1E0      		ldi r30,lo8(1)
 23844 8976 F0E0      		ldi r31,hi8(1)
 23845 8978 EC0F      		add r30,r28
 23846 897a FD1F      		adc r31,r29
 23847 897c EC0D      		add r30,r12
 23848 897e FD1D      		adc r31,r13
 23849 8980 4DE2      		ldi r20,lo8(45)
 23850 8982 4083      		st Z,r20
 23851               	.LVL1664:
 23852               	.L1365:
 23853               	.LM2591:
 23854 8984 8FE0      		ldi r24,lo8(15)
 23855 8986 90E0      		ldi r25,hi8(15)
 23856               	.LVL1665:
 23857 8988 8A19      		sub r24,r10
 23858 898a 9B09      		sbc r25,r11
 23859 898c 0894      		sec
 23860 898e C108      		sbc r12,__zero_reg__
 23861 8990 D108      		sbc r13,__zero_reg__
 23862 8992 E1E0      		ldi r30,lo8(1)
 23863 8994 F0E0      		ldi r31,hi8(1)
 23864 8996 EC0F      		add r30,r28
 23865 8998 FD1F      		adc r31,r29
 23866 899a EC0D      		add r30,r12
 23867 899c FD1D      		adc r31,r13
 23868 899e 0894      		sec
 23869 89a0 C11C      		adc r12,__zero_reg__
 23870 89a2 D11C      		adc r13,__zero_reg__
 23871               	.LM2592:
 23872 89a4 AB89      		ldd r26,Y+19
 23873 89a6 2A2F      		mov r18,r26
 23874 89a8 30E0      		ldi r19,lo8(0)
 23875 89aa 2170      		andi r18,lo8(1)
 23876 89ac 3070      		andi r19,hi8(1)
 23877 89ae 00C0      		rjmp .L1367
 23878               	.L1371:
 23879 89b0 0894      		sec
 23880 89b2 C108      		sbc r12,__zero_reg__
 23881 89b4 D108      		sbc r13,__zero_reg__
 23882 89b6 2115      		cp r18,__zero_reg__
 23883 89b8 3105      		cpc r19,__zero_reg__
 23884 89ba 01F4      		brne .L1368
 23885 89bc 40E2      		ldi r20,lo8(32)
 23886 89be 00C0      		rjmp .L1369
 23887               	.L1368:
 23888 89c0 40E3      		ldi r20,lo8(48)
 23889               	.L1369:
 23890 89c2 4083      		st Z,r20
 23891 89c4 3197      		sbiw r30,1
 23892               	.L1367:
 23893 89c6 C114      		cp r12,__zero_reg__
 23894 89c8 D104      		cpc r13,__zero_reg__
 23895 89ca 01F0      		breq .L1370
 23896 89cc 8C15      		cp r24,r12
 23897 89ce 9D05      		cpc r25,r13
 23898 89d0 04F0      		brlt .L1371
 23899               	.L1370:
 23900               	.LM2593:
 23901 89d2 81E0      		ldi r24,lo8(1)
 23902 89d4 90E0      		ldi r25,hi8(1)
 23903               	.LVL1666:
 23904 89d6 8C0F      		add r24,r28
 23905 89d8 9D1F      		adc r25,r29
 23906 89da 8C0D      		add r24,r12
 23907 89dc 9D1D      		adc r25,r13
 23908               	.LVL1667:
 23909               	.L1377:
 23910 89de 69A5      		ldd r22,Y+41
 23911 89e0 7AA5      		ldd r23,Y+42
 23912 89e2 0E94 0000 		call f_puts
 23913               	.LVL1668:
 23914 89e6 9C01      		movw r18,r24
 23915               	.LVL1669:
 23916               	.L1349:
 23917               	.LM2594:
 23918 89e8 E989      		ldd r30,Y+17
 23919 89ea FA89      		ldd r31,Y+18
 23920 89ec E20F      		add r30,r18
 23921 89ee F31F      		adc r31,r19
 23922 89f0 E98B      		std Y+17,r30
 23923 89f2 FA8B      		std Y+18,r31
 23924               	.LVL1670:
 23925 89f4 FFEF      		ldi r31,hi8(-1)
 23926 89f6 2F3F      		cpi r18,lo8(-1)
 23927 89f8 3F07      		cpc r19,r31
 23928 89fa 01F0      		breq .L1372
 23929 89fc 8401      		movw r16,r8
 23930               	.LVL1671:
 23931 89fe 00C0      		rjmp .L1373
 23932               	.LVL1672:
 23933               	.L1346:
 23934               	.LM2595:
 23935 8a00 4FEF      		ldi r20,hi8(-1)
 23936 8a02 2F3F      		cpi r18,lo8(-1)
 23937 8a04 3407      		cpc r19,r20
 23938 8a06 01F0      		breq .L1372
 23939 8a08 2989      		ldd r18,Y+17
 23940 8a0a 3A89      		ldd r19,Y+18
 23941               	.LVL1673:
 23942               	.L1372:
 23943               	.LM2596:
 23944 8a0c C901      		movw r24,r18
 23945               	.LVL1674:
 23946               	/* epilogue start */
 23947 8a0e 6396      		adiw r28,19
 23948 8a10 CDBF      		out __SP_L__,r28
 23949 8a12 DEBF      		out __SP_H__,r29
 23950 8a14 CF91      		pop r28
 23951 8a16 DF91      		pop r29
 23952 8a18 1F91      		pop r17
 23953 8a1a 0F91      		pop r16
 23954               	.LVL1675:
 23955 8a1c FF90      		pop r15
 23956 8a1e EF90      		pop r14
 23957               	.LVL1676:
 23958 8a20 DF90      		pop r13
 23959 8a22 CF90      		pop r12
 23960               	.LVL1677:
 23961 8a24 BF90      		pop r11
 23962 8a26 AF90      		pop r10
 23963               	.LVL1678:
 23964 8a28 9F90      		pop r9
 23965 8a2a 8F90      		pop r8
 23966               	.LVL1679:
 23967 8a2c 7F90      		pop r7
 23968 8a2e 6F90      		pop r6
 23969               	.LVL1680:
 23970 8a30 5F90      		pop r5
 23971 8a32 4F90      		pop r4
 23972 8a34 3F90      		pop r3
 23973 8a36 2F90      		pop r2
 23974 8a38 0895      		ret
 23975               	.LFE86:
 23977               	.global	wantToRecordTemperature
 23978               		.data
 23981               	wantToRecordTemperature:
 23982 02c0 01        		.byte	1
 23983               	.global	wantToRecordHumidity
 23986               	wantToRecordHumidity:
 23987 02c1 01        		.byte	1
 23988               	.global	wantToRecordEKG
 23991               	wantToRecordEKG:
 23992 02c2 01        		.byte	1
 23993               	.global	wantToRecordRespiration
 23996               	wantToRecordRespiration:
 23997 02c3 01        		.byte	1
 23998               	.global	wantToRecordFast
 23999               	.global	wantToRecordFast
 24000               		.section .bss
 24003               	wantToRecordFast:
 24004 0000 00        		.skip 1,0
 24005               	.global	recording
 24006               	.global	recording
 24009               	recording:
 24010 0001 00        		.skip 1,0
 24011               	.global	temperatureBufferToWriteTo
 24012               	.global	temperatureBufferToWriteTo
 24015               	temperatureBufferToWriteTo:
 24016 0002 00        		.skip 1,0
 24017               	.global	temperatureBufferCounter
 24018               	.global	temperatureBufferCounter
 24021               	temperatureBufferCounter:
 24022 0003 0000      		.skip 2,0
 24023               	.global	lastTemperatureBufferSent
 24024               		.data
 24027               	lastTemperatureBufferSent:
 24028 02c4 64        		.byte	100
 24029               	.global	respirationBufferToWriteTo
 24030               	.global	respirationBufferToWriteTo
 24031               		.section .bss
 24034               	respirationBufferToWriteTo:
 24035 0005 00        		.skip 1,0
 24036               	.global	respirationBufferCounter
 24037               	.global	respirationBufferCounter
 24040               	respirationBufferCounter:
 24041 0006 0000      		.skip 2,0
 24042               	.global	lastRespirationBufferSent
 24043               		.data
 24046               	lastRespirationBufferSent:
 24047 02c5 64        		.byte	100
 24048               	.global	EKGBufferToWriteTo
 24049               	.global	EKGBufferToWriteTo
 24050               		.section .bss
 24053               	EKGBufferToWriteTo:
 24054 0008 00        		.skip 1,0
 24055               	.global	EKGBufferCounter
 24056               	.global	EKGBufferCounter
 24059               	EKGBufferCounter:
 24060 0009 0000      		.skip 2,0
 24061               	.global	lastEKGBufferSent
 24062               		.data
 24065               	lastEKGBufferSent:
 24066 02c6 64        		.byte	100
 24067               	.global	humidityBufferToWriteTo
 24068               	.global	humidityBufferToWriteTo
 24069               		.section .bss
 24072               	humidityBufferToWriteTo:
 24073 000b 00        		.skip 1,0
 24074               	.global	humidityBufferCounter
 24075               	.global	humidityBufferCounter
 24078               	humidityBufferCounter:
 24079 000c 0000      		.skip 2,0
 24080               	.global	lastHumidityBufferSent
 24081               		.data
 24084               	lastHumidityBufferSent:
 24085 02c7 64        		.byte	100
 24086               	.global	accelBufferToWriteTo
 24087               	.global	accelBufferToWriteTo
 24088               		.section .bss
 24091               	accelBufferToWriteTo:
 24092 000e 00        		.skip 1,0
 24093               	.global	accelBufferCounter
 24094               	.global	accelBufferCounter
 24097               	accelBufferCounter:
 24098 000f 0000      		.skip 2,0
 24099               	.global	lastAccelerometerBufferSent
 24100               		.data
 24103               	lastAccelerometerBufferSent:
 24104 02c8 64        		.byte	100
 24105               	.global	okToSendRTCBlock
 24106               	.global	okToSendRTCBlock
 24107               		.section .bss
 24110               	okToSendRTCBlock:
 24111 0011 00        		.skip 1,0
 24112               	.global	rtcBlockCounter
 24113               	.global	rtcBlockCounter
 24116               	rtcBlockCounter:
 24117 0012 00        		.skip 1,0
 24118               	.global	timeRecordingStarted
 24119               	.global	timeRecordingStarted
 24122               	timeRecordingStarted:
 24123 0013 0000 0000 		.skip 4,0
 24124               	.global	demoMode
 24125               	.global	demoMode
 24128               	demoMode:
 24129 0017 00        		.skip 1,0
 24130               	.global	useWifiForUploading
 24131               	.global	useWifiForUploading
 24134               	useWifiForUploading:
 24135 0018 00        		.skip 1,0
 24136               	.global	Debug_readLocation
 24137               	.global	Debug_readLocation
 24140               	Debug_readLocation:
 24141 0019 0000      		.skip 2,0
 24142               	.global	Debug_writeLocation
 24143               	.global	Debug_writeLocation
 24146               	Debug_writeLocation:
 24147 001b 0000      		.skip 2,0
 24148               	.global	Debug_timeOutCounter
 24149               	.global	Debug_timeOutCounter
 24152               	Debug_timeOutCounter:
 24153 001d 0000 0000 		.skip 4,0
 24154               	.global	UNIX_Time
 24155               	.global	UNIX_Time
 24158               	UNIX_Time:
 24159 0021 0000 0000 		.skip 4,0
 24160               	.global	Drives
 24161               		.data
 24164               	Drives:
 24165 02c9 00        		.byte	0
 24166 02ca 00        		.byte	0
 24167 02cb 00        		.byte	0
 24168 02cc 01        		.byte	1
 24169               	.global	serverOpenCommand
 24172               	serverOpenCommand:
 24173 02cd 6F70 656E 		.string	"open "
 24173      2000 
 24174 02d3 0000 0000 		.skip 44,0
 24174      0000 0000 
 24174      0000 0000 
 24174      0000 0000 
 24174      0000 0000 
 24175               	.global	zone
 24178               	zone:
 24179 02ff 474D 5400 		.string	"GMT"
 24180 0303 0000 0000 		.skip 6,0
 24180      0000 
 24181               	.global	am
 24184               	am:
 24185 0309 414D 00   		.string	"AM"
 24186 030c 0000      		.skip 2,0
 24187               	.global	pm
 24190               	pm:
 24191 030e 504D 00   		.string	"PM"
 24192 0311 0000      		.skip 2,0
 24193               	.global	timeZoneShift
 24194               	.global	timeZoneShift
 24195               		.section .bss
 24198               	timeZoneShift:
 24199 0025 00        		.skip 1,0
 24200               	.global	authRead
 24201               	.global	authRead
 24204               	authRead:
 24205 0026 00        		.skip 1,0
 24206               	.global	phraseRead
 24207               	.global	phraseRead
 24210               	phraseRead:
 24211 0027 00        		.skip 1,0
 24212               	.global	keyRead
 24213               	.global	keyRead
 24216               	keyRead:
 24217 0028 00        		.skip 1,0
 24218               	.global	ssidRead
 24219               	.global	ssidRead
 24222               	ssidRead:
 24223 0029 00        		.skip 1,0
 24224               	.global	zoneChanged
 24225               	.global	zoneChanged
 24228               	zoneChanged:
 24229 002a 00        		.skip 1,0
 24230               	.global	sdValid
 24231               	.global	sdValid
 24234               	sdValid:
 24235 002b 00        		.skip 1,0
 24236               	.global	percentDiskUsed
 24237               	.global	percentDiskUsed
 24240               	percentDiskUsed:
 24241 002c 0000 0000 		.skip 4,0
 24242               	.global	crc_table
 24243               		.data
 24246               	crc_table:
 24247 0313 00        		.byte	0
 24248 0314 00        		.byte	0
 24249 0315 00        		.byte	0
 24250 0316 00        		.byte	0
 24251 0317 96        		.byte	-106
 24252 0318 30        		.byte	48
 24253 0319 07        		.byte	7
 24254 031a 77        		.byte	119
 24255 031b 2C        		.byte	44
 24256 031c 61        		.byte	97
 24257 031d 0E        		.byte	14
 24258 031e EE        		.byte	-18
 24259 031f BA        		.byte	-70
 24260 0320 51        		.byte	81
 24261 0321 09        		.byte	9
 24262 0322 99        		.byte	-103
 24263 0323 19        		.byte	25
 24264 0324 C4        		.byte	-60
 24265 0325 6D        		.byte	109
 24266 0326 07        		.byte	7
 24267 0327 8F        		.byte	-113
 24268 0328 F4        		.byte	-12
 24269 0329 6A        		.byte	106
 24270 032a 70        		.byte	112
 24271 032b 35        		.byte	53
 24272 032c A5        		.byte	-91
 24273 032d 63        		.byte	99
 24274 032e E9        		.byte	-23
 24275 032f A3        		.byte	-93
 24276 0330 95        		.byte	-107
 24277 0331 64        		.byte	100
 24278 0332 9E        		.byte	-98
 24279 0333 32        		.byte	50
 24280 0334 88        		.byte	-120
 24281 0335 DB        		.byte	-37
 24282 0336 0E        		.byte	14
 24283 0337 A4        		.byte	-92
 24284 0338 B8        		.byte	-72
 24285 0339 DC        		.byte	-36
 24286 033a 79        		.byte	121
 24287 033b 1E        		.byte	30
 24288 033c E9        		.byte	-23
 24289 033d D5        		.byte	-43
 24290 033e E0        		.byte	-32
 24291 033f 88        		.byte	-120
 24292 0340 D9        		.byte	-39
 24293 0341 D2        		.byte	-46
 24294 0342 97        		.byte	-105
 24295 0343 2B        		.byte	43
 24296 0344 4C        		.byte	76
 24297 0345 B6        		.byte	-74
 24298 0346 09        		.byte	9
 24299 0347 BD        		.byte	-67
 24300 0348 7C        		.byte	124
 24301 0349 B1        		.byte	-79
 24302 034a 7E        		.byte	126
 24303 034b 07        		.byte	7
 24304 034c 2D        		.byte	45
 24305 034d B8        		.byte	-72
 24306 034e E7        		.byte	-25
 24307 034f 91        		.byte	-111
 24308 0350 1D        		.byte	29
 24309 0351 BF        		.byte	-65
 24310 0352 90        		.byte	-112
 24311 0353 64        		.byte	100
 24312 0354 10        		.byte	16
 24313 0355 B7        		.byte	-73
 24314 0356 1D        		.byte	29
 24315 0357 F2        		.byte	-14
 24316 0358 20        		.byte	32
 24317 0359 B0        		.byte	-80
 24318 035a 6A        		.byte	106
 24319 035b 48        		.byte	72
 24320 035c 71        		.byte	113
 24321 035d B9        		.byte	-71
 24322 035e F3        		.byte	-13
 24323 035f DE        		.byte	-34
 24324 0360 41        		.byte	65
 24325 0361 BE        		.byte	-66
 24326 0362 84        		.byte	-124
 24327 0363 7D        		.byte	125
 24328 0364 D4        		.byte	-44
 24329 0365 DA        		.byte	-38
 24330 0366 1A        		.byte	26
 24331 0367 EB        		.byte	-21
 24332 0368 E4        		.byte	-28
 24333 0369 DD        		.byte	-35
 24334 036a 6D        		.byte	109
 24335 036b 51        		.byte	81
 24336 036c B5        		.byte	-75
 24337 036d D4        		.byte	-44
 24338 036e F4        		.byte	-12
 24339 036f C7        		.byte	-57
 24340 0370 85        		.byte	-123
 24341 0371 D3        		.byte	-45
 24342 0372 83        		.byte	-125
 24343 0373 56        		.byte	86
 24344 0374 98        		.byte	-104
 24345 0375 6C        		.byte	108
 24346 0376 13        		.byte	19
 24347 0377 C0        		.byte	-64
 24348 0378 A8        		.byte	-88
 24349 0379 6B        		.byte	107
 24350 037a 64        		.byte	100
 24351 037b 7A        		.byte	122
 24352 037c F9        		.byte	-7
 24353 037d 62        		.byte	98
 24354 037e FD        		.byte	-3
 24355 037f EC        		.byte	-20
 24356 0380 C9        		.byte	-55
 24357 0381 65        		.byte	101
 24358 0382 8A        		.byte	-118
 24359 0383 4F        		.byte	79
 24360 0384 5C        		.byte	92
 24361 0385 01        		.byte	1
 24362 0386 14        		.byte	20
 24363 0387 D9        		.byte	-39
 24364 0388 6C        		.byte	108
 24365 0389 06        		.byte	6
 24366 038a 63        		.byte	99
 24367 038b 63        		.byte	99
 24368 038c 3D        		.byte	61
 24369 038d 0F        		.byte	15
 24370 038e FA        		.byte	-6
 24371 038f F5        		.byte	-11
 24372 0390 0D        		.byte	13
 24373 0391 08        		.byte	8
 24374 0392 8D        		.byte	-115
 24375 0393 C8        		.byte	-56
 24376 0394 20        		.byte	32
 24377 0395 6E        		.byte	110
 24378 0396 3B        		.byte	59
 24379 0397 5E        		.byte	94
 24380 0398 10        		.byte	16
 24381 0399 69        		.byte	105
 24382 039a 4C        		.byte	76
 24383 039b E4        		.byte	-28
 24384 039c 41        		.byte	65
 24385 039d 60        		.byte	96
 24386 039e D5        		.byte	-43
 24387 039f 72        		.byte	114
 24388 03a0 71        		.byte	113
 24389 03a1 67        		.byte	103
 24390 03a2 A2        		.byte	-94
 24391 03a3 D1        		.byte	-47
 24392 03a4 E4        		.byte	-28
 24393 03a5 03        		.byte	3
 24394 03a6 3C        		.byte	60
 24395 03a7 47        		.byte	71
 24396 03a8 D4        		.byte	-44
 24397 03a9 04        		.byte	4
 24398 03aa 4B        		.byte	75
 24399 03ab FD        		.byte	-3
 24400 03ac 85        		.byte	-123
 24401 03ad 0D        		.byte	13
 24402 03ae D2        		.byte	-46
 24403 03af 6B        		.byte	107
 24404 03b0 B5        		.byte	-75
 24405 03b1 0A        		.byte	10
 24406 03b2 A5        		.byte	-91
 24407 03b3 FA        		.byte	-6
 24408 03b4 A8        		.byte	-88
 24409 03b5 B5        		.byte	-75
 24410 03b6 35        		.byte	53
 24411 03b7 6C        		.byte	108
 24412 03b8 98        		.byte	-104
 24413 03b9 B2        		.byte	-78
 24414 03ba 42        		.byte	66
 24415 03bb D6        		.byte	-42
 24416 03bc C9        		.byte	-55
 24417 03bd BB        		.byte	-69
 24418 03be DB        		.byte	-37
 24419 03bf 40        		.byte	64
 24420 03c0 F9        		.byte	-7
 24421 03c1 BC        		.byte	-68
 24422 03c2 AC        		.byte	-84
 24423 03c3 E3        		.byte	-29
 24424 03c4 6C        		.byte	108
 24425 03c5 D8        		.byte	-40
 24426 03c6 32        		.byte	50
 24427 03c7 75        		.byte	117
 24428 03c8 5C        		.byte	92
 24429 03c9 DF        		.byte	-33
 24430 03ca 45        		.byte	69
 24431 03cb CF        		.byte	-49
 24432 03cc 0D        		.byte	13
 24433 03cd D6        		.byte	-42
 24434 03ce DC        		.byte	-36
 24435 03cf 59        		.byte	89
 24436 03d0 3D        		.byte	61
 24437 03d1 D1        		.byte	-47
 24438 03d2 AB        		.byte	-85
 24439 03d3 AC        		.byte	-84
 24440 03d4 30        		.byte	48
 24441 03d5 D9        		.byte	-39
 24442 03d6 26        		.byte	38
 24443 03d7 3A        		.byte	58
 24444 03d8 00        		.byte	0
 24445 03d9 DE        		.byte	-34
 24446 03da 51        		.byte	81
 24447 03db 80        		.byte	-128
 24448 03dc 51        		.byte	81
 24449 03dd D7        		.byte	-41
 24450 03de C8        		.byte	-56
 24451 03df 16        		.byte	22
 24452 03e0 61        		.byte	97
 24453 03e1 D0        		.byte	-48
 24454 03e2 BF        		.byte	-65
 24455 03e3 B5        		.byte	-75
 24456 03e4 F4        		.byte	-12
 24457 03e5 B4        		.byte	-76
 24458 03e6 21        		.byte	33
 24459 03e7 23        		.byte	35
 24460 03e8 C4        		.byte	-60
 24461 03e9 B3        		.byte	-77
 24462 03ea 56        		.byte	86
 24463 03eb 99        		.byte	-103
 24464 03ec 95        		.byte	-107
 24465 03ed BA        		.byte	-70
 24466 03ee CF        		.byte	-49
 24467 03ef 0F        		.byte	15
 24468 03f0 A5        		.byte	-91
 24469 03f1 BD        		.byte	-67
 24470 03f2 B8        		.byte	-72
 24471 03f3 9E        		.byte	-98
 24472 03f4 B8        		.byte	-72
 24473 03f5 02        		.byte	2
 24474 03f6 28        		.byte	40
 24475 03f7 08        		.byte	8
 24476 03f8 88        		.byte	-120
 24477 03f9 05        		.byte	5
 24478 03fa 5F        		.byte	95
 24479 03fb B2        		.byte	-78
 24480 03fc D9        		.byte	-39
 24481 03fd 0C        		.byte	12
 24482 03fe C6        		.byte	-58
 24483 03ff 24        		.byte	36
 24484 0400 E9        		.byte	-23
 24485 0401 0B        		.byte	11
 24486 0402 B1        		.byte	-79
 24487 0403 87        		.byte	-121
 24488 0404 7C        		.byte	124
 24489 0405 6F        		.byte	111
 24490 0406 2F        		.byte	47
 24491 0407 11        		.byte	17
 24492 0408 4C        		.byte	76
 24493 0409 68        		.byte	104
 24494 040a 58        		.byte	88
 24495 040b AB        		.byte	-85
 24496 040c 1D        		.byte	29
 24497 040d 61        		.byte	97
 24498 040e C1        		.byte	-63
 24499 040f 3D        		.byte	61
 24500 0410 2D        		.byte	45
 24501 0411 66        		.byte	102
 24502 0412 B6        		.byte	-74
 24503 0413 90        		.byte	-112
 24504 0414 41        		.byte	65
 24505 0415 DC        		.byte	-36
 24506 0416 76        		.byte	118
 24507 0417 06        		.byte	6
 24508 0418 71        		.byte	113
 24509 0419 DB        		.byte	-37
 24510 041a 01        		.byte	1
 24511 041b BC        		.byte	-68
 24512 041c 20        		.byte	32
 24513 041d D2        		.byte	-46
 24514 041e 98        		.byte	-104
 24515 041f 2A        		.byte	42
 24516 0420 10        		.byte	16
 24517 0421 D5        		.byte	-43
 24518 0422 EF        		.byte	-17
 24519 0423 89        		.byte	-119
 24520 0424 85        		.byte	-123
 24521 0425 B1        		.byte	-79
 24522 0426 71        		.byte	113
 24523 0427 1F        		.byte	31
 24524 0428 B5        		.byte	-75
 24525 0429 B6        		.byte	-74
 24526 042a 06        		.byte	6
 24527 042b A5        		.byte	-91
 24528 042c E4        		.byte	-28
 24529 042d BF        		.byte	-65
 24530 042e 9F        		.byte	-97
 24531 042f 33        		.byte	51
 24532 0430 D4        		.byte	-44
 24533 0431 B8        		.byte	-72
 24534 0432 E8        		.byte	-24
 24535 0433 A2        		.byte	-94
 24536 0434 C9        		.byte	-55
 24537 0435 07        		.byte	7
 24538 0436 78        		.byte	120
 24539 0437 34        		.byte	52
 24540 0438 F9        		.byte	-7
 24541 0439 00        		.byte	0
 24542 043a 0F        		.byte	15
 24543 043b 8E        		.byte	-114
 24544 043c A8        		.byte	-88
 24545 043d 09        		.byte	9
 24546 043e 96        		.byte	-106
 24547 043f 18        		.byte	24
 24548 0440 98        		.byte	-104
 24549 0441 0E        		.byte	14
 24550 0442 E1        		.byte	-31
 24551 0443 BB        		.byte	-69
 24552 0444 0D        		.byte	13
 24553 0445 6A        		.byte	106
 24554 0446 7F        		.byte	127
 24555 0447 2D        		.byte	45
 24556 0448 3D        		.byte	61
 24557 0449 6D        		.byte	109
 24558 044a 08        		.byte	8
 24559 044b 97        		.byte	-105
 24560 044c 6C        		.byte	108
 24561 044d 64        		.byte	100
 24562 044e 91        		.byte	-111
 24563 044f 01        		.byte	1
 24564 0450 5C        		.byte	92
 24565 0451 63        		.byte	99
 24566 0452 E6        		.byte	-26
 24567 0453 F4        		.byte	-12
 24568 0454 51        		.byte	81
 24569 0455 6B        		.byte	107
 24570 0456 6B        		.byte	107
 24571 0457 62        		.byte	98
 24572 0458 61        		.byte	97
 24573 0459 6C        		.byte	108
 24574 045a 1C        		.byte	28
 24575 045b D8        		.byte	-40
 24576 045c 30        		.byte	48
 24577 045d 65        		.byte	101
 24578 045e 85        		.byte	-123
 24579 045f 4E        		.byte	78
 24580 0460 00        		.byte	0
 24581 0461 62        		.byte	98
 24582 0462 F2        		.byte	-14
 24583 0463 ED        		.byte	-19
 24584 0464 95        		.byte	-107
 24585 0465 06        		.byte	6
 24586 0466 6C        		.byte	108
 24587 0467 7B        		.byte	123
 24588 0468 A5        		.byte	-91
 24589 0469 01        		.byte	1
 24590 046a 1B        		.byte	27
 24591 046b C1        		.byte	-63
 24592 046c F4        		.byte	-12
 24593 046d 08        		.byte	8
 24594 046e 82        		.byte	-126
 24595 046f 57        		.byte	87
 24596 0470 C4        		.byte	-60
 24597 0471 0F        		.byte	15
 24598 0472 F5        		.byte	-11
 24599 0473 C6        		.byte	-58
 24600 0474 D9        		.byte	-39
 24601 0475 B0        		.byte	-80
 24602 0476 65        		.byte	101
 24603 0477 50        		.byte	80
 24604 0478 E9        		.byte	-23
 24605 0479 B7        		.byte	-73
 24606 047a 12        		.byte	18
 24607 047b EA        		.byte	-22
 24608 047c B8        		.byte	-72
 24609 047d BE        		.byte	-66
 24610 047e 8B        		.byte	-117
 24611 047f 7C        		.byte	124
 24612 0480 88        		.byte	-120
 24613 0481 B9        		.byte	-71
 24614 0482 FC        		.byte	-4
 24615 0483 DF        		.byte	-33
 24616 0484 1D        		.byte	29
 24617 0485 DD        		.byte	-35
 24618 0486 62        		.byte	98
 24619 0487 49        		.byte	73
 24620 0488 2D        		.byte	45
 24621 0489 DA        		.byte	-38
 24622 048a 15        		.byte	21
 24623 048b F3        		.byte	-13
 24624 048c 7C        		.byte	124
 24625 048d D3        		.byte	-45
 24626 048e 8C        		.byte	-116
 24627 048f 65        		.byte	101
 24628 0490 4C        		.byte	76
 24629 0491 D4        		.byte	-44
 24630 0492 FB        		.byte	-5
 24631 0493 58        		.byte	88
 24632 0494 61        		.byte	97
 24633 0495 B2        		.byte	-78
 24634 0496 4D        		.byte	77
 24635 0497 CE        		.byte	-50
 24636 0498 51        		.byte	81
 24637 0499 B5        		.byte	-75
 24638 049a 3A        		.byte	58
 24639 049b 74        		.byte	116
 24640 049c 00        		.byte	0
 24641 049d BC        		.byte	-68
 24642 049e A3        		.byte	-93
 24643 049f E2        		.byte	-30
 24644 04a0 30        		.byte	48
 24645 04a1 BB        		.byte	-69
 24646 04a2 D4        		.byte	-44
 24647 04a3 41        		.byte	65
 24648 04a4 A5        		.byte	-91
 24649 04a5 DF        		.byte	-33
 24650 04a6 4A        		.byte	74
 24651 04a7 D7        		.byte	-41
 24652 04a8 95        		.byte	-107
 24653 04a9 D8        		.byte	-40
 24654 04aa 3D        		.byte	61
 24655 04ab 6D        		.byte	109
 24656 04ac C4        		.byte	-60
 24657 04ad D1        		.byte	-47
 24658 04ae A4        		.byte	-92
 24659 04af FB        		.byte	-5
 24660 04b0 F4        		.byte	-12
 24661 04b1 D6        		.byte	-42
 24662 04b2 D3        		.byte	-45
 24663 04b3 6A        		.byte	106
 24664 04b4 E9        		.byte	-23
 24665 04b5 69        		.byte	105
 24666 04b6 43        		.byte	67
 24667 04b7 FC        		.byte	-4
 24668 04b8 D9        		.byte	-39
 24669 04b9 6E        		.byte	110
 24670 04ba 34        		.byte	52
 24671 04bb 46        		.byte	70
 24672 04bc 88        		.byte	-120
 24673 04bd 67        		.byte	103
 24674 04be AD        		.byte	-83
 24675 04bf D0        		.byte	-48
 24676 04c0 B8        		.byte	-72
 24677 04c1 60        		.byte	96
 24678 04c2 DA        		.byte	-38
 24679 04c3 73        		.byte	115
 24680 04c4 2D        		.byte	45
 24681 04c5 04        		.byte	4
 24682 04c6 44        		.byte	68
 24683 04c7 E5        		.byte	-27
 24684 04c8 1D        		.byte	29
 24685 04c9 03        		.byte	3
 24686 04ca 33        		.byte	51
 24687 04cb 5F        		.byte	95
 24688 04cc 4C        		.byte	76
 24689 04cd 0A        		.byte	10
 24690 04ce AA        		.byte	-86
 24691 04cf C9        		.byte	-55
 24692 04d0 7C        		.byte	124
 24693 04d1 0D        		.byte	13
 24694 04d2 DD        		.byte	-35
 24695 04d3 3C        		.byte	60
 24696 04d4 71        		.byte	113
 24697 04d5 05        		.byte	5
 24698 04d6 50        		.byte	80
 24699 04d7 AA        		.byte	-86
 24700 04d8 41        		.byte	65
 24701 04d9 02        		.byte	2
 24702 04da 27        		.byte	39
 24703 04db 10        		.byte	16
 24704 04dc 10        		.byte	16
 24705 04dd 0B        		.byte	11
 24706 04de BE        		.byte	-66
 24707 04df 86        		.byte	-122
 24708 04e0 20        		.byte	32
 24709 04e1 0C        		.byte	12
 24710 04e2 C9        		.byte	-55
 24711 04e3 25        		.byte	37
 24712 04e4 B5        		.byte	-75
 24713 04e5 68        		.byte	104
 24714 04e6 57        		.byte	87
 24715 04e7 B3        		.byte	-77
 24716 04e8 85        		.byte	-123
 24717 04e9 6F        		.byte	111
 24718 04ea 20        		.byte	32
 24719 04eb 09        		.byte	9
 24720 04ec D4        		.byte	-44
 24721 04ed 66        		.byte	102
 24722 04ee B9        		.byte	-71
 24723 04ef 9F        		.byte	-97
 24724 04f0 E4        		.byte	-28
 24725 04f1 61        		.byte	97
 24726 04f2 CE        		.byte	-50
 24727 04f3 0E        		.byte	14
 24728 04f4 F9        		.byte	-7
 24729 04f5 DE        		.byte	-34
 24730 04f6 5E        		.byte	94
 24731 04f7 98        		.byte	-104
 24732 04f8 C9        		.byte	-55
 24733 04f9 D9        		.byte	-39
 24734 04fa 29        		.byte	41
 24735 04fb 22        		.byte	34
 24736 04fc 98        		.byte	-104
 24737 04fd D0        		.byte	-48
 24738 04fe B0        		.byte	-80
 24739 04ff B4        		.byte	-76
 24740 0500 A8        		.byte	-88
 24741 0501 D7        		.byte	-41
 24742 0502 C7        		.byte	-57
 24743 0503 17        		.byte	23
 24744 0504 3D        		.byte	61
 24745 0505 B3        		.byte	-77
 24746 0506 59        		.byte	89
 24747 0507 81        		.byte	-127
 24748 0508 0D        		.byte	13
 24749 0509 B4        		.byte	-76
 24750 050a 2E        		.byte	46
 24751 050b 3B        		.byte	59
 24752 050c 5C        		.byte	92
 24753 050d BD        		.byte	-67
 24754 050e B7        		.byte	-73
 24755 050f AD        		.byte	-83
 24756 0510 6C        		.byte	108
 24757 0511 BA        		.byte	-70
 24758 0512 C0        		.byte	-64
 24759 0513 20        		.byte	32
 24760 0514 83        		.byte	-125
 24761 0515 B8        		.byte	-72
 24762 0516 ED        		.byte	-19
 24763 0517 B6        		.byte	-74
 24764 0518 B3        		.byte	-77
 24765 0519 BF        		.byte	-65
 24766 051a 9A        		.byte	-102
 24767 051b 0C        		.byte	12
 24768 051c E2        		.byte	-30
 24769 051d B6        		.byte	-74
 24770 051e 03        		.byte	3
 24771 051f 9A        		.byte	-102
 24772 0520 D2        		.byte	-46
 24773 0521 B1        		.byte	-79
 24774 0522 74        		.byte	116
 24775 0523 39        		.byte	57
 24776 0524 47        		.byte	71
 24777 0525 D5        		.byte	-43
 24778 0526 EA        		.byte	-22
 24779 0527 AF        		.byte	-81
 24780 0528 77        		.byte	119
 24781 0529 D2        		.byte	-46
 24782 052a 9D        		.byte	-99
 24783 052b 15        		.byte	21
 24784 052c 26        		.byte	38
 24785 052d DB        		.byte	-37
 24786 052e 04        		.byte	4
 24787 052f 83        		.byte	-125
 24788 0530 16        		.byte	22
 24789 0531 DC        		.byte	-36
 24790 0532 73        		.byte	115
 24791 0533 12        		.byte	18
 24792 0534 0B        		.byte	11
 24793 0535 63        		.byte	99
 24794 0536 E3        		.byte	-29
 24795 0537 84        		.byte	-124
 24796 0538 3B        		.byte	59
 24797 0539 64        		.byte	100
 24798 053a 94        		.byte	-108
 24799 053b 3E        		.byte	62
 24800 053c 6A        		.byte	106
 24801 053d 6D        		.byte	109
 24802 053e 0D        		.byte	13
 24803 053f A8        		.byte	-88
 24804 0540 5A        		.byte	90
 24805 0541 6A        		.byte	106
 24806 0542 7A        		.byte	122
 24807 0543 0B        		.byte	11
 24808 0544 CF        		.byte	-49
 24809 0545 0E        		.byte	14
 24810 0546 E4        		.byte	-28
 24811 0547 9D        		.byte	-99
 24812 0548 FF        		.byte	-1
 24813 0549 09        		.byte	9
 24814 054a 93        		.byte	-109
 24815 054b 27        		.byte	39
 24816 054c AE        		.byte	-82
 24817 054d 00        		.byte	0
 24818 054e 0A        		.byte	10
 24819 054f B1        		.byte	-79
 24820 0550 9E        		.byte	-98
 24821 0551 07        		.byte	7
 24822 0552 7D        		.byte	125
 24823 0553 44        		.byte	68
 24824 0554 93        		.byte	-109
 24825 0555 0F        		.byte	15
 24826 0556 F0        		.byte	-16
 24827 0557 D2        		.byte	-46
 24828 0558 A3        		.byte	-93
 24829 0559 08        		.byte	8
 24830 055a 87        		.byte	-121
 24831 055b 68        		.byte	104
 24832 055c F2        		.byte	-14
 24833 055d 01        		.byte	1
 24834 055e 1E        		.byte	30
 24835 055f FE        		.byte	-2
 24836 0560 C2        		.byte	-62
 24837 0561 06        		.byte	6
 24838 0562 69        		.byte	105
 24839 0563 5D        		.byte	93
 24840 0564 57        		.byte	87
 24841 0565 62        		.byte	98
 24842 0566 F7        		.byte	-9
 24843 0567 CB        		.byte	-53
 24844 0568 67        		.byte	103
 24845 0569 65        		.byte	101
 24846 056a 80        		.byte	-128
 24847 056b 71        		.byte	113
 24848 056c 36        		.byte	54
 24849 056d 6C        		.byte	108
 24850 056e 19        		.byte	25
 24851 056f E7        		.byte	-25
 24852 0570 06        		.byte	6
 24853 0571 6B        		.byte	107
 24854 0572 6E        		.byte	110
 24855 0573 76        		.byte	118
 24856 0574 1B        		.byte	27
 24857 0575 D4        		.byte	-44
 24858 0576 FE        		.byte	-2
 24859 0577 E0        		.byte	-32
 24860 0578 2B        		.byte	43
 24861 0579 D3        		.byte	-45
 24862 057a 89        		.byte	-119
 24863 057b 5A        		.byte	90
 24864 057c 7A        		.byte	122
 24865 057d DA        		.byte	-38
 24866 057e 10        		.byte	16
 24867 057f CC        		.byte	-52
 24868 0580 4A        		.byte	74
 24869 0581 DD        		.byte	-35
 24870 0582 67        		.byte	103
 24871 0583 6F        		.byte	111
 24872 0584 DF        		.byte	-33
 24873 0585 B9        		.byte	-71
 24874 0586 F9        		.byte	-7
 24875 0587 F9        		.byte	-7
 24876 0588 EF        		.byte	-17
 24877 0589 BE        		.byte	-66
 24878 058a 8E        		.byte	-114
 24879 058b 43        		.byte	67
 24880 058c BE        		.byte	-66
 24881 058d B7        		.byte	-73
 24882 058e 17        		.byte	23
 24883 058f D5        		.byte	-43
 24884 0590 8E        		.byte	-114
 24885 0591 B0        		.byte	-80
 24886 0592 60        		.byte	96
 24887 0593 E8        		.byte	-24
 24888 0594 A3        		.byte	-93
 24889 0595 D6        		.byte	-42
 24890 0596 D6        		.byte	-42
 24891 0597 7E        		.byte	126
 24892 0598 93        		.byte	-109
 24893 0599 D1        		.byte	-47
 24894 059a A1        		.byte	-95
 24895 059b C4        		.byte	-60
 24896 059c C2        		.byte	-62
 24897 059d D8        		.byte	-40
 24898 059e 38        		.byte	56
 24899 059f 52        		.byte	82
 24900 05a0 F2        		.byte	-14
 24901 05a1 DF        		.byte	-33
 24902 05a2 4F        		.byte	79
 24903 05a3 F1        		.byte	-15
 24904 05a4 67        		.byte	103
 24905 05a5 BB        		.byte	-69
 24906 05a6 D1        		.byte	-47
 24907 05a7 67        		.byte	103
 24908 05a8 57        		.byte	87
 24909 05a9 BC        		.byte	-68
 24910 05aa A6        		.byte	-90
 24911 05ab DD        		.byte	-35
 24912 05ac 06        		.byte	6
 24913 05ad B5        		.byte	-75
 24914 05ae 3F        		.byte	63
 24915 05af 4B        		.byte	75
 24916 05b0 36        		.byte	54
 24917 05b1 B2        		.byte	-78
 24918 05b2 48        		.byte	72
 24919 05b3 DA        		.byte	-38
 24920 05b4 2B        		.byte	43
 24921 05b5 0D        		.byte	13
 24922 05b6 D8        		.byte	-40
 24923 05b7 4C        		.byte	76
 24924 05b8 1B        		.byte	27
 24925 05b9 0A        		.byte	10
 24926 05ba AF        		.byte	-81
 24927 05bb F6        		.byte	-10
 24928 05bc 4A        		.byte	74
 24929 05bd 03        		.byte	3
 24930 05be 36        		.byte	54
 24931 05bf 60        		.byte	96
 24932 05c0 7A        		.byte	122
 24933 05c1 04        		.byte	4
 24934 05c2 41        		.byte	65
 24935 05c3 C3        		.byte	-61
 24936 05c4 EF        		.byte	-17
 24937 05c5 60        		.byte	96
 24938 05c6 DF        		.byte	-33
 24939 05c7 55        		.byte	85
 24940 05c8 DF        		.byte	-33
 24941 05c9 67        		.byte	103
 24942 05ca A8        		.byte	-88
 24943 05cb EF        		.byte	-17
 24944 05cc 8E        		.byte	-114
 24945 05cd 6E        		.byte	110
 24946 05ce 31        		.byte	49
 24947 05cf 79        		.byte	121
 24948 05d0 BE        		.byte	-66
 24949 05d1 69        		.byte	105
 24950 05d2 46        		.byte	70
 24951 05d3 8C        		.byte	-116
 24952 05d4 B3        		.byte	-77
 24953 05d5 61        		.byte	97
 24954 05d6 CB        		.byte	-53
 24955 05d7 1A        		.byte	26
 24956 05d8 83        		.byte	-125
 24957 05d9 66        		.byte	102
 24958 05da BC        		.byte	-68
 24959 05db A0        		.byte	-96
 24960 05dc D2        		.byte	-46
 24961 05dd 6F        		.byte	111
 24962 05de 25        		.byte	37
 24963 05df 36        		.byte	54
 24964 05e0 E2        		.byte	-30
 24965 05e1 68        		.byte	104
 24966 05e2 52        		.byte	82
 24967 05e3 95        		.byte	-107
 24968 05e4 77        		.byte	119
 24969 05e5 0C        		.byte	12
 24970 05e6 CC        		.byte	-52
 24971 05e7 03        		.byte	3
 24972 05e8 47        		.byte	71
 24973 05e9 0B        		.byte	11
 24974 05ea BB        		.byte	-69
 24975 05eb B9        		.byte	-71
 24976 05ec 16        		.byte	22
 24977 05ed 02        		.byte	2
 24978 05ee 22        		.byte	34
 24979 05ef 2F        		.byte	47
 24980 05f0 26        		.byte	38
 24981 05f1 05        		.byte	5
 24982 05f2 55        		.byte	85
 24983 05f3 BE        		.byte	-66
 24984 05f4 3B        		.byte	59
 24985 05f5 BA        		.byte	-70
 24986 05f6 C5        		.byte	-59
 24987 05f7 28        		.byte	40
 24988 05f8 0B        		.byte	11
 24989 05f9 BD        		.byte	-67
 24990 05fa B2        		.byte	-78
 24991 05fb 92        		.byte	-110
 24992 05fc 5A        		.byte	90
 24993 05fd B4        		.byte	-76
 24994 05fe 2B        		.byte	43
 24995 05ff 04        		.byte	4
 24996 0600 6A        		.byte	106
 24997 0601 B3        		.byte	-77
 24998 0602 5C        		.byte	92
 24999 0603 A7        		.byte	-89
 25000 0604 FF        		.byte	-1
 25001 0605 D7        		.byte	-41
 25002 0606 C2        		.byte	-62
 25003 0607 31        		.byte	49
 25004 0608 CF        		.byte	-49
 25005 0609 D0        		.byte	-48
 25006 060a B5        		.byte	-75
 25007 060b 8B        		.byte	-117
 25008 060c 9E        		.byte	-98
 25009 060d D9        		.byte	-39
 25010 060e 2C        		.byte	44
 25011 060f 1D        		.byte	29
 25012 0610 AE        		.byte	-82
 25013 0611 DE        		.byte	-34
 25014 0612 5B        		.byte	91
 25015 0613 B0        		.byte	-80
 25016 0614 C2        		.byte	-62
 25017 0615 64        		.byte	100
 25018 0616 9B        		.byte	-101
 25019 0617 26        		.byte	38
 25020 0618 F2        		.byte	-14
 25021 0619 63        		.byte	99
 25022 061a EC        		.byte	-20
 25023 061b 9C        		.byte	-100
 25024 061c A3        		.byte	-93
 25025 061d 6A        		.byte	106
 25026 061e 75        		.byte	117
 25027 061f 0A        		.byte	10
 25028 0620 93        		.byte	-109
 25029 0621 6D        		.byte	109
 25030 0622 02        		.byte	2
 25031 0623 A9        		.byte	-87
 25032 0624 06        		.byte	6
 25033 0625 09        		.byte	9
 25034 0626 9C        		.byte	-100
 25035 0627 3F        		.byte	63
 25036 0628 36        		.byte	54
 25037 0629 0E        		.byte	14
 25038 062a EB        		.byte	-21
 25039 062b 85        		.byte	-123
 25040 062c 67        		.byte	103
 25041 062d 07        		.byte	7
 25042 062e 72        		.byte	114
 25043 062f 13        		.byte	19
 25044 0630 57        		.byte	87
 25045 0631 00        		.byte	0
 25046 0632 05        		.byte	5
 25047 0633 82        		.byte	-126
 25048 0634 4A        		.byte	74
 25049 0635 BF        		.byte	-65
 25050 0636 95        		.byte	-107
 25051 0637 14        		.byte	20
 25052 0638 7A        		.byte	122
 25053 0639 B8        		.byte	-72
 25054 063a E2        		.byte	-30
 25055 063b AE        		.byte	-82
 25056 063c 2B        		.byte	43
 25057 063d B1        		.byte	-79
 25058 063e 7B        		.byte	123
 25059 063f 38        		.byte	56
 25060 0640 1B        		.byte	27
 25061 0641 B6        		.byte	-74
 25062 0642 0C        		.byte	12
 25063 0643 9B        		.byte	-101
 25064 0644 8E        		.byte	-114
 25065 0645 D2        		.byte	-46
 25066 0646 92        		.byte	-110
 25067 0647 0D        		.byte	13
 25068 0648 BE        		.byte	-66
 25069 0649 D5        		.byte	-43
 25070 064a E5        		.byte	-27
 25071 064b B7        		.byte	-73
 25072 064c EF        		.byte	-17
 25073 064d DC        		.byte	-36
 25074 064e 7C        		.byte	124
 25075 064f 21        		.byte	33
 25076 0650 DF        		.byte	-33
 25077 0651 DB        		.byte	-37
 25078 0652 0B        		.byte	11
 25079 0653 D4        		.byte	-44
 25080 0654 D2        		.byte	-46
 25081 0655 D3        		.byte	-45
 25082 0656 86        		.byte	-122
 25083 0657 42        		.byte	66
 25084 0658 E2        		.byte	-30
 25085 0659 D4        		.byte	-44
 25086 065a F1        		.byte	-15
 25087 065b F8        		.byte	-8
 25088 065c B3        		.byte	-77
 25089 065d DD        		.byte	-35
 25090 065e 68        		.byte	104
 25091 065f 6E        		.byte	110
 25092 0660 83        		.byte	-125
 25093 0661 DA        		.byte	-38
 25094 0662 1F        		.byte	31
 25095 0663 CD        		.byte	-51
 25096 0664 16        		.byte	22
 25097 0665 BE        		.byte	-66
 25098 0666 81        		.byte	-127
 25099 0667 5B        		.byte	91
 25100 0668 26        		.byte	38
 25101 0669 B9        		.byte	-71
 25102 066a F6        		.byte	-10
 25103 066b E1        		.byte	-31
 25104 066c 77        		.byte	119
 25105 066d B0        		.byte	-80
 25106 066e 6F        		.byte	111
 25107 066f 77        		.byte	119
 25108 0670 47        		.byte	71
 25109 0671 B7        		.byte	-73
 25110 0672 18        		.byte	24
 25111 0673 E6        		.byte	-26
 25112 0674 5A        		.byte	90
 25113 0675 08        		.byte	8
 25114 0676 88        		.byte	-120
 25115 0677 70        		.byte	112
 25116 0678 6A        		.byte	106
 25117 0679 0F        		.byte	15
 25118 067a FF        		.byte	-1
 25119 067b CA        		.byte	-54
 25120 067c 3B        		.byte	59
 25121 067d 06        		.byte	6
 25122 067e 66        		.byte	102
 25123 067f 5C        		.byte	92
 25124 0680 0B        		.byte	11
 25125 0681 01        		.byte	1
 25126 0682 11        		.byte	17
 25127 0683 FF        		.byte	-1
 25128 0684 9E        		.byte	-98
 25129 0685 65        		.byte	101
 25130 0686 8F        		.byte	-113
 25131 0687 69        		.byte	105
 25132 0688 AE        		.byte	-82
 25133 0689 62        		.byte	98
 25134 068a F8        		.byte	-8
 25135 068b D3        		.byte	-45
 25136 068c FF        		.byte	-1
 25137 068d 6B        		.byte	107
 25138 068e 61        		.byte	97
 25139 068f 45        		.byte	69
 25140 0690 CF        		.byte	-49
 25141 0691 6C        		.byte	108
 25142 0692 16        		.byte	22
 25143 0693 78        		.byte	120
 25144 0694 E2        		.byte	-30
 25145 0695 0A        		.byte	10
 25146 0696 A0        		.byte	-96
 25147 0697 EE        		.byte	-18
 25148 0698 D2        		.byte	-46
 25149 0699 0D        		.byte	13
 25150 069a D7        		.byte	-41
 25151 069b 54        		.byte	84
 25152 069c 83        		.byte	-125
 25153 069d 04        		.byte	4
 25154 069e 4E        		.byte	78
 25155 069f C2        		.byte	-62
 25156 06a0 B3        		.byte	-77
 25157 06a1 03        		.byte	3
 25158 06a2 39        		.byte	57
 25159 06a3 61        		.byte	97
 25160 06a4 26        		.byte	38
 25161 06a5 67        		.byte	103
 25162 06a6 A7        		.byte	-89
 25163 06a7 F7        		.byte	-9
 25164 06a8 16        		.byte	22
 25165 06a9 60        		.byte	96
 25166 06aa D0        		.byte	-48
 25167 06ab 4D        		.byte	77
 25168 06ac 47        		.byte	71
 25169 06ad 69        		.byte	105
 25170 06ae 49        		.byte	73
 25171 06af DB        		.byte	-37
 25172 06b0 77        		.byte	119
 25173 06b1 6E        		.byte	110
 25174 06b2 3E        		.byte	62
 25175 06b3 4A        		.byte	74
 25176 06b4 6A        		.byte	106
 25177 06b5 D1        		.byte	-47
 25178 06b6 AE        		.byte	-82
 25179 06b7 DC        		.byte	-36
 25180 06b8 5A        		.byte	90
 25181 06b9 D6        		.byte	-42
 25182 06ba D9        		.byte	-39
 25183 06bb 66        		.byte	102
 25184 06bc 0B        		.byte	11
 25185 06bd DF        		.byte	-33
 25186 06be 40        		.byte	64
 25187 06bf F0        		.byte	-16
 25188 06c0 3B        		.byte	59
 25189 06c1 D8        		.byte	-40
 25190 06c2 37        		.byte	55
 25191 06c3 53        		.byte	83
 25192 06c4 AE        		.byte	-82
 25193 06c5 BC        		.byte	-68
 25194 06c6 A9        		.byte	-87
 25195 06c7 C5        		.byte	-59
 25196 06c8 9E        		.byte	-98
 25197 06c9 BB        		.byte	-69
 25198 06ca DE        		.byte	-34
 25199 06cb 7F        		.byte	127
 25200 06cc CF        		.byte	-49
 25201 06cd B2        		.byte	-78
 25202 06ce 47        		.byte	71
 25203 06cf E9        		.byte	-23
 25204 06d0 FF        		.byte	-1
 25205 06d1 B5        		.byte	-75
 25206 06d2 30        		.byte	48
 25207 06d3 1C        		.byte	28
 25208 06d4 F2        		.byte	-14
 25209 06d5 BD        		.byte	-67
 25210 06d6 BD        		.byte	-67
 25211 06d7 8A        		.byte	-118
 25212 06d8 C2        		.byte	-62
 25213 06d9 BA        		.byte	-70
 25214 06da CA        		.byte	-54
 25215 06db 30        		.byte	48
 25216 06dc 93        		.byte	-109
 25217 06dd B3        		.byte	-77
 25218 06de 53        		.byte	83
 25219 06df A6        		.byte	-90
 25220 06e0 A3        		.byte	-93
 25221 06e1 B4        		.byte	-76
 25222 06e2 24        		.byte	36
 25223 06e3 05        		.byte	5
 25224 06e4 36        		.byte	54
 25225 06e5 D0        		.byte	-48
 25226 06e6 BA        		.byte	-70
 25227 06e7 93        		.byte	-109
 25228 06e8 06        		.byte	6
 25229 06e9 D7        		.byte	-41
 25230 06ea CD        		.byte	-51
 25231 06eb 29        		.byte	41
 25232 06ec 57        		.byte	87
 25233 06ed DE        		.byte	-34
 25234 06ee 54        		.byte	84
 25235 06ef BF        		.byte	-65
 25236 06f0 67        		.byte	103
 25237 06f1 D9        		.byte	-39
 25238 06f2 23        		.byte	35
 25239 06f3 2E        		.byte	46
 25240 06f4 7A        		.byte	122
 25241 06f5 66        		.byte	102
 25242 06f6 B3        		.byte	-77
 25243 06f7 B8        		.byte	-72
 25244 06f8 4A        		.byte	74
 25245 06f9 61        		.byte	97
 25246 06fa C4        		.byte	-60
 25247 06fb 02        		.byte	2
 25248 06fc 1B        		.byte	27
 25249 06fd 68        		.byte	104
 25250 06fe 5D        		.byte	93
 25251 06ff 94        		.byte	-108
 25252 0700 2B        		.byte	43
 25253 0701 6F        		.byte	111
 25254 0702 2A        		.byte	42
 25255 0703 37        		.byte	55
 25256 0704 BE        		.byte	-66
 25257 0705 0B        		.byte	11
 25258 0706 B4        		.byte	-76
 25259 0707 A1        		.byte	-95
 25260 0708 8E        		.byte	-114
 25261 0709 0C        		.byte	12
 25262 070a C3        		.byte	-61
 25263 070b 1B        		.byte	27
 25264 070c DF        		.byte	-33
 25265 070d 05        		.byte	5
 25266 070e 5A        		.byte	90
 25267 070f 8D        		.byte	-115
 25268 0710 EF        		.byte	-17
 25269 0711 02        		.byte	2
 25270 0712 2D        		.byte	45
 25271               	.global	HZ_RefeshCounter
 25272               	.global	HZ_RefeshCounter
 25273               		.section .bss
 25276               	HZ_RefeshCounter:
 25277 0030 0000      		.skip 2,0
 25278               	.global	HZ_RefeshCounter2
 25279               	.global	HZ_RefeshCounter2
 25282               	HZ_RefeshCounter2:
 25283 0032 0000      		.skip 2,0
 25284               	.global	ekgCounter
 25285               	.global	ekgCounter
 25288               	ekgCounter:
 25289 0034 0000      		.skip 2,0
 25290               	.global	tempTime
 25291               	.global	tempTime
 25294               	tempTime:
 25295 0036 0000 0000 		.skip 4,0
 25296               	.global	commandCounter
 25297               		.data
 25300               	commandCounter:
 25301 0713 30        		.byte	48
 25302               	.global	timeOutCounter
 25303               	.global	timeOutCounter
 25304               		.section .bss
 25307               	timeOutCounter:
 25308 003a 0000      		.skip 2,0
 25309               	.global	uploadFileSize
 25310               	.global	uploadFileSize
 25313               	uploadFileSize:
 25314 003c 0000 0000 		.skip 4,0
 25315               	.global	uploadPercentBS
 25316               	.global	uploadPercentBS
 25319               	uploadPercentBS:
 25320 0040 00        		.skip 1,0
 25321               	.global	numberOfPacketsToUpload
 25322               	.global	numberOfPacketsToUpload
 25325               	numberOfPacketsToUpload:
 25326 0041 0000 0000 		.skip 4,0
 25327               	.global	leftOverBytesToUpload
 25328               	.global	leftOverBytesToUpload
 25331               	leftOverBytesToUpload:
 25332 0045 0000 0000 		.skip 4,0
 25333               	.global	connected
 25334               	.global	connected
 25337               	connected:
 25338 0049 00        		.skip 1,0
 25339               	.global	uploading
 25340               	.global	uploading
 25343               	uploading:
 25344 004a 00        		.skip 1,0
 25345               	.global	okToOpenDirectory
 25346               	.global	okToOpenDirectory
 25349               	okToOpenDirectory:
 25350 004b 00        		.skip 1,0
 25351               	.global	okToGrabNextFileName
 25352               	.global	okToGrabNextFileName
 25355               	okToGrabNextFileName:
 25356 004c 00        		.skip 1,0
 25357               	.global	okToUpload
 25358               	.global	okToUpload
 25361               	okToUpload:
 25362 004d 00        		.skip 1,0
 25363               	.global	doneUploading
 25364               	.global	doneUploading
 25367               	doneUploading:
 25368 004e 00        		.skip 1,0
 25369               	.global	okToOpenFileToUpload
 25370               	.global	okToOpenFileToUpload
 25373               	okToOpenFileToUpload:
 25374 004f 00        		.skip 1,0
 25375               	.global	uploadFileOpened
 25376               	.global	uploadFileOpened
 25379               	uploadFileOpened:
 25380 0050 00        		.skip 1,0
 25381               	.global	okToFillUploadFileBuffer
 25382               	.global	okToFillUploadFileBuffer
 25385               	okToFillUploadFileBuffer:
 25386 0051 00        		.skip 1,0
 25387               	.global	uploadFileBufferFull
 25388               	.global	uploadFileBufferFull
 25391               	uploadFileBufferFull:
 25392 0052 00        		.skip 1,0
 25393               	.global	okToCloseUploadFile
 25394               	.global	okToCloseUploadFile
 25397               	okToCloseUploadFile:
 25398 0053 00        		.skip 1,0
 25399               	.global	okToEraseFile
 25400               	.global	okToEraseFile
 25403               	okToEraseFile:
 25404 0054 00        		.skip 1,0
 25405               	.global	fileExists
 25406               	.global	fileExists
 25409               	fileExists:
 25410 0055 00        		.skip 1,0
 25411               	.global	timeIsValid
 25412               	.global	timeIsValid
 25415               	timeIsValid:
 25416 0056 00        		.skip 1,0
 25417               	.global	okToOpenLogFile
 25418               	.global	okToOpenLogFile
 25421               	okToOpenLogFile:
 25422 0057 00        		.skip 1,0
 25423               	.global	okToWriteToLogFile
 25424               	.global	okToWriteToLogFile
 25427               	okToWriteToLogFile:
 25428 0058 00        		.skip 1,0
 25429               	.global	okToCloseLogFile
 25430               	.global	okToCloseLogFile
 25433               	okToCloseLogFile:
 25434 0059 00        		.skip 1,0
 25435               	.global	okToGetRemainingSpace
 25436               	.global	okToGetRemainingSpace
 25439               	okToGetRemainingSpace:
 25440 005a 00        		.skip 1,0
 25441               	.global	restartingFile
 25442               	.global	restartingFile
 25445               	restartingFile:
 25446 005b 00        		.skip 1,0
 25447               	.global	lengthOfCurrentFile
 25448               	.global	lengthOfCurrentFile
 25451               	lengthOfCurrentFile:
 25452 005c 0000      		.skip 2,0
 25453               	.global	syncCounter
 25454               	.global	syncCounter
 25457               	syncCounter:
 25458 005e 0000      		.skip 2,0
 25459               	.global	debounceTimer
 25460               	.global	debounceTimer
 25463               	debounceTimer:
 25464 0060 00        		.skip 1,0
 25465               	.global	debounceEnabled
 25466               	.global	debounceEnabled
 25469               	debounceEnabled:
 25470 0061 00        		.skip 1,0
 25471               	.global	spaceRemainingCounter
 25472               	.global	spaceRemainingCounter
 25475               	spaceRemainingCounter:
 25476 0062 00        		.skip 1,0
 25477               	.global	batteryVoltageOk
 25478               		.data
 25481               	batteryVoltageOk:
 25482 0714 01        		.byte	1
 25485               	cstbl.6368:
 25486 0715 0080      		.word	-32768
 25487 0717 0040      		.word	16384
 25488 0719 0020      		.word	8192
 25489 071b 0010      		.word	4096
 25490 071d 0008      		.word	2048
 25491 071f 0040      		.word	16384
 25492 0721 0020      		.word	8192
 25493 0723 0010      		.word	4096
 25494 0725 0008      		.word	2048
 25495 0727 0004      		.word	1024
 25496 0729 0002      		.word	512
 25499               	sstbl.6367:
 25500 072b 00        		.byte	0
 25501 072c 40        		.byte	64
 25502 072d 1F        		.byte	31
 25503 072e 00        		.byte	0
 25504 072f 00        		.byte	0
 25505 0730 A0        		.byte	-96
 25506 0731 0F        		.byte	15
 25507 0732 00        		.byte	0
 25508 0733 00        		.byte	0
 25509 0734 D0        		.byte	-48
 25510 0735 07        		.byte	7
 25511 0736 00        		.byte	0
 25512 0737 00        		.byte	0
 25513 0738 E8        		.byte	-24
 25514 0739 03        		.byte	3
 25515 073a 00        		.byte	0
 25516 073b 00        		.byte	0
 25517 073c F4        		.byte	-12
 25518 073d 01        		.byte	1
 25519 073e 00        		.byte	0
 25520 073f 00        		.byte	0
 25521 0740 FA        		.byte	-6
 25522 0741 00        		.byte	0
 25523 0742 00        		.byte	0
 25524 0743 00        		.byte	0
 25525 0744 7D        		.byte	125
 25526 0745 00        		.byte	0
 25527 0746 00        		.byte	0
 25528 0747 80        		.byte	-128
 25529 0748 3E        		.byte	62
 25530 0749 00        		.byte	0
 25531 074a 00        		.byte	0
 25532 074b 40        		.byte	64
 25533 074c 1F        		.byte	31
 25534 074d 00        		.byte	0
 25535 074e 00        		.byte	0
 25536 074f A0        		.byte	-96
 25537 0750 0F        		.byte	15
 25538 0751 00        		.byte	0
 25539 0752 00        		.byte	0
 25540 0753 00        		.byte	0
 25541 0754 00        		.byte	0
 25542 0755 00        		.byte	0
 25543 0756 00        		.byte	0
 25546               	Stat:
 25547 0757 01        		.byte	1
 25550               	monthDays:
 25551 0758 1F        		.byte	31
 25552 0759 1C        		.byte	28
 25553 075a 1F        		.byte	31
 25554 075b 1E        		.byte	30
 25555 075c 1F        		.byte	31
 25556 075d 1E        		.byte	30
 25557 075e 1F        		.byte	31
 25558 075f 1F        		.byte	31
 25559 0760 1E        		.byte	30
 25560 0761 1F        		.byte	31
 25561 0762 1E        		.byte	30
 25562 0763 1F        		.byte	31
 25563               		.lcomm Timer1,1
 25564               		.lcomm Timer2,1
 25565               		.lcomm CardType,1
 25566               		.lcomm FatFs,4
 25567               		.lcomm Fsid,2
 25568               		.lcomm fso0,558
 25569               		.lcomm fso1,558
 25570               		.comm deviceID,50,1
 25571               		.comm temperatureSampleStartTime,40,1
 25572               		.comm temperatureBuffer,40,1
 25573               		.comm okToSendTemperatureBuffer,2,1
 25574               		.comm respirationSampleStartTime,200,1
 25575               		.comm respirationBuffer,300,1
 25576               		.comm okToSendRespirationBuffer,3,1
 25577               		.comm EKGSampleStartTime,1200,1
 25578               		.comm EKGBuffer,1800,1
 25579               		.comm okToSendEKGBuffer,3,1
 25580               		.comm humiditySampleStartTime,40,1
 25581               		.comm humidityBuffer,40,1
 25582               		.comm okToSendHumidityBuffer,2,1
 25583               		.comm accelSampleStartTime,1200,1
 25584               		.comm accelBuffer,3600,1
 25585               		.comm okToSendAccelBuffer,2,1
 25586               		.comm DebugBuffer,100,1
 25587               		.comm ledState,2,1
 25588               		.comm ledCounter,2,1
 25589               		.comm time,8,1
 25590               		.comm fs,2,1
 25591               		.comm fno,22,1
 25592               		.comm fno2,22,1
 25593               		.comm dir,22,1
 25594               		.comm Log_File,544,1
 25595               		.comm Upload_File,544,1
 25596               		.comm fileName,20,1
 25597               		.comm tmpString,10,1
 25598               		.comm tmp8,1,1
 25599               		.comm tmp16,2,1
 25600               		.comm tmp32,4,1
 25601               		.comm CRC,4,1
 25602               		.comm currentLogFile,15,1
 25603               		.comm auth,50,1
 25604               		.comm phrase,50,1
 25605               		.comm key,50,1
 25606               		.comm ssid,50,1
 25607               		.comm nickname,50,1
 25608               		.comm port,50,1
 25609               		.comm server,50,1
 25610               		.comm user,10,1
 25611               		.comm daylightTime,10,1
 25612               		.comm demoModeString,10,1
 25613               		.comm fastString,10,1
 25614               		.comm zeroOffsetA,2,1
 25615               		.comm zeroOffsetB,2,1
 25616               		.comm uploadFileBuffer,1000,1
 25617               		.comm fileToUpload,15,1
 25618               		.comm availableFileName,15,1
 25619               		.comm fileToErase,20,1
 25620               		.comm command,50,1
 25621               		.comm eraseFileReturn,1,1
 25622               		.comm uploadCRC,4,1
 25623               		.comm temp,50,1
 26768               	.Letext0:
DEFINED SYMBOLS
                            *ABS*:00000000 mainChestStrap.c
/var/folders/yg/v065xz8d7t9blhsyp93dmr5w0000gn/T//ccTpL4FI.s:2      *ABS*:0000003f __SREG__
/var/folders/yg/v065xz8d7t9blhsyp93dmr5w0000gn/T//ccTpL4FI.s:3      *ABS*:0000003e __SP_H__
/var/folders/yg/v065xz8d7t9blhsyp93dmr5w0000gn/T//ccTpL4FI.s:4      *ABS*:0000003d __SP_L__
/var/folders/yg/v065xz8d7t9blhsyp93dmr5w0000gn/T//ccTpL4FI.s:5      *ABS*:00000034 __CCP__
/var/folders/yg/v065xz8d7t9blhsyp93dmr5w0000gn/T//ccTpL4FI.s:6      *ABS*:00000000 __tmp_reg__
/var/folders/yg/v065xz8d7t9blhsyp93dmr5w0000gn/T//ccTpL4FI.s:7      *ABS*:00000001 __zero_reg__
/var/folders/yg/v065xz8d7t9blhsyp93dmr5w0000gn/T//ccTpL4FI.s:18     .text:00000000 CCPWrite
/var/folders/yg/v065xz8d7t9blhsyp93dmr5w0000gn/T//ccTpL4FI.s:67     .text:0000002a Debug_CharReadyToRead
/var/folders/yg/v065xz8d7t9blhsyp93dmr5w0000gn/T//ccTpL4FI.s:24146  .bss:0000001b Debug_writeLocation
                            *COM*:00000064 DebugBuffer
/var/folders/yg/v065xz8d7t9blhsyp93dmr5w0000gn/T//ccTpL4FI.s:24140  .bss:00000019 Debug_readLocation
/var/folders/yg/v065xz8d7t9blhsyp93dmr5w0000gn/T//ccTpL4FI.s:112    .text:00000084 Debug_ClearBuffer
/var/folders/yg/v065xz8d7t9blhsyp93dmr5w0000gn/T//ccTpL4FI.s:153    .text:000000da Debug_Init
/var/folders/yg/v065xz8d7t9blhsyp93dmr5w0000gn/T//ccTpL4FI.s:305    .text:000001b0 Debug_GetByte
/var/folders/yg/v065xz8d7t9blhsyp93dmr5w0000gn/T//ccTpL4FI.s:354    .text:000001f6 Debug_SendByte
/var/folders/yg/v065xz8d7t9blhsyp93dmr5w0000gn/T//ccTpL4FI.s:24152  .bss:0000001d Debug_timeOutCounter
/var/folders/yg/v065xz8d7t9blhsyp93dmr5w0000gn/T//ccTpL4FI.s:437    .text:00000272 Leds_Init
                            *COM*:00000002 ledState
/var/folders/yg/v065xz8d7t9blhsyp93dmr5w0000gn/T//ccTpL4FI.s:474    .text:00000296 Leds_State
/var/folders/yg/v065xz8d7t9blhsyp93dmr5w0000gn/T//ccTpL4FI.s:493    .text:000002a2 Leds_Set
/var/folders/yg/v065xz8d7t9blhsyp93dmr5w0000gn/T//ccTpL4FI.s:517    .text:000002b8 Leds_Clear
/var/folders/yg/v065xz8d7t9blhsyp93dmr5w0000gn/T//ccTpL4FI.s:541    .text:000002ce Leds_Toggle
/var/folders/yg/v065xz8d7t9blhsyp93dmr5w0000gn/T//ccTpL4FI.s:565    .text:000002e4 Time_Init
/var/folders/yg/v065xz8d7t9blhsyp93dmr5w0000gn/T//ccTpL4FI.s:595    .text:00000306 Time_Set
/var/folders/yg/v065xz8d7t9blhsyp93dmr5w0000gn/T//ccTpL4FI.s:740    .text:000003b2 Time_CheckVBatSystem
/var/folders/yg/v065xz8d7t9blhsyp93dmr5w0000gn/T//ccTpL4FI.s:775    .text:000003e2 Time_Get
/var/folders/yg/v065xz8d7t9blhsyp93dmr5w0000gn/T//ccTpL4FI.s:805    .text:0000040c Time_Get32BitTimer
/var/folders/yg/v065xz8d7t9blhsyp93dmr5w0000gn/T//ccTpL4FI.s:869    .text:0000045c Time_UTCSecsToTime
/var/folders/yg/v065xz8d7t9blhsyp93dmr5w0000gn/T//ccTpL4FI.s:25550  .data:00000758 monthDays
/var/folders/yg/v065xz8d7t9blhsyp93dmr5w0000gn/T//ccTpL4FI.s:1187   .text:00000662 wait_ready
/var/folders/yg/v065xz8d7t9blhsyp93dmr5w0000gn/T//ccTpL4FI.s:25563  .bss:00000064 Timer2
/var/folders/yg/v065xz8d7t9blhsyp93dmr5w0000gn/T//ccTpL4FI.s:1243   .text:000006a0 select
/var/folders/yg/v065xz8d7t9blhsyp93dmr5w0000gn/T//ccTpL4FI.s:1296   .text:000006da rcvr_datablock
                             .bss:00000063 Timer1
/var/folders/yg/v065xz8d7t9blhsyp93dmr5w0000gn/T//ccTpL4FI.s:1440   .text:0000079e xmit_datablock
/var/folders/yg/v065xz8d7t9blhsyp93dmr5w0000gn/T//ccTpL4FI.s:1557   .text:0000083c send_cmd
/var/folders/yg/v065xz8d7t9blhsyp93dmr5w0000gn/T//ccTpL4FI.s:1774   .text:00000954 disk_initialize
/var/folders/yg/v065xz8d7t9blhsyp93dmr5w0000gn/T//ccTpL4FI.s:25546  .data:00000757 Stat
/var/folders/yg/v065xz8d7t9blhsyp93dmr5w0000gn/T//ccTpL4FI.s:25564  .bss:00000065 CardType
/var/folders/yg/v065xz8d7t9blhsyp93dmr5w0000gn/T//ccTpL4FI.s:2107   .text:00000b20 disk_status
/var/folders/yg/v065xz8d7t9blhsyp93dmr5w0000gn/T//ccTpL4FI.s:2130   .text:00000b2e disk_read
/var/folders/yg/v065xz8d7t9blhsyp93dmr5w0000gn/T//ccTpL4FI.s:2276   .text:00000bee disk_write
/var/folders/yg/v065xz8d7t9blhsyp93dmr5w0000gn/T//ccTpL4FI.s:2453   .text:00000cde disk_ioctl
/var/folders/yg/v065xz8d7t9blhsyp93dmr5w0000gn/T//ccTpL4FI.s:3093   .text:00001084 disk_timerproc
/var/folders/yg/v065xz8d7t9blhsyp93dmr5w0000gn/T//ccTpL4FI.s:3130   .text:000010ac get_fattime
/var/folders/yg/v065xz8d7t9blhsyp93dmr5w0000gn/T//ccTpL4FI.s:24158  .bss:00000021 UNIX_Time
/var/folders/yg/v065xz8d7t9blhsyp93dmr5w0000gn/T//ccTpL4FI.s:3261   .text:0000119c move_window
/var/folders/yg/v065xz8d7t9blhsyp93dmr5w0000gn/T//ccTpL4FI.s:3422   .text:0000128e sync
/var/folders/yg/v065xz8d7t9blhsyp93dmr5w0000gn/T//ccTpL4FI.s:3607   .text:000013ac get_fat
/var/folders/yg/v065xz8d7t9blhsyp93dmr5w0000gn/T//ccTpL4FI.s:3894   .text:00001580 put_fat
/var/folders/yg/v065xz8d7t9blhsyp93dmr5w0000gn/T//ccTpL4FI.s:4211   .text:00001758 remove_chain
/var/folders/yg/v065xz8d7t9blhsyp93dmr5w0000gn/T//ccTpL4FI.s:4380   .text:0000184e create_chain
/var/folders/yg/v065xz8d7t9blhsyp93dmr5w0000gn/T//ccTpL4FI.s:4701   .text:00001a34 clust2sect
/var/folders/yg/v065xz8d7t9blhsyp93dmr5w0000gn/T//ccTpL4FI.s:4781   .text:00001aae dir_seek
/var/folders/yg/v065xz8d7t9blhsyp93dmr5w0000gn/T//ccTpL4FI.s:5100   .text:00001ca6 dir_next
/var/folders/yg/v065xz8d7t9blhsyp93dmr5w0000gn/T//ccTpL4FI.s:5581   .text:00001fa0 dir_read
/var/folders/yg/v065xz8d7t9blhsyp93dmr5w0000gn/T//ccTpL4FI.s:5677   .text:00002008 dir_register
/var/folders/yg/v065xz8d7t9blhsyp93dmr5w0000gn/T//ccTpL4FI.s:5828   .text:000020b6 dir_remove
/var/folders/yg/v065xz8d7t9blhsyp93dmr5w0000gn/T//ccTpL4FI.s:5887   .text:000020f8 get_fileinfo
/var/folders/yg/v065xz8d7t9blhsyp93dmr5w0000gn/T//ccTpL4FI.s:6086   .text:00002210 follow_path
/var/folders/yg/v065xz8d7t9blhsyp93dmr5w0000gn/T//ccTpL4FI.s:6623   .text:000024bc check_fs
/var/folders/yg/v065xz8d7t9blhsyp93dmr5w0000gn/T//ccTpL4FI.s:6777   .text:000025c2 chk_mounted
/var/folders/yg/v065xz8d7t9blhsyp93dmr5w0000gn/T//ccTpL4FI.s:25565  .bss:00000066 FatFs
/var/folders/yg/v065xz8d7t9blhsyp93dmr5w0000gn/T//ccTpL4FI.s:24164  .data:000002c9 Drives
/var/folders/yg/v065xz8d7t9blhsyp93dmr5w0000gn/T//ccTpL4FI.s:25566  .bss:0000006a Fsid
/var/folders/yg/v065xz8d7t9blhsyp93dmr5w0000gn/T//ccTpL4FI.s:7670   .text:00002bae validate
/var/folders/yg/v065xz8d7t9blhsyp93dmr5w0000gn/T//ccTpL4FI.s:7720   .text:00002be2 f_mount
/var/folders/yg/v065xz8d7t9blhsyp93dmr5w0000gn/T//ccTpL4FI.s:7782   .text:00002c24 f_open
/var/folders/yg/v065xz8d7t9blhsyp93dmr5w0000gn/T//ccTpL4FI.s:8263   .text:00002f0e f_read
/var/folders/yg/v065xz8d7t9blhsyp93dmr5w0000gn/T//ccTpL4FI.s:8932   .text:000032fa f_write
/var/folders/yg/v065xz8d7t9blhsyp93dmr5w0000gn/T//ccTpL4FI.s:9695   .text:00003782 f_sync
/var/folders/yg/v065xz8d7t9blhsyp93dmr5w0000gn/T//ccTpL4FI.s:9877   .text:00003890 f_close
/var/folders/yg/v065xz8d7t9blhsyp93dmr5w0000gn/T//ccTpL4FI.s:9907   .text:000038a8 f_lseek
/var/folders/yg/v065xz8d7t9blhsyp93dmr5w0000gn/T//ccTpL4FI.s:10603  .text:00003d04 f_opendir
/var/folders/yg/v065xz8d7t9blhsyp93dmr5w0000gn/T//ccTpL4FI.s:10743  .text:00003dca f_readdir
/var/folders/yg/v065xz8d7t9blhsyp93dmr5w0000gn/T//ccTpL4FI.s:10852  .text:00003e60 f_stat
/var/folders/yg/v065xz8d7t9blhsyp93dmr5w0000gn/T//ccTpL4FI.s:10943  .text:00003ede f_getfree
/var/folders/yg/v065xz8d7t9blhsyp93dmr5w0000gn/T//ccTpL4FI.s:11324  .text:0000412a f_truncate
/var/folders/yg/v065xz8d7t9blhsyp93dmr5w0000gn/T//ccTpL4FI.s:11515  .text:00004244 f_unlink
/var/folders/yg/v065xz8d7t9blhsyp93dmr5w0000gn/T//ccTpL4FI.s:11736  .text:00004378 f_mkdir
/var/folders/yg/v065xz8d7t9blhsyp93dmr5w0000gn/T//ccTpL4FI.s:12274  .text:00004692 f_chmod
/var/folders/yg/v065xz8d7t9blhsyp93dmr5w0000gn/T//ccTpL4FI.s:12379  .text:0000471c f_utime
/var/folders/yg/v065xz8d7t9blhsyp93dmr5w0000gn/T//ccTpL4FI.s:12489  .text:000047b6 f_rename
/var/folders/yg/v065xz8d7t9blhsyp93dmr5w0000gn/T//ccTpL4FI.s:12906  .text:00004a04 f_mkfs
/var/folders/yg/v065xz8d7t9blhsyp93dmr5w0000gn/T//ccTpL4FI.s:25499  .data:0000072b sstbl.6367
/var/folders/yg/v065xz8d7t9blhsyp93dmr5w0000gn/T//ccTpL4FI.s:25485  .data:00000715 cstbl.6368
/var/folders/yg/v065xz8d7t9blhsyp93dmr5w0000gn/T//ccTpL4FI.s:14662  .text:00005508 f_gets
/var/folders/yg/v065xz8d7t9blhsyp93dmr5w0000gn/T//ccTpL4FI.s:14777  .text:000055a4 f_putc
/var/folders/yg/v065xz8d7t9blhsyp93dmr5w0000gn/T//ccTpL4FI.s:14838  .text:000055f0 f_puts
/var/folders/yg/v065xz8d7t9blhsyp93dmr5w0000gn/T//ccTpL4FI.s:14898  .text:00005638 SD_Close
                            *COM*:00000220 Log_File
/var/folders/yg/v065xz8d7t9blhsyp93dmr5w0000gn/T//ccTpL4FI.s:14914  .text:00005642 SD_Inserted
/var/folders/yg/v065xz8d7t9blhsyp93dmr5w0000gn/T//ccTpL4FI.s:24234  .bss:0000002b sdValid
/var/folders/yg/v065xz8d7t9blhsyp93dmr5w0000gn/T//ccTpL4FI.s:14928  .text:00005648 SD_WriteBuffer
                            *COM*:00000004 CRC
/var/folders/yg/v065xz8d7t9blhsyp93dmr5w0000gn/T//ccTpL4FI.s:24246  .data:00000313 crc_table
/var/folders/yg/v065xz8d7t9blhsyp93dmr5w0000gn/T//ccTpL4FI.s:15042  .text:00005716 SD_Write32
                            *COM*:00000004 tmp32
/var/folders/yg/v065xz8d7t9blhsyp93dmr5w0000gn/T//ccTpL4FI.s:15081  .text:0000574a SD_Write16
                            *COM*:00000002 tmp16
/var/folders/yg/v065xz8d7t9blhsyp93dmr5w0000gn/T//ccTpL4FI.s:15107  .text:00005760 SD_Write8
                            *COM*:00000001 tmp8
/var/folders/yg/v065xz8d7t9blhsyp93dmr5w0000gn/T//ccTpL4FI.s:15129  .text:00005772 SD_ClearCRC
/var/folders/yg/v065xz8d7t9blhsyp93dmr5w0000gn/T//ccTpL4FI.s:15150  .text:0000578c SD_WriteCRC
/var/folders/yg/v065xz8d7t9blhsyp93dmr5w0000gn/T//ccTpL4FI.s:15176  .text:000057aa SD_GetSpaceRemaining
                            *COM*:00000002 fs
/var/folders/yg/v065xz8d7t9blhsyp93dmr5w0000gn/T//ccTpL4FI.s:24240  .bss:0000002c percentDiskUsed
/var/folders/yg/v065xz8d7t9blhsyp93dmr5w0000gn/T//ccTpL4FI.s:15255  .text:00005830 SD_Timer_Init
/var/folders/yg/v065xz8d7t9blhsyp93dmr5w0000gn/T//ccTpL4FI.s:15284  .text:0000584e SD_Init
/var/folders/yg/v065xz8d7t9blhsyp93dmr5w0000gn/T//ccTpL4FI.s:25567  .bss:0000006c fso0
/var/folders/yg/v065xz8d7t9blhsyp93dmr5w0000gn/T//ccTpL4FI.s:25568  .bss:0000029a fso1
/var/folders/yg/v065xz8d7t9blhsyp93dmr5w0000gn/T//ccTpL4FI.s:15340  .text:0000589a __vector_47
/var/folders/yg/v065xz8d7t9blhsyp93dmr5w0000gn/T//ccTpL4FI.s:15402  .text:000058fe Button_Init
/var/folders/yg/v065xz8d7t9blhsyp93dmr5w0000gn/T//ccTpL4FI.s:15475  .text:00005954 Button_Pressed
/var/folders/yg/v065xz8d7t9blhsyp93dmr5w0000gn/T//ccTpL4FI.s:15508  .text:0000597a Accel_Write_Byte
/var/folders/yg/v065xz8d7t9blhsyp93dmr5w0000gn/T//ccTpL4FI.s:15531  .text:0000598a Accel_Read_Byte
/var/folders/yg/v065xz8d7t9blhsyp93dmr5w0000gn/T//ccTpL4FI.s:15558  .text:0000599e Accel_WriteToAddress
/var/folders/yg/v065xz8d7t9blhsyp93dmr5w0000gn/T//ccTpL4FI.s:15610  .text:000059ce Accel_ReadFromAddress
/var/folders/yg/v065xz8d7t9blhsyp93dmr5w0000gn/T//ccTpL4FI.s:15670  .text:00005a02 Accel_ReadResults
/var/folders/yg/v065xz8d7t9blhsyp93dmr5w0000gn/T//ccTpL4FI.s:15889  .text:00005b02 Sensors_ResetAccelBuffers
/var/folders/yg/v065xz8d7t9blhsyp93dmr5w0000gn/T//ccTpL4FI.s:24097  .bss:0000000f accelBufferCounter
/var/folders/yg/v065xz8d7t9blhsyp93dmr5w0000gn/T//ccTpL4FI.s:24091  .bss:0000000e accelBufferToWriteTo
                            *COM*:00000002 okToSendAccelBuffer
/var/folders/yg/v065xz8d7t9blhsyp93dmr5w0000gn/T//ccTpL4FI.s:15911  .text:00005b18 Accel_Init
/var/folders/yg/v065xz8d7t9blhsyp93dmr5w0000gn/T//ccTpL4FI.s:15975  .text:00005b72 __vector_108
/var/folders/yg/v065xz8d7t9blhsyp93dmr5w0000gn/T//ccTpL4FI.s:24009  .bss:00000001 recording
/var/folders/yg/v065xz8d7t9blhsyp93dmr5w0000gn/T//ccTpL4FI.s:24003  .bss:00000000 wantToRecordFast
                            *COM*:000004b0 accelSampleStartTime
/var/folders/yg/v065xz8d7t9blhsyp93dmr5w0000gn/T//ccTpL4FI.s:16093  .text:00005c4e Sensors_ReadTemperature
/var/folders/yg/v065xz8d7t9blhsyp93dmr5w0000gn/T//ccTpL4FI.s:16111  .text:00005c5a Sensors_ReadRespiration
/var/folders/yg/v065xz8d7t9blhsyp93dmr5w0000gn/T//ccTpL4FI.s:16129  .text:00005c66 Sensors_ReadEKG
/var/folders/yg/v065xz8d7t9blhsyp93dmr5w0000gn/T//ccTpL4FI.s:16147  .text:00005c72 Sensors_ReadHumidity
                            *COM*:00000002 zeroOffsetA
/var/folders/yg/v065xz8d7t9blhsyp93dmr5w0000gn/T//ccTpL4FI.s:16221  .text:00005cec Sensors_ResetTemperatureBuffers
/var/folders/yg/v065xz8d7t9blhsyp93dmr5w0000gn/T//ccTpL4FI.s:24021  .bss:00000003 temperatureBufferCounter
/var/folders/yg/v065xz8d7t9blhsyp93dmr5w0000gn/T//ccTpL4FI.s:24015  .bss:00000002 temperatureBufferToWriteTo
                            *COM*:00000002 okToSendTemperatureBuffer
/var/folders/yg/v065xz8d7t9blhsyp93dmr5w0000gn/T//ccTpL4FI.s:16243  .text:00005d02 Sensors_ResetRespirationBuffers
/var/folders/yg/v065xz8d7t9blhsyp93dmr5w0000gn/T//ccTpL4FI.s:24040  .bss:00000006 respirationBufferCounter
/var/folders/yg/v065xz8d7t9blhsyp93dmr5w0000gn/T//ccTpL4FI.s:24034  .bss:00000005 respirationBufferToWriteTo
                            *COM*:00000003 okToSendRespirationBuffer
/var/folders/yg/v065xz8d7t9blhsyp93dmr5w0000gn/T//ccTpL4FI.s:16266  .text:00005d1c Sensors_ResetEKGBuffers
/var/folders/yg/v065xz8d7t9blhsyp93dmr5w0000gn/T//ccTpL4FI.s:24059  .bss:00000009 EKGBufferCounter
/var/folders/yg/v065xz8d7t9blhsyp93dmr5w0000gn/T//ccTpL4FI.s:24053  .bss:00000008 EKGBufferToWriteTo
                            *COM*:00000003 okToSendEKGBuffer
/var/folders/yg/v065xz8d7t9blhsyp93dmr5w0000gn/T//ccTpL4FI.s:16289  .text:00005d36 Sensors_ResetHumidityBuffers
/var/folders/yg/v065xz8d7t9blhsyp93dmr5w0000gn/T//ccTpL4FI.s:24078  .bss:0000000c humidityBufferCounter
/var/folders/yg/v065xz8d7t9blhsyp93dmr5w0000gn/T//ccTpL4FI.s:24072  .bss:0000000b humidityBufferToWriteTo
                            *COM*:00000002 okToSendHumidityBuffer
/var/folders/yg/v065xz8d7t9blhsyp93dmr5w0000gn/T//ccTpL4FI.s:16311  .text:00005d4c Sensors_Init
                            *COM*:00000002 zeroOffsetB
/var/folders/yg/v065xz8d7t9blhsyp93dmr5w0000gn/T//ccTpL4FI.s:16648  .text:00005edc __vector_83
/var/folders/yg/v065xz8d7t9blhsyp93dmr5w0000gn/T//ccTpL4FI.s:23991  .data:000002c2 wantToRecordEKG
                            *COM*:000004b0 EKGSampleStartTime
                            *COM*:00000708 EKGBuffer
/var/folders/yg/v065xz8d7t9blhsyp93dmr5w0000gn/T//ccTpL4FI.s:25282  .bss:00000032 HZ_RefeshCounter2
/var/folders/yg/v065xz8d7t9blhsyp93dmr5w0000gn/T//ccTpL4FI.s:23996  .data:000002c3 wantToRecordRespiration
                            *COM*:000000c8 respirationSampleStartTime
                            *COM*:0000012c respirationBuffer
/var/folders/yg/v065xz8d7t9blhsyp93dmr5w0000gn/T//ccTpL4FI.s:25276  .bss:00000030 HZ_RefeshCounter
/var/folders/yg/v065xz8d7t9blhsyp93dmr5w0000gn/T//ccTpL4FI.s:24116  .bss:00000012 rtcBlockCounter
/var/folders/yg/v065xz8d7t9blhsyp93dmr5w0000gn/T//ccTpL4FI.s:24110  .bss:00000011 okToSendRTCBlock
/var/folders/yg/v065xz8d7t9blhsyp93dmr5w0000gn/T//ccTpL4FI.s:23981  .data:000002c0 wantToRecordTemperature
                            *COM*:00000028 temperatureSampleStartTime
                            *COM*:00000028 temperatureBuffer
/var/folders/yg/v065xz8d7t9blhsyp93dmr5w0000gn/T//ccTpL4FI.s:23986  .data:000002c1 wantToRecordHumidity
                            *COM*:00000028 humiditySampleStartTime
                            *COM*:00000028 humidityBuffer
/var/folders/yg/v065xz8d7t9blhsyp93dmr5w0000gn/T//ccTpL4FI.s:17133  .text:000062a8 SP_ReadCalibrationByte
/var/folders/yg/v065xz8d7t9blhsyp93dmr5w0000gn/T//ccTpL4FI.s:17168  .text:000062bc Uploader_getTime
                            *COM*:00000032 command
/var/folders/yg/v065xz8d7t9blhsyp93dmr5w0000gn/T//ccTpL4FI.s:17445  .text:00006444 Uploader_eraseFile
                            *COM*:00000014 fileToErase
/var/folders/yg/v065xz8d7t9blhsyp93dmr5w0000gn/T//ccTpL4FI.s:25403  .bss:00000054 okToEraseFile
                            *COM*:00000001 eraseFileReturn
/var/folders/yg/v065xz8d7t9blhsyp93dmr5w0000gn/T//ccTpL4FI.s:17608  .text:000064fa Uploader_ClearCRC
                            *COM*:00000004 uploadCRC
/var/folders/yg/v065xz8d7t9blhsyp93dmr5w0000gn/T//ccTpL4FI.s:17629  .text:00006514 Uploader_WriteCRC
/var/folders/yg/v065xz8d7t9blhsyp93dmr5w0000gn/T//ccTpL4FI.s:17693  .text:0000657c Uploader_uploadFile
/var/folders/yg/v065xz8d7t9blhsyp93dmr5w0000gn/T//ccTpL4FI.s:25343  .bss:0000004a uploading
                            *COM*:0000000f fileToUpload
/var/folders/yg/v065xz8d7t9blhsyp93dmr5w0000gn/T//ccTpL4FI.s:25373  .bss:0000004f okToOpenFileToUpload
/var/folders/yg/v065xz8d7t9blhsyp93dmr5w0000gn/T//ccTpL4FI.s:25379  .bss:00000050 uploadFileOpened
/var/folders/yg/v065xz8d7t9blhsyp93dmr5w0000gn/T//ccTpL4FI.s:25409  .bss:00000055 fileExists
/var/folders/yg/v065xz8d7t9blhsyp93dmr5w0000gn/T//ccTpL4FI.s:25397  .bss:00000053 okToCloseUploadFile
/var/folders/yg/v065xz8d7t9blhsyp93dmr5w0000gn/T//ccTpL4FI.s:25361  .bss:0000004d okToUpload
/var/folders/yg/v065xz8d7t9blhsyp93dmr5w0000gn/T//ccTpL4FI.s:25313  .bss:0000003c uploadFileSize
/var/folders/yg/v065xz8d7t9blhsyp93dmr5w0000gn/T//ccTpL4FI.s:25325  .bss:00000041 numberOfPacketsToUpload
/var/folders/yg/v065xz8d7t9blhsyp93dmr5w0000gn/T//ccTpL4FI.s:25331  .bss:00000045 leftOverBytesToUpload
/var/folders/yg/v065xz8d7t9blhsyp93dmr5w0000gn/T//ccTpL4FI.s:25391  .bss:00000052 uploadFileBufferFull
/var/folders/yg/v065xz8d7t9blhsyp93dmr5w0000gn/T//ccTpL4FI.s:25385  .bss:00000051 okToFillUploadFileBuffer
/var/folders/yg/v065xz8d7t9blhsyp93dmr5w0000gn/T//ccTpL4FI.s:25319  .bss:00000040 uploadPercentBS
                            *COM*:000003e8 uploadFileBuffer
/var/folders/yg/v065xz8d7t9blhsyp93dmr5w0000gn/T//ccTpL4FI.s:18298  .text:00006978 Uploader_UpdateCRC
/var/folders/yg/v065xz8d7t9blhsyp93dmr5w0000gn/T//ccTpL4FI.s:18365  .text:000069f4 Clock_Init
/var/folders/yg/v065xz8d7t9blhsyp93dmr5w0000gn/T//ccTpL4FI.s:18440  .text:00006a4e Disable_JTAG
/var/folders/yg/v065xz8d7t9blhsyp93dmr5w0000gn/T//ccTpL4FI.s:18494  .text:00006a7e Interrupt_Init
/var/folders/yg/v065xz8d7t9blhsyp93dmr5w0000gn/T//ccTpL4FI.s:18518  .text:00006a8c __vector_104
/var/folders/yg/v065xz8d7t9blhsyp93dmr5w0000gn/T//ccTpL4FI.s:25421  .bss:00000057 okToOpenLogFile
/var/folders/yg/v065xz8d7t9blhsyp93dmr5w0000gn/T//ccTpL4FI.s:25415  .bss:00000056 timeIsValid
/var/folders/yg/v065xz8d7t9blhsyp93dmr5w0000gn/T//ccTpL4FI.s:25469  .bss:00000061 debounceEnabled
/var/folders/yg/v065xz8d7t9blhsyp93dmr5w0000gn/T//ccTpL4FI.s:25433  .bss:00000059 okToCloseLogFile
/var/folders/yg/v065xz8d7t9blhsyp93dmr5w0000gn/T//ccTpL4FI.s:18631  .text:00006b58 Charger_Init
/var/folders/yg/v065xz8d7t9blhsyp93dmr5w0000gn/T//ccTpL4FI.s:18651  .text:00006b66 Charged
/var/folders/yg/v065xz8d7t9blhsyp93dmr5w0000gn/T//ccTpL4FI.s:18674  .text:00006b7c GUI_Init
/var/folders/yg/v065xz8d7t9blhsyp93dmr5w0000gn/T//ccTpL4FI.s:18703  .text:00006b9a __vector_77
/var/folders/yg/v065xz8d7t9blhsyp93dmr5w0000gn/T//ccTpL4FI.s:25451  .bss:0000005c lengthOfCurrentFile
/var/folders/yg/v065xz8d7t9blhsyp93dmr5w0000gn/T//ccTpL4FI.s:25445  .bss:0000005b restartingFile
/var/folders/yg/v065xz8d7t9blhsyp93dmr5w0000gn/T//ccTpL4FI.s:25457  .bss:0000005e syncCounter
/var/folders/yg/v065xz8d7t9blhsyp93dmr5w0000gn/T//ccTpL4FI.s:25475  .bss:00000062 spaceRemainingCounter
/var/folders/yg/v065xz8d7t9blhsyp93dmr5w0000gn/T//ccTpL4FI.s:25439  .bss:0000005a okToGetRemainingSpace
/var/folders/yg/v065xz8d7t9blhsyp93dmr5w0000gn/T//ccTpL4FI.s:25463  .bss:00000060 debounceTimer
/var/folders/yg/v065xz8d7t9blhsyp93dmr5w0000gn/T//ccTpL4FI.s:25481  .data:00000714 batteryVoltageOk
/var/folders/yg/v065xz8d7t9blhsyp93dmr5w0000gn/T//ccTpL4FI.s:25337  .bss:00000049 connected
                            *COM*:00000002 ledCounter
/var/folders/yg/v065xz8d7t9blhsyp93dmr5w0000gn/T//ccTpL4FI.s:19094  .text:00006de6 SD_BackroundWriter_Init
/var/folders/yg/v065xz8d7t9blhsyp93dmr5w0000gn/T//ccTpL4FI.s:19123  .text:00006e04 SD_WriteRTCBlock
/var/folders/yg/v065xz8d7t9blhsyp93dmr5w0000gn/T//ccTpL4FI.s:19217  .text:00006e9c getDeviceID
                            *COM*:00000032 deviceID
/var/folders/yg/v065xz8d7t9blhsyp93dmr5w0000gn/T//ccTpL4FI.s:19629  .text:00007074 SD_WriteString
/var/folders/yg/v065xz8d7t9blhsyp93dmr5w0000gn/T//ccTpL4FI.s:19739  .text:0000712a SD_WriteAccelBuffer
                            *COM*:00000e10 accelBuffer
/var/folders/yg/v065xz8d7t9blhsyp93dmr5w0000gn/T//ccTpL4FI.s:19914  .text:00007254 SD_WriteEKGBuffer
/var/folders/yg/v065xz8d7t9blhsyp93dmr5w0000gn/T//ccTpL4FI.s:20061  .text:00007346 SD_WriteRespirationBuffer
/var/folders/yg/v065xz8d7t9blhsyp93dmr5w0000gn/T//ccTpL4FI.s:20207  .text:00007436 SD_WriteHumidityBuffer
/var/folders/yg/v065xz8d7t9blhsyp93dmr5w0000gn/T//ccTpL4FI.s:20343  .text:00007512 SD_WriteTemperatureBuffer
/var/folders/yg/v065xz8d7t9blhsyp93dmr5w0000gn/T//ccTpL4FI.s:20475  .text:000075ee Debug_SendString
/var/folders/yg/v065xz8d7t9blhsyp93dmr5w0000gn/T//ccTpL4FI.s:20565  .text:00007656 Uploader_connectToComputer
/var/folders/yg/v065xz8d7t9blhsyp93dmr5w0000gn/T//ccTpL4FI.s:25307  .bss:0000003a timeOutCounter
/var/folders/yg/v065xz8d7t9blhsyp93dmr5w0000gn/T//ccTpL4FI.s:20718  .text:000076f8 Uploader_sendPort
                            *COM*:00000032 port
/var/folders/yg/v065xz8d7t9blhsyp93dmr5w0000gn/T//ccTpL4FI.s:20778  .text:00007750 Uploader_sendServer
                            *COM*:00000032 server
/var/folders/yg/v065xz8d7t9blhsyp93dmr5w0000gn/T//ccTpL4FI.s:20838  .text:000077a8 Uploader_sendNickname
                            *COM*:00000032 nickname
/var/folders/yg/v065xz8d7t9blhsyp93dmr5w0000gn/T//ccTpL4FI.s:20898  .text:00007800 Uploader_sendUser
                            *COM*:0000000a user
/var/folders/yg/v065xz8d7t9blhsyp93dmr5w0000gn/T//ccTpL4FI.s:20962  .text:00007858 Uploader_sendKey
/var/folders/yg/v065xz8d7t9blhsyp93dmr5w0000gn/T//ccTpL4FI.s:24210  .bss:00000027 phraseRead
                            *COM*:00000032 phrase
/var/folders/yg/v065xz8d7t9blhsyp93dmr5w0000gn/T//ccTpL4FI.s:24216  .bss:00000028 keyRead
                            *COM*:00000032 key
/var/folders/yg/v065xz8d7t9blhsyp93dmr5w0000gn/T//ccTpL4FI.s:21070  .text:000078fe Uploader_sendAuthType
/var/folders/yg/v065xz8d7t9blhsyp93dmr5w0000gn/T//ccTpL4FI.s:24204  .bss:00000026 authRead
                            *COM*:00000032 auth
/var/folders/yg/v065xz8d7t9blhsyp93dmr5w0000gn/T//ccTpL4FI.s:21150  .text:00007978 Uploader_sendSSID
/var/folders/yg/v065xz8d7t9blhsyp93dmr5w0000gn/T//ccTpL4FI.s:24222  .bss:00000029 ssidRead
                            *COM*:00000032 ssid
/var/folders/yg/v065xz8d7t9blhsyp93dmr5w0000gn/T//ccTpL4FI.s:21234  .text:000079f2 Uploader_sendFilename
/var/folders/yg/v065xz8d7t9blhsyp93dmr5w0000gn/T//ccTpL4FI.s:25349  .bss:0000004b okToOpenDirectory
/var/folders/yg/v065xz8d7t9blhsyp93dmr5w0000gn/T//ccTpL4FI.s:25355  .bss:0000004c okToGrabNextFileName
                            *COM*:0000000f availableFileName
                            *COM*:0000000f currentLogFile
/var/folders/yg/v065xz8d7t9blhsyp93dmr5w0000gn/T//ccTpL4FI.s:21329  .text:00007a8a Uploader_Update
/var/folders/yg/v065xz8d7t9blhsyp93dmr5w0000gn/T//ccTpL4FI.s:21536  .text:00007ba4 SD_MakeFileName
                            *COM*:00000014 fileName
/var/folders/yg/v065xz8d7t9blhsyp93dmr5w0000gn/T//ccTpL4FI.s:21571  .text:00007bd0 SD_Open
/var/folders/yg/v065xz8d7t9blhsyp93dmr5w0000gn/T//ccTpL4FI.s:21678  .text:00007c2e SD_StartLogFile
/var/folders/yg/v065xz8d7t9blhsyp93dmr5w0000gn/T//ccTpL4FI.s:21892  .text:00007da4 __vector_53
/var/folders/yg/v065xz8d7t9blhsyp93dmr5w0000gn/T//ccTpL4FI.s:24103  .data:000002c8 lastAccelerometerBufferSent
/var/folders/yg/v065xz8d7t9blhsyp93dmr5w0000gn/T//ccTpL4FI.s:24065  .data:000002c6 lastEKGBufferSent
/var/folders/yg/v065xz8d7t9blhsyp93dmr5w0000gn/T//ccTpL4FI.s:24046  .data:000002c5 lastRespirationBufferSent
/var/folders/yg/v065xz8d7t9blhsyp93dmr5w0000gn/T//ccTpL4FI.s:24027  .data:000002c4 lastTemperatureBufferSent
/var/folders/yg/v065xz8d7t9blhsyp93dmr5w0000gn/T//ccTpL4FI.s:24084  .data:000002c7 lastHumidityBufferSent
/var/folders/yg/v065xz8d7t9blhsyp93dmr5w0000gn/T//ccTpL4FI.s:24122  .bss:00000013 timeRecordingStarted
                            *COM*:00000016 dir
                            *COM*:00000016 fno
                            *COM*:00000220 Upload_File
/var/folders/yg/v065xz8d7t9blhsyp93dmr5w0000gn/T//ccTpL4FI.s:22504  .text:000081ae SD_Read_config_file
/var/folders/yg/v065xz8d7t9blhsyp93dmr5w0000gn/T//ccTpL4FI.s:24178  .data:000002ff zone
                            *COM*:0000000a daylightTime
                            *COM*:0000000a demoModeString
                            *COM*:0000000a fastString
/var/folders/yg/v065xz8d7t9blhsyp93dmr5w0000gn/T//ccTpL4FI.s:24198  .bss:00000025 timeZoneShift
/var/folders/yg/v065xz8d7t9blhsyp93dmr5w0000gn/T//ccTpL4FI.s:24228  .bss:0000002a zoneChanged
/var/folders/yg/v065xz8d7t9blhsyp93dmr5w0000gn/T//ccTpL4FI.s:24172  .data:000002cd serverOpenCommand
/var/folders/yg/v065xz8d7t9blhsyp93dmr5w0000gn/T//ccTpL4FI.s:24128  .bss:00000017 demoMode
/var/folders/yg/v065xz8d7t9blhsyp93dmr5w0000gn/T//ccTpL4FI.s:23120  .text:000085de main
/var/folders/yg/v065xz8d7t9blhsyp93dmr5w0000gn/T//ccTpL4FI.s:23497  .text:00008788 f_printf
/var/folders/yg/v065xz8d7t9blhsyp93dmr5w0000gn/T//ccTpL4FI.s:24134  .bss:00000018 useWifiForUploading
/var/folders/yg/v065xz8d7t9blhsyp93dmr5w0000gn/T//ccTpL4FI.s:24184  .data:00000309 am
/var/folders/yg/v065xz8d7t9blhsyp93dmr5w0000gn/T//ccTpL4FI.s:24190  .data:0000030e pm
/var/folders/yg/v065xz8d7t9blhsyp93dmr5w0000gn/T//ccTpL4FI.s:25288  .bss:00000034 ekgCounter
/var/folders/yg/v065xz8d7t9blhsyp93dmr5w0000gn/T//ccTpL4FI.s:25294  .bss:00000036 tempTime
/var/folders/yg/v065xz8d7t9blhsyp93dmr5w0000gn/T//ccTpL4FI.s:25300  .data:00000713 commandCounter
/var/folders/yg/v065xz8d7t9blhsyp93dmr5w0000gn/T//ccTpL4FI.s:25367  .bss:0000004e doneUploading
/var/folders/yg/v065xz8d7t9blhsyp93dmr5w0000gn/T//ccTpL4FI.s:25427  .bss:00000058 okToWriteToLogFile
                            *COM*:00000008 time
                            *COM*:00000016 fno2
                            *COM*:0000000a tmpString
                            *COM*:00000032 temp

UNDEFINED SYMBOLS
__udivmodsi4
__divmodhi4
__mulsi3
itoa
strcpy
strcat
strcasecmp
strcasestr
ltoa
strupr
strstr
strtok
memmove
strcmp
__do_copy_data
__do_clear_bss
