   1               		.file	"mainChestStrap.c"
   2               	__SREG__ = 0x3f
   3               	__SP_H__ = 0x3e
   4               	__SP_L__ = 0x3d
   5               	__CCP__  = 0x34
   6               	__tmp_reg__ = 0
   7               	__zero_reg__ = 1
  15               	.Ltext0:
  16               	.global	CCPWrite
  18               	CCPWrite:
  19               	.LFB7:
  20               	.LM1:
  21               	.LVL0:
  22 0000 0F93      		push r16
  23 0002 DF93      		push r29
  24 0004 CF93      		push r28
  25 0006 0F92      		push __tmp_reg__
  26 0008 CDB7      		in r28,__SP_L__
  27 000a DEB7      		in r29,__SP_H__
  28               	/* prologue: function */
  29               	/* frame size = 1 */
  30               	.LM2:
  31 000c 2FB7      		in r18,__SREG__
  32               	.LVL1:
  33 000e 2983      		std Y+1,r18
  34               	.LM3:
  35               	/* #APP */
  36               	 ;  83 "mainChestStrap.h" 1
  37 0010 F894      		cli
  38               	 ;  0 "" 2
  39               	.LM4:
  40               	/* #NOAPP */
  41 0012 1BBE      		out 59-0,__zero_reg__
  42               	.LM5:
  43               	/* #APP */
  44               	 ;  105 "mainChestStrap.h" 1
  45 0014 FC01      		movw r30,  r24
  46 0016 08ED      		ldi  r16,  216
  47 0018 04BF      		out   52, r16
  48 001a 6083      		st     Z,  r22
  49               		
  50               	 ;  0 "" 2
  51               	.LM6:
  52               	/* #NOAPP */
  53 001c 8981      		ldd r24,Y+1
  54               	.LVL2:
  55 001e 8FBF      		out __SREG__,r24
  56               	/* epilogue start */
  57               	.LM7:
  58 0020 0F90      		pop __tmp_reg__
  59 0022 CF91      		pop r28
  60 0024 DF91      		pop r29
  61 0026 0F91      		pop r16
  62 0028 0895      		ret
  63               	.LFE7:
  65               	.global	Debug_CharReadyToRead
  67               	Debug_CharReadyToRead:
  68               	.LFB10:
  69               	.LM8:
  70               	/* prologue: function */
  71               	/* frame size = 0 */
  72               	.LM9:
  73 002a 2091 1D01 		lds r18,285
  74 002e 922F      		mov r25,r18
  75 0030 80E0      		ldi r24,lo8(0)
  76 0032 8093 0000 		sts Debug_writeLocation,r24
  77 0036 9093 0000 		sts (Debug_writeLocation)+1,r25
  78               	.LM10:
  79 003a 8091 0000 		lds r24,Debug_writeLocation
  80 003e 9091 0000 		lds r25,(Debug_writeLocation)+1
  81 0042 2091 1C01 		lds r18,284
  82 0046 820F      		add r24,r18
  83 0048 911D      		adc r25,__zero_reg__
  84 004a 8093 0000 		sts Debug_writeLocation,r24
  85 004e 9093 0000 		sts (Debug_writeLocation)+1,r25
  86               	.LM11:
  87 0052 8091 0000 		lds r24,Debug_writeLocation
  88 0056 9091 0000 		lds r25,(Debug_writeLocation)+1
  89 005a 8050      		subi r24,lo8(DebugBuffer)
  90 005c 9040      		sbci r25,hi8(DebugBuffer)
  91 005e 8093 0000 		sts Debug_writeLocation,r24
  92 0062 9093 0000 		sts (Debug_writeLocation)+1,r25
  93               	.LM12:
  94 0066 2091 0000 		lds r18,Debug_writeLocation
  95 006a 3091 0000 		lds r19,(Debug_writeLocation)+1
  96 006e 8091 0000 		lds r24,Debug_readLocation
  97 0072 9091 0000 		lds r25,(Debug_readLocation)+1
  98 0076 40E0      		ldi r20,lo8(0)
  99 0078 2817      		cp r18,r24
 100 007a 3907      		cpc r19,r25
 101 007c 01F0      		breq .L4
 102 007e 41E0      		ldi r20,lo8(1)
 103               	.L4:
 104               	.LM13:
 105 0080 842F      		mov r24,r20
 106               	/* epilogue start */
 107 0082 0895      		ret
 108               	.LFE10:
 110               	.global	Debug_ClearBuffer
 112               	Debug_ClearBuffer:
 113               	.LFB9:
 114               	.LM14:
 115               	/* prologue: function */
 116               	/* frame size = 0 */
 117               	.LM15:
 118 0084 0E94 0000 		call Debug_CharReadyToRead
 119 0088 8823      		tst r24
 120 008a 01F0      		breq .L8
 121               	.LM16:
 122 008c 2091 1D01 		lds r18,285
 123 0090 922F      		mov r25,r18
 124 0092 80E0      		ldi r24,lo8(0)
 125 0094 8093 0000 		sts Debug_writeLocation,r24
 126 0098 9093 0000 		sts (Debug_writeLocation)+1,r25
 127               	.LM17:
 128 009c 8091 0000 		lds r24,Debug_writeLocation
 129 00a0 9091 0000 		lds r25,(Debug_writeLocation)+1
 130 00a4 2091 1C01 		lds r18,284
 131 00a8 820F      		add r24,r18
 132 00aa 911D      		adc r25,__zero_reg__
 133 00ac 8093 0000 		sts Debug_writeLocation,r24
 134 00b0 9093 0000 		sts (Debug_writeLocation)+1,r25
 135               	.LM18:
 136 00b4 8091 0000 		lds r24,Debug_writeLocation
 137 00b8 9091 0000 		lds r25,(Debug_writeLocation)+1
 138 00bc 8050      		subi r24,lo8(DebugBuffer)
 139 00be 9040      		sbci r25,hi8(DebugBuffer)
 140 00c0 8093 0000 		sts Debug_writeLocation,r24
 141 00c4 9093 0000 		sts (Debug_writeLocation)+1,r25
 142               	.LM19:
 143 00c8 8091 0000 		lds r24,Debug_writeLocation
 144 00cc 9091 0000 		lds r25,(Debug_writeLocation)+1
 145 00d0 8093 0000 		sts Debug_readLocation,r24
 146 00d4 9093 0000 		sts (Debug_readLocation)+1,r25
 147               	.L8:
 148 00d8 0895      		ret
 149               	.LFE9:
 151               	.global	Debug_Init
 153               	Debug_Init:
 154               	.LFB8:
 155               	.LM20:
 156               	.LVL3:
 157               	/* prologue: function */
 158               	/* frame size = 0 */
 159 00da AB01      		movw r20,r22
 160 00dc BC01      		movw r22,r24
 161               	.LM21:
 162 00de E0E0      		ldi r30,lo8(256)
 163 00e0 F1E0      		ldi r31,hi8(256)
 164 00e2 8091 0001 		lds r24,256
 165 00e6 8068      		ori r24,lo8(-128)
 166 00e8 8093 0001 		sts 256,r24
 167               	.LM22:
 168 00ec 8091 1201 		lds r24,274
 169 00f0 8560      		ori r24,lo8(5)
 170 00f2 828B      		std Z+18,r24
 171               	.LM23:
 172 00f4 8BE4      		ldi r24,lo8(75)
 173 00f6 838B      		std Z+19,r24
 174               	.LM24:
 175 00f8 84E6      		ldi r24,lo8(100)
 176 00fa 90E0      		ldi r25,hi8(100)
 177 00fc 848B      		std Z+20,r24
 178 00fe 958B      		std Z+21,r25
 179               	.LM25:
 180 0100 168A      		std Z+22,__zero_reg__
 181               	.LM26:
 182 0102 80EA      		ldi r24,lo8(-96)
 183 0104 808F      		std Z+24,r24
 184               	.LM27:
 185 0106 28E0      		ldi r18,lo8(8)
 186 0108 218F      		std Z+25,r18
 187               	.LM28:
 188 010a 128E      		std Z+26,__zero_reg__
 189               	.LM29:
 190 010c 80E0      		ldi r24,lo8(DebugBuffer)
 191 010e 90E0      		ldi r25,hi8(DebugBuffer)
 192 0110 848F      		std Z+28,r24
 193               	.LM30:
 194 0112 958F      		std Z+29,r25
 195               	.LM31:
 196 0114 168E      		std Z+30,__zero_reg__
 197               	.LM32:
 198 0116 8091 1001 		lds r24,272
 199 011a 846A      		ori r24,lo8(-92)
 200 011c 808B      		std Z+16,r24
 201               	.LM33:
 202 011e E0E4      		ldi r30,lo8(1600)
 203 0120 F6E0      		ldi r31,hi8(1600)
 204 0122 2183      		std Z+1,r18
 205               	.LM34:
 206 0124 84E0      		ldi r24,lo8(4)
 207 0126 8283      		std Z+2,r24
 208               	.LM35:
 209 0128 91E0      		ldi r25,lo8(1)
 210 012a 9283      		std Z+2,r25
 211               	.LM36:
 212 012c 82E0      		ldi r24,lo8(2)
 213 012e 8183      		std Z+1,r24
 214               	.LM37:
 215 0130 8683      		std Z+6,r24
 216               	.LM38:
 217 0132 E0EA      		ldi r30,lo8(2208)
 218 0134 F8E0      		ldi r31,hi8(2208)
 219 0136 83E0      		ldi r24,lo8(3)
 220 0138 8583      		std Z+5,r24
 221               	.LM39:
 222 013a 4038      		cpi r20,lo8(9600)
 223 013c 25E2      		ldi r18,hi8(9600)
 224 013e 5207      		cpc r21,r18
 225 0140 20E0      		ldi r18,hlo8(9600)
 226 0142 6207      		cpc r22,r18
 227 0144 20E0      		ldi r18,hhi8(9600)
 228 0146 7207      		cpc r23,r18
 229 0148 01F4      		brne .L10
 230               	.LVL4:
 231               	.LM40:
 232 014a 8FE5      		ldi r24,lo8(95)
 233 014c 00C0      		rjmp .L17
 234               	.L10:
 235               	.LM41:
 236 014e 4030      		cpi r20,lo8(115200)
 237 0150 22EC      		ldi r18,hi8(115200)
 238 0152 5207      		cpc r21,r18
 239 0154 21E0      		ldi r18,hlo8(115200)
 240 0156 6207      		cpc r22,r18
 241 0158 20E0      		ldi r18,hhi8(115200)
 242 015a 7207      		cpc r23,r18
 243 015c 01F4      		brne .L12
 244               	.LM42:
 245 015e 87E0      		ldi r24,lo8(7)
 246               	.L17:
 247 0160 8683      		std Z+6,r24
 248 0162 00C0      		rjmp .L16
 249               	.L12:
 250               	.LM43:
 251 0164 4030      		cpi r20,lo8(230400)
 252 0166 24E8      		ldi r18,hi8(230400)
 253 0168 5207      		cpc r21,r18
 254 016a 23E0      		ldi r18,hlo8(230400)
 255 016c 6207      		cpc r22,r18
 256 016e 20E0      		ldi r18,hhi8(230400)
 257 0170 7207      		cpc r23,r18
 258 0172 01F0      		breq .L17
 259               	.L13:
 260               	.LM44:
 261 0174 4030      		cpi r20,lo8(460800)
 262 0176 88E0      		ldi r24,hi8(460800)
 263 0178 5807      		cpc r21,r24
 264 017a 87E0      		ldi r24,hlo8(460800)
 265 017c 6807      		cpc r22,r24
 266 017e 80E0      		ldi r24,hhi8(460800)
 267 0180 7807      		cpc r23,r24
 268 0182 01F4      		brne .L14
 269               	.LM45:
 270 0184 9683      		std Z+6,r25
 271 0186 00C0      		rjmp .L16
 272               	.L14:
 273               	.LM46:
 274 0188 4050      		subi r20,lo8(921600)
 275 018a 5041      		sbci r21,hi8(921600)
 276 018c 6E40      		sbci r22,hlo8(921600)
 277 018e 7040      		sbci r23,hhi8(921600)
 278 0190 01F4      		brne .L11
 279               	.LM47:
 280 0192 1682      		std Z+6,__zero_reg__
 281               	.L16:
 282               	.LM48:
 283 0194 1782      		std Z+7,__zero_reg__
 284               	.L11:
 285               	.LM49:
 286 0196 E0EA      		ldi r30,lo8(2208)
 287 0198 F8E0      		ldi r31,hi8(2208)
 288 019a 8091 A408 		lds r24,2212
 289 019e 8061      		ori r24,lo8(16)
 290 01a0 8483      		std Z+4,r24
 291               	.LM50:
 292 01a2 8091 A408 		lds r24,2212
 293 01a6 8860      		ori r24,lo8(8)
 294 01a8 8483      		std Z+4,r24
 295               	.LM51:
 296 01aa 0E94 0000 		call Debug_ClearBuffer
 297               	.LVL5:
 298               	/* epilogue start */
 299               	.LM52:
 300 01ae 0895      		ret
 301               	.LFE8:
 303               	.global	Debug_GetByte
 305               	Debug_GetByte:
 306               	.LFB11:
 307               	.LM53:
 308               	.LVL6:
 309               	/* prologue: function */
 310               	/* frame size = 0 */
 311               	.LM54:
 312 01b0 8823      		tst r24
 313 01b2 01F0      		breq .L19
 314               	.L23:
 315               	.LM55:
 316 01b4 0E94 0000 		call Debug_CharReadyToRead
 317               	.LVL7:
 318 01b8 8823      		tst r24
 319 01ba 01F0      		breq .L23
 320               	.LVL8:
 321               	.L19:
 322               	.LM56:
 323 01bc E091 0000 		lds r30,Debug_readLocation
 324 01c0 F091 0000 		lds r31,(Debug_readLocation)+1
 325 01c4 E050      		subi r30,lo8(-(DebugBuffer))
 326 01c6 F040      		sbci r31,hi8(-(DebugBuffer))
 327 01c8 E081      		ld r30,Z
 328               	.LVL9:
 329               	.LM57:
 330 01ca 8091 0000 		lds r24,Debug_readLocation
 331 01ce 9091 0000 		lds r25,(Debug_readLocation)+1
 332               	.LVL10:
 333 01d2 0196      		adiw r24,1
 334 01d4 8093 0000 		sts Debug_readLocation,r24
 335 01d8 9093 0000 		sts (Debug_readLocation)+1,r25
 336               	.LM58:
 337 01dc 8091 0000 		lds r24,Debug_readLocation
 338 01e0 9091 0000 		lds r25,(Debug_readLocation)+1
 339 01e4 8436      		cpi r24,100
 340 01e6 9105      		cpc r25,__zero_reg__
 341 01e8 00F0      		brlo .L21
 342               	.LM59:
 343 01ea 1092 0000 		sts Debug_readLocation,__zero_reg__
 344 01ee 1092 0000 		sts (Debug_readLocation)+1,__zero_reg__
 345               	.L21:
 346               	.LM60:
 347 01f2 8E2F      		mov r24,r30
 348               	/* epilogue start */
 349 01f4 0895      		ret
 350               	.LFE11:
 352               	.global	Debug_SendByte
 354               	Debug_SendByte:
 355               	.LFB12:
 356               	.LM61:
 357               	.LVL11:
 358               	/* prologue: function */
 359               	/* frame size = 0 */
 360 01f6 482F      		mov r20,r24
 361               	.LVL12:
 362               	.L26:
 363               	.LM62:
 364 01f8 8091 A108 		lds r24,2209
 365 01fc 85FF      		sbrs r24,5
 366 01fe 00C0      		rjmp .L26
 367 0200 00C0      		rjmp .L35
 368               	.L30:
 369               	.LM63:
 370 0202 8091 0000 		lds r24,Debug_timeOutCounter
 371 0206 9091 0000 		lds r25,(Debug_timeOutCounter)+1
 372 020a A091 0000 		lds r26,(Debug_timeOutCounter)+2
 373 020e B091 0000 		lds r27,(Debug_timeOutCounter)+3
 374 0212 0196      		adiw r24,1
 375 0214 A11D      		adc r26,__zero_reg__
 376 0216 B11D      		adc r27,__zero_reg__
 377 0218 8093 0000 		sts Debug_timeOutCounter,r24
 378 021c 9093 0000 		sts (Debug_timeOutCounter)+1,r25
 379 0220 A093 0000 		sts (Debug_timeOutCounter)+2,r26
 380 0224 B093 0000 		sts (Debug_timeOutCounter)+3,r27
 381               	.LM64:
 382 0228 8091 0000 		lds r24,Debug_timeOutCounter
 383 022c 9091 0000 		lds r25,(Debug_timeOutCounter)+1
 384 0230 A091 0000 		lds r26,(Debug_timeOutCounter)+2
 385 0234 B091 0000 		lds r27,(Debug_timeOutCounter)+3
 386 0238 8151      		subi r24,lo8(10001)
 387 023a 9742      		sbci r25,hi8(10001)
 388 023c A040      		sbci r26,hlo8(10001)
 389 023e B040      		sbci r27,hhi8(10001)
 390 0240 00F0      		brlo .L28
 391               	.LM65:
 392 0242 1092 0000 		sts Debug_timeOutCounter,__zero_reg__
 393 0246 1092 0000 		sts (Debug_timeOutCounter)+1,__zero_reg__
 394 024a 1092 0000 		sts (Debug_timeOutCounter)+2,__zero_reg__
 395 024e 1092 0000 		sts (Debug_timeOutCounter)+3,__zero_reg__
 396 0252 80E0      		ldi r24,lo8(0)
 397 0254 0895      		ret
 398               	.L28:
 399               	.LBB466:
 400               	.LBB467:
 401               	.LBB468:
 402               	.LBB469:
 403               	.LM66:
 404 0256 C901      		movw r24,r18
 405               	.LVL13:
 406               	/* #APP */
 407               	 ;  105 "/usr/local/CrossPack-AVR-20100115/lib/gcc/avr/4.3.3/../../../../avr/include/util/delay_bas
 408 0258 0197      		1: sbiw r24,1
 409 025a 01F4      		brne 1b
 410               	 ;  0 "" 2
 411               	/* #NOAPP */
 412 025c 00C0      		rjmp .L34
 413               	.LVL14:
 414               	.L35:
 415 025e 26E6      		ldi r18,lo8(3686)
 416 0260 3EE0      		ldi r19,hi8(3686)
 417               	.LVL15:
 418               	.L34:
 419               	.LBE469:
 420               	.LBE468:
 421               	.LBE467:
 422               	.LBE466:
 423               	.LM67:
 424 0262 8091 4806 		lds r24,1608
 425               	.LVL16:
 426 0266 80FD      		sbrc r24,0
 427 0268 00C0      		rjmp .L30
 428               	.LM68:
 429 026a 4093 A008 		sts 2208,r20
 430 026e 81E0      		ldi r24,lo8(1)
 431               	.LM69:
 432 0270 0895      		ret
 433               	.LFE12:
 435               	.global	Leds_Init
 437               	Leds_Init:
 438               	.LFB14:
 439               	.LM70:
 440               	.LVL17:
 441               	/* prologue: function */
 442               	/* frame size = 0 */
 443               	.LM71:
 444 0272 E82F      		mov r30,r24
 445 0274 F0E0      		ldi r31,lo8(0)
 446 0276 81E0      		ldi r24,lo8(1)
 447 0278 90E0      		ldi r25,hi8(1)
 448               	.LVL18:
 449 027a 0E2E      		mov r0,r30
 450 027c 00C0      		rjmp 2f
 451 027e 880F      	1:	lsl r24
 452 0280 991F      		rol r25
 453 0282 0A94      	2:	dec r0
 454 0284 02F4      		brpl 1b
 455 0286 A0EA      		ldi r26,lo8(1696)
 456 0288 B6E0      		ldi r27,hi8(1696)
 457 028a 1196      		adiw r26,1
 458 028c 8C93      		st X,r24
 459               	.LBB470:
 460               	.LBB471:
 461               	.LM72:
 462 028e E050      		subi r30,lo8(-(ledState))
 463 0290 F040      		sbci r31,hi8(-(ledState))
 464 0292 1082      		st Z,__zero_reg__
 465               	/* epilogue start */
 466               	.LBE471:
 467               	.LBE470:
 468               	.LM73:
 469 0294 0895      		ret
 470               	.LFE14:
 472               	.global	Leds_State
 474               	Leds_State:
 475               	.LFB15:
 476               	.LM74:
 477               	.LVL19:
 478               	/* prologue: function */
 479               	/* frame size = 0 */
 480               	.LM75:
 481 0296 E0E0      		ldi r30,lo8(ledState)
 482 0298 F0E0      		ldi r31,hi8(ledState)
 483 029a E80F      		add r30,r24
 484 029c F11D      		adc r31,__zero_reg__
 485 029e 6083      		st Z,r22
 486               	/* epilogue start */
 487               	.LM76:
 488 02a0 0895      		ret
 489               	.LFE15:
 491               	.global	Leds_Set
 493               	Leds_Set:
 494               	.LFB16:
 495               	.LM77:
 496               	.LVL20:
 497               	/* prologue: function */
 498               	/* frame size = 0 */
 499               	.LM78:
 500 02a2 21E0      		ldi r18,lo8(1)
 501 02a4 30E0      		ldi r19,hi8(1)
 502 02a6 00C0      		rjmp 2f
 503 02a8 220F      	1:	lsl r18
 504 02aa 331F      		rol r19
 505 02ac 8A95      	2:	dec r24
 506 02ae 02F4      		brpl 1b
 507 02b0 E0EA      		ldi r30,lo8(1696)
 508 02b2 F6E0      		ldi r31,hi8(1696)
 509 02b4 2583      		std Z+5,r18
 510               	/* epilogue start */
 511               	.LM79:
 512 02b6 0895      		ret
 513               	.LFE16:
 515               	.global	Leds_Clear
 517               	Leds_Clear:
 518               	.LFB17:
 519               	.LM80:
 520               	.LVL21:
 521               	/* prologue: function */
 522               	/* frame size = 0 */
 523               	.LM81:
 524 02b8 21E0      		ldi r18,lo8(1)
 525 02ba 30E0      		ldi r19,hi8(1)
 526 02bc 00C0      		rjmp 2f
 527 02be 220F      	1:	lsl r18
 528 02c0 331F      		rol r19
 529 02c2 8A95      	2:	dec r24
 530 02c4 02F4      		brpl 1b
 531 02c6 E0EA      		ldi r30,lo8(1696)
 532 02c8 F6E0      		ldi r31,hi8(1696)
 533 02ca 2683      		std Z+6,r18
 534               	/* epilogue start */
 535               	.LM82:
 536 02cc 0895      		ret
 537               	.LFE17:
 539               	.global	Leds_Toggle
 541               	Leds_Toggle:
 542               	.LFB18:
 543               	.LM83:
 544               	.LVL22:
 545               	/* prologue: function */
 546               	/* frame size = 0 */
 547               	.LM84:
 548 02ce 21E0      		ldi r18,lo8(1)
 549 02d0 30E0      		ldi r19,hi8(1)
 550 02d2 00C0      		rjmp 2f
 551 02d4 220F      	1:	lsl r18
 552 02d6 331F      		rol r19
 553 02d8 8A95      	2:	dec r24
 554 02da 02F4      		brpl 1b
 555 02dc E0EA      		ldi r30,lo8(1696)
 556 02de F6E0      		ldi r31,hi8(1696)
 557 02e0 2783      		std Z+7,r18
 558               	/* epilogue start */
 559               	.LM85:
 560 02e2 0895      		ret
 561               	.LFE18:
 563               	.global	Time_Init
 565               	Time_Init:
 566               	.LFB19:
 567               	.LM86:
 568               	/* prologue: function */
 569               	/* frame size = 0 */
 570               	.LM87:
 571 02e4 88E0      		ldi r24,lo8(8)
 572 02e6 8093 4008 		sts 2112,r24
 573               	.LM88:
 574 02ea 80EC      		ldi r24,lo8(-64)
 575 02ec 8093 8001 		sts 384,r24
 576               	.LM89:
 577 02f0 E0E0      		ldi r30,lo8(2048)
 578 02f2 F8E0      		ldi r31,hi8(2048)
 579 02f4 8FEF      		ldi r24,lo8(-1)
 580 02f6 9FEF      		ldi r25,hi8(-1)
 581 02f8 86A3      		std Z+38,r24
 582 02fa 97A3      		std Z+39,r25
 583               	.LM90:
 584 02fc 8081      		ld r24,Z
 585 02fe 807F      		andi r24,lo8(-16)
 586 0300 8460      		ori r24,lo8(4)
 587 0302 8083      		st Z,r24
 588               	/* epilogue start */
 589               	.LM91:
 590 0304 0895      		ret
 591               	.LFE19:
 593               	.global	Time_Set
 595               	Time_Set:
 596               	.LFB20:
 597               	.LM92:
 598               	.LVL23:
 599 0306 0F93      		push r16
 600 0308 DF93      		push r29
 601 030a CF93      		push r28
 602 030c 0F92      		push __tmp_reg__
 603 030e CDB7      		in r28,__SP_L__
 604 0310 DEB7      		in r29,__SP_H__
 605               	/* prologue: function */
 606               	/* frame size = 1 */
 607 0312 AB01      		movw r20,r22
 608 0314 BC01      		movw r22,r24
 609               	.LM93:
 610               	/* #APP */
 611               	 ;  70 "time.c" 1
 612 0316 F894      		cli
 613               	 ;  0 "" 2
 614               	.LM94:
 615               	/* #NOAPP */
 616 0318 82E0      		ldi r24,lo8(2)
 617 031a 8093 F000 		sts 240,r24
 618               	.LBB472:
 619               	.LBB473:
 620               	.LM95:
 621 031e 8FB7      		in r24,__SREG__
 622 0320 8983      		std Y+1,r24
 623               	.LVL24:
 624               	.LM96:
 625               	/* #APP */
 626               	 ;  83 "mainChestStrap.h" 1
 627 0322 F894      		cli
 628               	 ;  0 "" 2
 629               	.LM97:
 630               	/* #NOAPP */
 631 0324 1BBE      		out 59-0,__zero_reg__
 632               	.LM98:
 633 0326 21E0      		ldi r18,lo8(1)
 634 0328 80EF      		ldi r24,lo8(240)
 635 032a 90E0      		ldi r25,hi8(240)
 636               	/* #APP */
 637               	 ;  105 "mainChestStrap.h" 1
 638 032c FC01      		movw r30,  r24
 639 032e 08ED      		ldi  r16,  216
 640 0330 04BF      		out   52, r16
 641 0332 2083      		st     Z,  r18
 642               		
 643               	 ;  0 "" 2
 644               	.LM99:
 645               	/* #NOAPP */
 646 0334 8981      		ldd r24,Y+1
 647 0336 8FBF      		out __SREG__,r24
 648               	.LBE473:
 649               	.LBE472:
 650               	.LM100:
 651 0338 8091 F000 		lds r24,240
 652 033c 8460      		ori r24,lo8(4)
 653 033e 8093 F000 		sts 240,r24
 654               	.LM101:
 655 0342 8091 F000 		lds r24,240
 656 0346 8860      		ori r24,lo8(8)
 657 0348 8093 F000 		sts 240,r24
 658               	.LM102:
 659 034c 8091 2004 		lds r24,1056
 660 0350 8E7F      		andi r24,lo8(-2)
 661 0352 8093 2004 		sts 1056,r24
 662               	.LVL25:
 663               	.L49:
 664               	.LM103:
 665 0356 E0E2      		ldi r30,lo8(1056)
 666 0358 F4E0      		ldi r31,hi8(1056)
 667 035a 8091 2104 		lds r24,1057
 668 035e 80FD      		sbrc r24,0
 669 0360 00C0      		rjmp .L49
 670               	.LM104:
 671 0362 8EEF      		ldi r24,lo8(-2)
 672 0364 9FEF      		ldi r25,hi8(-2)
 673 0366 AFEF      		ldi r26,hlo8(-2)
 674 0368 BFEF      		ldi r27,hhi8(-2)
 675 036a 8087      		std Z+8,r24
 676 036c 9187      		std Z+9,r25
 677 036e A287      		std Z+10,r26
 678 0370 B387      		std Z+11,r27
 679               	.LM105:
 680 0372 1486      		std Z+12,__zero_reg__
 681 0374 1586      		std Z+13,__zero_reg__
 682 0376 1686      		std Z+14,__zero_reg__
 683 0378 1786      		std Z+15,__zero_reg__
 684               	.LM106:
 685 037a 4483      		std Z+4,r20
 686 037c 5583      		std Z+5,r21
 687 037e 6683      		std Z+6,r22
 688 0380 7783      		std Z+7,r23
 689               	.LM107:
 690 0382 8091 2004 		lds r24,1056
 691 0386 8160      		ori r24,lo8(1)
 692 0388 8093 2004 		sts 1056,r24
 693               	.L50:
 694               	.LM108:
 695 038c 8091 2104 		lds r24,1057
 696 0390 80FD      		sbrc r24,0
 697 0392 00C0      		rjmp .L50
 698               	.LM109:
 699 0394 8091 2204 		lds r24,1058
 700 0398 837F      		andi r24,lo8(-13)
 701 039a 8460      		ori r24,lo8(4)
 702 039c E0E2      		ldi r30,lo8(1056)
 703 039e F4E0      		ldi r31,hi8(1056)
 704 03a0 8283      		std Z+2,r24
 705               	.LM110:
 706               	/* #APP */
 707               	 ;  90 "time.c" 1
 708 03a2 7894      		sei
 709               	 ;  0 "" 2
 710               	/* epilogue start */
 711               	.LM111:
 712               	/* #NOAPP */
 713 03a4 0F90      		pop __tmp_reg__
 714 03a6 CF91      		pop r28
 715 03a8 DF91      		pop r29
 716 03aa 0F91      		pop r16
 717 03ac 0895      		ret
 718               	.LFE20:
 720               	.global	Time_CheckVBatSystem
 722               	Time_CheckVBatSystem:
 723               	.LFB21:
 724               	.LM112:
 725               	/* prologue: function */
 726               	/* frame size = 0 */
 727               	.LM113:
 728 03ae 8091 F100 		lds r24,241
 729 03b2 87FD      		sbrc r24,7
 730 03b4 00C0      		rjmp .L55
 731               	.LM114:
 732 03b6 8091 F100 		lds r24,241
 733 03ba 80FD      		sbrc r24,0
 734 03bc 00C0      		rjmp .L55
 735               	.LM115:
 736 03be 8091 F100 		lds r24,241
 737 03c2 81FD      		sbrc r24,1
 738 03c4 00C0      		rjmp .L55
 739               	.LM116:
 740 03c6 82E0      		ldi r24,lo8(2)
 741 03c8 8093 F000 		sts 240,r24
 742               	.LM117:
 743 03cc 8091 F100 		lds r24,241
 744 03d0 8695      		lsr r24
 745 03d2 8695      		lsr r24
 746 03d4 8095      		com r24
 747 03d6 8170      		andi r24,lo8(1)
 748 03d8 0895      		ret
 749               	.L55:
 750 03da 80E0      		ldi r24,lo8(0)
 751               	.LM118:
 752 03dc 0895      		ret
 753               	.LFE21:
 755               	.global	Time_Get
 757               	Time_Get:
 758               	.LFB22:
 759               	.LM119:
 760               	/* prologue: function */
 761               	/* frame size = 0 */
 762               	.LM120:
 763 03de 8091 2104 		lds r24,1057
 764 03e2 8061      		ori r24,lo8(16)
 765 03e4 E0E2      		ldi r30,lo8(1056)
 766 03e6 F4E0      		ldi r31,hi8(1056)
 767 03e8 8183      		std Z+1,r24
 768               	.L59:
 769               	.LM121:
 770 03ea 8091 2104 		lds r24,1057
 771 03ee 84FD      		sbrc r24,4
 772 03f0 00C0      		rjmp .L59
 773               	.LM122:
 774 03f2 2091 2404 		lds r18,1060
 775 03f6 3091 2504 		lds r19,(1060)+1
 776 03fa 4091 2604 		lds r20,(1060)+2
 777 03fe 5091 2704 		lds r21,(1060)+3
 778               	.LM123:
 779 0402 B901      		movw r22,r18
 780 0404 CA01      		movw r24,r20
 781               	/* epilogue start */
 782 0406 0895      		ret
 783               	.LFE22:
 785               	.global	Time_Get32BitTimer
 787               	Time_Get32BitTimer:
 788               	.LFB23:
 789               	.LM124:
 790               	/* prologue: function */
 791               	/* frame size = 0 */
 792               	.LM125:
 793               	/* #APP */
 794               	 ;  120 "time.c" 1
 795 0408 F894      		cli
 796               	 ;  0 "" 2
 797               	.LM126:
 798               	/* #NOAPP */
 799 040a 2091 6008 		lds r18,2144
 800 040e 3091 6108 		lds r19,(2144)+1
 801               	.LVL26:
 802               	.LM127:
 803 0412 6091 2008 		lds r22,2080
 804 0416 7091 2108 		lds r23,(2080)+1
 805               	.LVL27:
 806               	.LM128:
 807 041a 8091 6008 		lds r24,2144
 808 041e 9091 6108 		lds r25,(2144)+1
 809 0422 2817      		cp r18,r24
 810 0424 3907      		cpc r19,r25
 811 0426 01F0      		breq .L63
 812               	.LM129:
 813 0428 2091 6008 		lds r18,2144
 814 042c 3091 6108 		lds r19,(2144)+1
 815               	.LM130:
 816 0430 6091 2008 		lds r22,2080
 817 0434 7091 2108 		lds r23,(2080)+1
 818               	.L63:
 819               	.LM131:
 820               	/* #APP */
 821               	 ;  130 "time.c" 1
 822 0438 7894      		sei
 823               	 ;  0 "" 2
 824               	/* #NOAPP */
 825 043a 40E0      		ldi r20,lo8(0)
 826 043c 50E0      		ldi r21,hi8(0)
 827               	.LVL28:
 828 043e A901      		movw r20,r18
 829 0440 3327      		clr r19
 830 0442 2227      		clr r18
 831               	.LVL29:
 832 0444 CB01      		movw r24,r22
 833 0446 A0E0      		ldi r26,lo8(0)
 834 0448 B0E0      		ldi r27,hi8(0)
 835               	.LVL30:
 836 044a 280F      		add r18,r24
 837 044c 391F      		adc r19,r25
 838 044e 4A1F      		adc r20,r26
 839 0450 5B1F      		adc r21,r27
 840               	.LM132:
 841 0452 B901      		movw r22,r18
 842               	.LVL31:
 843 0454 CA01      		movw r24,r20
 844               	.LVL32:
 845               	/* epilogue start */
 846 0456 0895      		ret
 847               	.LFE23:
 849               	.global	Time_UTCSecsToTime
 851               	Time_UTCSecsToTime:
 852               	.LFB24:
 853               	.LM133:
 854               	.LVL33:
 855 0458 8F92      		push r8
 856 045a 9F92      		push r9
 857 045c AF92      		push r10
 858 045e BF92      		push r11
 859 0460 CF92      		push r12
 860 0462 DF92      		push r13
 861 0464 EF92      		push r14
 862 0466 FF92      		push r15
 863 0468 0F93      		push r16
 864 046a 1F93      		push r17
 865 046c CF93      		push r28
 866 046e DF93      		push r29
 867               	/* prologue: function */
 868               	/* frame size = 0 */
 869 0470 7B01      		movw r14,r22
 870 0472 8C01      		movw r16,r24
 871 0474 EA01      		movw r28,r20
 872               	.LM134:
 873 0476 2CE3      		ldi r18,lo8(60)
 874 0478 30E0      		ldi r19,hi8(60)
 875 047a 40E0      		ldi r20,hlo8(60)
 876 047c 50E0      		ldi r21,hhi8(60)
 877 047e 0E94 0000 		call __udivmodsi4
 878               	.LVL34:
 879 0482 6983      		std Y+1,r22
 880               	.LM135:
 881 0484 C801      		movw r24,r16
 882 0486 B701      		movw r22,r14
 883 0488 2CE3      		ldi r18,lo8(60)
 884 048a 30E0      		ldi r19,hi8(60)
 885 048c 40E0      		ldi r20,hlo8(60)
 886 048e 50E0      		ldi r21,hhi8(60)
 887 0490 0E94 0000 		call __udivmodsi4
 888 0494 122F      		mov r17,r18
 889 0496 032F      		mov r16,r19
 890 0498 F42E      		mov r15,r20
 891               	.LVL35:
 892 049a E52E      		mov r14,r21
 893               	.LVL36:
 894               	.LM136:
 895 049c 622F      		mov r22,r18
 896 049e 732F      		mov r23,r19
 897 04a0 842F      		mov r24,r20
 898 04a2 952F      		mov r25,r21
 899 04a4 2CE3      		ldi r18,lo8(60)
 900 04a6 30E0      		ldi r19,hi8(60)
 901 04a8 40E0      		ldi r20,hlo8(60)
 902 04aa 50E0      		ldi r21,hhi8(60)
 903 04ac 0E94 0000 		call __udivmodsi4
 904 04b0 6A83      		std Y+2,r22
 905               	.LM137:
 906 04b2 612F      		mov r22,r17
 907 04b4 702F      		mov r23,r16
 908 04b6 8F2D      		mov r24,r15
 909 04b8 9E2D      		mov r25,r14
 910 04ba 2CE3      		ldi r18,lo8(60)
 911 04bc 30E0      		ldi r19,hi8(60)
 912 04be 40E0      		ldi r20,hlo8(60)
 913 04c0 50E0      		ldi r21,hhi8(60)
 914 04c2 0E94 0000 		call __udivmodsi4
 915 04c6 122F      		mov r17,r18
 916 04c8 032F      		mov r16,r19
 917 04ca F42E      		mov r15,r20
 918 04cc E52E      		mov r14,r21
 919               	.LM138:
 920 04ce 622F      		mov r22,r18
 921 04d0 732F      		mov r23,r19
 922 04d2 842F      		mov r24,r20
 923 04d4 952F      		mov r25,r21
 924 04d6 28E1      		ldi r18,lo8(24)
 925 04d8 30E0      		ldi r19,hi8(24)
 926 04da 40E0      		ldi r20,hlo8(24)
 927 04dc 50E0      		ldi r21,hhi8(24)
 928 04de 0E94 0000 		call __udivmodsi4
 929 04e2 6B83      		std Y+3,r22
 930               	.LM139:
 931 04e4 612F      		mov r22,r17
 932 04e6 702F      		mov r23,r16
 933 04e8 8F2D      		mov r24,r15
 934 04ea 9E2D      		mov r25,r14
 935 04ec 28E1      		ldi r18,lo8(24)
 936 04ee 30E0      		ldi r19,hi8(24)
 937 04f0 40E0      		ldi r20,hlo8(24)
 938 04f2 50E0      		ldi r21,hhi8(24)
 939 04f4 0E94 0000 		call __udivmodsi4
 940 04f8 7901      		movw r14,r18
 941 04fa 8A01      		movw r16,r20
 942               	.LM140:
 943 04fc C801      		movw r24,r16
 944 04fe B701      		movw r22,r14
 945               	.LVL37:
 946 0500 6C5F      		subi r22,lo8(-(4))
 947 0502 7F4F      		sbci r23,hi8(-(4))
 948 0504 8F4F      		sbci r24,hlo8(-(4))
 949 0506 9F4F      		sbci r25,hhi8(-(4))
 950 0508 27E0      		ldi r18,lo8(7)
 951 050a 30E0      		ldi r19,hi8(7)
 952 050c 40E0      		ldi r20,hlo8(7)
 953 050e 50E0      		ldi r21,hhi8(7)
 954 0510 0E94 0000 		call __udivmodsi4
 955 0514 6F5F      		subi r22,lo8(-(1))
 956 0516 6C83      		std Y+4,r22
 957 0518 20E0      		ldi r18,lo8(0)
 958               	.LVL38:
 959 051a AA24      		clr r10
 960 051c BB24      		clr r11
 961 051e 6501      		movw r12,r10
 962               	.LVL39:
 963 0520 00C0      		rjmp .L66
 964               	.LVL40:
 965               	.L70:
 966               	.LM141:
 967 0522 2F5F      		subi r18,lo8(-(1))
 968               	.LVL41:
 969               	.L66:
 970               	.LM142:
 971 0524 822E      		mov r8,r18
 972 0526 9924      		clr r9
 973 0528 F401      		movw r30,r8
 974 052a EE54      		subi r30,lo8(-(1970))
 975 052c F84F      		sbci r31,hi8(-(1970))
 976 052e CF01      		movw r24,r30
 977 0530 8370      		andi r24,lo8(3)
 978 0532 9070      		andi r25,hi8(3)
 979 0534 892B      		or r24,r25
 980 0536 01F4      		brne .L67
 981 0538 CF01      		movw r24,r30
 982 053a 64E6      		ldi r22,lo8(100)
 983 053c 70E0      		ldi r23,hi8(100)
 984 053e 0E94 0000 		call __divmodhi4
 985               	.LVL42:
 986 0542 892B      		or r24,r25
 987 0544 01F4      		brne .L68
 988 0546 CF01      		movw r24,r30
 989 0548 60E9      		ldi r22,lo8(400)
 990 054a 71E0      		ldi r23,hi8(400)
 991 054c 0E94 0000 		call __divmodhi4
 992 0550 892B      		or r24,r25
 993 0552 01F4      		brne .L67
 994               	.L68:
 995 0554 8EE6      		ldi r24,lo8(366)
 996 0556 91E0      		ldi r25,hi8(366)
 997 0558 A0E0      		ldi r26,hlo8(366)
 998 055a B0E0      		ldi r27,hhi8(366)
 999 055c 00C0      		rjmp .L69
 1000               	.LVL43:
 1001               	.L67:
 1002 055e 8DE6      		ldi r24,lo8(365)
 1003 0560 91E0      		ldi r25,hi8(365)
 1004 0562 A0E0      		ldi r26,hlo8(365)
 1005 0564 B0E0      		ldi r27,hhi8(365)
 1006               	.L69:
 1007 0566 A80E      		add r10,r24
 1008 0568 B91E      		adc r11,r25
 1009 056a CA1E      		adc r12,r26
 1010 056c DB1E      		adc r13,r27
 1011 056e C501      		movw r24,r10
 1012 0570 A0E0      		ldi r26,lo8(0)
 1013 0572 B0E0      		ldi r27,hi8(0)
 1014 0574 E816      		cp r14,r24
 1015 0576 F906      		cpc r15,r25
 1016 0578 0A07      		cpc r16,r26
 1017 057a 1B07      		cpc r17,r27
 1018 057c 00F4      		brsh .L70
 1019               	.LVL44:
 1020               	.LM143:
 1021 057e 2F83      		std Y+7,r18
 1022               	.LM144:
 1023 0580 F401      		movw r30,r8
 1024 0582 EE54      		subi r30,lo8(-(1970))
 1025 0584 F84F      		sbci r31,hi8(-(1970))
 1026 0586 93E0      		ldi r25,lo8(3)
 1027 0588 892E      		mov r8,r25
 1028 058a 912C      		mov r9,__zero_reg__
 1029 058c 8E22      		and r8,r30
 1030 058e 9F22      		and r9,r31
 1031 0590 8114      		cp r8,__zero_reg__
 1032 0592 9104      		cpc r9,__zero_reg__
 1033 0594 01F4      		brne .L71
 1034 0596 CF01      		movw r24,r30
 1035               	.LVL45:
 1036 0598 64E6      		ldi r22,lo8(100)
 1037 059a 70E0      		ldi r23,hi8(100)
 1038 059c 0E94 0000 		call __divmodhi4
 1039               	.LVL46:
 1040 05a0 892B      		or r24,r25
 1041 05a2 01F4      		brne .L72
 1042 05a4 CF01      		movw r24,r30
 1043 05a6 60E9      		ldi r22,lo8(400)
 1044 05a8 71E0      		ldi r23,hi8(400)
 1045 05aa 0E94 0000 		call __divmodhi4
 1046 05ae 892B      		or r24,r25
 1047 05b0 01F4      		brne .L71
 1048               	.L72:
 1049 05b2 8EE6      		ldi r24,lo8(366)
 1050 05b4 91E0      		ldi r25,hi8(366)
 1051 05b6 A0E0      		ldi r26,hlo8(366)
 1052 05b8 B0E0      		ldi r27,hhi8(366)
 1053 05ba 00C0      		rjmp .L73
 1054               	.LVL47:
 1055               	.L71:
 1056 05bc 8DE6      		ldi r24,lo8(365)
 1057 05be 91E0      		ldi r25,hi8(365)
 1058 05c0 A0E0      		ldi r26,hlo8(365)
 1059 05c2 B0E0      		ldi r27,hhi8(365)
 1060               	.L73:
 1061               	.LM145:
 1062 05c4 A81A      		sub r10,r24
 1063 05c6 B90A      		sbc r11,r25
 1064 05c8 CA0A      		sbc r12,r26
 1065 05ca DB0A      		sbc r13,r27
 1066 05cc 9801      		movw r18,r16
 1067 05ce 8701      		movw r16,r14
 1068 05d0 0A19      		sub r16,r10
 1069 05d2 1B09      		sbc r17,r11
 1070 05d4 2C09      		sbc r18,r12
 1071 05d6 3D09      		sbc r19,r13
 1072               	.LVL48:
 1073               	.LM146:
 1074 05d8 CF01      		movw r24,r30
 1075 05da 64E6      		ldi r22,lo8(100)
 1076 05dc 70E0      		ldi r23,hi8(100)
 1077 05de 0E94 0000 		call __divmodhi4
 1078               	.LVL49:
 1079 05e2 7C01      		movw r14,r24
 1080 05e4 CF01      		movw r24,r30
 1081 05e6 60E9      		ldi r22,lo8(400)
 1082 05e8 71E0      		ldi r23,hi8(400)
 1083 05ea 0E94 0000 		call __divmodhi4
 1084 05ee AC01      		movw r20,r24
 1085 05f0 E0E0      		ldi r30,lo8(monthDays)
 1086 05f2 F0E0      		ldi r31,hi8(monthDays)
 1087 05f4 60E0      		ldi r22,lo8(0)
 1088               	.LVL50:
 1089               	.L79:
 1090               	.LM147:
 1091 05f6 6130      		cpi r22,lo8(1)
 1092 05f8 01F4      		brne .L74
 1093               	.LM148:
 1094 05fa 8114      		cp r8,__zero_reg__
 1095 05fc 9104      		cpc r9,__zero_reg__
 1096 05fe 01F4      		brne .L75
 1097 0600 E114      		cp r14,__zero_reg__
 1098 0602 F104      		cpc r15,__zero_reg__
 1099 0604 01F4      		brne .L76
 1100 0606 4115      		cp r20,__zero_reg__
 1101 0608 5105      		cpc r21,__zero_reg__
 1102 060a 01F0      		breq .L76
 1103 060c 00C0      		rjmp .L75
 1104               	.L74:
 1105               	.LM149:
 1106 060e 8081      		ld r24,Z
 1107               	.LVL51:
 1108 0610 00C0      		rjmp .L77
 1109               	.LVL52:
 1110               	.L75:
 1111 0612 8CE1      		ldi r24,lo8(28)
 1112               	.LVL53:
 1113 0614 00C0      		rjmp .L77
 1114               	.LVL54:
 1115               	.L76:
 1116 0616 8DE1      		ldi r24,lo8(29)
 1117               	.LVL55:
 1118               	.L77:
 1119               	.LM150:
 1120 0618 90E0      		ldi r25,lo8(0)
 1121 061a A0E0      		ldi r26,lo8(0)
 1122 061c B0E0      		ldi r27,hi8(0)
 1123 061e 0817      		cp r16,r24
 1124 0620 1907      		cpc r17,r25
 1125 0622 2A07      		cpc r18,r26
 1126 0624 3B07      		cpc r19,r27
 1127               	.LVL56:
 1128 0626 00F0      		brlo .L78
 1129               	.LM151:
 1130 0628 081B      		sub r16,r24
 1131 062a 190B      		sbc r17,r25
 1132 062c 2A0B      		sbc r18,r26
 1133 062e 3B0B      		sbc r19,r27
 1134               	.LM152:
 1135 0630 6F5F      		subi r22,lo8(-(1))
 1136 0632 3196      		adiw r30,1
 1137 0634 6C30      		cpi r22,lo8(12)
 1138 0636 01F4      		brne .L79
 1139               	.L78:
 1140               	.LM153:
 1141 0638 6F5F      		subi r22,lo8(-(1))
 1142 063a 6E83      		std Y+6,r22
 1143               	.LM154:
 1144 063c 802F      		mov r24,r16
 1145               	.LVL57:
 1146 063e 8F5F      		subi r24,lo8(-(1))
 1147 0640 8D83      		std Y+5,r24
 1148               	.LM155:
 1149 0642 CE01      		movw r24,r28
 1150               	.LVL58:
 1151               	/* epilogue start */
 1152 0644 DF91      		pop r29
 1153 0646 CF91      		pop r28
 1154 0648 1F91      		pop r17
 1155 064a 0F91      		pop r16
 1156 064c FF90      		pop r15
 1157 064e EF90      		pop r14
 1158 0650 DF90      		pop r13
 1159 0652 CF90      		pop r12
 1160 0654 BF90      		pop r11
 1161 0656 AF90      		pop r10
 1162               	.LVL59:
 1163 0658 9F90      		pop r9
 1164 065a 8F90      		pop r8
 1165 065c 0895      		ret
 1166               	.LFE24:
 1169               	wait_ready:
 1170               	.LFB26:
 1171               	.LM156:
 1172               	/* prologue: function */
 1173               	/* frame size = 0 */
 1174               	.LM157:
 1175 065e 82E3      		ldi r24,lo8(50)
 1176 0660 8093 0000 		sts Timer2,r24
 1177               	.LBB474:
 1178               	.LBB475:
 1179               	.LM158:
 1180 0664 8FEF      		ldi r24,lo8(-1)
 1181 0666 E0EC      		ldi r30,lo8(2496)
 1182 0668 F9E0      		ldi r31,hi8(2496)
 1183 066a 8383      		std Z+3,r24
 1184               	.L83:
 1185               	.LM159:
 1186 066c 8091 C209 		lds r24,2498
 1187 0670 87FF      		sbrs r24,7
 1188 0672 00C0      		rjmp .L83
 1189               	.LM160:
 1190 0674 8091 C309 		lds r24,2499
 1191               	.LBE475:
 1192               	.LBE474:
 1193               	.LBB476:
 1194               	.LBB477:
 1195               	.LM161:
 1196 0678 E0EC      		ldi r30,lo8(2496)
 1197 067a F9E0      		ldi r31,hi8(2496)
 1198 067c 2FEF      		ldi r18,lo8(-1)
 1199               	.LVL60:
 1200               	.L86:
 1201 067e 2383      		std Z+3,r18
 1202               	.L84:
 1203               	.LM162:
 1204 0680 8091 C209 		lds r24,2498
 1205 0684 87FF      		sbrs r24,7
 1206 0686 00C0      		rjmp .L84
 1207               	.LM163:
 1208 0688 9091 C309 		lds r25,2499
 1209               	.LBE477:
 1210               	.LBE476:
 1211               	.LM164:
 1212 068c 9F3F      		cpi r25,lo8(-1)
 1213 068e 01F0      		breq .L85
 1214 0690 8091 0000 		lds r24,Timer2
 1215 0694 8823      		tst r24
 1216 0696 01F4      		brne .L86
 1217               	.L85:
 1218               	.LM165:
 1219 0698 892F      		mov r24,r25
 1220               	/* epilogue start */
 1221 069a 0895      		ret
 1222               	.LFE26:
 1225               	select:
 1226               	.LFB28:
 1227               	.LM166:
 1228 069c 1F93      		push r17
 1229 069e CF93      		push r28
 1230 06a0 DF93      		push r29
 1231               	/* prologue: function */
 1232               	/* frame size = 0 */
 1233               	.LM167:
 1234 06a2 C0E6      		ldi r28,lo8(1632)
 1235 06a4 D6E0      		ldi r29,hi8(1632)
 1236 06a6 10E1      		ldi r17,lo8(16)
 1237 06a8 1E83      		std Y+6,r17
 1238               	.LM168:
 1239 06aa 0E94 0000 		call wait_ready
 1240 06ae 8F3F      		cpi r24,lo8(-1)
 1241 06b0 01F4      		brne .L92
 1242 06b2 81E0      		ldi r24,lo8(1)
 1243 06b4 00C0      		rjmp .L93
 1244               	.L92:
 1245               	.LBB478:
 1246               	.LBB479:
 1247               	.LM169:
 1248 06b6 1D83      		std Y+5,r17
 1249               	.LBB480:
 1250               	.LBB481:
 1251               	.LM170:
 1252 06b8 8FEF      		ldi r24,lo8(-1)
 1253 06ba E0EC      		ldi r30,lo8(2496)
 1254 06bc F9E0      		ldi r31,hi8(2496)
 1255 06be 8383      		std Z+3,r24
 1256               	.L94:
 1257               	.LM171:
 1258 06c0 8091 C209 		lds r24,2498
 1259 06c4 87FF      		sbrs r24,7
 1260 06c6 00C0      		rjmp .L94
 1261               	.LM172:
 1262 06c8 8091 C309 		lds r24,2499
 1263 06cc 80E0      		ldi r24,lo8(0)
 1264               	.L93:
 1265               	/* epilogue start */
 1266               	.LBE481:
 1267               	.LBE480:
 1268               	.LBE479:
 1269               	.LBE478:
 1270               	.LM173:
 1271 06ce DF91      		pop r29
 1272 06d0 CF91      		pop r28
 1273 06d2 1F91      		pop r17
 1274 06d4 0895      		ret
 1275               	.LFE28:
 1278               	rcvr_datablock:
 1279               	.LFB32:
 1280               	.LM174:
 1281               	.LVL61:
 1282               	/* prologue: function */
 1283               	/* frame size = 0 */
 1284 06d6 FC01      		movw r30,r24
 1285               	.LM175:
 1286 06d8 84E1      		ldi r24,lo8(20)
 1287               	.LVL62:
 1288 06da 8093 0000 		sts Timer1,r24
 1289               	.LBB482:
 1290               	.LBB483:
 1291               	.LM176:
 1292 06de A0EC      		ldi r26,lo8(2496)
 1293 06e0 B9E0      		ldi r27,hi8(2496)
 1294 06e2 9FEF      		ldi r25,lo8(-1)
 1295               	.L100:
 1296 06e4 1396      		adiw r26,3
 1297 06e6 9C93      		st X,r25
 1298 06e8 1397      		sbiw r26,3
 1299               	.L98:
 1300               	.LM177:
 1301 06ea 8091 C209 		lds r24,2498
 1302 06ee 87FF      		sbrs r24,7
 1303 06f0 00C0      		rjmp .L98
 1304               	.LM178:
 1305 06f2 8091 C309 		lds r24,2499
 1306               	.LVL63:
 1307               	.LBE483:
 1308               	.LBE482:
 1309               	.LM179:
 1310 06f6 8F3F      		cpi r24,lo8(-1)
 1311 06f8 01F4      		brne .L99
 1312 06fa 8091 0000 		lds r24,Timer1
 1313               	.LVL64:
 1314 06fe 8823      		tst r24
 1315 0700 01F4      		brne .L100
 1316 0702 00C0      		rjmp .L101
 1317               	.LVL65:
 1318               	.L99:
 1319               	.LM180:
 1320 0704 8E3F      		cpi r24,lo8(-2)
 1321 0706 01F0      		breq .+2
 1322 0708 00C0      		rjmp .L101
 1323               	.LM181:
 1324 070a A0EC      		ldi r26,lo8(2496)
 1325 070c B9E0      		ldi r27,hi8(2496)
 1326 070e 9FEF      		ldi r25,lo8(-1)
 1327               	.L120:
 1328 0710 1396      		adiw r26,3
 1329 0712 9C93      		st X,r25
 1330 0714 1397      		sbiw r26,3
 1331               	.L102:
 1332 0716 8091 C209 		lds r24,2498
 1333               	.LVL66:
 1334 071a 87FF      		sbrs r24,7
 1335 071c 00C0      		rjmp .L102
 1336 071e 8091 C309 		lds r24,2499
 1337 0722 8083      		st Z,r24
 1338               	.LM182:
 1339 0724 1396      		adiw r26,3
 1340 0726 9C93      		st X,r25
 1341 0728 1397      		sbiw r26,3
 1342               	.L103:
 1343 072a 8091 C209 		lds r24,2498
 1344 072e 87FF      		sbrs r24,7
 1345 0730 00C0      		rjmp .L103
 1346 0732 8091 C309 		lds r24,2499
 1347 0736 8183      		std Z+1,r24
 1348               	.LM183:
 1349 0738 1396      		adiw r26,3
 1350 073a 9C93      		st X,r25
 1351 073c 1397      		sbiw r26,3
 1352               	.L104:
 1353 073e 8091 C209 		lds r24,2498
 1354 0742 87FF      		sbrs r24,7
 1355 0744 00C0      		rjmp .L104
 1356 0746 8091 C309 		lds r24,2499
 1357 074a 8283      		std Z+2,r24
 1358               	.LM184:
 1359 074c 1396      		adiw r26,3
 1360 074e 9C93      		st X,r25
 1361 0750 1397      		sbiw r26,3
 1362               	.L105:
 1363 0752 8091 C209 		lds r24,2498
 1364 0756 87FF      		sbrs r24,7
 1365 0758 00C0      		rjmp .L105
 1366 075a 8091 C309 		lds r24,2499
 1367 075e 8383      		std Z+3,r24
 1368               	.LM185:
 1369 0760 6450      		subi r22,lo8(-(-4))
 1370 0762 7040      		sbci r23,hi8(-(-4))
 1371               	.LVL67:
 1372 0764 01F0      		breq .L106
 1373               	.LM186:
 1374 0766 3496      		adiw r30,4
 1375 0768 00C0      		rjmp .L120
 1376               	.L106:
 1377               	.LBB484:
 1378               	.LBB485:
 1379               	.LM187:
 1380 076a 8FEF      		ldi r24,lo8(-1)
 1381 076c E0EC      		ldi r30,lo8(2496)
 1382 076e F9E0      		ldi r31,hi8(2496)
 1383               	.LVL68:
 1384 0770 8383      		std Z+3,r24
 1385               	.L108:
 1386               	.LM188:
 1387 0772 8091 C209 		lds r24,2498
 1388 0776 87FF      		sbrs r24,7
 1389 0778 00C0      		rjmp .L108
 1390               	.LM189:
 1391 077a 8091 C309 		lds r24,2499
 1392               	.LBE485:
 1393               	.LBE484:
 1394               	.LBB486:
 1395               	.LBB487:
 1396               	.LM190:
 1397 077e 8FEF      		ldi r24,lo8(-1)
 1398 0780 E0EC      		ldi r30,lo8(2496)
 1399 0782 F9E0      		ldi r31,hi8(2496)
 1400 0784 8383      		std Z+3,r24
 1401               	.L109:
 1402               	.LM191:
 1403 0786 8091 C209 		lds r24,2498
 1404 078a 87FF      		sbrs r24,7
 1405 078c 00C0      		rjmp .L109
 1406               	.LM192:
 1407 078e 8091 C309 		lds r24,2499
 1408 0792 81E0      		ldi r24,lo8(1)
 1409 0794 0895      		ret
 1410               	.LVL69:
 1411               	.L101:
 1412               	.LM193:
 1413 0796 80E0      		ldi r24,lo8(0)
 1414               	.LVL70:
 1415               	.LBE487:
 1416               	.LBE486:
 1417               	.LM194:
 1418 0798 0895      		ret
 1419               	.LFE32:
 1422               	xmit_datablock:
 1423               	.LFB33:
 1424               	.LM195:
 1425               	.LVL71:
 1426 079a 1F93      		push r17
 1427 079c CF93      		push r28
 1428 079e DF93      		push r29
 1429               	/* prologue: function */
 1430               	/* frame size = 0 */
 1431 07a0 EC01      		movw r28,r24
 1432 07a2 162F      		mov r17,r22
 1433               	.LM196:
 1434 07a4 0E94 0000 		call wait_ready
 1435               	.LVL72:
 1436 07a8 8F3F      		cpi r24,lo8(-1)
 1437 07aa 01F0      		breq .L122
 1438 07ac 90E0      		ldi r25,lo8(0)
 1439 07ae 00C0      		rjmp .L123
 1440               	.L122:
 1441               	.LM197:
 1442 07b0 E0EC      		ldi r30,lo8(2496)
 1443 07b2 F9E0      		ldi r31,hi8(2496)
 1444 07b4 1383      		std Z+3,r17
 1445               	.L124:
 1446 07b6 8091 C209 		lds r24,2498
 1447 07ba 87FF      		sbrs r24,7
 1448 07bc 00C0      		rjmp .L124
 1449               	.LM198:
 1450 07be 1D3F      		cpi r17,lo8(-3)
 1451 07c0 01F4      		brne .L125
 1452 07c2 91E0      		ldi r25,lo8(1)
 1453 07c4 00C0      		rjmp .L123
 1454               	.L125:
 1455 07c6 90E0      		ldi r25,lo8(0)
 1456               	.LVL73:
 1457               	.LM199:
 1458 07c8 E0EC      		ldi r30,lo8(2496)
 1459 07ca F9E0      		ldi r31,hi8(2496)
 1460               	.L129:
 1461 07cc 8881      		ld r24,Y
 1462 07ce 8383      		std Z+3,r24
 1463               	.L126:
 1464 07d0 8091 C209 		lds r24,2498
 1465 07d4 87FF      		sbrs r24,7
 1466 07d6 00C0      		rjmp .L126
 1467               	.LM200:
 1468 07d8 8981      		ldd r24,Y+1
 1469 07da 8383      		std Z+3,r24
 1470               	.L127:
 1471 07dc 8091 C209 		lds r24,2498
 1472 07e0 87FF      		sbrs r24,7
 1473 07e2 00C0      		rjmp .L127
 1474               	.LM201:
 1475 07e4 9150      		subi r25,lo8(-(-1))
 1476 07e6 01F0      		breq .L128
 1477               	.LM202:
 1478 07e8 2296      		adiw r28,2
 1479 07ea 00C0      		rjmp .L129
 1480               	.L128:
 1481               	.LM203:
 1482 07ec 8FEF      		ldi r24,lo8(-1)
 1483 07ee E0EC      		ldi r30,lo8(2496)
 1484 07f0 F9E0      		ldi r31,hi8(2496)
 1485 07f2 8383      		std Z+3,r24
 1486               	.L130:
 1487 07f4 8091 C209 		lds r24,2498
 1488 07f8 87FF      		sbrs r24,7
 1489 07fa 00C0      		rjmp .L130
 1490               	.LM204:
 1491 07fc 8FEF      		ldi r24,lo8(-1)
 1492 07fe E0EC      		ldi r30,lo8(2496)
 1493 0800 F9E0      		ldi r31,hi8(2496)
 1494 0802 8383      		std Z+3,r24
 1495               	.L131:
 1496 0804 8091 C209 		lds r24,2498
 1497 0808 87FF      		sbrs r24,7
 1498 080a 00C0      		rjmp .L131
 1499               	.LBB488:
 1500               	.LBB489:
 1501               	.LM205:
 1502 080c 8FEF      		ldi r24,lo8(-1)
 1503 080e E0EC      		ldi r30,lo8(2496)
 1504 0810 F9E0      		ldi r31,hi8(2496)
 1505 0812 8383      		std Z+3,r24
 1506               	.L132:
 1507               	.LM206:
 1508 0814 8091 C209 		lds r24,2498
 1509 0818 87FF      		sbrs r24,7
 1510 081a 00C0      		rjmp .L132
 1511               	.LM207:
 1512 081c 8091 C309 		lds r24,2499
 1513               	.LVL74:
 1514 0820 90E0      		ldi r25,lo8(0)
 1515               	.LVL75:
 1516 0822 8F71      		andi r24,lo8(31)
 1517 0824 8530      		cpi r24,lo8(5)
 1518 0826 01F0      		breq .L133
 1519 0828 91E0      		ldi r25,lo8(1)
 1520               	.L133:
 1521 082a 81E0      		ldi r24,lo8(1)
 1522               	.LVL76:
 1523 082c 9827      		eor r25,r24
 1524               	.L123:
 1525               	.LBE489:
 1526               	.LBE488:
 1527               	.LM208:
 1528 082e 892F      		mov r24,r25
 1529               	/* epilogue start */
 1530 0830 DF91      		pop r29
 1531 0832 CF91      		pop r28
 1532               	.LVL77:
 1533 0834 1F91      		pop r17
 1534               	.LVL78:
 1535 0836 0895      		ret
 1536               	.LFE33:
 1539               	send_cmd:
 1540               	.LFB34:
 1541               	.LM209:
 1542               	.LVL79:
 1543 0838 DF92      		push r13
 1544 083a EF92      		push r14
 1545 083c FF92      		push r15
 1546 083e 0F93      		push r16
 1547 0840 1F93      		push r17
 1548               	/* prologue: function */
 1549               	/* frame size = 0 */
 1550 0842 D82E      		mov r13,r24
 1551 0844 7A01      		movw r14,r20
 1552 0846 8B01      		movw r16,r22
 1553               	.LM210:
 1554 0848 87FF      		sbrs r24,7
 1555 084a 00C0      		rjmp .L142
 1556               	.LVL80:
 1557               	.LM211:
 1558 084c 87E7      		ldi r24,lo8(119)
 1559               	.LVL81:
 1560 084e 40E0      		ldi r20,lo8(0)
 1561 0850 50E0      		ldi r21,hi8(0)
 1562 0852 60E0      		ldi r22,hlo8(0)
 1563 0854 70E0      		ldi r23,hhi8(0)
 1564 0856 0E94 0000 		call send_cmd
 1565               	.LM212:
 1566 085a 8230      		cpi r24,lo8(2)
 1567               	.LVL82:
 1568 085c 00F0      		brlo .+2
 1569 085e 00C0      		rjmp .L143
 1570               	.LM213:
 1571 0860 8FE7      		ldi r24,lo8(127)
 1572               	.LVL83:
 1573 0862 D822      		and r13,r24
 1574               	.LVL84:
 1575               	.L142:
 1576               	.LBB490:
 1577               	.LBB491:
 1578               	.LM214:
 1579 0864 80E1      		ldi r24,lo8(16)
 1580 0866 E0E6      		ldi r30,lo8(1632)
 1581 0868 F6E0      		ldi r31,hi8(1632)
 1582 086a 8583      		std Z+5,r24
 1583               	.LBB492:
 1584               	.LBB493:
 1585               	.LM215:
 1586 086c 8FEF      		ldi r24,lo8(-1)
 1587 086e E0EC      		ldi r30,lo8(2496)
 1588 0870 F9E0      		ldi r31,hi8(2496)
 1589 0872 8383      		std Z+3,r24
 1590               	.L144:
 1591               	.LM216:
 1592 0874 8091 C209 		lds r24,2498
 1593 0878 87FF      		sbrs r24,7
 1594 087a 00C0      		rjmp .L144
 1595               	.LM217:
 1596 087c 8091 C309 		lds r24,2499
 1597               	.LBE493:
 1598               	.LBE492:
 1599               	.LBE491:
 1600               	.LBE490:
 1601               	.LM218:
 1602 0880 0E94 0000 		call select
 1603 0884 8823      		tst r24
 1604 0886 01F4      		brne .L145
 1605 0888 8FEF      		ldi r24,lo8(-1)
 1606               	.LVL85:
 1607 088a 00C0      		rjmp .L143
 1608               	.LVL86:
 1609               	.L145:
 1610               	.LM219:
 1611 088c E0EC      		ldi r30,lo8(2496)
 1612 088e F9E0      		ldi r31,hi8(2496)
 1613 0890 D382      		std Z+3,r13
 1614               	.L146:
 1615 0892 8091 C209 		lds r24,2498
 1616 0896 87FF      		sbrs r24,7
 1617 0898 00C0      		rjmp .L146
 1618               	.LM220:
 1619 089a 812F      		mov r24,r17
 1620 089c 9927      		clr r25
 1621 089e AA27      		clr r26
 1622 08a0 BB27      		clr r27
 1623 08a2 E0EC      		ldi r30,lo8(2496)
 1624 08a4 F9E0      		ldi r31,hi8(2496)
 1625 08a6 8383      		std Z+3,r24
 1626               	.L147:
 1627 08a8 8091 C209 		lds r24,2498
 1628 08ac 87FF      		sbrs r24,7
 1629 08ae 00C0      		rjmp .L147
 1630               	.LM221:
 1631 08b0 C801      		movw r24,r16
 1632 08b2 AA27      		clr r26
 1633 08b4 BB27      		clr r27
 1634 08b6 E0EC      		ldi r30,lo8(2496)
 1635 08b8 F9E0      		ldi r31,hi8(2496)
 1636 08ba 8383      		std Z+3,r24
 1637               	.L148:
 1638 08bc 8091 C209 		lds r24,2498
 1639 08c0 87FF      		sbrs r24,7
 1640 08c2 00C0      		rjmp .L148
 1641               	.LM222:
 1642 08c4 BB27      		clr r27
 1643 08c6 A12F      		mov r26,r17
 1644 08c8 902F      		mov r25,r16
 1645 08ca 8F2D      		mov r24,r15
 1646 08cc E0EC      		ldi r30,lo8(2496)
 1647 08ce F9E0      		ldi r31,hi8(2496)
 1648 08d0 8383      		std Z+3,r24
 1649               	.L149:
 1650 08d2 8091 C209 		lds r24,2498
 1651 08d6 87FF      		sbrs r24,7
 1652 08d8 00C0      		rjmp .L149
 1653               	.LM223:
 1654 08da E0EC      		ldi r30,lo8(2496)
 1655 08dc F9E0      		ldi r31,hi8(2496)
 1656 08de E382      		std Z+3,r14
 1657               	.L150:
 1658 08e0 8091 C209 		lds r24,2498
 1659 08e4 87FF      		sbrs r24,7
 1660 08e6 00C0      		rjmp .L150
 1661               	.LM224:
 1662 08e8 80E4      		ldi r24,lo8(64)
 1663 08ea D816      		cp r13,r24
 1664 08ec 01F4      		brne .L151
 1665 08ee 85E9      		ldi r24,lo8(-107)
 1666               	.LVL87:
 1667 08f0 00C0      		rjmp .L152
 1668               	.LVL88:
 1669               	.L151:
 1670               	.LM225:
 1671 08f2 88E4      		ldi r24,lo8(72)
 1672 08f4 D816      		cp r13,r24
 1673 08f6 01F4      		brne .L153
 1674 08f8 87E8      		ldi r24,lo8(-121)
 1675               	.LVL89:
 1676 08fa 00C0      		rjmp .L152
 1677               	.LVL90:
 1678               	.L153:
 1679 08fc 81E0      		ldi r24,lo8(1)
 1680               	.LVL91:
 1681               	.L152:
 1682               	.LM226:
 1683 08fe E0EC      		ldi r30,lo8(2496)
 1684 0900 F9E0      		ldi r31,hi8(2496)
 1685 0902 8383      		std Z+3,r24
 1686               	.L154:
 1687 0904 8091 C209 		lds r24,2498
 1688               	.LVL92:
 1689 0908 87FF      		sbrs r24,7
 1690 090a 00C0      		rjmp .L154
 1691               	.LM227:
 1692 090c 8CE4      		ldi r24,lo8(76)
 1693 090e D816      		cp r13,r24
 1694 0910 01F4      		brne .L171
 1695               	.L155:
 1696               	.LBB494:
 1697               	.LBB495:
 1698               	.LM228:
 1699 0912 8FEF      		ldi r24,lo8(-1)
 1700 0914 E0EC      		ldi r30,lo8(2496)
 1701 0916 F9E0      		ldi r31,hi8(2496)
 1702 0918 8383      		std Z+3,r24
 1703               	.L157:
 1704               	.LM229:
 1705 091a 8091 C209 		lds r24,2498
 1706 091e 87FF      		sbrs r24,7
 1707 0920 00C0      		rjmp .L157
 1708               	.LM230:
 1709 0922 8091 C309 		lds r24,2499
 1710               	.L171:
 1711 0926 9AE0      		ldi r25,lo8(10)
 1712               	.LVL93:
 1713               	.LBE495:
 1714               	.LBE494:
 1715               	.LBB496:
 1716               	.LBB497:
 1717               	.LM231:
 1718 0928 E0EC      		ldi r30,lo8(2496)
 1719 092a F9E0      		ldi r31,hi8(2496)
 1720 092c 2FEF      		ldi r18,lo8(-1)
 1721               	.LVL94:
 1722               	.L160:
 1723 092e 2383      		std Z+3,r18
 1724               	.L158:
 1725               	.LM232:
 1726 0930 8091 C209 		lds r24,2498
 1727               	.LVL95:
 1728 0934 87FF      		sbrs r24,7
 1729 0936 00C0      		rjmp .L158
 1730               	.LM233:
 1731 0938 8091 C309 		lds r24,2499
 1732               	.LVL96:
 1733               	.LBE497:
 1734               	.LBE496:
 1735               	.LM234:
 1736 093c 87FF      		sbrs r24,7
 1737 093e 00C0      		rjmp .L143
 1738 0940 9150      		subi r25,lo8(-(-1))
 1739 0942 01F4      		brne .L160
 1740               	.L143:
 1741               	.LVL97:
 1742               	/* epilogue start */
 1743               	.LM235:
 1744 0944 1F91      		pop r17
 1745 0946 0F91      		pop r16
 1746 0948 FF90      		pop r15
 1747 094a EF90      		pop r14
 1748               	.LVL98:
 1749 094c DF90      		pop r13
 1750               	.LVL99:
 1751 094e 0895      		ret
 1752               	.LFE34:
 1754               	.global	disk_initialize
 1756               	disk_initialize:
 1757               	.LFB35:
 1758               	.LM236:
 1759               	.LVL100:
 1760 0950 EF92      		push r14
 1761 0952 FF92      		push r15
 1762 0954 0F93      		push r16
 1763 0956 1F93      		push r17
 1764 0958 DF93      		push r29
 1765 095a CF93      		push r28
 1766 095c 00D0      		rcall .
 1767 095e 0F92      		push __tmp_reg__
 1768 0960 CDB7      		in r28,__SP_L__
 1769 0962 DEB7      		in r29,__SP_H__
 1770               	/* prologue: function */
 1771               	/* frame size = 4 */
 1772               	.LM237:
 1773 0964 8091 0000 		lds r24,Stat
 1774               	.LVL101:
 1775 0968 81FD      		sbrc r24,1
 1776 096a 00C0      		rjmp .L192
 1777               	.L173:
 1778               	.LBB498:
 1779               	.LBB499:
 1780               	.LM238:
 1781 096c E0E6      		ldi r30,lo8(1632)
 1782 096e F6E0      		ldi r31,hi8(1632)
 1783 0970 80EB      		ldi r24,lo8(-80)
 1784 0972 8183      		std Z+1,r24
 1785               	.LM239:
 1786 0974 88E3      		ldi r24,lo8(56)
 1787 0976 868B      		std Z+22,r24
 1788               	.LM240:
 1789 0978 1482      		std Z+4,__zero_reg__
 1790 097a 8CE2      		ldi r24,lo8(300)
 1791 097c 91E0      		ldi r25,hi8(300)
 1792               	.LVL102:
 1793               	.LBB500:
 1794               	.LBB501:
 1795               	.LBB502:
 1796               	.LBB503:
 1797               	.LM241:
 1798 097e 20E7      		ldi r18,lo8(368)
 1799 0980 31E0      		ldi r19,hi8(368)
 1800               	.L175:
 1801 0982 F901      		movw r30,r18
 1802               	.LVL103:
 1803               	/* #APP */
 1804               	 ;  105 "/usr/local/CrossPack-AVR-20100115/lib/gcc/avr/4.3.3/../../../../avr/include/util/delay_bas
 1805 0984 3197      		1: sbiw r30,1
 1806 0986 01F4      		brne 1b
 1807               	 ;  0 "" 2
 1808               	/* #NOAPP */
 1809               	.LBE503:
 1810               	.LBE502:
 1811               	.LM242:
 1812 0988 0197      		sbiw r24,1
 1813               	.LM243:
 1814 098a 01F4      		brne .L175
 1815               	.LBE501:
 1816               	.LBE500:
 1817               	.LBE499:
 1818               	.LBE498:
 1819               	.LM244:
 1820 098c 83E5      		ldi r24,lo8(83)
 1821               	.LVL104:
 1822 098e 8093 C009 		sts 2496,r24
 1823 0992 9AE0      		ldi r25,lo8(10)
 1824               	.LVL105:
 1825               	.LBB504:
 1826               	.LBB505:
 1827               	.LM245:
 1828 0994 E0EC      		ldi r30,lo8(2496)
 1829 0996 F9E0      		ldi r31,hi8(2496)
 1830               	.LVL106:
 1831 0998 2FEF      		ldi r18,lo8(-1)
 1832               	.L177:
 1833 099a 2383      		std Z+3,r18
 1834               	.L176:
 1835               	.LM246:
 1836 099c 8091 C209 		lds r24,2498
 1837 09a0 87FF      		sbrs r24,7
 1838 09a2 00C0      		rjmp .L176
 1839               	.LM247:
 1840 09a4 8091 C309 		lds r24,2499
 1841               	.LBE505:
 1842               	.LBE504:
 1843               	.LM248:
 1844 09a8 9150      		subi r25,lo8(-(-1))
 1845 09aa 01F4      		brne .L177
 1846               	.LM249:
 1847 09ac 80E4      		ldi r24,lo8(64)
 1848 09ae 40E0      		ldi r20,lo8(0)
 1849 09b0 50E0      		ldi r21,hi8(0)
 1850 09b2 60E0      		ldi r22,hlo8(0)
 1851 09b4 70E0      		ldi r23,hhi8(0)
 1852 09b6 0E94 0000 		call send_cmd
 1853               	.LVL107:
 1854 09ba 8130      		cpi r24,lo8(1)
 1855 09bc 01F0      		breq .+2
 1856 09be 00C0      		rjmp .L178
 1857               	.LM250:
 1858 09c0 84E6      		ldi r24,lo8(100)
 1859 09c2 8093 0000 		sts Timer1,r24
 1860               	.LM251:
 1861 09c6 88E4      		ldi r24,lo8(72)
 1862 09c8 4AEA      		ldi r20,lo8(426)
 1863 09ca 51E0      		ldi r21,hi8(426)
 1864 09cc 60E0      		ldi r22,hlo8(426)
 1865 09ce 70E0      		ldi r23,hhi8(426)
 1866 09d0 0E94 0000 		call send_cmd
 1867 09d4 8130      		cpi r24,lo8(1)
 1868 09d6 01F0      		breq .+2
 1869 09d8 00C0      		rjmp .L179
 1870 09da 7E01      		movw r14,r28
 1871 09dc 0894      		sec
 1872 09de E11C      		adc r14,__zero_reg__
 1873 09e0 F11C      		adc r15,__zero_reg__
 1874 09e2 8701      		movw r16,r14
 1875               	.LBB506:
 1876               	.LBB507:
 1877               	.LM252:
 1878 09e4 E0EC      		ldi r30,lo8(2496)
 1879 09e6 F9E0      		ldi r31,hi8(2496)
 1880 09e8 9FEF      		ldi r25,lo8(-1)
 1881               	.LBE507:
 1882               	.LBE506:
 1883               	.LM253:
 1884 09ea 9E01      		movw r18,r28
 1885 09ec 2B5F      		subi r18,lo8(-(5))
 1886 09ee 3F4F      		sbci r19,hi8(-(5))
 1887               	.L181:
 1888               	.LBB509:
 1889               	.LBB508:
 1890               	.LM254:
 1891 09f0 9383      		std Z+3,r25
 1892               	.L180:
 1893               	.LM255:
 1894 09f2 8091 C209 		lds r24,2498
 1895 09f6 87FF      		sbrs r24,7
 1896 09f8 00C0      		rjmp .L180
 1897               	.LM256:
 1898 09fa 8091 C309 		lds r24,2499
 1899               	.LBE508:
 1900               	.LBE509:
 1901               	.LM257:
 1902 09fe D801      		movw r26,r16
 1903 0a00 8D93      		st X+,r24
 1904 0a02 8D01      		movw r16,r26
 1905 0a04 A217      		cp r26,r18
 1906 0a06 B307      		cpc r27,r19
 1907 0a08 01F4      		brne .L181
 1908               	.LM258:
 1909 0a0a 8B81      		ldd r24,Y+3
 1910 0a0c 8130      		cpi r24,lo8(1)
 1911 0a0e 01F0      		breq .+2
 1912 0a10 00C0      		rjmp .L178
 1913 0a12 8C81      		ldd r24,Y+4
 1914 0a14 8A3A      		cpi r24,lo8(-86)
 1915 0a16 01F0      		breq .+2
 1916 0a18 00C0      		rjmp .L178
 1917               	.L195:
 1918               	.LM259:
 1919 0a1a 8091 0000 		lds r24,Timer1
 1920 0a1e 8823      		tst r24
 1921 0a20 01F0      		breq .L182
 1922 0a22 89EE      		ldi r24,lo8(-23)
 1923 0a24 40E0      		ldi r20,lo8(1073741824)
 1924 0a26 50E0      		ldi r21,hi8(1073741824)
 1925 0a28 60E0      		ldi r22,hlo8(1073741824)
 1926 0a2a 70E4      		ldi r23,hhi8(1073741824)
 1927 0a2c 0E94 0000 		call send_cmd
 1928 0a30 8823      		tst r24
 1929 0a32 01F4      		brne .L195
 1930               	.L182:
 1931               	.LM260:
 1932 0a34 8091 0000 		lds r24,Timer1
 1933 0a38 8823      		tst r24
 1934 0a3a 01F4      		brne .+2
 1935 0a3c 00C0      		rjmp .L178
 1936 0a3e 8AE7      		ldi r24,lo8(122)
 1937 0a40 40E0      		ldi r20,lo8(0)
 1938 0a42 50E0      		ldi r21,hi8(0)
 1939 0a44 60E0      		ldi r22,hlo8(0)
 1940 0a46 70E0      		ldi r23,hhi8(0)
 1941 0a48 0E94 0000 		call send_cmd
 1942 0a4c 8823      		tst r24
 1943 0a4e 01F0      		breq .+2
 1944 0a50 00C0      		rjmp .L178
 1945               	.LBB510:
 1946               	.LBB511:
 1947               	.LM261:
 1948 0a52 E0EC      		ldi r30,lo8(2496)
 1949 0a54 F9E0      		ldi r31,hi8(2496)
 1950 0a56 9FEF      		ldi r25,lo8(-1)
 1951               	.L194:
 1952 0a58 9383      		std Z+3,r25
 1953               	.L184:
 1954               	.LM262:
 1955 0a5a 8091 C209 		lds r24,2498
 1956 0a5e 87FF      		sbrs r24,7
 1957 0a60 00C0      		rjmp .L184
 1958               	.LM263:
 1959 0a62 8091 C309 		lds r24,2499
 1960               	.LBE511:
 1961               	.LBE510:
 1962               	.LM264:
 1963 0a66 D701      		movw r26,r14
 1964 0a68 8D93      		st X+,r24
 1965 0a6a 7D01      		movw r14,r26
 1966 0a6c A017      		cp r26,r16
 1967 0a6e B107      		cpc r27,r17
 1968 0a70 01F4      		brne .L194
 1969               	.LM265:
 1970 0a72 8981      		ldd r24,Y+1
 1971 0a74 86FD      		sbrc r24,6
 1972 0a76 00C0      		rjmp .L186
 1973 0a78 14E0      		ldi r17,lo8(4)
 1974               	.LVL108:
 1975 0a7a 00C0      		rjmp .L187
 1976               	.LVL109:
 1977               	.L186:
 1978 0a7c 1CE0      		ldi r17,lo8(12)
 1979               	.LVL110:
 1980 0a7e 00C0      		rjmp .L187
 1981               	.LVL111:
 1982               	.L179:
 1983               	.LM266:
 1984 0a80 89EE      		ldi r24,lo8(-23)
 1985 0a82 40E0      		ldi r20,lo8(0)
 1986 0a84 50E0      		ldi r21,hi8(0)
 1987 0a86 60E0      		ldi r22,hlo8(0)
 1988 0a88 70E0      		ldi r23,hhi8(0)
 1989 0a8a 0E94 0000 		call send_cmd
 1990 0a8e 8230      		cpi r24,lo8(2)
 1991 0a90 00F0      		brlo .L188
 1992 0a92 01E4      		ldi r16,lo8(65)
 1993               	.LVL112:
 1994 0a94 11E0      		ldi r17,lo8(1)
 1995               	.LVL113:
 1996 0a96 00C0      		rjmp .L196
 1997               	.LVL114:
 1998               	.L188:
 1999 0a98 09EE      		ldi r16,lo8(-23)
 2000               	.LVL115:
 2001 0a9a 12E0      		ldi r17,lo8(2)
 2002               	.LVL116:
 2003               	.L196:
 2004               	.LM267:
 2005 0a9c 8091 0000 		lds r24,Timer1
 2006 0aa0 8823      		tst r24
 2007 0aa2 01F0      		breq .L190
 2008 0aa4 802F      		mov r24,r16
 2009 0aa6 40E0      		ldi r20,lo8(0)
 2010 0aa8 50E0      		ldi r21,hi8(0)
 2011 0aaa 60E0      		ldi r22,hlo8(0)
 2012 0aac 70E0      		ldi r23,hhi8(0)
 2013 0aae 0E94 0000 		call send_cmd
 2014 0ab2 8823      		tst r24
 2015 0ab4 01F4      		brne .L196
 2016               	.L190:
 2017               	.LM268:
 2018 0ab6 8091 0000 		lds r24,Timer1
 2019 0aba 8823      		tst r24
 2020 0abc 01F0      		breq .L178
 2021 0abe 80E5      		ldi r24,lo8(80)
 2022 0ac0 40E0      		ldi r20,lo8(512)
 2023 0ac2 52E0      		ldi r21,hi8(512)
 2024 0ac4 60E0      		ldi r22,hlo8(512)
 2025 0ac6 70E0      		ldi r23,hhi8(512)
 2026 0ac8 0E94 0000 		call send_cmd
 2027 0acc 8111      		cpse r24,__zero_reg__
 2028               	.L178:
 2029 0ace 10E0      		ldi r17,lo8(0)
 2030               	.L187:
 2031               	.LM269:
 2032 0ad0 1093 0000 		sts CardType,r17
 2033               	.LBB512:
 2034               	.LBB513:
 2035               	.LM270:
 2036 0ad4 80E1      		ldi r24,lo8(16)
 2037 0ad6 E0E6      		ldi r30,lo8(1632)
 2038 0ad8 F6E0      		ldi r31,hi8(1632)
 2039 0ada 8583      		std Z+5,r24
 2040               	.LBB514:
 2041               	.LBB515:
 2042               	.LM271:
 2043 0adc 8FEF      		ldi r24,lo8(-1)
 2044 0ade E0EC      		ldi r30,lo8(2496)
 2045 0ae0 F9E0      		ldi r31,hi8(2496)
 2046 0ae2 8383      		std Z+3,r24
 2047               	.L191:
 2048               	.LM272:
 2049 0ae4 8091 C209 		lds r24,2498
 2050 0ae8 87FF      		sbrs r24,7
 2051 0aea 00C0      		rjmp .L191
 2052               	.LM273:
 2053 0aec 8091 C309 		lds r24,2499
 2054               	.LBE515:
 2055               	.LBE514:
 2056               	.LBE513:
 2057               	.LBE512:
 2058               	.LM274:
 2059 0af0 1123      		tst r17
 2060 0af2 01F0      		breq .L192
 2061               	.LM275:
 2062 0af4 8091 0000 		lds r24,Stat
 2063 0af8 8E7F      		andi r24,lo8(-2)
 2064 0afa 8093 0000 		sts Stat,r24
 2065               	.LM276:
 2066 0afe 80ED      		ldi r24,lo8(-48)
 2067 0b00 8093 C009 		sts 2496,r24
 2068               	.L192:
 2069               	.LM277:
 2070 0b04 8091 0000 		lds r24,Stat
 2071               	/* epilogue start */
 2072               	.LM278:
 2073 0b08 2496      		adiw r28,4
 2074 0b0a CDBF      		out __SP_L__,r28
 2075 0b0c DEBF      		out __SP_H__,r29
 2076 0b0e CF91      		pop r28
 2077 0b10 DF91      		pop r29
 2078 0b12 1F91      		pop r17
 2079               	.LVL117:
 2080 0b14 0F91      		pop r16
 2081               	.LVL118:
 2082 0b16 FF90      		pop r15
 2083 0b18 EF90      		pop r14
 2084 0b1a 0895      		ret
 2085               	.LFE35:
 2087               	.global	disk_status
 2089               	disk_status:
 2090               	.LFB36:
 2091               	.LM279:
 2092               	.LVL119:
 2093               	/* prologue: function */
 2094               	/* frame size = 0 */
 2095               	.LM280:
 2096 0b1c 8823      		tst r24
 2097 0b1e 01F0      		breq .L208
 2098 0b20 81E0      		ldi r24,lo8(1)
 2099               	.LVL120:
 2100 0b22 0895      		ret
 2101               	.LVL121:
 2102               	.L208:
 2103               	.LM281:
 2104 0b24 8091 0000 		lds r24,Stat
 2105               	.LVL122:
 2106               	.LM282:
 2107 0b28 0895      		ret
 2108               	.LFE36:
 2110               	.global	disk_read
 2112               	disk_read:
 2113               	.LFB37:
 2114               	.LM283:
 2115               	.LVL123:
 2116 0b2a 0F93      		push r16
 2117               	.LVL124:
 2118 0b2c CF93      		push r28
 2119 0b2e DF93      		push r29
 2120               	/* prologue: function */
 2121               	/* frame size = 0 */
 2122 0b30 EB01      		movw r28,r22
 2123               	.LM284:
 2124 0b32 8823      		tst r24
 2125 0b34 01F0      		breq .+2
 2126 0b36 00C0      		rjmp .L212
 2127               	.LVL125:
 2128 0b38 0023      		tst r16
 2129               	.LVL126:
 2130 0b3a 01F4      		brne .+2
 2131 0b3c 00C0      		rjmp .L212
 2132               	.LM285:
 2133 0b3e 8091 0000 		lds r24,Stat
 2134               	.LVL127:
 2135 0b42 80FF      		sbrs r24,0
 2136 0b44 00C0      		rjmp .L213
 2137 0b46 03E0      		ldi r16,lo8(3)
 2138               	.LVL128:
 2139 0b48 00C0      		rjmp .L214
 2140               	.LVL129:
 2141               	.L213:
 2142               	.LM286:
 2143 0b4a 8091 0000 		lds r24,CardType
 2144 0b4e 83FD      		sbrc r24,3
 2145 0b50 00C0      		rjmp .L215
 2146 0b52 69E0      		ldi r22,9
 2147 0b54 220F      	1:	lsl r18
 2148 0b56 331F      		rol r19
 2149 0b58 441F      		rol r20
 2150 0b5a 551F      		rol r21
 2151 0b5c 6A95      		dec r22
 2152 0b5e 01F4      		brne 1b
 2153               	.LVL130:
 2154               	.L215:
 2155               	.LM287:
 2156 0b60 0130      		cpi r16,lo8(1)
 2157 0b62 01F4      		brne .L216
 2158               	.LM288:
 2159 0b64 81E5      		ldi r24,lo8(81)
 2160 0b66 BA01      		movw r22,r20
 2161 0b68 A901      		movw r20,r18
 2162 0b6a 0E94 0000 		call send_cmd
 2163               	.LVL131:
 2164 0b6e 8823      		tst r24
 2165 0b70 01F4      		brne .L217
 2166 0b72 CE01      		movw r24,r28
 2167 0b74 60E0      		ldi r22,lo8(512)
 2168 0b76 72E0      		ldi r23,hi8(512)
 2169 0b78 0E94 0000 		call rcvr_datablock
 2170 0b7c 00E0      		ldi r16,lo8(0)
 2171 0b7e 8823      		tst r24
 2172 0b80 01F4      		brne .L217
 2173 0b82 01E0      		ldi r16,lo8(1)
 2174 0b84 00C0      		rjmp .L217
 2175               	.LVL132:
 2176               	.L216:
 2177               	.LM289:
 2178 0b86 82E5      		ldi r24,lo8(82)
 2179 0b88 BA01      		movw r22,r20
 2180 0b8a A901      		movw r20,r18
 2181 0b8c 0E94 0000 		call send_cmd
 2182               	.LVL133:
 2183 0b90 8823      		tst r24
 2184 0b92 01F4      		brne .L217
 2185               	.L225:
 2186               	.LM290:
 2187 0b94 CE01      		movw r24,r28
 2188 0b96 60E0      		ldi r22,lo8(512)
 2189 0b98 72E0      		ldi r23,hi8(512)
 2190 0b9a 0E94 0000 		call rcvr_datablock
 2191 0b9e 8823      		tst r24
 2192 0ba0 01F0      		breq .L219
 2193               	.LM291:
 2194 0ba2 0150      		subi r16,lo8(-(-1))
 2195 0ba4 01F0      		breq .L219
 2196               	.LM292:
 2197 0ba6 C050      		subi r28,lo8(-(512))
 2198 0ba8 DE4F      		sbci r29,hi8(-(512))
 2199 0baa 00C0      		rjmp .L225
 2200               	.L219:
 2201               	.LM293:
 2202 0bac 8CE4      		ldi r24,lo8(76)
 2203 0bae 40E0      		ldi r20,lo8(0)
 2204 0bb0 50E0      		ldi r21,hi8(0)
 2205 0bb2 60E0      		ldi r22,hlo8(0)
 2206 0bb4 70E0      		ldi r23,hhi8(0)
 2207 0bb6 0E94 0000 		call send_cmd
 2208               	.L217:
 2209               	.LBB516:
 2210               	.LBB517:
 2211               	.LM294:
 2212 0bba 80E1      		ldi r24,lo8(16)
 2213 0bbc E0E6      		ldi r30,lo8(1632)
 2214 0bbe F6E0      		ldi r31,hi8(1632)
 2215 0bc0 8583      		std Z+5,r24
 2216               	.LBB518:
 2217               	.LBB519:
 2218               	.LM295:
 2219 0bc2 8FEF      		ldi r24,lo8(-1)
 2220 0bc4 E0EC      		ldi r30,lo8(2496)
 2221 0bc6 F9E0      		ldi r31,hi8(2496)
 2222 0bc8 8383      		std Z+3,r24
 2223               	.L221:
 2224               	.LM296:
 2225 0bca 8091 C209 		lds r24,2498
 2226 0bce 87FF      		sbrs r24,7
 2227 0bd0 00C0      		rjmp .L221
 2228               	.LM297:
 2229 0bd2 8091 C309 		lds r24,2499
 2230               	.LBE519:
 2231               	.LBE518:
 2232               	.LBE517:
 2233               	.LBE516:
 2234               	.LM298:
 2235 0bd6 0023      		tst r16
 2236 0bd8 01F0      		breq .L214
 2237 0bda 01E0      		ldi r16,lo8(1)
 2238               	.LVL134:
 2239 0bdc 00C0      		rjmp .L214
 2240               	.LVL135:
 2241               	.L212:
 2242 0bde 04E0      		ldi r16,lo8(4)
 2243               	.LVL136:
 2244               	.L214:
 2245               	.LM299:
 2246 0be0 802F      		mov r24,r16
 2247               	.LVL137:
 2248               	/* epilogue start */
 2249 0be2 DF91      		pop r29
 2250 0be4 CF91      		pop r28
 2251               	.LVL138:
 2252 0be6 0F91      		pop r16
 2253 0be8 0895      		ret
 2254               	.LFE37:
 2256               	.global	disk_write
 2258               	disk_write:
 2259               	.LFB38:
 2260               	.LM300:
 2261               	.LVL139:
 2262 0bea CF92      		push r12
 2263 0bec DF92      		push r13
 2264 0bee EF92      		push r14
 2265 0bf0 FF92      		push r15
 2266 0bf2 0F93      		push r16
 2267               	.LVL140:
 2268 0bf4 CF93      		push r28
 2269 0bf6 DF93      		push r29
 2270               	/* prologue: function */
 2271               	/* frame size = 0 */
 2272 0bf8 EB01      		movw r28,r22
 2273 0bfa 6901      		movw r12,r18
 2274 0bfc 7A01      		movw r14,r20
 2275               	.LM301:
 2276 0bfe 8823      		tst r24
 2277 0c00 01F0      		breq .+2
 2278 0c02 00C0      		rjmp .L227
 2279               	.LVL141:
 2280 0c04 0023      		tst r16
 2281               	.LVL142:
 2282 0c06 01F4      		brne .+2
 2283 0c08 00C0      		rjmp .L227
 2284               	.LM302:
 2285 0c0a 8091 0000 		lds r24,Stat
 2286               	.LVL143:
 2287 0c0e 80FF      		sbrs r24,0
 2288 0c10 00C0      		rjmp .L228
 2289 0c12 03E0      		ldi r16,lo8(3)
 2290               	.LVL144:
 2291 0c14 00C0      		rjmp .L229
 2292               	.LVL145:
 2293               	.L228:
 2294               	.LM303:
 2295 0c16 8091 0000 		lds r24,Stat
 2296 0c1a 82FF      		sbrs r24,2
 2297 0c1c 00C0      		rjmp .L230
 2298 0c1e 02E0      		ldi r16,lo8(2)
 2299               	.LVL146:
 2300 0c20 00C0      		rjmp .L229
 2301               	.LVL147:
 2302               	.L230:
 2303               	.LM304:
 2304 0c22 8091 0000 		lds r24,CardType
 2305 0c26 90E0      		ldi r25,lo8(0)
 2306 0c28 83FD      		sbrc r24,3
 2307 0c2a 00C0      		rjmp .L231
 2308 0c2c 79E0      		ldi r23,9
 2309 0c2e CC0C      	1:	lsl r12
 2310 0c30 DD1C      		rol r13
 2311 0c32 EE1C      		rol r14
 2312 0c34 FF1C      		rol r15
 2313 0c36 7A95      		dec r23
 2314 0c38 01F4      		brne 1b
 2315               	.LVL148:
 2316               	.L231:
 2317               	.LM305:
 2318 0c3a 0130      		cpi r16,lo8(1)
 2319 0c3c 01F4      		brne .L232
 2320               	.LM306:
 2321 0c3e 88E5      		ldi r24,lo8(88)
 2322 0c40 B701      		movw r22,r14
 2323 0c42 A601      		movw r20,r12
 2324 0c44 0E94 0000 		call send_cmd
 2325 0c48 8823      		tst r24
 2326 0c4a 01F4      		brne .L233
 2327 0c4c CE01      		movw r24,r28
 2328 0c4e 6EEF      		ldi r22,lo8(-2)
 2329 0c50 0E94 0000 		call xmit_datablock
 2330 0c54 00E0      		ldi r16,lo8(0)
 2331 0c56 00C0      		rjmp .L244
 2332               	.LVL149:
 2333               	.L232:
 2334               	.LM307:
 2335 0c58 8670      		andi r24,lo8(6)
 2336 0c5a 9070      		andi r25,hi8(6)
 2337 0c5c 892B      		or r24,r25
 2338 0c5e 01F0      		breq .L235
 2339 0c60 402F      		mov r20,r16
 2340 0c62 50E0      		ldi r21,lo8(0)
 2341               	.LVL150:
 2342 0c64 60E0      		ldi r22,lo8(0)
 2343 0c66 70E0      		ldi r23,hi8(0)
 2344               	.LVL151:
 2345 0c68 87ED      		ldi r24,lo8(-41)
 2346 0c6a 0E94 0000 		call send_cmd
 2347               	.LVL152:
 2348               	.L235:
 2349               	.LM308:
 2350 0c6e 89E5      		ldi r24,lo8(89)
 2351 0c70 B701      		movw r22,r14
 2352 0c72 A601      		movw r20,r12
 2353 0c74 0E94 0000 		call send_cmd
 2354 0c78 8823      		tst r24
 2355 0c7a 01F4      		brne .L233
 2356               	.L242:
 2357               	.LM309:
 2358 0c7c CE01      		movw r24,r28
 2359 0c7e 6CEF      		ldi r22,lo8(-4)
 2360 0c80 0E94 0000 		call xmit_datablock
 2361 0c84 8823      		tst r24
 2362 0c86 01F0      		breq .L236
 2363               	.LM310:
 2364 0c88 0150      		subi r16,lo8(-(-1))
 2365 0c8a 01F0      		breq .L236
 2366               	.LM311:
 2367 0c8c C050      		subi r28,lo8(-(512))
 2368 0c8e DE4F      		sbci r29,hi8(-(512))
 2369 0c90 00C0      		rjmp .L242
 2370               	.L236:
 2371               	.LM312:
 2372 0c92 80E0      		ldi r24,lo8(0)
 2373 0c94 90E0      		ldi r25,hi8(0)
 2374 0c96 6DEF      		ldi r22,lo8(-3)
 2375 0c98 0E94 0000 		call xmit_datablock
 2376               	.L244:
 2377 0c9c 8823      		tst r24
 2378 0c9e 01F4      		brne .L233
 2379 0ca0 01E0      		ldi r16,lo8(1)
 2380               	.L233:
 2381               	.LBB520:
 2382               	.LBB521:
 2383               	.LM313:
 2384 0ca2 80E1      		ldi r24,lo8(16)
 2385 0ca4 E0E6      		ldi r30,lo8(1632)
 2386 0ca6 F6E0      		ldi r31,hi8(1632)
 2387 0ca8 8583      		std Z+5,r24
 2388               	.LBB522:
 2389               	.LBB523:
 2390               	.LM314:
 2391 0caa 8FEF      		ldi r24,lo8(-1)
 2392 0cac E0EC      		ldi r30,lo8(2496)
 2393 0cae F9E0      		ldi r31,hi8(2496)
 2394 0cb0 8383      		std Z+3,r24
 2395               	.L238:
 2396               	.LM315:
 2397 0cb2 8091 C209 		lds r24,2498
 2398 0cb6 87FF      		sbrs r24,7
 2399 0cb8 00C0      		rjmp .L238
 2400               	.LM316:
 2401 0cba 8091 C309 		lds r24,2499
 2402               	.LBE523:
 2403               	.LBE522:
 2404               	.LBE521:
 2405               	.LBE520:
 2406               	.LM317:
 2407 0cbe 0023      		tst r16
 2408 0cc0 01F0      		breq .L229
 2409 0cc2 01E0      		ldi r16,lo8(1)
 2410               	.LVL153:
 2411 0cc4 00C0      		rjmp .L229
 2412               	.LVL154:
 2413               	.L227:
 2414 0cc6 04E0      		ldi r16,lo8(4)
 2415               	.LVL155:
 2416               	.L229:
 2417               	.LM318:
 2418 0cc8 802F      		mov r24,r16
 2419               	.LVL156:
 2420               	/* epilogue start */
 2421 0cca DF91      		pop r29
 2422 0ccc CF91      		pop r28
 2423               	.LVL157:
 2424 0cce 0F91      		pop r16
 2425 0cd0 FF90      		pop r15
 2426 0cd2 EF90      		pop r14
 2427 0cd4 DF90      		pop r13
 2428 0cd6 CF90      		pop r12
 2429               	.LVL158:
 2430 0cd8 0895      		ret
 2431               	.LFE38:
 2433               	.global	disk_ioctl
 2435               	disk_ioctl:
 2436               	.LFB39:
 2437               	.LM319:
 2438               	.LVL159:
 2439 0cda FF92      		push r15
 2440 0cdc 0F93      		push r16
 2441 0cde 1F93      		push r17
 2442 0ce0 DF93      		push r29
 2443 0ce2 CF93      		push r28
 2444 0ce4 CDB7      		in r28,__SP_L__
 2445 0ce6 DEB7      		in r29,__SP_H__
 2446 0ce8 6097      		sbiw r28,16
 2447 0cea CDBF      		out __SP_L__,r28
 2448 0cec DEBF      		out __SP_H__,r29
 2449               	/* prologue: function */
 2450               	/* frame size = 16 */
 2451 0cee 8A01      		movw r16,r20
 2452               	.LM320:
 2453 0cf0 8823      		tst r24
 2454 0cf2 01F0      		breq .+2
 2455 0cf4 00C0      		rjmp .L246
 2456               	.LVL160:
 2457               	.LM321:
 2458 0cf6 6430      		cpi r22,lo8(4)
 2459 0cf8 01F4      		brne .L247
 2460               	.LM322:
 2461 0cfa FA01      		movw r30,r20
 2462 0cfc 8081      		ld r24,Z
 2463               	.LVL161:
 2464 0cfe 8130      		cpi r24,lo8(1)
 2465 0d00 01F0      		breq .L249
 2466               	.LVL162:
 2467 0d02 8130      		cpi r24,lo8(1)
 2468 0d04 00F4      		brsh .+2
 2469 0d06 00C0      		rjmp .L248
 2470 0d08 8230      		cpi r24,lo8(2)
 2471 0d0a 01F0      		breq .+2
 2472 0d0c 00C0      		rjmp .L246
 2473 0d0e 00C0      		rjmp .L298
 2474               	.L249:
 2475               	.LBB524:
 2476               	.LBB525:
 2477               	.LM323:
 2478 0d10 E0E6      		ldi r30,lo8(1632)
 2479 0d12 F6E0      		ldi r31,hi8(1632)
 2480 0d14 80EB      		ldi r24,lo8(-80)
 2481 0d16 8183      		std Z+1,r24
 2482               	.LM324:
 2483 0d18 88E3      		ldi r24,lo8(56)
 2484 0d1a 868B      		std Z+22,r24
 2485               	.LM325:
 2486 0d1c 1482      		std Z+4,__zero_reg__
 2487 0d1e 8CE2      		ldi r24,lo8(300)
 2488 0d20 91E0      		ldi r25,hi8(300)
 2489               	.LVL163:
 2490               	.LBB526:
 2491               	.LBB527:
 2492               	.LBB528:
 2493               	.LBB529:
 2494               	.LM326:
 2495 0d22 20E7      		ldi r18,lo8(368)
 2496 0d24 31E0      		ldi r19,hi8(368)
 2497               	.L251:
 2498 0d26 F901      		movw r30,r18
 2499               	.LVL164:
 2500               	/* #APP */
 2501               	 ;  105 "/usr/local/CrossPack-AVR-20100115/lib/gcc/avr/4.3.3/../../../../avr/include/util/delay_bas
 2502 0d28 3197      		1: sbiw r30,1
 2503 0d2a 01F4      		brne 1b
 2504               	 ;  0 "" 2
 2505               	/* #NOAPP */
 2506               	.LBE529:
 2507               	.LBE528:
 2508               	.LM327:
 2509 0d2c 0197      		sbiw r24,1
 2510               	.LM328:
 2511 0d2e 01F4      		brne .L251
 2512 0d30 00C0      		rjmp .L248
 2513               	.LVL165:
 2514               	.L298:
 2515               	.LBE527:
 2516               	.LBE526:
 2517               	.LBE525:
 2518               	.LBE524:
 2519               	.LM329:
 2520 0d32 81E0      		ldi r24,lo8(1)
 2521 0d34 FA01      		movw r30,r20
 2522 0d36 8183      		std Z+1,r24
 2523 0d38 00C0      		rjmp .L248
 2524               	.LVL166:
 2525               	.L247:
 2526               	.LM330:
 2527 0d3a 8091 0000 		lds r24,Stat
 2528               	.LVL167:
 2529 0d3e 80FF      		sbrs r24,0
 2530 0d40 00C0      		rjmp .L253
 2531 0d42 93E0      		ldi r25,lo8(3)
 2532               	.LVL168:
 2533 0d44 00C0      		rjmp .L252
 2534               	.LVL169:
 2535               	.L253:
 2536               	.LM331:
 2537 0d46 6A30      		cpi r22,lo8(10)
 2538 0d48 01F4      		brne .+2
 2539 0d4a 00C0      		rjmp .L259
 2540 0d4c 6B30      		cpi r22,lo8(11)
 2541 0d4e 00F4      		brsh .L264
 2542 0d50 6130      		cpi r22,lo8(1)
 2543 0d52 01F0      		breq .L256
 2544 0d54 6130      		cpi r22,lo8(1)
 2545 0d56 00F0      		brlo .L255
 2546 0d58 6230      		cpi r22,lo8(2)
 2547 0d5a 01F4      		brne .+2
 2548 0d5c 00C0      		rjmp .L257
 2549 0d5e 6330      		cpi r22,lo8(3)
 2550 0d60 01F4      		brne .L254
 2551 0d62 00C0      		rjmp .L299
 2552               	.L264:
 2553 0d64 6C30      		cpi r22,lo8(12)
 2554 0d66 01F4      		brne .+2
 2555 0d68 00C0      		rjmp .L261
 2556 0d6a 6C30      		cpi r22,lo8(12)
 2557 0d6c 00F4      		brsh .+2
 2558 0d6e 00C0      		rjmp .L260
 2559 0d70 6D30      		cpi r22,lo8(13)
 2560 0d72 01F4      		brne .+2
 2561 0d74 00C0      		rjmp .L262
 2562 0d76 6E30      		cpi r22,lo8(14)
 2563 0d78 01F4      		brne .+2
 2564 0d7a 00C0      		rjmp .L263
 2565               	.L254:
 2566 0d7c 94E0      		ldi r25,lo8(4)
 2567               	.LVL170:
 2568 0d7e 00C0      		rjmp .L265
 2569               	.LVL171:
 2570               	.L255:
 2571               	.LM332:
 2572 0d80 0E94 0000 		call select
 2573               	.LVL172:
 2574 0d84 8823      		tst r24
 2575 0d86 01F4      		brne .+2
 2576 0d88 00C0      		rjmp .L266
 2577               	.LBB530:
 2578               	.LBB531:
 2579               	.LM333:
 2580 0d8a 80E1      		ldi r24,lo8(16)
 2581 0d8c E0E6      		ldi r30,lo8(1632)
 2582 0d8e F6E0      		ldi r31,hi8(1632)
 2583 0d90 8583      		std Z+5,r24
 2584               	.LBB532:
 2585               	.LBB533:
 2586               	.LM334:
 2587 0d92 8FEF      		ldi r24,lo8(-1)
 2588 0d94 E0EC      		ldi r30,lo8(2496)
 2589 0d96 F9E0      		ldi r31,hi8(2496)
 2590 0d98 8383      		std Z+3,r24
 2591               	.L267:
 2592               	.LM335:
 2593 0d9a 8091 C209 		lds r24,2498
 2594 0d9e 87FF      		sbrs r24,7
 2595 0da0 00C0      		rjmp .L267
 2596               	.LM336:
 2597 0da2 8091 C309 		lds r24,2499
 2598 0da6 00C0      		rjmp .L291
 2599               	.LVL173:
 2600               	.L256:
 2601               	.LBE533:
 2602               	.LBE532:
 2603               	.LBE531:
 2604               	.LBE530:
 2605               	.LM337:
 2606 0da8 89E4      		ldi r24,lo8(73)
 2607 0daa 40E0      		ldi r20,lo8(0)
 2608 0dac 50E0      		ldi r21,hi8(0)
 2609 0dae 60E0      		ldi r22,hlo8(0)
 2610 0db0 70E0      		ldi r23,hhi8(0)
 2611 0db2 0E94 0000 		call send_cmd
 2612               	.LVL174:
 2613 0db6 8823      		tst r24
 2614 0db8 01F0      		breq .+2
 2615 0dba 00C0      		rjmp .L266
 2616 0dbc CE01      		movw r24,r28
 2617 0dbe 0196      		adiw r24,1
 2618 0dc0 60E1      		ldi r22,lo8(16)
 2619 0dc2 70E0      		ldi r23,hi8(16)
 2620 0dc4 0E94 0000 		call rcvr_datablock
 2621 0dc8 8823      		tst r24
 2622 0dca 01F4      		brne .+2
 2623 0dcc 00C0      		rjmp .L266
 2624               	.LM338:
 2625 0dce 8981      		ldd r24,Y+1
 2626 0dd0 8295      		swap r24
 2627 0dd2 8695      		lsr r24
 2628 0dd4 8695      		lsr r24
 2629 0dd6 8370      		andi r24,lo8(3)
 2630 0dd8 7A85      		ldd r23,Y+10
 2631 0dda 4985      		ldd r20,Y+9
 2632 0ddc 8130      		cpi r24,lo8(1)
 2633 0dde 01F4      		brne .L268
 2634               	.LM339:
 2635 0de0 872F      		mov r24,r23
 2636 0de2 90E0      		ldi r25,lo8(0)
 2637 0de4 0196      		adiw r24,1
 2638 0de6 342F      		mov r19,r20
 2639 0de8 20E0      		ldi r18,lo8(0)
 2640 0dea 820F      		add r24,r18
 2641 0dec 931F      		adc r25,r19
 2642 0dee A0E0      		ldi r26,lo8(0)
 2643 0df0 B0E0      		ldi r27,hi8(0)
 2644 0df2 2AE0      		ldi r18,10
 2645 0df4 880F      	1:	lsl r24
 2646 0df6 991F      		rol r25
 2647 0df8 AA1F      		rol r26
 2648 0dfa BB1F      		rol r27
 2649 0dfc 2A95      		dec r18
 2650 0dfe 01F4      		brne 1b
 2651 0e00 00C0      		rjmp .L293
 2652               	.L268:
 2653               	.LM340:
 2654 0e02 4295      		swap r20
 2655 0e04 4695      		lsr r20
 2656 0e06 4695      		lsr r20
 2657 0e08 4370      		andi r20,lo8(3)
 2658 0e0a 2885      		ldd r18,Y+8
 2659 0e0c 30E0      		ldi r19,lo8(0)
 2660 0e0e 220F      		lsl r18
 2661 0e10 331F      		rol r19
 2662 0e12 220F      		lsl r18
 2663 0e14 331F      		rol r19
 2664 0e16 240F      		add r18,r20
 2665 0e18 311D      		adc r19,__zero_reg__
 2666 0e1a 2F5F      		subi r18,lo8(-(1))
 2667 0e1c 3F4F      		sbci r19,hi8(-(1))
 2668 0e1e 8F81      		ldd r24,Y+7
 2669 0e20 90E0      		ldi r25,lo8(0)
 2670 0e22 8370      		andi r24,lo8(3)
 2671 0e24 9070      		andi r25,hi8(3)
 2672 0e26 982F      		mov r25,r24
 2673 0e28 8827      		clr r24
 2674 0e2a 990F      		lsl r25
 2675 0e2c 990F      		lsl r25
 2676 0e2e 280F      		add r18,r24
 2677 0e30 391F      		adc r19,r25
 2678 0e32 40E0      		ldi r20,lo8(0)
 2679 0e34 50E0      		ldi r21,hi8(0)
 2680 0e36 8E81      		ldd r24,Y+6
 2681 0e38 8F70      		andi r24,lo8(15)
 2682 0e3a 6B85      		ldd r22,Y+11
 2683 0e3c 661F      		rol r22
 2684 0e3e 6627      		clr r22
 2685 0e40 661F      		rol r22
 2686 0e42 860F      		add r24,r22
 2687 0e44 8E5F      		subi r24,lo8(-(2))
 2688 0e46 7370      		andi r23,lo8(3)
 2689 0e48 770F      		lsl r23
 2690 0e4a 870F      		add r24,r23
 2691 0e4c 90E0      		ldi r25,lo8(0)
 2692 0e4e 0997      		sbiw r24,9
 2693 0e50 00C0      		rjmp 2f
 2694 0e52 220F      	1:	lsl r18
 2695 0e54 331F      		rol r19
 2696 0e56 441F      		rol r20
 2697 0e58 551F      		rol r21
 2698 0e5a 8A95      	2:	dec r24
 2699 0e5c 02F4      		brpl 1b
 2700 0e5e F801      		movw r30,r16
 2701 0e60 2083      		st Z,r18
 2702 0e62 3183      		std Z+1,r19
 2703 0e64 4283      		std Z+2,r20
 2704 0e66 5383      		std Z+3,r21
 2705 0e68 00C0      		rjmp .L291
 2706               	.LVL175:
 2707               	.L257:
 2708               	.LM341:
 2709 0e6a 80E0      		ldi r24,lo8(512)
 2710 0e6c 92E0      		ldi r25,hi8(512)
 2711 0e6e FA01      		movw r30,r20
 2712 0e70 8083      		st Z,r24
 2713 0e72 9183      		std Z+1,r25
 2714 0e74 00C0      		rjmp .L291
 2715               	.L299:
 2716               	.LM342:
 2717 0e76 8091 0000 		lds r24,CardType
 2718 0e7a F82E      		mov r15,r24
 2719 0e7c 82FF      		sbrs r24,2
 2720 0e7e 00C0      		rjmp .L269
 2721               	.LM343:
 2722 0e80 8DEC      		ldi r24,lo8(-51)
 2723 0e82 40E0      		ldi r20,lo8(0)
 2724 0e84 50E0      		ldi r21,hi8(0)
 2725 0e86 60E0      		ldi r22,hlo8(0)
 2726 0e88 70E0      		ldi r23,hhi8(0)
 2727 0e8a 0E94 0000 		call send_cmd
 2728               	.LVL176:
 2729 0e8e 8823      		tst r24
 2730 0e90 01F0      		breq .+2
 2731 0e92 00C0      		rjmp .L266
 2732               	.LBB534:
 2733               	.LBB535:
 2734               	.LM344:
 2735 0e94 8FEF      		ldi r24,lo8(-1)
 2736 0e96 E0EC      		ldi r30,lo8(2496)
 2737 0e98 F9E0      		ldi r31,hi8(2496)
 2738 0e9a 8383      		std Z+3,r24
 2739               	.L270:
 2740               	.LM345:
 2741 0e9c 8091 C209 		lds r24,2498
 2742 0ea0 87FF      		sbrs r24,7
 2743 0ea2 00C0      		rjmp .L270
 2744               	.LM346:
 2745 0ea4 8091 C309 		lds r24,2499
 2746               	.LBE535:
 2747               	.LBE534:
 2748               	.LM347:
 2749 0ea8 CE01      		movw r24,r28
 2750 0eaa 0196      		adiw r24,1
 2751 0eac 60E1      		ldi r22,lo8(16)
 2752 0eae 70E0      		ldi r23,hi8(16)
 2753 0eb0 0E94 0000 		call rcvr_datablock
 2754 0eb4 8823      		tst r24
 2755 0eb6 01F4      		brne .+2
 2756 0eb8 00C0      		rjmp .L266
 2757 0eba 90E3      		ldi r25,lo8(48)
 2758               	.LVL177:
 2759               	.LBB536:
 2760               	.LBB537:
 2761               	.LM348:
 2762 0ebc E0EC      		ldi r30,lo8(2496)
 2763 0ebe F9E0      		ldi r31,hi8(2496)
 2764 0ec0 2FEF      		ldi r18,lo8(-1)
 2765               	.L272:
 2766 0ec2 2383      		std Z+3,r18
 2767               	.L271:
 2768               	.LM349:
 2769 0ec4 8091 C209 		lds r24,2498
 2770 0ec8 87FF      		sbrs r24,7
 2771 0eca 00C0      		rjmp .L271
 2772               	.LM350:
 2773 0ecc 8091 C309 		lds r24,2499
 2774               	.LBE537:
 2775               	.LBE536:
 2776               	.LM351:
 2777 0ed0 9150      		subi r25,lo8(-(-1))
 2778 0ed2 01F4      		brne .L272
 2779               	.LM352:
 2780 0ed4 2B85      		ldd r18,Y+11
 2781 0ed6 2295      		swap r18
 2782 0ed8 2F70      		andi r18,lo8(15)
 2783 0eda 80E1      		ldi r24,lo8(16)
 2784 0edc 90E0      		ldi r25,hi8(16)
 2785 0ede A0E0      		ldi r26,hlo8(16)
 2786 0ee0 B0E0      		ldi r27,hhi8(16)
 2787 0ee2 00C0      		rjmp 2f
 2788 0ee4 880F      	1:	lsl r24
 2789 0ee6 991F      		rol r25
 2790 0ee8 AA1F      		rol r26
 2791 0eea BB1F      		rol r27
 2792 0eec 2A95      	2:	dec r18
 2793 0eee 02F4      		brpl 1b
 2794 0ef0 00C0      		rjmp .L293
 2795               	.LVL178:
 2796               	.L269:
 2797               	.LM353:
 2798 0ef2 89E4      		ldi r24,lo8(73)
 2799 0ef4 40E0      		ldi r20,lo8(0)
 2800 0ef6 50E0      		ldi r21,hi8(0)
 2801 0ef8 60E0      		ldi r22,hlo8(0)
 2802 0efa 70E0      		ldi r23,hhi8(0)
 2803 0efc 0E94 0000 		call send_cmd
 2804               	.LVL179:
 2805 0f00 8823      		tst r24
 2806 0f02 01F0      		breq .+2
 2807 0f04 00C0      		rjmp .L266
 2808 0f06 CE01      		movw r24,r28
 2809 0f08 0196      		adiw r24,1
 2810 0f0a 60E1      		ldi r22,lo8(16)
 2811 0f0c 70E0      		ldi r23,hi8(16)
 2812 0f0e 0E94 0000 		call rcvr_datablock
 2813 0f12 8823      		tst r24
 2814 0f14 01F4      		brne .+2
 2815 0f16 00C0      		rjmp .L266
 2816 0f18 4B85      		ldd r20,Y+11
 2817 0f1a 8C85      		ldd r24,Y+12
 2818               	.LM354:
 2819 0f1c F1FE      		sbrs r15,1
 2820 0f1e 00C0      		rjmp .L273
 2821               	.LM355:
 2822 0f20 881F      		rol r24
 2823 0f22 8827      		clr r24
 2824 0f24 881F      		rol r24
 2825 0f26 90E0      		ldi r25,lo8(0)
 2826 0f28 0196      		adiw r24,1
 2827 0f2a 242F      		mov r18,r20
 2828 0f2c 30E0      		ldi r19,lo8(0)
 2829 0f2e 2F73      		andi r18,lo8(63)
 2830 0f30 3070      		andi r19,hi8(63)
 2831 0f32 220F      		lsl r18
 2832 0f34 331F      		rol r19
 2833 0f36 820F      		add r24,r18
 2834 0f38 931F      		adc r25,r19
 2835 0f3a 2E85      		ldd r18,Y+14
 2836 0f3c 2295      		swap r18
 2837 0f3e 2695      		lsr r18
 2838 0f40 2695      		lsr r18
 2839 0f42 2370      		andi r18,lo8(3)
 2840 0f44 30E0      		ldi r19,lo8(0)
 2841 0f46 2150      		subi r18,lo8(-(-1))
 2842 0f48 3040      		sbci r19,hi8(-(-1))
 2843 0f4a 00C0      		rjmp 2f
 2844 0f4c 880F      	1:	lsl r24
 2845 0f4e 991F      		rol r25
 2846 0f50 2A95      	2:	dec r18
 2847 0f52 02F4      		brpl 1b
 2848 0f54 00C0      		rjmp .L295
 2849               	.L273:
 2850               	.LM356:
 2851 0f56 282F      		mov r18,r24
 2852 0f58 30E0      		ldi r19,lo8(0)
 2853 0f5a 2370      		andi r18,lo8(3)
 2854 0f5c 3070      		andi r19,hi8(3)
 2855 0f5e F3E0      		ldi r31,3
 2856 0f60 220F      	1:	lsl r18
 2857 0f62 331F      		rol r19
 2858 0f64 FA95      		dec r31
 2859 0f66 01F4      		brne 1b
 2860 0f68 8295      		swap r24
 2861 0f6a 8695      		lsr r24
 2862 0f6c 8770      		andi r24,lo8(7)
 2863 0f6e 280F      		add r18,r24
 2864 0f70 311D      		adc r19,__zero_reg__
 2865 0f72 2F5F      		subi r18,lo8(-(1))
 2866 0f74 3F4F      		sbci r19,hi8(-(1))
 2867 0f76 842F      		mov r24,r20
 2868 0f78 90E0      		ldi r25,lo8(0)
 2869 0f7a 8C77      		andi r24,lo8(124)
 2870 0f7c 9070      		andi r25,hi8(124)
 2871 0f7e 9595      		asr r25
 2872 0f80 8795      		ror r24
 2873 0f82 9595      		asr r25
 2874 0f84 8795      		ror r24
 2875 0f86 0196      		adiw r24,1
 2876 0f88 AC01      		movw r20,r24
 2877 0f8a 249F      		mul r18,r20
 2878 0f8c C001      		movw r24,r0
 2879 0f8e 259F      		mul r18,r21
 2880 0f90 900D      		add r25,r0
 2881 0f92 349F      		mul r19,r20
 2882 0f94 900D      		add r25,r0
 2883 0f96 1124      		clr r1
 2884               	.L295:
 2885 0f98 A0E0      		ldi r26,lo8(0)
 2886 0f9a B0E0      		ldi r27,hi8(0)
 2887               	.LVL180:
 2888               	.L293:
 2889 0f9c F801      		movw r30,r16
 2890 0f9e 8083      		st Z,r24
 2891 0fa0 9183      		std Z+1,r25
 2892 0fa2 A283      		std Z+2,r26
 2893 0fa4 B383      		std Z+3,r27
 2894               	.LVL181:
 2895               	.L291:
 2896 0fa6 90E0      		ldi r25,lo8(0)
 2897               	.LVL182:
 2898 0fa8 00C0      		rjmp .L265
 2899               	.LVL183:
 2900               	.L259:
 2901               	.LM357:
 2902 0faa 8091 0000 		lds r24,CardType
 2903 0fae FA01      		movw r30,r20
 2904 0fb0 8083      		st Z,r24
 2905 0fb2 00C0      		rjmp .L291
 2906               	.L260:
 2907               	.LM358:
 2908 0fb4 89E4      		ldi r24,lo8(73)
 2909 0fb6 00C0      		rjmp .L297
 2910               	.L261:
 2911               	.LM359:
 2912 0fb8 8AE4      		ldi r24,lo8(74)
 2913               	.L297:
 2914 0fba 40E0      		ldi r20,lo8(0)
 2915 0fbc 50E0      		ldi r21,hi8(0)
 2916 0fbe 60E0      		ldi r22,hlo8(0)
 2917 0fc0 70E0      		ldi r23,hhi8(0)
 2918 0fc2 0E94 0000 		call send_cmd
 2919               	.LVL184:
 2920 0fc6 8823      		tst r24
 2921 0fc8 01F4      		brne .L266
 2922 0fca C801      		movw r24,r16
 2923 0fcc 60E1      		ldi r22,lo8(16)
 2924 0fce 70E0      		ldi r23,hi8(16)
 2925 0fd0 00C0      		rjmp .L292
 2926               	.LVL185:
 2927               	.L262:
 2928               	.LM360:
 2929 0fd2 8AE7      		ldi r24,lo8(122)
 2930 0fd4 40E0      		ldi r20,lo8(0)
 2931 0fd6 50E0      		ldi r21,hi8(0)
 2932 0fd8 60E0      		ldi r22,hlo8(0)
 2933 0fda 70E0      		ldi r23,hhi8(0)
 2934 0fdc 0E94 0000 		call send_cmd
 2935               	.LVL186:
 2936 0fe0 8823      		tst r24
 2937 0fe2 01F4      		brne .L266
 2938 0fe4 F801      		movw r30,r16
 2939               	.LVL187:
 2940               	.LBB538:
 2941               	.LBB539:
 2942               	.LM361:
 2943 0fe6 A0EC      		ldi r26,lo8(2496)
 2944 0fe8 B9E0      		ldi r27,hi8(2496)
 2945 0fea 9FEF      		ldi r25,lo8(-1)
 2946               	.LBE539:
 2947               	.LBE538:
 2948               	.LM362:
 2949 0fec 9801      		movw r18,r16
 2950 0fee 2D5F      		subi r18,lo8(-(3))
 2951 0ff0 3F4F      		sbci r19,hi8(-(3))
 2952               	.L278:
 2953               	.LBB541:
 2954               	.LBB540:
 2955               	.LM363:
 2956 0ff2 1396      		adiw r26,3
 2957 0ff4 9C93      		st X,r25
 2958 0ff6 1397      		sbiw r26,3
 2959               	.LVL188:
 2960               	.L276:
 2961               	.LM364:
 2962 0ff8 8091 C209 		lds r24,2498
 2963 0ffc 87FF      		sbrs r24,7
 2964 0ffe 00C0      		rjmp .L276
 2965               	.LM365:
 2966 1000 8091 C309 		lds r24,2499
 2967               	.LBE540:
 2968               	.LBE541:
 2969               	.LM366:
 2970 1004 8083      		st Z,r24
 2971 1006 E217      		cp r30,r18
 2972 1008 F307      		cpc r31,r19
 2973 100a 01F0      		breq .L291
 2974               	.LVL189:
 2975               	.L277:
 2976 100c 3196      		adiw r30,1
 2977 100e 00C0      		rjmp .L278
 2978               	.LVL190:
 2979               	.L263:
 2980               	.LM367:
 2981 1010 8DEC      		ldi r24,lo8(-51)
 2982 1012 40E0      		ldi r20,lo8(0)
 2983 1014 50E0      		ldi r21,hi8(0)
 2984 1016 60E0      		ldi r22,hlo8(0)
 2985 1018 70E0      		ldi r23,hhi8(0)
 2986 101a 0E94 0000 		call send_cmd
 2987               	.LVL191:
 2988 101e 8823      		tst r24
 2989 1020 01F4      		brne .L266
 2990               	.LBB542:
 2991               	.LBB543:
 2992               	.LM368:
 2993 1022 8FEF      		ldi r24,lo8(-1)
 2994 1024 E0EC      		ldi r30,lo8(2496)
 2995 1026 F9E0      		ldi r31,hi8(2496)
 2996 1028 8383      		std Z+3,r24
 2997               	.L279:
 2998               	.LM369:
 2999 102a 8091 C209 		lds r24,2498
 3000 102e 87FF      		sbrs r24,7
 3001 1030 00C0      		rjmp .L279
 3002               	.LM370:
 3003 1032 8091 C309 		lds r24,2499
 3004               	.LBE543:
 3005               	.LBE542:
 3006               	.LM371:
 3007 1036 C801      		movw r24,r16
 3008 1038 60E4      		ldi r22,lo8(64)
 3009 103a 70E0      		ldi r23,hi8(64)
 3010               	.L292:
 3011 103c 0E94 0000 		call rcvr_datablock
 3012 1040 90E0      		ldi r25,lo8(0)
 3013               	.LVL192:
 3014 1042 8823      		tst r24
 3015 1044 01F4      		brne .L265
 3016               	.L266:
 3017 1046 91E0      		ldi r25,lo8(1)
 3018               	.LVL193:
 3019               	.L265:
 3020               	.LBB544:
 3021               	.LBB545:
 3022               	.LM372:
 3023 1048 80E1      		ldi r24,lo8(16)
 3024 104a E0E6      		ldi r30,lo8(1632)
 3025 104c F6E0      		ldi r31,hi8(1632)
 3026               	.LVL194:
 3027 104e 8583      		std Z+5,r24
 3028               	.LBB546:
 3029               	.LBB547:
 3030               	.LM373:
 3031 1050 8FEF      		ldi r24,lo8(-1)
 3032 1052 E0EC      		ldi r30,lo8(2496)
 3033 1054 F9E0      		ldi r31,hi8(2496)
 3034 1056 8383      		std Z+3,r24
 3035               	.L281:
 3036               	.LM374:
 3037 1058 8091 C209 		lds r24,2498
 3038 105c 87FF      		sbrs r24,7
 3039 105e 00C0      		rjmp .L281
 3040               	.LM375:
 3041 1060 8091 C309 		lds r24,2499
 3042 1064 00C0      		rjmp .L252
 3043               	.LVL195:
 3044               	.L246:
 3045 1066 94E0      		ldi r25,lo8(4)
 3046               	.LVL196:
 3047 1068 00C0      		rjmp .L252
 3048               	.LVL197:
 3049               	.L248:
 3050 106a 90E0      		ldi r25,lo8(0)
 3051               	.LVL198:
 3052               	.L252:
 3053               	.LBE547:
 3054               	.LBE546:
 3055               	.LBE545:
 3056               	.LBE544:
 3057               	.LM376:
 3058 106c 892F      		mov r24,r25
 3059               	.LVL199:
 3060               	/* epilogue start */
 3061 106e 6096      		adiw r28,16
 3062 1070 CDBF      		out __SP_L__,r28
 3063 1072 DEBF      		out __SP_H__,r29
 3064 1074 CF91      		pop r28
 3065 1076 DF91      		pop r29
 3066 1078 1F91      		pop r17
 3067 107a 0F91      		pop r16
 3068               	.LVL200:
 3069 107c FF90      		pop r15
 3070 107e 0895      		ret
 3071               	.LFE39:
 3073               	.global	disk_timerproc
 3075               	disk_timerproc:
 3076               	.LFB40:
 3077               	.LM377:
 3078               	/* prologue: function */
 3079               	/* frame size = 0 */
 3080               	.LM378:
 3081 1080 8091 0000 		lds r24,Timer1
 3082               	.LVL201:
 3083               	.LM379:
 3084 1084 8823      		tst r24
 3085 1086 01F0      		breq .L301
 3086 1088 8150      		subi r24,lo8(-(-1))
 3087 108a 8093 0000 		sts Timer1,r24
 3088               	.L301:
 3089               	.LM380:
 3090 108e 8091 0000 		lds r24,Timer2
 3091               	.LVL202:
 3092               	.LM381:
 3093 1092 8823      		tst r24
 3094 1094 01F0      		breq .L302
 3095 1096 8150      		subi r24,lo8(-(-1))
 3096 1098 8093 0000 		sts Timer2,r24
 3097               	.L302:
 3098               	.LM382:
 3099 109c 8091 0000 		lds r24,Stat
 3100               	.LVL203:
 3101               	.LM383:
 3102 10a0 897F      		andi r24,lo8(-7)
 3103               	.LM384:
 3104 10a2 8093 0000 		sts Stat,r24
 3105               	/* epilogue start */
 3106               	.LM385:
 3107 10a6 0895      		ret
 3108               	.LFE40:
 3110               	.global	get_fattime
 3112               	get_fattime:
 3113               	.LFB41:
 3114               	.LM386:
 3115 10a8 EF92      		push r14
 3116 10aa FF92      		push r15
 3117 10ac 0F93      		push r16
 3118 10ae 1F93      		push r17
 3119 10b0 DF93      		push r29
 3120 10b2 CF93      		push r28
 3121 10b4 CDB7      		in r28,__SP_L__
 3122 10b6 DEB7      		in r29,__SP_H__
 3123 10b8 2897      		sbiw r28,8
 3124 10ba CDBF      		out __SP_L__,r28
 3125 10bc DEBF      		out __SP_H__,r29
 3126               	/* prologue: function */
 3127               	/* frame size = 8 */
 3128               	.LM387:
 3129 10be 6091 0000 		lds r22,UNIX_Time
 3130 10c2 7091 0000 		lds r23,(UNIX_Time)+1
 3131 10c6 8091 0000 		lds r24,(UNIX_Time)+2
 3132 10ca 9091 0000 		lds r25,(UNIX_Time)+3
 3133 10ce 6054      		subi r22,lo8(-(-14400))
 3134 10d0 7843      		sbci r23,hi8(-(-14400))
 3135 10d2 8040      		sbci r24,hlo8(-(-14400))
 3136 10d4 9040      		sbci r25,hhi8(-(-14400))
 3137 10d6 AE01      		movw r20,r28
 3138 10d8 4F5F      		subi r20,lo8(-(1))
 3139 10da 5F4F      		sbci r21,hi8(-(1))
 3140 10dc 0E94 0000 		call Time_UTCSecsToTime
 3141               	.LM388:
 3142 10e0 8885      		ldd r24,Y+8
 3143 10e2 90E0      		ldi r25,lo8(0)
 3144 10e4 0A97      		sbiw r24,10
 3145 10e6 7C01      		movw r14,r24
 3146 10e8 0027      		clr r16
 3147 10ea F7FC      		sbrc r15,7
 3148 10ec 0095      		com r16
 3149 10ee 102F      		mov r17,r16
 3150 10f0 A9E1      		ldi r26,25
 3151 10f2 EE0C      	1:	lsl r14
 3152 10f4 FF1C      		rol r15
 3153 10f6 001F      		rol r16
 3154 10f8 111F      		rol r17
 3155 10fa AA95      		dec r26
 3156 10fc 01F4      		brne 1b
 3157               	.LM389:
 3158 10fe 2E81      		ldd r18,Y+6
 3159 1100 30E0      		ldi r19,lo8(0)
 3160 1102 40E0      		ldi r20,lo8(0)
 3161 1104 50E0      		ldi r21,hi8(0)
 3162 1106 A901      		movw r20,r18
 3163 1108 3327      		clr r19
 3164 110a 2227      		clr r18
 3165 110c 8F81      		ldd r24,Y+7
 3166 110e 90E0      		ldi r25,lo8(0)
 3167 1110 A0E0      		ldi r26,lo8(0)
 3168 1112 B0E0      		ldi r27,hi8(0)
 3169 1114 E5E1      		ldi r30,21
 3170 1116 880F      	1:	lsl r24
 3171 1118 991F      		rol r25
 3172 111a AA1F      		rol r26
 3173 111c BB1F      		rol r27
 3174 111e EA95      		dec r30
 3175 1120 01F4      		brne 1b
 3176 1122 282B      		or r18,r24
 3177 1124 392B      		or r19,r25
 3178 1126 4A2B      		or r20,r26
 3179 1128 5B2B      		or r21,r27
 3180               	.LM390:
 3181 112a 8C81      		ldd r24,Y+4
 3182 112c 90E0      		ldi r25,lo8(0)
 3183 112e A0E0      		ldi r26,lo8(0)
 3184 1130 B0E0      		ldi r27,hi8(0)
 3185 1132 7BE0      		ldi r23,11
 3186 1134 880F      	1:	lsl r24
 3187 1136 991F      		rol r25
 3188 1138 AA1F      		rol r26
 3189 113a BB1F      		rol r27
 3190 113c 7A95      		dec r23
 3191 113e 01F4      		brne 1b
 3192 1140 282B      		or r18,r24
 3193 1142 392B      		or r19,r25
 3194 1144 4A2B      		or r20,r26
 3195 1146 5B2B      		or r21,r27
 3196               	.LM391:
 3197 1148 8B81      		ldd r24,Y+3
 3198 114a 90E0      		ldi r25,lo8(0)
 3199 114c A0E0      		ldi r26,lo8(0)
 3200 114e B0E0      		ldi r27,hi8(0)
 3201 1150 65E0      		ldi r22,5
 3202 1152 880F      	1:	lsl r24
 3203 1154 991F      		rol r25
 3204 1156 AA1F      		rol r26
 3205 1158 BB1F      		rol r27
 3206 115a 6A95      		dec r22
 3207 115c 01F4      		brne 1b
 3208 115e 282B      		or r18,r24
 3209 1160 392B      		or r19,r25
 3210 1162 4A2B      		or r20,r26
 3211 1164 5B2B      		or r21,r27
 3212               	.LM392:
 3213 1166 8A81      		ldd r24,Y+2
 3214 1168 8695      		lsr r24
 3215 116a 90E0      		ldi r25,lo8(0)
 3216 116c A0E0      		ldi r26,lo8(0)
 3217 116e B0E0      		ldi r27,hi8(0)
 3218 1170 282B      		or r18,r24
 3219 1172 392B      		or r19,r25
 3220 1174 4A2B      		or r20,r26
 3221 1176 5B2B      		or r21,r27
 3222 1178 2E29      		or r18,r14
 3223 117a 3F29      		or r19,r15
 3224 117c 402B      		or r20,r16
 3225 117e 512B      		or r21,r17
 3226               	.LM393:
 3227 1180 B901      		movw r22,r18
 3228 1182 CA01      		movw r24,r20
 3229               	/* epilogue start */
 3230 1184 2896      		adiw r28,8
 3231 1186 CDBF      		out __SP_L__,r28
 3232 1188 DEBF      		out __SP_H__,r29
 3233 118a CF91      		pop r28
 3234 118c DF91      		pop r29
 3235 118e 1F91      		pop r17
 3236 1190 0F91      		pop r16
 3237 1192 FF90      		pop r15
 3238 1194 EF90      		pop r14
 3239 1196 0895      		ret
 3240               	.LFE41:
 3243               	move_window:
 3244               	.LFB46:
 3245               	.LM394:
 3246               	.LVL204:
 3247 1198 6F92      		push r6
 3248 119a 7F92      		push r7
 3249 119c 8F92      		push r8
 3250 119e 9F92      		push r9
 3251 11a0 AF92      		push r10
 3252 11a2 BF92      		push r11
 3253 11a4 CF92      		push r12
 3254 11a6 DF92      		push r13
 3255 11a8 EF92      		push r14
 3256 11aa FF92      		push r15
 3257 11ac 0F93      		push r16
 3258 11ae 1F93      		push r17
 3259 11b0 CF93      		push r28
 3260 11b2 DF93      		push r29
 3261               	/* prologue: function */
 3262               	/* frame size = 0 */
 3263 11b4 EC01      		movw r28,r24
 3264 11b6 4A01      		movw r8,r20
 3265 11b8 5B01      		movw r10,r22
 3266               	.LM395:
 3267 11ba CAA4      		ldd r12,Y+42
 3268 11bc DBA4      		ldd r13,Y+43
 3269 11be ECA4      		ldd r14,Y+44
 3270 11c0 FDA4      		ldd r15,Y+45
 3271               	.LVL205:
 3272               	.LM396:
 3273 11c2 C416      		cp r12,r20
 3274 11c4 D506      		cpc r13,r21
 3275 11c6 E606      		cpc r14,r22
 3276 11c8 F706      		cpc r15,r23
 3277 11ca 01F4      		brne .+2
 3278 11cc 00C0      		rjmp .L307
 3279               	.LVL206:
 3280               	.LM397:
 3281 11ce 8C81      		ldd r24,Y+4
 3282 11d0 8823      		tst r24
 3283 11d2 01F0      		breq .L308
 3284               	.LM398:
 3285 11d4 BEE2      		ldi r27,lo8(46)
 3286 11d6 6B2E      		mov r6,r27
 3287 11d8 712C      		mov r7,__zero_reg__
 3288 11da 6C0E      		add r6,r28
 3289 11dc 7D1E      		adc r7,r29
 3290 11de 8981      		ldd r24,Y+1
 3291 11e0 B301      		movw r22,r6
 3292 11e2 A701      		movw r20,r14
 3293 11e4 9601      		movw r18,r12
 3294 11e6 01E0      		ldi r16,lo8(1)
 3295 11e8 0E94 0000 		call disk_write
 3296               	.LVL207:
 3297 11ec 8823      		tst r24
 3298 11ee 01F4      		brne .L309
 3299               	.LM399:
 3300 11f0 1C82      		std Y+4,__zero_reg__
 3301               	.LM400:
 3302 11f2 8E89      		ldd r24,Y+22
 3303 11f4 9F89      		ldd r25,Y+23
 3304 11f6 A88D      		ldd r26,Y+24
 3305 11f8 B98D      		ldd r27,Y+25
 3306 11fa 2E8D      		ldd r18,Y+30
 3307 11fc 3F8D      		ldd r19,Y+31
 3308 11fe 48A1      		ldd r20,Y+32
 3309 1200 59A1      		ldd r21,Y+33
 3310 1202 820F      		add r24,r18
 3311 1204 931F      		adc r25,r19
 3312 1206 A41F      		adc r26,r20
 3313 1208 B51F      		adc r27,r21
 3314 120a C816      		cp r12,r24
 3315 120c D906      		cpc r13,r25
 3316 120e EA06      		cpc r14,r26
 3317 1210 FB06      		cpc r15,r27
 3318 1212 00F4      		brsh .L308
 3319               	.LBB548:
 3320               	.LM401:
 3321 1214 1B81      		ldd r17,Y+3
 3322               	.LVL208:
 3323 1216 00C0      		rjmp .L310
 3324               	.L311:
 3325               	.LM402:
 3326 1218 8E89      		ldd r24,Y+22
 3327 121a 9F89      		ldd r25,Y+23
 3328 121c A88D      		ldd r26,Y+24
 3329 121e B98D      		ldd r27,Y+25
 3330 1220 C80E      		add r12,r24
 3331 1222 D91E      		adc r13,r25
 3332 1224 EA1E      		adc r14,r26
 3333 1226 FB1E      		adc r15,r27
 3334               	.LM403:
 3335 1228 8981      		ldd r24,Y+1
 3336 122a B301      		movw r22,r6
 3337 122c A701      		movw r20,r14
 3338 122e 9601      		movw r18,r12
 3339 1230 01E0      		ldi r16,lo8(1)
 3340 1232 0E94 0000 		call disk_write
 3341               	.LM404:
 3342 1236 1150      		subi r17,lo8(-(-1))
 3343               	.L310:
 3344 1238 1230      		cpi r17,lo8(2)
 3345 123a 00F4      		brsh .L311
 3346               	.LVL209:
 3347               	.L308:
 3348               	.LBE548:
 3349               	.LM405:
 3350 123c 8114      		cp r8,__zero_reg__
 3351 123e 9104      		cpc r9,__zero_reg__
 3352 1240 A104      		cpc r10,__zero_reg__
 3353 1242 B104      		cpc r11,__zero_reg__
 3354 1244 01F0      		breq .L307
 3355               	.LM406:
 3356 1246 BE01      		movw r22,r28
 3357 1248 625D      		subi r22,lo8(-(46))
 3358 124a 7F4F      		sbci r23,hi8(-(46))
 3359 124c 8981      		ldd r24,Y+1
 3360 124e A501      		movw r20,r10
 3361 1250 9401      		movw r18,r8
 3362 1252 01E0      		ldi r16,lo8(1)
 3363 1254 0E94 0000 		call disk_read
 3364 1258 8823      		tst r24
 3365 125a 01F4      		brne .L309
 3366               	.LM407:
 3367 125c 8AA6      		std Y+42,r8
 3368 125e 9BA6      		std Y+43,r9
 3369 1260 ACA6      		std Y+44,r10
 3370 1262 BDA6      		std Y+45,r11
 3371 1264 00C0      		rjmp .L312
 3372               	.L309:
 3373 1266 81E0      		ldi r24,lo8(1)
 3374 1268 00C0      		rjmp .L312
 3375               	.LVL210:
 3376               	.L307:
 3377 126a 80E0      		ldi r24,lo8(0)
 3378               	.LVL211:
 3379               	.L312:
 3380               	/* epilogue start */
 3381               	.LM408:
 3382 126c DF91      		pop r29
 3383 126e CF91      		pop r28
 3384               	.LVL212:
 3385 1270 1F91      		pop r17
 3386               	.LVL213:
 3387 1272 0F91      		pop r16
 3388 1274 FF90      		pop r15
 3389 1276 EF90      		pop r14
 3390 1278 DF90      		pop r13
 3391 127a CF90      		pop r12
 3392               	.LVL214:
 3393 127c BF90      		pop r11
 3394 127e AF90      		pop r10
 3395 1280 9F90      		pop r9
 3396 1282 8F90      		pop r8
 3397               	.LVL215:
 3398 1284 7F90      		pop r7
 3399 1286 6F90      		pop r6
 3400 1288 0895      		ret
 3401               	.LFE46:
 3404               	sync:
 3405               	.LFB47:
 3406               	.LM409:
 3407               	.LVL216:
 3408 128a 0F93      		push r16
 3409 128c CF93      		push r28
 3410 128e DF93      		push r29
 3411               	/* prologue: function */
 3412               	/* frame size = 0 */
 3413 1290 EC01      		movw r28,r24
 3414               	.LM410:
 3415 1292 40E0      		ldi r20,lo8(0)
 3416 1294 50E0      		ldi r21,hi8(0)
 3417 1296 60E0      		ldi r22,hlo8(0)
 3418 1298 70E0      		ldi r23,hhi8(0)
 3419 129a 0E94 0000 		call move_window
 3420               	.LVL217:
 3421               	.LM411:
 3422 129e 8823      		tst r24
 3423               	.LVL218:
 3424 12a0 01F0      		breq .+2
 3425 12a2 00C0      		rjmp .L315
 3426               	.LM412:
 3427 12a4 8881      		ld r24,Y
 3428               	.LVL219:
 3429 12a6 8330      		cpi r24,lo8(3)
 3430 12a8 01F0      		breq .+2
 3431 12aa 00C0      		rjmp .L316
 3432 12ac 8D81      		ldd r24,Y+5
 3433 12ae 8823      		tst r24
 3434 12b0 01F4      		brne .+2
 3435 12b2 00C0      		rjmp .L316
 3436               	.LM413:
 3437 12b4 1AA6      		std Y+42,__zero_reg__
 3438 12b6 1BA6      		std Y+43,__zero_reg__
 3439 12b8 1CA6      		std Y+44,__zero_reg__
 3440 12ba 1DA6      		std Y+45,__zero_reg__
 3441               	.LBB549:
 3442               	.LBB550:
 3443               	.LM414:
 3444 12bc BE01      		movw r22,r28
 3445               	.LVL220:
 3446 12be 625D      		subi r22,lo8(-(46))
 3447 12c0 7F4F      		sbci r23,hi8(-(46))
 3448 12c2 FB01      		movw r30,r22
 3449 12c4 80E0      		ldi r24,lo8(512)
 3450 12c6 92E0      		ldi r25,hi8(512)
 3451               	.LVL221:
 3452 12c8 00C0      		rjmp .L317
 3453               	.LVL222:
 3454               	.L318:
 3455               	.LM415:
 3456 12ca 1192      		st Z+,__zero_reg__
 3457               	.L317:
 3458 12cc 0197      		sbiw r24,1
 3459 12ce 2FEF      		ldi r18,hi8(-1)
 3460 12d0 8F3F      		cpi r24,lo8(-1)
 3461 12d2 9207      		cpc r25,r18
 3462 12d4 01F4      		brne .L318
 3463               	.LBE550:
 3464               	.LBE549:
 3465               	.LM416:
 3466 12d6 C45D      		subi r28,lo8(-(556))
 3467 12d8 DD4F      		sbci r29,hi8(-(556))
 3468 12da 85E5      		ldi r24,lo8(85)
 3469               	.LVL223:
 3470 12dc 8993      		st Y+,r24
 3471 12de 8AEA      		ldi r24,lo8(-86)
 3472 12e0 8883      		st Y,r24
 3473 12e2 CD52      		subi r28,lo8(-(-557))
 3474 12e4 D240      		sbci r29,hi8(-(-557))
 3475               	.LM417:
 3476 12e6 82E5      		ldi r24,lo8(82)
 3477 12e8 8EA7      		std Y+46,r24
 3478 12ea 8FA7      		std Y+47,r24
 3479 12ec 21E6      		ldi r18,lo8(97)
 3480 12ee 28AB      		std Y+48,r18
 3481 12f0 91E4      		ldi r25,lo8(65)
 3482 12f2 99AB      		std Y+49,r25
 3483               	.LM418:
 3484 12f4 CE5E      		subi r28,lo8(-(530))
 3485 12f6 DD4F      		sbci r29,hi8(-(530))
 3486 12f8 82E7      		ldi r24,lo8(114)
 3487 12fa 8993      		st Y+,r24
 3488 12fc 8993      		st Y+,r24
 3489 12fe 9993      		st Y+,r25
 3490 1300 2883      		st Y,r18
 3491 1302 C551      		subi r28,lo8(-(-533))
 3492 1304 D240      		sbci r29,hi8(-(-533))
 3493               	.LM419:
 3494 1306 8E85      		ldd r24,Y+14
 3495 1308 CA5E      		subi r28,lo8(-(534))
 3496 130a DD4F      		sbci r29,hi8(-(534))
 3497 130c 8883      		st Y,r24
 3498 130e C651      		subi r28,lo8(-(-534))
 3499 1310 D240      		sbci r29,hi8(-(-534))
 3500 1312 8F85      		ldd r24,Y+15
 3501 1314 C95E      		subi r28,lo8(-(535))
 3502 1316 DD4F      		sbci r29,hi8(-(535))
 3503 1318 8883      		st Y,r24
 3504 131a C751      		subi r28,lo8(-(-535))
 3505 131c D240      		sbci r29,hi8(-(-535))
 3506 131e 8E85      		ldd r24,Y+14
 3507 1320 9F85      		ldd r25,Y+15
 3508 1322 A889      		ldd r26,Y+16
 3509 1324 B989      		ldd r27,Y+17
 3510 1326 9D01      		movw r18,r26
 3511 1328 4427      		clr r20
 3512 132a 5527      		clr r21
 3513 132c C85E      		subi r28,lo8(-(536))
 3514 132e DD4F      		sbci r29,hi8(-(536))
 3515 1330 2883      		st Y,r18
 3516 1332 2196      		adiw r28,1
 3517 1334 8B2F      		mov r24,r27
 3518 1336 9927      		clr r25
 3519 1338 AA27      		clr r26
 3520 133a BB27      		clr r27
 3521 133c 8883      		st Y,r24
 3522 133e C951      		subi r28,lo8(-(-537))
 3523 1340 D240      		sbci r29,hi8(-(-537))
 3524               	.LM420:
 3525 1342 8A85      		ldd r24,Y+10
 3526 1344 C65E      		subi r28,lo8(-(538))
 3527 1346 DD4F      		sbci r29,hi8(-(538))
 3528 1348 8883      		st Y,r24
 3529 134a CA51      		subi r28,lo8(-(-538))
 3530 134c D240      		sbci r29,hi8(-(-538))
 3531 134e 8B85      		ldd r24,Y+11
 3532 1350 C55E      		subi r28,lo8(-(539))
 3533 1352 DD4F      		sbci r29,hi8(-(539))
 3534 1354 8883      		st Y,r24
 3535 1356 CB51      		subi r28,lo8(-(-539))
 3536 1358 D240      		sbci r29,hi8(-(-539))
 3537 135a 8A85      		ldd r24,Y+10
 3538 135c 9B85      		ldd r25,Y+11
 3539 135e AC85      		ldd r26,Y+12
 3540 1360 BD85      		ldd r27,Y+13
 3541 1362 9D01      		movw r18,r26
 3542 1364 4427      		clr r20
 3543 1366 5527      		clr r21
 3544 1368 C45E      		subi r28,lo8(-(540))
 3545 136a DD4F      		sbci r29,hi8(-(540))
 3546 136c 2883      		st Y,r18
 3547 136e 2196      		adiw r28,1
 3548 1370 8B2F      		mov r24,r27
 3549 1372 9927      		clr r25
 3550 1374 AA27      		clr r26
 3551 1376 BB27      		clr r27
 3552 1378 8883      		st Y,r24
 3553 137a CD51      		subi r28,lo8(-(-541))
 3554 137c D240      		sbci r29,hi8(-(-541))
 3555               	.LM421:
 3556 137e 2A89      		ldd r18,Y+18
 3557 1380 3B89      		ldd r19,Y+19
 3558 1382 4C89      		ldd r20,Y+20
 3559 1384 5D89      		ldd r21,Y+21
 3560 1386 8981      		ldd r24,Y+1
 3561 1388 01E0      		ldi r16,lo8(1)
 3562 138a 0E94 0000 		call disk_write
 3563               	.LVL224:
 3564               	.LM422:
 3565 138e 1D82      		std Y+5,__zero_reg__
 3566               	.L316:
 3567               	.LM423:
 3568 1390 8981      		ldd r24,Y+1
 3569 1392 60E0      		ldi r22,lo8(0)
 3570 1394 40E0      		ldi r20,lo8(0)
 3571 1396 50E0      		ldi r21,hi8(0)
 3572 1398 0E94 0000 		call disk_ioctl
 3573 139c 8111      		cpse r24,__zero_reg__
 3574 139e 81E0      		ldi r24,lo8(1)
 3575               	.LVL225:
 3576               	.L315:
 3577               	.LVL226:
 3578               	/* epilogue start */
 3579               	.LM424:
 3580 13a0 DF91      		pop r29
 3581 13a2 CF91      		pop r28
 3582               	.LVL227:
 3583 13a4 0F91      		pop r16
 3584 13a6 0895      		ret
 3585               	.LFE47:
 3587               	.global	get_fat
 3589               	get_fat:
 3590               	.LFB48:
 3591               	.LM425:
 3592               	.LVL228:
 3593 13a8 7F92      		push r7
 3594 13aa 8F92      		push r8
 3595 13ac 9F92      		push r9
 3596 13ae AF92      		push r10
 3597 13b0 BF92      		push r11
 3598 13b2 CF92      		push r12
 3599 13b4 DF92      		push r13
 3600 13b6 EF92      		push r14
 3601 13b8 FF92      		push r15
 3602 13ba 0F93      		push r16
 3603 13bc 1F93      		push r17
 3604 13be CF93      		push r28
 3605 13c0 DF93      		push r29
 3606               	/* prologue: function */
 3607               	/* frame size = 0 */
 3608 13c2 4C01      		movw r8,r24
 3609 13c4 7A01      		movw r14,r20
 3610 13c6 8B01      		movw r16,r22
 3611               	.LM426:
 3612 13c8 4230      		cpi r20,lo8(2)
 3613 13ca 5105      		cpc r21,__zero_reg__
 3614 13cc 6105      		cpc r22,__zero_reg__
 3615 13ce 7105      		cpc r23,__zero_reg__
 3616               	.LVL229:
 3617 13d0 00F4      		brsh .+2
 3618 13d2 00C0      		rjmp .L322
 3619 13d4 F401      		movw r30,r8
 3620 13d6 828D      		ldd r24,Z+26
 3621 13d8 938D      		ldd r25,Z+27
 3622 13da A48D      		ldd r26,Z+28
 3623 13dc B58D      		ldd r27,Z+29
 3624 13de 4817      		cp r20,r24
 3625 13e0 5907      		cpc r21,r25
 3626 13e2 6A07      		cpc r22,r26
 3627 13e4 7B07      		cpc r23,r27
 3628 13e6 00F0      		brlo .+2
 3629 13e8 00C0      		rjmp .L322
 3630               	.LM427:
 3631 13ea A68C      		ldd r10,Z+30
 3632 13ec B78C      		ldd r11,Z+31
 3633 13ee C0A0      		ldd r12,Z+32
 3634 13f0 D1A0      		ldd r13,Z+33
 3635               	.LVL230:
 3636               	.LM428:
 3637 13f2 8081      		ld r24,Z
 3638 13f4 8230      		cpi r24,lo8(2)
 3639 13f6 01F4      		brne .+2
 3640 13f8 00C0      		rjmp .L325
 3641 13fa 8330      		cpi r24,lo8(3)
 3642 13fc 01F4      		brne .+2
 3643 13fe 00C0      		rjmp .L326
 3644 1400 8130      		cpi r24,lo8(1)
 3645 1402 01F0      		breq .+2
 3646 1404 00C0      		rjmp .L323
 3647               	.LM429:
 3648 1406 EA01      		movw r28,r20
 3649               	.LVL231:
 3650 1408 D695      		lsr r29
 3651 140a C795      		ror r28
 3652               	.LVL232:
 3653 140c CE0D      		add r28,r14
 3654 140e DF1D      		adc r29,r15
 3655               	.LM430:
 3656 1410 AE01      		movw r20,r28
 3657 1412 452F      		mov r20,r21
 3658 1414 5527      		clr r21
 3659 1416 4695      		lsr r20
 3660 1418 60E0      		ldi r22,lo8(0)
 3661 141a 70E0      		ldi r23,hi8(0)
 3662 141c 4A0D      		add r20,r10
 3663 141e 5B1D      		adc r21,r11
 3664 1420 6C1D      		adc r22,r12
 3665 1422 7D1D      		adc r23,r13
 3666 1424 C401      		movw r24,r8
 3667 1426 0E94 0000 		call move_window
 3668 142a 8823      		tst r24
 3669 142c 01F0      		breq .+2
 3670 142e 00C0      		rjmp .L323
 3671               	.LM431:
 3672 1430 FE01      		movw r30,r28
 3673 1432 F170      		andi r31,hi8(511)
 3674 1434 E80D      		add r30,r8
 3675 1436 F91D      		adc r31,r9
 3676 1438 76A4      		ldd r7,Z+46
 3677 143a 2196      		adiw r28,1
 3678               	.LVL233:
 3679               	.LM432:
 3680 143c AE01      		movw r20,r28
 3681 143e 452F      		mov r20,r21
 3682 1440 5527      		clr r21
 3683 1442 4695      		lsr r20
 3684 1444 60E0      		ldi r22,lo8(0)
 3685 1446 70E0      		ldi r23,hi8(0)
 3686 1448 4A0D      		add r20,r10
 3687 144a 5B1D      		adc r21,r11
 3688 144c 6C1D      		adc r22,r12
 3689 144e 7D1D      		adc r23,r13
 3690 1450 C401      		movw r24,r8
 3691 1452 0E94 0000 		call move_window
 3692 1456 8823      		tst r24
 3693 1458 01F0      		breq .+2
 3694 145a 00C0      		rjmp .L323
 3695               	.LM433:
 3696 145c 672D      		mov r22,r7
 3697               	.LVL234:
 3698 145e 70E0      		ldi r23,lo8(0)
 3699               	.LVL235:
 3700               	.LM434:
 3701 1460 D170      		andi r29,hi8(511)
 3702 1462 C80D      		add r28,r8
 3703 1464 D91D      		adc r29,r9
 3704 1466 9EA5      		ldd r25,Y+46
 3705 1468 80E0      		ldi r24,lo8(0)
 3706 146a 682B      		or r22,r24
 3707 146c 792B      		or r23,r25
 3708               	.LVL236:
 3709               	.LM435:
 3710 146e C701      		movw r24,r14
 3711               	.LVL237:
 3712 1470 8170      		andi r24,lo8(1)
 3713 1472 9070      		andi r25,hi8(1)
 3714 1474 892B      		or r24,r25
 3715 1476 01F0      		breq .L327
 3716 1478 94E0      		ldi r25,4
 3717 147a 7695      	1:	lsr r23
 3718 147c 6795      		ror r22
 3719 147e 9A95      		dec r25
 3720 1480 01F4      		brne 1b
 3721 1482 9B01      		movw r18,r22
 3722 1484 00C0      		rjmp .L330
 3723               	.L327:
 3724 1486 9B01      		movw r18,r22
 3725 1488 40E0      		ldi r20,lo8(0)
 3726 148a 50E0      		ldi r21,hi8(0)
 3727 148c 3F70      		andi r19,hi8(4095)
 3728 148e 4070      		andi r20,hlo8(4095)
 3729 1490 5070      		andi r21,hhi8(4095)
 3730 1492 00C0      		rjmp .L328
 3731               	.LVL238:
 3732               	.L325:
 3733               	.LM436:
 3734 1494 452F      		mov r20,r21
 3735 1496 562F      		mov r21,r22
 3736 1498 672F      		mov r22,r23
 3737 149a 7727      		clr r23
 3738               	.LVL239:
 3739 149c 4A0D      		add r20,r10
 3740 149e 5B1D      		adc r21,r11
 3741 14a0 6C1D      		adc r22,r12
 3742 14a2 7D1D      		adc r23,r13
 3743 14a4 C401      		movw r24,r8
 3744 14a6 0E94 0000 		call move_window
 3745 14aa 8823      		tst r24
 3746 14ac 01F0      		breq .+2
 3747 14ae 00C0      		rjmp .L323
 3748               	.LM437:
 3749 14b0 F701      		movw r30,r14
 3750               	.LVL240:
 3751 14b2 EE0F      		lsl r30
 3752 14b4 FF1F      		rol r31
 3753 14b6 F170      		andi r31,hi8(511)
 3754 14b8 E80D      		add r30,r8
 3755 14ba F91D      		adc r31,r9
 3756 14bc 97A5      		ldd r25,Z+47
 3757 14be 80E0      		ldi r24,lo8(0)
 3758 14c0 26A5      		ldd r18,Z+46
 3759 14c2 30E0      		ldi r19,lo8(0)
 3760 14c4 822B      		or r24,r18
 3761 14c6 932B      		or r25,r19
 3762 14c8 9C01      		movw r18,r24
 3763               	.LVL241:
 3764               	.L330:
 3765 14ca 40E0      		ldi r20,lo8(0)
 3766 14cc 50E0      		ldi r21,hi8(0)
 3767 14ce 00C0      		rjmp .L328
 3768               	.LVL242:
 3769               	.L326:
 3770               	.LM438:
 3771 14d0 B7E0      		ldi r27,7
 3772 14d2 7695      	1:	lsr r23
 3773 14d4 6795      		ror r22
 3774 14d6 5795      		ror r21
 3775 14d8 4795      		ror r20
 3776 14da BA95      		dec r27
 3777 14dc 01F4      		brne 1b
 3778               	.LVL243:
 3779 14de 4A0D      		add r20,r10
 3780 14e0 5B1D      		adc r21,r11
 3781 14e2 6C1D      		adc r22,r12
 3782 14e4 7D1D      		adc r23,r13
 3783 14e6 C401      		movw r24,r8
 3784 14e8 0E94 0000 		call move_window
 3785 14ec 8823      		tst r24
 3786 14ee 01F4      		brne .L323
 3787               	.LM439:
 3788 14f0 F701      		movw r30,r14
 3789               	.LVL244:
 3790 14f2 EE0F      		lsl r30
 3791 14f4 FF1F      		rol r31
 3792 14f6 EE0F      		lsl r30
 3793 14f8 FF1F      		rol r31
 3794 14fa F170      		andi r31,hi8(511)
 3795 14fc E80D      		add r30,r8
 3796 14fe F91D      		adc r31,r9
 3797 1500 81A9      		ldd r24,Z+49
 3798 1502 90E0      		ldi r25,lo8(0)
 3799 1504 A0E0      		ldi r26,lo8(0)
 3800 1506 B0E0      		ldi r27,hi8(0)
 3801 1508 582F      		mov r21,r24
 3802 150a 4427      		clr r20
 3803 150c 3327      		clr r19
 3804 150e 2227      		clr r18
 3805 1510 80A9      		ldd r24,Z+48
 3806 1512 90E0      		ldi r25,lo8(0)
 3807 1514 A0E0      		ldi r26,lo8(0)
 3808 1516 B0E0      		ldi r27,hi8(0)
 3809 1518 DC01      		movw r26,r24
 3810 151a 9927      		clr r25
 3811 151c 8827      		clr r24
 3812 151e 282B      		or r18,r24
 3813 1520 392B      		or r19,r25
 3814 1522 4A2B      		or r20,r26
 3815 1524 5B2B      		or r21,r27
 3816 1526 86A5      		ldd r24,Z+46
 3817 1528 90E0      		ldi r25,lo8(0)
 3818 152a A0E0      		ldi r26,lo8(0)
 3819 152c B0E0      		ldi r27,hi8(0)
 3820 152e 282B      		or r18,r24
 3821 1530 392B      		or r19,r25
 3822 1532 4A2B      		or r20,r26
 3823 1534 5B2B      		or r21,r27
 3824 1536 97A5      		ldd r25,Z+47
 3825 1538 80E0      		ldi r24,lo8(0)
 3826 153a A0E0      		ldi r26,lo8(0)
 3827 153c B0E0      		ldi r27,hi8(0)
 3828 153e 282B      		or r18,r24
 3829 1540 392B      		or r19,r25
 3830 1542 4A2B      		or r20,r26
 3831 1544 5B2B      		or r21,r27
 3832 1546 5F70      		andi r21,hhi8(268435455)
 3833 1548 00C0      		rjmp .L328
 3834               	.LVL245:
 3835               	.L322:
 3836 154a 21E0      		ldi r18,lo8(1)
 3837 154c 30E0      		ldi r19,hi8(1)
 3838 154e 40E0      		ldi r20,hlo8(1)
 3839 1550 50E0      		ldi r21,hhi8(1)
 3840 1552 00C0      		rjmp .L328
 3841               	.LVL246:
 3842               	.L323:
 3843 1554 2FEF      		ldi r18,lo8(-1)
 3844 1556 3FEF      		ldi r19,hi8(-1)
 3845 1558 4FEF      		ldi r20,hlo8(-1)
 3846 155a 5FEF      		ldi r21,hhi8(-1)
 3847               	.LVL247:
 3848               	.L328:
 3849               	.LM440:
 3850 155c B901      		movw r22,r18
 3851               	.LVL248:
 3852 155e CA01      		movw r24,r20
 3853               	/* epilogue start */
 3854 1560 DF91      		pop r29
 3855 1562 CF91      		pop r28
 3856               	.LVL249:
 3857 1564 1F91      		pop r17
 3858 1566 0F91      		pop r16
 3859 1568 FF90      		pop r15
 3860 156a EF90      		pop r14
 3861               	.LVL250:
 3862 156c DF90      		pop r13
 3863 156e CF90      		pop r12
 3864 1570 BF90      		pop r11
 3865 1572 AF90      		pop r10
 3866               	.LVL251:
 3867 1574 9F90      		pop r9
 3868 1576 8F90      		pop r8
 3869               	.LVL252:
 3870 1578 7F90      		pop r7
 3871 157a 0895      		ret
 3872               	.LFE48:
 3874               	.global	put_fat
 3876               	put_fat:
 3877               	.LFB49:
 3878               	.LM441:
 3879               	.LVL253:
 3880 157c 2F92      		push r2
 3881 157e 3F92      		push r3
 3882 1580 4F92      		push r4
 3883 1582 5F92      		push r5
 3884 1584 6F92      		push r6
 3885 1586 7F92      		push r7
 3886 1588 8F92      		push r8
 3887 158a 9F92      		push r9
 3888 158c AF92      		push r10
 3889 158e BF92      		push r11
 3890 1590 CF92      		push r12
 3891 1592 DF92      		push r13
 3892 1594 EF92      		push r14
 3893 1596 FF92      		push r15
 3894 1598 0F93      		push r16
 3895               	.LVL254:
 3896 159a 1F93      		push r17
 3897 159c CF93      		push r28
 3898 159e DF93      		push r29
 3899               	/* prologue: function */
 3900               	/* frame size = 0 */
 3901 15a0 3C01      		movw r6,r24
 3902 15a2 6A01      		movw r12,r20
 3903 15a4 7B01      		movw r14,r22
 3904 15a6 4801      		movw r8,r16
 3905 15a8 5901      		movw r10,r18
 3906               	.LVL255:
 3907               	.LM442:
 3908 15aa 4230      		cpi r20,lo8(2)
 3909 15ac 5105      		cpc r21,__zero_reg__
 3910 15ae 6105      		cpc r22,__zero_reg__
 3911 15b0 7105      		cpc r23,__zero_reg__
 3912               	.LVL256:
 3913 15b2 00F4      		brsh .+2
 3914 15b4 00C0      		rjmp .L332
 3915               	.LVL257:
 3916 15b6 F301      		movw r30,r6
 3917 15b8 828D      		ldd r24,Z+26
 3918 15ba 938D      		ldd r25,Z+27
 3919 15bc A48D      		ldd r26,Z+28
 3920 15be B58D      		ldd r27,Z+29
 3921 15c0 4817      		cp r20,r24
 3922 15c2 5907      		cpc r21,r25
 3923 15c4 6A07      		cpc r22,r26
 3924 15c6 7B07      		cpc r23,r27
 3925 15c8 00F0      		brlo .+2
 3926 15ca 00C0      		rjmp .L332
 3927               	.LM443:
 3928 15cc 268C      		ldd r2,Z+30
 3929 15ce 378C      		ldd r3,Z+31
 3930 15d0 40A0      		ldd r4,Z+32
 3931 15d2 51A0      		ldd r5,Z+33
 3932               	.LVL258:
 3933               	.LM444:
 3934 15d4 8081      		ld r24,Z
 3935 15d6 8230      		cpi r24,lo8(2)
 3936 15d8 01F4      		brne .+2
 3937 15da 00C0      		rjmp .L335
 3938 15dc 8330      		cpi r24,lo8(3)
 3939 15de 01F4      		brne .+2
 3940 15e0 00C0      		rjmp .L336
 3941 15e2 8130      		cpi r24,lo8(1)
 3942 15e4 01F0      		breq .L334
 3943 15e6 22E0      		ldi r18,lo8(2)
 3944               	.LVL259:
 3945 15e8 00C0      		rjmp .L337
 3946               	.LVL260:
 3947               	.L334:
 3948               	.LM445:
 3949 15ea EA01      		movw r28,r20
 3950               	.LVL261:
 3951 15ec D695      		lsr r29
 3952 15ee C795      		ror r28
 3953               	.LVL262:
 3954 15f0 C40F      		add r28,r20
 3955 15f2 D51F      		adc r29,r21
 3956               	.LM446:
 3957 15f4 AE01      		movw r20,r28
 3958               	.LVL263:
 3959 15f6 452F      		mov r20,r21
 3960 15f8 5527      		clr r21
 3961 15fa 4695      		lsr r20
 3962 15fc 60E0      		ldi r22,lo8(0)
 3963 15fe 70E0      		ldi r23,hi8(0)
 3964 1600 420D      		add r20,r2
 3965 1602 531D      		adc r21,r3
 3966 1604 641D      		adc r22,r4
 3967 1606 751D      		adc r23,r5
 3968 1608 C301      		movw r24,r6
 3969 160a 0E94 0000 		call move_window
 3970 160e 282F      		mov r18,r24
 3971               	.LVL264:
 3972               	.LM447:
 3973 1610 8823      		tst r24
 3974 1612 01F0      		breq .+2
 3975 1614 00C0      		rjmp .L337
 3976               	.LVL265:
 3977               	.LM448:
 3978 1616 DE01      		movw r26,r28
 3979 1618 B170      		andi r27,hi8(511)
 3980               	.LM449:
 3981 161a 8601      		movw r16,r12
 3982               	.LVL266:
 3983 161c 0170      		andi r16,lo8(1)
 3984 161e 1070      		andi r17,hi8(1)
 3985 1620 0115      		cp r16,__zero_reg__
 3986 1622 1105      		cpc r17,__zero_reg__
 3987 1624 01F0      		breq .L338
 3988 1626 F301      		movw r30,r6
 3989 1628 EA0F      		add r30,r26
 3990 162a FB1F      		adc r31,r27
 3991 162c 86A5      		ldd r24,Z+46
 3992               	.LVL267:
 3993 162e 8F70      		andi r24,lo8(15)
 3994 1630 982D      		mov r25,r8
 3995               	.LVL268:
 3996 1632 9295      		swap r25
 3997 1634 907F      		andi r25,lo8(-16)
 3998 1636 982B      		or r25,r24
 3999 1638 00C0      		rjmp .L339
 4000               	.LVL269:
 4001               	.L338:
 4002 163a 982D      		mov r25,r8
 4003               	.LVL270:
 4004               	.L339:
 4005 163c A60D      		add r26,r6
 4006 163e B71D      		adc r27,r7
 4007 1640 9E96      		adiw r26,46
 4008 1642 9C93      		st X,r25
 4009               	.LM450:
 4010 1644 2196      		adiw r28,1
 4011               	.LVL271:
 4012               	.LM451:
 4013 1646 81E0      		ldi r24,lo8(1)
 4014 1648 F301      		movw r30,r6
 4015 164a 8483      		std Z+4,r24
 4016               	.LM452:
 4017 164c AE01      		movw r20,r28
 4018 164e 452F      		mov r20,r21
 4019 1650 5527      		clr r21
 4020 1652 4695      		lsr r20
 4021 1654 60E0      		ldi r22,lo8(0)
 4022 1656 70E0      		ldi r23,hi8(0)
 4023 1658 420D      		add r20,r2
 4024 165a 531D      		adc r21,r3
 4025 165c 641D      		adc r22,r4
 4026 165e 751D      		adc r23,r5
 4027 1660 C301      		movw r24,r6
 4028 1662 0E94 0000 		call move_window
 4029               	.LVL272:
 4030 1666 282F      		mov r18,r24
 4031               	.LVL273:
 4032               	.LM453:
 4033 1668 8823      		tst r24
 4034 166a 01F0      		breq .+2
 4035 166c 00C0      		rjmp .L337
 4036               	.LVL274:
 4037               	.LM454:
 4038 166e D170      		andi r29,hi8(511)
 4039               	.LVL275:
 4040               	.LM455:
 4041 1670 012B      		or r16,r17
 4042 1672 01F0      		breq .L340
 4043 1674 34E0      		ldi r19,4
 4044 1676 B694      	1:	lsr r11
 4045 1678 A794      		ror r10
 4046 167a 9794      		ror r9
 4047 167c 8794      		ror r8
 4048 167e 3A95      		dec r19
 4049 1680 01F4      		brne 1b
 4050 1682 482D      		mov r20,r8
 4051 1684 00C0      		rjmp .L341
 4052               	.L340:
 4053 1686 F301      		movw r30,r6
 4054 1688 EC0F      		add r30,r28
 4055 168a FD1F      		adc r31,r29
 4056 168c 46A5      		ldd r20,Z+46
 4057 168e 407F      		andi r20,lo8(-16)
 4058 1690 BB27      		clr r27
 4059 1692 AB2D      		mov r26,r11
 4060 1694 9A2D      		mov r25,r10
 4061 1696 892D      		mov r24,r9
 4062               	.LVL276:
 4063 1698 8F70      		andi r24,lo8(15)
 4064 169a 482B      		or r20,r24
 4065               	.LVL277:
 4066               	.L341:
 4067 169c C60D      		add r28,r6
 4068 169e D71D      		adc r29,r7
 4069 16a0 4EA7      		std Y+46,r20
 4070 16a2 00C0      		rjmp .L337
 4071               	.LVL278:
 4072               	.L335:
 4073               	.LM456:
 4074 16a4 452F      		mov r20,r21
 4075 16a6 562F      		mov r21,r22
 4076 16a8 672F      		mov r22,r23
 4077 16aa 7727      		clr r23
 4078               	.LVL279:
 4079 16ac 420D      		add r20,r2
 4080 16ae 531D      		adc r21,r3
 4081 16b0 641D      		adc r22,r4
 4082 16b2 751D      		adc r23,r5
 4083 16b4 C301      		movw r24,r6
 4084 16b6 0E94 0000 		call move_window
 4085 16ba 282F      		mov r18,r24
 4086               	.LVL280:
 4087               	.LM457:
 4088 16bc 8823      		tst r24
 4089 16be 01F4      		brne .L337
 4090               	.LVL281:
 4091               	.LM458:
 4092 16c0 F601      		movw r30,r12
 4093               	.LVL282:
 4094 16c2 EE0F      		lsl r30
 4095 16c4 FF1F      		rol r31
 4096 16c6 F170      		andi r31,hi8(511)
 4097 16c8 E60D      		add r30,r6
 4098 16ca F71D      		adc r31,r7
 4099 16cc 86A6      		std Z+46,r8
 4100 16ce 892D      		mov r24,r9
 4101 16d0 9927      		clr r25
 4102               	.LVL283:
 4103 16d2 87A7      		std Z+47,r24
 4104 16d4 00C0      		rjmp .L337
 4105               	.LVL284:
 4106               	.L336:
 4107               	.LM459:
 4108 16d6 B7E0      		ldi r27,7
 4109 16d8 7695      	1:	lsr r23
 4110 16da 6795      		ror r22
 4111 16dc 5795      		ror r21
 4112 16de 4795      		ror r20
 4113 16e0 BA95      		dec r27
 4114 16e2 01F4      		brne 1b
 4115               	.LVL285:
 4116 16e4 420D      		add r20,r2
 4117 16e6 531D      		adc r21,r3
 4118 16e8 641D      		adc r22,r4
 4119 16ea 751D      		adc r23,r5
 4120 16ec C301      		movw r24,r6
 4121 16ee 0E94 0000 		call move_window
 4122 16f2 282F      		mov r18,r24
 4123               	.LVL286:
 4124               	.LM460:
 4125 16f4 8823      		tst r24
 4126 16f6 01F4      		brne .L337
 4127               	.LVL287:
 4128               	.LM461:
 4129 16f8 F601      		movw r30,r12
 4130               	.LVL288:
 4131 16fa EE0F      		lsl r30
 4132 16fc FF1F      		rol r31
 4133 16fe EE0F      		lsl r30
 4134 1700 FF1F      		rol r31
 4135 1702 F170      		andi r31,hi8(511)
 4136 1704 E60D      		add r30,r6
 4137 1706 F71D      		adc r31,r7
 4138 1708 86A6      		std Z+46,r8
 4139 170a 892D      		mov r24,r9
 4140 170c 9927      		clr r25
 4141               	.LVL289:
 4142 170e 87A7      		std Z+47,r24
 4143 1710 C501      		movw r24,r10
 4144 1712 AA27      		clr r26
 4145 1714 BB27      		clr r27
 4146 1716 80AB      		std Z+48,r24
 4147 1718 8B2D      		mov r24,r11
 4148 171a 9927      		clr r25
 4149 171c AA27      		clr r26
 4150 171e BB27      		clr r27
 4151 1720 81AB      		std Z+49,r24
 4152               	.LVL290:
 4153               	.L337:
 4154               	.LM462:
 4155 1722 81E0      		ldi r24,lo8(1)
 4156 1724 F301      		movw r30,r6
 4157 1726 8483      		std Z+4,r24
 4158 1728 00C0      		rjmp .L342
 4159               	.LVL291:
 4160               	.L332:
 4161 172a 22E0      		ldi r18,lo8(2)
 4162               	.LVL292:
 4163               	.L342:
 4164               	.LM463:
 4165 172c 822F      		mov r24,r18
 4166               	/* epilogue start */
 4167 172e DF91      		pop r29
 4168 1730 CF91      		pop r28
 4169               	.LVL293:
 4170 1732 1F91      		pop r17
 4171 1734 0F91      		pop r16
 4172 1736 FF90      		pop r15
 4173 1738 EF90      		pop r14
 4174 173a DF90      		pop r13
 4175 173c CF90      		pop r12
 4176 173e BF90      		pop r11
 4177 1740 AF90      		pop r10
 4178 1742 9F90      		pop r9
 4179 1744 8F90      		pop r8
 4180               	.LVL294:
 4181 1746 7F90      		pop r7
 4182 1748 6F90      		pop r6
 4183               	.LVL295:
 4184 174a 5F90      		pop r5
 4185 174c 4F90      		pop r4
 4186 174e 3F90      		pop r3
 4187 1750 2F90      		pop r2
 4188               	.LVL296:
 4189 1752 0895      		ret
 4190               	.LFE49:
 4193               	remove_chain:
 4194               	.LFB50:
 4195               	.LM464:
 4196               	.LVL297:
 4197 1754 9F92      		push r9
 4198 1756 AF92      		push r10
 4199 1758 BF92      		push r11
 4200 175a CF92      		push r12
 4201 175c DF92      		push r13
 4202 175e EF92      		push r14
 4203 1760 FF92      		push r15
 4204 1762 0F93      		push r16
 4205 1764 1F93      		push r17
 4206 1766 CF93      		push r28
 4207 1768 DF93      		push r29
 4208               	/* prologue: function */
 4209               	/* frame size = 0 */
 4210 176a EC01      		movw r28,r24
 4211 176c 7A01      		movw r14,r20
 4212 176e 8B01      		movw r16,r22
 4213               	.LM465:
 4214 1770 4230      		cpi r20,lo8(2)
 4215 1772 5105      		cpc r21,__zero_reg__
 4216 1774 6105      		cpc r22,__zero_reg__
 4217 1776 7105      		cpc r23,__zero_reg__
 4218 1778 00F4      		brsh .+2
 4219 177a 00C0      		rjmp .L345
 4220               	.LVL298:
 4221 177c 8A8D      		ldd r24,Y+26
 4222 177e 9B8D      		ldd r25,Y+27
 4223 1780 AC8D      		ldd r26,Y+28
 4224 1782 BD8D      		ldd r27,Y+29
 4225 1784 4817      		cp r20,r24
 4226 1786 5907      		cpc r21,r25
 4227 1788 6A07      		cpc r22,r26
 4228 178a 7B07      		cpc r23,r27
 4229 178c 00F4      		brsh .+2
 4230 178e 00C0      		rjmp .L353
 4231 1790 00C0      		rjmp .L345
 4232               	.LVL299:
 4233               	.L351:
 4234               	.LM466:
 4235 1792 CE01      		movw r24,r28
 4236 1794 B801      		movw r22,r16
 4237 1796 A701      		movw r20,r14
 4238 1798 0E94 0000 		call get_fat
 4239 179c 5B01      		movw r10,r22
 4240 179e 6C01      		movw r12,r24
 4241               	.LM467:
 4242 17a0 6115      		cp r22,__zero_reg__
 4243 17a2 7105      		cpc r23,__zero_reg__
 4244 17a4 8105      		cpc r24,__zero_reg__
 4245 17a6 9105      		cpc r25,__zero_reg__
 4246 17a8 01F4      		brne .+2
 4247 17aa 00C0      		rjmp .L347
 4248               	.LVL300:
 4249               	.LM468:
 4250 17ac 81E0      		ldi r24,lo8(1)
 4251 17ae A816      		cp r10,r24
 4252 17b0 B104      		cpc r11,__zero_reg__
 4253 17b2 C104      		cpc r12,__zero_reg__
 4254 17b4 D104      		cpc r13,__zero_reg__
 4255 17b6 01F0      		breq .L345
 4256               	.LVL301:
 4257               	.LM469:
 4258 17b8 2FEF      		ldi r18,lo8(-1)
 4259 17ba A216      		cp r10,r18
 4260 17bc 2FEF      		ldi r18,hi8(-1)
 4261 17be B206      		cpc r11,r18
 4262 17c0 2FEF      		ldi r18,hlo8(-1)
 4263 17c2 C206      		cpc r12,r18
 4264 17c4 2FEF      		ldi r18,hhi8(-1)
 4265 17c6 D206      		cpc r13,r18
 4266 17c8 01F4      		brne .L348
 4267 17ca 81E0      		ldi r24,lo8(1)
 4268               	.LVL302:
 4269 17cc 00C0      		rjmp .L349
 4270               	.LVL303:
 4271               	.L348:
 4272               	.LM470:
 4273 17ce CE01      		movw r24,r28
 4274 17d0 B801      		movw r22,r16
 4275 17d2 A701      		movw r20,r14
 4276 17d4 00E0      		ldi r16,lo8(0)
 4277 17d6 10E0      		ldi r17,hi8(0)
 4278 17d8 20E0      		ldi r18,hlo8(0)
 4279 17da 30E0      		ldi r19,hhi8(0)
 4280 17dc 0E94 0000 		call put_fat
 4281               	.LM471:
 4282 17e0 8823      		tst r24
 4283               	.LVL304:
 4284 17e2 01F4      		brne .L349
 4285               	.LM472:
 4286 17e4 8E85      		ldd r24,Y+14
 4287 17e6 9F85      		ldd r25,Y+15
 4288 17e8 A889      		ldd r26,Y+16
 4289 17ea B989      		ldd r27,Y+17
 4290               	.LVL305:
 4291 17ec 8F3F      		cpi r24,lo8(-1)
 4292 17ee 2FEF      		ldi r18,hi8(-1)
 4293 17f0 9207      		cpc r25,r18
 4294 17f2 2FEF      		ldi r18,hlo8(-1)
 4295 17f4 A207      		cpc r26,r18
 4296 17f6 2FEF      		ldi r18,hhi8(-1)
 4297 17f8 B207      		cpc r27,r18
 4298 17fa 01F0      		breq .L350
 4299               	.LM473:
 4300 17fc 0196      		adiw r24,1
 4301 17fe A11D      		adc r26,__zero_reg__
 4302 1800 B11D      		adc r27,__zero_reg__
 4303 1802 8E87      		std Y+14,r24
 4304 1804 9F87      		std Y+15,r25
 4305 1806 A88B      		std Y+16,r26
 4306 1808 B98B      		std Y+17,r27
 4307               	.LM474:
 4308 180a 9D82      		std Y+5,r9
 4309               	.L350:
 4310 180c 8601      		movw r16,r12
 4311 180e 7501      		movw r14,r10
 4312 1810 00C0      		rjmp .L354
 4313               	.LVL306:
 4314               	.L353:
 4315 1812 9924      		clr r9
 4316 1814 9394      		inc r9
 4317               	.LVL307:
 4318               	.L354:
 4319               	.LM475:
 4320 1816 8A8D      		ldd r24,Y+26
 4321 1818 9B8D      		ldd r25,Y+27
 4322 181a AC8D      		ldd r26,Y+28
 4323 181c BD8D      		ldd r27,Y+29
 4324 181e E816      		cp r14,r24
 4325 1820 F906      		cpc r15,r25
 4326 1822 0A07      		cpc r16,r26
 4327 1824 1B07      		cpc r17,r27
 4328 1826 00F4      		brsh .+2
 4329 1828 00C0      		rjmp .L351
 4330 182a 00C0      		rjmp .L347
 4331               	.LVL308:
 4332               	.L345:
 4333 182c 82E0      		ldi r24,lo8(2)
 4334               	.LVL309:
 4335 182e 00C0      		rjmp .L349
 4336               	.LVL310:
 4337               	.L347:
 4338 1830 80E0      		ldi r24,lo8(0)
 4339               	.LVL311:
 4340               	.L349:
 4341               	.LVL312:
 4342               	/* epilogue start */
 4343               	.LM476:
 4344 1832 DF91      		pop r29
 4345 1834 CF91      		pop r28
 4346               	.LVL313:
 4347 1836 1F91      		pop r17
 4348 1838 0F91      		pop r16
 4349 183a FF90      		pop r15
 4350 183c EF90      		pop r14
 4351               	.LVL314:
 4352 183e DF90      		pop r13
 4353 1840 CF90      		pop r12
 4354 1842 BF90      		pop r11
 4355 1844 AF90      		pop r10
 4356               	.LVL315:
 4357 1846 9F90      		pop r9
 4358 1848 0895      		ret
 4359               	.LFE50:
 4362               	create_chain:
 4363               	.LFB51:
 4364               	.LM477:
 4365               	.LVL316:
 4366 184a 2F92      		push r2
 4367 184c 3F92      		push r3
 4368 184e 4F92      		push r4
 4369 1850 5F92      		push r5
 4370 1852 6F92      		push r6
 4371 1854 7F92      		push r7
 4372 1856 8F92      		push r8
 4373 1858 9F92      		push r9
 4374 185a AF92      		push r10
 4375 185c BF92      		push r11
 4376 185e CF92      		push r12
 4377 1860 DF92      		push r13
 4378 1862 EF92      		push r14
 4379 1864 FF92      		push r15
 4380 1866 0F93      		push r16
 4381 1868 1F93      		push r17
 4382 186a DF93      		push r29
 4383 186c CF93      		push r28
 4384 186e 00D0      		rcall .
 4385 1870 0F92      		push __tmp_reg__
 4386 1872 CDB7      		in r28,__SP_L__
 4387 1874 DEB7      		in r29,__SP_H__
 4388               	/* prologue: function */
 4389               	/* frame size = 4 */
 4390 1876 1C01      		movw r2,r24
 4391 1878 2A01      		movw r4,r20
 4392 187a 3B01      		movw r6,r22
 4393               	.LM478:
 4394 187c DC01      		movw r26,r24
 4395 187e 5A96      		adiw r26,26
 4396 1880 8D91      		ld r24,X+
 4397 1882 9D91      		ld r25,X+
 4398 1884 0D90      		ld __tmp_reg__,X+
 4399 1886 BC91      		ld r27,X
 4400 1888 A02D      		mov r26,__tmp_reg__
 4401               	.LVL317:
 4402 188a 8983      		std Y+1,r24
 4403 188c 9A83      		std Y+2,r25
 4404 188e AB83      		std Y+3,r26
 4405 1890 BC83      		std Y+4,r27
 4406               	.LVL318:
 4407               	.LM479:
 4408 1892 4115      		cp r20,__zero_reg__
 4409 1894 5105      		cpc r21,__zero_reg__
 4410 1896 6105      		cpc r22,__zero_reg__
 4411 1898 7105      		cpc r23,__zero_reg__
 4412 189a 01F4      		brne .L356
 4413               	.LM480:
 4414 189c F101      		movw r30,r2
 4415 189e 8284      		ldd r8,Z+10
 4416 18a0 9384      		ldd r9,Z+11
 4417 18a2 A484      		ldd r10,Z+12
 4418 18a4 B584      		ldd r11,Z+13
 4419               	.LVL319:
 4420               	.LM481:
 4421 18a6 8114      		cp r8,__zero_reg__
 4422 18a8 9104      		cpc r9,__zero_reg__
 4423 18aa A104      		cpc r10,__zero_reg__
 4424 18ac B104      		cpc r11,__zero_reg__
 4425 18ae 01F0      		breq .L357
 4426 18b0 8816      		cp r8,r24
 4427 18b2 9906      		cpc r9,r25
 4428 18b4 AA06      		cpc r10,r26
 4429 18b6 BB06      		cpc r11,r27
 4430 18b8 00F4      		brsh .L357
 4431 18ba 00C0      		rjmp .L358
 4432               	.LVL320:
 4433               	.L356:
 4434               	.LM482:
 4435 18bc C101      		movw r24,r2
 4436 18be 0E94 0000 		call get_fat
 4437               	.LVL321:
 4438 18c2 9B01      		movw r18,r22
 4439 18c4 AC01      		movw r20,r24
 4440               	.LVL322:
 4441               	.LM483:
 4442 18c6 6230      		cpi r22,lo8(2)
 4443 18c8 7105      		cpc r23,__zero_reg__
 4444 18ca 8105      		cpc r24,__zero_reg__
 4445 18cc 9105      		cpc r25,__zero_reg__
 4446 18ce 00F4      		brsh .L359
 4447               	.LVL323:
 4448 18d0 21E0      		ldi r18,lo8(1)
 4449 18d2 30E0      		ldi r19,hi8(1)
 4450 18d4 40E0      		ldi r20,hlo8(1)
 4451 18d6 50E0      		ldi r21,hhi8(1)
 4452               	.LVL324:
 4453 18d8 00C0      		rjmp .L360
 4454               	.LVL325:
 4455               	.L359:
 4456               	.LM484:
 4457 18da 8981      		ldd r24,Y+1
 4458 18dc 9A81      		ldd r25,Y+2
 4459 18de AB81      		ldd r26,Y+3
 4460 18e0 BC81      		ldd r27,Y+4
 4461 18e2 2817      		cp r18,r24
 4462 18e4 3907      		cpc r19,r25
 4463 18e6 4A07      		cpc r20,r26
 4464 18e8 5B07      		cpc r21,r27
 4465 18ea 00F4      		brsh .+2
 4466 18ec 00C0      		rjmp .L360
 4467               	.LVL326:
 4468 18ee 5301      		movw r10,r6
 4469 18f0 4201      		movw r8,r4
 4470               	.LVL327:
 4471 18f2 00C0      		rjmp .L358
 4472               	.LVL328:
 4473               	.L357:
 4474 18f4 A1E0      		ldi r26,lo8(1)
 4475 18f6 8A2E      		mov r8,r26
 4476 18f8 912C      		mov r9,__zero_reg__
 4477 18fa A12C      		mov r10,__zero_reg__
 4478 18fc B12C      		mov r11,__zero_reg__
 4479               	.LVL329:
 4480               	.L358:
 4481 18fe 7501      		movw r14,r10
 4482 1900 6401      		movw r12,r8
 4483               	.LVL330:
 4484               	.L364:
 4485               	.LM485:
 4486 1902 0894      		sec
 4487 1904 C11C      		adc r12,__zero_reg__
 4488 1906 D11C      		adc r13,__zero_reg__
 4489 1908 E11C      		adc r14,__zero_reg__
 4490 190a F11C      		adc r15,__zero_reg__
 4491               	.LM486:
 4492 190c 8981      		ldd r24,Y+1
 4493 190e 9A81      		ldd r25,Y+2
 4494 1910 AB81      		ldd r26,Y+3
 4495 1912 BC81      		ldd r27,Y+4
 4496 1914 C816      		cp r12,r24
 4497 1916 D906      		cpc r13,r25
 4498 1918 EA06      		cpc r14,r26
 4499 191a FB06      		cpc r15,r27
 4500 191c 00F0      		brlo .L361
 4501               	.LM487:
 4502 191e 92E0      		ldi r25,lo8(2)
 4503 1920 8916      		cp r8,r25
 4504 1922 9104      		cpc r9,__zero_reg__
 4505 1924 A104      		cpc r10,__zero_reg__
 4506 1926 B104      		cpc r11,__zero_reg__
 4507 1928 00F4      		brsh .+2
 4508 192a 00C0      		rjmp .L362
 4509 192c F2E0      		ldi r31,lo8(2)
 4510 192e CF2E      		mov r12,r31
 4511 1930 D12C      		mov r13,__zero_reg__
 4512 1932 E12C      		mov r14,__zero_reg__
 4513 1934 F12C      		mov r15,__zero_reg__
 4514               	.L361:
 4515               	.LM488:
 4516 1936 C101      		movw r24,r2
 4517 1938 B701      		movw r22,r14
 4518 193a A601      		movw r20,r12
 4519 193c 0E94 0000 		call get_fat
 4520               	.LVL331:
 4521 1940 9B01      		movw r18,r22
 4522 1942 AC01      		movw r20,r24
 4523               	.LVL332:
 4524               	.LM489:
 4525 1944 6115      		cp r22,__zero_reg__
 4526 1946 7105      		cpc r23,__zero_reg__
 4527 1948 8105      		cpc r24,__zero_reg__
 4528 194a 9105      		cpc r25,__zero_reg__
 4529 194c 01F0      		breq .L363
 4530               	.LVL333:
 4531               	.LM490:
 4532 194e 6F3F      		cpi r22,lo8(-1)
 4533 1950 AFEF      		ldi r26,hi8(-1)
 4534 1952 7A07      		cpc r23,r26
 4535 1954 AFEF      		ldi r26,hlo8(-1)
 4536 1956 8A07      		cpc r24,r26
 4537 1958 AFEF      		ldi r26,hhi8(-1)
 4538 195a 9A07      		cpc r25,r26
 4539 195c 01F4      		brne .+2
 4540 195e 00C0      		rjmp .L360
 4541 1960 6130      		cpi r22,lo8(1)
 4542 1962 7105      		cpc r23,__zero_reg__
 4543 1964 8105      		cpc r24,__zero_reg__
 4544 1966 9105      		cpc r25,__zero_reg__
 4545 1968 01F4      		brne .+2
 4546 196a 00C0      		rjmp .L360
 4547               	.LM491:
 4548 196c C814      		cp r12,r8
 4549 196e D904      		cpc r13,r9
 4550 1970 EA04      		cpc r14,r10
 4551 1972 FB04      		cpc r15,r11
 4552 1974 01F4      		brne .L364
 4553 1976 00C0      		rjmp .L362
 4554               	.L363:
 4555 1978 BC2C      		mov r11,r12
 4556 197a AD2C      		mov r10,r13
 4557               	.LVL334:
 4558 197c 9E2C      		mov r9,r14
 4559               	.LVL335:
 4560 197e 8F2C      		mov r8,r15
 4561               	.LVL336:
 4562               	.LM492:
 4563 1980 C101      		movw r24,r2
 4564 1982 A601      		movw r20,r12
 4565               	.LVL337:
 4566 1984 B701      		movw r22,r14
 4567               	.LVL338:
 4568 1986 0FEF      		ldi r16,lo8(268435455)
 4569 1988 1FEF      		ldi r17,hi8(268435455)
 4570 198a 2FEF      		ldi r18,hlo8(268435455)
 4571 198c 3FE0      		ldi r19,hhi8(268435455)
 4572 198e 0E94 0000 		call put_fat
 4573               	.LVL339:
 4574 1992 8823      		tst r24
 4575 1994 01F4      		brne .L365
 4576               	.LVL340:
 4577               	.LM493:
 4578 1996 4114      		cp r4,__zero_reg__
 4579 1998 5104      		cpc r5,__zero_reg__
 4580 199a 6104      		cpc r6,__zero_reg__
 4581 199c 7104      		cpc r7,__zero_reg__
 4582 199e 01F0      		breq .L366
 4583               	.LM494:
 4584 19a0 C101      		movw r24,r2
 4585 19a2 B301      		movw r22,r6
 4586 19a4 A201      		movw r20,r4
 4587 19a6 8601      		movw r16,r12
 4588 19a8 9701      		movw r18,r14
 4589 19aa 0E94 0000 		call put_fat
 4590 19ae 8823      		tst r24
 4591 19b0 01F4      		brne .L365
 4592               	.L366:
 4593               	.LM495:
 4594 19b2 F101      		movw r30,r2
 4595 19b4 B286      		std Z+10,r11
 4596 19b6 A386      		std Z+11,r10
 4597 19b8 9486      		std Z+12,r9
 4598 19ba 8586      		std Z+13,r8
 4599               	.LM496:
 4600 19bc 8685      		ldd r24,Z+14
 4601 19be 9785      		ldd r25,Z+15
 4602 19c0 A089      		ldd r26,Z+16
 4603 19c2 B189      		ldd r27,Z+17
 4604 19c4 8F3F      		cpi r24,lo8(-1)
 4605 19c6 FFEF      		ldi r31,hi8(-1)
 4606 19c8 9F07      		cpc r25,r31
 4607 19ca FFEF      		ldi r31,hlo8(-1)
 4608 19cc AF07      		cpc r26,r31
 4609 19ce FFEF      		ldi r31,hhi8(-1)
 4610 19d0 BF07      		cpc r27,r31
 4611 19d2 01F0      		breq .L369
 4612               	.L367:
 4613               	.LM497:
 4614 19d4 0197      		sbiw r24,1
 4615 19d6 A109      		sbc r26,__zero_reg__
 4616 19d8 B109      		sbc r27,__zero_reg__
 4617 19da F101      		movw r30,r2
 4618 19dc 8687      		std Z+14,r24
 4619 19de 9787      		std Z+15,r25
 4620 19e0 A08B      		std Z+16,r26
 4621 19e2 B18B      		std Z+17,r27
 4622               	.LM498:
 4623 19e4 81E0      		ldi r24,lo8(1)
 4624 19e6 8583      		std Z+5,r24
 4625               	.L369:
 4626 19e8 A701      		movw r20,r14
 4627 19ea 9601      		movw r18,r12
 4628               	.LVL341:
 4629 19ec 00C0      		rjmp .L360
 4630               	.LVL342:
 4631               	.L362:
 4632 19ee 20E0      		ldi r18,lo8(0)
 4633 19f0 30E0      		ldi r19,hi8(0)
 4634 19f2 40E0      		ldi r20,hlo8(0)
 4635 19f4 50E0      		ldi r21,hhi8(0)
 4636 19f6 00C0      		rjmp .L360
 4637               	.LVL343:
 4638               	.L365:
 4639 19f8 2FEF      		ldi r18,lo8(-1)
 4640 19fa 3FEF      		ldi r19,hi8(-1)
 4641 19fc 4FEF      		ldi r20,hlo8(-1)
 4642 19fe 5FEF      		ldi r21,hhi8(-1)
 4643               	.LVL344:
 4644               	.L360:
 4645               	.LM499:
 4646 1a00 B901      		movw r22,r18
 4647               	.LVL345:
 4648 1a02 CA01      		movw r24,r20
 4649               	/* epilogue start */
 4650 1a04 2496      		adiw r28,4
 4651 1a06 CDBF      		out __SP_L__,r28
 4652 1a08 DEBF      		out __SP_H__,r29
 4653 1a0a CF91      		pop r28
 4654 1a0c DF91      		pop r29
 4655 1a0e 1F91      		pop r17
 4656 1a10 0F91      		pop r16
 4657 1a12 FF90      		pop r15
 4658 1a14 EF90      		pop r14
 4659 1a16 DF90      		pop r13
 4660 1a18 CF90      		pop r12
 4661               	.LVL346:
 4662 1a1a BF90      		pop r11
 4663               	.LVL347:
 4664 1a1c AF90      		pop r10
 4665               	.LVL348:
 4666 1a1e 9F90      		pop r9
 4667               	.LVL349:
 4668 1a20 8F90      		pop r8
 4669               	.LVL350:
 4670 1a22 7F90      		pop r7
 4671 1a24 6F90      		pop r6
 4672 1a26 5F90      		pop r5
 4673 1a28 4F90      		pop r4
 4674               	.LVL351:
 4675 1a2a 3F90      		pop r3
 4676 1a2c 2F90      		pop r2
 4677               	.LVL352:
 4678 1a2e 0895      		ret
 4679               	.LFE51:
 4681               	.global	clust2sect
 4683               	clust2sect:
 4684               	.LFB52:
 4685               	.LM500:
 4686               	.LVL353:
 4687 1a30 EF92      		push r14
 4688 1a32 FF92      		push r15
 4689 1a34 0F93      		push r16
 4690 1a36 1F93      		push r17
 4691 1a38 CF93      		push r28
 4692 1a3a DF93      		push r29
 4693               	/* prologue: function */
 4694               	/* frame size = 0 */
 4695 1a3c EC01      		movw r28,r24
 4696 1a3e 7A01      		movw r14,r20
 4697 1a40 8B01      		movw r16,r22
 4698               	.LM501:
 4699 1a42 8EEF      		ldi r24,lo8(-2)
 4700 1a44 9FEF      		ldi r25,hi8(-2)
 4701 1a46 AFEF      		ldi r26,hlo8(-2)
 4702 1a48 BFEF      		ldi r27,hhi8(-2)
 4703               	.LVL354:
 4704 1a4a E80E      		add r14,r24
 4705 1a4c F91E      		adc r15,r25
 4706 1a4e 0A1F      		adc r16,r26
 4707 1a50 1B1F      		adc r17,r27
 4708               	.LVL355:
 4709               	.LM502:
 4710 1a52 8A8D      		ldd r24,Y+26
 4711 1a54 9B8D      		ldd r25,Y+27
 4712 1a56 AC8D      		ldd r26,Y+28
 4713 1a58 BD8D      		ldd r27,Y+29
 4714 1a5a 0297      		sbiw r24,2
 4715 1a5c A109      		sbc r26,__zero_reg__
 4716 1a5e B109      		sbc r27,__zero_reg__
 4717 1a60 E816      		cp r14,r24
 4718 1a62 F906      		cpc r15,r25
 4719 1a64 0A07      		cpc r16,r26
 4720 1a66 1B07      		cpc r17,r27
 4721 1a68 00F0      		brlo .L371
 4722 1a6a 20E0      		ldi r18,lo8(0)
 4723 1a6c 30E0      		ldi r19,hi8(0)
 4724 1a6e 40E0      		ldi r20,hlo8(0)
 4725 1a70 50E0      		ldi r21,hhi8(0)
 4726 1a72 00C0      		rjmp .L372
 4727               	.L371:
 4728               	.LM503:
 4729 1a74 2A81      		ldd r18,Y+2
 4730 1a76 30E0      		ldi r19,lo8(0)
 4731 1a78 40E0      		ldi r20,lo8(0)
 4732 1a7a 50E0      		ldi r21,hi8(0)
 4733 1a7c C801      		movw r24,r16
 4734 1a7e B701      		movw r22,r14
 4735 1a80 0E94 0000 		call __mulsi3
 4736 1a84 9B01      		movw r18,r22
 4737 1a86 AC01      		movw r20,r24
 4738 1a88 8EA1      		ldd r24,Y+38
 4739 1a8a 9FA1      		ldd r25,Y+39
 4740 1a8c A8A5      		ldd r26,Y+40
 4741 1a8e B9A5      		ldd r27,Y+41
 4742 1a90 280F      		add r18,r24
 4743 1a92 391F      		adc r19,r25
 4744 1a94 4A1F      		adc r20,r26
 4745 1a96 5B1F      		adc r21,r27
 4746               	.L372:
 4747               	.LM504:
 4748 1a98 B901      		movw r22,r18
 4749 1a9a CA01      		movw r24,r20
 4750               	/* epilogue start */
 4751 1a9c DF91      		pop r29
 4752 1a9e CF91      		pop r28
 4753               	.LVL356:
 4754 1aa0 1F91      		pop r17
 4755 1aa2 0F91      		pop r16
 4756 1aa4 FF90      		pop r15
 4757 1aa6 EF90      		pop r14
 4758               	.LVL357:
 4759 1aa8 0895      		ret
 4760               	.LFE52:
 4763               	dir_seek:
 4764               	.LFB53:
 4765               	.LM505:
 4766               	.LVL358:
 4767 1aaa AF92      		push r10
 4768 1aac BF92      		push r11
 4769 1aae CF92      		push r12
 4770 1ab0 DF92      		push r13
 4771 1ab2 EF92      		push r14
 4772 1ab4 FF92      		push r15
 4773 1ab6 0F93      		push r16
 4774 1ab8 1F93      		push r17
 4775 1aba CF93      		push r28
 4776 1abc DF93      		push r29
 4777               	/* prologue: function */
 4778               	/* frame size = 0 */
 4779 1abe 5C01      		movw r10,r24
 4780 1ac0 6B01      		movw r12,r22
 4781               	.LM506:
 4782 1ac2 DC01      		movw r26,r24
 4783 1ac4 1496      		adiw r26,4
 4784 1ac6 6D93      		st X+,r22
 4785 1ac8 7C93      		st X,r23
 4786 1aca 1597      		sbiw r26,4+1
 4787               	.LM507:
 4788 1acc 1696      		adiw r26,6
 4789 1ace 4D91      		ld r20,X+
 4790 1ad0 5D91      		ld r21,X+
 4791 1ad2 6D91      		ld r22,X+
 4792 1ad4 7C91      		ld r23,X
 4793 1ad6 1997      		sbiw r26,6+3
 4794               	.LVL359:
 4795               	.LM508:
 4796 1ad8 4130      		cpi r20,lo8(1)
 4797 1ada 5105      		cpc r21,__zero_reg__
 4798 1adc 6105      		cpc r22,__zero_reg__
 4799 1ade 7105      		cpc r23,__zero_reg__
 4800 1ae0 01F4      		brne .+2
 4801 1ae2 00C0      		rjmp .L375
 4802 1ae4 ED91      		ld r30,X+
 4803 1ae6 FC91      		ld r31,X
 4804 1ae8 828D      		ldd r24,Z+26
 4805 1aea 938D      		ldd r25,Z+27
 4806 1aec A48D      		ldd r26,Z+28
 4807 1aee B58D      		ldd r27,Z+29
 4808               	.LVL360:
 4809 1af0 4817      		cp r20,r24
 4810 1af2 5907      		cpc r21,r25
 4811 1af4 6A07      		cpc r22,r26
 4812 1af6 7B07      		cpc r23,r27
 4813 1af8 00F0      		brlo .+2
 4814 1afa 00C0      		rjmp .L375
 4815               	.LM509:
 4816 1afc 4115      		cp r20,__zero_reg__
 4817 1afe 5105      		cpc r21,__zero_reg__
 4818 1b00 6105      		cpc r22,__zero_reg__
 4819 1b02 7105      		cpc r23,__zero_reg__
 4820 1b04 01F4      		brne .L376
 4821 1b06 8081      		ld r24,Z
 4822 1b08 8330      		cpi r24,lo8(3)
 4823 1b0a 01F4      		brne .L377
 4824               	.LM510:
 4825 1b0c 42A1      		ldd r20,Z+34
 4826 1b0e 53A1      		ldd r21,Z+35
 4827 1b10 64A1      		ldd r22,Z+36
 4828 1b12 75A1      		ldd r23,Z+37
 4829               	.LM511:
 4830 1b14 4115      		cp r20,__zero_reg__
 4831 1b16 5105      		cpc r21,__zero_reg__
 4832 1b18 6105      		cpc r22,__zero_reg__
 4833 1b1a 7105      		cpc r23,__zero_reg__
 4834 1b1c 01F4      		brne .L376
 4835               	.L377:
 4836               	.LM512:
 4837 1b1e F501      		movw r30,r10
 4838 1b20 1286      		std Z+10,__zero_reg__
 4839 1b22 1386      		std Z+11,__zero_reg__
 4840 1b24 1486      		std Z+12,__zero_reg__
 4841 1b26 1586      		std Z+13,__zero_reg__
 4842               	.LM513:
 4843 1b28 0190      		ld __tmp_reg__,Z+
 4844 1b2a F081      		ld r31,Z
 4845 1b2c E02D      		mov r30,__tmp_reg__
 4846 1b2e 8085      		ldd r24,Z+8
 4847 1b30 9185      		ldd r25,Z+9
 4848 1b32 C816      		cp r12,r24
 4849 1b34 D906      		cpc r13,r25
 4850 1b36 00F0      		brlo .+2
 4851 1b38 00C0      		rjmp .L375
 4852               	.LVL361:
 4853               	.LM514:
 4854 1b3a C601      		movw r24,r12
 4855 1b3c 24E0      		ldi r18,4
 4856 1b3e 9695      	1:	lsr r25
 4857 1b40 8795      		ror r24
 4858 1b42 2A95      		dec r18
 4859 1b44 01F4      		brne 1b
 4860 1b46 A0E0      		ldi r26,lo8(0)
 4861 1b48 B0E0      		ldi r27,hi8(0)
 4862 1b4a 22A1      		ldd r18,Z+34
 4863 1b4c 33A1      		ldd r19,Z+35
 4864 1b4e 44A1      		ldd r20,Z+36
 4865 1b50 55A1      		ldd r21,Z+37
 4866 1b52 820F      		add r24,r18
 4867 1b54 931F      		adc r25,r19
 4868 1b56 A41F      		adc r26,r20
 4869 1b58 B51F      		adc r27,r21
 4870 1b5a F501      		movw r30,r10
 4871 1b5c 8687      		std Z+14,r24
 4872 1b5e 9787      		std Z+15,r25
 4873 1b60 A08B      		std Z+16,r26
 4874 1b62 B18B      		std Z+17,r27
 4875 1b64 00C0      		rjmp .L378
 4876               	.LVL362:
 4877               	.L376:
 4878               	.LM515:
 4879 1b66 8281      		ldd r24,Z+2
 4880 1b68 082F      		mov r16,r24
 4881               	.LVL363:
 4882 1b6a 10E0      		ldi r17,lo8(0)
 4883               	.LVL364:
 4884 1b6c 94E0      		ldi r25,4
 4885 1b6e 000F      	1:	lsl r16
 4886 1b70 111F      		rol r17
 4887 1b72 9A95      		dec r25
 4888 1b74 01F4      		brne 1b
 4889               	.LVL365:
 4890 1b76 00C0      		rjmp .L379
 4891               	.LVL366:
 4892               	.L382:
 4893               	.LM516:
 4894 1b78 CE01      		movw r24,r28
 4895 1b7a 0E94 0000 		call get_fat
 4896               	.LVL367:
 4897 1b7e AB01      		movw r20,r22
 4898 1b80 BC01      		movw r22,r24
 4899               	.LVL368:
 4900               	.LM517:
 4901 1b82 4F3F      		cpi r20,lo8(-1)
 4902 1b84 FFEF      		ldi r31,hi8(-1)
 4903 1b86 5F07      		cpc r21,r31
 4904 1b88 FFEF      		ldi r31,hlo8(-1)
 4905 1b8a 6F07      		cpc r22,r31
 4906 1b8c FFEF      		ldi r31,hhi8(-1)
 4907 1b8e 7F07      		cpc r23,r31
 4908 1b90 01F4      		brne .L380
 4909 1b92 81E0      		ldi r24,lo8(1)
 4910 1b94 00C0      		rjmp .L381
 4911               	.L380:
 4912               	.LM518:
 4913 1b96 4230      		cpi r20,lo8(2)
 4914 1b98 5105      		cpc r21,__zero_reg__
 4915 1b9a 6105      		cpc r22,__zero_reg__
 4916 1b9c 7105      		cpc r23,__zero_reg__
 4917 1b9e 00F4      		brsh .+2
 4918 1ba0 00C0      		rjmp .L375
 4919 1ba2 D501      		movw r26,r10
 4920 1ba4 ED91      		ld r30,X+
 4921 1ba6 FC91      		ld r31,X
 4922 1ba8 828D      		ldd r24,Z+26
 4923 1baa 938D      		ldd r25,Z+27
 4924 1bac A48D      		ldd r26,Z+28
 4925 1bae B58D      		ldd r27,Z+29
 4926 1bb0 4817      		cp r20,r24
 4927 1bb2 5907      		cpc r21,r25
 4928 1bb4 6A07      		cpc r22,r26
 4929 1bb6 7B07      		cpc r23,r27
 4930 1bb8 00F0      		brlo .+2
 4931 1bba 00C0      		rjmp .L375
 4932               	.LM519:
 4933 1bbc C01A      		sub r12,r16
 4934 1bbe D10A      		sbc r13,r17
 4935               	.LVL369:
 4936               	.L379:
 4937 1bc0 F501      		movw r30,r10
 4938 1bc2 C081      		ld r28,Z
 4939 1bc4 D181      		ldd r29,Z+1
 4940               	.LM520:
 4941 1bc6 C016      		cp r12,r16
 4942 1bc8 D106      		cpc r13,r17
 4943 1bca 00F4      		brsh .L382
 4944               	.LM521:
 4945 1bcc D501      		movw r26,r10
 4946 1bce 1A96      		adiw r26,10
 4947 1bd0 4D93      		st X+,r20
 4948 1bd2 5D93      		st X+,r21
 4949 1bd4 6D93      		st X+,r22
 4950 1bd6 7C93      		st X,r23
 4951 1bd8 1D97      		sbiw r26,10+3
 4952               	.LBB551:
 4953               	.LBB552:
 4954               	.LM522:
 4955 1bda 8EEF      		ldi r24,lo8(-2)
 4956 1bdc E82E      		mov r14,r24
 4957 1bde 8FEF      		ldi r24,hi8(-2)
 4958 1be0 F82E      		mov r15,r24
 4959 1be2 8FEF      		ldi r24,hlo8(-2)
 4960 1be4 082F      		mov r16,r24
 4961 1be6 8FEF      		ldi r24,hhi8(-2)
 4962 1be8 182F      		mov r17,r24
 4963               	.LVL370:
 4964 1bea E40E      		add r14,r20
 4965 1bec F51E      		adc r15,r21
 4966 1bee 061F      		adc r16,r22
 4967 1bf0 171F      		adc r17,r23
 4968               	.LM523:
 4969 1bf2 8A8D      		ldd r24,Y+26
 4970 1bf4 9B8D      		ldd r25,Y+27
 4971 1bf6 AC8D      		ldd r26,Y+28
 4972 1bf8 BD8D      		ldd r27,Y+29
 4973 1bfa 0297      		sbiw r24,2
 4974 1bfc A109      		sbc r26,__zero_reg__
 4975 1bfe B109      		sbc r27,__zero_reg__
 4976 1c00 E816      		cp r14,r24
 4977 1c02 F906      		cpc r15,r25
 4978 1c04 0A07      		cpc r16,r26
 4979 1c06 1B07      		cpc r17,r27
 4980 1c08 00F0      		brlo .L383
 4981 1c0a 20E0      		ldi r18,lo8(0)
 4982 1c0c 30E0      		ldi r19,hi8(0)
 4983 1c0e 40E0      		ldi r20,hlo8(0)
 4984 1c10 50E0      		ldi r21,hhi8(0)
 4985 1c12 00C0      		rjmp .L384
 4986               	.L383:
 4987               	.LM524:
 4988 1c14 2A81      		ldd r18,Y+2
 4989 1c16 30E0      		ldi r19,lo8(0)
 4990 1c18 40E0      		ldi r20,lo8(0)
 4991 1c1a 50E0      		ldi r21,hi8(0)
 4992               	.LVL371:
 4993 1c1c C801      		movw r24,r16
 4994 1c1e B701      		movw r22,r14
 4995 1c20 0E94 0000 		call __mulsi3
 4996 1c24 9B01      		movw r18,r22
 4997 1c26 AC01      		movw r20,r24
 4998 1c28 8EA1      		ldd r24,Y+38
 4999 1c2a 9FA1      		ldd r25,Y+39
 5000 1c2c A8A5      		ldd r26,Y+40
 5001 1c2e B9A5      		ldd r27,Y+41
 5002 1c30 280F      		add r18,r24
 5003 1c32 391F      		adc r19,r25
 5004 1c34 4A1F      		adc r20,r26
 5005 1c36 5B1F      		adc r21,r27
 5006               	.LVL372:
 5007               	.L384:
 5008               	.LBE552:
 5009               	.LBE551:
 5010               	.LM525:
 5011 1c38 C601      		movw r24,r12
 5012 1c3a 14E0      		ldi r17,4
 5013 1c3c 9695      	1:	lsr r25
 5014 1c3e 8795      		ror r24
 5015 1c40 1A95      		dec r17
 5016 1c42 01F4      		brne 1b
 5017               	.LVL373:
 5018 1c44 A0E0      		ldi r26,lo8(0)
 5019 1c46 B0E0      		ldi r27,hi8(0)
 5020 1c48 280F      		add r18,r24
 5021 1c4a 391F      		adc r19,r25
 5022 1c4c 4A1F      		adc r20,r26
 5023 1c4e 5B1F      		adc r21,r27
 5024 1c50 F501      		movw r30,r10
 5025 1c52 2687      		std Z+14,r18
 5026 1c54 3787      		std Z+15,r19
 5027 1c56 408B      		std Z+16,r20
 5028 1c58 518B      		std Z+17,r21
 5029               	.L378:
 5030               	.LM526:
 5031 1c5a FFE0      		ldi r31,lo8(15)
 5032 1c5c CF22      		and r12,r31
 5033 1c5e DD24      		clr r13
 5034 1c60 B5E0      		ldi r27,5
 5035 1c62 CC0C      	1:	lsl r12
 5036 1c64 DD1C      		rol r13
 5037 1c66 BA95      		dec r27
 5038 1c68 01F4      		brne 1b
 5039 1c6a 8EE2      		ldi r24,lo8(46)
 5040 1c6c 90E0      		ldi r25,hi8(46)
 5041 1c6e C80E      		add r12,r24
 5042 1c70 D91E      		adc r13,r25
 5043 1c72 D501      		movw r26,r10
 5044 1c74 8D91      		ld r24,X+
 5045 1c76 9C91      		ld r25,X
 5046 1c78 1197      		sbiw r26,1
 5047 1c7a 8C0D      		add r24,r12
 5048 1c7c 9D1D      		adc r25,r13
 5049 1c7e 5296      		adiw r26,18
 5050 1c80 8D93      		st X+,r24
 5051 1c82 9C93      		st X,r25
 5052 1c84 5397      		sbiw r26,18+1
 5053 1c86 80E0      		ldi r24,lo8(0)
 5054 1c88 00C0      		rjmp .L381
 5055               	.LVL374:
 5056               	.L375:
 5057               	.LM527:
 5058 1c8a 82E0      		ldi r24,lo8(2)
 5059               	.LVL375:
 5060               	.L381:
 5061               	/* epilogue start */
 5062               	.LM528:
 5063 1c8c DF91      		pop r29
 5064 1c8e CF91      		pop r28
 5065 1c90 1F91      		pop r17
 5066               	.LVL376:
 5067 1c92 0F91      		pop r16
 5068               	.LVL377:
 5069 1c94 FF90      		pop r15
 5070 1c96 EF90      		pop r14
 5071               	.LVL378:
 5072 1c98 DF90      		pop r13
 5073 1c9a CF90      		pop r12
 5074               	.LVL379:
 5075 1c9c BF90      		pop r11
 5076 1c9e AF90      		pop r10
 5077               	.LVL380:
 5078 1ca0 0895      		ret
 5079               	.LFE53:
 5082               	dir_next:
 5083               	.LFB54:
 5084               	.LM529:
 5085               	.LVL381:
 5086 1ca2 4F92      		push r4
 5087 1ca4 5F92      		push r5
 5088 1ca6 6F92      		push r6
 5089 1ca8 7F92      		push r7
 5090 1caa 8F92      		push r8
 5091 1cac 9F92      		push r9
 5092 1cae AF92      		push r10
 5093 1cb0 BF92      		push r11
 5094 1cb2 CF92      		push r12
 5095 1cb4 DF92      		push r13
 5096 1cb6 EF92      		push r14
 5097 1cb8 FF92      		push r15
 5098 1cba 0F93      		push r16
 5099 1cbc 1F93      		push r17
 5100 1cbe CF93      		push r28
 5101 1cc0 DF93      		push r29
 5102               	/* prologue: function */
 5103               	/* frame size = 0 */
 5104 1cc2 EC01      		movw r28,r24
 5105 1cc4 D62E      		mov r13,r22
 5106               	.LM530:
 5107 1cc6 6C80      		ldd r6,Y+4
 5108 1cc8 7D80      		ldd r7,Y+5
 5109               	.LVL382:
 5110 1cca 0894      		sec
 5111 1ccc 611C      		adc r6,__zero_reg__
 5112 1cce 711C      		adc r7,__zero_reg__
 5113               	.LM531:
 5114 1cd0 6114      		cp r6,__zero_reg__
 5115 1cd2 7104      		cpc r7,__zero_reg__
 5116 1cd4 01F4      		brne .+2
 5117 1cd6 00C0      		rjmp .L387
 5118               	.LVL383:
 5119 1cd8 8E85      		ldd r24,Y+14
 5120 1cda 9F85      		ldd r25,Y+15
 5121 1cdc A889      		ldd r26,Y+16
 5122 1cde B989      		ldd r27,Y+17
 5123 1ce0 0097      		sbiw r24,0
 5124 1ce2 A105      		cpc r26,__zero_reg__
 5125 1ce4 B105      		cpc r27,__zero_reg__
 5126 1ce6 01F4      		brne .+2
 5127 1ce8 00C0      		rjmp .L387
 5128               	.LM532:
 5129 1cea 1FE0      		ldi r17,lo8(15)
 5130 1cec 412E      		mov r4,r17
 5131 1cee 512C      		mov r5,__zero_reg__
 5132 1cf0 4620      		and r4,r6
 5133 1cf2 5720      		and r5,r7
 5134 1cf4 4114      		cp r4,__zero_reg__
 5135 1cf6 5104      		cpc r5,__zero_reg__
 5136 1cf8 01F0      		breq .+2
 5137 1cfa 00C0      		rjmp .L388
 5138               	.LM533:
 5139 1cfc 0196      		adiw r24,1
 5140 1cfe A11D      		adc r26,__zero_reg__
 5141 1d00 B11D      		adc r27,__zero_reg__
 5142 1d02 8E87      		std Y+14,r24
 5143 1d04 9F87      		std Y+15,r25
 5144 1d06 A88B      		std Y+16,r26
 5145 1d08 B98B      		std Y+17,r27
 5146               	.LM534:
 5147 1d0a 4A85      		ldd r20,Y+10
 5148 1d0c 5B85      		ldd r21,Y+11
 5149 1d0e 6C85      		ldd r22,Y+12
 5150 1d10 7D85      		ldd r23,Y+13
 5151 1d12 E881      		ld r30,Y
 5152 1d14 F981      		ldd r31,Y+1
 5153 1d16 4115      		cp r20,__zero_reg__
 5154 1d18 5105      		cpc r21,__zero_reg__
 5155 1d1a 6105      		cpc r22,__zero_reg__
 5156 1d1c 7105      		cpc r23,__zero_reg__
 5157 1d1e 01F4      		brne .L389
 5158               	.LM535:
 5159 1d20 8085      		ldd r24,Z+8
 5160 1d22 9185      		ldd r25,Z+9
 5161 1d24 6816      		cp r6,r24
 5162 1d26 7906      		cpc r7,r25
 5163 1d28 00F4      		brsh .+2
 5164 1d2a 00C0      		rjmp .L388
 5165 1d2c 00C0      		rjmp .L387
 5166               	.L389:
 5167               	.LM536:
 5168 1d2e 8281      		ldd r24,Z+2
 5169 1d30 90E0      		ldi r25,lo8(0)
 5170 1d32 0197      		sbiw r24,1
 5171 1d34 9301      		movw r18,r6
 5172 1d36 A4E0      		ldi r26,4
 5173 1d38 3695      	1:	lsr r19
 5174 1d3a 2795      		ror r18
 5175 1d3c AA95      		dec r26
 5176 1d3e 01F4      		brne 1b
 5177 1d40 8223      		and r24,r18
 5178 1d42 9323      		and r25,r19
 5179 1d44 892B      		or r24,r25
 5180 1d46 01F0      		breq .+2
 5181 1d48 00C0      		rjmp .L388
 5182               	.LM537:
 5183 1d4a CF01      		movw r24,r30
 5184 1d4c 0E94 0000 		call get_fat
 5185 1d50 7B01      		movw r14,r22
 5186 1d52 8C01      		movw r16,r24
 5187               	.LVL384:
 5188               	.LM538:
 5189 1d54 6230      		cpi r22,lo8(2)
 5190 1d56 7105      		cpc r23,__zero_reg__
 5191 1d58 8105      		cpc r24,__zero_reg__
 5192 1d5a 9105      		cpc r25,__zero_reg__
 5193 1d5c 00F4      		brsh .+2
 5194 1d5e 00C0      		rjmp .L390
 5195               	.LVL385:
 5196               	.LM539:
 5197 1d60 8FEF      		ldi r24,lo8(-1)
 5198 1d62 E816      		cp r14,r24
 5199 1d64 8FEF      		ldi r24,hi8(-1)
 5200 1d66 F806      		cpc r15,r24
 5201 1d68 8FEF      		ldi r24,hlo8(-1)
 5202 1d6a 0807      		cpc r16,r24
 5203 1d6c 8FEF      		ldi r24,hhi8(-1)
 5204 1d6e 1807      		cpc r17,r24
 5205 1d70 01F4      		brne .+2
 5206 1d72 00C0      		rjmp .L391
 5207               	.LVL386:
 5208               	.LM540:
 5209 1d74 E881      		ld r30,Y
 5210 1d76 F981      		ldd r31,Y+1
 5211 1d78 828D      		ldd r24,Z+26
 5212 1d7a 938D      		ldd r25,Z+27
 5213 1d7c A48D      		ldd r26,Z+28
 5214 1d7e B58D      		ldd r27,Z+29
 5215 1d80 E816      		cp r14,r24
 5216 1d82 F906      		cpc r15,r25
 5217 1d84 0A07      		cpc r16,r26
 5218 1d86 1B07      		cpc r17,r27
 5219 1d88 00F4      		brsh .+2
 5220 1d8a 00C0      		rjmp .L392
 5221               	.LBB553:
 5222               	.LM541:
 5223 1d8c DD20      		tst r13
 5224 1d8e 01F4      		brne .+2
 5225 1d90 00C0      		rjmp .L387
 5226               	.LM542:
 5227 1d92 4A85      		ldd r20,Y+10
 5228 1d94 5B85      		ldd r21,Y+11
 5229 1d96 6C85      		ldd r22,Y+12
 5230 1d98 7D85      		ldd r23,Y+13
 5231 1d9a CF01      		movw r24,r30
 5232 1d9c 0E94 0000 		call create_chain
 5233 1da0 7B01      		movw r14,r22
 5234 1da2 8C01      		movw r16,r24
 5235               	.LM543:
 5236 1da4 6115      		cp r22,__zero_reg__
 5237 1da6 7105      		cpc r23,__zero_reg__
 5238 1da8 8105      		cpc r24,__zero_reg__
 5239 1daa 9105      		cpc r25,__zero_reg__
 5240 1dac 01F4      		brne .L393
 5241               	.LVL387:
 5242 1dae 87E0      		ldi r24,lo8(7)
 5243 1db0 00C0      		rjmp .L394
 5244               	.L393:
 5245               	.LM544:
 5246 1db2 91E0      		ldi r25,lo8(1)
 5247 1db4 E916      		cp r14,r25
 5248 1db6 F104      		cpc r15,__zero_reg__
 5249 1db8 0105      		cpc r16,__zero_reg__
 5250 1dba 1105      		cpc r17,__zero_reg__
 5251 1dbc 01F4      		brne .+2
 5252 1dbe 00C0      		rjmp .L390
 5253               	.LVL388:
 5254               	.LM545:
 5255 1dc0 AFEF      		ldi r26,lo8(-1)
 5256 1dc2 EA16      		cp r14,r26
 5257 1dc4 AFEF      		ldi r26,hi8(-1)
 5258 1dc6 FA06      		cpc r15,r26
 5259 1dc8 AFEF      		ldi r26,hlo8(-1)
 5260 1dca 0A07      		cpc r16,r26
 5261 1dcc AFEF      		ldi r26,hhi8(-1)
 5262 1dce 1A07      		cpc r17,r26
 5263 1dd0 01F4      		brne .+2
 5264 1dd2 00C0      		rjmp .L391
 5265               	.LM546:
 5266 1dd4 8881      		ld r24,Y
 5267 1dd6 9981      		ldd r25,Y+1
 5268 1dd8 40E0      		ldi r20,lo8(0)
 5269 1dda 50E0      		ldi r21,hi8(0)
 5270 1ddc 60E0      		ldi r22,hlo8(0)
 5271 1dde 70E0      		ldi r23,hhi8(0)
 5272 1de0 0E94 0000 		call move_window
 5273 1de4 8823      		tst r24
 5274 1de6 01F0      		breq .+2
 5275 1de8 00C0      		rjmp .L391
 5276               	.LBB554:
 5277               	.LBB555:
 5278               	.LM547:
 5279 1dea E881      		ld r30,Y
 5280 1dec F981      		ldd r31,Y+1
 5281               	.LVL389:
 5282 1dee BE96      		adiw r30,46
 5283 1df0 80E0      		ldi r24,lo8(512)
 5284 1df2 92E0      		ldi r25,hi8(512)
 5285               	.LVL390:
 5286 1df4 00C0      		rjmp .L395
 5287               	.L396:
 5288               	.LM548:
 5289 1df6 1192      		st Z+,__zero_reg__
 5290               	.L395:
 5291 1df8 0197      		sbiw r24,1
 5292 1dfa BFEF      		ldi r27,hi8(-1)
 5293 1dfc 8F3F      		cpi r24,lo8(-1)
 5294 1dfe 9B07      		cpc r25,r27
 5295 1e00 01F4      		brne .L396
 5296               	.LBE555:
 5297               	.LBE554:
 5298               	.LM549:
 5299 1e02 8880      		ld r8,Y
 5300 1e04 9980      		ldd r9,Y+1
 5301               	.LBB556:
 5302               	.LBB557:
 5303               	.LM550:
 5304 1e06 4EEF      		ldi r20,lo8(-2)
 5305 1e08 A42E      		mov r10,r20
 5306 1e0a 4FEF      		ldi r20,hi8(-2)
 5307 1e0c B42E      		mov r11,r20
 5308 1e0e 4FEF      		ldi r20,hlo8(-2)
 5309 1e10 C42E      		mov r12,r20
 5310 1e12 4FEF      		ldi r20,hhi8(-2)
 5311 1e14 D42E      		mov r13,r20
 5312               	.LVL391:
 5313 1e16 AE0C      		add r10,r14
 5314 1e18 BF1C      		adc r11,r15
 5315 1e1a C01E      		adc r12,r16
 5316 1e1c D11E      		adc r13,r17
 5317               	.LM551:
 5318 1e1e F401      		movw r30,r8
 5319               	.LVL392:
 5320 1e20 828D      		ldd r24,Z+26
 5321 1e22 938D      		ldd r25,Z+27
 5322 1e24 A48D      		ldd r26,Z+28
 5323 1e26 B58D      		ldd r27,Z+29
 5324               	.LVL393:
 5325 1e28 0297      		sbiw r24,2
 5326 1e2a A109      		sbc r26,__zero_reg__
 5327 1e2c B109      		sbc r27,__zero_reg__
 5328 1e2e A816      		cp r10,r24
 5329 1e30 B906      		cpc r11,r25
 5330 1e32 CA06      		cpc r12,r26
 5331 1e34 DB06      		cpc r13,r27
 5332 1e36 00F0      		brlo .L397
 5333 1e38 20E0      		ldi r18,lo8(0)
 5334 1e3a 30E0      		ldi r19,hi8(0)
 5335 1e3c 40E0      		ldi r20,hlo8(0)
 5336 1e3e 50E0      		ldi r21,hhi8(0)
 5337 1e40 00C0      		rjmp .L398
 5338               	.L397:
 5339               	.LM552:
 5340 1e42 D401      		movw r26,r8
 5341 1e44 1296      		adiw r26,2
 5342 1e46 2C91      		ld r18,X
 5343 1e48 30E0      		ldi r19,lo8(0)
 5344 1e4a 40E0      		ldi r20,lo8(0)
 5345 1e4c 50E0      		ldi r21,hi8(0)
 5346 1e4e C601      		movw r24,r12
 5347 1e50 B501      		movw r22,r10
 5348 1e52 0E94 0000 		call __mulsi3
 5349 1e56 9B01      		movw r18,r22
 5350 1e58 AC01      		movw r20,r24
 5351 1e5a F401      		movw r30,r8
 5352 1e5c 86A1      		ldd r24,Z+38
 5353 1e5e 97A1      		ldd r25,Z+39
 5354 1e60 A0A5      		ldd r26,Z+40
 5355 1e62 B1A5      		ldd r27,Z+41
 5356 1e64 280F      		add r18,r24
 5357 1e66 391F      		adc r19,r25
 5358 1e68 4A1F      		adc r20,r26
 5359 1e6a 5B1F      		adc r21,r27
 5360               	.L398:
 5361               	.LBE557:
 5362               	.LBE556:
 5363               	.LM553:
 5364 1e6c D401      		movw r26,r8
 5365 1e6e 9A96      		adiw r26,42
 5366 1e70 2D93      		st X+,r18
 5367 1e72 3D93      		st X+,r19
 5368 1e74 4D93      		st X+,r20
 5369 1e76 5C93      		st X,r21
 5370 1e78 9D97      		sbiw r26,42+3
 5371 1e7a DD24      		clr r13
 5372               	.LVL394:
 5373               	.LM554:
 5374 1e7c CC24      		clr r12
 5375 1e7e C394      		inc r12
 5376 1e80 00C0      		rjmp .L399
 5377               	.L400:
 5378 1e82 C482      		std Z+4,r12
 5379               	.LM555:
 5380 1e84 8881      		ld r24,Y
 5381 1e86 9981      		ldd r25,Y+1
 5382 1e88 40E0      		ldi r20,lo8(0)
 5383 1e8a 50E0      		ldi r21,hi8(0)
 5384 1e8c 60E0      		ldi r22,hlo8(0)
 5385 1e8e 70E0      		ldi r23,hhi8(0)
 5386 1e90 0E94 0000 		call move_window
 5387 1e94 8823      		tst r24
 5388 1e96 01F0      		breq .+2
 5389 1e98 00C0      		rjmp .L391
 5390               	.LM556:
 5391 1e9a E881      		ld r30,Y
 5392 1e9c F981      		ldd r31,Y+1
 5393 1e9e 82A5      		ldd r24,Z+42
 5394 1ea0 93A5      		ldd r25,Z+43
 5395 1ea2 A4A5      		ldd r26,Z+44
 5396 1ea4 B5A5      		ldd r27,Z+45
 5397 1ea6 0196      		adiw r24,1
 5398 1ea8 A11D      		adc r26,__zero_reg__
 5399 1eaa B11D      		adc r27,__zero_reg__
 5400 1eac 82A7      		std Z+42,r24
 5401 1eae 93A7      		std Z+43,r25
 5402 1eb0 A4A7      		std Z+44,r26
 5403 1eb2 B5A7      		std Z+45,r27
 5404               	.LM557:
 5405 1eb4 D394      		inc r13
 5406               	.L399:
 5407 1eb6 E881      		ld r30,Y
 5408 1eb8 F981      		ldd r31,Y+1
 5409 1eba 8281      		ldd r24,Z+2
 5410 1ebc D816      		cp r13,r24
 5411 1ebe 00F0      		brlo .L400
 5412               	.LM558:
 5413 1ec0 82A5      		ldd r24,Z+42
 5414 1ec2 93A5      		ldd r25,Z+43
 5415 1ec4 A4A5      		ldd r26,Z+44
 5416 1ec6 B5A5      		ldd r27,Z+45
 5417 1ec8 8D19      		sub r24,r13
 5418 1eca 9109      		sbc r25,__zero_reg__
 5419 1ecc A109      		sbc r26,__zero_reg__
 5420 1ece B109      		sbc r27,__zero_reg__
 5421 1ed0 82A7      		std Z+42,r24
 5422 1ed2 93A7      		std Z+43,r25
 5423 1ed4 A4A7      		std Z+44,r26
 5424 1ed6 B5A7      		std Z+45,r27
 5425               	.LVL395:
 5426               	.L392:
 5427               	.LBE553:
 5428               	.LM559:
 5429 1ed8 EA86      		std Y+10,r14
 5430 1eda FB86      		std Y+11,r15
 5431 1edc 0C87      		std Y+12,r16
 5432 1ede 1D87      		std Y+13,r17
 5433               	.LM560:
 5434 1ee0 C880      		ld r12,Y
 5435 1ee2 D980      		ldd r13,Y+1
 5436               	.LBB558:
 5437               	.LBB559:
 5438               	.LM561:
 5439 1ee4 8EEF      		ldi r24,lo8(-2)
 5440 1ee6 9FEF      		ldi r25,hi8(-2)
 5441 1ee8 AFEF      		ldi r26,hlo8(-2)
 5442 1eea BFEF      		ldi r27,hhi8(-2)
 5443 1eec E80E      		add r14,r24
 5444 1eee F91E      		adc r15,r25
 5445 1ef0 0A1F      		adc r16,r26
 5446 1ef2 1B1F      		adc r17,r27
 5447               	.LVL396:
 5448               	.LM562:
 5449 1ef4 F601      		movw r30,r12
 5450 1ef6 828D      		ldd r24,Z+26
 5451 1ef8 938D      		ldd r25,Z+27
 5452 1efa A48D      		ldd r26,Z+28
 5453 1efc B58D      		ldd r27,Z+29
 5454 1efe 0297      		sbiw r24,2
 5455 1f00 A109      		sbc r26,__zero_reg__
 5456 1f02 B109      		sbc r27,__zero_reg__
 5457 1f04 E816      		cp r14,r24
 5458 1f06 F906      		cpc r15,r25
 5459 1f08 0A07      		cpc r16,r26
 5460 1f0a 1B07      		cpc r17,r27
 5461 1f0c 00F0      		brlo .L401
 5462 1f0e 20E0      		ldi r18,lo8(0)
 5463 1f10 30E0      		ldi r19,hi8(0)
 5464 1f12 40E0      		ldi r20,hlo8(0)
 5465 1f14 50E0      		ldi r21,hhi8(0)
 5466 1f16 00C0      		rjmp .L402
 5467               	.L401:
 5468               	.LM563:
 5469 1f18 D601      		movw r26,r12
 5470 1f1a 1296      		adiw r26,2
 5471 1f1c 2C91      		ld r18,X
 5472 1f1e 30E0      		ldi r19,lo8(0)
 5473 1f20 40E0      		ldi r20,lo8(0)
 5474 1f22 50E0      		ldi r21,hi8(0)
 5475 1f24 C801      		movw r24,r16
 5476 1f26 B701      		movw r22,r14
 5477               	.LVL397:
 5478 1f28 0E94 0000 		call __mulsi3
 5479 1f2c 9B01      		movw r18,r22
 5480 1f2e AC01      		movw r20,r24
 5481 1f30 F601      		movw r30,r12
 5482 1f32 86A1      		ldd r24,Z+38
 5483 1f34 97A1      		ldd r25,Z+39
 5484 1f36 A0A5      		ldd r26,Z+40
 5485 1f38 B1A5      		ldd r27,Z+41
 5486 1f3a 280F      		add r18,r24
 5487 1f3c 391F      		adc r19,r25
 5488 1f3e 4A1F      		adc r20,r26
 5489 1f40 5B1F      		adc r21,r27
 5490               	.LVL398:
 5491               	.L402:
 5492               	.LBE559:
 5493               	.LBE558:
 5494               	.LM564:
 5495 1f42 2E87      		std Y+14,r18
 5496 1f44 3F87      		std Y+15,r19
 5497 1f46 488B      		std Y+16,r20
 5498 1f48 598B      		std Y+17,r21
 5499               	.LVL399:
 5500               	.L388:
 5501               	.LM565:
 5502 1f4a 6C82      		std Y+4,r6
 5503 1f4c 7D82      		std Y+5,r7
 5504               	.LM566:
 5505 1f4e 35E0      		ldi r19,5
 5506 1f50 440C      	1:	lsl r4
 5507 1f52 551C      		rol r5
 5508 1f54 3A95      		dec r19
 5509 1f56 01F4      		brne 1b
 5510 1f58 8EE2      		ldi r24,lo8(46)
 5511 1f5a 90E0      		ldi r25,hi8(46)
 5512 1f5c 480E      		add r4,r24
 5513 1f5e 591E      		adc r5,r25
 5514 1f60 8881      		ld r24,Y
 5515 1f62 9981      		ldd r25,Y+1
 5516 1f64 840D      		add r24,r4
 5517 1f66 951D      		adc r25,r5
 5518 1f68 8A8B      		std Y+18,r24
 5519 1f6a 9B8B      		std Y+19,r25
 5520 1f6c 80E0      		ldi r24,lo8(0)
 5521 1f6e 00C0      		rjmp .L394
 5522               	.LVL400:
 5523               	.L387:
 5524               	.LM567:
 5525 1f70 84E0      		ldi r24,lo8(4)
 5526 1f72 00C0      		rjmp .L394
 5527               	.LVL401:
 5528               	.L390:
 5529 1f74 82E0      		ldi r24,lo8(2)
 5530 1f76 00C0      		rjmp .L394
 5531               	.LVL402:
 5532               	.L391:
 5533 1f78 81E0      		ldi r24,lo8(1)
 5534               	.LVL403:
 5535               	.L394:
 5536               	/* epilogue start */
 5537               	.LM568:
 5538 1f7a DF91      		pop r29
 5539 1f7c CF91      		pop r28
 5540               	.LVL404:
 5541 1f7e 1F91      		pop r17
 5542 1f80 0F91      		pop r16
 5543 1f82 FF90      		pop r15
 5544 1f84 EF90      		pop r14
 5545               	.LVL405:
 5546 1f86 DF90      		pop r13
 5547               	.LVL406:
 5548 1f88 CF90      		pop r12
 5549 1f8a BF90      		pop r11
 5550 1f8c AF90      		pop r10
 5551               	.LVL407:
 5552 1f8e 9F90      		pop r9
 5553 1f90 8F90      		pop r8
 5554 1f92 7F90      		pop r7
 5555 1f94 6F90      		pop r6
 5556               	.LVL408:
 5557 1f96 5F90      		pop r5
 5558 1f98 4F90      		pop r4
 5559 1f9a 0895      		ret
 5560               	.LFE54:
 5563               	dir_read:
 5564               	.LFB56:
 5565               	.LM569:
 5566               	.LVL409:
 5567 1f9c CF93      		push r28
 5568 1f9e DF93      		push r29
 5569               	/* prologue: function */
 5570               	/* frame size = 0 */
 5571 1fa0 EC01      		movw r28,r24
 5572               	.LM570:
 5573 1fa2 94E0      		ldi r25,lo8(4)
 5574               	.LVL410:
 5575 1fa4 00C0      		rjmp .L405
 5576               	.LVL411:
 5577               	.L410:
 5578               	.LM571:
 5579 1fa6 8881      		ld r24,Y
 5580 1fa8 9981      		ldd r25,Y+1
 5581 1faa 0E94 0000 		call move_window
 5582               	.LVL412:
 5583 1fae 982F      		mov r25,r24
 5584               	.LVL413:
 5585               	.LM572:
 5586 1fb0 8823      		tst r24
 5587 1fb2 01F4      		brne .L406
 5588               	.LVL414:
 5589               	.LM573:
 5590 1fb4 EA89      		ldd r30,Y+18
 5591 1fb6 FB89      		ldd r31,Y+19
 5592               	.LVL415:
 5593               	.LM574:
 5594 1fb8 8081      		ld r24,Z
 5595               	.LVL416:
 5596               	.LM575:
 5597 1fba 8823      		tst r24
 5598 1fbc 01F0      		breq .L407
 5599               	.LM576:
 5600 1fbe 853E      		cpi r24,lo8(-27)
 5601 1fc0 01F0      		breq .L408
 5602 1fc2 8E32      		cpi r24,lo8(46)
 5603 1fc4 01F0      		breq .L408
 5604 1fc6 8385      		ldd r24,Z+11
 5605               	.LVL417:
 5606 1fc8 83FF      		sbrs r24,3
 5607 1fca 00C0      		rjmp .L409
 5608               	.LVL418:
 5609               	.L408:
 5610               	.LM577:
 5611 1fcc CE01      		movw r24,r28
 5612               	.LVL419:
 5613 1fce 60E0      		ldi r22,lo8(0)
 5614 1fd0 0E94 0000 		call dir_next
 5615               	.LVL420:
 5616 1fd4 982F      		mov r25,r24
 5617               	.LVL421:
 5618               	.LM578:
 5619 1fd6 8823      		tst r24
 5620 1fd8 01F4      		brne .L406
 5621               	.LVL422:
 5622               	.L405:
 5623               	.LM579:
 5624 1fda 4E85      		ldd r20,Y+14
 5625 1fdc 5F85      		ldd r21,Y+15
 5626 1fde 6889      		ldd r22,Y+16
 5627 1fe0 7989      		ldd r23,Y+17
 5628 1fe2 4115      		cp r20,__zero_reg__
 5629 1fe4 5105      		cpc r21,__zero_reg__
 5630 1fe6 6105      		cpc r22,__zero_reg__
 5631 1fe8 7105      		cpc r23,__zero_reg__
 5632 1fea 01F4      		brne .L410
 5633               	.LM580:
 5634 1fec 9923      		tst r25
 5635 1fee 01F0      		breq .L409
 5636               	.LVL423:
 5637               	.L406:
 5638 1ff0 1E86      		std Y+14,__zero_reg__
 5639 1ff2 1F86      		std Y+15,__zero_reg__
 5640 1ff4 188A      		std Y+16,__zero_reg__
 5641 1ff6 198A      		std Y+17,__zero_reg__
 5642               	.L409:
 5643               	.LM581:
 5644 1ff8 892F      		mov r24,r25
 5645               	.LVL424:
 5646               	/* epilogue start */
 5647 1ffa DF91      		pop r29
 5648 1ffc CF91      		pop r28
 5649               	.LVL425:
 5650 1ffe 0895      		ret
 5651               	.LVL426:
 5652               	.L407:
 5653               	.LM582:
 5654 2000 94E0      		ldi r25,lo8(4)
 5655 2002 00C0      		rjmp .L406
 5656               	.LFE56:
 5659               	dir_register:
 5660               	.LFB57:
 5661               	.LM583:
 5662               	.LVL427:
 5663 2004 CF93      		push r28
 5664 2006 DF93      		push r29
 5665               	/* prologue: function */
 5666               	/* frame size = 0 */
 5667 2008 EC01      		movw r28,r24
 5668               	.LM584:
 5669 200a 60E0      		ldi r22,lo8(0)
 5670 200c 70E0      		ldi r23,hi8(0)
 5671 200e 0E94 0000 		call dir_seek
 5672               	.LVL428:
 5673               	.L424:
 5674 2012 482F      		mov r20,r24
 5675               	.LVL429:
 5676               	.LM585:
 5677 2014 8823      		tst r24
 5678 2016 01F4      		brne .L413
 5679               	.LVL430:
 5680               	.LM586:
 5681 2018 4E85      		ldd r20,Y+14
 5682 201a 5F85      		ldd r21,Y+15
 5683 201c 6889      		ldd r22,Y+16
 5684 201e 7989      		ldd r23,Y+17
 5685 2020 8881      		ld r24,Y
 5686 2022 9981      		ldd r25,Y+1
 5687               	.LVL431:
 5688 2024 0E94 0000 		call move_window
 5689 2028 482F      		mov r20,r24
 5690               	.LVL432:
 5691               	.LM587:
 5692 202a 8823      		tst r24
 5693 202c 01F4      		brne .L413
 5694               	.LVL433:
 5695               	.LM588:
 5696 202e EA89      		ldd r30,Y+18
 5697 2030 FB89      		ldd r31,Y+19
 5698 2032 E081      		ld r30,Z
 5699               	.LVL434:
 5700               	.LM589:
 5701 2034 E53E      		cpi r30,lo8(-27)
 5702 2036 01F0      		breq .L414
 5703 2038 EE23      		tst r30
 5704 203a 01F0      		breq .L414
 5705               	.LM590:
 5706 203c CE01      		movw r24,r28
 5707               	.LVL435:
 5708 203e 61E0      		ldi r22,lo8(1)
 5709 2040 0E94 0000 		call dir_next
 5710               	.LVL436:
 5711 2044 00C0      		rjmp .L424
 5712               	.LVL437:
 5713               	.L420:
 5714               	.LM591:
 5715 2046 6A89      		ldd r22,Y+18
 5716 2048 7B89      		ldd r23,Y+19
 5717               	.LVL438:
 5718 204a FB01      		movw r30,r22
 5719 204c 80E2      		ldi r24,lo8(32)
 5720 204e 90E0      		ldi r25,hi8(32)
 5721               	.LVL439:
 5722 2050 00C0      		rjmp .L416
 5723               	.LVL440:
 5724               	.L417:
 5725               	.LBB560:
 5726               	.LBB561:
 5727               	.LM592:
 5728 2052 1192      		st Z+,__zero_reg__
 5729               	.L416:
 5730 2054 0197      		sbiw r24,1
 5731 2056 2FEF      		ldi r18,hi8(-1)
 5732 2058 8F3F      		cpi r24,lo8(-1)
 5733 205a 9207      		cpc r25,r18
 5734 205c 01F4      		brne .L417
 5735               	.LBE561:
 5736               	.LBE560:
 5737               	.LM593:
 5738 205e 8C89      		ldd r24,Y+20
 5739               	.LVL441:
 5740 2060 9D89      		ldd r25,Y+21
 5741               	.LVL442:
 5742 2062 9C01      		movw r18,r24
 5743               	.LVL443:
 5744 2064 D901      		movw r26,r18
 5745               	.LVL444:
 5746 2066 FB01      		movw r30,r22
 5747 2068 2BE0      		ldi r18,lo8(11)
 5748 206a 30E0      		ldi r19,hi8(11)
 5749               	.LVL445:
 5750 206c 00C0      		rjmp .L418
 5751               	.L419:
 5752               	.LBB562:
 5753               	.LBB563:
 5754               	.LM594:
 5755 206e 8D91      		ld r24,X+
 5756 2070 8193      		st Z+,r24
 5757               	.L418:
 5758 2072 2150      		subi r18,lo8(-(-1))
 5759 2074 3040      		sbci r19,hi8(-(-1))
 5760 2076 8FEF      		ldi r24,hi8(-1)
 5761 2078 2F3F      		cpi r18,lo8(-1)
 5762 207a 3807      		cpc r19,r24
 5763 207c 01F4      		brne .L419
 5764               	.LBE563:
 5765               	.LBE562:
 5766               	.LM595:
 5767 207e EC89      		ldd r30,Y+20
 5768 2080 FD89      		ldd r31,Y+21
 5769               	.LVL446:
 5770 2082 8385      		ldd r24,Z+11
 5771 2084 8871      		andi r24,lo8(24)
 5772 2086 FB01      		movw r30,r22
 5773 2088 8487      		std Z+12,r24
 5774               	.LM596:
 5775 208a E881      		ld r30,Y
 5776 208c F981      		ldd r31,Y+1
 5777 208e 81E0      		ldi r24,lo8(1)
 5778 2090 8483      		std Z+4,r24
 5779               	.LVL447:
 5780               	.L413:
 5781               	.LM597:
 5782 2092 842F      		mov r24,r20
 5783               	/* epilogue start */
 5784 2094 DF91      		pop r29
 5785 2096 CF91      		pop r28
 5786               	.LVL448:
 5787 2098 0895      		ret
 5788               	.LVL449:
 5789               	.L414:
 5790               	.LM598:
 5791 209a 4E85      		ldd r20,Y+14
 5792 209c 5F85      		ldd r21,Y+15
 5793 209e 6889      		ldd r22,Y+16
 5794 20a0 7989      		ldd r23,Y+17
 5795 20a2 8881      		ld r24,Y
 5796 20a4 9981      		ldd r25,Y+1
 5797               	.LVL450:
 5798 20a6 0E94 0000 		call move_window
 5799               	.LVL451:
 5800 20aa 482F      		mov r20,r24
 5801               	.LVL452:
 5802               	.LM599:
 5803 20ac 8823      		tst r24
 5804 20ae 01F0      		breq .L420
 5805               	.LVL453:
 5806 20b0 00C0      		rjmp .L413
 5807               	.LFE57:
 5810               	dir_remove:
 5811               	.LFB58:
 5812               	.LM600:
 5813               	.LVL454:
 5814 20b2 CF93      		push r28
 5815 20b4 DF93      		push r29
 5816               	/* prologue: function */
 5817               	/* frame size = 0 */
 5818 20b6 EC01      		movw r28,r24
 5819               	.LM601:
 5820 20b8 6C81      		ldd r22,Y+4
 5821 20ba 7D81      		ldd r23,Y+5
 5822 20bc 0E94 0000 		call dir_seek
 5823               	.LVL455:
 5824 20c0 982F      		mov r25,r24
 5825               	.LVL456:
 5826               	.LM602:
 5827 20c2 8823      		tst r24
 5828 20c4 01F4      		brne .L426
 5829               	.LVL457:
 5830               	.LM603:
 5831 20c6 4E85      		ldd r20,Y+14
 5832 20c8 5F85      		ldd r21,Y+15
 5833 20ca 6889      		ldd r22,Y+16
 5834 20cc 7989      		ldd r23,Y+17
 5835 20ce 8881      		ld r24,Y
 5836 20d0 9981      		ldd r25,Y+1
 5837               	.LVL458:
 5838 20d2 0E94 0000 		call move_window
 5839               	.LVL459:
 5840 20d6 982F      		mov r25,r24
 5841               	.LVL460:
 5842               	.LM604:
 5843 20d8 8823      		tst r24
 5844 20da 01F4      		brne .L426
 5845               	.LVL461:
 5846               	.LM605:
 5847 20dc EA89      		ldd r30,Y+18
 5848 20de FB89      		ldd r31,Y+19
 5849 20e0 85EE      		ldi r24,lo8(-27)
 5850               	.LVL462:
 5851 20e2 8083      		st Z,r24
 5852               	.LM606:
 5853 20e4 E881      		ld r30,Y
 5854 20e6 F981      		ldd r31,Y+1
 5855 20e8 81E0      		ldi r24,lo8(1)
 5856 20ea 8483      		std Z+4,r24
 5857               	.LVL463:
 5858               	.L426:
 5859               	.LM607:
 5860 20ec 892F      		mov r24,r25
 5861               	/* epilogue start */
 5862 20ee DF91      		pop r29
 5863 20f0 CF91      		pop r28
 5864               	.LVL464:
 5865 20f2 0895      		ret
 5866               	.LFE58:
 5869               	get_fileinfo:
 5870               	.LFB60:
 5871               	.LM608:
 5872               	.LVL465:
 5873 20f4 EF92      		push r14
 5874 20f6 FF92      		push r15
 5875 20f8 0F93      		push r16
 5876 20fa 1F93      		push r17
 5877 20fc CF93      		push r28
 5878 20fe DF93      		push r29
 5879               	/* prologue: function */
 5880               	/* frame size = 0 */
 5881 2100 FC01      		movw r30,r24
 5882 2102 7B01      		movw r14,r22
 5883               	.LM609:
 5884 2104 EB01      		movw r28,r22
 5885               	.LVL466:
 5886 2106 2996      		adiw r28,9
 5887               	.LM610:
 5888 2108 8685      		ldd r24,Z+14
 5889 210a 9785      		ldd r25,Z+15
 5890 210c A089      		ldd r26,Z+16
 5891 210e B189      		ldd r27,Z+17
 5892               	.LVL467:
 5893 2110 0097      		sbiw r24,0
 5894 2112 A105      		cpc r26,__zero_reg__
 5895 2114 B105      		cpc r27,__zero_reg__
 5896 2116 01F4      		brne .+2
 5897 2118 00C0      		rjmp .L429
 5898               	.LM611:
 5899 211a 6289      		ldd r22,Z+18
 5900 211c 7389      		ldd r23,Z+19
 5901               	.LVL468:
 5902 211e 80E0      		ldi r24,lo8(0)
 5903 2120 90E0      		ldi r25,hi8(0)
 5904               	.LVL469:
 5905               	.L432:
 5906               	.LM612:
 5907 2122 FB01      		movw r30,r22
 5908               	.LVL470:
 5909 2124 E80F      		add r30,r24
 5910 2126 F91F      		adc r31,r25
 5911 2128 E081      		ld r30,Z
 5912               	.LVL471:
 5913               	.LM613:
 5914 212a E032      		cpi r30,lo8(32)
 5915 212c 01F0      		breq .L430
 5916               	.LM614:
 5917 212e E530      		cpi r30,lo8(5)
 5918 2130 01F4      		brne .L431
 5919 2132 E5EE      		ldi r30,lo8(-27)
 5920               	.L431:
 5921               	.LM615:
 5922 2134 E993      		st Y+,r30
 5923               	.LM616:
 5924 2136 0196      		adiw r24,1
 5925 2138 8830      		cpi r24,8
 5926 213a 9105      		cpc r25,__zero_reg__
 5927 213c 01F4      		brne .L432
 5928               	.L430:
 5929               	.LM617:
 5930 213e DB01      		movw r26,r22
 5931 2140 1896      		adiw r26,8
 5932 2142 8C91      		ld r24,X
 5933               	.LVL472:
 5934 2144 8032      		cpi r24,lo8(32)
 5935 2146 01F4      		brne .L433
 5936 2148 8E01      		movw r16,r28
 5937 214a 00C0      		rjmp .L434
 5938               	.LVL473:
 5939               	.L433:
 5940               	.LM618:
 5941 214c 8EE2      		ldi r24,lo8(46)
 5942 214e FE01      		movw r30,r28
 5943               	.LVL474:
 5944 2150 8193      		st Z+,r24
 5945 2152 8F01      		movw r16,r30
 5946               	.LVL475:
 5947 2154 FB01      		movw r30,r22
 5948               	.LM619:
 5949 2156 9E01      		movw r18,r28
 5950 2158 2C5F      		subi r18,lo8(-(4))
 5951 215a 3F4F      		sbci r19,hi8(-(4))
 5952               	.LVL476:
 5953               	.L435:
 5954               	.LM620:
 5955 215c 8085      		ldd r24,Z+8
 5956               	.LM621:
 5957 215e 8032      		cpi r24,lo8(32)
 5958 2160 01F0      		breq .L434
 5959               	.LM622:
 5960 2162 D801      		movw r26,r16
 5961 2164 8D93      		st X+,r24
 5962 2166 8D01      		movw r16,r26
 5963 2168 3196      		adiw r30,1
 5964               	.LM623:
 5965 216a A217      		cp r26,r18
 5966 216c B307      		cpc r27,r19
 5967 216e 01F4      		brne .L435
 5968               	.LVL477:
 5969               	.L434:
 5970               	.LM624:
 5971 2170 FB01      		movw r30,r22
 5972 2172 8385      		ldd r24,Z+11
 5973               	.LVL478:
 5974 2174 D701      		movw r26,r14
 5975 2176 1896      		adiw r26,8
 5976 2178 8C93      		st X,r24
 5977               	.LM625:
 5978 217a 278D      		ldd r18,Z+31
 5979 217c 30E0      		ldi r19,lo8(0)
 5980 217e 40E0      		ldi r20,lo8(0)
 5981 2180 50E0      		ldi r21,hi8(0)
 5982 2182 522F      		mov r21,r18
 5983 2184 4427      		clr r20
 5984 2186 3327      		clr r19
 5985 2188 2227      		clr r18
 5986 218a 868D      		ldd r24,Z+30
 5987 218c 90E0      		ldi r25,lo8(0)
 5988 218e A0E0      		ldi r26,lo8(0)
 5989 2190 B0E0      		ldi r27,hi8(0)
 5990 2192 DC01      		movw r26,r24
 5991 2194 9927      		clr r25
 5992 2196 8827      		clr r24
 5993 2198 282B      		or r18,r24
 5994 219a 392B      		or r19,r25
 5995 219c 4A2B      		or r20,r26
 5996 219e 5B2B      		or r21,r27
 5997 21a0 848D      		ldd r24,Z+28
 5998 21a2 90E0      		ldi r25,lo8(0)
 5999 21a4 A0E0      		ldi r26,lo8(0)
 6000 21a6 B0E0      		ldi r27,hi8(0)
 6001 21a8 282B      		or r18,r24
 6002 21aa 392B      		or r19,r25
 6003 21ac 4A2B      		or r20,r26
 6004 21ae 5B2B      		or r21,r27
 6005 21b0 958D      		ldd r25,Z+29
 6006 21b2 80E0      		ldi r24,lo8(0)
 6007 21b4 A0E0      		ldi r26,lo8(0)
 6008 21b6 B0E0      		ldi r27,hi8(0)
 6009 21b8 282B      		or r18,r24
 6010 21ba 392B      		or r19,r25
 6011 21bc 4A2B      		or r20,r26
 6012 21be 5B2B      		or r21,r27
 6013 21c0 F701      		movw r30,r14
 6014 21c2 2083      		st Z,r18
 6015 21c4 3183      		std Z+1,r19
 6016 21c6 4283      		std Z+2,r20
 6017 21c8 5383      		std Z+3,r21
 6018               	.LM626:
 6019 21ca DB01      		movw r26,r22
 6020 21cc 5996      		adiw r26,25
 6021 21ce 9C91      		ld r25,X
 6022 21d0 5997      		sbiw r26,25
 6023 21d2 80E0      		ldi r24,lo8(0)
 6024 21d4 5896      		adiw r26,24
 6025 21d6 2C91      		ld r18,X
 6026 21d8 5897      		sbiw r26,24
 6027 21da 30E0      		ldi r19,lo8(0)
 6028 21dc 822B      		or r24,r18
 6029 21de 932B      		or r25,r19
 6030 21e0 8483      		std Z+4,r24
 6031 21e2 9583      		std Z+5,r25
 6032               	.LM627:
 6033 21e4 5796      		adiw r26,23
 6034 21e6 9C91      		ld r25,X
 6035 21e8 5797      		sbiw r26,23
 6036 21ea 80E0      		ldi r24,lo8(0)
 6037 21ec 5696      		adiw r26,22
 6038 21ee 2C91      		ld r18,X
 6039 21f0 30E0      		ldi r19,lo8(0)
 6040 21f2 822B      		or r24,r18
 6041 21f4 932B      		or r25,r19
 6042 21f6 8683      		std Z+6,r24
 6043 21f8 9783      		std Z+7,r25
 6044 21fa E801      		movw r28,r16
 6045               	.LVL479:
 6046               	.L429:
 6047               	.LM628:
 6048 21fc 1882      		st Y,__zero_reg__
 6049               	/* epilogue start */
 6050               	.LM629:
 6051 21fe DF91      		pop r29
 6052 2200 CF91      		pop r28
 6053               	.LVL480:
 6054 2202 1F91      		pop r17
 6055 2204 0F91      		pop r16
 6056               	.LVL481:
 6057 2206 FF90      		pop r15
 6058 2208 EF90      		pop r14
 6059               	.LVL482:
 6060 220a 0895      		ret
 6061               	.LFE60:
 6063               		.data
 6064               	.LC0:
 6065 0000 2022 2A2B 		.string	" \"*+,[=]|\177"
 6065      2C5B 3D5D 
 6065      7C7F 00
 6066               		.text
 6068               	follow_path:
 6069               	.LFB61:
 6070               	.LM630:
 6071               	.LVL483:
 6072 220c 5F92      		push r5
 6073 220e 6F92      		push r6
 6074 2210 7F92      		push r7
 6075 2212 8F92      		push r8
 6076 2214 9F92      		push r9
 6077 2216 AF92      		push r10
 6078 2218 BF92      		push r11
 6079 221a CF92      		push r12
 6080 221c DF92      		push r13
 6081 221e EF92      		push r14
 6082 2220 FF92      		push r15
 6083 2222 0F93      		push r16
 6084 2224 1F93      		push r17
 6085 2226 CF93      		push r28
 6086 2228 DF93      		push r29
 6087               	/* prologue: function */
 6088               	/* frame size = 0 */
 6089 222a EC01      		movw r28,r24
 6090 222c 7B01      		movw r14,r22
 6091 222e 00C0      		rjmp .L440
 6092               	.LVL484:
 6093               	.L441:
 6094               	.LM631:
 6095 2230 0894      		sec
 6096 2232 E11C      		adc r14,__zero_reg__
 6097 2234 F11C      		adc r15,__zero_reg__
 6098               	.LVL485:
 6099               	.L440:
 6100 2236 F701      		movw r30,r14
 6101 2238 8081      		ld r24,Z
 6102 223a 8032      		cpi r24,lo8(32)
 6103 223c 01F0      		breq .L441
 6104               	.LM632:
 6105 223e 8F32      		cpi r24,lo8(47)
 6106 2240 01F0      		breq .L442
 6107 2242 8C35      		cpi r24,lo8(92)
 6108 2244 01F4      		brne .L443
 6109               	.L442:
 6110               	.LM633:
 6111 2246 0894      		sec
 6112 2248 E11C      		adc r14,__zero_reg__
 6113 224a F11C      		adc r15,__zero_reg__
 6114               	.LVL486:
 6115               	.L443:
 6116               	.LM634:
 6117 224c 1E82      		std Y+6,__zero_reg__
 6118 224e 1F82      		std Y+7,__zero_reg__
 6119 2250 1886      		std Y+8,__zero_reg__
 6120 2252 1986      		std Y+9,__zero_reg__
 6121               	.LM635:
 6122 2254 F701      		movw r30,r14
 6123 2256 8081      		ld r24,Z
 6124 2258 8032      		cpi r24,lo8(32)
 6125 225a 00F4      		brsh .L444
 6126               	.LM636:
 6127 225c CE01      		movw r24,r28
 6128 225e 60E0      		ldi r22,lo8(0)
 6129 2260 70E0      		ldi r23,hi8(0)
 6130 2262 0E94 0000 		call dir_seek
 6131               	.LM637:
 6132 2266 1A8A      		std Y+18,__zero_reg__
 6133 2268 1B8A      		std Y+19,__zero_reg__
 6134 226a 00C0      		rjmp .L445
 6135               	.LVL487:
 6136               	.L444:
 6137               	.LBB564:
 6138               	.LBB565:
 6139               	.LBB569:
 6140               	.LBB570:
 6141               	.LM638:
 6142 226c 00E2      		ldi r16,lo8(32)
 6143               	.LBE570:
 6144               	.LBE569:
 6145               	.LM639:
 6146 226e 45E0      		ldi r20,lo8(5)
 6147 2270 542E      		mov r5,r20
 6148               	.LVL488:
 6149               	.L480:
 6150               	.LM640:
 6151 2272 AC89      		ldd r26,Y+20
 6152 2274 BD89      		ldd r27,Y+21
 6153               	.LVL489:
 6154 2276 FD01      		movw r30,r26
 6155               	.LVL490:
 6156 2278 8BE0      		ldi r24,lo8(11)
 6157 227a 90E0      		ldi r25,hi8(11)
 6158               	.LVL491:
 6159 227c 00C0      		rjmp .L446
 6160               	.LVL492:
 6161               	.L447:
 6162               	.LBB568:
 6163               	.LBB571:
 6164               	.LM641:
 6165 227e 0193      		st Z+,r16
 6166               	.L446:
 6167 2280 0197      		sbiw r24,1
 6168 2282 2FEF      		ldi r18,hi8(-1)
 6169 2284 8F3F      		cpi r24,lo8(-1)
 6170 2286 9207      		cpc r25,r18
 6171 2288 01F4      		brne .L447
 6172 228a 40E0      		ldi r20,lo8(0)
 6173 228c 50E0      		ldi r21,hi8(0)
 6174               	.LVL493:
 6175 228e CC24      		clr r12
 6176 2290 DD24      		clr r13
 6177 2292 38E0      		ldi r19,lo8(8)
 6178 2294 A32E      		mov r10,r19
 6179 2296 B12C      		mov r11,__zero_reg__
 6180 2298 10E0      		ldi r17,lo8(0)
 6181               	.LVL494:
 6182               	.L479:
 6183               	.LBE571:
 6184               	.LBE568:
 6185               	.LM642:
 6186 229a F701      		movw r30,r14
 6187 229c EC0D      		add r30,r12
 6188 229e FD1D      		adc r31,r13
 6189 22a0 2081      		ld r18,Z
 6190 22a2 0894      		sec
 6191 22a4 C11C      		adc r12,__zero_reg__
 6192 22a6 D11C      		adc r13,__zero_reg__
 6193               	.LM643:
 6194 22a8 2132      		cpi r18,lo8(33)
 6195 22aa 00F4      		brsh .+2
 6196 22ac 00C0      		rjmp .L448
 6197 22ae 2F32      		cpi r18,lo8(47)
 6198 22b0 01F4      		brne .+2
 6199 22b2 00C0      		rjmp .L449
 6200 22b4 2C35      		cpi r18,lo8(92)
 6201 22b6 01F4      		brne .+2
 6202 22b8 00C0      		rjmp .L449
 6203               	.LM644:
 6204 22ba 2E32      		cpi r18,lo8(46)
 6205 22bc 01F0      		breq .L450
 6206 22be 4A15      		cp r20,r10
 6207 22c0 5B05      		cpc r21,r11
 6208 22c2 04F0      		brlt .L451
 6209               	.L450:
 6210               	.LM645:
 6211 22c4 88E0      		ldi r24,lo8(8)
 6212 22c6 A816      		cp r10,r24
 6213 22c8 B104      		cpc r11,__zero_reg__
 6214               	.LVL495:
 6215 22ca 01F0      		breq .+2
 6216 22cc 00C0      		rjmp .L452
 6217 22ce 2E32      		cpi r18,lo8(46)
 6218 22d0 01F0      		breq .+2
 6219 22d2 00C0      		rjmp .L452
 6220               	.LM646:
 6221 22d4 110F      		lsl r17
 6222 22d6 110F      		lsl r17
 6223 22d8 48E0      		ldi r20,lo8(8)
 6224 22da 50E0      		ldi r21,hi8(8)
 6225 22dc 2BE0      		ldi r18,lo8(11)
 6226 22de A22E      		mov r10,r18
 6227 22e0 B12C      		mov r11,__zero_reg__
 6228               	.LVL496:
 6229 22e2 00C0      		rjmp .L479
 6230               	.LVL497:
 6231               	.L451:
 6232               	.LM647:
 6233 22e4 27FD      		sbrc r18,7
 6234               	.LM648:
 6235 22e6 1360      		ori r17,lo8(3)
 6236               	.L454:
 6237               	.LM649:
 6238 22e8 822F      		mov r24,r18
 6239               	.LVL498:
 6240 22ea 8158      		subi r24,lo8(-(127))
 6241 22ec 8F31      		cpi r24,lo8(31)
 6242 22ee 00F0      		brlo .L455
 6243 22f0 8F55      		subi r24,lo8(-(-95))
 6244 22f2 8D31      		cpi r24,lo8(29)
 6245 22f4 00F4      		brsh .L456
 6246               	.L455:
 6247               	.LM650:
 6248 22f6 F701      		movw r30,r14
 6249 22f8 EC0D      		add r30,r12
 6250 22fa FD1D      		adc r31,r13
 6251 22fc 3081      		ld r19,Z
 6252               	.LM651:
 6253 22fe 832F      		mov r24,r19
 6254 2300 8054      		subi r24,lo8(-(-64))
 6255 2302 8F33      		cpi r24,lo8(63)
 6256 2304 00F0      		brlo .L457
 6257 2306 8054      		subi r24,lo8(-(-64))
 6258 2308 8D37      		cpi r24,lo8(125)
 6259 230a 00F0      		brlo .+2
 6260 230c 00C0      		rjmp .L452
 6261               	.L457:
 6262 230e C501      		movw r24,r10
 6263 2310 0197      		sbiw r24,1
 6264 2312 4817      		cp r20,r24
 6265 2314 5907      		cpc r21,r25
 6266 2316 04F0      		brlt .+2
 6267 2318 00C0      		rjmp .L452
 6268               	.LM652:
 6269 231a 0894      		sec
 6270 231c C11C      		adc r12,__zero_reg__
 6271 231e D11C      		adc r13,__zero_reg__
 6272               	.LM653:
 6273 2320 FD01      		movw r30,r26
 6274 2322 E40F      		add r30,r20
 6275 2324 F51F      		adc r31,r21
 6276 2326 2083      		st Z,r18
 6277 2328 CA01      		movw r24,r20
 6278 232a 0196      		adiw r24,1
 6279               	.LVL499:
 6280               	.LM654:
 6281 232c FD01      		movw r30,r26
 6282 232e E80F      		add r30,r24
 6283 2330 F91F      		adc r31,r25
 6284 2332 3083      		st Z,r19
 6285 2334 AC01      		movw r20,r24
 6286 2336 00C0      		rjmp .L481
 6287               	.LVL500:
 6288               	.L456:
 6289               	.LM655:
 6290 2338 622F      		mov r22,r18
 6291 233a 70E0      		ldi r23,lo8(0)
 6292 233c E0E0      		ldi r30,lo8(.LC0)
 6293 233e F0E0      		ldi r31,hi8(.LC0)
 6294               	.LVL501:
 6295 2340 00C0      		rjmp .L458
 6296               	.L460:
 6297               	.LBB566:
 6298               	.LBB567:
 6299               	.LM656:
 6300 2342 3196      		adiw r30,1
 6301               	.L458:
 6302 2344 8081      		ld r24,Z
 6303 2346 8823      		tst r24
 6304 2348 01F0      		breq .L459
 6305 234a 90E0      		ldi r25,lo8(0)
 6306 234c 8617      		cp r24,r22
 6307 234e 9707      		cpc r25,r23
 6308 2350 01F4      		brne .L460
 6309 2352 00C0      		rjmp .L452
 6310               	.L459:
 6311               	.LBE567:
 6312               	.LBE566:
 6313               	.LM657:
 6314 2354 822F      		mov r24,r18
 6315 2356 8154      		subi r24,lo8(-(-65))
 6316 2358 8A31      		cpi r24,lo8(26)
 6317 235a 00F4      		brsh .L461
 6318               	.LM658:
 6319 235c 1260      		ori r17,lo8(2)
 6320 235e 00C0      		rjmp .L462
 6321               	.L461:
 6322               	.LM659:
 6323 2360 822F      		mov r24,r18
 6324 2362 8156      		subi r24,lo8(-(-97))
 6325 2364 8A31      		cpi r24,lo8(26)
 6326 2366 00F4      		brsh .L462
 6327               	.LM660:
 6328 2368 1160      		ori r17,lo8(1)
 6329 236a 2052      		subi r18,lo8(-(-32))
 6330               	.L462:
 6331               	.LM661:
 6332 236c FD01      		movw r30,r26
 6333               	.LVL502:
 6334 236e E40F      		add r30,r20
 6335 2370 F51F      		adc r31,r21
 6336 2372 2083      		st Z,r18
 6337               	.LVL503:
 6338               	.L481:
 6339 2374 4F5F      		subi r20,lo8(-(1))
 6340 2376 5F4F      		sbci r21,hi8(-(1))
 6341 2378 00C0      		rjmp .L479
 6342               	.LVL504:
 6343               	.L448:
 6344 237a 912F      		mov r25,r17
 6345 237c 64E0      		ldi r22,lo8(4)
 6346               	.LVL505:
 6347               	.L475:
 6348               	.LM662:
 6349 237e 452B      		or r20,r21
 6350 2380 01F4      		brne .+2
 6351 2382 00C0      		rjmp .L452
 6352               	.LM663:
 6353 2384 8C91      		ld r24,X
 6354               	.LVL506:
 6355 2386 853E      		cpi r24,lo8(-27)
 6356 2388 01F4      		brne .L463
 6357 238a 5C92      		st X,r5
 6358               	.L463:
 6359               	.LM664:
 6360 238c E8E0      		ldi r30,lo8(8)
 6361 238e AE16      		cp r10,r30
 6362 2390 B104      		cpc r11,__zero_reg__
 6363 2392 01F4      		brne .L464
 6364 2394 912F      		mov r25,r17
 6365 2396 990F      		lsl r25
 6366 2398 990F      		lsl r25
 6367               	.LVL507:
 6368               	.L464:
 6369               	.LM665:
 6370 239a 292F      		mov r18,r25
 6371 239c 30E0      		ldi r19,lo8(0)
 6372               	.LVL508:
 6373 239e C901      		movw r24,r18
 6374 23a0 8370      		andi r24,lo8(3)
 6375 23a2 9070      		andi r25,hi8(3)
 6376 23a4 0197      		sbiw r24,1
 6377 23a6 01F4      		brne .L465
 6378 23a8 6061      		ori r22,lo8(16)
 6379               	.L465:
 6380               	.LM666:
 6381 23aa 2C70      		andi r18,lo8(12)
 6382 23ac 3070      		andi r19,hi8(12)
 6383 23ae 2430      		cpi r18,4
 6384 23b0 3105      		cpc r19,__zero_reg__
 6385 23b2 01F4      		brne .L466
 6386 23b4 6860      		ori r22,lo8(8)
 6387               	.L466:
 6388               	.LM667:
 6389 23b6 1B96      		adiw r26,11
 6390 23b8 6C93      		st X,r22
 6391               	.LBE565:
 6392               	.LBE564:
 6393               	.LBB573:
 6394               	.LM668:
 6395 23ba CE01      		movw r24,r28
 6396 23bc 60E0      		ldi r22,lo8(0)
 6397 23be 70E0      		ldi r23,hi8(0)
 6398               	.LVL509:
 6399 23c0 0E94 0000 		call dir_seek
 6400               	.LVL510:
 6401               	.L482:
 6402 23c4 482F      		mov r20,r24
 6403               	.LVL511:
 6404               	.LBB574:
 6405               	.LM669:
 6406 23c6 8823      		tst r24
 6407 23c8 01F4      		brne .L467
 6408               	.LVL512:
 6409               	.LBE574:
 6410               	.LM670:
 6411 23ca 4E85      		ldd r20,Y+14
 6412 23cc 5F85      		ldd r21,Y+15
 6413 23ce 6889      		ldd r22,Y+16
 6414 23d0 7989      		ldd r23,Y+17
 6415 23d2 8881      		ld r24,Y
 6416 23d4 9981      		ldd r25,Y+1
 6417               	.LVL513:
 6418 23d6 0E94 0000 		call move_window
 6419 23da 482F      		mov r20,r24
 6420               	.LVL514:
 6421               	.LBB577:
 6422               	.LM671:
 6423 23dc 8823      		tst r24
 6424 23de 01F4      		brne .L467
 6425               	.LVL515:
 6426               	.LM672:
 6427 23e0 EA89      		ldd r30,Y+18
 6428 23e2 FB89      		ldd r31,Y+19
 6429               	.LVL516:
 6430               	.LM673:
 6431 23e4 8081      		ld r24,Z
 6432               	.LVL517:
 6433 23e6 8823      		tst r24
 6434 23e8 01F4      		brne .L468
 6435 23ea 44E0      		ldi r20,lo8(4)
 6436 23ec 00C0      		rjmp .L467
 6437               	.L468:
 6438               	.LM674:
 6439 23ee 8385      		ldd r24,Z+11
 6440 23f0 83FD      		sbrc r24,3
 6441 23f2 00C0      		rjmp .L469
 6442 23f4 DF01      		movw r26,r30
 6443               	.LVL518:
 6444 23f6 8C89      		ldd r24,Y+20
 6445               	.LVL519:
 6446 23f8 9D89      		ldd r25,Y+21
 6447               	.LVL520:
 6448 23fa 9C01      		movw r18,r24
 6449               	.LVL521:
 6450 23fc F901      		movw r30,r18
 6451               	.LVL522:
 6452 23fe 2BE0      		ldi r18,lo8(11)
 6453 2400 30E0      		ldi r19,hi8(11)
 6454               	.LVL523:
 6455               	.L470:
 6456               	.LBB575:
 6457               	.LBB576:
 6458               	.LM675:
 6459 2402 2150      		subi r18,lo8(-(-1))
 6460 2404 3040      		sbci r19,hi8(-(-1))
 6461 2406 8FEF      		ldi r24,hi8(-1)
 6462 2408 2F3F      		cpi r18,lo8(-1)
 6463 240a 3807      		cpc r19,r24
 6464 240c 01F0      		breq .L467
 6465 240e 9C91      		ld r25,X
 6466               	.LVL524:
 6467 2410 8081      		ld r24,Z
 6468 2412 9817      		cp r25,r24
 6469 2414 01F4      		brne .L469
 6470 2416 1196      		adiw r26,1
 6471 2418 3196      		adiw r30,1
 6472 241a 00C0      		rjmp .L470
 6473               	.LVL525:
 6474               	.L469:
 6475               	.LBE576:
 6476               	.LBE575:
 6477               	.LBE577:
 6478               	.LM676:
 6479 241c CE01      		movw r24,r28
 6480 241e 60E0      		ldi r22,lo8(0)
 6481 2420 0E94 0000 		call dir_next
 6482               	.LVL526:
 6483 2424 00C0      		rjmp .L482
 6484               	.LVL527:
 6485               	.L467:
 6486               	.LBE573:
 6487               	.LM677:
 6488 2426 EC89      		ldd r30,Y+20
 6489 2428 FD89      		ldd r31,Y+21
 6490               	.LVL528:
 6491 242a 9385      		ldd r25,Z+11
 6492               	.LVL529:
 6493 242c 9470      		andi r25,lo8(4)
 6494               	.LM678:
 6495 242e 4423      		tst r20
 6496 2430 01F0      		breq .L472
 6497 2432 842F      		mov r24,r20
 6498               	.LM679:
 6499 2434 4430      		cpi r20,lo8(4)
 6500 2436 01F4      		brne .L473
 6501 2438 9923      		tst r25
 6502 243a 01F0      		breq .L474
 6503 243c 00C0      		rjmp .L445
 6504               	.L472:
 6505               	.LM680:
 6506 243e 9923      		tst r25
 6507 2440 01F4      		brne .L473
 6508               	.LM681:
 6509 2442 EA89      		ldd r30,Y+18
 6510 2444 FB89      		ldd r31,Y+19
 6511               	.LVL530:
 6512               	.LM682:
 6513 2446 8385      		ldd r24,Z+11
 6514 2448 84FF      		sbrs r24,4
 6515 244a 00C0      		rjmp .L474
 6516               	.LBB578:
 6517               	.LBB572:
 6518               	.LM683:
 6519 244c EC0C      		add r14,r12
 6520 244e FD1C      		adc r15,r13
 6521               	.LBE572:
 6522               	.LBE578:
 6523               	.LM684:
 6524 2450 7588      		ldd r7,Z+21
 6525 2452 6624      		clr r6
 6526 2454 2489      		ldd r18,Z+20
 6527               	.LVL531:
 6528 2456 30E0      		ldi r19,lo8(0)
 6529 2458 2629      		or r18,r6
 6530 245a 3729      		or r19,r7
 6531 245c 40E0      		ldi r20,lo8(0)
 6532 245e 50E0      		ldi r21,hi8(0)
 6533               	.LVL532:
 6534 2460 A901      		movw r20,r18
 6535 2462 3327      		clr r19
 6536 2464 2227      		clr r18
 6537               	.LVL533:
 6538 2466 938C      		ldd r9,Z+27
 6539 2468 8824      		clr r8
 6540 246a 828D      		ldd r24,Z+26
 6541 246c 90E0      		ldi r25,lo8(0)
 6542 246e 8829      		or r24,r8
 6543 2470 9929      		or r25,r9
 6544 2472 A0E0      		ldi r26,lo8(0)
 6545 2474 B0E0      		ldi r27,hi8(0)
 6546               	.LVL534:
 6547 2476 282B      		or r18,r24
 6548 2478 392B      		or r19,r25
 6549 247a 4A2B      		or r20,r26
 6550 247c 5B2B      		or r21,r27
 6551 247e 2E83      		std Y+6,r18
 6552 2480 3F83      		std Y+7,r19
 6553 2482 4887      		std Y+8,r20
 6554 2484 5987      		std Y+9,r21
 6555 2486 00C0      		rjmp .L480
 6556               	.LVL535:
 6557               	.L452:
 6558               	.LM685:
 6559 2488 86E0      		ldi r24,lo8(6)
 6560               	.LVL536:
 6561 248a 00C0      		rjmp .L445
 6562               	.LVL537:
 6563               	.L473:
 6564 248c 842F      		mov r24,r20
 6565 248e 00C0      		rjmp .L445
 6566               	.LVL538:
 6567               	.L474:
 6568 2490 85E0      		ldi r24,lo8(5)
 6569               	.LVL539:
 6570               	.L445:
 6571               	.LVL540:
 6572               	/* epilogue start */
 6573               	.LM686:
 6574 2492 DF91      		pop r29
 6575 2494 CF91      		pop r28
 6576               	.LVL541:
 6577 2496 1F91      		pop r17
 6578               	.LVL542:
 6579 2498 0F91      		pop r16
 6580 249a FF90      		pop r15
 6581 249c EF90      		pop r14
 6582               	.LVL543:
 6583 249e DF90      		pop r13
 6584 24a0 CF90      		pop r12
 6585               	.LVL544:
 6586 24a2 BF90      		pop r11
 6587 24a4 AF90      		pop r10
 6588               	.LVL545:
 6589 24a6 9F90      		pop r9
 6590 24a8 8F90      		pop r8
 6591 24aa 7F90      		pop r7
 6592 24ac 6F90      		pop r6
 6593 24ae 5F90      		pop r5
 6594 24b0 0895      		ret
 6595               	.LVL546:
 6596               	.L449:
 6597               	.LM687:
 6598 24b2 912F      		mov r25,r17
 6599 24b4 60E0      		ldi r22,lo8(0)
 6600               	.LVL547:
 6601 24b6 00C0      		rjmp .L475
 6602               	.LFE61:
 6605               	check_fs:
 6606               	.LFB62:
 6607               	.LM688:
 6608               	.LVL548:
 6609 24b8 0F93      		push r16
 6610 24ba CF93      		push r28
 6611 24bc DF93      		push r29
 6612               	/* prologue: function */
 6613               	/* frame size = 0 */
 6614 24be EC01      		movw r28,r24
 6615 24c0 9A01      		movw r18,r20
 6616 24c2 AB01      		movw r20,r22
 6617               	.LM689:
 6618 24c4 BC01      		movw r22,r24
 6619 24c6 625D      		subi r22,lo8(-(46))
 6620 24c8 7F4F      		sbci r23,hi8(-(46))
 6621 24ca 8981      		ldd r24,Y+1
 6622               	.LVL549:
 6623 24cc 01E0      		ldi r16,lo8(1)
 6624 24ce 0E94 0000 		call disk_read
 6625               	.LVL550:
 6626 24d2 8823      		tst r24
 6627 24d4 01F0      		breq .L484
 6628 24d6 63E0      		ldi r22,lo8(3)
 6629 24d8 00C0      		rjmp .L485
 6630               	.L484:
 6631               	.LM690:
 6632 24da C35D      		subi r28,lo8(-(557))
 6633 24dc DD4F      		sbci r29,hi8(-(557))
 6634 24de 9881      		ld r25,Y
 6635 24e0 80E0      		ldi r24,lo8(0)
 6636 24e2 2A91      		ld r18,-Y
 6637 24e4 CC52      		subi r28,lo8(-(-556))
 6638 24e6 D240      		sbci r29,hi8(-(-556))
 6639 24e8 30E0      		ldi r19,lo8(0)
 6640 24ea 822B      		or r24,r18
 6641 24ec 932B      		or r25,r19
 6642 24ee 8555      		subi r24,lo8(-21931)
 6643 24f0 9A4A      		sbci r25,hi8(-21931)
 6644 24f2 01F0      		breq .L486
 6645 24f4 62E0      		ldi r22,lo8(2)
 6646 24f6 00C0      		rjmp .L485
 6647               	.L486:
 6648               	.LM691:
 6649 24f8 C959      		subi r28,lo8(-(103))
 6650 24fa DF4F      		sbci r29,hi8(-(103))
 6651 24fc 2881      		ld r18,Y
 6652 24fe 30E0      		ldi r19,lo8(0)
 6653 2500 40E0      		ldi r20,lo8(0)
 6654 2502 50E0      		ldi r21,hi8(0)
 6655 2504 522F      		mov r21,r18
 6656 2506 4427      		clr r20
 6657 2508 3327      		clr r19
 6658 250a 2227      		clr r18
 6659 250c 8A91      		ld r24,-Y
 6660 250e 90E0      		ldi r25,lo8(0)
 6661 2510 A0E0      		ldi r26,lo8(0)
 6662 2512 B0E0      		ldi r27,hi8(0)
 6663 2514 DC01      		movw r26,r24
 6664 2516 9927      		clr r25
 6665 2518 8827      		clr r24
 6666 251a 282B      		or r18,r24
 6667 251c 392B      		or r19,r25
 6668 251e 4A2B      		or r20,r26
 6669 2520 5B2B      		or r21,r27
 6670 2522 2297      		sbiw r28,2
 6671 2524 8991      		ld r24,Y+
 6672 2526 90E0      		ldi r25,lo8(0)
 6673 2528 A0E0      		ldi r26,lo8(0)
 6674 252a B0E0      		ldi r27,hi8(0)
 6675 252c 282B      		or r18,r24
 6676 252e 392B      		or r19,r25
 6677 2530 4A2B      		or r20,r26
 6678 2532 5B2B      		or r21,r27
 6679 2534 9881      		ld r25,Y
 6680 2536 C556      		subi r28,lo8(-(-101))
 6681 2538 D040      		sbci r29,hi8(-(-101))
 6682 253a 80E0      		ldi r24,lo8(0)
 6683 253c A0E0      		ldi r26,lo8(0)
 6684 253e B0E0      		ldi r27,hi8(0)
 6685 2540 282B      		or r18,r24
 6686 2542 392B      		or r19,r25
 6687 2544 4A2B      		or r20,r26
 6688 2546 5B2B      		or r21,r27
 6689 2548 5070      		andi r21,hhi8(16777215)
 6690 254a 2654      		subi r18,lo8(5521734)
 6691 254c 3144      		sbci r19,hi8(5521734)
 6692 254e 4445      		sbci r20,hlo8(5521734)
 6693 2550 5040      		sbci r21,hhi8(5521734)
 6694 2552 01F4      		brne .L487
 6695 2554 60E0      		ldi r22,lo8(0)
 6696 2556 00C0      		rjmp .L485
 6697               	.L487:
 6698 2558 60E0      		ldi r22,lo8(0)
 6699 255a CD57      		subi r28,lo8(-(131))
 6700 255c DF4F      		sbci r29,hi8(-(131))
 6701 255e 2881      		ld r18,Y
 6702 2560 30E0      		ldi r19,lo8(0)
 6703 2562 40E0      		ldi r20,lo8(0)
 6704 2564 50E0      		ldi r21,hi8(0)
 6705 2566 522F      		mov r21,r18
 6706 2568 4427      		clr r20
 6707 256a 3327      		clr r19
 6708 256c 2227      		clr r18
 6709 256e 8A91      		ld r24,-Y
 6710 2570 90E0      		ldi r25,lo8(0)
 6711 2572 A0E0      		ldi r26,lo8(0)
 6712 2574 B0E0      		ldi r27,hi8(0)
 6713 2576 DC01      		movw r26,r24
 6714 2578 9927      		clr r25
 6715 257a 8827      		clr r24
 6716 257c 282B      		or r18,r24
 6717 257e 392B      		or r19,r25
 6718 2580 4A2B      		or r20,r26
 6719 2582 5B2B      		or r21,r27
 6720 2584 2297      		sbiw r28,2
 6721 2586 8991      		ld r24,Y+
 6722 2588 90E0      		ldi r25,lo8(0)
 6723 258a A0E0      		ldi r26,lo8(0)
 6724 258c B0E0      		ldi r27,hi8(0)
 6725 258e 282B      		or r18,r24
 6726 2590 392B      		or r19,r25
 6727 2592 4A2B      		or r20,r26
 6728 2594 5B2B      		or r21,r27
 6729 2596 9881      		ld r25,Y
 6730               	.LVL551:
 6731 2598 80E0      		ldi r24,lo8(0)
 6732 259a A0E0      		ldi r26,lo8(0)
 6733 259c B0E0      		ldi r27,hi8(0)
 6734 259e 282B      		or r18,r24
 6735 25a0 392B      		or r19,r25
 6736 25a2 4A2B      		or r20,r26
 6737 25a4 5B2B      		or r21,r27
 6738 25a6 5070      		andi r21,hhi8(16777215)
 6739 25a8 2654      		subi r18,lo8(5521734)
 6740 25aa 3144      		sbci r19,hi8(5521734)
 6741 25ac 4445      		sbci r20,hlo8(5521734)
 6742 25ae 5040      		sbci r21,hhi8(5521734)
 6743 25b0 01F0      		breq .L485
 6744 25b2 61E0      		ldi r22,lo8(1)
 6745               	.LVL552:
 6746               	.L485:
 6747               	.LM692:
 6748 25b4 862F      		mov r24,r22
 6749               	/* epilogue start */
 6750 25b6 DF91      		pop r29
 6751 25b8 CF91      		pop r28
 6752               	.LVL553:
 6753 25ba 0F91      		pop r16
 6754 25bc 0895      		ret
 6755               	.LFE62:
 6757               	.global	chk_mounted
 6759               	chk_mounted:
 6760               	.LFB63:
 6761               	.LM693:
 6762               	.LVL554:
 6763 25be 6F92      		push r6
 6764 25c0 7F92      		push r7
 6765 25c2 8F92      		push r8
 6766 25c4 9F92      		push r9
 6767 25c6 AF92      		push r10
 6768 25c8 BF92      		push r11
 6769 25ca CF92      		push r12
 6770 25cc DF92      		push r13
 6771 25ce EF92      		push r14
 6772 25d0 FF92      		push r15
 6773 25d2 0F93      		push r16
 6774 25d4 1F93      		push r17
 6775 25d6 CF93      		push r28
 6776 25d8 DF93      		push r29
 6777               	/* prologue: function */
 6778               	/* frame size = 0 */
 6779 25da FC01      		movw r30,r24
 6780 25dc 9B01      		movw r18,r22
 6781 25de F42E      		mov r15,r20
 6782               	.LM694:
 6783 25e0 A081      		ld r26,Z
 6784 25e2 B181      		ldd r27,Z+1
 6785               	.LVL555:
 6786               	.LM695:
 6787 25e4 8C91      		ld r24,X
 6788               	.LVL556:
 6789 25e6 082F      		mov r16,r24
 6790               	.LVL557:
 6791 25e8 10E0      		ldi r17,lo8(0)
 6792               	.LVL558:
 6793 25ea 0053      		subi r16,lo8(-(-48))
 6794 25ec 1040      		sbci r17,hi8(-(-48))
 6795               	.LVL559:
 6796               	.LM696:
 6797 25ee 0A30      		cpi r16,10
 6798 25f0 1105      		cpc r17,__zero_reg__
 6799 25f2 00F4      		brsh .L491
 6800               	.LVL560:
 6801 25f4 1196      		adiw r26,1
 6802 25f6 8C91      		ld r24,X
 6803 25f8 1197      		sbiw r26,1
 6804 25fa 8A33      		cpi r24,lo8(58)
 6805 25fc 01F4      		brne .L491
 6806               	.LM697:
 6807 25fe 1296      		adiw r26,2
 6808 2600 A083      		st Z,r26
 6809 2602 B183      		std Z+1,r27
 6810               	.LM698:
 6811 2604 0230      		cpi r16,2
 6812 2606 1105      		cpc r17,__zero_reg__
 6813 2608 00F0      		brlo .L492
 6814 260a 8BE0      		ldi r24,lo8(11)
 6815 260c 00C0      		rjmp .L493
 6816               	.L491:
 6817 260e 00E0      		ldi r16,lo8(0)
 6818 2610 10E0      		ldi r17,hi8(0)
 6819               	.L492:
 6820               	.LM699:
 6821 2612 F801      		movw r30,r16
 6822               	.LVL561:
 6823 2614 EE0F      		lsl r30
 6824 2616 FF1F      		rol r31
 6825 2618 E050      		subi r30,lo8(-(FatFs))
 6826 261a F040      		sbci r31,hi8(-(FatFs))
 6827 261c C081      		ld r28,Z
 6828 261e D181      		ldd r29,Z+1
 6829               	.LVL562:
 6830 2620 F901      		movw r30,r18
 6831 2622 C083      		st Z,r28
 6832 2624 D183      		std Z+1,r29
 6833               	.LM700:
 6834 2626 2097      		sbiw r28,0
 6835 2628 01F4      		brne .L494
 6836 262a 8CE0      		ldi r24,lo8(12)
 6837 262c 00C0      		rjmp .L493
 6838               	.L494:
 6839               	.LM701:
 6840 262e 8881      		ld r24,Y
 6841 2630 8823      		tst r24
 6842 2632 01F0      		breq .L495
 6843               	.LBB579:
 6844               	.LBB580:
 6845               	.LM702:
 6846 2634 8981      		ldd r24,Y+1
 6847 2636 8823      		tst r24
 6848 2638 01F0      		breq .L496
 6849 263a 81E0      		ldi r24,lo8(1)
 6850               	.LVL563:
 6851 263c 00C0      		rjmp .L497
 6852               	.LVL564:
 6853               	.L496:
 6854               	.LM703:
 6855 263e 8091 0000 		lds r24,Stat
 6856               	.LVL565:
 6857               	.L497:
 6858               	.LBE580:
 6859               	.LBE579:
 6860               	.LM704:
 6861 2642 80FD      		sbrc r24,0
 6862 2644 00C0      		rjmp .L495
 6863               	.LVL566:
 6864               	.LM705:
 6865 2646 FF20      		tst r15
 6866 2648 01F4      		brne .+2
 6867 264a 00C0      		rjmp .L498
 6868 264c 82FD      		sbrc r24,2
 6869 264e 00C0      		rjmp .L499
 6870 2650 00C0      		rjmp .L498
 6871               	.L495:
 6872               	.LM706:
 6873 2652 1882      		st Y,__zero_reg__
 6874               	.LM707:
 6875 2654 F801      		movw r30,r16
 6876 2656 EE0F      		lsl r30
 6877 2658 FF1F      		rol r31
 6878 265a E050      		subi r30,lo8(-(Drives))
 6879 265c F040      		sbci r31,hi8(-(Drives))
 6880 265e 8081      		ld r24,Z
 6881 2660 8983      		std Y+1,r24
 6882               	.LM708:
 6883 2662 0E94 0000 		call disk_initialize
 6884               	.LVL567:
 6885               	.LM709:
 6886 2666 80FF      		sbrs r24,0
 6887 2668 00C0      		rjmp .L500
 6888 266a 83E0      		ldi r24,lo8(3)
 6889 266c 00C0      		rjmp .L493
 6890               	.L500:
 6891               	.LM710:
 6892 266e FF20      		tst r15
 6893 2670 01F0      		breq .L501
 6894 2672 82FD      		sbrc r24,2
 6895 2674 00C0      		rjmp .L499
 6896               	.L501:
 6897               	.LM711:
 6898 2676 CE01      		movw r24,r28
 6899 2678 40E0      		ldi r20,lo8(0)
 6900 267a 50E0      		ldi r21,hi8(0)
 6901 267c 60E0      		ldi r22,hlo8(0)
 6902 267e 70E0      		ldi r23,hhi8(0)
 6903 2680 0E94 0000 		call check_fs
 6904               	.LM712:
 6905 2684 8130      		cpi r24,lo8(1)
 6906               	.LVL568:
 6907 2686 01F0      		breq .L502
 6908 2688 AA24      		clr r10
 6909 268a BB24      		clr r11
 6910 268c 6501      		movw r12,r10
 6911               	.LVL569:
 6912 268e 00C0      		rjmp .L503
 6913               	.LVL570:
 6914               	.L502:
 6915               	.LM713:
 6916 2690 000F      		lsl r16
 6917 2692 111F      		rol r17
 6918 2694 0050      		subi r16,lo8(-(Drives))
 6919 2696 1040      		sbci r17,hi8(-(Drives))
 6920 2698 F801      		movw r30,r16
 6921 269a 8181      		ldd r24,Z+1
 6922               	.LVL571:
 6923 269c E82F      		mov r30,r24
 6924               	.LVL572:
 6925 269e F0E0      		ldi r31,lo8(0)
 6926               	.LVL573:
 6927 26a0 A4E0      		ldi r26,4
 6928 26a2 EE0F      	1:	lsl r30
 6929 26a4 FF1F      		rol r31
 6930 26a6 AA95      		dec r26
 6931 26a8 01F4      		brne 1b
 6932               	.LVL574:
 6933 26aa E451      		subi r30,lo8(-(492))
 6934 26ac FE4F      		sbci r31,hi8(-(492))
 6935 26ae EC0F      		add r30,r28
 6936 26b0 FD1F      		adc r31,r29
 6937               	.LM714:
 6938 26b2 8481      		ldd r24,Z+4
 6939 26b4 8823      		tst r24
 6940 26b6 01F4      		brne .+2
 6941 26b8 00C0      		rjmp .L504
 6942               	.LM715:
 6943 26ba 8385      		ldd r24,Z+11
 6944 26bc 90E0      		ldi r25,lo8(0)
 6945 26be A0E0      		ldi r26,lo8(0)
 6946 26c0 B0E0      		ldi r27,hi8(0)
 6947 26c2 D82E      		mov r13,r24
 6948 26c4 CC24      		clr r12
 6949 26c6 BB24      		clr r11
 6950 26c8 AA24      		clr r10
 6951               	.LVL575:
 6952 26ca 8285      		ldd r24,Z+10
 6953 26cc 90E0      		ldi r25,lo8(0)
 6954 26ce A0E0      		ldi r26,lo8(0)
 6955 26d0 B0E0      		ldi r27,hi8(0)
 6956 26d2 DC01      		movw r26,r24
 6957 26d4 9927      		clr r25
 6958 26d6 8827      		clr r24
 6959 26d8 A82A      		or r10,r24
 6960 26da B92A      		or r11,r25
 6961 26dc CA2A      		or r12,r26
 6962 26de DB2A      		or r13,r27
 6963 26e0 8085      		ldd r24,Z+8
 6964 26e2 90E0      		ldi r25,lo8(0)
 6965 26e4 A0E0      		ldi r26,lo8(0)
 6966 26e6 B0E0      		ldi r27,hi8(0)
 6967 26e8 A82A      		or r10,r24
 6968 26ea B92A      		or r11,r25
 6969 26ec CA2A      		or r12,r26
 6970 26ee DB2A      		or r13,r27
 6971 26f0 9185      		ldd r25,Z+9
 6972 26f2 80E0      		ldi r24,lo8(0)
 6973 26f4 A0E0      		ldi r26,lo8(0)
 6974 26f6 B0E0      		ldi r27,hi8(0)
 6975 26f8 A82A      		or r10,r24
 6976 26fa B92A      		or r11,r25
 6977 26fc CA2A      		or r12,r26
 6978 26fe DB2A      		or r13,r27
 6979               	.LM716:
 6980 2700 CE01      		movw r24,r28
 6981 2702 B601      		movw r22,r12
 6982 2704 A501      		movw r20,r10
 6983 2706 0E94 0000 		call check_fs
 6984               	.LVL576:
 6985               	.L503:
 6986               	.LM717:
 6987 270a 8330      		cpi r24,lo8(3)
 6988 270c 01F4      		brne .L505
 6989 270e 81E0      		ldi r24,lo8(1)
 6990               	.LVL577:
 6991 2710 00C0      		rjmp .L493
 6992               	.LVL578:
 6993               	.L505:
 6994               	.LM718:
 6995 2712 8823      		tst r24
 6996 2714 01F0      		breq .+2
 6997 2716 00C0      		rjmp .L504
 6998 2718 9AAD      		ldd r25,Y+58
 6999 271a 80E0      		ldi r24,lo8(0)
 7000               	.LVL579:
 7001 271c 29AD      		ldd r18,Y+57
 7002 271e 30E0      		ldi r19,lo8(0)
 7003 2720 822B      		or r24,r18
 7004 2722 932B      		or r25,r19
 7005 2724 8050      		subi r24,lo8(512)
 7006 2726 9240      		sbci r25,hi8(512)
 7007 2728 01F0      		breq .+2
 7008 272a 00C0      		rjmp .L504
 7009               	.LM719:
 7010 272c CB5B      		subi r28,lo8(-(69))
 7011 272e DF4F      		sbci r29,hi8(-(69))
 7012 2730 9881      		ld r25,Y
 7013 2732 80E0      		ldi r24,lo8(0)
 7014 2734 2A91      		ld r18,-Y
 7015 2736 C454      		subi r28,lo8(-(-68))
 7016 2738 D040      		sbci r29,hi8(-(-68))
 7017 273a 30E0      		ldi r19,lo8(0)
 7018 273c 822B      		or r24,r18
 7019 273e 932B      		or r25,r19
 7020 2740 7C01      		movw r14,r24
 7021               	.LVL580:
 7022 2742 00E0      		ldi r16,lo8(0)
 7023 2744 10E0      		ldi r17,hi8(0)
 7024               	.LVL581:
 7025               	.LM720:
 7026 2746 E114      		cp r14,__zero_reg__
 7027 2748 F104      		cpc r15,__zero_reg__
 7028 274a 0105      		cpc r16,__zero_reg__
 7029 274c 1105      		cpc r17,__zero_reg__
 7030 274e 01F4      		brne .L506
 7031 2750 CB5A      		subi r28,lo8(-(85))
 7032 2752 DF4F      		sbci r29,hi8(-(85))
 7033 2754 8881      		ld r24,Y
 7034 2756 90E0      		ldi r25,lo8(0)
 7035 2758 A0E0      		ldi r26,lo8(0)
 7036 275a B0E0      		ldi r27,hi8(0)
 7037 275c 182F      		mov r17,r24
 7038 275e 0027      		clr r16
 7039 2760 FF24      		clr r15
 7040 2762 EE24      		clr r14
 7041               	.LVL582:
 7042 2764 8A91      		ld r24,-Y
 7043 2766 90E0      		ldi r25,lo8(0)
 7044 2768 A0E0      		ldi r26,lo8(0)
 7045 276a B0E0      		ldi r27,hi8(0)
 7046 276c DC01      		movw r26,r24
 7047 276e 9927      		clr r25
 7048 2770 8827      		clr r24
 7049 2772 E82A      		or r14,r24
 7050 2774 F92A      		or r15,r25
 7051 2776 0A2B      		or r16,r26
 7052 2778 1B2B      		or r17,r27
 7053 277a 2297      		sbiw r28,2
 7054 277c 8991      		ld r24,Y+
 7055 277e 90E0      		ldi r25,lo8(0)
 7056 2780 A0E0      		ldi r26,lo8(0)
 7057 2782 B0E0      		ldi r27,hi8(0)
 7058 2784 E82A      		or r14,r24
 7059 2786 F92A      		or r15,r25
 7060 2788 0A2B      		or r16,r26
 7061 278a 1B2B      		or r17,r27
 7062 278c 9881      		ld r25,Y
 7063 278e C355      		subi r28,lo8(-(-83))
 7064 2790 D040      		sbci r29,hi8(-(-83))
 7065 2792 80E0      		ldi r24,lo8(0)
 7066 2794 A0E0      		ldi r26,lo8(0)
 7067 2796 B0E0      		ldi r27,hi8(0)
 7068 2798 E82A      		or r14,r24
 7069 279a F92A      		or r15,r25
 7070 279c 0A2B      		or r16,r26
 7071 279e 1B2B      		or r17,r27
 7072               	.L506:
 7073               	.LM721:
 7074 27a0 EE8A      		std Y+22,r14
 7075 27a2 FF8A      		std Y+23,r15
 7076 27a4 088F      		std Y+24,r16
 7077 27a6 198F      		std Y+25,r17
 7078               	.LM722:
 7079 27a8 2EAD      		ldd r18,Y+62
 7080 27aa 2B83      		std Y+3,r18
 7081               	.LM723:
 7082 27ac 30E0      		ldi r19,lo8(0)
 7083 27ae 40E0      		ldi r20,lo8(0)
 7084 27b0 50E0      		ldi r21,hi8(0)
 7085 27b2 C801      		movw r24,r16
 7086 27b4 B701      		movw r22,r14
 7087 27b6 0E94 0000 		call __mulsi3
 7088 27ba 3B01      		movw r6,r22
 7089 27bc 4C01      		movw r8,r24
 7090               	.LVL583:
 7091               	.LM724:
 7092 27be 9DAD      		ldd r25,Y+61
 7093 27c0 80E0      		ldi r24,lo8(0)
 7094 27c2 2CAD      		ldd r18,Y+60
 7095 27c4 30E0      		ldi r19,lo8(0)
 7096 27c6 822B      		or r24,r18
 7097 27c8 932B      		or r25,r19
 7098 27ca A0E0      		ldi r26,lo8(0)
 7099 27cc B0E0      		ldi r27,hi8(0)
 7100 27ce 8A0D      		add r24,r10
 7101 27d0 9B1D      		adc r25,r11
 7102 27d2 AC1D      		adc r26,r12
 7103 27d4 BD1D      		adc r27,r13
 7104 27d6 8E8F      		std Y+30,r24
 7105 27d8 9F8F      		std Y+31,r25
 7106 27da A8A3      		std Y+32,r26
 7107 27dc B9A3      		std Y+33,r27
 7108               	.LM725:
 7109 27de 8BAD      		ldd r24,Y+59
 7110 27e0 8A83      		std Y+2,r24
 7111               	.LM726:
 7112 27e2 C05C      		subi r28,lo8(-(64))
 7113 27e4 DF4F      		sbci r29,hi8(-(64))
 7114 27e6 9881      		ld r25,Y
 7115 27e8 C054      		subi r28,lo8(-(-64))
 7116 27ea D040      		sbci r29,hi8(-(-64))
 7117 27ec 80E0      		ldi r24,lo8(0)
 7118 27ee 2FAD      		ldd r18,Y+63
 7119 27f0 422F      		mov r20,r18
 7120 27f2 50E0      		ldi r21,lo8(0)
 7121 27f4 482B      		or r20,r24
 7122 27f6 592B      		or r21,r25
 7123 27f8 4887      		std Y+8,r20
 7124 27fa 5987      		std Y+9,r21
 7125               	.LM727:
 7126 27fc CE5B      		subi r28,lo8(-(66))
 7127 27fe DF4F      		sbci r29,hi8(-(66))
 7128 2800 9881      		ld r25,Y
 7129 2802 80E0      		ldi r24,lo8(0)
 7130 2804 2A91      		ld r18,-Y
 7131 2806 C154      		subi r28,lo8(-(-65))
 7132 2808 D040      		sbci r29,hi8(-(-65))
 7133 280a 30E0      		ldi r19,lo8(0)
 7134 280c 822B      		or r24,r18
 7135 280e 932B      		or r25,r19
 7136 2810 7C01      		movw r14,r24
 7137               	.LVL584:
 7138 2812 00E0      		ldi r16,lo8(0)
 7139 2814 10E0      		ldi r17,hi8(0)
 7140               	.LVL585:
 7141               	.LM728:
 7142 2816 E114      		cp r14,__zero_reg__
 7143 2818 F104      		cpc r15,__zero_reg__
 7144 281a 0105      		cpc r16,__zero_reg__
 7145 281c 1105      		cpc r17,__zero_reg__
 7146 281e 01F4      		brne .L507
 7147 2820 CF5A      		subi r28,lo8(-(81))
 7148 2822 DF4F      		sbci r29,hi8(-(81))
 7149 2824 8881      		ld r24,Y
 7150 2826 90E0      		ldi r25,lo8(0)
 7151 2828 A0E0      		ldi r26,lo8(0)
 7152 282a B0E0      		ldi r27,hi8(0)
 7153 282c 182F      		mov r17,r24
 7154 282e 0027      		clr r16
 7155 2830 FF24      		clr r15
 7156 2832 EE24      		clr r14
 7157               	.LVL586:
 7158 2834 8A91      		ld r24,-Y
 7159 2836 90E0      		ldi r25,lo8(0)
 7160 2838 A0E0      		ldi r26,lo8(0)
 7161 283a B0E0      		ldi r27,hi8(0)
 7162 283c DC01      		movw r26,r24
 7163 283e 9927      		clr r25
 7164 2840 8827      		clr r24
 7165 2842 E82A      		or r14,r24
 7166 2844 F92A      		or r15,r25
 7167 2846 0A2B      		or r16,r26
 7168 2848 1B2B      		or r17,r27
 7169 284a 2297      		sbiw r28,2
 7170 284c 8991      		ld r24,Y+
 7171 284e 90E0      		ldi r25,lo8(0)
 7172 2850 A0E0      		ldi r26,lo8(0)
 7173 2852 B0E0      		ldi r27,hi8(0)
 7174 2854 E82A      		or r14,r24
 7175 2856 F92A      		or r15,r25
 7176 2858 0A2B      		or r16,r26
 7177 285a 1B2B      		or r17,r27
 7178 285c 9881      		ld r25,Y
 7179 285e CF54      		subi r28,lo8(-(-79))
 7180 2860 D040      		sbci r29,hi8(-(-79))
 7181 2862 80E0      		ldi r24,lo8(0)
 7182 2864 A0E0      		ldi r26,lo8(0)
 7183 2866 B0E0      		ldi r27,hi8(0)
 7184 2868 E82A      		or r14,r24
 7185 286a F92A      		or r15,r25
 7186 286c 0A2B      		or r16,r26
 7187 286e 1B2B      		or r17,r27
 7188               	.L507:
 7189               	.LM729:
 7190 2870 9DAD      		ldd r25,Y+61
 7191 2872 80E0      		ldi r24,lo8(0)
 7192 2874 2CAD      		ldd r18,Y+60
 7193 2876 30E0      		ldi r19,lo8(0)
 7194 2878 822B      		or r24,r18
 7195 287a 932B      		or r25,r19
 7196 287c A0E0      		ldi r26,lo8(0)
 7197 287e B0E0      		ldi r27,hi8(0)
 7198 2880 E81A      		sub r14,r24
 7199 2882 F90A      		sbc r15,r25
 7200 2884 0A0B      		sbc r16,r26
 7201 2886 1B0B      		sbc r17,r27
 7202               	.LVL587:
 7203 2888 E618      		sub r14,r6
 7204 288a F708      		sbc r15,r7
 7205 288c 0809      		sbc r16,r8
 7206 288e 1909      		sbc r17,r9
 7207 2890 F4E0      		ldi r31,4
 7208 2892 5695      	1:	lsr r21
 7209 2894 4795      		ror r20
 7210 2896 FA95      		dec r31
 7211 2898 01F4      		brne 1b
 7212 289a CA01      		movw r24,r20
 7213 289c A0E0      		ldi r26,lo8(0)
 7214 289e B0E0      		ldi r27,hi8(0)
 7215 28a0 E81A      		sub r14,r24
 7216 28a2 F90A      		sbc r15,r25
 7217 28a4 0A0B      		sbc r16,r26
 7218 28a6 1B0B      		sbc r17,r27
 7219 28a8 2A81      		ldd r18,Y+2
 7220 28aa 30E0      		ldi r19,lo8(0)
 7221 28ac 40E0      		ldi r20,lo8(0)
 7222 28ae 50E0      		ldi r21,hi8(0)
 7223 28b0 C801      		movw r24,r16
 7224 28b2 B701      		movw r22,r14
 7225 28b4 0E94 0000 		call __udivmodsi4
 7226 28b8 2E5F      		subi r18,lo8(-(2))
 7227 28ba 3F4F      		sbci r19,hi8(-(2))
 7228 28bc 4F4F      		sbci r20,hlo8(-(2))
 7229 28be 5F4F      		sbci r21,hhi8(-(2))
 7230               	.LVL588:
 7231 28c0 2A8F      		std Y+26,r18
 7232 28c2 3B8F      		std Y+27,r19
 7233 28c4 4C8F      		std Y+28,r20
 7234 28c6 5D8F      		std Y+29,r21
 7235               	.LM730:
 7236 28c8 273F      		cpi r18,lo8(4087)
 7237 28ca 8FE0      		ldi r24,hi8(4087)
 7238 28cc 3807      		cpc r19,r24
 7239 28ce 80E0      		ldi r24,hlo8(4087)
 7240 28d0 4807      		cpc r20,r24
 7241 28d2 80E0      		ldi r24,hhi8(4087)
 7242 28d4 5807      		cpc r21,r24
 7243 28d6 00F4      		brsh .L508
 7244 28d8 11E0      		ldi r17,lo8(1)
 7245               	.LVL589:
 7246 28da 00C0      		rjmp .L509
 7247               	.LVL590:
 7248               	.L508:
 7249               	.LM731:
 7250 28dc 275F      		subi r18,lo8(65527)
 7251 28de 3F4F      		sbci r19,hi8(65527)
 7252 28e0 4040      		sbci r20,hlo8(65527)
 7253 28e2 5040      		sbci r21,hhi8(65527)
 7254 28e4 00F0      		brlo .+2
 7255 28e6 00C0      		rjmp .L510
 7256 28e8 12E0      		ldi r17,lo8(2)
 7257               	.LVL591:
 7258               	.L509:
 7259               	.LM732:
 7260 28ea 8E8D      		ldd r24,Y+30
 7261 28ec 9F8D      		ldd r25,Y+31
 7262 28ee A8A1      		ldd r26,Y+32
 7263 28f0 B9A1      		ldd r27,Y+33
 7264 28f2 860D      		add r24,r6
 7265 28f4 971D      		adc r25,r7
 7266 28f6 A81D      		adc r26,r8
 7267 28f8 B91D      		adc r27,r9
 7268 28fa 8AA3      		std Y+34,r24
 7269 28fc 9BA3      		std Y+35,r25
 7270 28fe ACA3      		std Y+36,r26
 7271 2900 BDA3      		std Y+37,r27
 7272               	.L512:
 7273               	.LM733:
 7274 2902 8885      		ldd r24,Y+8
 7275 2904 9985      		ldd r25,Y+9
 7276 2906 E4E0      		ldi r30,4
 7277 2908 9695      	1:	lsr r25
 7278 290a 8795      		ror r24
 7279 290c EA95      		dec r30
 7280 290e 01F4      		brne 1b
 7281 2910 A0E0      		ldi r26,lo8(0)
 7282 2912 B0E0      		ldi r27,hi8(0)
 7283 2914 2E8D      		ldd r18,Y+30
 7284 2916 3F8D      		ldd r19,Y+31
 7285 2918 48A1      		ldd r20,Y+32
 7286 291a 59A1      		ldd r21,Y+33
 7287               	.LVL592:
 7288 291c 820F      		add r24,r18
 7289 291e 931F      		adc r25,r19
 7290 2920 A41F      		adc r26,r20
 7291 2922 B51F      		adc r27,r21
 7292 2924 860D      		add r24,r6
 7293 2926 971D      		adc r25,r7
 7294 2928 A81D      		adc r26,r8
 7295 292a B91D      		adc r27,r9
 7296 292c 8EA3      		std Y+38,r24
 7297 292e 9FA3      		std Y+39,r25
 7298 2930 A8A7      		std Y+40,r26
 7299 2932 B9A7      		std Y+41,r27
 7300               	.LM734:
 7301 2934 8FEF      		ldi r24,lo8(-1)
 7302 2936 9FEF      		ldi r25,hi8(-1)
 7303 2938 AFEF      		ldi r26,hlo8(-1)
 7304 293a BFEF      		ldi r27,hhi8(-1)
 7305 293c 8E87      		std Y+14,r24
 7306 293e 9F87      		std Y+15,r25
 7307 2940 A88B      		std Y+16,r26
 7308 2942 B98B      		std Y+17,r27
 7309               	.LM735:
 7310 2944 1C82      		std Y+4,__zero_reg__
 7311               	.LM736:
 7312 2946 1330      		cpi r17,lo8(3)
 7313 2948 01F0      		breq .+2
 7314 294a 00C0      		rjmp .L511
 7315               	.LM737:
 7316 294c 1D82      		std Y+5,__zero_reg__
 7317               	.LM738:
 7318 294e C15A      		subi r28,lo8(-(95))
 7319 2950 DF4F      		sbci r29,hi8(-(95))
 7320 2952 3881      		ld r19,Y
 7321 2954 20E0      		ldi r18,lo8(0)
 7322 2956 8A91      		ld r24,-Y
 7323 2958 CE55      		subi r28,lo8(-(-94))
 7324 295a D040      		sbci r29,hi8(-(-94))
 7325 295c 90E0      		ldi r25,lo8(0)
 7326 295e 282B      		or r18,r24
 7327 2960 392B      		or r19,r25
 7328 2962 40E0      		ldi r20,lo8(0)
 7329 2964 50E0      		ldi r21,hi8(0)
 7330 2966 2A0D      		add r18,r10
 7331 2968 3B1D      		adc r19,r11
 7332 296a 4C1D      		adc r20,r12
 7333 296c 5D1D      		adc r21,r13
 7334 296e 2A8B      		std Y+18,r18
 7335 2970 3B8B      		std Y+19,r19
 7336 2972 4C8B      		std Y+20,r20
 7337 2974 5D8B      		std Y+21,r21
 7338               	.LM739:
 7339 2976 BE01      		movw r22,r28
 7340 2978 625D      		subi r22,lo8(-(46))
 7341 297a 7F4F      		sbci r23,hi8(-(46))
 7342 297c 8981      		ldd r24,Y+1
 7343 297e 01E0      		ldi r16,lo8(1)
 7344               	.LVL593:
 7345 2980 0E94 0000 		call disk_read
 7346 2984 8823      		tst r24
 7347 2986 01F0      		breq .+2
 7348 2988 00C0      		rjmp .L511
 7349 298a C35D      		subi r28,lo8(-(557))
 7350 298c DD4F      		sbci r29,hi8(-(557))
 7351 298e 9881      		ld r25,Y
 7352 2990 80E0      		ldi r24,lo8(0)
 7353 2992 2A91      		ld r18,-Y
 7354 2994 CC52      		subi r28,lo8(-(-556))
 7355 2996 D240      		sbci r29,hi8(-(-556))
 7356 2998 30E0      		ldi r19,lo8(0)
 7357 299a 822B      		or r24,r18
 7358 299c 932B      		or r25,r19
 7359 299e 8555      		subi r24,lo8(-21931)
 7360 29a0 9A4A      		sbci r25,hi8(-21931)
 7361 29a2 01F0      		breq .+2
 7362 29a4 00C0      		rjmp .L511
 7363 29a6 29A9      		ldd r18,Y+49
 7364 29a8 30E0      		ldi r19,lo8(0)
 7365 29aa 40E0      		ldi r20,lo8(0)
 7366 29ac 50E0      		ldi r21,hi8(0)
 7367 29ae 522F      		mov r21,r18
 7368 29b0 4427      		clr r20
 7369 29b2 3327      		clr r19
 7370 29b4 2227      		clr r18
 7371 29b6 88A9      		ldd r24,Y+48
 7372 29b8 90E0      		ldi r25,lo8(0)
 7373 29ba A0E0      		ldi r26,lo8(0)
 7374 29bc B0E0      		ldi r27,hi8(0)
 7375 29be DC01      		movw r26,r24
 7376 29c0 9927      		clr r25
 7377 29c2 8827      		clr r24
 7378 29c4 282B      		or r18,r24
 7379 29c6 392B      		or r19,r25
 7380 29c8 4A2B      		or r20,r26
 7381 29ca 5B2B      		or r21,r27
 7382 29cc 8EA5      		ldd r24,Y+46
 7383 29ce 90E0      		ldi r25,lo8(0)
 7384 29d0 A0E0      		ldi r26,lo8(0)
 7385 29d2 B0E0      		ldi r27,hi8(0)
 7386 29d4 282B      		or r18,r24
 7387 29d6 392B      		or r19,r25
 7388 29d8 4A2B      		or r20,r26
 7389 29da 5B2B      		or r21,r27
 7390 29dc 9FA5      		ldd r25,Y+47
 7391 29de 80E0      		ldi r24,lo8(0)
 7392 29e0 A0E0      		ldi r26,lo8(0)
 7393 29e2 B0E0      		ldi r27,hi8(0)
 7394 29e4 282B      		or r18,r24
 7395 29e6 392B      		or r19,r25
 7396 29e8 4A2B      		or r20,r26
 7397 29ea 5B2B      		or r21,r27
 7398 29ec 2255      		subi r18,lo8(1096897106)
 7399 29ee 3245      		sbci r19,hi8(1096897106)
 7400 29f0 4146      		sbci r20,hlo8(1096897106)
 7401 29f2 5144      		sbci r21,hhi8(1096897106)
 7402 29f4 01F0      		breq .+2
 7403 29f6 00C0      		rjmp .L511
 7404 29f8 CB5E      		subi r28,lo8(-(533))
 7405 29fa DD4F      		sbci r29,hi8(-(533))
 7406 29fc 2881      		ld r18,Y
 7407 29fe 30E0      		ldi r19,lo8(0)
 7408 2a00 40E0      		ldi r20,lo8(0)
 7409 2a02 50E0      		ldi r21,hi8(0)
 7410 2a04 522F      		mov r21,r18
 7411 2a06 4427      		clr r20
 7412 2a08 3327      		clr r19
 7413 2a0a 2227      		clr r18
 7414 2a0c 8A91      		ld r24,-Y
 7415 2a0e 90E0      		ldi r25,lo8(0)
 7416 2a10 A0E0      		ldi r26,lo8(0)
 7417 2a12 B0E0      		ldi r27,hi8(0)
 7418 2a14 DC01      		movw r26,r24
 7419 2a16 9927      		clr r25
 7420 2a18 8827      		clr r24
 7421 2a1a 282B      		or r18,r24
 7422 2a1c 392B      		or r19,r25
 7423 2a1e 4A2B      		or r20,r26
 7424 2a20 5B2B      		or r21,r27
 7425 2a22 2297      		sbiw r28,2
 7426 2a24 8991      		ld r24,Y+
 7427 2a26 90E0      		ldi r25,lo8(0)
 7428 2a28 A0E0      		ldi r26,lo8(0)
 7429 2a2a B0E0      		ldi r27,hi8(0)
 7430 2a2c 282B      		or r18,r24
 7431 2a2e 392B      		or r19,r25
 7432 2a30 4A2B      		or r20,r26
 7433 2a32 5B2B      		or r21,r27
 7434 2a34 9881      		ld r25,Y
 7435 2a36 C351      		subi r28,lo8(-(-531))
 7436 2a38 D240      		sbci r29,hi8(-(-531))
 7437 2a3a 80E0      		ldi r24,lo8(0)
 7438 2a3c A0E0      		ldi r26,lo8(0)
 7439 2a3e B0E0      		ldi r27,hi8(0)
 7440 2a40 282B      		or r18,r24
 7441 2a42 392B      		or r19,r25
 7442 2a44 4A2B      		or r20,r26
 7443 2a46 5B2B      		or r21,r27
 7444 2a48 2257      		subi r18,lo8(1631679090)
 7445 2a4a 3247      		sbci r19,hi8(1631679090)
 7446 2a4c 4144      		sbci r20,hlo8(1631679090)
 7447 2a4e 5146      		sbci r21,hhi8(1631679090)
 7448 2a50 01F0      		breq .+2
 7449 2a52 00C0      		rjmp .L511
 7450               	.LM740:
 7451 2a54 C35E      		subi r28,lo8(-(541))
 7452 2a56 DD4F      		sbci r29,hi8(-(541))
 7453 2a58 2881      		ld r18,Y
 7454 2a5a 30E0      		ldi r19,lo8(0)
 7455 2a5c 40E0      		ldi r20,lo8(0)
 7456 2a5e 50E0      		ldi r21,hi8(0)
 7457 2a60 522F      		mov r21,r18
 7458 2a62 4427      		clr r20
 7459 2a64 3327      		clr r19
 7460 2a66 2227      		clr r18
 7461 2a68 8A91      		ld r24,-Y
 7462 2a6a 90E0      		ldi r25,lo8(0)
 7463 2a6c A0E0      		ldi r26,lo8(0)
 7464 2a6e B0E0      		ldi r27,hi8(0)
 7465 2a70 DC01      		movw r26,r24
 7466 2a72 9927      		clr r25
 7467 2a74 8827      		clr r24
 7468 2a76 282B      		or r18,r24
 7469 2a78 392B      		or r19,r25
 7470 2a7a 4A2B      		or r20,r26
 7471 2a7c 5B2B      		or r21,r27
 7472 2a7e 2297      		sbiw r28,2
 7473 2a80 8991      		ld r24,Y+
 7474 2a82 90E0      		ldi r25,lo8(0)
 7475 2a84 A0E0      		ldi r26,lo8(0)
 7476 2a86 B0E0      		ldi r27,hi8(0)
 7477 2a88 282B      		or r18,r24
 7478 2a8a 392B      		or r19,r25
 7479 2a8c 4A2B      		or r20,r26
 7480 2a8e 5B2B      		or r21,r27
 7481 2a90 9881      		ld r25,Y
 7482 2a92 CB51      		subi r28,lo8(-(-539))
 7483 2a94 D240      		sbci r29,hi8(-(-539))
 7484 2a96 80E0      		ldi r24,lo8(0)
 7485 2a98 A0E0      		ldi r26,lo8(0)
 7486 2a9a B0E0      		ldi r27,hi8(0)
 7487 2a9c 282B      		or r18,r24
 7488 2a9e 392B      		or r19,r25
 7489 2aa0 4A2B      		or r20,r26
 7490 2aa2 5B2B      		or r21,r27
 7491 2aa4 2A87      		std Y+10,r18
 7492 2aa6 3B87      		std Y+11,r19
 7493 2aa8 4C87      		std Y+12,r20
 7494 2aaa 5D87      		std Y+13,r21
 7495               	.LM741:
 7496 2aac C75E      		subi r28,lo8(-(537))
 7497 2aae DD4F      		sbci r29,hi8(-(537))
 7498 2ab0 2881      		ld r18,Y
 7499 2ab2 30E0      		ldi r19,lo8(0)
 7500 2ab4 40E0      		ldi r20,lo8(0)
 7501 2ab6 50E0      		ldi r21,hi8(0)
 7502 2ab8 522F      		mov r21,r18
 7503 2aba 4427      		clr r20
 7504 2abc 3327      		clr r19
 7505 2abe 2227      		clr r18
 7506 2ac0 8A91      		ld r24,-Y
 7507 2ac2 90E0      		ldi r25,lo8(0)
 7508 2ac4 A0E0      		ldi r26,lo8(0)
 7509 2ac6 B0E0      		ldi r27,hi8(0)
 7510 2ac8 DC01      		movw r26,r24
 7511 2aca 9927      		clr r25
 7512 2acc 8827      		clr r24
 7513 2ace 282B      		or r18,r24
 7514 2ad0 392B      		or r19,r25
 7515 2ad2 4A2B      		or r20,r26
 7516 2ad4 5B2B      		or r21,r27
 7517 2ad6 2297      		sbiw r28,2
 7518 2ad8 8991      		ld r24,Y+
 7519 2ada 90E0      		ldi r25,lo8(0)
 7520 2adc A0E0      		ldi r26,lo8(0)
 7521 2ade B0E0      		ldi r27,hi8(0)
 7522 2ae0 282B      		or r18,r24
 7523 2ae2 392B      		or r19,r25
 7524 2ae4 4A2B      		or r20,r26
 7525 2ae6 5B2B      		or r21,r27
 7526 2ae8 9881      		ld r25,Y
 7527 2aea C751      		subi r28,lo8(-(-535))
 7528 2aec D240      		sbci r29,hi8(-(-535))
 7529 2aee 80E0      		ldi r24,lo8(0)
 7530 2af0 A0E0      		ldi r26,lo8(0)
 7531 2af2 B0E0      		ldi r27,hi8(0)
 7532 2af4 282B      		or r18,r24
 7533 2af6 392B      		or r19,r25
 7534 2af8 4A2B      		or r20,r26
 7535 2afa 5B2B      		or r21,r27
 7536 2afc 2E87      		std Y+14,r18
 7537 2afe 3F87      		std Y+15,r19
 7538 2b00 488B      		std Y+16,r20
 7539 2b02 598B      		std Y+17,r21
 7540               	.LVL594:
 7541               	.L511:
 7542               	.LM742:
 7543 2b04 1883      		st Y,r17
 7544               	.LM743:
 7545 2b06 1AA6      		std Y+42,__zero_reg__
 7546 2b08 1BA6      		std Y+43,__zero_reg__
 7547 2b0a 1CA6      		std Y+44,__zero_reg__
 7548 2b0c 1DA6      		std Y+45,__zero_reg__
 7549               	.LM744:
 7550 2b0e 8091 0000 		lds r24,Fsid
 7551 2b12 9091 0000 		lds r25,(Fsid)+1
 7552 2b16 0196      		adiw r24,1
 7553 2b18 8093 0000 		sts Fsid,r24
 7554 2b1c 9093 0000 		sts (Fsid)+1,r25
 7555 2b20 8E83      		std Y+6,r24
 7556 2b22 9F83      		std Y+7,r25
 7557 2b24 00C0      		rjmp .L498
 7558               	.LVL595:
 7559               	.L499:
 7560               	.LM745:
 7561 2b26 8AE0      		ldi r24,lo8(10)
 7562 2b28 00C0      		rjmp .L493
 7563               	.LVL596:
 7564               	.L498:
 7565 2b2a 80E0      		ldi r24,lo8(0)
 7566 2b2c 00C0      		rjmp .L493
 7567               	.LVL597:
 7568               	.L504:
 7569 2b2e 8DE0      		ldi r24,lo8(13)
 7570               	.LVL598:
 7571               	.L493:
 7572               	/* epilogue start */
 7573               	.LM746:
 7574 2b30 DF91      		pop r29
 7575 2b32 CF91      		pop r28
 7576               	.LVL599:
 7577 2b34 1F91      		pop r17
 7578               	.LVL600:
 7579 2b36 0F91      		pop r16
 7580               	.LVL601:
 7581 2b38 FF90      		pop r15
 7582               	.LVL602:
 7583 2b3a EF90      		pop r14
 7584               	.LVL603:
 7585 2b3c DF90      		pop r13
 7586 2b3e CF90      		pop r12
 7587 2b40 BF90      		pop r11
 7588 2b42 AF90      		pop r10
 7589               	.LVL604:
 7590 2b44 9F90      		pop r9
 7591 2b46 8F90      		pop r8
 7592 2b48 7F90      		pop r7
 7593 2b4a 6F90      		pop r6
 7594               	.LVL605:
 7595 2b4c 0895      		ret
 7596               	.LVL606:
 7597               	.L510:
 7598               	.LM747:
 7599 2b4e C35A      		subi r28,lo8(-(93))
 7600 2b50 DF4F      		sbci r29,hi8(-(93))
 7601 2b52 2881      		ld r18,Y
 7602               	.LVL607:
 7603 2b54 30E0      		ldi r19,lo8(0)
 7604 2b56 40E0      		ldi r20,lo8(0)
 7605 2b58 50E0      		ldi r21,hi8(0)
 7606 2b5a 522F      		mov r21,r18
 7607 2b5c 4427      		clr r20
 7608 2b5e 3327      		clr r19
 7609 2b60 2227      		clr r18
 7610               	.LVL608:
 7611 2b62 8A91      		ld r24,-Y
 7612 2b64 90E0      		ldi r25,lo8(0)
 7613 2b66 A0E0      		ldi r26,lo8(0)
 7614 2b68 B0E0      		ldi r27,hi8(0)
 7615 2b6a DC01      		movw r26,r24
 7616 2b6c 9927      		clr r25
 7617 2b6e 8827      		clr r24
 7618               	.LVL609:
 7619 2b70 282B      		or r18,r24
 7620 2b72 392B      		or r19,r25
 7621 2b74 4A2B      		or r20,r26
 7622 2b76 5B2B      		or r21,r27
 7623 2b78 2297      		sbiw r28,2
 7624 2b7a 8991      		ld r24,Y+
 7625 2b7c 90E0      		ldi r25,lo8(0)
 7626 2b7e A0E0      		ldi r26,lo8(0)
 7627 2b80 B0E0      		ldi r27,hi8(0)
 7628 2b82 282B      		or r18,r24
 7629 2b84 392B      		or r19,r25
 7630 2b86 4A2B      		or r20,r26
 7631 2b88 5B2B      		or r21,r27
 7632 2b8a 9881      		ld r25,Y
 7633 2b8c CB55      		subi r28,lo8(-(-91))
 7634 2b8e D040      		sbci r29,hi8(-(-91))
 7635 2b90 80E0      		ldi r24,lo8(0)
 7636 2b92 A0E0      		ldi r26,lo8(0)
 7637 2b94 B0E0      		ldi r27,hi8(0)
 7638 2b96 282B      		or r18,r24
 7639 2b98 392B      		or r19,r25
 7640 2b9a 4A2B      		or r20,r26
 7641 2b9c 5B2B      		or r21,r27
 7642 2b9e 2AA3      		std Y+34,r18
 7643 2ba0 3BA3      		std Y+35,r19
 7644 2ba2 4CA3      		std Y+36,r20
 7645 2ba4 5DA3      		std Y+37,r21
 7646 2ba6 13E0      		ldi r17,lo8(3)
 7647               	.LVL610:
 7648 2ba8 00C0      		rjmp .L512
 7649               	.LFE63:
 7652               	validate:
 7653               	.LFB64:
 7654               	.LM748:
 7655               	.LVL611:
 7656               	/* prologue: function */
 7657               	/* frame size = 0 */
 7658 2baa FC01      		movw r30,r24
 7659               	.LM749:
 7660 2bac 0097      		sbiw r24,0
 7661 2bae 01F0      		breq .L515
 7662 2bb0 8081      		ld r24,Z
 7663               	.LVL612:
 7664 2bb2 8823      		tst r24
 7665 2bb4 01F0      		breq .L515
 7666 2bb6 8681      		ldd r24,Z+6
 7667 2bb8 9781      		ldd r25,Z+7
 7668 2bba 8617      		cp r24,r22
 7669 2bbc 9707      		cpc r25,r23
 7670 2bbe 01F4      		brne .L515
 7671               	.LBB581:
 7672               	.LBB582:
 7673               	.LM750:
 7674 2bc0 8181      		ldd r24,Z+1
 7675 2bc2 8823      		tst r24
 7676 2bc4 01F0      		breq .L516
 7677 2bc6 81E0      		ldi r24,lo8(1)
 7678 2bc8 00C0      		rjmp .L517
 7679               	.L516:
 7680               	.LM751:
 7681 2bca 8091 0000 		lds r24,Stat
 7682               	.L517:
 7683               	.LBE582:
 7684               	.LBE581:
 7685               	.LM752:
 7686 2bce 80FD      		sbrc r24,0
 7687 2bd0 00C0      		rjmp .L518
 7688 2bd2 80E0      		ldi r24,lo8(0)
 7689 2bd4 0895      		ret
 7690               	.L518:
 7691 2bd6 83E0      		ldi r24,lo8(3)
 7692 2bd8 0895      		ret
 7693               	.LVL613:
 7694               	.L515:
 7695 2bda 89E0      		ldi r24,lo8(9)
 7696               	.LM753:
 7697 2bdc 0895      		ret
 7698               	.LFE64:
 7700               	.global	f_mount
 7702               	f_mount:
 7703               	.LFB65:
 7704               	.LM754:
 7705               	.LVL614:
 7706 2bde CF93      		push r28
 7707 2be0 DF93      		push r29
 7708               	/* prologue: function */
 7709               	/* frame size = 0 */
 7710 2be2 EB01      		movw r28,r22
 7711               	.LM755:
 7712 2be4 8230      		cpi r24,lo8(2)
 7713 2be6 00F0      		brlo .L522
 7714               	.LVL615:
 7715 2be8 8BE0      		ldi r24,lo8(11)
 7716               	.LVL616:
 7717 2bea 00C0      		rjmp .L523
 7718               	.LVL617:
 7719               	.L522:
 7720               	.LM756:
 7721 2bec A82F      		mov r26,r24
 7722 2bee B0E0      		ldi r27,lo8(0)
 7723 2bf0 FD01      		movw r30,r26
 7724 2bf2 EE0F      		lsl r30
 7725 2bf4 FF1F      		rol r31
 7726 2bf6 E050      		subi r30,lo8(-(FatFs))
 7727 2bf8 F040      		sbci r31,hi8(-(FatFs))
 7728 2bfa 0190      		ld __tmp_reg__,Z+
 7729 2bfc F081      		ld r31,Z
 7730 2bfe E02D      		mov r30,__tmp_reg__
 7731               	.LVL618:
 7732               	.LM757:
 7733 2c00 3097      		sbiw r30,0
 7734 2c02 01F0      		breq .L524
 7735               	.LM758:
 7736 2c04 1082      		st Z,__zero_reg__
 7737               	.L524:
 7738               	.LM759:
 7739 2c06 2097      		sbiw r28,0
 7740 2c08 01F0      		breq .L525
 7741               	.LM760:
 7742 2c0a 1882      		st Y,__zero_reg__
 7743               	.L525:
 7744               	.LM761:
 7745 2c0c AA0F      		lsl r26
 7746 2c0e BB1F      		rol r27
 7747 2c10 A050      		subi r26,lo8(-(FatFs))
 7748 2c12 B040      		sbci r27,hi8(-(FatFs))
 7749 2c14 CD93      		st X+,r28
 7750 2c16 DC93      		st X,r29
 7751 2c18 80E0      		ldi r24,lo8(0)
 7752               	.LVL619:
 7753               	.L523:
 7754               	/* epilogue start */
 7755               	.LM762:
 7756 2c1a DF91      		pop r29
 7757 2c1c CF91      		pop r28
 7758               	.LVL620:
 7759 2c1e 0895      		ret
 7760               	.LFE65:
 7762               	.global	f_open
 7764               	f_open:
 7765               	.LFB66:
 7766               	.LM763:
 7767               	.LVL621:
 7768 2c20 5F92      		push r5
 7769 2c22 6F92      		push r6
 7770 2c24 7F92      		push r7
 7771 2c26 8F92      		push r8
 7772 2c28 9F92      		push r9
 7773 2c2a AF92      		push r10
 7774 2c2c BF92      		push r11
 7775 2c2e CF92      		push r12
 7776 2c30 DF92      		push r13
 7777 2c32 EF92      		push r14
 7778 2c34 FF92      		push r15
 7779 2c36 0F93      		push r16
 7780 2c38 1F93      		push r17
 7781 2c3a DF93      		push r29
 7782 2c3c CF93      		push r28
 7783 2c3e CDB7      		in r28,__SP_L__
 7784 2c40 DEB7      		in r29,__SP_H__
 7785 2c42 A497      		sbiw r28,36
 7786 2c44 CDBF      		out __SP_L__,r28
 7787 2c46 DEBF      		out __SP_H__,r29
 7788               	/* prologue: function */
 7789               	/* frame size = 36 */
 7790 2c48 3C01      		movw r6,r24
 7791 2c4a 6BA3      		std Y+35,r22
 7792 2c4c 7CA3      		std Y+36,r23
 7793               	.LM764:
 7794 2c4e DC01      		movw r26,r24
 7795 2c50 1D92      		st X+,__zero_reg__
 7796 2c52 1C92      		st X,__zero_reg__
 7797               	.LM765:
 7798 2c54 5FE1      		ldi r21,lo8(31)
 7799 2c56 552E      		mov r5,r21
 7800               	.LVL622:
 7801 2c58 5422      		and r5,r20
 7802               	.LM766:
 7803 2c5a 8E01      		movw r16,r28
 7804 2c5c 035F      		subi r16,lo8(-(13))
 7805 2c5e 1F4F      		sbci r17,hi8(-(13))
 7806 2c60 4E71      		andi r20,lo8(30)
 7807               	.LVL623:
 7808 2c62 CE01      		movw r24,r28
 7809               	.LVL624:
 7810 2c64 8396      		adiw r24,35
 7811 2c66 B801      		movw r22,r16
 7812               	.LVL625:
 7813 2c68 0E94 0000 		call chk_mounted
 7814               	.LVL626:
 7815               	.LM767:
 7816 2c6c 8823      		tst r24
 7817               	.LVL627:
 7818 2c6e 01F0      		breq .L528
 7819 2c70 282F      		mov r18,r24
 7820 2c72 00C0      		rjmp .L529
 7821               	.LVL628:
 7822               	.L528:
 7823               	.LM768:
 7824 2c74 CE01      		movw r24,r28
 7825               	.LVL629:
 7826 2c76 0196      		adiw r24,1
 7827 2c78 89A3      		std Y+33,r24
 7828 2c7a 9AA3      		std Y+34,r25
 7829               	.LM769:
 7830 2c7c 6BA1      		ldd r22,Y+35
 7831 2c7e 7CA1      		ldd r23,Y+36
 7832 2c80 C801      		movw r24,r16
 7833 2c82 0E94 0000 		call follow_path
 7834 2c86 282F      		mov r18,r24
 7835               	.LVL630:
 7836               	.LM770:
 7837 2c88 452D      		mov r20,r5
 7838               	.LVL631:
 7839 2c8a 50E0      		ldi r21,lo8(0)
 7840 2c8c CA01      		movw r24,r20
 7841 2c8e 8C71      		andi r24,lo8(28)
 7842 2c90 9070      		andi r25,hi8(28)
 7843 2c92 892B      		or r24,r25
 7844 2c94 01F4      		brne .+2
 7845 2c96 00C0      		rjmp .L530
 7846               	.LBB583:
 7847               	.LM771:
 7848 2c98 2223      		tst r18
 7849 2c9a 01F0      		breq .L531
 7850               	.LM772:
 7851 2c9c 2430      		cpi r18,lo8(4)
 7852 2c9e 01F0      		breq .+2
 7853 2ca0 00C0      		rjmp .L529
 7854               	.LM773:
 7855 2ca2 C801      		movw r24,r16
 7856 2ca4 0E94 0000 		call dir_register
 7857               	.LVL632:
 7858 2ca8 282F      		mov r18,r24
 7859               	.LVL633:
 7860               	.LM774:
 7861 2caa 8823      		tst r24
 7862 2cac 01F0      		breq .+2
 7863 2cae 00C0      		rjmp .L529
 7864               	.LVL634:
 7865               	.LM775:
 7866 2cb0 B8E0      		ldi r27,lo8(8)
 7867 2cb2 5B2A      		or r5,r27
 7868               	.LM776:
 7869 2cb4 CF8C      		ldd r12,Y+31
 7870 2cb6 D8A0      		ldd r13,Y+32
 7871               	.LVL635:
 7872 2cb8 00C0      		rjmp .L532
 7873               	.LVL636:
 7874               	.L531:
 7875               	.LM777:
 7876 2cba 52FE      		sbrs r5,2
 7877 2cbc 00C0      		rjmp .L533
 7878               	.LVL637:
 7879 2cbe 28E0      		ldi r18,lo8(8)
 7880 2cc0 00C0      		rjmp .L529
 7881               	.L533:
 7882               	.LM778:
 7883 2cc2 CF8C      		ldd r12,Y+31
 7884 2cc4 D8A0      		ldd r13,Y+32
 7885               	.LVL638:
 7886               	.LM779:
 7887 2cc6 C114      		cp r12,__zero_reg__
 7888 2cc8 D104      		cpc r13,__zero_reg__
 7889 2cca 01F4      		brne .+2
 7890 2ccc 00C0      		rjmp .L534
 7891 2cce F601      		movw r30,r12
 7892 2cd0 8385      		ldd r24,Z+11
 7893 2cd2 8171      		andi r24,lo8(17)
 7894 2cd4 01F0      		breq .+2
 7895 2cd6 00C0      		rjmp .L534
 7896               	.LM780:
 7897 2cd8 53FE      		sbrs r5,3
 7898 2cda 00C0      		rjmp .L532
 7899               	.LM781:
 7900 2cdc 9589      		ldd r25,Z+21
 7901 2cde 80E0      		ldi r24,lo8(0)
 7902 2ce0 2489      		ldd r18,Z+20
 7903               	.LVL639:
 7904 2ce2 30E0      		ldi r19,lo8(0)
 7905 2ce4 822B      		or r24,r18
 7906 2ce6 932B      		or r25,r19
 7907 2ce8 A0E0      		ldi r26,lo8(0)
 7908 2cea B0E0      		ldi r27,hi8(0)
 7909 2cec 8C01      		movw r16,r24
 7910 2cee FF24      		clr r15
 7911 2cf0 EE24      		clr r14
 7912               	.LVL640:
 7913 2cf2 938D      		ldd r25,Z+27
 7914 2cf4 80E0      		ldi r24,lo8(0)
 7915 2cf6 228D      		ldd r18,Z+26
 7916 2cf8 30E0      		ldi r19,lo8(0)
 7917 2cfa 822B      		or r24,r18
 7918 2cfc 932B      		or r25,r19
 7919 2cfe A0E0      		ldi r26,lo8(0)
 7920 2d00 B0E0      		ldi r27,hi8(0)
 7921 2d02 E82A      		or r14,r24
 7922 2d04 F92A      		or r15,r25
 7923 2d06 0A2B      		or r16,r26
 7924 2d08 1B2B      		or r17,r27
 7925               	.LM782:
 7926 2d0a 148A      		std Z+20,__zero_reg__
 7927 2d0c 158A      		std Z+21,__zero_reg__
 7928               	.LM783:
 7929 2d0e 128E      		std Z+26,__zero_reg__
 7930 2d10 138E      		std Z+27,__zero_reg__
 7931               	.LM784:
 7932 2d12 148E      		std Z+28,__zero_reg__
 7933 2d14 158E      		std Z+29,__zero_reg__
 7934 2d16 168E      		std Z+30,__zero_reg__
 7935 2d18 178E      		std Z+31,__zero_reg__
 7936               	.LM785:
 7937 2d1a ED85      		ldd r30,Y+13
 7938 2d1c FE85      		ldd r31,Y+14
 7939 2d1e 81E0      		ldi r24,lo8(1)
 7940 2d20 8483      		std Z+4,r24
 7941               	.LM786:
 7942 2d22 82A4      		ldd r8,Z+42
 7943 2d24 93A4      		ldd r9,Z+43
 7944 2d26 A4A4      		ldd r10,Z+44
 7945 2d28 B5A4      		ldd r11,Z+45
 7946               	.LVL641:
 7947               	.LM787:
 7948 2d2a E114      		cp r14,__zero_reg__
 7949 2d2c F104      		cpc r15,__zero_reg__
 7950 2d2e 0105      		cpc r16,__zero_reg__
 7951 2d30 1105      		cpc r17,__zero_reg__
 7952 2d32 01F0      		breq .L535
 7953               	.LM788:
 7954 2d34 CF01      		movw r24,r30
 7955 2d36 B801      		movw r22,r16
 7956 2d38 A701      		movw r20,r14
 7957 2d3a 0E94 0000 		call remove_chain
 7958 2d3e 282F      		mov r18,r24
 7959               	.LVL642:
 7960               	.LM789:
 7961 2d40 8823      		tst r24
 7962 2d42 01F0      		breq .+2
 7963 2d44 00C0      		rjmp .L529
 7964               	.LVL643:
 7965               	.LM790:
 7966 2d46 ED85      		ldd r30,Y+13
 7967 2d48 FE85      		ldd r31,Y+14
 7968 2d4a 0894      		sec
 7969 2d4c E108      		sbc r14,__zero_reg__
 7970 2d4e F108      		sbc r15,__zero_reg__
 7971 2d50 0109      		sbc r16,__zero_reg__
 7972 2d52 1109      		sbc r17,__zero_reg__
 7973 2d54 E286      		std Z+10,r14
 7974 2d56 F386      		std Z+11,r15
 7975 2d58 0487      		std Z+12,r16
 7976 2d5a 1587      		std Z+13,r17
 7977               	.L535:
 7978               	.LM791:
 7979 2d5c 8D85      		ldd r24,Y+13
 7980 2d5e 9E85      		ldd r25,Y+14
 7981               	.LVL644:
 7982 2d60 B501      		movw r22,r10
 7983 2d62 A401      		movw r20,r8
 7984 2d64 0E94 0000 		call move_window
 7985               	.LVL645:
 7986 2d68 282F      		mov r18,r24
 7987               	.LVL646:
 7988               	.LM792:
 7989 2d6a 8823      		tst r24
 7990 2d6c 01F0      		breq .+2
 7991 2d6e 00C0      		rjmp .L529
 7992               	.LVL647:
 7993               	.L532:
 7994               	.LM793:
 7995 2d70 53FE      		sbrs r5,3
 7996 2d72 00C0      		rjmp .L536
 7997               	.LM794:
 7998 2d74 D601      		movw r26,r12
 7999 2d76 1B96      		adiw r26,11
 8000 2d78 1C92      		st X,__zero_reg__
 8001               	.LM795:
 8002 2d7a 0E94 0000 		call get_fattime
 8003               	.LVL648:
 8004               	.LM796:
 8005 2d7e F601      		movw r30,r12
 8006 2d80 6687      		std Z+14,r22
 8007 2d82 272F      		mov r18,r23
 8008 2d84 3327      		clr r19
 8009 2d86 2787      		std Z+15,r18
 8010 2d88 9C01      		movw r18,r24
 8011 2d8a 4427      		clr r20
 8012 2d8c 5527      		clr r21
 8013 2d8e 208B      		std Z+16,r18
 8014 2d90 692F      		mov r22,r25
 8015 2d92 7727      		clr r23
 8016 2d94 8827      		clr r24
 8017 2d96 9927      		clr r25
 8018 2d98 618B      		std Z+17,r22
 8019               	.LM797:
 8020 2d9a ED85      		ldd r30,Y+13
 8021 2d9c FE85      		ldd r31,Y+14
 8022 2d9e 81E0      		ldi r24,lo8(1)
 8023 2da0 8483      		std Z+4,r24
 8024               	.LM798:
 8025 2da2 F0E2      		ldi r31,lo8(32)
 8026 2da4 5F2A      		or r5,r31
 8027 2da6 00C0      		rjmp .L536
 8028               	.LVL649:
 8029               	.L530:
 8030               	.LBE583:
 8031               	.LM799:
 8032 2da8 2223      		tst r18
 8033 2daa 01F0      		breq .+2
 8034 2dac 00C0      		rjmp .L529
 8035               	.LM800:
 8036 2dae CF8C      		ldd r12,Y+31
 8037 2db0 D8A0      		ldd r13,Y+32
 8038               	.LVL650:
 8039               	.LM801:
 8040 2db2 C114      		cp r12,__zero_reg__
 8041 2db4 D104      		cpc r13,__zero_reg__
 8042 2db6 01F4      		brne .+2
 8043 2db8 00C0      		rjmp .L537
 8044 2dba D601      		movw r26,r12
 8045 2dbc 1B96      		adiw r26,11
 8046 2dbe 8C91      		ld r24,X
 8047 2dc0 84FD      		sbrc r24,4
 8048 2dc2 00C0      		rjmp .L537
 8049               	.LM802:
 8050 2dc4 51FE      		sbrs r5,1
 8051 2dc6 00C0      		rjmp .L536
 8052               	.LVL651:
 8053 2dc8 80FD      		sbrc r24,0
 8054 2dca 00C0      		rjmp .L534
 8055               	.LVL652:
 8056               	.L536:
 8057               	.LM803:
 8058 2dcc ED85      		ldd r30,Y+13
 8059 2dce FE85      		ldd r31,Y+14
 8060 2dd0 22A5      		ldd r18,Z+42
 8061 2dd2 33A5      		ldd r19,Z+43
 8062 2dd4 44A5      		ldd r20,Z+44
 8063 2dd6 55A5      		ldd r21,Z+45
 8064               	.LVL653:
 8065 2dd8 D301      		movw r26,r6
 8066 2dda 5A96      		adiw r26,26
 8067 2ddc 2D93      		st X+,r18
 8068 2dde 3D93      		st X+,r19
 8069 2de0 4D93      		st X+,r20
 8070 2de2 5C93      		st X,r21
 8071 2de4 5D97      		sbiw r26,26+3
 8072               	.LM804:
 8073 2de6 8F8D      		ldd r24,Y+31
 8074 2de8 98A1      		ldd r25,Y+32
 8075               	.LVL654:
 8076 2dea 5E96      		adiw r26,30
 8077 2dec 8D93      		st X+,r24
 8078 2dee 9C93      		st X,r25
 8079 2df0 5F97      		sbiw r26,30+1
 8080               	.LM805:
 8081 2df2 1496      		adiw r26,4
 8082 2df4 5C92      		st X,r5
 8083               	.LM806:
 8084 2df6 D601      		movw r26,r12
 8085 2df8 5596      		adiw r26,21
 8086 2dfa 3C91      		ld r19,X
 8087 2dfc 5597      		sbiw r26,21
 8088 2dfe 20E0      		ldi r18,lo8(0)
 8089 2e00 5496      		adiw r26,20
 8090 2e02 8C91      		ld r24,X
 8091 2e04 5497      		sbiw r26,20
 8092 2e06 90E0      		ldi r25,lo8(0)
 8093 2e08 282B      		or r18,r24
 8094 2e0a 392B      		or r19,r25
 8095 2e0c 40E0      		ldi r20,lo8(0)
 8096 2e0e 50E0      		ldi r21,hi8(0)
 8097 2e10 A901      		movw r20,r18
 8098 2e12 3327      		clr r19
 8099 2e14 2227      		clr r18
 8100 2e16 5B96      		adiw r26,27
 8101 2e18 9C91      		ld r25,X
 8102 2e1a 5B97      		sbiw r26,27
 8103 2e1c 80E0      		ldi r24,lo8(0)
 8104 2e1e 5A96      		adiw r26,26
 8105 2e20 6C91      		ld r22,X
 8106 2e22 70E0      		ldi r23,lo8(0)
 8107 2e24 862B      		or r24,r22
 8108 2e26 972B      		or r25,r23
 8109 2e28 A0E0      		ldi r26,lo8(0)
 8110 2e2a B0E0      		ldi r27,hi8(0)
 8111 2e2c 282B      		or r18,r24
 8112 2e2e 392B      		or r19,r25
 8113 2e30 4A2B      		or r20,r26
 8114 2e32 5B2B      		or r21,r27
 8115 2e34 D301      		movw r26,r6
 8116 2e36 1E96      		adiw r26,14
 8117 2e38 2D93      		st X+,r18
 8118 2e3a 3D93      		st X+,r19
 8119 2e3c 4D93      		st X+,r20
 8120 2e3e 5C93      		st X,r21
 8121 2e40 5197      		sbiw r26,14+3
 8122               	.LM807:
 8123 2e42 D601      		movw r26,r12
 8124 2e44 5F96      		adiw r26,31
 8125 2e46 2C91      		ld r18,X
 8126 2e48 5F97      		sbiw r26,31
 8127 2e4a 30E0      		ldi r19,lo8(0)
 8128 2e4c 40E0      		ldi r20,lo8(0)
 8129 2e4e 50E0      		ldi r21,hi8(0)
 8130 2e50 522F      		mov r21,r18
 8131 2e52 4427      		clr r20
 8132 2e54 3327      		clr r19
 8133 2e56 2227      		clr r18
 8134 2e58 5E96      		adiw r26,30
 8135 2e5a 8C91      		ld r24,X
 8136 2e5c 90E0      		ldi r25,lo8(0)
 8137 2e5e A0E0      		ldi r26,lo8(0)
 8138 2e60 B0E0      		ldi r27,hi8(0)
 8139 2e62 DC01      		movw r26,r24
 8140 2e64 9927      		clr r25
 8141 2e66 8827      		clr r24
 8142 2e68 282B      		or r18,r24
 8143 2e6a 392B      		or r19,r25
 8144 2e6c 4A2B      		or r20,r26
 8145 2e6e 5B2B      		or r21,r27
 8146 2e70 D601      		movw r26,r12
 8147 2e72 5C96      		adiw r26,28
 8148 2e74 8C91      		ld r24,X
 8149 2e76 90E0      		ldi r25,lo8(0)
 8150 2e78 A0E0      		ldi r26,lo8(0)
 8151 2e7a B0E0      		ldi r27,hi8(0)
 8152 2e7c 282B      		or r18,r24
 8153 2e7e 392B      		or r19,r25
 8154 2e80 4A2B      		or r20,r26
 8155 2e82 5B2B      		or r21,r27
 8156 2e84 D601      		movw r26,r12
 8157 2e86 5D96      		adiw r26,29
 8158 2e88 9C91      		ld r25,X
 8159 2e8a 80E0      		ldi r24,lo8(0)
 8160 2e8c A0E0      		ldi r26,lo8(0)
 8161 2e8e B0E0      		ldi r27,hi8(0)
 8162 2e90 282B      		or r18,r24
 8163 2e92 392B      		or r19,r25
 8164 2e94 4A2B      		or r20,r26
 8165 2e96 5B2B      		or r21,r27
 8166 2e98 D301      		movw r26,r6
 8167 2e9a 1A96      		adiw r26,10
 8168 2e9c 2D93      		st X+,r18
 8169 2e9e 3D93      		st X+,r19
 8170 2ea0 4D93      		st X+,r20
 8171 2ea2 5C93      		st X,r21
 8172 2ea4 1D97      		sbiw r26,10+3
 8173               	.LM808:
 8174 2ea6 1696      		adiw r26,6
 8175 2ea8 1D92      		st X+,__zero_reg__
 8176 2eaa 1D92      		st X+,__zero_reg__
 8177 2eac 1D92      		st X+,__zero_reg__
 8178 2eae 1C92      		st X,__zero_reg__
 8179 2eb0 1997      		sbiw r26,6+3
 8180 2eb2 8FEF      		ldi r24,lo8(-1)
 8181 2eb4 1596      		adiw r26,5
 8182 2eb6 8C93      		st X,r24
 8183 2eb8 1597      		sbiw r26,5
 8184               	.LM809:
 8185 2eba 5696      		adiw r26,22
 8186 2ebc 1D92      		st X+,__zero_reg__
 8187 2ebe 1D92      		st X+,__zero_reg__
 8188 2ec0 1D92      		st X+,__zero_reg__
 8189 2ec2 1C92      		st X,__zero_reg__
 8190 2ec4 5997      		sbiw r26,22+3
 8191               	.LM810:
 8192 2ec6 ED93      		st X+,r30
 8193 2ec8 FC93      		st X,r31
 8194 2eca 1197      		sbiw r26,1
 8195 2ecc 8681      		ldd r24,Z+6
 8196 2ece 9781      		ldd r25,Z+7
 8197 2ed0 1296      		adiw r26,2
 8198 2ed2 8D93      		st X+,r24
 8199 2ed4 9C93      		st X,r25
 8200 2ed6 1397      		sbiw r26,2+1
 8201 2ed8 20E0      		ldi r18,lo8(0)
 8202               	.LVL655:
 8203 2eda 00C0      		rjmp .L529
 8204               	.LVL656:
 8205               	.L534:
 8206               	.LM811:
 8207 2edc 27E0      		ldi r18,lo8(7)
 8208 2ede 00C0      		rjmp .L529
 8209               	.LVL657:
 8210               	.L537:
 8211 2ee0 24E0      		ldi r18,lo8(4)
 8212               	.LVL658:
 8213               	.L529:
 8214               	.LM812:
 8215 2ee2 822F      		mov r24,r18
 8216               	/* epilogue start */
 8217 2ee4 A496      		adiw r28,36
 8218 2ee6 CDBF      		out __SP_L__,r28
 8219 2ee8 DEBF      		out __SP_H__,r29
 8220 2eea CF91      		pop r28
 8221 2eec DF91      		pop r29
 8222 2eee 1F91      		pop r17
 8223 2ef0 0F91      		pop r16
 8224 2ef2 FF90      		pop r15
 8225 2ef4 EF90      		pop r14
 8226               	.LVL659:
 8227 2ef6 DF90      		pop r13
 8228 2ef8 CF90      		pop r12
 8229               	.LVL660:
 8230 2efa BF90      		pop r11
 8231 2efc AF90      		pop r10
 8232 2efe 9F90      		pop r9
 8233 2f00 8F90      		pop r8
 8234               	.LVL661:
 8235 2f02 7F90      		pop r7
 8236 2f04 6F90      		pop r6
 8237               	.LVL662:
 8238 2f06 5F90      		pop r5
 8239               	.LVL663:
 8240 2f08 0895      		ret
 8241               	.LFE66:
 8243               	.global	f_read
 8245               	f_read:
 8246               	.LFB67:
 8247               	.LM813:
 8248               	.LVL664:
 8249 2f0a 2F92      		push r2
 8250 2f0c 3F92      		push r3
 8251 2f0e 4F92      		push r4
 8252 2f10 5F92      		push r5
 8253 2f12 6F92      		push r6
 8254 2f14 7F92      		push r7
 8255 2f16 8F92      		push r8
 8256 2f18 9F92      		push r9
 8257 2f1a AF92      		push r10
 8258 2f1c BF92      		push r11
 8259 2f1e CF92      		push r12
 8260 2f20 DF92      		push r13
 8261 2f22 EF92      		push r14
 8262 2f24 FF92      		push r15
 8263 2f26 0F93      		push r16
 8264 2f28 1F93      		push r17
 8265 2f2a DF93      		push r29
 8266 2f2c CF93      		push r28
 8267 2f2e 00D0      		rcall .
 8268 2f30 0F92      		push __tmp_reg__
 8269 2f32 CDB7      		in r28,__SP_L__
 8270 2f34 DEB7      		in r29,__SP_H__
 8271               	/* prologue: function */
 8272               	/* frame size = 4 */
 8273 2f36 8B83      		std Y+3,r24
 8274 2f38 9C83      		std Y+4,r25
 8275 2f3a 162F      		mov r17,r22
 8276 2f3c 072F      		mov r16,r23
 8277               	.LVL665:
 8278 2f3e 4A01      		movw r8,r20
 8279 2f40 2983      		std Y+1,r18
 8280 2f42 3A83      		std Y+2,r19
 8281               	.LM814:
 8282 2f44 D901      		movw r26,r18
 8283 2f46 1D92      		st X+,__zero_reg__
 8284 2f48 1C92      		st X,__zero_reg__
 8285               	.LM815:
 8286 2f4a FC01      		movw r30,r24
 8287 2f4c 6281      		ldd r22,Z+2
 8288 2f4e 7381      		ldd r23,Z+3
 8289               	.LVL666:
 8290 2f50 8081      		ld r24,Z
 8291 2f52 9181      		ldd r25,Z+1
 8292               	.LVL667:
 8293 2f54 0E94 0000 		call validate
 8294               	.LVL668:
 8295 2f58 782E      		mov r7,r24
 8296               	.LVL669:
 8297               	.LM816:
 8298 2f5a 8823      		tst r24
 8299 2f5c 01F0      		breq .+2
 8300 2f5e 00C0      		rjmp .L540
 8301               	.LVL670:
 8302               	.LM817:
 8303 2f60 AB81      		ldd r26,Y+3
 8304 2f62 BC81      		ldd r27,Y+4
 8305 2f64 1496      		adiw r26,4
 8306 2f66 8C91      		ld r24,X
 8307               	.LVL671:
 8308 2f68 87FD      		sbrc r24,7
 8309 2f6a 00C0      		rjmp .L568
 8310               	.L541:
 8311               	.LM818:
 8312 2f6c 80FD      		sbrc r24,0
 8313 2f6e 00C0      		rjmp .L542
 8314 2f70 07E0      		ldi r16,lo8(7)
 8315 2f72 702E      		mov r7,r16
 8316               	.LVL672:
 8317 2f74 00C0      		rjmp .L540
 8318               	.LVL673:
 8319               	.L542:
 8320               	.LM819:
 8321 2f76 EB81      		ldd r30,Y+3
 8322 2f78 FC81      		ldd r31,Y+4
 8323 2f7a 2285      		ldd r18,Z+10
 8324 2f7c 3385      		ldd r19,Z+11
 8325 2f7e 4485      		ldd r20,Z+12
 8326 2f80 5585      		ldd r21,Z+13
 8327               	.LVL674:
 8328 2f82 8681      		ldd r24,Z+6
 8329 2f84 9781      		ldd r25,Z+7
 8330 2f86 A085      		ldd r26,Z+8
 8331 2f88 B185      		ldd r27,Z+9
 8332 2f8a 281B      		sub r18,r24
 8333 2f8c 390B      		sbc r19,r25
 8334 2f8e 4A0B      		sbc r20,r26
 8335 2f90 5B0B      		sbc r21,r27
 8336               	.LM820:
 8337 2f92 C401      		movw r24,r8
 8338 2f94 A0E0      		ldi r26,lo8(0)
 8339 2f96 B0E0      		ldi r27,hi8(0)
 8340               	.LVL675:
 8341 2f98 2817      		cp r18,r24
 8342 2f9a 3907      		cpc r19,r25
 8343 2f9c 4A07      		cpc r20,r26
 8344 2f9e 5B07      		cpc r21,r27
 8345 2fa0 00F4      		brsh .L543
 8346               	.LVL676:
 8347 2fa2 4901      		movw r8,r18
 8348               	.LVL677:
 8349               	.L543:
 8350               	.LM821:
 8351 2fa4 812F      		mov r24,r17
 8352               	.LVL678:
 8353 2fa6 902F      		mov r25,r16
 8354               	.LVL679:
 8355 2fa8 9C01      		movw r18,r24
 8356               	.LVL680:
 8357 2faa 2901      		movw r4,r18
 8358               	.LVL681:
 8359               	.LBB584:
 8360               	.LBB585:
 8361               	.LM822:
 8362 2fac 10E2      		ldi r17,lo8(32)
 8363 2fae 212E      		mov r2,r17
 8364 2fb0 312C      		mov r3,__zero_reg__
 8365               	.LVL682:
 8366 2fb2 6B81      		ldd r22,Y+3
 8367 2fb4 7C81      		ldd r23,Y+4
 8368 2fb6 260E      		add r2,r22
 8369 2fb8 371E      		adc r3,r23
 8370 2fba 00C0      		rjmp .L544
 8371               	.LVL683:
 8372               	.L566:
 8373               	.LBE585:
 8374               	.LBE584:
 8375               	.LM823:
 8376 2fbc AB81      		ldd r26,Y+3
 8377 2fbe BC81      		ldd r27,Y+4
 8378               	.LVL684:
 8379 2fc0 1696      		adiw r26,6
 8380 2fc2 2D91      		ld r18,X+
 8381 2fc4 3D91      		ld r19,X+
 8382 2fc6 4D91      		ld r20,X+
 8383 2fc8 5C91      		ld r21,X
 8384 2fca 1997      		sbiw r26,6+3
 8385 2fcc DA01      		movw r26,r20
 8386 2fce C901      		movw r24,r18
 8387 2fd0 9170      		andi r25,hi8(511)
 8388 2fd2 A070      		andi r26,hlo8(511)
 8389 2fd4 B070      		andi r27,hhi8(511)
 8390 2fd6 0097      		sbiw r24,0
 8391 2fd8 A105      		cpc r26,__zero_reg__
 8392 2fda B105      		cpc r27,__zero_reg__
 8393 2fdc 01F0      		breq .+2
 8394 2fde 00C0      		rjmp .L545
 8395               	.LM824:
 8396 2fe0 AB81      		ldd r26,Y+3
 8397 2fe2 BC81      		ldd r27,Y+4
 8398 2fe4 ED91      		ld r30,X+
 8399 2fe6 FC91      		ld r31,X
 8400 2fe8 1197      		sbiw r26,1
 8401 2fea 1596      		adiw r26,5
 8402 2fec 9C91      		ld r25,X
 8403 2fee 1597      		sbiw r26,5
 8404               	.LVL685:
 8405 2ff0 8281      		ldd r24,Z+2
 8406 2ff2 9817      		cp r25,r24
 8407 2ff4 00F0      		brlo .L546
 8408               	.LM825:
 8409 2ff6 2115      		cp r18,__zero_reg__
 8410 2ff8 3105      		cpc r19,__zero_reg__
 8411 2ffa 4105      		cpc r20,__zero_reg__
 8412 2ffc 5105      		cpc r21,__zero_reg__
 8413 2ffe 01F4      		brne .L547
 8414 3000 1E96      		adiw r26,14
 8415 3002 6D91      		ld r22,X+
 8416 3004 7D91      		ld r23,X+
 8417 3006 8D91      		ld r24,X+
 8418 3008 9C91      		ld r25,X
 8419 300a 5197      		sbiw r26,14+3
 8420               	.LVL686:
 8421 300c 00C0      		rjmp .L548
 8422               	.LVL687:
 8423               	.L547:
 8424 300e AB81      		ldd r26,Y+3
 8425 3010 BC81      		ldd r27,Y+4
 8426 3012 5296      		adiw r26,18
 8427 3014 4D91      		ld r20,X+
 8428 3016 5D91      		ld r21,X+
 8429 3018 6D91      		ld r22,X+
 8430 301a 7C91      		ld r23,X
 8431 301c 5597      		sbiw r26,18+3
 8432 301e CF01      		movw r24,r30
 8433 3020 0E94 0000 		call get_fat
 8434               	.LVL688:
 8435               	.L548:
 8436               	.LM826:
 8437 3024 6230      		cpi r22,lo8(2)
 8438 3026 7105      		cpc r23,__zero_reg__
 8439 3028 8105      		cpc r24,__zero_reg__
 8440 302a 9105      		cpc r25,__zero_reg__
 8441 302c 00F4      		brsh .L549
 8442 302e EB81      		ldd r30,Y+3
 8443 3030 FC81      		ldd r31,Y+4
 8444 3032 8481      		ldd r24,Z+4
 8445 3034 8068      		ori r24,lo8(-128)
 8446 3036 8483      		std Z+4,r24
 8447               	.LVL689:
 8448               	.L568:
 8449 3038 B2E0      		ldi r27,lo8(2)
 8450 303a 7B2E      		mov r7,r27
 8451 303c 00C0      		rjmp .L540
 8452               	.LVL690:
 8453               	.L549:
 8454               	.LM827:
 8455 303e 6F3F      		cpi r22,lo8(-1)
 8456 3040 FFEF      		ldi r31,hi8(-1)
 8457 3042 7F07      		cpc r23,r31
 8458 3044 FFEF      		ldi r31,hlo8(-1)
 8459 3046 8F07      		cpc r24,r31
 8460 3048 FFEF      		ldi r31,hhi8(-1)
 8461 304a 9F07      		cpc r25,r31
 8462 304c 01F4      		brne .+2
 8463 304e 00C0      		rjmp .L569
 8464               	.L550:
 8465               	.LM828:
 8466 3050 EB81      		ldd r30,Y+3
 8467 3052 FC81      		ldd r31,Y+4
 8468 3054 628B      		std Z+18,r22
 8469 3056 738B      		std Z+19,r23
 8470 3058 848B      		std Z+20,r24
 8471 305a 958B      		std Z+21,r25
 8472               	.LM829:
 8473 305c 1582      		std Z+5,__zero_reg__
 8474               	.LVL691:
 8475               	.L546:
 8476               	.LM830:
 8477 305e AB81      		ldd r26,Y+3
 8478 3060 BC81      		ldd r27,Y+4
 8479 3062 0D91      		ld r16,X+
 8480 3064 1C91      		ld r17,X
 8481 3066 1197      		sbiw r26,1
 8482               	.LVL692:
 8483               	.LBB587:
 8484               	.LBB588:
 8485               	.LM831:
 8486 3068 5296      		adiw r26,18
 8487 306a 2D91      		ld r18,X+
 8488 306c 3D91      		ld r19,X+
 8489 306e 4D91      		ld r20,X+
 8490 3070 5C91      		ld r21,X
 8491 3072 5597      		sbiw r26,18+3
 8492               	.LVL693:
 8493 3074 2250      		subi r18,lo8(-(-2))
 8494 3076 3040      		sbci r19,hi8(-(-2))
 8495 3078 4040      		sbci r20,hlo8(-(-2))
 8496 307a 5040      		sbci r21,hhi8(-(-2))
 8497               	.LM832:
 8498 307c F801      		movw r30,r16
 8499 307e 828D      		ldd r24,Z+26
 8500 3080 938D      		ldd r25,Z+27
 8501 3082 A48D      		ldd r26,Z+28
 8502 3084 B58D      		ldd r27,Z+29
 8503 3086 0297      		sbiw r24,2
 8504 3088 A109      		sbc r26,__zero_reg__
 8505 308a B109      		sbc r27,__zero_reg__
 8506 308c 2817      		cp r18,r24
 8507 308e 3907      		cpc r19,r25
 8508 3090 4A07      		cpc r20,r26
 8509 3092 5B07      		cpc r21,r27
 8510 3094 00F4      		brsh .L551
 8511               	.LM833:
 8512 3096 6280      		ldd r6,Z+2
 8513 3098 662D      		mov r22,r6
 8514               	.LVL694:
 8515 309a 70E0      		ldi r23,lo8(0)
 8516 309c 80E0      		ldi r24,lo8(0)
 8517 309e 90E0      		ldi r25,hi8(0)
 8518 30a0 0E94 0000 		call __mulsi3
 8519               	.LVL695:
 8520 30a4 9B01      		movw r18,r22
 8521 30a6 AC01      		movw r20,r24
 8522               	.LVL696:
 8523 30a8 F801      		movw r30,r16
 8524 30aa 86A1      		ldd r24,Z+38
 8525 30ac 97A1      		ldd r25,Z+39
 8526 30ae A0A5      		ldd r26,Z+40
 8527 30b0 B1A5      		ldd r27,Z+41
 8528 30b2 280F      		add r18,r24
 8529 30b4 391F      		adc r19,r25
 8530 30b6 4A1F      		adc r20,r26
 8531 30b8 5B1F      		adc r21,r27
 8532               	.LBE588:
 8533               	.LBE587:
 8534               	.LM834:
 8535 30ba 2115      		cp r18,__zero_reg__
 8536 30bc 3105      		cpc r19,__zero_reg__
 8537 30be 4105      		cpc r20,__zero_reg__
 8538 30c0 5105      		cpc r21,__zero_reg__
 8539 30c2 01F4      		brne .L552
 8540               	.LVL697:
 8541               	.L551:
 8542 30c4 AB81      		ldd r26,Y+3
 8543 30c6 BC81      		ldd r27,Y+4
 8544 30c8 1496      		adiw r26,4
 8545 30ca 8C91      		ld r24,X
 8546 30cc 1497      		sbiw r26,4
 8547 30ce 8068      		ori r24,lo8(-128)
 8548 30d0 1496      		adiw r26,4
 8549 30d2 8C93      		st X,r24
 8550 30d4 00C0      		rjmp .L568
 8551               	.LVL698:
 8552               	.L552:
 8553               	.LM835:
 8554 30d6 EB81      		ldd r30,Y+3
 8555 30d8 FC81      		ldd r31,Y+4
 8556 30da 8581      		ldd r24,Z+5
 8557 30dc 5901      		movw r10,r18
 8558 30de 6A01      		movw r12,r20
 8559 30e0 A80E      		add r10,r24
 8560 30e2 B11C      		adc r11,__zero_reg__
 8561 30e4 C11C      		adc r12,__zero_reg__
 8562 30e6 D11C      		adc r13,__zero_reg__
 8563               	.LVL699:
 8564               	.LM836:
 8565 30e8 7401      		movw r14,r8
 8566 30ea EF2C      		mov r14,r15
 8567 30ec FF24      		clr r15
 8568 30ee E694      		lsr r14
 8569               	.LM837:
 8570 30f0 E114      		cp r14,__zero_reg__
 8571 30f2 F104      		cpc r15,__zero_reg__
 8572 30f4 01F4      		brne .+2
 8573 30f6 00C0      		rjmp .L553
 8574               	.LM838:
 8575 30f8 282F      		mov r18,r24
 8576 30fa 30E0      		ldi r19,lo8(0)
 8577 30fc C701      		movw r24,r14
 8578 30fe 820F      		add r24,r18
 8579 3100 931F      		adc r25,r19
 8580 3102 662D      		mov r22,r6
 8581 3104 70E0      		ldi r23,lo8(0)
 8582 3106 6817      		cp r22,r24
 8583 3108 7907      		cpc r23,r25
 8584 310a 00F4      		brsh .L554
 8585               	.LM839:
 8586 310c 7B01      		movw r14,r22
 8587 310e E21A      		sub r14,r18
 8588 3110 F30A      		sbc r15,r19
 8589               	.L554:
 8590               	.LM840:
 8591 3112 D801      		movw r26,r16
 8592 3114 1196      		adiw r26,1
 8593 3116 8C91      		ld r24,X
 8594 3118 B201      		movw r22,r4
 8595 311a A601      		movw r20,r12
 8596 311c 9501      		movw r18,r10
 8597 311e 0E2D      		mov r16,r14
 8598 3120 0E94 0000 		call disk_read
 8599 3124 EB81      		ldd r30,Y+3
 8600 3126 FC81      		ldd r31,Y+4
 8601 3128 9481      		ldd r25,Z+4
 8602 312a 8823      		tst r24
 8603 312c 01F0      		breq .L555
 8604               	.LM841:
 8605 312e 9068      		ori r25,lo8(-128)
 8606 3130 9483      		std Z+4,r25
 8607 3132 00C0      		rjmp .L570
 8608               	.L555:
 8609               	.LM842:
 8610 3134 96FF      		sbrs r25,6
 8611 3136 00C0      		rjmp .L556
 8612 3138 AB81      		ldd r26,Y+3
 8613 313a BC81      		ldd r27,Y+4
 8614 313c 5696      		adiw r26,22
 8615 313e 2D91      		ld r18,X+
 8616 3140 3D91      		ld r19,X+
 8617 3142 4D91      		ld r20,X+
 8618 3144 5C91      		ld r21,X
 8619 3146 5997      		sbiw r26,22+3
 8620 3148 2A19      		sub r18,r10
 8621 314a 3B09      		sbc r19,r11
 8622 314c 4C09      		sbc r20,r12
 8623 314e 5D09      		sbc r21,r13
 8624 3150 C701      		movw r24,r14
 8625 3152 A0E0      		ldi r26,lo8(0)
 8626 3154 B0E0      		ldi r27,hi8(0)
 8627               	.LVL700:
 8628 3156 2817      		cp r18,r24
 8629 3158 3907      		cpc r19,r25
 8630 315a 4A07      		cpc r20,r26
 8631 315c 5B07      		cpc r21,r27
 8632 315e 00F4      		brsh .L556
 8633               	.LVL701:
 8634               	.LBB589:
 8635               	.LBB586:
 8636               	.LM843:
 8637 3160 F9E0      		ldi r31,9
 8638 3162 220F      	1:	lsl r18
 8639 3164 331F      		rol r19
 8640 3166 441F      		rol r20
 8641 3168 551F      		rol r21
 8642 316a FA95      		dec r31
 8643 316c 01F4      		brne 1b
 8644 316e C201      		movw r24,r4
 8645               	.LVL702:
 8646 3170 820F      		add r24,r18
 8647 3172 931F      		adc r25,r19
 8648 3174 D101      		movw r26,r2
 8649               	.LVL703:
 8650 3176 FC01      		movw r30,r24
 8651               	.LM844:
 8652 3178 9C01      		movw r18,r24
 8653 317a 2050      		subi r18,lo8(-(512))
 8654 317c 3E4F      		sbci r19,hi8(-(512))
 8655 317e 00C0      		rjmp .L557
 8656               	.LVL704:
 8657               	.L558:
 8658 3180 8D91      		ld r24,X+
 8659 3182 8193      		st Z+,r24
 8660               	.LVL705:
 8661               	.L557:
 8662 3184 E217      		cp r30,r18
 8663 3186 F307      		cpc r31,r19
 8664 3188 01F4      		brne .L558
 8665               	.LVL706:
 8666               	.L556:
 8667               	.LBE586:
 8668               	.LBE589:
 8669               	.LM845:
 8670 318a EB81      		ldd r30,Y+3
 8671 318c FC81      		ldd r31,Y+4
 8672               	.LVL707:
 8673 318e 8581      		ldd r24,Z+5
 8674               	.LVL708:
 8675 3190 8E0D      		add r24,r14
 8676 3192 8583      		std Z+5,r24
 8677               	.LM846:
 8678 3194 B701      		movw r22,r14
 8679               	.LVL709:
 8680 3196 762F      		mov r23,r22
 8681 3198 6627      		clr r22
 8682 319a 770F      		lsl r23
 8683 319c 00C0      		rjmp .L559
 8684               	.LVL710:
 8685               	.L553:
 8686               	.LM847:
 8687 319e AB81      		ldd r26,Y+3
 8688 31a0 BC81      		ldd r27,Y+4
 8689 31a2 1496      		adiw r26,4
 8690 31a4 8C91      		ld r24,X
 8691 31a6 1497      		sbiw r26,4
 8692 31a8 86FF      		sbrs r24,6
 8693 31aa 00C0      		rjmp .L560
 8694               	.LM848:
 8695 31ac 5696      		adiw r26,22
 8696 31ae 2D91      		ld r18,X+
 8697 31b0 3D91      		ld r19,X+
 8698 31b2 4D91      		ld r20,X+
 8699 31b4 5C91      		ld r21,X
 8700 31b6 5997      		sbiw r26,22+3
 8701 31b8 F801      		movw r30,r16
 8702 31ba 8181      		ldd r24,Z+1
 8703 31bc B101      		movw r22,r2
 8704 31be 01E0      		ldi r16,lo8(1)
 8705 31c0 0E94 0000 		call disk_write
 8706 31c4 AB81      		ldd r26,Y+3
 8707 31c6 BC81      		ldd r27,Y+4
 8708 31c8 1496      		adiw r26,4
 8709 31ca 9C91      		ld r25,X
 8710 31cc 1497      		sbiw r26,4
 8711 31ce 8823      		tst r24
 8712 31d0 01F0      		breq .L561
 8713               	.LM849:
 8714 31d2 9068      		ori r25,lo8(-128)
 8715 31d4 1496      		adiw r26,4
 8716 31d6 9C93      		st X,r25
 8717 31d8 00C0      		rjmp .L570
 8718               	.L561:
 8719               	.LM850:
 8720 31da 9F7B      		andi r25,lo8(-65)
 8721 31dc EB81      		ldd r30,Y+3
 8722 31de FC81      		ldd r31,Y+4
 8723 31e0 9483      		std Z+4,r25
 8724               	.L560:
 8725               	.LM851:
 8726 31e2 EB81      		ldd r30,Y+3
 8727 31e4 FC81      		ldd r31,Y+4
 8728 31e6 8689      		ldd r24,Z+22
 8729 31e8 9789      		ldd r25,Z+23
 8730 31ea A08D      		ldd r26,Z+24
 8731 31ec B18D      		ldd r27,Z+25
 8732 31ee 8A15      		cp r24,r10
 8733 31f0 9B05      		cpc r25,r11
 8734 31f2 AC05      		cpc r26,r12
 8735 31f4 BD05      		cpc r27,r13
 8736 31f6 01F0      		breq .L562
 8737               	.LM852:
 8738 31f8 0190      		ld __tmp_reg__,Z+
 8739 31fa F081      		ld r31,Z
 8740 31fc E02D      		mov r30,__tmp_reg__
 8741 31fe 8181      		ldd r24,Z+1
 8742 3200 B101      		movw r22,r2
 8743 3202 A601      		movw r20,r12
 8744 3204 9501      		movw r18,r10
 8745 3206 01E0      		ldi r16,lo8(1)
 8746 3208 0E94 0000 		call disk_read
 8747 320c 8823      		tst r24
 8748 320e 01F0      		breq .L562
 8749               	.LVL711:
 8750               	.L569:
 8751               	.LM853:
 8752 3210 AB81      		ldd r26,Y+3
 8753 3212 BC81      		ldd r27,Y+4
 8754 3214 1496      		adiw r26,4
 8755 3216 8C91      		ld r24,X
 8756 3218 1497      		sbiw r26,4
 8757 321a 8068      		ori r24,lo8(-128)
 8758 321c 1496      		adiw r26,4
 8759 321e 8C93      		st X,r24
 8760               	.L570:
 8761 3220 7724      		clr r7
 8762 3222 7394      		inc r7
 8763 3224 00C0      		rjmp .L540
 8764               	.LVL712:
 8765               	.L562:
 8766               	.LM854:
 8767 3226 EB81      		ldd r30,Y+3
 8768 3228 FC81      		ldd r31,Y+4
 8769 322a A68A      		std Z+22,r10
 8770 322c B78A      		std Z+23,r11
 8771 322e C08E      		std Z+24,r12
 8772 3230 D18E      		std Z+25,r13
 8773               	.LM855:
 8774 3232 8581      		ldd r24,Z+5
 8775 3234 8F5F      		subi r24,lo8(-(1))
 8776 3236 8583      		std Z+5,r24
 8777               	.LVL713:
 8778               	.L545:
 8779               	.LM856:
 8780 3238 AB81      		ldd r26,Y+3
 8781 323a BC81      		ldd r27,Y+4
 8782 323c 1696      		adiw r26,6
 8783 323e 2D91      		ld r18,X+
 8784 3240 3D91      		ld r19,X+
 8785 3242 4D91      		ld r20,X+
 8786 3244 5C91      		ld r21,X
 8787 3246 1997      		sbiw r26,6+3
 8788 3248 C901      		movw r24,r18
 8789 324a 9170      		andi r25,hi8(511)
 8790 324c E0E0      		ldi r30,lo8(512)
 8791 324e F2E0      		ldi r31,hi8(512)
 8792 3250 E81B      		sub r30,r24
 8793 3252 F90B      		sbc r31,r25
 8794 3254 B401      		movw r22,r8
 8795 3256 E815      		cp r30,r8
 8796 3258 F905      		cpc r31,r9
 8797 325a 00F4      		brsh .L563
 8798               	.LVL714:
 8799 325c BF01      		movw r22,r30
 8800               	.L563:
 8801               	.LM857:
 8802 325e 8B01      		movw r16,r22
 8803               	.LVL715:
 8804               	.LBB590:
 8805               	.LBB591:
 8806               	.LM858:
 8807 3260 F901      		movw r30,r18
 8808               	.LVL716:
 8809 3262 F170      		andi r31,hi8(511)
 8810 3264 B096      		adiw r30,32
 8811 3266 8B81      		ldd r24,Y+3
 8812 3268 9C81      		ldd r25,Y+4
 8813 326a E80F      		add r30,r24
 8814 326c F91F      		adc r31,r25
 8815 326e 9201      		movw r18,r4
 8816 3270 00C0      		rjmp .L564
 8817               	.LVL717:
 8818               	.L565:
 8819               	.LM859:
 8820 3272 8191      		ld r24,Z+
 8821 3274 D901      		movw r26,r18
 8822 3276 8D93      		st X+,r24
 8823 3278 9D01      		movw r18,r26
 8824               	.LVL718:
 8825               	.L564:
 8826 327a 0150      		subi r16,lo8(-(-1))
 8827 327c 1040      		sbci r17,hi8(-(-1))
 8828 327e BFEF      		ldi r27,hi8(-1)
 8829 3280 0F3F      		cpi r16,lo8(-1)
 8830 3282 1B07      		cpc r17,r27
 8831 3284 01F4      		brne .L565
 8832               	.LVL719:
 8833               	.L559:
 8834               	.LBE591:
 8835               	.LBE590:
 8836               	.LM860:
 8837 3286 460E      		add r4,r22
 8838 3288 571E      		adc r5,r23
 8839 328a CB01      		movw r24,r22
 8840 328c A0E0      		ldi r26,lo8(0)
 8841 328e B0E0      		ldi r27,hi8(0)
 8842               	.LVL720:
 8843 3290 EB81      		ldd r30,Y+3
 8844 3292 FC81      		ldd r31,Y+4
 8845               	.LVL721:
 8846 3294 2681      		ldd r18,Z+6
 8847 3296 3781      		ldd r19,Z+7
 8848 3298 4085      		ldd r20,Z+8
 8849 329a 5185      		ldd r21,Z+9
 8850 329c 280F      		add r18,r24
 8851 329e 391F      		adc r19,r25
 8852 32a0 4A1F      		adc r20,r26
 8853 32a2 5B1F      		adc r21,r27
 8854 32a4 2683      		std Z+6,r18
 8855 32a6 3783      		std Z+7,r19
 8856 32a8 4087      		std Z+8,r20
 8857 32aa 5187      		std Z+9,r21
 8858 32ac E981      		ldd r30,Y+1
 8859 32ae FA81      		ldd r31,Y+2
 8860 32b0 8081      		ld r24,Z
 8861 32b2 9181      		ldd r25,Z+1
 8862 32b4 860F      		add r24,r22
 8863 32b6 971F      		adc r25,r23
 8864 32b8 8083      		st Z,r24
 8865 32ba 9183      		std Z+1,r25
 8866 32bc 861A      		sub r8,r22
 8867 32be 970A      		sbc r9,r23
 8868               	.LVL722:
 8869               	.L544:
 8870               	.LM861:
 8871 32c0 8114      		cp r8,__zero_reg__
 8872 32c2 9104      		cpc r9,__zero_reg__
 8873 32c4 01F0      		breq .+2
 8874 32c6 00C0      		rjmp .L566
 8875               	.LVL723:
 8876               	.L540:
 8877               	.LM862:
 8878 32c8 872D      		mov r24,r7
 8879               	/* epilogue start */
 8880 32ca 2496      		adiw r28,4
 8881 32cc CDBF      		out __SP_L__,r28
 8882 32ce DEBF      		out __SP_H__,r29
 8883 32d0 CF91      		pop r28
 8884 32d2 DF91      		pop r29
 8885 32d4 1F91      		pop r17
 8886               	.LVL724:
 8887 32d6 0F91      		pop r16
 8888               	.LVL725:
 8889 32d8 FF90      		pop r15
 8890 32da EF90      		pop r14
 8891               	.LVL726:
 8892 32dc DF90      		pop r13
 8893 32de CF90      		pop r12
 8894 32e0 BF90      		pop r11
 8895 32e2 AF90      		pop r10
 8896               	.LVL727:
 8897 32e4 9F90      		pop r9
 8898 32e6 8F90      		pop r8
 8899               	.LVL728:
 8900 32e8 7F90      		pop r7
 8901               	.LVL729:
 8902 32ea 6F90      		pop r6
 8903 32ec 5F90      		pop r5
 8904 32ee 4F90      		pop r4
 8905               	.LVL730:
 8906 32f0 3F90      		pop r3
 8907 32f2 2F90      		pop r2
 8908               	.LVL731:
 8909 32f4 0895      		ret
 8910               	.LFE67:
 8912               	.global	f_write
 8914               	f_write:
 8915               	.LFB68:
 8916               	.LM863:
 8917               	.LVL732:
 8918 32f6 2F92      		push r2
 8919 32f8 3F92      		push r3
 8920 32fa 4F92      		push r4
 8921 32fc 5F92      		push r5
 8922 32fe 6F92      		push r6
 8923 3300 7F92      		push r7
 8924 3302 8F92      		push r8
 8925 3304 9F92      		push r9
 8926 3306 AF92      		push r10
 8927 3308 BF92      		push r11
 8928 330a CF92      		push r12
 8929 330c DF92      		push r13
 8930 330e EF92      		push r14
 8931 3310 FF92      		push r15
 8932 3312 0F93      		push r16
 8933 3314 1F93      		push r17
 8934 3316 DF93      		push r29
 8935 3318 CF93      		push r28
 8936 331a 00D0      		rcall .
 8937 331c 0F92      		push __tmp_reg__
 8938 331e CDB7      		in r28,__SP_L__
 8939 3320 DEB7      		in r29,__SP_H__
 8940               	/* prologue: function */
 8941               	/* frame size = 4 */
 8942 3322 8B83      		std Y+3,r24
 8943 3324 9C83      		std Y+4,r25
 8944 3326 162F      		mov r17,r22
 8945 3328 072F      		mov r16,r23
 8946               	.LVL733:
 8947 332a 4A01      		movw r8,r20
 8948 332c 2983      		std Y+1,r18
 8949 332e 3A83      		std Y+2,r19
 8950               	.LM864:
 8951 3330 D901      		movw r26,r18
 8952 3332 1D92      		st X+,__zero_reg__
 8953 3334 1C92      		st X,__zero_reg__
 8954               	.LM865:
 8955 3336 FC01      		movw r30,r24
 8956 3338 6281      		ldd r22,Z+2
 8957 333a 7381      		ldd r23,Z+3
 8958               	.LVL734:
 8959 333c 8081      		ld r24,Z
 8960 333e 9181      		ldd r25,Z+1
 8961               	.LVL735:
 8962 3340 0E94 0000 		call validate
 8963               	.LVL736:
 8964 3344 682E      		mov r6,r24
 8965               	.LVL737:
 8966               	.LM866:
 8967 3346 8823      		tst r24
 8968 3348 01F0      		breq .+2
 8969 334a 00C0      		rjmp .L572
 8970               	.LVL738:
 8971               	.LM867:
 8972 334c AB81      		ldd r26,Y+3
 8973 334e BC81      		ldd r27,Y+4
 8974 3350 1496      		adiw r26,4
 8975 3352 8C91      		ld r24,X
 8976               	.LVL739:
 8977 3354 87FD      		sbrc r24,7
 8978 3356 00C0      		rjmp .L603
 8979               	.L573:
 8980               	.LM868:
 8981 3358 81FD      		sbrc r24,1
 8982 335a 00C0      		rjmp .L574
 8983 335c 57E0      		ldi r21,lo8(7)
 8984 335e 652E      		mov r6,r21
 8985 3360 00C0      		rjmp .L572
 8986               	.L574:
 8987               	.LM869:
 8988 3362 EB81      		ldd r30,Y+3
 8989 3364 FC81      		ldd r31,Y+4
 8990 3366 2285      		ldd r18,Z+10
 8991 3368 3385      		ldd r19,Z+11
 8992 336a 4485      		ldd r20,Z+12
 8993 336c 5585      		ldd r21,Z+13
 8994 336e C401      		movw r24,r8
 8995 3370 A0E0      		ldi r26,lo8(0)
 8996 3372 B0E0      		ldi r27,hi8(0)
 8997               	.LVL740:
 8998 3374 820F      		add r24,r18
 8999 3376 931F      		adc r25,r19
 9000 3378 A41F      		adc r26,r20
 9001 337a B51F      		adc r27,r21
 9002               	.LVL741:
 9003 337c 8217      		cp r24,r18
 9004 337e 9307      		cpc r25,r19
 9005 3380 A407      		cpc r26,r20
 9006 3382 B507      		cpc r27,r21
 9007 3384 00F4      		brsh .L575
 9008 3386 8824      		clr r8
 9009 3388 9924      		clr r9
 9010               	.LVL742:
 9011               	.L575:
 9012               	.LM870:
 9013 338a 812F      		mov r24,r17
 9014               	.LVL743:
 9015 338c 902F      		mov r25,r16
 9016               	.LVL744:
 9017 338e 9C01      		movw r18,r24
 9018               	.LVL745:
 9019 3390 2901      		movw r4,r18
 9020               	.LVL746:
 9021               	.LM871:
 9022 3392 40E2      		ldi r20,lo8(32)
 9023 3394 242E      		mov r2,r20
 9024 3396 312C      		mov r3,__zero_reg__
 9025               	.LVL747:
 9026 3398 6B81      		ldd r22,Y+3
 9027 339a 7C81      		ldd r23,Y+4
 9028 339c 260E      		add r2,r22
 9029 339e 371E      		adc r3,r23
 9030 33a0 00C0      		rjmp .L576
 9031               	.LVL748:
 9032               	.L600:
 9033               	.LM872:
 9034 33a2 AB81      		ldd r26,Y+3
 9035 33a4 BC81      		ldd r27,Y+4
 9036               	.LVL749:
 9037 33a6 1696      		adiw r26,6
 9038 33a8 2D91      		ld r18,X+
 9039 33aa 3D91      		ld r19,X+
 9040 33ac 4D91      		ld r20,X+
 9041 33ae 5C91      		ld r21,X
 9042 33b0 1997      		sbiw r26,6+3
 9043 33b2 DA01      		movw r26,r20
 9044 33b4 C901      		movw r24,r18
 9045 33b6 9170      		andi r25,hi8(511)
 9046 33b8 A070      		andi r26,hlo8(511)
 9047 33ba B070      		andi r27,hhi8(511)
 9048 33bc 0097      		sbiw r24,0
 9049 33be A105      		cpc r26,__zero_reg__
 9050 33c0 B105      		cpc r27,__zero_reg__
 9051 33c2 01F0      		breq .+2
 9052 33c4 00C0      		rjmp .L577
 9053               	.LM873:
 9054 33c6 AB81      		ldd r26,Y+3
 9055 33c8 BC81      		ldd r27,Y+4
 9056 33ca ED91      		ld r30,X+
 9057 33cc FC91      		ld r31,X
 9058 33ce 1197      		sbiw r26,1
 9059 33d0 1596      		adiw r26,5
 9060 33d2 9C91      		ld r25,X
 9061 33d4 1597      		sbiw r26,5
 9062               	.LVL750:
 9063 33d6 8281      		ldd r24,Z+2
 9064 33d8 9817      		cp r25,r24
 9065 33da 00F4      		brsh .+2
 9066 33dc 00C0      		rjmp .L578
 9067               	.LM874:
 9068 33de 2115      		cp r18,__zero_reg__
 9069 33e0 3105      		cpc r19,__zero_reg__
 9070 33e2 4105      		cpc r20,__zero_reg__
 9071 33e4 5105      		cpc r21,__zero_reg__
 9072 33e6 01F4      		brne .L579
 9073               	.LM875:
 9074 33e8 1E96      		adiw r26,14
 9075 33ea 6D91      		ld r22,X+
 9076 33ec 7D91      		ld r23,X+
 9077 33ee 8D91      		ld r24,X+
 9078 33f0 9C91      		ld r25,X
 9079 33f2 5197      		sbiw r26,14+3
 9080               	.LVL751:
 9081               	.LM876:
 9082 33f4 6115      		cp r22,__zero_reg__
 9083 33f6 7105      		cpc r23,__zero_reg__
 9084 33f8 8105      		cpc r24,__zero_reg__
 9085 33fa 9105      		cpc r25,__zero_reg__
 9086 33fc 01F4      		brne .L580
 9087               	.LM877:
 9088 33fe CF01      		movw r24,r30
 9089 3400 40E0      		ldi r20,lo8(0)
 9090 3402 50E0      		ldi r21,hi8(0)
 9091 3404 60E0      		ldi r22,hlo8(0)
 9092 3406 70E0      		ldi r23,hhi8(0)
 9093 3408 0E94 0000 		call create_chain
 9094               	.LVL752:
 9095 340c EB81      		ldd r30,Y+3
 9096 340e FC81      		ldd r31,Y+4
 9097 3410 6687      		std Z+14,r22
 9098 3412 7787      		std Z+15,r23
 9099 3414 808B      		std Z+16,r24
 9100 3416 918B      		std Z+17,r25
 9101               	.LVL753:
 9102 3418 00C0      		rjmp .L581
 9103               	.LVL754:
 9104               	.L579:
 9105               	.LM878:
 9106 341a AB81      		ldd r26,Y+3
 9107 341c BC81      		ldd r27,Y+4
 9108 341e 5296      		adiw r26,18
 9109 3420 4D91      		ld r20,X+
 9110 3422 5D91      		ld r21,X+
 9111 3424 6D91      		ld r22,X+
 9112 3426 7C91      		ld r23,X
 9113 3428 5597      		sbiw r26,18+3
 9114 342a CF01      		movw r24,r30
 9115 342c 0E94 0000 		call create_chain
 9116               	.LVL755:
 9117               	.L581:
 9118               	.LM879:
 9119 3430 6115      		cp r22,__zero_reg__
 9120 3432 7105      		cpc r23,__zero_reg__
 9121 3434 8105      		cpc r24,__zero_reg__
 9122 3436 9105      		cpc r25,__zero_reg__
 9123 3438 01F4      		brne .+2
 9124 343a 00C0      		rjmp .L582
 9125               	.L580:
 9126               	.LM880:
 9127 343c 6130      		cpi r22,lo8(1)
 9128 343e 7105      		cpc r23,__zero_reg__
 9129 3440 8105      		cpc r24,__zero_reg__
 9130 3442 9105      		cpc r25,__zero_reg__
 9131 3444 01F4      		brne .L583
 9132 3446 EB81      		ldd r30,Y+3
 9133 3448 FC81      		ldd r31,Y+4
 9134 344a 8481      		ldd r24,Z+4
 9135 344c 8068      		ori r24,lo8(-128)
 9136 344e 8483      		std Z+4,r24
 9137               	.LVL756:
 9138               	.L603:
 9139 3450 32E0      		ldi r19,lo8(2)
 9140 3452 632E      		mov r6,r19
 9141 3454 00C0      		rjmp .L572
 9142               	.LVL757:
 9143               	.L583:
 9144               	.LM881:
 9145 3456 6F3F      		cpi r22,lo8(-1)
 9146 3458 FFEF      		ldi r31,hi8(-1)
 9147 345a 7F07      		cpc r23,r31
 9148 345c FFEF      		ldi r31,hlo8(-1)
 9149 345e 8F07      		cpc r24,r31
 9150 3460 FFEF      		ldi r31,hhi8(-1)
 9151 3462 9F07      		cpc r25,r31
 9152 3464 01F4      		brne .L584
 9153 3466 AB81      		ldd r26,Y+3
 9154 3468 BC81      		ldd r27,Y+4
 9155 346a 1496      		adiw r26,4
 9156 346c 8C91      		ld r24,X
 9157 346e 1497      		sbiw r26,4
 9158 3470 8068      		ori r24,lo8(-128)
 9159 3472 1496      		adiw r26,4
 9160 3474 8C93      		st X,r24
 9161 3476 00C0      		rjmp .L604
 9162               	.L584:
 9163               	.LM882:
 9164 3478 EB81      		ldd r30,Y+3
 9165 347a FC81      		ldd r31,Y+4
 9166 347c 628B      		std Z+18,r22
 9167 347e 738B      		std Z+19,r23
 9168 3480 848B      		std Z+20,r24
 9169 3482 958B      		std Z+21,r25
 9170               	.LM883:
 9171 3484 1582      		std Z+5,__zero_reg__
 9172               	.LVL758:
 9173               	.L578:
 9174               	.LM884:
 9175 3486 AB81      		ldd r26,Y+3
 9176 3488 BC81      		ldd r27,Y+4
 9177 348a 1496      		adiw r26,4
 9178 348c 8C91      		ld r24,X
 9179 348e 1497      		sbiw r26,4
 9180 3490 86FF      		sbrs r24,6
 9181 3492 00C0      		rjmp .L585
 9182               	.LM885:
 9183 3494 ED91      		ld r30,X+
 9184 3496 FC91      		ld r31,X
 9185 3498 1197      		sbiw r26,1
 9186 349a 5696      		adiw r26,22
 9187 349c 2D91      		ld r18,X+
 9188 349e 3D91      		ld r19,X+
 9189 34a0 4D91      		ld r20,X+
 9190 34a2 5C91      		ld r21,X
 9191 34a4 5997      		sbiw r26,22+3
 9192 34a6 8181      		ldd r24,Z+1
 9193 34a8 B101      		movw r22,r2
 9194               	.LVL759:
 9195 34aa 01E0      		ldi r16,lo8(1)
 9196               	.LVL760:
 9197 34ac 0E94 0000 		call disk_write
 9198 34b0 EB81      		ldd r30,Y+3
 9199 34b2 FC81      		ldd r31,Y+4
 9200 34b4 9481      		ldd r25,Z+4
 9201 34b6 8823      		tst r24
 9202 34b8 01F0      		breq .L586
 9203               	.LM886:
 9204 34ba 9068      		ori r25,lo8(-128)
 9205 34bc 9483      		std Z+4,r25
 9206 34be 00C0      		rjmp .L604
 9207               	.L586:
 9208               	.LM887:
 9209 34c0 9F7B      		andi r25,lo8(-65)
 9210 34c2 AB81      		ldd r26,Y+3
 9211 34c4 BC81      		ldd r27,Y+4
 9212 34c6 1496      		adiw r26,4
 9213 34c8 9C93      		st X,r25
 9214               	.LVL761:
 9215               	.L585:
 9216               	.LM888:
 9217 34ca EB81      		ldd r30,Y+3
 9218 34cc FC81      		ldd r31,Y+4
 9219 34ce 0081      		ld r16,Z
 9220 34d0 1181      		ldd r17,Z+1
 9221               	.LVL762:
 9222               	.LBB592:
 9223               	.LBB593:
 9224               	.LM889:
 9225 34d2 2289      		ldd r18,Z+18
 9226 34d4 3389      		ldd r19,Z+19
 9227 34d6 4489      		ldd r20,Z+20
 9228 34d8 5589      		ldd r21,Z+21
 9229               	.LVL763:
 9230 34da 2250      		subi r18,lo8(-(-2))
 9231 34dc 3040      		sbci r19,hi8(-(-2))
 9232 34de 4040      		sbci r20,hlo8(-(-2))
 9233 34e0 5040      		sbci r21,hhi8(-(-2))
 9234               	.LM890:
 9235 34e2 F801      		movw r30,r16
 9236 34e4 828D      		ldd r24,Z+26
 9237 34e6 938D      		ldd r25,Z+27
 9238 34e8 A48D      		ldd r26,Z+28
 9239 34ea B58D      		ldd r27,Z+29
 9240 34ec 0297      		sbiw r24,2
 9241 34ee A109      		sbc r26,__zero_reg__
 9242 34f0 B109      		sbc r27,__zero_reg__
 9243 34f2 2817      		cp r18,r24
 9244 34f4 3907      		cpc r19,r25
 9245 34f6 4A07      		cpc r20,r26
 9246 34f8 5B07      		cpc r21,r27
 9247 34fa 00F4      		brsh .L587
 9248               	.LM891:
 9249 34fc 7280      		ldd r7,Z+2
 9250 34fe 672D      		mov r22,r7
 9251               	.LVL764:
 9252 3500 70E0      		ldi r23,lo8(0)
 9253 3502 80E0      		ldi r24,lo8(0)
 9254 3504 90E0      		ldi r25,hi8(0)
 9255 3506 0E94 0000 		call __mulsi3
 9256               	.LVL765:
 9257 350a 9B01      		movw r18,r22
 9258 350c AC01      		movw r20,r24
 9259               	.LVL766:
 9260 350e F801      		movw r30,r16
 9261 3510 86A1      		ldd r24,Z+38
 9262 3512 97A1      		ldd r25,Z+39
 9263 3514 A0A5      		ldd r26,Z+40
 9264 3516 B1A5      		ldd r27,Z+41
 9265 3518 280F      		add r18,r24
 9266 351a 391F      		adc r19,r25
 9267 351c 4A1F      		adc r20,r26
 9268 351e 5B1F      		adc r21,r27
 9269               	.LBE593:
 9270               	.LBE592:
 9271               	.LM892:
 9272 3520 2115      		cp r18,__zero_reg__
 9273 3522 3105      		cpc r19,__zero_reg__
 9274 3524 4105      		cpc r20,__zero_reg__
 9275 3526 5105      		cpc r21,__zero_reg__
 9276 3528 01F4      		brne .L588
 9277               	.LVL767:
 9278               	.L587:
 9279 352a AB81      		ldd r26,Y+3
 9280 352c BC81      		ldd r27,Y+4
 9281 352e 1496      		adiw r26,4
 9282 3530 8C91      		ld r24,X
 9283 3532 1497      		sbiw r26,4
 9284 3534 8068      		ori r24,lo8(-128)
 9285 3536 1496      		adiw r26,4
 9286 3538 8C93      		st X,r24
 9287 353a 00C0      		rjmp .L603
 9288               	.LVL768:
 9289               	.L588:
 9290               	.LM893:
 9291 353c EB81      		ldd r30,Y+3
 9292 353e FC81      		ldd r31,Y+4
 9293 3540 8581      		ldd r24,Z+5
 9294 3542 6901      		movw r12,r18
 9295 3544 7A01      		movw r14,r20
 9296 3546 C80E      		add r12,r24
 9297 3548 D11C      		adc r13,__zero_reg__
 9298 354a E11C      		adc r14,__zero_reg__
 9299 354c F11C      		adc r15,__zero_reg__
 9300               	.LVL769:
 9301               	.LM894:
 9302 354e 5401      		movw r10,r8
 9303 3550 AB2C      		mov r10,r11
 9304 3552 BB24      		clr r11
 9305 3554 A694      		lsr r10
 9306               	.LM895:
 9307 3556 A114      		cp r10,__zero_reg__
 9308 3558 B104      		cpc r11,__zero_reg__
 9309 355a 01F4      		brne .+2
 9310 355c 00C0      		rjmp .L589
 9311               	.LM896:
 9312 355e 282F      		mov r18,r24
 9313 3560 30E0      		ldi r19,lo8(0)
 9314 3562 C501      		movw r24,r10
 9315 3564 820F      		add r24,r18
 9316 3566 931F      		adc r25,r19
 9317 3568 672D      		mov r22,r7
 9318 356a 70E0      		ldi r23,lo8(0)
 9319 356c 6817      		cp r22,r24
 9320 356e 7907      		cpc r23,r25
 9321 3570 00F4      		brsh .L590
 9322               	.LM897:
 9323 3572 5B01      		movw r10,r22
 9324 3574 A21A      		sub r10,r18
 9325 3576 B30A      		sbc r11,r19
 9326               	.L590:
 9327               	.LM898:
 9328 3578 D801      		movw r26,r16
 9329 357a 1196      		adiw r26,1
 9330 357c 8C91      		ld r24,X
 9331 357e B201      		movw r22,r4
 9332 3580 A701      		movw r20,r14
 9333 3582 9601      		movw r18,r12
 9334 3584 0A2D      		mov r16,r10
 9335 3586 0E94 0000 		call disk_write
 9336 358a 8823      		tst r24
 9337 358c 01F0      		breq .+2
 9338 358e 00C0      		rjmp .L605
 9339               	.L591:
 9340               	.LM899:
 9341 3590 AB81      		ldd r26,Y+3
 9342 3592 BC81      		ldd r27,Y+4
 9343 3594 5696      		adiw r26,22
 9344 3596 2D91      		ld r18,X+
 9345 3598 3D91      		ld r19,X+
 9346 359a 4D91      		ld r20,X+
 9347 359c 5C91      		ld r21,X
 9348 359e 5997      		sbiw r26,22+3
 9349 35a0 2C19      		sub r18,r12
 9350 35a2 3D09      		sbc r19,r13
 9351 35a4 4E09      		sbc r20,r14
 9352 35a6 5F09      		sbc r21,r15
 9353 35a8 C501      		movw r24,r10
 9354 35aa A0E0      		ldi r26,lo8(0)
 9355 35ac B0E0      		ldi r27,hi8(0)
 9356               	.LVL770:
 9357 35ae 2817      		cp r18,r24
 9358 35b0 3907      		cpc r19,r25
 9359 35b2 4A07      		cpc r20,r26
 9360 35b4 5B07      		cpc r21,r27
 9361 35b6 00F4      		brsh .L592
 9362               	.LVL771:
 9363               	.LBB594:
 9364               	.LBB595:
 9365               	.LM900:
 9366 35b8 99E0      		ldi r25,9
 9367 35ba 220F      	1:	lsl r18
 9368 35bc 331F      		rol r19
 9369 35be 441F      		rol r20
 9370 35c0 551F      		rol r21
 9371 35c2 9A95      		dec r25
 9372 35c4 01F4      		brne 1b
 9373 35c6 F201      		movw r30,r4
 9374               	.LVL772:
 9375 35c8 E20F      		add r30,r18
 9376 35ca F31F      		adc r31,r19
 9377 35cc D101      		movw r26,r2
 9378               	.LVL773:
 9379               	.LM901:
 9380 35ce 9F01      		movw r18,r30
 9381 35d0 2050      		subi r18,lo8(-(512))
 9382 35d2 3E4F      		sbci r19,hi8(-(512))
 9383 35d4 00C0      		rjmp .L593
 9384               	.LVL774:
 9385               	.L594:
 9386 35d6 8191      		ld r24,Z+
 9387               	.LVL775:
 9388 35d8 8D93      		st X+,r24
 9389               	.LVL776:
 9390               	.L593:
 9391 35da E217      		cp r30,r18
 9392 35dc F307      		cpc r31,r19
 9393 35de 01F4      		brne .L594
 9394               	.LVL777:
 9395               	.LBE595:
 9396               	.LBE594:
 9397               	.LM902:
 9398 35e0 EB81      		ldd r30,Y+3
 9399 35e2 FC81      		ldd r31,Y+4
 9400               	.LVL778:
 9401 35e4 8481      		ldd r24,Z+4
 9402               	.LVL779:
 9403 35e6 8F7B      		andi r24,lo8(-65)
 9404 35e8 8483      		std Z+4,r24
 9405               	.LVL780:
 9406               	.L592:
 9407               	.LM903:
 9408 35ea AB81      		ldd r26,Y+3
 9409 35ec BC81      		ldd r27,Y+4
 9410               	.LVL781:
 9411 35ee 1596      		adiw r26,5
 9412 35f0 8C91      		ld r24,X
 9413 35f2 1597      		sbiw r26,5
 9414 35f4 8A0D      		add r24,r10
 9415 35f6 1596      		adiw r26,5
 9416 35f8 8C93      		st X,r24
 9417               	.LM904:
 9418 35fa B501      		movw r22,r10
 9419               	.LVL782:
 9420 35fc 762F      		mov r23,r22
 9421 35fe 6627      		clr r22
 9422 3600 770F      		lsl r23
 9423 3602 00C0      		rjmp .L595
 9424               	.LVL783:
 9425               	.L589:
 9426               	.LM905:
 9427 3604 EB81      		ldd r30,Y+3
 9428 3606 FC81      		ldd r31,Y+4
 9429 3608 8689      		ldd r24,Z+22
 9430 360a 9789      		ldd r25,Z+23
 9431 360c A08D      		ldd r26,Z+24
 9432 360e B18D      		ldd r27,Z+25
 9433 3610 8C15      		cp r24,r12
 9434 3612 9D05      		cpc r25,r13
 9435 3614 AE05      		cpc r26,r14
 9436 3616 BF05      		cpc r27,r15
 9437 3618 01F0      		breq .L596
 9438               	.LM906:
 9439 361a 2681      		ldd r18,Z+6
 9440 361c 3781      		ldd r19,Z+7
 9441 361e 4085      		ldd r20,Z+8
 9442 3620 5185      		ldd r21,Z+9
 9443 3622 8285      		ldd r24,Z+10
 9444 3624 9385      		ldd r25,Z+11
 9445 3626 A485      		ldd r26,Z+12
 9446 3628 B585      		ldd r27,Z+13
 9447 362a 2817      		cp r18,r24
 9448 362c 3907      		cpc r19,r25
 9449 362e 4A07      		cpc r20,r26
 9450 3630 5B07      		cpc r21,r27
 9451 3632 00F4      		brsh .L596
 9452 3634 D801      		movw r26,r16
 9453 3636 1196      		adiw r26,1
 9454 3638 8C91      		ld r24,X
 9455 363a B101      		movw r22,r2
 9456 363c A701      		movw r20,r14
 9457 363e 9601      		movw r18,r12
 9458 3640 01E0      		ldi r16,lo8(1)
 9459 3642 0E94 0000 		call disk_read
 9460 3646 8823      		tst r24
 9461 3648 01F0      		breq .L596
 9462               	.L605:
 9463               	.LM907:
 9464 364a EB81      		ldd r30,Y+3
 9465 364c FC81      		ldd r31,Y+4
 9466 364e 8481      		ldd r24,Z+4
 9467 3650 8068      		ori r24,lo8(-128)
 9468 3652 8483      		std Z+4,r24
 9469               	.LVL784:
 9470               	.L604:
 9471 3654 6624      		clr r6
 9472 3656 6394      		inc r6
 9473 3658 00C0      		rjmp .L572
 9474               	.LVL785:
 9475               	.L596:
 9476               	.LM908:
 9477 365a AB81      		ldd r26,Y+3
 9478 365c BC81      		ldd r27,Y+4
 9479 365e 5696      		adiw r26,22
 9480 3660 CD92      		st X+,r12
 9481 3662 DD92      		st X+,r13
 9482 3664 ED92      		st X+,r14
 9483 3666 FC92      		st X,r15
 9484 3668 5997      		sbiw r26,22+3
 9485               	.LM909:
 9486 366a 1596      		adiw r26,5
 9487 366c 8C91      		ld r24,X
 9488 366e 1597      		sbiw r26,5
 9489 3670 8F5F      		subi r24,lo8(-(1))
 9490 3672 1596      		adiw r26,5
 9491 3674 8C93      		st X,r24
 9492               	.LVL786:
 9493               	.L577:
 9494               	.LM910:
 9495 3676 EB81      		ldd r30,Y+3
 9496 3678 FC81      		ldd r31,Y+4
 9497 367a 2681      		ldd r18,Z+6
 9498 367c 3781      		ldd r19,Z+7
 9499 367e 4085      		ldd r20,Z+8
 9500 3680 5185      		ldd r21,Z+9
 9501 3682 C901      		movw r24,r18
 9502 3684 9170      		andi r25,hi8(511)
 9503 3686 60E0      		ldi r22,lo8(512)
 9504 3688 72E0      		ldi r23,hi8(512)
 9505               	.LVL787:
 9506 368a 681B      		sub r22,r24
 9507 368c 790B      		sbc r23,r25
 9508 368e CB01      		movw r24,r22
 9509               	.LVL788:
 9510 3690 B401      		movw r22,r8
 9511               	.LVL789:
 9512 3692 8815      		cp r24,r8
 9513 3694 9905      		cpc r25,r9
 9514 3696 00F4      		brsh .L597
 9515               	.LVL790:
 9516 3698 BC01      		movw r22,r24
 9517               	.L597:
 9518               	.LM911:
 9519 369a 8B01      		movw r16,r22
 9520               	.LVL791:
 9521               	.LBB596:
 9522               	.LBB597:
 9523               	.LM912:
 9524 369c F901      		movw r30,r18
 9525               	.LVL792:
 9526 369e F170      		andi r31,hi8(511)
 9527 36a0 B096      		adiw r30,32
 9528 36a2 8B81      		ldd r24,Y+3
 9529 36a4 9C81      		ldd r25,Y+4
 9530               	.LVL793:
 9531 36a6 E80F      		add r30,r24
 9532 36a8 F91F      		adc r31,r25
 9533 36aa 9201      		movw r18,r4
 9534 36ac 00C0      		rjmp .L598
 9535               	.LVL794:
 9536               	.L599:
 9537               	.LM913:
 9538 36ae D901      		movw r26,r18
 9539 36b0 8D91      		ld r24,X+
 9540 36b2 9D01      		movw r18,r26
 9541 36b4 8193      		st Z+,r24
 9542               	.LVL795:
 9543               	.L598:
 9544 36b6 0150      		subi r16,lo8(-(-1))
 9545 36b8 1040      		sbci r17,hi8(-(-1))
 9546 36ba BFEF      		ldi r27,hi8(-1)
 9547 36bc 0F3F      		cpi r16,lo8(-1)
 9548 36be 1B07      		cpc r17,r27
 9549 36c0 01F4      		brne .L599
 9550               	.LBE597:
 9551               	.LBE596:
 9552               	.LM914:
 9553 36c2 EB81      		ldd r30,Y+3
 9554 36c4 FC81      		ldd r31,Y+4
 9555               	.LVL796:
 9556 36c6 8481      		ldd r24,Z+4
 9557 36c8 8064      		ori r24,lo8(64)
 9558 36ca 8483      		std Z+4,r24
 9559               	.LVL797:
 9560               	.L595:
 9561               	.LM915:
 9562 36cc 460E      		add r4,r22
 9563 36ce 571E      		adc r5,r23
 9564 36d0 CB01      		movw r24,r22
 9565 36d2 A0E0      		ldi r26,lo8(0)
 9566 36d4 B0E0      		ldi r27,hi8(0)
 9567               	.LVL798:
 9568 36d6 EB81      		ldd r30,Y+3
 9569 36d8 FC81      		ldd r31,Y+4
 9570 36da 2681      		ldd r18,Z+6
 9571 36dc 3781      		ldd r19,Z+7
 9572 36de 4085      		ldd r20,Z+8
 9573 36e0 5185      		ldd r21,Z+9
 9574 36e2 280F      		add r18,r24
 9575 36e4 391F      		adc r19,r25
 9576 36e6 4A1F      		adc r20,r26
 9577 36e8 5B1F      		adc r21,r27
 9578 36ea 2683      		std Z+6,r18
 9579 36ec 3783      		std Z+7,r19
 9580 36ee 4087      		std Z+8,r20
 9581 36f0 5187      		std Z+9,r21
 9582 36f2 E981      		ldd r30,Y+1
 9583 36f4 FA81      		ldd r31,Y+2
 9584 36f6 8081      		ld r24,Z
 9585 36f8 9181      		ldd r25,Z+1
 9586 36fa 860F      		add r24,r22
 9587 36fc 971F      		adc r25,r23
 9588 36fe 8083      		st Z,r24
 9589 3700 9183      		std Z+1,r25
 9590 3702 861A      		sub r8,r22
 9591 3704 970A      		sbc r9,r23
 9592               	.LVL799:
 9593               	.L576:
 9594               	.LM916:
 9595 3706 8114      		cp r8,__zero_reg__
 9596 3708 9104      		cpc r9,__zero_reg__
 9597 370a 01F0      		breq .+2
 9598 370c 00C0      		rjmp .L600
 9599               	.LVL800:
 9600               	.L582:
 9601               	.LM917:
 9602 370e AB81      		ldd r26,Y+3
 9603 3710 BC81      		ldd r27,Y+4
 9604               	.LVL801:
 9605 3712 1696      		adiw r26,6
 9606 3714 2D91      		ld r18,X+
 9607 3716 3D91      		ld r19,X+
 9608 3718 4D91      		ld r20,X+
 9609 371a 5C91      		ld r21,X
 9610 371c 1997      		sbiw r26,6+3
 9611 371e 1A96      		adiw r26,10
 9612 3720 8D91      		ld r24,X+
 9613 3722 9D91      		ld r25,X+
 9614 3724 0D90      		ld __tmp_reg__,X+
 9615 3726 BC91      		ld r27,X
 9616 3728 A02D      		mov r26,__tmp_reg__
 9617 372a 8217      		cp r24,r18
 9618 372c 9307      		cpc r25,r19
 9619 372e A407      		cpc r26,r20
 9620 3730 B507      		cpc r27,r21
 9621 3732 00F4      		brsh .L601
 9622 3734 EB81      		ldd r30,Y+3
 9623 3736 FC81      		ldd r31,Y+4
 9624 3738 2287      		std Z+10,r18
 9625 373a 3387      		std Z+11,r19
 9626 373c 4487      		std Z+12,r20
 9627 373e 5587      		std Z+13,r21
 9628               	.L601:
 9629               	.LM918:
 9630 3740 AB81      		ldd r26,Y+3
 9631 3742 BC81      		ldd r27,Y+4
 9632 3744 1496      		adiw r26,4
 9633 3746 8C91      		ld r24,X
 9634 3748 1497      		sbiw r26,4
 9635 374a 8062      		ori r24,lo8(32)
 9636 374c 1496      		adiw r26,4
 9637 374e 8C93      		st X,r24
 9638               	.LVL802:
 9639               	.L572:
 9640               	.LM919:
 9641 3750 862D      		mov r24,r6
 9642               	/* epilogue start */
 9643 3752 2496      		adiw r28,4
 9644 3754 CDBF      		out __SP_L__,r28
 9645 3756 DEBF      		out __SP_H__,r29
 9646 3758 CF91      		pop r28
 9647 375a DF91      		pop r29
 9648 375c 1F91      		pop r17
 9649               	.LVL803:
 9650 375e 0F91      		pop r16
 9651               	.LVL804:
 9652 3760 FF90      		pop r15
 9653 3762 EF90      		pop r14
 9654 3764 DF90      		pop r13
 9655 3766 CF90      		pop r12
 9656               	.LVL805:
 9657 3768 BF90      		pop r11
 9658 376a AF90      		pop r10
 9659               	.LVL806:
 9660 376c 9F90      		pop r9
 9661 376e 8F90      		pop r8
 9662               	.LVL807:
 9663 3770 7F90      		pop r7
 9664 3772 6F90      		pop r6
 9665               	.LVL808:
 9666 3774 5F90      		pop r5
 9667 3776 4F90      		pop r4
 9668               	.LVL809:
 9669 3778 3F90      		pop r3
 9670 377a 2F90      		pop r2
 9671               	.LVL810:
 9672 377c 0895      		ret
 9673               	.LFE68:
 9675               	.global	f_sync
 9677               	f_sync:
 9678               	.LFB69:
 9679               	.LM920:
 9680               	.LVL811:
 9681 377e 0F93      		push r16
 9682 3780 1F93      		push r17
 9683 3782 CF93      		push r28
 9684 3784 DF93      		push r29
 9685               	/* prologue: function */
 9686               	/* frame size = 0 */
 9687 3786 EC01      		movw r28,r24
 9688               	.LM921:
 9689 3788 6A81      		ldd r22,Y+2
 9690 378a 7B81      		ldd r23,Y+3
 9691 378c 8881      		ld r24,Y
 9692 378e 9981      		ldd r25,Y+1
 9693               	.LVL812:
 9694 3790 0E94 0000 		call validate
 9695 3794 982F      		mov r25,r24
 9696               	.LVL813:
 9697               	.LM922:
 9698 3796 8823      		tst r24
 9699 3798 01F0      		breq .+2
 9700 379a 00C0      		rjmp .L607
 9701               	.LVL814:
 9702               	.LM923:
 9703 379c 8C81      		ldd r24,Y+4
 9704               	.LVL815:
 9705 379e 85FF      		sbrs r24,5
 9706 37a0 00C0      		rjmp .L607
 9707               	.LM924:
 9708 37a2 86FF      		sbrs r24,6
 9709 37a4 00C0      		rjmp .L608
 9710               	.LM925:
 9711 37a6 E881      		ld r30,Y
 9712 37a8 F981      		ldd r31,Y+1
 9713 37aa BE01      		movw r22,r28
 9714 37ac 605E      		subi r22,lo8(-(32))
 9715 37ae 7F4F      		sbci r23,hi8(-(32))
 9716 37b0 2E89      		ldd r18,Y+22
 9717 37b2 3F89      		ldd r19,Y+23
 9718 37b4 488D      		ldd r20,Y+24
 9719 37b6 598D      		ldd r21,Y+25
 9720 37b8 8181      		ldd r24,Z+1
 9721 37ba 01E0      		ldi r16,lo8(1)
 9722 37bc 0E94 0000 		call disk_write
 9723               	.LVL816:
 9724 37c0 8823      		tst r24
 9725 37c2 01F0      		breq .L609
 9726 37c4 91E0      		ldi r25,lo8(1)
 9727               	.LVL817:
 9728 37c6 00C0      		rjmp .L607
 9729               	.LVL818:
 9730               	.L609:
 9731               	.LM926:
 9732 37c8 8C81      		ldd r24,Y+4
 9733 37ca 8F7B      		andi r24,lo8(-65)
 9734 37cc 8C83      		std Y+4,r24
 9735               	.LVL819:
 9736               	.L608:
 9737               	.LM927:
 9738 37ce 4A8D      		ldd r20,Y+26
 9739 37d0 5B8D      		ldd r21,Y+27
 9740 37d2 6C8D      		ldd r22,Y+28
 9741 37d4 7D8D      		ldd r23,Y+29
 9742 37d6 8881      		ld r24,Y
 9743 37d8 9981      		ldd r25,Y+1
 9744 37da 0E94 0000 		call move_window
 9745               	.LVL820:
 9746 37de 982F      		mov r25,r24
 9747               	.LVL821:
 9748               	.LM928:
 9749 37e0 8823      		tst r24
 9750 37e2 01F0      		breq .+2
 9751 37e4 00C0      		rjmp .L607
 9752               	.LVL822:
 9753               	.LM929:
 9754 37e6 0E8D      		ldd r16,Y+30
 9755 37e8 1F8D      		ldd r17,Y+31
 9756               	.LVL823:
 9757               	.LM930:
 9758 37ea F801      		movw r30,r16
 9759 37ec 8385      		ldd r24,Z+11
 9760               	.LVL824:
 9761 37ee 8062      		ori r24,lo8(32)
 9762 37f0 8387      		std Z+11,r24
 9763               	.LM931:
 9764 37f2 8A85      		ldd r24,Y+10
 9765 37f4 848F      		std Z+28,r24
 9766 37f6 8B85      		ldd r24,Y+11
 9767 37f8 858F      		std Z+29,r24
 9768 37fa 8A85      		ldd r24,Y+10
 9769 37fc 9B85      		ldd r25,Y+11
 9770 37fe AC85      		ldd r26,Y+12
 9771 3800 BD85      		ldd r27,Y+13
 9772 3802 CD01      		movw r24,r26
 9773 3804 AA27      		clr r26
 9774 3806 BB27      		clr r27
 9775 3808 868F      		std Z+30,r24
 9776 380a 8A85      		ldd r24,Y+10
 9777 380c 9B85      		ldd r25,Y+11
 9778 380e AC85      		ldd r26,Y+12
 9779 3810 BD85      		ldd r27,Y+13
 9780 3812 8B2F      		mov r24,r27
 9781 3814 9927      		clr r25
 9782 3816 AA27      		clr r26
 9783 3818 BB27      		clr r27
 9784 381a 878F      		std Z+31,r24
 9785               	.LM932:
 9786 381c 8E85      		ldd r24,Y+14
 9787 381e 828F      		std Z+26,r24
 9788 3820 8F85      		ldd r24,Y+15
 9789 3822 838F      		std Z+27,r24
 9790               	.LM933:
 9791 3824 8E85      		ldd r24,Y+14
 9792 3826 9F85      		ldd r25,Y+15
 9793 3828 A889      		ldd r26,Y+16
 9794 382a B989      		ldd r27,Y+17
 9795 382c CD01      		movw r24,r26
 9796 382e AA27      		clr r26
 9797 3830 BB27      		clr r27
 9798 3832 848B      		std Z+20,r24
 9799 3834 8E85      		ldd r24,Y+14
 9800 3836 9F85      		ldd r25,Y+15
 9801 3838 A889      		ldd r26,Y+16
 9802 383a B989      		ldd r27,Y+17
 9803 383c CD01      		movw r24,r26
 9804 383e AA27      		clr r26
 9805 3840 BB27      		clr r27
 9806 3842 892F      		mov r24,r25
 9807 3844 9927      		clr r25
 9808 3846 858B      		std Z+21,r24
 9809               	.LM934:
 9810 3848 0E94 0000 		call get_fattime
 9811               	.LVL825:
 9812               	.LM935:
 9813 384c F801      		movw r30,r16
 9814 384e 668B      		std Z+22,r22
 9815               	.LVL826:
 9816 3850 272F      		mov r18,r23
 9817 3852 3327      		clr r19
 9818 3854 278B      		std Z+23,r18
 9819 3856 9C01      		movw r18,r24
 9820 3858 4427      		clr r20
 9821 385a 5527      		clr r21
 9822 385c 208F      		std Z+24,r18
 9823 385e 692F      		mov r22,r25
 9824 3860 7727      		clr r23
 9825 3862 8827      		clr r24
 9826 3864 9927      		clr r25
 9827               	.LVL827:
 9828 3866 618F      		std Z+25,r22
 9829               	.LM936:
 9830 3868 8C81      		ldd r24,Y+4
 9831 386a 8F7D      		andi r24,lo8(-33)
 9832 386c 8C83      		std Y+4,r24
 9833               	.LM937:
 9834 386e E881      		ld r30,Y
 9835 3870 F981      		ldd r31,Y+1
 9836 3872 81E0      		ldi r24,lo8(1)
 9837 3874 8483      		std Z+4,r24
 9838               	.LM938:
 9839 3876 8881      		ld r24,Y
 9840 3878 9981      		ldd r25,Y+1
 9841 387a 0E94 0000 		call sync
 9842 387e 982F      		mov r25,r24
 9843               	.LVL828:
 9844               	.L607:
 9845               	.LM939:
 9846 3880 892F      		mov r24,r25
 9847               	/* epilogue start */
 9848 3882 DF91      		pop r29
 9849 3884 CF91      		pop r28
 9850               	.LVL829:
 9851 3886 1F91      		pop r17
 9852 3888 0F91      		pop r16
 9853               	.LVL830:
 9854 388a 0895      		ret
 9855               	.LFE69:
 9857               	.global	f_close
 9859               	f_close:
 9860               	.LFB70:
 9861               	.LM940:
 9862               	.LVL831:
 9863 388c CF93      		push r28
 9864 388e DF93      		push r29
 9865               	/* prologue: function */
 9866               	/* frame size = 0 */
 9867 3890 EC01      		movw r28,r24
 9868               	.LM941:
 9869 3892 0E94 0000 		call f_sync
 9870               	.LVL832:
 9871               	.LM942:
 9872 3896 8823      		tst r24
 9873               	.LVL833:
 9874 3898 01F4      		brne .L612
 9875 389a 1882      		st Y,__zero_reg__
 9876 389c 1982      		std Y+1,__zero_reg__
 9877               	.L612:
 9878               	.LVL834:
 9879               	/* epilogue start */
 9880               	.LM943:
 9881 389e DF91      		pop r29
 9882 38a0 CF91      		pop r28
 9883               	.LVL835:
 9884 38a2 0895      		ret
 9885               	.LFE70:
 9887               	.global	f_lseek
 9889               	f_lseek:
 9890               	.LFB71:
 9891               	.LM944:
 9892               	.LVL836:
 9893 38a4 2F92      		push r2
 9894 38a6 3F92      		push r3
 9895 38a8 4F92      		push r4
 9896 38aa 5F92      		push r5
 9897 38ac 6F92      		push r6
 9898 38ae 7F92      		push r7
 9899 38b0 8F92      		push r8
 9900 38b2 9F92      		push r9
 9901 38b4 AF92      		push r10
 9902 38b6 BF92      		push r11
 9903 38b8 CF92      		push r12
 9904 38ba DF92      		push r13
 9905 38bc 0F93      		push r16
 9906 38be 1F93      		push r17
 9907 38c0 DF93      		push r29
 9908 38c2 CF93      		push r28
 9909 38c4 CDB7      		in r28,__SP_L__
 9910 38c6 DEB7      		in r29,__SP_H__
 9911 38c8 2897      		sbiw r28,8
 9912 38ca CDBF      		out __SP_L__,r28
 9913 38cc DEBF      		out __SP_H__,r29
 9914               	/* prologue: function */
 9915               	/* frame size = 8 */
 9916 38ce 8F83      		std Y+7,r24
 9917 38d0 9887      		std Y+8,r25
 9918 38d2 3A01      		movw r6,r20
 9919 38d4 4B01      		movw r8,r22
 9920               	.LM945:
 9921 38d6 DC01      		movw r26,r24
 9922 38d8 1296      		adiw r26,2
 9923 38da 6D91      		ld r22,X+
 9924 38dc 7C91      		ld r23,X
 9925 38de 1397      		sbiw r26,2+1
 9926 38e0 8D91      		ld r24,X+
 9927 38e2 9C91      		ld r25,X
 9928               	.LVL837:
 9929 38e4 0E94 0000 		call validate
 9930               	.LVL838:
 9931 38e8 182F      		mov r17,r24
 9932               	.LVL839:
 9933               	.LM946:
 9934 38ea 8823      		tst r24
 9935 38ec 01F0      		breq .+2
 9936 38ee 00C0      		rjmp .L615
 9937               	.LVL840:
 9938               	.LM947:
 9939 38f0 EF81      		ldd r30,Y+7
 9940 38f2 F885      		ldd r31,Y+8
 9941 38f4 8481      		ldd r24,Z+4
 9942               	.LVL841:
 9943 38f6 87FD      		sbrc r24,7
 9944 38f8 00C0      		rjmp .L642
 9945               	.L616:
 9946               	.LM948:
 9947 38fa AF81      		ldd r26,Y+7
 9948 38fc B885      		ldd r27,Y+8
 9949 38fe 1A96      		adiw r26,10
 9950 3900 AD90      		ld r10,X+
 9951 3902 BD90      		ld r11,X+
 9952 3904 CD90      		ld r12,X+
 9953 3906 DC90      		ld r13,X
 9954 3908 1D97      		sbiw r26,10+3
 9955               	.LVL842:
 9956 390a A614      		cp r10,r6
 9957 390c B704      		cpc r11,r7
 9958 390e C804      		cpc r12,r8
 9959 3910 D904      		cpc r13,r9
 9960 3912 00F4      		brsh .L617
 9961 3914 81FF      		sbrs r24,1
 9962 3916 00C0      		rjmp .L618
 9963               	.L617:
 9964 3918 6401      		movw r12,r8
 9965 391a 5301      		movw r10,r6
 9966               	.L618:
 9967               	.LM949:
 9968 391c EF81      		ldd r30,Y+7
 9969 391e F885      		ldd r31,Y+8
 9970 3920 2681      		ldd r18,Z+6
 9971 3922 3781      		ldd r19,Z+7
 9972 3924 4085      		ldd r20,Z+8
 9973 3926 5185      		ldd r21,Z+9
 9974               	.LVL843:
 9975               	.LM950:
 9976 3928 1682      		std Z+6,__zero_reg__
 9977 392a 1782      		std Z+7,__zero_reg__
 9978 392c 1086      		std Z+8,__zero_reg__
 9979 392e 1186      		std Z+9,__zero_reg__
 9980 3930 8FEF      		ldi r24,lo8(-1)
 9981 3932 8583      		std Z+5,r24
 9982               	.LM951:
 9983 3934 A114      		cp r10,__zero_reg__
 9984 3936 B104      		cpc r11,__zero_reg__
 9985 3938 C104      		cpc r12,__zero_reg__
 9986 393a D104      		cpc r13,__zero_reg__
 9987 393c 01F4      		brne .+2
 9988 393e 00C0      		rjmp .L619
 9989               	.LM952:
 9990 3940 0190      		ld __tmp_reg__,Z+
 9991 3942 F081      		ld r31,Z
 9992 3944 E02D      		mov r30,__tmp_reg__
 9993 3946 E983      		std Y+1,r30
 9994 3948 FA83      		std Y+2,r31
 9995 394a 8281      		ldd r24,Z+2
 9996 394c 682E      		mov r6,r24
 9997               	.LVL844:
 9998 394e 7724      		clr r7
 9999               	.LVL845:
 10000 3950 8824      		clr r8
 10001 3952 9924      		clr r9
 10002               	.LVL846:
 10003 3954 89E0      		ldi r24,9
 10004 3956 660C      	1:	lsl r6
 10005 3958 771C      		rol r7
 10006 395a 881C      		rol r8
 10007 395c 991C      		rol r9
 10008 395e 8A95      		dec r24
 10009 3960 01F4      		brne 1b
 10010               	.LVL847:
 10011               	.LM953:
 10012 3962 2115      		cp r18,__zero_reg__
 10013 3964 3105      		cpc r19,__zero_reg__
 10014 3966 4105      		cpc r20,__zero_reg__
 10015 3968 5105      		cpc r21,__zero_reg__
 10016 396a 01F0      		breq .L620
 10017 396c 1901      		movw r2,r18
 10018 396e 2A01      		movw r4,r20
 10019 3970 0894      		sec
 10020 3972 2108      		sbc r2,__zero_reg__
 10021 3974 3108      		sbc r3,__zero_reg__
 10022 3976 4108      		sbc r4,__zero_reg__
 10023 3978 5108      		sbc r5,__zero_reg__
 10024 397a C601      		movw r24,r12
 10025 397c B501      		movw r22,r10
 10026 397e 6150      		subi r22,lo8(-(-1))
 10027 3980 7040      		sbci r23,hi8(-(-1))
 10028 3982 8040      		sbci r24,hlo8(-(-1))
 10029 3984 9040      		sbci r25,hhi8(-(-1))
 10030 3986 A401      		movw r20,r8
 10031 3988 9301      		movw r18,r6
 10032               	.LVL848:
 10033 398a 0E94 0000 		call __udivmodsi4
 10034 398e 2B83      		std Y+3,r18
 10035 3990 3C83      		std Y+4,r19
 10036 3992 4D83      		std Y+5,r20
 10037 3994 5E83      		std Y+6,r21
 10038 3996 C201      		movw r24,r4
 10039 3998 B101      		movw r22,r2
 10040 399a A401      		movw r20,r8
 10041 399c 9301      		movw r18,r6
 10042 399e 0E94 0000 		call __udivmodsi4
 10043 39a2 8B81      		ldd r24,Y+3
 10044 39a4 9C81      		ldd r25,Y+4
 10045 39a6 AD81      		ldd r26,Y+5
 10046 39a8 BE81      		ldd r27,Y+6
 10047 39aa 8217      		cp r24,r18
 10048 39ac 9307      		cpc r25,r19
 10049 39ae A407      		cpc r26,r20
 10050 39b0 B507      		cpc r27,r21
 10051 39b2 00F0      		brlo .L620
 10052               	.LM954:
 10053 39b4 8827      		clr r24
 10054 39b6 9927      		clr r25
 10055 39b8 DC01      		movw r26,r24
 10056 39ba 8619      		sub r24,r6
 10057 39bc 9709      		sbc r25,r7
 10058 39be A809      		sbc r26,r8
 10059 39c0 B909      		sbc r27,r9
 10060 39c2 8221      		and r24,r2
 10061 39c4 9321      		and r25,r3
 10062 39c6 A421      		and r26,r4
 10063 39c8 B521      		and r27,r5
 10064 39ca EF81      		ldd r30,Y+7
 10065 39cc F885      		ldd r31,Y+8
 10066 39ce 8683      		std Z+6,r24
 10067 39d0 9783      		std Z+7,r25
 10068 39d2 A087      		std Z+8,r26
 10069 39d4 B187      		std Z+9,r27
 10070               	.LM955:
 10071 39d6 A81A      		sub r10,r24
 10072 39d8 B90A      		sbc r11,r25
 10073 39da CA0A      		sbc r12,r26
 10074 39dc DB0A      		sbc r13,r27
 10075               	.LM956:
 10076 39de 4289      		ldd r20,Z+18
 10077 39e0 5389      		ldd r21,Z+19
 10078 39e2 6489      		ldd r22,Z+20
 10079 39e4 7589      		ldd r23,Z+21
 10080               	.LVL849:
 10081 39e6 00C0      		rjmp .L621
 10082               	.LVL850:
 10083               	.L620:
 10084               	.LM957:
 10085 39e8 AF81      		ldd r26,Y+7
 10086 39ea B885      		ldd r27,Y+8
 10087 39ec 1E96      		adiw r26,14
 10088 39ee 4D91      		ld r20,X+
 10089 39f0 5D91      		ld r21,X+
 10090 39f2 6D91      		ld r22,X+
 10091 39f4 7C91      		ld r23,X
 10092 39f6 5197      		sbiw r26,14+3
 10093               	.LVL851:
 10094               	.LM958:
 10095 39f8 4115      		cp r20,__zero_reg__
 10096 39fa 5105      		cpc r21,__zero_reg__
 10097 39fc 6105      		cpc r22,__zero_reg__
 10098 39fe 7105      		cpc r23,__zero_reg__
 10099 3a00 01F4      		brne .L622
 10100               	.LM959:
 10101 3a02 8981      		ldd r24,Y+1
 10102 3a04 9A81      		ldd r25,Y+2
 10103 3a06 40E0      		ldi r20,lo8(0)
 10104 3a08 50E0      		ldi r21,hi8(0)
 10105 3a0a 60E0      		ldi r22,hlo8(0)
 10106 3a0c 70E0      		ldi r23,hhi8(0)
 10107               	.LVL852:
 10108 3a0e 0E94 0000 		call create_chain
 10109               	.LVL853:
 10110 3a12 AB01      		movw r20,r22
 10111 3a14 BC01      		movw r22,r24
 10112               	.LVL854:
 10113               	.LM960:
 10114 3a16 4130      		cpi r20,lo8(1)
 10115 3a18 5105      		cpc r21,__zero_reg__
 10116 3a1a 6105      		cpc r22,__zero_reg__
 10117 3a1c 7105      		cpc r23,__zero_reg__
 10118 3a1e 01F4      		brne .L623
 10119               	.L644:
 10120 3a20 EF81      		ldd r30,Y+7
 10121 3a22 F885      		ldd r31,Y+8
 10122 3a24 8481      		ldd r24,Z+4
 10123 3a26 8068      		ori r24,lo8(-128)
 10124 3a28 8483      		std Z+4,r24
 10125               	.LVL855:
 10126               	.L642:
 10127 3a2a 12E0      		ldi r17,lo8(2)
 10128 3a2c 00C0      		rjmp .L615
 10129               	.LVL856:
 10130               	.L623:
 10131               	.LM961:
 10132 3a2e 4F3F      		cpi r20,lo8(-1)
 10133 3a30 FFEF      		ldi r31,hi8(-1)
 10134 3a32 5F07      		cpc r21,r31
 10135 3a34 FFEF      		ldi r31,hlo8(-1)
 10136 3a36 6F07      		cpc r22,r31
 10137 3a38 FFEF      		ldi r31,hhi8(-1)
 10138 3a3a 7F07      		cpc r23,r31
 10139 3a3c 01F0      		breq .L645
 10140               	.L624:
 10141               	.LM962:
 10142 3a3e EF81      		ldd r30,Y+7
 10143 3a40 F885      		ldd r31,Y+8
 10144 3a42 4687      		std Z+14,r20
 10145 3a44 5787      		std Z+15,r21
 10146 3a46 608B      		std Z+16,r22
 10147 3a48 718B      		std Z+17,r23
 10148               	.LVL857:
 10149               	.L622:
 10150               	.LM963:
 10151 3a4a AF81      		ldd r26,Y+7
 10152 3a4c B885      		ldd r27,Y+8
 10153 3a4e 5296      		adiw r26,18
 10154 3a50 4D93      		st X+,r20
 10155 3a52 5D93      		st X+,r21
 10156 3a54 6D93      		st X+,r22
 10157 3a56 7C93      		st X,r23
 10158 3a58 5597      		sbiw r26,18+3
 10159               	.L621:
 10160               	.LM964:
 10161 3a5a 4115      		cp r20,__zero_reg__
 10162 3a5c 5105      		cpc r21,__zero_reg__
 10163 3a5e 6105      		cpc r22,__zero_reg__
 10164 3a60 7105      		cpc r23,__zero_reg__
 10165 3a62 01F0      		breq .+2
 10166 3a64 00C0      		rjmp .L641
 10167 3a66 00C0      		rjmp .L619
 10168               	.L632:
 10169               	.LM965:
 10170 3a68 EF81      		ldd r30,Y+7
 10171 3a6a F885      		ldd r31,Y+8
 10172 3a6c 8481      		ldd r24,Z+4
 10173 3a6e 2081      		ld r18,Z
 10174 3a70 3181      		ldd r19,Z+1
 10175               	.LVL858:
 10176 3a72 81FF      		sbrs r24,1
 10177 3a74 00C0      		rjmp .L626
 10178               	.LM966:
 10179 3a76 C901      		movw r24,r18
 10180 3a78 0E94 0000 		call create_chain
 10181               	.LVL859:
 10182 3a7c AB01      		movw r20,r22
 10183 3a7e BC01      		movw r22,r24
 10184               	.LVL860:
 10185               	.LM967:
 10186 3a80 4115      		cp r20,__zero_reg__
 10187 3a82 5105      		cpc r21,__zero_reg__
 10188 3a84 6105      		cpc r22,__zero_reg__
 10189 3a86 7105      		cpc r23,__zero_reg__
 10190 3a88 01F4      		brne .L627
 10191 3a8a 6401      		movw r12,r8
 10192 3a8c 5301      		movw r10,r6
 10193 3a8e 00C0      		rjmp .L628
 10194               	.L626:
 10195               	.LM968:
 10196 3a90 C901      		movw r24,r18
 10197 3a92 0E94 0000 		call get_fat
 10198               	.LVL861:
 10199 3a96 AB01      		movw r20,r22
 10200 3a98 BC01      		movw r22,r24
 10201               	.LVL862:
 10202               	.L627:
 10203               	.LM969:
 10204 3a9a 4F3F      		cpi r20,lo8(-1)
 10205 3a9c FFEF      		ldi r31,hi8(-1)
 10206 3a9e 5F07      		cpc r21,r31
 10207 3aa0 FFEF      		ldi r31,hlo8(-1)
 10208 3aa2 6F07      		cpc r22,r31
 10209 3aa4 FFEF      		ldi r31,hhi8(-1)
 10210 3aa6 7F07      		cpc r23,r31
 10211 3aa8 01F4      		brne .L629
 10212               	.L645:
 10213 3aaa AF81      		ldd r26,Y+7
 10214 3aac B885      		ldd r27,Y+8
 10215 3aae 1496      		adiw r26,4
 10216 3ab0 8C91      		ld r24,X
 10217 3ab2 1497      		sbiw r26,4
 10218 3ab4 8068      		ori r24,lo8(-128)
 10219 3ab6 1496      		adiw r26,4
 10220 3ab8 8C93      		st X,r24
 10221 3aba 00C0      		rjmp .L643
 10222               	.L629:
 10223               	.LM970:
 10224 3abc 4230      		cpi r20,lo8(2)
 10225 3abe 5105      		cpc r21,__zero_reg__
 10226 3ac0 6105      		cpc r22,__zero_reg__
 10227 3ac2 7105      		cpc r23,__zero_reg__
 10228 3ac4 00F4      		brsh .+2
 10229 3ac6 00C0      		rjmp .L644
 10230 3ac8 AF81      		ldd r26,Y+7
 10231 3aca B885      		ldd r27,Y+8
 10232 3acc ED91      		ld r30,X+
 10233 3ace FC91      		ld r31,X
 10234 3ad0 828D      		ldd r24,Z+26
 10235 3ad2 938D      		ldd r25,Z+27
 10236 3ad4 A48D      		ldd r26,Z+28
 10237 3ad6 B58D      		ldd r27,Z+29
 10238 3ad8 4817      		cp r20,r24
 10239 3ada 5907      		cpc r21,r25
 10240 3adc 6A07      		cpc r22,r26
 10241 3ade 7B07      		cpc r23,r27
 10242 3ae0 00F0      		brlo .+2
 10243 3ae2 00C0      		rjmp .L644
 10244               	.L631:
 10245               	.LM971:
 10246 3ae4 AF81      		ldd r26,Y+7
 10247 3ae6 B885      		ldd r27,Y+8
 10248 3ae8 5296      		adiw r26,18
 10249 3aea 4D93      		st X+,r20
 10250 3aec 5D93      		st X+,r21
 10251 3aee 6D93      		st X+,r22
 10252 3af0 7C93      		st X,r23
 10253 3af2 5597      		sbiw r26,18+3
 10254               	.LM972:
 10255 3af4 FD01      		movw r30,r26
 10256 3af6 8681      		ldd r24,Z+6
 10257 3af8 9781      		ldd r25,Z+7
 10258 3afa A085      		ldd r26,Z+8
 10259 3afc B185      		ldd r27,Z+9
 10260 3afe 860D      		add r24,r6
 10261 3b00 971D      		adc r25,r7
 10262 3b02 A81D      		adc r26,r8
 10263 3b04 B91D      		adc r27,r9
 10264 3b06 8683      		std Z+6,r24
 10265 3b08 9783      		std Z+7,r25
 10266 3b0a A087      		std Z+8,r26
 10267 3b0c B187      		std Z+9,r27
 10268               	.LM973:
 10269 3b0e A618      		sub r10,r6
 10270 3b10 B708      		sbc r11,r7
 10271 3b12 C808      		sbc r12,r8
 10272 3b14 D908      		sbc r13,r9
 10273               	.LVL863:
 10274               	.L641:
 10275               	.LM974:
 10276 3b16 6A14      		cp r6,r10
 10277 3b18 7B04      		cpc r7,r11
 10278 3b1a 8C04      		cpc r8,r12
 10279 3b1c 9D04      		cpc r9,r13
 10280 3b1e 00F4      		brsh .+2
 10281 3b20 00C0      		rjmp .L632
 10282               	.L628:
 10283               	.LM975:
 10284 3b22 EF81      		ldd r30,Y+7
 10285 3b24 F885      		ldd r31,Y+8
 10286 3b26 8681      		ldd r24,Z+6
 10287 3b28 9781      		ldd r25,Z+7
 10288 3b2a A085      		ldd r26,Z+8
 10289 3b2c B185      		ldd r27,Z+9
 10290 3b2e 8A0D      		add r24,r10
 10291 3b30 9B1D      		adc r25,r11
 10292 3b32 AC1D      		adc r26,r12
 10293 3b34 BD1D      		adc r27,r13
 10294 3b36 8683      		std Z+6,r24
 10295 3b38 9783      		std Z+7,r25
 10296 3b3a A087      		std Z+8,r26
 10297 3b3c B187      		std Z+9,r27
 10298               	.LM976:
 10299 3b3e D601      		movw r26,r12
 10300 3b40 C501      		movw r24,r10
 10301 3b42 09E0      		ldi r16,9
 10302 3b44 B695      	1:	lsr r27
 10303 3b46 A795      		ror r26
 10304 3b48 9795      		ror r25
 10305 3b4a 8795      		ror r24
 10306 3b4c 0A95      		dec r16
 10307 3b4e 01F4      		brne 1b
 10308 3b50 082F      		mov r16,r24
 10309 3b52 8583      		std Z+5,r24
 10310               	.LM977:
 10311 3b54 8FEF      		ldi r24,lo8(511)
 10312 3b56 91E0      		ldi r25,hi8(511)
 10313 3b58 A0E0      		ldi r26,hlo8(511)
 10314 3b5a B0E0      		ldi r27,hhi8(511)
 10315 3b5c A822      		and r10,r24
 10316 3b5e B922      		and r11,r25
 10317 3b60 CA22      		and r12,r26
 10318 3b62 DB22      		and r13,r27
 10319 3b64 A114      		cp r10,__zero_reg__
 10320 3b66 B104      		cpc r11,__zero_reg__
 10321 3b68 C104      		cpc r12,__zero_reg__
 10322 3b6a D104      		cpc r13,__zero_reg__
 10323 3b6c 01F4      		brne .+2
 10324 3b6e 00C0      		rjmp .L619
 10325               	.LM978:
 10326 3b70 8080      		ld r8,Z
 10327 3b72 9180      		ldd r9,Z+1
 10328               	.LVL864:
 10329               	.LBB598:
 10330               	.LBB599:
 10331               	.LM979:
 10332 3b74 EEEF      		ldi r30,lo8(-2)
 10333 3b76 AE2E      		mov r10,r30
 10334 3b78 EFEF      		ldi r30,hi8(-2)
 10335 3b7a BE2E      		mov r11,r30
 10336 3b7c EFEF      		ldi r30,hlo8(-2)
 10337 3b7e CE2E      		mov r12,r30
 10338 3b80 EFEF      		ldi r30,hhi8(-2)
 10339 3b82 DE2E      		mov r13,r30
 10340               	.LVL865:
 10341 3b84 A40E      		add r10,r20
 10342 3b86 B51E      		adc r11,r21
 10343 3b88 C61E      		adc r12,r22
 10344 3b8a D71E      		adc r13,r23
 10345               	.LM980:
 10346 3b8c F401      		movw r30,r8
 10347 3b8e 828D      		ldd r24,Z+26
 10348 3b90 938D      		ldd r25,Z+27
 10349 3b92 A48D      		ldd r26,Z+28
 10350 3b94 B58D      		ldd r27,Z+29
 10351 3b96 0297      		sbiw r24,2
 10352 3b98 A109      		sbc r26,__zero_reg__
 10353 3b9a B109      		sbc r27,__zero_reg__
 10354 3b9c A816      		cp r10,r24
 10355 3b9e B906      		cpc r11,r25
 10356 3ba0 CA06      		cpc r12,r26
 10357 3ba2 DB06      		cpc r13,r27
 10358 3ba4 00F4      		brsh .L633
 10359               	.LM981:
 10360 3ba6 2281      		ldd r18,Z+2
 10361               	.LVL866:
 10362 3ba8 30E0      		ldi r19,lo8(0)
 10363 3baa 40E0      		ldi r20,lo8(0)
 10364 3bac 50E0      		ldi r21,hi8(0)
 10365               	.LVL867:
 10366 3bae C601      		movw r24,r12
 10367 3bb0 B501      		movw r22,r10
 10368 3bb2 0E94 0000 		call __mulsi3
 10369 3bb6 9B01      		movw r18,r22
 10370 3bb8 AC01      		movw r20,r24
 10371               	.LVL868:
 10372 3bba F401      		movw r30,r8
 10373 3bbc 86A1      		ldd r24,Z+38
 10374 3bbe 97A1      		ldd r25,Z+39
 10375 3bc0 A0A5      		ldd r26,Z+40
 10376 3bc2 B1A5      		ldd r27,Z+41
 10377 3bc4 280F      		add r18,r24
 10378 3bc6 391F      		adc r19,r25
 10379 3bc8 4A1F      		adc r20,r26
 10380 3bca 5B1F      		adc r21,r27
 10381               	.LBE599:
 10382               	.LBE598:
 10383               	.LM982:
 10384 3bcc 2115      		cp r18,__zero_reg__
 10385 3bce 3105      		cpc r19,__zero_reg__
 10386 3bd0 4105      		cpc r20,__zero_reg__
 10387 3bd2 5105      		cpc r21,__zero_reg__
 10388 3bd4 01F4      		brne .L634
 10389               	.LVL869:
 10390               	.L633:
 10391 3bd6 AF81      		ldd r26,Y+7
 10392 3bd8 B885      		ldd r27,Y+8
 10393 3bda 1496      		adiw r26,4
 10394 3bdc 8C91      		ld r24,X
 10395 3bde 1497      		sbiw r26,4
 10396 3be0 8068      		ori r24,lo8(-128)
 10397 3be2 1496      		adiw r26,4
 10398 3be4 8C93      		st X,r24
 10399 3be6 00C0      		rjmp .L642
 10400               	.LVL870:
 10401               	.L634:
 10402               	.LM983:
 10403 3be8 5901      		movw r10,r18
 10404 3bea 6A01      		movw r12,r20
 10405               	.LVL871:
 10406 3bec A00E      		add r10,r16
 10407 3bee B11C      		adc r11,__zero_reg__
 10408 3bf0 C11C      		adc r12,__zero_reg__
 10409 3bf2 D11C      		adc r13,__zero_reg__
 10410               	.LVL872:
 10411               	.LM984:
 10412 3bf4 0F5F      		subi r16,lo8(-(1))
 10413 3bf6 EF81      		ldd r30,Y+7
 10414 3bf8 F885      		ldd r31,Y+8
 10415 3bfa 0583      		std Z+5,r16
 10416 3bfc 00C0      		rjmp .L635
 10417               	.LVL873:
 10418               	.L619:
 10419 3bfe AA24      		clr r10
 10420 3c00 BB24      		clr r11
 10421 3c02 6501      		movw r12,r10
 10422               	.LVL874:
 10423               	.L635:
 10424               	.LM985:
 10425 3c04 EF81      		ldd r30,Y+7
 10426 3c06 F885      		ldd r31,Y+8
 10427 3c08 8681      		ldd r24,Z+6
 10428 3c0a 9781      		ldd r25,Z+7
 10429 3c0c A085      		ldd r26,Z+8
 10430 3c0e B185      		ldd r27,Z+9
 10431 3c10 9170      		andi r25,hi8(511)
 10432 3c12 A070      		andi r26,hlo8(511)
 10433 3c14 B070      		andi r27,hhi8(511)
 10434 3c16 0097      		sbiw r24,0
 10435 3c18 A105      		cpc r26,__zero_reg__
 10436 3c1a B105      		cpc r27,__zero_reg__
 10437 3c1c 01F4      		brne .+2
 10438 3c1e 00C0      		rjmp .L636
 10439 3c20 2689      		ldd r18,Z+22
 10440 3c22 3789      		ldd r19,Z+23
 10441 3c24 408D      		ldd r20,Z+24
 10442 3c26 518D      		ldd r21,Z+25
 10443               	.LVL875:
 10444 3c28 A216      		cp r10,r18
 10445 3c2a B306      		cpc r11,r19
 10446 3c2c C406      		cpc r12,r20
 10447 3c2e D506      		cpc r13,r21
 10448 3c30 01F0      		breq .L636
 10449               	.LM986:
 10450 3c32 8481      		ldd r24,Z+4
 10451 3c34 86FF      		sbrs r24,6
 10452 3c36 00C0      		rjmp .L637
 10453               	.LM987:
 10454 3c38 0190      		ld __tmp_reg__,Z+
 10455 3c3a F081      		ld r31,Z
 10456 3c3c E02D      		mov r30,__tmp_reg__
 10457 3c3e 6F81      		ldd r22,Y+7
 10458 3c40 7885      		ldd r23,Y+8
 10459 3c42 605E      		subi r22,lo8(-(32))
 10460 3c44 7F4F      		sbci r23,hi8(-(32))
 10461 3c46 8181      		ldd r24,Z+1
 10462 3c48 01E0      		ldi r16,lo8(1)
 10463 3c4a 0E94 0000 		call disk_write
 10464               	.LVL876:
 10465 3c4e AF81      		ldd r26,Y+7
 10466 3c50 B885      		ldd r27,Y+8
 10467 3c52 1496      		adiw r26,4
 10468 3c54 9C91      		ld r25,X
 10469 3c56 1497      		sbiw r26,4
 10470 3c58 8823      		tst r24
 10471 3c5a 01F0      		breq .L638
 10472               	.LM988:
 10473 3c5c 9068      		ori r25,lo8(-128)
 10474 3c5e 1496      		adiw r26,4
 10475 3c60 9C93      		st X,r25
 10476 3c62 00C0      		rjmp .L643
 10477               	.L638:
 10478               	.LM989:
 10479 3c64 9F7B      		andi r25,lo8(-65)
 10480 3c66 EF81      		ldd r30,Y+7
 10481 3c68 F885      		ldd r31,Y+8
 10482 3c6a 9483      		std Z+4,r25
 10483               	.LVL877:
 10484               	.L637:
 10485               	.LM990:
 10486 3c6c AF81      		ldd r26,Y+7
 10487 3c6e B885      		ldd r27,Y+8
 10488 3c70 ED91      		ld r30,X+
 10489 3c72 FC91      		ld r31,X
 10490 3c74 1197      		sbiw r26,1
 10491 3c76 BD01      		movw r22,r26
 10492 3c78 605E      		subi r22,lo8(-(32))
 10493 3c7a 7F4F      		sbci r23,hi8(-(32))
 10494 3c7c 8181      		ldd r24,Z+1
 10495 3c7e A601      		movw r20,r12
 10496 3c80 9501      		movw r18,r10
 10497 3c82 01E0      		ldi r16,lo8(1)
 10498 3c84 0E94 0000 		call disk_read
 10499               	.LVL878:
 10500 3c88 8823      		tst r24
 10501 3c8a 01F0      		breq .L639
 10502               	.LM991:
 10503 3c8c EF81      		ldd r30,Y+7
 10504 3c8e F885      		ldd r31,Y+8
 10505 3c90 8481      		ldd r24,Z+4
 10506 3c92 8068      		ori r24,lo8(-128)
 10507 3c94 8483      		std Z+4,r24
 10508               	.LVL879:
 10509               	.L643:
 10510 3c96 11E0      		ldi r17,lo8(1)
 10511 3c98 00C0      		rjmp .L615
 10512               	.LVL880:
 10513               	.L639:
 10514               	.LM992:
 10515 3c9a AF81      		ldd r26,Y+7
 10516 3c9c B885      		ldd r27,Y+8
 10517 3c9e 5696      		adiw r26,22
 10518 3ca0 AD92      		st X+,r10
 10519 3ca2 BD92      		st X+,r11
 10520 3ca4 CD92      		st X+,r12
 10521 3ca6 DC92      		st X,r13
 10522 3ca8 5997      		sbiw r26,22+3
 10523               	.LVL881:
 10524               	.L636:
 10525               	.LM993:
 10526 3caa EF81      		ldd r30,Y+7
 10527 3cac F885      		ldd r31,Y+8
 10528 3cae 2681      		ldd r18,Z+6
 10529 3cb0 3781      		ldd r19,Z+7
 10530 3cb2 4085      		ldd r20,Z+8
 10531 3cb4 5185      		ldd r21,Z+9
 10532               	.LVL882:
 10533 3cb6 8285      		ldd r24,Z+10
 10534 3cb8 9385      		ldd r25,Z+11
 10535 3cba A485      		ldd r26,Z+12
 10536 3cbc B585      		ldd r27,Z+13
 10537 3cbe 8217      		cp r24,r18
 10538 3cc0 9307      		cpc r25,r19
 10539 3cc2 A407      		cpc r26,r20
 10540 3cc4 B507      		cpc r27,r21
 10541 3cc6 00F4      		brsh .L615
 10542               	.LM994:
 10543 3cc8 2287      		std Z+10,r18
 10544 3cca 3387      		std Z+11,r19
 10545 3ccc 4487      		std Z+12,r20
 10546 3cce 5587      		std Z+13,r21
 10547               	.LM995:
 10548 3cd0 8481      		ldd r24,Z+4
 10549 3cd2 8062      		ori r24,lo8(32)
 10550 3cd4 8483      		std Z+4,r24
 10551               	.LVL883:
 10552               	.L615:
 10553               	.LM996:
 10554 3cd6 812F      		mov r24,r17
 10555               	/* epilogue start */
 10556 3cd8 2896      		adiw r28,8
 10557 3cda CDBF      		out __SP_L__,r28
 10558 3cdc DEBF      		out __SP_H__,r29
 10559 3cde CF91      		pop r28
 10560 3ce0 DF91      		pop r29
 10561 3ce2 1F91      		pop r17
 10562               	.LVL884:
 10563 3ce4 0F91      		pop r16
 10564 3ce6 DF90      		pop r13
 10565 3ce8 CF90      		pop r12
 10566 3cea BF90      		pop r11
 10567 3cec AF90      		pop r10
 10568               	.LVL885:
 10569 3cee 9F90      		pop r9
 10570 3cf0 8F90      		pop r8
 10571               	.LVL886:
 10572 3cf2 7F90      		pop r7
 10573               	.LVL887:
 10574 3cf4 6F90      		pop r6
 10575               	.LVL888:
 10576 3cf6 5F90      		pop r5
 10577 3cf8 4F90      		pop r4
 10578 3cfa 3F90      		pop r3
 10579 3cfc 2F90      		pop r2
 10580 3cfe 0895      		ret
 10581               	.LFE71:
 10583               	.global	f_opendir
 10585               	f_opendir:
 10586               	.LFB72:
 10587               	.LM997:
 10588               	.LVL889:
 10589 3d00 0F93      		push r16
 10590 3d02 1F93      		push r17
 10591 3d04 DF93      		push r29
 10592 3d06 CF93      		push r28
 10593 3d08 CDB7      		in r28,__SP_L__
 10594 3d0a DEB7      		in r29,__SP_H__
 10595 3d0c 2E97      		sbiw r28,14
 10596 3d0e CDBF      		out __SP_L__,r28
 10597 3d10 DEBF      		out __SP_H__,r29
 10598               	/* prologue: function */
 10599               	/* frame size = 14 */
 10600 3d12 8C01      		movw r16,r24
 10601 3d14 6D87      		std Y+13,r22
 10602 3d16 7E87      		std Y+14,r23
 10603               	.LM998:
 10604 3d18 CE01      		movw r24,r28
 10605               	.LVL890:
 10606 3d1a 0D96      		adiw r24,13
 10607 3d1c B801      		movw r22,r16
 10608               	.LVL891:
 10609 3d1e 40E0      		ldi r20,lo8(0)
 10610 3d20 0E94 0000 		call chk_mounted
 10611               	.LM999:
 10612 3d24 8823      		tst r24
 10613               	.LVL892:
 10614 3d26 01F0      		breq .+2
 10615 3d28 00C0      		rjmp .L647
 10616               	.LM1000:
 10617 3d2a CE01      		movw r24,r28
 10618               	.LVL893:
 10619 3d2c 0196      		adiw r24,1
 10620 3d2e D801      		movw r26,r16
 10621 3d30 5496      		adiw r26,20
 10622 3d32 8D93      		st X+,r24
 10623 3d34 9C93      		st X,r25
 10624 3d36 5597      		sbiw r26,20+1
 10625               	.LM1001:
 10626 3d38 6D85      		ldd r22,Y+13
 10627 3d3a 7E85      		ldd r23,Y+14
 10628 3d3c C801      		movw r24,r16
 10629 3d3e 0E94 0000 		call follow_path
 10630               	.LM1002:
 10631 3d42 8823      		tst r24
 10632               	.LVL894:
 10633 3d44 01F4      		brne .L648
 10634               	.LM1003:
 10635 3d46 D801      		movw r26,r16
 10636 3d48 5296      		adiw r26,18
 10637 3d4a ED91      		ld r30,X+
 10638 3d4c FC91      		ld r31,X
 10639 3d4e 5397      		sbiw r26,18+1
 10640               	.LVL895:
 10641               	.LM1004:
 10642 3d50 3097      		sbiw r30,0
 10643 3d52 01F0      		breq .L649
 10644               	.LM1005:
 10645 3d54 8385      		ldd r24,Z+11
 10646               	.LVL896:
 10647 3d56 84FF      		sbrs r24,4
 10648 3d58 00C0      		rjmp .L652
 10649               	.L650:
 10650               	.LM1006:
 10651 3d5a 3589      		ldd r19,Z+21
 10652 3d5c 20E0      		ldi r18,lo8(0)
 10653 3d5e 8489      		ldd r24,Z+20
 10654 3d60 90E0      		ldi r25,lo8(0)
 10655 3d62 282B      		or r18,r24
 10656 3d64 392B      		or r19,r25
 10657 3d66 40E0      		ldi r20,lo8(0)
 10658 3d68 50E0      		ldi r21,hi8(0)
 10659 3d6a A901      		movw r20,r18
 10660 3d6c 3327      		clr r19
 10661 3d6e 2227      		clr r18
 10662 3d70 938D      		ldd r25,Z+27
 10663 3d72 80E0      		ldi r24,lo8(0)
 10664 3d74 628D      		ldd r22,Z+26
 10665 3d76 70E0      		ldi r23,lo8(0)
 10666 3d78 862B      		or r24,r22
 10667 3d7a 972B      		or r25,r23
 10668 3d7c A0E0      		ldi r26,lo8(0)
 10669 3d7e B0E0      		ldi r27,hi8(0)
 10670 3d80 282B      		or r18,r24
 10671 3d82 392B      		or r19,r25
 10672 3d84 4A2B      		or r20,r26
 10673 3d86 5B2B      		or r21,r27
 10674 3d88 F801      		movw r30,r16
 10675               	.LVL897:
 10676 3d8a 2683      		std Z+6,r18
 10677 3d8c 3783      		std Z+7,r19
 10678 3d8e 4087      		std Z+8,r20
 10679 3d90 5187      		std Z+9,r21
 10680               	.LVL898:
 10681               	.L649:
 10682               	.LM1007:
 10683 3d92 D801      		movw r26,r16
 10684 3d94 ED91      		ld r30,X+
 10685 3d96 FC91      		ld r31,X
 10686 3d98 1197      		sbiw r26,1
 10687               	.LVL899:
 10688 3d9a 8681      		ldd r24,Z+6
 10689 3d9c 9781      		ldd r25,Z+7
 10690               	.LVL900:
 10691 3d9e 1296      		adiw r26,2
 10692 3da0 8D93      		st X+,r24
 10693 3da2 9C93      		st X,r25
 10694 3da4 1397      		sbiw r26,2+1
 10695               	.LM1008:
 10696 3da6 C801      		movw r24,r16
 10697 3da8 60E0      		ldi r22,lo8(0)
 10698 3daa 70E0      		ldi r23,hi8(0)
 10699 3dac 0E94 0000 		call dir_seek
 10700               	.LVL901:
 10701               	.L648:
 10702               	.LM1009:
 10703 3db0 8430      		cpi r24,lo8(4)
 10704 3db2 01F4      		brne .L647
 10705               	.LVL902:
 10706               	.L652:
 10707 3db4 85E0      		ldi r24,lo8(5)
 10708               	.L647:
 10709               	.LVL903:
 10710               	/* epilogue start */
 10711               	.LM1010:
 10712 3db6 2E96      		adiw r28,14
 10713 3db8 CDBF      		out __SP_L__,r28
 10714 3dba DEBF      		out __SP_H__,r29
 10715 3dbc CF91      		pop r28
 10716 3dbe DF91      		pop r29
 10717 3dc0 1F91      		pop r17
 10718 3dc2 0F91      		pop r16
 10719               	.LVL904:
 10720 3dc4 0895      		ret
 10721               	.LFE72:
 10723               	.global	f_readdir
 10725               	f_readdir:
 10726               	.LFB73:
 10727               	.LM1011:
 10728               	.LVL905:
 10729 3dc6 EF92      		push r14
 10730 3dc8 FF92      		push r15
 10731 3dca 0F93      		push r16
 10732 3dcc 1F93      		push r17
 10733 3dce DF93      		push r29
 10734 3dd0 CF93      		push r28
 10735 3dd2 CDB7      		in r28,__SP_L__
 10736 3dd4 DEB7      		in r29,__SP_H__
 10737 3dd6 2C97      		sbiw r28,12
 10738 3dd8 CDBF      		out __SP_L__,r28
 10739 3dda DEBF      		out __SP_H__,r29
 10740               	/* prologue: function */
 10741               	/* frame size = 12 */
 10742 3ddc 8C01      		movw r16,r24
 10743 3dde 7B01      		movw r14,r22
 10744               	.LM1012:
 10745 3de0 FC01      		movw r30,r24
 10746 3de2 6281      		ldd r22,Z+2
 10747 3de4 7381      		ldd r23,Z+3
 10748               	.LVL906:
 10749 3de6 8081      		ld r24,Z
 10750 3de8 9181      		ldd r25,Z+1
 10751               	.LVL907:
 10752 3dea 0E94 0000 		call validate
 10753               	.LM1013:
 10754 3dee 8823      		tst r24
 10755               	.LVL908:
 10756 3df0 01F4      		brne .L655
 10757               	.LM1014:
 10758 3df2 CE01      		movw r24,r28
 10759               	.LVL909:
 10760 3df4 0196      		adiw r24,1
 10761 3df6 F801      		movw r30,r16
 10762 3df8 848B      		std Z+20,r24
 10763 3dfa 958B      		std Z+21,r25
 10764               	.LM1015:
 10765 3dfc E114      		cp r14,__zero_reg__
 10766 3dfe F104      		cpc r15,__zero_reg__
 10767 3e00 01F4      		brne .L656
 10768               	.LM1016:
 10769 3e02 C801      		movw r24,r16
 10770 3e04 60E0      		ldi r22,lo8(0)
 10771 3e06 70E0      		ldi r23,hi8(0)
 10772 3e08 0E94 0000 		call dir_seek
 10773 3e0c 00C0      		rjmp .L655
 10774               	.L656:
 10775               	.LM1017:
 10776 3e0e C801      		movw r24,r16
 10777 3e10 0E94 0000 		call dir_read
 10778               	.LM1018:
 10779 3e14 8430      		cpi r24,lo8(4)
 10780               	.LVL910:
 10781 3e16 01F4      		brne .L657
 10782               	.LM1019:
 10783 3e18 F801      		movw r30,r16
 10784 3e1a 1686      		std Z+14,__zero_reg__
 10785 3e1c 1786      		std Z+15,__zero_reg__
 10786 3e1e 108A      		std Z+16,__zero_reg__
 10787 3e20 118A      		std Z+17,__zero_reg__
 10788 3e22 00C0      		rjmp .L658
 10789               	.L657:
 10790               	.LM1020:
 10791 3e24 8823      		tst r24
 10792 3e26 01F4      		brne .L655
 10793               	.L658:
 10794               	.LM1021:
 10795 3e28 C801      		movw r24,r16
 10796               	.LVL911:
 10797 3e2a B701      		movw r22,r14
 10798 3e2c 0E94 0000 		call get_fileinfo
 10799               	.LM1022:
 10800 3e30 C801      		movw r24,r16
 10801 3e32 60E0      		ldi r22,lo8(0)
 10802 3e34 0E94 0000 		call dir_next
 10803               	.LM1023:
 10804 3e38 8430      		cpi r24,lo8(4)
 10805               	.LVL912:
 10806 3e3a 01F4      		brne .L655
 10807               	.LM1024:
 10808 3e3c F801      		movw r30,r16
 10809 3e3e 1686      		std Z+14,__zero_reg__
 10810 3e40 1786      		std Z+15,__zero_reg__
 10811 3e42 108A      		std Z+16,__zero_reg__
 10812 3e44 118A      		std Z+17,__zero_reg__
 10813 3e46 80E0      		ldi r24,lo8(0)
 10814               	.L655:
 10815               	.LVL913:
 10816               	/* epilogue start */
 10817               	.LM1025:
 10818 3e48 2C96      		adiw r28,12
 10819 3e4a CDBF      		out __SP_L__,r28
 10820 3e4c DEBF      		out __SP_H__,r29
 10821 3e4e CF91      		pop r28
 10822 3e50 DF91      		pop r29
 10823 3e52 1F91      		pop r17
 10824 3e54 0F91      		pop r16
 10825               	.LVL914:
 10826 3e56 FF90      		pop r15
 10827 3e58 EF90      		pop r14
 10828               	.LVL915:
 10829 3e5a 0895      		ret
 10830               	.LFE73:
 10832               	.global	f_stat
 10834               	f_stat:
 10835               	.LFB74:
 10836               	.LM1026:
 10837               	.LVL916:
 10838 3e5c CF92      		push r12
 10839 3e5e DF92      		push r13
 10840 3e60 EF92      		push r14
 10841 3e62 FF92      		push r15
 10842 3e64 1F93      		push r17
 10843 3e66 DF93      		push r29
 10844 3e68 CF93      		push r28
 10845 3e6a CDB7      		in r28,__SP_L__
 10846 3e6c DEB7      		in r29,__SP_H__
 10847 3e6e A497      		sbiw r28,36
 10848 3e70 CDBF      		out __SP_L__,r28
 10849 3e72 DEBF      		out __SP_H__,r29
 10850               	/* prologue: function */
 10851               	/* frame size = 36 */
 10852 3e74 8BA3      		std Y+35,r24
 10853 3e76 9CA3      		std Y+36,r25
 10854 3e78 6B01      		movw r12,r22
 10855               	.LM1027:
 10856 3e7a 2DE0      		ldi r18,lo8(13)
 10857 3e7c E22E      		mov r14,r18
 10858 3e7e F12C      		mov r15,__zero_reg__
 10859 3e80 EC0E      		add r14,r28
 10860 3e82 FD1E      		adc r15,r29
 10861 3e84 CE01      		movw r24,r28
 10862               	.LVL917:
 10863 3e86 8396      		adiw r24,35
 10864 3e88 B701      		movw r22,r14
 10865               	.LVL918:
 10866 3e8a 40E0      		ldi r20,lo8(0)
 10867 3e8c 0E94 0000 		call chk_mounted
 10868 3e90 182F      		mov r17,r24
 10869               	.LVL919:
 10870               	.LM1028:
 10871 3e92 8823      		tst r24
 10872 3e94 01F4      		brne .L661
 10873               	.LVL920:
 10874               	.LM1029:
 10875 3e96 CE01      		movw r24,r28
 10876               	.LVL921:
 10877 3e98 0196      		adiw r24,1
 10878 3e9a 89A3      		std Y+33,r24
 10879 3e9c 9AA3      		std Y+34,r25
 10880               	.LM1030:
 10881 3e9e 6BA1      		ldd r22,Y+35
 10882 3ea0 7CA1      		ldd r23,Y+36
 10883 3ea2 C701      		movw r24,r14
 10884 3ea4 0E94 0000 		call follow_path
 10885 3ea8 182F      		mov r17,r24
 10886               	.LM1031:
 10887 3eaa 8823      		tst r24
 10888 3eac 01F4      		brne .L661
 10889               	.LVL922:
 10890               	.LM1032:
 10891 3eae 8F8D      		ldd r24,Y+31
 10892 3eb0 98A1      		ldd r25,Y+32
 10893               	.LVL923:
 10894 3eb2 892B      		or r24,r25
 10895 3eb4 01F4      		brne .L662
 10896 3eb6 16E0      		ldi r17,lo8(6)
 10897 3eb8 00C0      		rjmp .L661
 10898               	.L662:
 10899               	.LM1033:
 10900 3eba C701      		movw r24,r14
 10901 3ebc B601      		movw r22,r12
 10902 3ebe 0E94 0000 		call get_fileinfo
 10903               	.LVL924:
 10904               	.L661:
 10905               	.LM1034:
 10906 3ec2 812F      		mov r24,r17
 10907               	/* epilogue start */
 10908 3ec4 A496      		adiw r28,36
 10909 3ec6 CDBF      		out __SP_L__,r28
 10910 3ec8 DEBF      		out __SP_H__,r29
 10911 3eca CF91      		pop r28
 10912 3ecc DF91      		pop r29
 10913 3ece 1F91      		pop r17
 10914               	.LVL925:
 10915 3ed0 FF90      		pop r15
 10916 3ed2 EF90      		pop r14
 10917 3ed4 DF90      		pop r13
 10918 3ed6 CF90      		pop r12
 10919               	.LVL926:
 10920 3ed8 0895      		ret
 10921               	.LFE74:
 10923               	.global	f_getfree
 10925               	f_getfree:
 10926               	.LFB75:
 10927               	.LM1035:
 10928               	.LVL927:
 10929 3eda 2F92      		push r2
 10930 3edc 3F92      		push r3
 10931 3ede 4F92      		push r4
 10932 3ee0 5F92      		push r5
 10933 3ee2 6F92      		push r6
 10934 3ee4 7F92      		push r7
 10935 3ee6 8F92      		push r8
 10936 3ee8 9F92      		push r9
 10937 3eea AF92      		push r10
 10938 3eec BF92      		push r11
 10939 3eee CF92      		push r12
 10940 3ef0 DF92      		push r13
 10941 3ef2 EF92      		push r14
 10942 3ef4 FF92      		push r15
 10943 3ef6 0F93      		push r16
 10944 3ef8 1F93      		push r17
 10945 3efa DF93      		push r29
 10946 3efc CF93      		push r28
 10947 3efe CDB7      		in r28,__SP_L__
 10948 3f00 DEB7      		in r29,__SP_H__
 10949 3f02 2997      		sbiw r28,9
 10950 3f04 CDBF      		out __SP_L__,r28
 10951 3f06 DEBF      		out __SP_H__,r29
 10952               	/* prologue: function */
 10953               	/* frame size = 9 */
 10954 3f08 8983      		std Y+1,r24
 10955 3f0a 9A83      		std Y+2,r25
 10956 3f0c 6C83      		std Y+4,r22
 10957 3f0e 7D83      		std Y+5,r23
 10958 3f10 2A01      		movw r4,r20
 10959               	.LM1036:
 10960 3f12 CE01      		movw r24,r28
 10961               	.LVL928:
 10962 3f14 0196      		adiw r24,1
 10963 3f16 BA01      		movw r22,r20
 10964               	.LVL929:
 10965 3f18 40E0      		ldi r20,lo8(0)
 10966               	.LVL930:
 10967 3f1a 0E94 0000 		call chk_mounted
 10968               	.LM1037:
 10969 3f1e 8823      		tst r24
 10970               	.LVL931:
 10971 3f20 01F0      		breq .+2
 10972 3f22 00C0      		rjmp .L666
 10973               	.LM1038:
 10974 3f24 D201      		movw r26,r4
 10975 3f26 ED91      		ld r30,X+
 10976 3f28 FC91      		ld r31,X
 10977 3f2a 2685      		ldd r18,Z+14
 10978 3f2c 3785      		ldd r19,Z+15
 10979 3f2e 4089      		ldd r20,Z+16
 10980 3f30 5189      		ldd r21,Z+17
 10981 3f32 E28C      		ldd r14,Z+26
 10982 3f34 F38C      		ldd r15,Z+27
 10983 3f36 048D      		ldd r16,Z+28
 10984 3f38 158D      		ldd r17,Z+29
 10985               	.LVL932:
 10986 3f3a D801      		movw r26,r16
 10987 3f3c C701      		movw r24,r14
 10988               	.LVL933:
 10989 3f3e 0297      		sbiw r24,2
 10990 3f40 A109      		sbc r26,__zero_reg__
 10991 3f42 B109      		sbc r27,__zero_reg__
 10992 3f44 8217      		cp r24,r18
 10993 3f46 9307      		cpc r25,r19
 10994 3f48 A407      		cpc r26,r20
 10995 3f4a B507      		cpc r27,r21
 10996 3f4c 00F0      		brlo .L667
 10997               	.LM1039:
 10998 3f4e EC81      		ldd r30,Y+4
 10999 3f50 FD81      		ldd r31,Y+5
 11000 3f52 2083      		st Z,r18
 11001 3f54 3183      		std Z+1,r19
 11002 3f56 4283      		std Z+2,r20
 11003 3f58 5383      		std Z+3,r21
 11004 3f5a 00C0      		rjmp .L684
 11005               	.L667:
 11006               	.LM1040:
 11007 3f5c 3080      		ld r3,Z
 11008 3f5e 3B82      		std Y+3,r3
 11009               	.LVL934:
 11010               	.LM1041:
 11011 3f60 232D      		mov r18,r3
 11012 3f62 2130      		cpi r18,lo8(1)
 11013 3f64 01F4      		brne .L668
 11014 3f66 AA24      		clr r10
 11015 3f68 BB24      		clr r11
 11016 3f6a 6501      		movw r12,r10
 11017               	.LVL935:
 11018 3f6c 92E0      		ldi r25,lo8(2)
 11019 3f6e E92E      		mov r14,r25
 11020 3f70 F12C      		mov r15,__zero_reg__
 11021 3f72 012D      		mov r16,__zero_reg__
 11022 3f74 112D      		mov r17,__zero_reg__
 11023               	.LVL936:
 11024               	.L672:
 11025               	.LM1042:
 11026 3f76 D201      		movw r26,r4
 11027 3f78 8D91      		ld r24,X+
 11028 3f7a 9C91      		ld r25,X
 11029 3f7c B801      		movw r22,r16
 11030 3f7e A701      		movw r20,r14
 11031 3f80 0E94 0000 		call get_fat
 11032               	.LVL937:
 11033               	.LM1043:
 11034 3f84 6F3F      		cpi r22,lo8(-1)
 11035 3f86 BFEF      		ldi r27,hi8(-1)
 11036 3f88 7B07      		cpc r23,r27
 11037 3f8a BFEF      		ldi r27,hlo8(-1)
 11038 3f8c 8B07      		cpc r24,r27
 11039 3f8e BFEF      		ldi r27,hhi8(-1)
 11040 3f90 9B07      		cpc r25,r27
 11041               	.LVL938:
 11042 3f92 01F4      		brne .L669
 11043 3f94 81E0      		ldi r24,lo8(1)
 11044               	.LVL939:
 11045 3f96 00C0      		rjmp .L666
 11046               	.LVL940:
 11047               	.L669:
 11048               	.LM1044:
 11049 3f98 6130      		cpi r22,lo8(1)
 11050 3f9a 7105      		cpc r23,__zero_reg__
 11051 3f9c 8105      		cpc r24,__zero_reg__
 11052 3f9e 9105      		cpc r25,__zero_reg__
 11053 3fa0 01F4      		brne .L670
 11054 3fa2 82E0      		ldi r24,lo8(2)
 11055               	.LVL941:
 11056 3fa4 00C0      		rjmp .L666
 11057               	.LVL942:
 11058               	.L670:
 11059               	.LM1045:
 11060 3fa6 6115      		cp r22,__zero_reg__
 11061 3fa8 7105      		cpc r23,__zero_reg__
 11062 3faa 8105      		cpc r24,__zero_reg__
 11063 3fac 9105      		cpc r25,__zero_reg__
 11064 3fae 01F4      		brne .L671
 11065 3fb0 0894      		sec
 11066 3fb2 A11C      		adc r10,__zero_reg__
 11067 3fb4 B11C      		adc r11,__zero_reg__
 11068 3fb6 C11C      		adc r12,__zero_reg__
 11069 3fb8 D11C      		adc r13,__zero_reg__
 11070               	.L671:
 11071               	.LM1046:
 11072 3fba 0894      		sec
 11073 3fbc E11C      		adc r14,__zero_reg__
 11074 3fbe F11C      		adc r15,__zero_reg__
 11075 3fc0 011D      		adc r16,__zero_reg__
 11076 3fc2 111D      		adc r17,__zero_reg__
 11077 3fc4 D201      		movw r26,r4
 11078 3fc6 ED91      		ld r30,X+
 11079 3fc8 FC91      		ld r31,X
 11080 3fca 828D      		ldd r24,Z+26
 11081 3fcc 938D      		ldd r25,Z+27
 11082 3fce A48D      		ldd r26,Z+28
 11083 3fd0 B58D      		ldd r27,Z+29
 11084 3fd2 E816      		cp r14,r24
 11085 3fd4 F906      		cpc r15,r25
 11086 3fd6 0A07      		cpc r16,r26
 11087 3fd8 1B07      		cpc r17,r27
 11088 3fda 00F0      		brlo .L672
 11089 3fdc 00C0      		rjmp .L673
 11090               	.LVL943:
 11091               	.L668:
 11092               	.LM1047:
 11093 3fde 668C      		ldd r6,Z+30
 11094 3fe0 778C      		ldd r7,Z+31
 11095 3fe2 80A0      		ldd r8,Z+32
 11096 3fe4 91A0      		ldd r9,Z+33
 11097               	.LVL944:
 11098 3fe6 AA24      		clr r10
 11099 3fe8 BB24      		clr r11
 11100 3fea 6501      		movw r12,r10
 11101               	.LVL945:
 11102 3fec 60E0      		ldi r22,lo8(0)
 11103 3fee 70E0      		ldi r23,hi8(0)
 11104               	.LVL946:
 11105 3ff0 E0E0      		ldi r30,lo8(0)
 11106 3ff2 F0E0      		ldi r31,hi8(0)
 11107               	.LVL947:
 11108               	.L679:
 11109               	.LM1048:
 11110 3ff4 6115      		cp r22,__zero_reg__
 11111 3ff6 7105      		cpc r23,__zero_reg__
 11112 3ff8 01F4      		brne .L674
 11113               	.LM1049:
 11114 3ffa F201      		movw r30,r4
 11115               	.LVL948:
 11116 3ffc 8081      		ld r24,Z
 11117 3ffe 9181      		ldd r25,Z+1
 11118 4000 B401      		movw r22,r8
 11119 4002 A301      		movw r20,r6
 11120 4004 0E94 0000 		call move_window
 11121               	.LVL949:
 11122               	.LM1050:
 11123 4008 8823      		tst r24
 11124               	.LVL950:
 11125 400a 01F0      		breq .+2
 11126 400c 00C0      		rjmp .L666
 11127               	.LM1051:
 11128 400e 0894      		sec
 11129 4010 611C      		adc r6,__zero_reg__
 11130 4012 711C      		adc r7,__zero_reg__
 11131 4014 811C      		adc r8,__zero_reg__
 11132 4016 911C      		adc r9,__zero_reg__
 11133               	.LM1052:
 11134 4018 D201      		movw r26,r4
 11135 401a ED91      		ld r30,X+
 11136 401c FC91      		ld r31,X
 11137               	.LVL951:
 11138 401e BE96      		adiw r30,46
 11139 4020 60E0      		ldi r22,lo8(512)
 11140 4022 72E0      		ldi r23,hi8(512)
 11141               	.LVL952:
 11142               	.L674:
 11143 4024 B181      		ldd r27,Z+1
 11144 4026 B887      		std Y+8,r27
 11145 4028 2081      		ld r18,Z
 11146 402a 2987      		std Y+9,r18
 11147               	.LM1053:
 11148 402c 3B81      		ldd r19,Y+3
 11149 402e 3230      		cpi r19,lo8(2)
 11150 4030 01F4      		brne .L675
 11151               	.LM1054:
 11152 4032 BF83      		std Y+7,r27
 11153 4034 1E82      		std Y+6,__zero_reg__
 11154 4036 822F      		mov r24,r18
 11155               	.LVL953:
 11156 4038 90E0      		ldi r25,lo8(0)
 11157 403a AE81      		ldd r26,Y+6
 11158 403c BF81      		ldd r27,Y+7
 11159 403e 8A2B      		or r24,r26
 11160 4040 9B2B      		or r25,r27
 11161 4042 892B      		or r24,r25
 11162 4044 01F4      		brne .L676
 11163 4046 0894      		sec
 11164 4048 A11C      		adc r10,__zero_reg__
 11165 404a B11C      		adc r11,__zero_reg__
 11166 404c C11C      		adc r12,__zero_reg__
 11167 404e D11C      		adc r13,__zero_reg__
 11168               	.L676:
 11169               	.LM1055:
 11170 4050 3296      		adiw r30,2
 11171 4052 6250      		subi r22,lo8(-(-2))
 11172 4054 7040      		sbci r23,hi8(-(-2))
 11173 4056 00C0      		rjmp .L677
 11174               	.LVL954:
 11175               	.L675:
 11176               	.LM1056:
 11177 4058 2381      		ldd r18,Z+3
 11178 405a 30E0      		ldi r19,lo8(0)
 11179 405c 40E0      		ldi r20,lo8(0)
 11180 405e 50E0      		ldi r21,hi8(0)
 11181 4060 522F      		mov r21,r18
 11182 4062 4427      		clr r20
 11183 4064 3327      		clr r19
 11184 4066 2227      		clr r18
 11185               	.LVL955:
 11186 4068 8281      		ldd r24,Z+2
 11187 406a 90E0      		ldi r25,lo8(0)
 11188 406c A0E0      		ldi r26,lo8(0)
 11189 406e B0E0      		ldi r27,hi8(0)
 11190 4070 DC01      		movw r26,r24
 11191 4072 9927      		clr r25
 11192 4074 8827      		clr r24
 11193 4076 282B      		or r18,r24
 11194 4078 392B      		or r19,r25
 11195 407a 4A2B      		or r20,r26
 11196 407c 5B2B      		or r21,r27
 11197 407e 3984      		ldd r3,Y+9
 11198 4080 832D      		mov r24,r3
 11199 4082 90E0      		ldi r25,lo8(0)
 11200 4084 A0E0      		ldi r26,lo8(0)
 11201 4086 B0E0      		ldi r27,hi8(0)
 11202 4088 282B      		or r18,r24
 11203 408a 392B      		or r19,r25
 11204 408c 4A2B      		or r20,r26
 11205 408e 5B2B      		or r21,r27
 11206 4090 3884      		ldd r3,Y+8
 11207 4092 2224      		clr r2
 11208 4094 C101      		movw r24,r2
 11209 4096 A0E0      		ldi r26,lo8(0)
 11210 4098 B0E0      		ldi r27,hi8(0)
 11211 409a 282B      		or r18,r24
 11212 409c 392B      		or r19,r25
 11213 409e 4A2B      		or r20,r26
 11214 40a0 5B2B      		or r21,r27
 11215 40a2 5F70      		andi r21,hhi8(268435455)
 11216 40a4 2115      		cp r18,__zero_reg__
 11217 40a6 3105      		cpc r19,__zero_reg__
 11218 40a8 4105      		cpc r20,__zero_reg__
 11219 40aa 5105      		cpc r21,__zero_reg__
 11220 40ac 01F4      		brne .L678
 11221 40ae 0894      		sec
 11222 40b0 A11C      		adc r10,__zero_reg__
 11223 40b2 B11C      		adc r11,__zero_reg__
 11224 40b4 C11C      		adc r12,__zero_reg__
 11225 40b6 D11C      		adc r13,__zero_reg__
 11226               	.L678:
 11227               	.LM1057:
 11228 40b8 3496      		adiw r30,4
 11229 40ba 6450      		subi r22,lo8(-(-4))
 11230 40bc 7040      		sbci r23,hi8(-(-4))
 11231               	.L677:
 11232               	.LM1058:
 11233 40be 0894      		sec
 11234 40c0 E108      		sbc r14,__zero_reg__
 11235 40c2 F108      		sbc r15,__zero_reg__
 11236 40c4 0109      		sbc r16,__zero_reg__
 11237 40c6 1109      		sbc r17,__zero_reg__
 11238 40c8 E114      		cp r14,__zero_reg__
 11239 40ca F104      		cpc r15,__zero_reg__
 11240 40cc 0105      		cpc r16,__zero_reg__
 11241 40ce 1105      		cpc r17,__zero_reg__
 11242 40d0 01F0      		breq .+2
 11243 40d2 00C0      		rjmp .L679
 11244               	.LVL956:
 11245               	.L673:
 11246               	.LM1059:
 11247 40d4 D201      		movw r26,r4
 11248 40d6 ED91      		ld r30,X+
 11249 40d8 FC91      		ld r31,X
 11250               	.LVL957:
 11251 40da A686      		std Z+14,r10
 11252 40dc B786      		std Z+15,r11
 11253 40de C08A      		std Z+16,r12
 11254 40e0 D18A      		std Z+17,r13
 11255               	.LM1060:
 11256 40e2 BB81      		ldd r27,Y+3
 11257 40e4 B330      		cpi r27,lo8(3)
 11258 40e6 01F4      		brne .L680
 11259 40e8 81E0      		ldi r24,lo8(1)
 11260 40ea 8583      		std Z+5,r24
 11261               	.L680:
 11262               	.LM1061:
 11263 40ec EC81      		ldd r30,Y+4
 11264 40ee FD81      		ldd r31,Y+5
 11265 40f0 A082      		st Z,r10
 11266 40f2 B182      		std Z+1,r11
 11267 40f4 C282      		std Z+2,r12
 11268 40f6 D382      		std Z+3,r13
 11269               	.L684:
 11270 40f8 80E0      		ldi r24,lo8(0)
 11271               	.LVL958:
 11272               	.L666:
 11273               	.LVL959:
 11274               	/* epilogue start */
 11275               	.LM1062:
 11276 40fa 2996      		adiw r28,9
 11277 40fc CDBF      		out __SP_L__,r28
 11278 40fe DEBF      		out __SP_H__,r29
 11279 4100 CF91      		pop r28
 11280 4102 DF91      		pop r29
 11281 4104 1F91      		pop r17
 11282 4106 0F91      		pop r16
 11283 4108 FF90      		pop r15
 11284 410a EF90      		pop r14
 11285               	.LVL960:
 11286 410c DF90      		pop r13
 11287 410e CF90      		pop r12
 11288 4110 BF90      		pop r11
 11289 4112 AF90      		pop r10
 11290               	.LVL961:
 11291 4114 9F90      		pop r9
 11292 4116 8F90      		pop r8
 11293 4118 7F90      		pop r7
 11294 411a 6F90      		pop r6
 11295               	.LVL962:
 11296 411c 5F90      		pop r5
 11297 411e 4F90      		pop r4
 11298               	.LVL963:
 11299 4120 3F90      		pop r3
 11300 4122 2F90      		pop r2
 11301 4124 0895      		ret
 11302               	.LFE75:
 11304               	.global	f_truncate
 11306               	f_truncate:
 11307               	.LFB76:
 11308               	.LM1063:
 11309               	.LVL964:
 11310 4126 CF92      		push r12
 11311 4128 DF92      		push r13
 11312 412a EF92      		push r14
 11313 412c FF92      		push r15
 11314 412e 0F93      		push r16
 11315 4130 1F93      		push r17
 11316 4132 CF93      		push r28
 11317 4134 DF93      		push r29
 11318               	/* prologue: function */
 11319               	/* frame size = 0 */
 11320 4136 EC01      		movw r28,r24
 11321               	.LM1064:
 11322 4138 6A81      		ldd r22,Y+2
 11323 413a 7B81      		ldd r23,Y+3
 11324 413c 8881      		ld r24,Y
 11325 413e 9981      		ldd r25,Y+1
 11326               	.LVL965:
 11327 4140 0E94 0000 		call validate
 11328 4144 182F      		mov r17,r24
 11329               	.LVL966:
 11330               	.LM1065:
 11331 4146 8823      		tst r24
 11332 4148 01F0      		breq .+2
 11333 414a 00C0      		rjmp .L686
 11334               	.LVL967:
 11335               	.LM1066:
 11336 414c 6C81      		ldd r22,Y+4
 11337 414e 67FF      		sbrs r22,7
 11338 4150 00C0      		rjmp .L687
 11339 4152 12E0      		ldi r17,lo8(2)
 11340               	.LVL968:
 11341 4154 00C0      		rjmp .L686
 11342               	.LVL969:
 11343               	.L687:
 11344               	.LM1067:
 11345 4156 61FD      		sbrc r22,1
 11346 4158 00C0      		rjmp .L688
 11347 415a 17E0      		ldi r17,lo8(7)
 11348               	.LVL970:
 11349 415c 00C0      		rjmp .L686
 11350               	.LVL971:
 11351               	.L688:
 11352               	.LM1068:
 11353 415e 2E81      		ldd r18,Y+6
 11354 4160 3F81      		ldd r19,Y+7
 11355 4162 4885      		ldd r20,Y+8
 11356 4164 5985      		ldd r21,Y+9
 11357 4166 8A85      		ldd r24,Y+10
 11358 4168 9B85      		ldd r25,Y+11
 11359 416a AC85      		ldd r26,Y+12
 11360 416c BD85      		ldd r27,Y+13
 11361               	.LVL972:
 11362 416e 2817      		cp r18,r24
 11363 4170 3907      		cpc r19,r25
 11364 4172 4A07      		cpc r20,r26
 11365 4174 5B07      		cpc r21,r27
 11366 4176 00F0      		brlo .+2
 11367 4178 00C0      		rjmp .L686
 11368               	.LM1069:
 11369 417a 2A87      		std Y+10,r18
 11370 417c 3B87      		std Y+11,r19
 11371 417e 4C87      		std Y+12,r20
 11372 4180 5D87      		std Y+13,r21
 11373               	.LM1070:
 11374 4182 6062      		ori r22,lo8(32)
 11375 4184 6C83      		std Y+4,r22
 11376 4186 8881      		ld r24,Y
 11377 4188 9981      		ldd r25,Y+1
 11378               	.LM1071:
 11379 418a 2115      		cp r18,__zero_reg__
 11380 418c 3105      		cpc r19,__zero_reg__
 11381 418e 4105      		cpc r20,__zero_reg__
 11382 4190 5105      		cpc r21,__zero_reg__
 11383 4192 01F4      		brne .L689
 11384               	.LM1072:
 11385 4194 4E85      		ldd r20,Y+14
 11386 4196 5F85      		ldd r21,Y+15
 11387 4198 6889      		ldd r22,Y+16
 11388 419a 7989      		ldd r23,Y+17
 11389 419c 0E94 0000 		call remove_chain
 11390 41a0 182F      		mov r17,r24
 11391               	.LM1073:
 11392 41a2 1E86      		std Y+14,__zero_reg__
 11393 41a4 1F86      		std Y+15,__zero_reg__
 11394 41a6 188A      		std Y+16,__zero_reg__
 11395 41a8 198A      		std Y+17,__zero_reg__
 11396 41aa 00C0      		rjmp .L690
 11397               	.L689:
 11398               	.LM1074:
 11399 41ac 4A89      		ldd r20,Y+18
 11400 41ae 5B89      		ldd r21,Y+19
 11401 41b0 6C89      		ldd r22,Y+20
 11402 41b2 7D89      		ldd r23,Y+21
 11403 41b4 0E94 0000 		call get_fat
 11404 41b8 6B01      		movw r12,r22
 11405 41ba 7C01      		movw r14,r24
 11406               	.LVL973:
 11407               	.LM1075:
 11408 41bc 8FEF      		ldi r24,lo8(-1)
 11409 41be C816      		cp r12,r24
 11410 41c0 8FEF      		ldi r24,hi8(-1)
 11411 41c2 D806      		cpc r13,r24
 11412 41c4 8FEF      		ldi r24,hlo8(-1)
 11413 41c6 E806      		cpc r14,r24
 11414 41c8 8FEF      		ldi r24,hhi8(-1)
 11415 41ca F806      		cpc r15,r24
 11416 41cc 01F0      		breq .L691
 11417               	.LM1076:
 11418 41ce 81E0      		ldi r24,lo8(1)
 11419 41d0 C816      		cp r12,r24
 11420 41d2 D104      		cpc r13,__zero_reg__
 11421 41d4 E104      		cpc r14,__zero_reg__
 11422 41d6 F104      		cpc r15,__zero_reg__
 11423 41d8 01F4      		brne .L692
 11424 41da 12E0      		ldi r17,lo8(2)
 11425 41dc 00C0      		rjmp .L693
 11426               	.L692:
 11427               	.LM1077:
 11428 41de E881      		ld r30,Y
 11429 41e0 F981      		ldd r31,Y+1
 11430 41e2 828D      		ldd r24,Z+26
 11431 41e4 938D      		ldd r25,Z+27
 11432 41e6 A48D      		ldd r26,Z+28
 11433 41e8 B58D      		ldd r27,Z+29
 11434 41ea C816      		cp r12,r24
 11435 41ec D906      		cpc r13,r25
 11436 41ee EA06      		cpc r14,r26
 11437 41f0 FB06      		cpc r15,r27
 11438 41f2 00F4      		brsh .L686
 11439               	.LM1078:
 11440 41f4 4A89      		ldd r20,Y+18
 11441 41f6 5B89      		ldd r21,Y+19
 11442 41f8 6C89      		ldd r22,Y+20
 11443 41fa 7D89      		ldd r23,Y+21
 11444 41fc CF01      		movw r24,r30
 11445 41fe 0FEF      		ldi r16,lo8(268435455)
 11446 4200 1FEF      		ldi r17,hi8(268435455)
 11447 4202 2FEF      		ldi r18,hlo8(268435455)
 11448 4204 3FE0      		ldi r19,hhi8(268435455)
 11449 4206 0E94 0000 		call put_fat
 11450 420a 182F      		mov r17,r24
 11451               	.LM1079:
 11452 420c 8823      		tst r24
 11453 420e 01F4      		brne .L693
 11454               	.LVL974:
 11455 4210 8881      		ld r24,Y
 11456 4212 9981      		ldd r25,Y+1
 11457               	.LVL975:
 11458 4214 B701      		movw r22,r14
 11459 4216 A601      		movw r20,r12
 11460 4218 0E94 0000 		call remove_chain
 11461 421c 182F      		mov r17,r24
 11462               	.L690:
 11463               	.LM1080:
 11464 421e 1123      		tst r17
 11465 4220 01F0      		breq .L686
 11466               	.LVL976:
 11467               	.L693:
 11468 4222 8C81      		ldd r24,Y+4
 11469 4224 8068      		ori r24,lo8(-128)
 11470 4226 8C83      		std Y+4,r24
 11471               	.LVL977:
 11472               	.L686:
 11473               	.LM1081:
 11474 4228 812F      		mov r24,r17
 11475               	/* epilogue start */
 11476 422a DF91      		pop r29
 11477 422c CF91      		pop r28
 11478               	.LVL978:
 11479 422e 1F91      		pop r17
 11480               	.LVL979:
 11481 4230 0F91      		pop r16
 11482 4232 FF90      		pop r15
 11483 4234 EF90      		pop r14
 11484 4236 DF90      		pop r13
 11485 4238 CF90      		pop r12
 11486               	.LVL980:
 11487 423a 0895      		ret
 11488               	.LVL981:
 11489               	.L691:
 11490               	.LM1082:
 11491 423c 11E0      		ldi r17,lo8(1)
 11492 423e 00C0      		rjmp .L693
 11493               	.LFE76:
 11495               	.global	f_unlink
 11497               	f_unlink:
 11498               	.LFB77:
 11499               	.LM1083:
 11500               	.LVL982:
 11501 4240 CF92      		push r12
 11502 4242 DF92      		push r13
 11503 4244 EF92      		push r14
 11504 4246 FF92      		push r15
 11505 4248 0F93      		push r16
 11506 424a 1F93      		push r17
 11507 424c DF93      		push r29
 11508 424e CF93      		push r28
 11509 4250 CDB7      		in r28,__SP_L__
 11510 4252 DEB7      		in r29,__SP_H__
 11511 4254 EA97      		sbiw r28,58
 11512 4256 CDBF      		out __SP_L__,r28
 11513 4258 DEBF      		out __SP_H__,r29
 11514               	/* prologue: function */
 11515               	/* frame size = 58 */
 11516 425a 89AF      		std Y+57,r24
 11517 425c 9AAF      		std Y+58,r25
 11518               	.LM1084:
 11519 425e 4DE0      		ldi r20,lo8(13)
 11520 4260 C42E      		mov r12,r20
 11521 4262 D12C      		mov r13,__zero_reg__
 11522 4264 CC0E      		add r12,r28
 11523 4266 DD1E      		adc r13,r29
 11524 4268 CE01      		movw r24,r28
 11525               	.LVL983:
 11526 426a C996      		adiw r24,57
 11527 426c B601      		movw r22,r12
 11528 426e 41E0      		ldi r20,lo8(1)
 11529 4270 0E94 0000 		call chk_mounted
 11530               	.LM1085:
 11531 4274 8823      		tst r24
 11532               	.LVL984:
 11533 4276 01F0      		breq .+2
 11534 4278 00C0      		rjmp .L696
 11535               	.LM1086:
 11536 427a CE01      		movw r24,r28
 11537               	.LVL985:
 11538 427c 0196      		adiw r24,1
 11539 427e 89A3      		std Y+33,r24
 11540 4280 9AA3      		std Y+34,r25
 11541               	.LM1087:
 11542 4282 69AD      		ldd r22,Y+57
 11543 4284 7AAD      		ldd r23,Y+58
 11544 4286 C601      		movw r24,r12
 11545 4288 0E94 0000 		call follow_path
 11546               	.LM1088:
 11547 428c 8823      		tst r24
 11548               	.LVL986:
 11549 428e 01F0      		breq .+2
 11550 4290 00C0      		rjmp .L696
 11551               	.LM1089:
 11552 4292 EF8D      		ldd r30,Y+31
 11553 4294 F8A1      		ldd r31,Y+32
 11554               	.LVL987:
 11555               	.LM1090:
 11556 4296 3097      		sbiw r30,0
 11557 4298 01F4      		brne .L697
 11558 429a 86E0      		ldi r24,lo8(6)
 11559 429c 00C0      		rjmp .L696
 11560               	.L697:
 11561               	.LM1091:
 11562 429e 8385      		ldd r24,Z+11
 11563               	.LVL988:
 11564 42a0 482F      		mov r20,r24
 11565 42a2 80FD      		sbrc r24,0
 11566 42a4 00C0      		rjmp .L698
 11567               	.LM1092:
 11568 42a6 9589      		ldd r25,Z+21
 11569 42a8 80E0      		ldi r24,lo8(0)
 11570 42aa 2489      		ldd r18,Z+20
 11571 42ac 30E0      		ldi r19,lo8(0)
 11572 42ae 822B      		or r24,r18
 11573 42b0 932B      		or r25,r19
 11574 42b2 A0E0      		ldi r26,lo8(0)
 11575 42b4 B0E0      		ldi r27,hi8(0)
 11576 42b6 8C01      		movw r16,r24
 11577 42b8 FF24      		clr r15
 11578 42ba EE24      		clr r14
 11579               	.LVL989:
 11580 42bc 938D      		ldd r25,Z+27
 11581 42be 80E0      		ldi r24,lo8(0)
 11582 42c0 228D      		ldd r18,Z+26
 11583 42c2 30E0      		ldi r19,lo8(0)
 11584 42c4 822B      		or r24,r18
 11585 42c6 932B      		or r25,r19
 11586 42c8 A0E0      		ldi r26,lo8(0)
 11587 42ca B0E0      		ldi r27,hi8(0)
 11588 42cc E82A      		or r14,r24
 11589 42ce F92A      		or r15,r25
 11590 42d0 0A2B      		or r16,r26
 11591 42d2 1B2B      		or r17,r27
 11592               	.LM1093:
 11593 42d4 44FF      		sbrs r20,4
 11594 42d6 00C0      		rjmp .L699
 11595               	.LM1094:
 11596 42d8 82E0      		ldi r24,lo8(2)
 11597 42da E816      		cp r14,r24
 11598 42dc F104      		cpc r15,__zero_reg__
 11599 42de 0105      		cpc r16,__zero_reg__
 11600 42e0 1105      		cpc r17,__zero_reg__
 11601 42e2 00F4      		brsh .L700
 11602 42e4 82E0      		ldi r24,lo8(2)
 11603               	.LVL990:
 11604 42e6 00C0      		rjmp .L696
 11605               	.LVL991:
 11606               	.L700:
 11607               	.LBB600:
 11608               	.LBB601:
 11609               	.LM1095:
 11610 42e8 DE01      		movw r26,r28
 11611               	.LVL992:
 11612 42ea 9396      		adiw r26,35
 11613               	.LM1096:
 11614 42ec F601      		movw r30,r12
 11615               	.LVL993:
 11616               	.LM1097:
 11617 42ee 9D01      		movw r18,r26
 11618 42f0 00C0      		rjmp .L701
 11619               	.L702:
 11620 42f2 8191      		ld r24,Z+
 11621 42f4 8D93      		st X+,r24
 11622               	.L701:
 11623 42f6 E217      		cp r30,r18
 11624 42f8 F307      		cpc r31,r19
 11625 42fa 01F4      		brne .L702
 11626               	.LBE601:
 11627               	.LBE600:
 11628               	.LM1098:
 11629 42fc E9A6      		std Y+41,r14
 11630 42fe FAA6      		std Y+42,r15
 11631 4300 0BA7      		std Y+43,r16
 11632 4302 1CA7      		std Y+44,r17
 11633               	.LM1099:
 11634 4304 23E2      		ldi r18,lo8(35)
 11635 4306 C22E      		mov r12,r18
 11636 4308 D12C      		mov r13,__zero_reg__
 11637 430a CC0E      		add r12,r28
 11638 430c DD1E      		adc r13,r29
 11639 430e C601      		movw r24,r12
 11640 4310 62E0      		ldi r22,lo8(2)
 11641 4312 70E0      		ldi r23,hi8(2)
 11642 4314 0E94 0000 		call dir_seek
 11643               	.LVL994:
 11644               	.LM1100:
 11645 4318 8823      		tst r24
 11646               	.LVL995:
 11647 431a 01F4      		brne .L696
 11648               	.LM1101:
 11649 431c C601      		movw r24,r12
 11650               	.LVL996:
 11651 431e 0E94 0000 		call dir_read
 11652               	.LM1102:
 11653 4322 8823      		tst r24
 11654               	.LVL997:
 11655 4324 01F0      		breq .L698
 11656               	.LM1103:
 11657 4326 8430      		cpi r24,lo8(4)
 11658 4328 01F4      		brne .L696
 11659               	.LVL998:
 11660               	.L699:
 11661               	.LM1104:
 11662 432a CE01      		movw r24,r28
 11663               	.LVL999:
 11664 432c 0D96      		adiw r24,13
 11665 432e 0E94 0000 		call dir_remove
 11666               	.LVL1000:
 11667               	.LM1105:
 11668 4332 8823      		tst r24
 11669               	.LVL1001:
 11670 4334 01F4      		brne .L696
 11671               	.LM1106:
 11672 4336 E114      		cp r14,__zero_reg__
 11673 4338 F104      		cpc r15,__zero_reg__
 11674 433a 0105      		cpc r16,__zero_reg__
 11675 433c 1105      		cpc r17,__zero_reg__
 11676 433e 01F0      		breq .L703
 11677               	.LM1107:
 11678 4340 8D85      		ldd r24,Y+13
 11679 4342 9E85      		ldd r25,Y+14
 11680               	.LVL1002:
 11681 4344 B801      		movw r22,r16
 11682 4346 A701      		movw r20,r14
 11683 4348 0E94 0000 		call remove_chain
 11684               	.LM1108:
 11685 434c 8823      		tst r24
 11686               	.LVL1003:
 11687 434e 01F4      		brne .L696
 11688               	.L703:
 11689 4350 8D85      		ldd r24,Y+13
 11690 4352 9E85      		ldd r25,Y+14
 11691               	.LVL1004:
 11692 4354 0E94 0000 		call sync
 11693 4358 00C0      		rjmp .L696
 11694               	.LVL1005:
 11695               	.L698:
 11696 435a 87E0      		ldi r24,lo8(7)
 11697               	.L696:
 11698               	.LVL1006:
 11699               	/* epilogue start */
 11700               	.LM1109:
 11701 435c EA96      		adiw r28,58
 11702 435e CDBF      		out __SP_L__,r28
 11703 4360 DEBF      		out __SP_H__,r29
 11704 4362 CF91      		pop r28
 11705 4364 DF91      		pop r29
 11706 4366 1F91      		pop r17
 11707 4368 0F91      		pop r16
 11708 436a FF90      		pop r15
 11709 436c EF90      		pop r14
 11710               	.LVL1007:
 11711 436e DF90      		pop r13
 11712 4370 CF90      		pop r12
 11713 4372 0895      		ret
 11714               	.LFE77:
 11716               	.global	f_mkdir
 11718               	f_mkdir:
 11719               	.LFB78:
 11720               	.LM1110:
 11721               	.LVL1008:
 11722 4374 2F92      		push r2
 11723 4376 3F92      		push r3
 11724 4378 4F92      		push r4
 11725 437a 5F92      		push r5
 11726 437c 6F92      		push r6
 11727 437e 7F92      		push r7
 11728 4380 8F92      		push r8
 11729 4382 9F92      		push r9
 11730 4384 AF92      		push r10
 11731 4386 BF92      		push r11
 11732 4388 CF92      		push r12
 11733 438a DF92      		push r13
 11734 438c EF92      		push r14
 11735 438e FF92      		push r15
 11736 4390 0F93      		push r16
 11737 4392 1F93      		push r17
 11738 4394 DF93      		push r29
 11739 4396 CF93      		push r28
 11740 4398 CDB7      		in r28,__SP_L__
 11741 439a DEB7      		in r29,__SP_H__
 11742 439c AC97      		sbiw r28,44
 11743 439e CDBF      		out __SP_L__,r28
 11744 43a0 DEBF      		out __SP_H__,r29
 11745               	/* prologue: function */
 11746               	/* frame size = 44 */
 11747 43a2 8BA3      		std Y+35,r24
 11748 43a4 9CA3      		std Y+36,r25
 11749               	.LM1111:
 11750 43a6 7DE0      		ldi r23,lo8(13)
 11751 43a8 E72E      		mov r14,r23
 11752 43aa F12C      		mov r15,__zero_reg__
 11753 43ac EC0E      		add r14,r28
 11754 43ae FD1E      		adc r15,r29
 11755 43b0 CE01      		movw r24,r28
 11756               	.LVL1009:
 11757 43b2 8396      		adiw r24,35
 11758 43b4 B701      		movw r22,r14
 11759 43b6 41E0      		ldi r20,lo8(1)
 11760 43b8 0E94 0000 		call chk_mounted
 11761 43bc 182F      		mov r17,r24
 11762               	.LVL1010:
 11763               	.LM1112:
 11764 43be 8823      		tst r24
 11765 43c0 01F0      		breq .+2
 11766 43c2 00C0      		rjmp .L706
 11767               	.LVL1011:
 11768               	.LM1113:
 11769 43c4 CE01      		movw r24,r28
 11770               	.LVL1012:
 11771 43c6 0196      		adiw r24,1
 11772 43c8 89A3      		std Y+33,r24
 11773 43ca 9AA3      		std Y+34,r25
 11774               	.LM1114:
 11775 43cc 6BA1      		ldd r22,Y+35
 11776 43ce 7CA1      		ldd r23,Y+36
 11777 43d0 C701      		movw r24,r14
 11778 43d2 0E94 0000 		call follow_path
 11779 43d6 182F      		mov r17,r24
 11780               	.LM1115:
 11781 43d8 8823      		tst r24
 11782 43da 01F4      		brne .L707
 11783               	.LVL1013:
 11784 43dc 18E0      		ldi r17,lo8(8)
 11785               	.LVL1014:
 11786 43de 00C0      		rjmp .L706
 11787               	.LVL1015:
 11788               	.L707:
 11789               	.LM1116:
 11790 43e0 8430      		cpi r24,lo8(4)
 11791 43e2 01F0      		breq .+2
 11792 43e4 00C0      		rjmp .L706
 11793               	.LM1117:
 11794 43e6 8D85      		ldd r24,Y+13
 11795 43e8 9E85      		ldd r25,Y+14
 11796               	.LVL1016:
 11797 43ea 40E0      		ldi r20,lo8(0)
 11798 43ec 50E0      		ldi r21,hi8(0)
 11799 43ee 60E0      		ldi r22,hlo8(0)
 11800 43f0 70E0      		ldi r23,hhi8(0)
 11801 43f2 0E94 0000 		call create_chain
 11802 43f6 4B01      		movw r8,r22
 11803 43f8 5C01      		movw r10,r24
 11804               	.LVL1017:
 11805               	.LM1118:
 11806 43fa 6115      		cp r22,__zero_reg__
 11807 43fc 7105      		cpc r23,__zero_reg__
 11808 43fe 8105      		cpc r24,__zero_reg__
 11809 4400 9105      		cpc r25,__zero_reg__
 11810 4402 01F4      		brne .L708
 11811               	.LVL1018:
 11812 4404 17E0      		ldi r17,lo8(7)
 11813 4406 00C0      		rjmp .L706
 11814               	.L708:
 11815               	.LM1119:
 11816 4408 6130      		cpi r22,lo8(1)
 11817 440a 7105      		cpc r23,__zero_reg__
 11818 440c 8105      		cpc r24,__zero_reg__
 11819 440e 9105      		cpc r25,__zero_reg__
 11820 4410 01F4      		brne .L709
 11821 4412 12E0      		ldi r17,lo8(2)
 11822 4414 00C0      		rjmp .L706
 11823               	.L709:
 11824               	.LM1120:
 11825 4416 6F3F      		cpi r22,lo8(-1)
 11826 4418 3FEF      		ldi r19,hi8(-1)
 11827 441a 7307      		cpc r23,r19
 11828 441c 3FEF      		ldi r19,hlo8(-1)
 11829 441e 8307      		cpc r24,r19
 11830 4420 3FEF      		ldi r19,hhi8(-1)
 11831 4422 9307      		cpc r25,r19
 11832 4424 01F4      		brne .+2
 11833 4426 00C0      		rjmp .L710
 11834               	.LM1121:
 11835 4428 8D85      		ldd r24,Y+13
 11836 442a 9E85      		ldd r25,Y+14
 11837 442c 40E0      		ldi r20,lo8(0)
 11838 442e 50E0      		ldi r21,hi8(0)
 11839 4430 60E0      		ldi r22,hlo8(0)
 11840 4432 70E0      		ldi r23,hhi8(0)
 11841 4434 0E94 0000 		call move_window
 11842               	.LVL1019:
 11843 4438 182F      		mov r17,r24
 11844               	.LM1122:
 11845 443a 8823      		tst r24
 11846 443c 01F0      		breq .+2
 11847 443e 00C0      		rjmp .L706
 11848               	.LVL1020:
 11849               	.LM1123:
 11850 4440 0D85      		ldd r16,Y+13
 11851 4442 1E85      		ldd r17,Y+14
 11852               	.LBB602:
 11853               	.LBB603:
 11854               	.LM1124:
 11855 4444 6EEF      		ldi r22,lo8(-2)
 11856 4446 C62E      		mov r12,r22
 11857 4448 6FEF      		ldi r22,hi8(-2)
 11858 444a D62E      		mov r13,r22
 11859 444c 6FEF      		ldi r22,hlo8(-2)
 11860 444e E62E      		mov r14,r22
 11861 4450 6FEF      		ldi r22,hhi8(-2)
 11862 4452 F62E      		mov r15,r22
 11863               	.LVL1021:
 11864 4454 C80C      		add r12,r8
 11865 4456 D91C      		adc r13,r9
 11866 4458 EA1C      		adc r14,r10
 11867 445a FB1C      		adc r15,r11
 11868               	.LM1125:
 11869 445c F801      		movw r30,r16
 11870 445e 828D      		ldd r24,Z+26
 11871 4460 938D      		ldd r25,Z+27
 11872 4462 A48D      		ldd r26,Z+28
 11873 4464 B58D      		ldd r27,Z+29
 11874               	.LVL1022:
 11875 4466 0297      		sbiw r24,2
 11876 4468 A109      		sbc r26,__zero_reg__
 11877 446a B109      		sbc r27,__zero_reg__
 11878 446c C816      		cp r12,r24
 11879 446e D906      		cpc r13,r25
 11880 4470 EA06      		cpc r14,r26
 11881 4472 FB06      		cpc r15,r27
 11882 4474 00F0      		brlo .L711
 11883 4476 4424      		clr r4
 11884 4478 5524      		clr r5
 11885 447a 3201      		movw r6,r4
 11886               	.LVL1023:
 11887 447c 00C0      		rjmp .L712
 11888               	.LVL1024:
 11889               	.L711:
 11890               	.LM1126:
 11891 447e F801      		movw r30,r16
 11892 4480 2281      		ldd r18,Z+2
 11893 4482 30E0      		ldi r19,lo8(0)
 11894 4484 40E0      		ldi r20,lo8(0)
 11895 4486 50E0      		ldi r21,hi8(0)
 11896 4488 C701      		movw r24,r14
 11897 448a B601      		movw r22,r12
 11898 448c 0E94 0000 		call __mulsi3
 11899 4490 2B01      		movw r4,r22
 11900 4492 3C01      		movw r6,r24
 11901               	.LVL1025:
 11902 4494 F801      		movw r30,r16
 11903 4496 86A1      		ldd r24,Z+38
 11904 4498 97A1      		ldd r25,Z+39
 11905 449a A0A5      		ldd r26,Z+40
 11906 449c B1A5      		ldd r27,Z+41
 11907 449e 480E      		add r4,r24
 11908 44a0 591E      		adc r5,r25
 11909 44a2 6A1E      		adc r6,r26
 11910 44a4 7B1E      		adc r7,r27
 11911               	.L712:
 11912               	.LBE603:
 11913               	.LBE602:
 11914               	.LM1127:
 11915 44a6 5EE2      		ldi r21,lo8(46)
 11916 44a8 252E      		mov r2,r21
 11917 44aa 312C      		mov r3,__zero_reg__
 11918               	.LVL1026:
 11919 44ac 200E      		add r2,r16
 11920 44ae 311E      		adc r3,r17
 11921 44b0 F101      		movw r30,r2
 11922 44b2 80E0      		ldi r24,lo8(512)
 11923 44b4 92E0      		ldi r25,hi8(512)
 11924               	.LVL1027:
 11925 44b6 00C0      		rjmp .L713
 11926               	.LVL1028:
 11927               	.L714:
 11928               	.LBB604:
 11929               	.LBB605:
 11930               	.LM1128:
 11931 44b8 1192      		st Z+,__zero_reg__
 11932               	.L713:
 11933 44ba 0197      		sbiw r24,1
 11934 44bc 2FEF      		ldi r18,hi8(-1)
 11935 44be 8F3F      		cpi r24,lo8(-1)
 11936 44c0 9207      		cpc r25,r18
 11937 44c2 01F4      		brne .L714
 11938 44c4 F101      		movw r30,r2
 11939 44c6 8BE0      		ldi r24,lo8(11)
 11940 44c8 90E0      		ldi r25,hi8(11)
 11941               	.LVL1029:
 11942               	.LBE605:
 11943               	.LBE604:
 11944               	.LBB606:
 11945               	.LBB607:
 11946 44ca 20E2      		ldi r18,lo8(32)
 11947 44cc 00C0      		rjmp .L715
 11948               	.L716:
 11949 44ce 2193      		st Z+,r18
 11950               	.L715:
 11951 44d0 0197      		sbiw r24,1
 11952 44d2 3FEF      		ldi r19,hi8(-1)
 11953 44d4 8F3F      		cpi r24,lo8(-1)
 11954 44d6 9307      		cpc r25,r19
 11955 44d8 01F4      		brne .L716
 11956               	.LBE607:
 11957               	.LBE606:
 11958               	.LM1129:
 11959 44da 8EE2      		ldi r24,lo8(46)
 11960               	.LVL1030:
 11961 44dc F801      		movw r30,r16
 11962               	.LVL1031:
 11963 44de 86A7      		std Z+46,r24
 11964               	.LM1130:
 11965 44e0 80E1      		ldi r24,lo8(16)
 11966 44e2 81AF      		std Z+57,r24
 11967               	.LM1131:
 11968 44e4 0E94 0000 		call get_fattime
 11969               	.LM1132:
 11970 44e8 6CA7      		std Y+44,r22
 11971               	.LVL1032:
 11972 44ea 0C5B      		subi r16,lo8(-(68))
 11973 44ec 1F4F      		sbci r17,hi8(-(68))
 11974 44ee F801      		movw r30,r16
 11975 44f0 6193      		st Z+,r22
 11976 44f2 272F      		mov r18,r23
 11977 44f4 3327      		clr r19
 11978 44f6 2BA7      		std Y+43,r18
 11979 44f8 2193      		st Z+,r18
 11980 44fa 9C01      		movw r18,r24
 11981 44fc 4427      		clr r20
 11982 44fe 5527      		clr r21
 11983 4500 2AA7      		std Y+42,r18
 11984 4502 2193      		st Z+,r18
 11985 4504 692F      		mov r22,r25
 11986 4506 7727      		clr r23
 11987 4508 8827      		clr r24
 11988 450a 9927      		clr r25
 11989               	.LVL1033:
 11990 450c 69A7      		std Y+41,r22
 11991 450e 6193      		st Z+,r22
 11992               	.LM1133:
 11993 4510 88A6      		std Y+40,r8
 11994 4512 8192      		st Z+,r8
 11995 4514 8F01      		movw r16,r30
 11996 4516 892D      		mov r24,r9
 11997 4518 9927      		clr r25
 11998 451a 8FA3      		std Y+39,r24
 11999 451c 8083      		st Z,r24
 12000               	.LM1134:
 12001 451e C501      		movw r24,r10
 12002 4520 AA27      		clr r26
 12003 4522 BB27      		clr r27
 12004 4524 8EA3      		std Y+38,r24
 12005 4526 0750      		subi r16,lo8(-(-7))
 12006 4528 1040      		sbci r17,hi8(-(-7))
 12007 452a F801      		movw r30,r16
 12008 452c 8193      		st Z+,r24
 12009 452e 8F01      		movw r16,r30
 12010 4530 892F      		mov r24,r25
 12011 4532 9927      		clr r25
 12012 4534 8DA3      		std Y+37,r24
 12013 4536 8083      		st Z,r24
 12014 4538 0354      		subi r16,lo8(-(-67))
 12015 453a 1040      		sbci r17,hi8(-(-67))
 12016 453c F101      		movw r30,r2
 12017               	.LVL1034:
 12018 453e 20E2      		ldi r18,lo8(32)
 12019 4540 30E0      		ldi r19,hi8(32)
 12020               	.LVL1035:
 12021 4542 00C0      		rjmp .L717
 12022               	.L718:
 12023               	.LBB608:
 12024               	.LBB609:
 12025               	.LM1135:
 12026 4544 8081      		ld r24,Z
 12027 4546 80A3      		std Z+32,r24
 12028 4548 3196      		adiw r30,1
 12029               	.L717:
 12030 454a 2150      		subi r18,lo8(-(-1))
 12031 454c 3040      		sbci r19,hi8(-(-1))
 12032 454e 8FEF      		ldi r24,hi8(-1)
 12033 4550 2F3F      		cpi r18,lo8(-1)
 12034 4552 3807      		cpc r19,r24
 12035 4554 01F4      		brne .L718
 12036               	.LBE609:
 12037               	.LBE608:
 12038               	.LM1136:
 12039 4556 015B      		subi r16,lo8(-(79))
 12040 4558 1F4F      		sbci r17,hi8(-(79))
 12041 455a 8EE2      		ldi r24,lo8(46)
 12042 455c F801      		movw r30,r16
 12043               	.LVL1036:
 12044 455e 8083      		st Z,r24
 12045 4560 0F54      		subi r16,lo8(-(-79))
 12046 4562 1040      		sbci r17,hi8(-(-79))
 12047               	.LM1137:
 12048 4564 2B89      		ldd r18,Y+19
 12049 4566 3C89      		ldd r19,Y+20
 12050 4568 4D89      		ldd r20,Y+21
 12051 456a 5E89      		ldd r21,Y+22
 12052               	.LVL1037:
 12053               	.LM1138:
 12054 456c ED85      		ldd r30,Y+13
 12055 456e FE85      		ldd r31,Y+14
 12056 4570 8081      		ld r24,Z
 12057 4572 8330      		cpi r24,lo8(3)
 12058 4574 01F4      		brne .L719
 12059 4576 82A1      		ldd r24,Z+34
 12060 4578 93A1      		ldd r25,Z+35
 12061 457a A4A1      		ldd r26,Z+36
 12062 457c B5A1      		ldd r27,Z+37
 12063 457e 2817      		cp r18,r24
 12064 4580 3907      		cpc r19,r25
 12065 4582 4A07      		cpc r20,r26
 12066 4584 5B07      		cpc r21,r27
 12067 4586 01F4      		brne .L719
 12068 4588 20E0      		ldi r18,lo8(0)
 12069 458a 30E0      		ldi r19,hi8(0)
 12070 458c 40E0      		ldi r20,hlo8(0)
 12071 458e 50E0      		ldi r21,hhi8(0)
 12072               	.L719:
 12073               	.LM1139:
 12074 4590 0859      		subi r16,lo8(-(104))
 12075 4592 1F4F      		sbci r17,hi8(-(104))
 12076 4594 F801      		movw r30,r16
 12077 4596 2193      		st Z+,r18
 12078 4598 8F01      		movw r16,r30
 12079 459a 832F      		mov r24,r19
 12080 459c 9927      		clr r25
 12081 459e 8083      		st Z,r24
 12082               	.LM1140:
 12083 45a0 CA01      		movw r24,r20
 12084 45a2 AA27      		clr r26
 12085 45a4 BB27      		clr r27
 12086 45a6 0750      		subi r16,lo8(-(-7))
 12087 45a8 1040      		sbci r17,hi8(-(-7))
 12088 45aa F801      		movw r30,r16
 12089 45ac 8193      		st Z+,r24
 12090 45ae 892F      		mov r24,r25
 12091 45b0 9927      		clr r25
 12092 45b2 8083      		st Z,r24
 12093 45b4 7301      		movw r14,r6
 12094 45b6 6201      		movw r12,r4
 12095               	.LVL1038:
 12096               	.LM1141:
 12097 45b8 01E0      		ldi r16,lo8(1)
 12098 45ba 00C0      		rjmp .L720
 12099               	.LVL1039:
 12100               	.L723:
 12101               	.LM1142:
 12102 45bc C2A6      		std Z+42,r12
 12103 45be D3A6      		std Z+43,r13
 12104 45c0 E4A6      		std Z+44,r14
 12105 45c2 F5A6      		std Z+45,r15
 12106               	.LM1143:
 12107 45c4 0483      		std Z+4,r16
 12108               	.LM1144:
 12109 45c6 CF01      		movw r24,r30
 12110 45c8 40E0      		ldi r20,lo8(0)
 12111 45ca 50E0      		ldi r21,hi8(0)
 12112 45cc 60E0      		ldi r22,hlo8(0)
 12113 45ce 70E0      		ldi r23,hhi8(0)
 12114 45d0 0E94 0000 		call move_window
 12115               	.LVL1040:
 12116 45d4 182F      		mov r17,r24
 12117               	.LM1145:
 12118 45d6 8823      		tst r24
 12119 45d8 01F0      		breq .+2
 12120 45da 00C0      		rjmp .L706
 12121               	.LVL1041:
 12122 45dc F101      		movw r30,r2
 12123 45de 80E0      		ldi r24,lo8(512)
 12124 45e0 92E0      		ldi r25,hi8(512)
 12125               	.LVL1042:
 12126 45e2 00C0      		rjmp .L721
 12127               	.LVL1043:
 12128               	.L722:
 12129               	.LBB610:
 12130               	.LBB611:
 12131               	.LM1146:
 12132 45e4 1192      		st Z+,__zero_reg__
 12133               	.L721:
 12134 45e6 0197      		sbiw r24,1
 12135 45e8 2FEF      		ldi r18,hi8(-1)
 12136 45ea 8F3F      		cpi r24,lo8(-1)
 12137 45ec 9207      		cpc r25,r18
 12138 45ee 01F4      		brne .L722
 12139               	.LBE611:
 12140               	.LBE610:
 12141               	.LM1147:
 12142 45f0 0894      		sec
 12143 45f2 C11C      		adc r12,__zero_reg__
 12144 45f4 D11C      		adc r13,__zero_reg__
 12145 45f6 E11C      		adc r14,__zero_reg__
 12146 45f8 F11C      		adc r15,__zero_reg__
 12147               	.LVL1044:
 12148               	.L720:
 12149               	.LM1148:
 12150 45fa ED85      		ldd r30,Y+13
 12151 45fc FE85      		ldd r31,Y+14
 12152 45fe 9C2D      		mov r25,r12
 12153               	.LVL1045:
 12154 4600 9419      		sub r25,r4
 12155 4602 8281      		ldd r24,Z+2
 12156               	.LVL1046:
 12157 4604 9817      		cp r25,r24
 12158 4606 00F0      		brlo .L723
 12159               	.LM1149:
 12160 4608 CE01      		movw r24,r28
 12161 460a 0D96      		adiw r24,13
 12162 460c 0E94 0000 		call dir_register
 12163               	.LVL1047:
 12164 4610 182F      		mov r17,r24
 12165               	.LM1150:
 12166 4612 8823      		tst r24
 12167 4614 01F0      		breq .L724
 12168               	.LVL1048:
 12169               	.LM1151:
 12170 4616 8D85      		ldd r24,Y+13
 12171 4618 9E85      		ldd r25,Y+14
 12172               	.LVL1049:
 12173 461a B501      		movw r22,r10
 12174 461c A401      		movw r20,r8
 12175 461e 0E94 0000 		call remove_chain
 12176 4622 00C0      		rjmp .L706
 12177               	.LVL1050:
 12178               	.L724:
 12179               	.LM1152:
 12180 4624 EF8D      		ldd r30,Y+31
 12181 4626 F8A1      		ldd r31,Y+32
 12182               	.LVL1051:
 12183               	.LM1153:
 12184 4628 80E1      		ldi r24,lo8(16)
 12185               	.LVL1052:
 12186 462a 8387      		std Z+11,r24
 12187               	.LM1154:
 12188 462c 3CA5      		ldd r19,Y+44
 12189 462e 368B      		std Z+22,r19
 12190 4630 8BA5      		ldd r24,Y+43
 12191 4632 878B      		std Z+23,r24
 12192 4634 2AA5      		ldd r18,Y+42
 12193 4636 208F      		std Z+24,r18
 12194 4638 39A5      		ldd r19,Y+41
 12195 463a 318F      		std Z+25,r19
 12196               	.LM1155:
 12197 463c 88A5      		ldd r24,Y+40
 12198 463e 828F      		std Z+26,r24
 12199 4640 2FA1      		ldd r18,Y+39
 12200 4642 238F      		std Z+27,r18
 12201               	.LM1156:
 12202 4644 3EA1      		ldd r19,Y+38
 12203 4646 348B      		std Z+20,r19
 12204 4648 8DA1      		ldd r24,Y+37
 12205 464a 858B      		std Z+21,r24
 12206               	.LM1157:
 12207 464c ED85      		ldd r30,Y+13
 12208 464e FE85      		ldd r31,Y+14
 12209               	.LVL1053:
 12210 4650 81E0      		ldi r24,lo8(1)
 12211 4652 8483      		std Z+4,r24
 12212               	.LM1158:
 12213 4654 CF01      		movw r24,r30
 12214 4656 0E94 0000 		call sync
 12215 465a 182F      		mov r17,r24
 12216               	.LVL1054:
 12217               	.L706:
 12218               	.LM1159:
 12219 465c 812F      		mov r24,r17
 12220               	/* epilogue start */
 12221 465e AC96      		adiw r28,44
 12222 4660 CDBF      		out __SP_L__,r28
 12223 4662 DEBF      		out __SP_H__,r29
 12224 4664 CF91      		pop r28
 12225 4666 DF91      		pop r29
 12226 4668 1F91      		pop r17
 12227               	.LVL1055:
 12228 466a 0F91      		pop r16
 12229 466c FF90      		pop r15
 12230 466e EF90      		pop r14
 12231 4670 DF90      		pop r13
 12232 4672 CF90      		pop r12
 12233 4674 BF90      		pop r11
 12234 4676 AF90      		pop r10
 12235 4678 9F90      		pop r9
 12236 467a 8F90      		pop r8
 12237               	.LVL1056:
 12238 467c 7F90      		pop r7
 12239 467e 6F90      		pop r6
 12240 4680 5F90      		pop r5
 12241 4682 4F90      		pop r4
 12242               	.LVL1057:
 12243 4684 3F90      		pop r3
 12244 4686 2F90      		pop r2
 12245               	.LVL1058:
 12246 4688 0895      		ret
 12247               	.LVL1059:
 12248               	.L710:
 12249               	.LM1160:
 12250 468a 11E0      		ldi r17,lo8(1)
 12251 468c 00C0      		rjmp .L706
 12252               	.LFE78:
 12254               	.global	f_chmod
 12256               	f_chmod:
 12257               	.LFB79:
 12258               	.LM1161:
 12259               	.LVL1060:
 12260 468e EF92      		push r14
 12261 4690 FF92      		push r15
 12262 4692 0F93      		push r16
 12263 4694 1F93      		push r17
 12264 4696 DF93      		push r29
 12265 4698 CF93      		push r28
 12266 469a CDB7      		in r28,__SP_L__
 12267 469c DEB7      		in r29,__SP_H__
 12268 469e A497      		sbiw r28,36
 12269 46a0 CDBF      		out __SP_L__,r28
 12270 46a2 DEBF      		out __SP_H__,r29
 12271               	/* prologue: function */
 12272               	/* frame size = 36 */
 12273 46a4 8BA3      		std Y+35,r24
 12274 46a6 9CA3      		std Y+36,r25
 12275 46a8 E62E      		mov r14,r22
 12276 46aa F42E      		mov r15,r20
 12277               	.LM1162:
 12278 46ac 8E01      		movw r16,r28
 12279 46ae 035F      		subi r16,lo8(-(13))
 12280 46b0 1F4F      		sbci r17,hi8(-(13))
 12281 46b2 CE01      		movw r24,r28
 12282               	.LVL1061:
 12283 46b4 8396      		adiw r24,35
 12284 46b6 B801      		movw r22,r16
 12285               	.LVL1062:
 12286 46b8 41E0      		ldi r20,lo8(1)
 12287               	.LVL1063:
 12288 46ba 0E94 0000 		call chk_mounted
 12289               	.LM1163:
 12290 46be 8823      		tst r24
 12291               	.LVL1064:
 12292 46c0 01F4      		brne .L727
 12293               	.LM1164:
 12294 46c2 CE01      		movw r24,r28
 12295               	.LVL1065:
 12296 46c4 0196      		adiw r24,1
 12297 46c6 89A3      		std Y+33,r24
 12298 46c8 9AA3      		std Y+34,r25
 12299               	.LM1165:
 12300 46ca 6BA1      		ldd r22,Y+35
 12301 46cc 7CA1      		ldd r23,Y+36
 12302 46ce C801      		movw r24,r16
 12303 46d0 0E94 0000 		call follow_path
 12304               	.LM1166:
 12305 46d4 8823      		tst r24
 12306               	.LVL1066:
 12307 46d6 01F4      		brne .L727
 12308               	.LM1167:
 12309 46d8 EF8D      		ldd r30,Y+31
 12310 46da F8A1      		ldd r31,Y+32
 12311               	.LVL1067:
 12312               	.LM1168:
 12313 46dc 3097      		sbiw r30,0
 12314 46de 01F4      		brne .L728
 12315 46e0 86E0      		ldi r24,lo8(6)
 12316 46e2 00C0      		rjmp .L727
 12317               	.L728:
 12318               	.LM1169:
 12319 46e4 9F2D      		mov r25,r15
 12320 46e6 9772      		andi r25,lo8(39)
 12321               	.LVL1068:
 12322               	.LM1170:
 12323 46e8 892F      		mov r24,r25
 12324               	.LVL1069:
 12325 46ea 8095      		com r24
 12326 46ec 2385      		ldd r18,Z+11
 12327 46ee 8223      		and r24,r18
 12328 46f0 9E21      		and r25,r14
 12329 46f2 892B      		or r24,r25
 12330 46f4 8387      		std Z+11,r24
 12331               	.LM1171:
 12332 46f6 ED85      		ldd r30,Y+13
 12333 46f8 FE85      		ldd r31,Y+14
 12334               	.LVL1070:
 12335 46fa 81E0      		ldi r24,lo8(1)
 12336 46fc 8483      		std Z+4,r24
 12337               	.LM1172:
 12338 46fe CF01      		movw r24,r30
 12339 4700 0E94 0000 		call sync
 12340               	.LVL1071:
 12341               	.L727:
 12342               	.LVL1072:
 12343               	/* epilogue start */
 12344               	.LM1173:
 12345 4704 A496      		adiw r28,36
 12346 4706 CDBF      		out __SP_L__,r28
 12347 4708 DEBF      		out __SP_H__,r29
 12348 470a CF91      		pop r28
 12349 470c DF91      		pop r29
 12350 470e 1F91      		pop r17
 12351 4710 0F91      		pop r16
 12352 4712 FF90      		pop r15
 12353               	.LVL1073:
 12354 4714 EF90      		pop r14
 12355               	.LVL1074:
 12356 4716 0895      		ret
 12357               	.LFE79:
 12359               	.global	f_utime
 12361               	f_utime:
 12362               	.LFB80:
 12363               	.LM1174:
 12364               	.LVL1075:
 12365 4718 EF92      		push r14
 12366 471a FF92      		push r15
 12367 471c 0F93      		push r16
 12368 471e 1F93      		push r17
 12369 4720 DF93      		push r29
 12370 4722 CF93      		push r28
 12371 4724 CDB7      		in r28,__SP_L__
 12372 4726 DEB7      		in r29,__SP_H__
 12373 4728 A497      		sbiw r28,36
 12374 472a CDBF      		out __SP_L__,r28
 12375 472c DEBF      		out __SP_H__,r29
 12376               	/* prologue: function */
 12377               	/* frame size = 36 */
 12378 472e 8BA3      		std Y+35,r24
 12379 4730 9CA3      		std Y+36,r25
 12380 4732 8B01      		movw r16,r22
 12381               	.LM1175:
 12382 4734 EDE0      		ldi r30,lo8(13)
 12383 4736 EE2E      		mov r14,r30
 12384 4738 F12C      		mov r15,__zero_reg__
 12385 473a EC0E      		add r14,r28
 12386 473c FD1E      		adc r15,r29
 12387 473e CE01      		movw r24,r28
 12388               	.LVL1076:
 12389 4740 8396      		adiw r24,35
 12390 4742 B701      		movw r22,r14
 12391               	.LVL1077:
 12392 4744 41E0      		ldi r20,lo8(1)
 12393 4746 0E94 0000 		call chk_mounted
 12394               	.LM1176:
 12395 474a 8823      		tst r24
 12396               	.LVL1078:
 12397 474c 01F4      		brne .L731
 12398               	.LM1177:
 12399 474e CE01      		movw r24,r28
 12400               	.LVL1079:
 12401 4750 0196      		adiw r24,1
 12402 4752 89A3      		std Y+33,r24
 12403 4754 9AA3      		std Y+34,r25
 12404               	.LM1178:
 12405 4756 6BA1      		ldd r22,Y+35
 12406 4758 7CA1      		ldd r23,Y+36
 12407 475a C701      		movw r24,r14
 12408 475c 0E94 0000 		call follow_path
 12409               	.LM1179:
 12410 4760 8823      		tst r24
 12411               	.LVL1080:
 12412 4762 01F4      		brne .L731
 12413               	.LM1180:
 12414 4764 EF8D      		ldd r30,Y+31
 12415 4766 F8A1      		ldd r31,Y+32
 12416               	.LVL1081:
 12417               	.LM1181:
 12418 4768 3097      		sbiw r30,0
 12419 476a 01F4      		brne .L732
 12420 476c 86E0      		ldi r24,lo8(6)
 12421 476e 00C0      		rjmp .L731
 12422               	.L732:
 12423               	.LM1182:
 12424 4770 D801      		movw r26,r16
 12425 4772 1696      		adiw r26,6
 12426 4774 8C91      		ld r24,X
 12427 4776 1697      		sbiw r26,6
 12428               	.LVL1082:
 12429 4778 868B      		std Z+22,r24
 12430 477a 1796      		adiw r26,7
 12431 477c 8C91      		ld r24,X
 12432 477e 1797      		sbiw r26,7
 12433 4780 878B      		std Z+23,r24
 12434               	.LM1183:
 12435 4782 1496      		adiw r26,4
 12436 4784 8C91      		ld r24,X
 12437 4786 1497      		sbiw r26,4
 12438 4788 808F      		std Z+24,r24
 12439 478a 1596      		adiw r26,5
 12440 478c 8C91      		ld r24,X
 12441 478e 818F      		std Z+25,r24
 12442               	.LM1184:
 12443 4790 ED85      		ldd r30,Y+13
 12444 4792 FE85      		ldd r31,Y+14
 12445               	.LVL1083:
 12446 4794 81E0      		ldi r24,lo8(1)
 12447 4796 8483      		std Z+4,r24
 12448               	.LM1185:
 12449 4798 CF01      		movw r24,r30
 12450 479a 0E94 0000 		call sync
 12451               	.LVL1084:
 12452               	.L731:
 12453               	.LVL1085:
 12454               	/* epilogue start */
 12455               	.LM1186:
 12456 479e A496      		adiw r28,36
 12457 47a0 CDBF      		out __SP_L__,r28
 12458 47a2 DEBF      		out __SP_H__,r29
 12459 47a4 CF91      		pop r28
 12460 47a6 DF91      		pop r29
 12461 47a8 1F91      		pop r17
 12462 47aa 0F91      		pop r16
 12463               	.LVL1086:
 12464 47ac FF90      		pop r15
 12465 47ae EF90      		pop r14
 12466 47b0 0895      		ret
 12467               	.LFE80:
 12469               	.global	f_rename
 12471               	f_rename:
 12472               	.LFB81:
 12473               	.LM1187:
 12474               	.LVL1087:
 12475 47b2 CF92      		push r12
 12476 47b4 DF92      		push r13
 12477 47b6 EF92      		push r14
 12478 47b8 FF92      		push r15
 12479 47ba 0F93      		push r16
 12480 47bc 1F93      		push r17
 12481 47be DF93      		push r29
 12482 47c0 CF93      		push r28
 12483 47c2 CDB7      		in r28,__SP_L__
 12484 47c4 DEB7      		in r29,__SP_H__
 12485 47c6 CF54      		subi r28,lo8(-(-79))
 12486 47c8 D040      		sbci r29,hi8(-(-79))
 12487 47ca CDBF      		out __SP_L__,r28
 12488 47cc DEBF      		out __SP_H__,r29
 12489               	/* prologue: function */
 12490               	/* frame size = 79 */
 12491 47ce 8E01      		movw r16,r28
 12492 47d0 025B      		subi r16,lo8(-(78))
 12493 47d2 1F4F      		sbci r17,hi8(-(78))
 12494 47d4 D801      		movw r26,r16
 12495 47d6 8D93      		st X+,r24
 12496 47d8 9C93      		st X,r25
 12497 47da 6B01      		movw r12,r22
 12498               	.LM1188:
 12499 47dc CE01      		movw r24,r28
 12500               	.LVL1088:
 12501 47de 0196      		adiw r24,1
 12502 47e0 8EAB      		std Y+54,r24
 12503 47e2 9FAB      		std Y+55,r25
 12504               	.LM1189:
 12505 47e4 82E2      		ldi r24,lo8(34)
 12506 47e6 E82E      		mov r14,r24
 12507 47e8 F12C      		mov r15,__zero_reg__
 12508 47ea EC0E      		add r14,r28
 12509 47ec FD1E      		adc r15,r29
 12510 47ee C801      		movw r24,r16
 12511 47f0 B701      		movw r22,r14
 12512               	.LVL1089:
 12513 47f2 41E0      		ldi r20,lo8(1)
 12514 47f4 0E94 0000 		call chk_mounted
 12515               	.LM1190:
 12516 47f8 8823      		tst r24
 12517               	.LVL1090:
 12518 47fa 01F0      		breq .+2
 12519 47fc 00C0      		rjmp .L735
 12520               	.LM1191:
 12521 47fe 8AA1      		ldd r24,Y+34
 12522 4800 9BA1      		ldd r25,Y+35
 12523               	.LVL1091:
 12524 4802 88AF      		std Y+56,r24
 12525 4804 99AF      		std Y+57,r25
 12526               	.LM1192:
 12527 4806 F801      		movw r30,r16
 12528 4808 6081      		ld r22,Z
 12529 480a 7181      		ldd r23,Z+1
 12530 480c C701      		movw r24,r14
 12531 480e 0E94 0000 		call follow_path
 12532               	.LM1193:
 12533 4812 8823      		tst r24
 12534               	.LVL1092:
 12535 4814 01F0      		breq .+2
 12536 4816 00C0      		rjmp .L735
 12537               	.LVL1093:
 12538               	.LM1194:
 12539 4818 8CA9      		ldd r24,Y+52
 12540 481a 9DA9      		ldd r25,Y+53
 12541               	.LVL1094:
 12542 481c 0097      		sbiw r24,0
 12543 481e 01F4      		brne .L736
 12544 4820 84E0      		ldi r24,lo8(4)
 12545               	.LVL1095:
 12546 4822 00C0      		rjmp .L735
 12547               	.LVL1096:
 12548               	.L736:
 12549 4824 DC01      		movw r26,r24
 12550 4826 FE01      		movw r30,r28
 12551               	.LVL1097:
 12552 4828 3D96      		adiw r30,13
 12553 482a 00C0      		rjmp .L737
 12554               	.L738:
 12555               	.LBB612:
 12556               	.LBB613:
 12557               	.LM1195:
 12558 482c 1A96      		adiw r26,10
 12559 482e 8C91      		ld r24,X
 12560 4830 1A97      		sbiw r26,10
 12561 4832 8193      		st Z+,r24
 12562               	.L737:
 12563 4834 1196      		adiw r26,1
 12564 4836 EE15      		cp r30,r14
 12565 4838 FF05      		cpc r31,r15
 12566 483a 01F4      		brne .L738
 12567               	.LBE613:
 12568               	.LBE612:
 12569               	.LBB614:
 12570               	.LBB615:
 12571               	.LM1196:
 12572 483c DE01      		movw r26,r28
 12573               	.LVL1098:
 12574 483e D896      		adiw r26,56
 12575               	.LM1197:
 12576 4840 F701      		movw r30,r14
 12577               	.LVL1099:
 12578               	.LM1198:
 12579 4842 9D01      		movw r18,r26
 12580 4844 00C0      		rjmp .L739
 12581               	.L740:
 12582 4846 8191      		ld r24,Z+
 12583 4848 8D93      		st X+,r24
 12584               	.L739:
 12585 484a E217      		cp r30,r18
 12586 484c F307      		cpc r31,r19
 12587 484e 01F4      		brne .L740
 12588               	.LBE615:
 12589               	.LBE614:
 12590               	.LM1199:
 12591 4850 8E01      		movw r16,r28
 12592 4852 085C      		subi r16,lo8(-(56))
 12593 4854 1F4F      		sbci r17,hi8(-(56))
 12594 4856 C801      		movw r24,r16
 12595 4858 B601      		movw r22,r12
 12596 485a 0E94 0000 		call follow_path
 12597               	.LVL1100:
 12598               	.LM1200:
 12599 485e 8823      		tst r24
 12600               	.LVL1101:
 12601 4860 01F4      		brne .L741
 12602 4862 88E0      		ldi r24,lo8(8)
 12603 4864 00C0      		rjmp .L735
 12604               	.L741:
 12605               	.LM1201:
 12606 4866 8430      		cpi r24,lo8(4)
 12607 4868 01F0      		breq .+2
 12608 486a 00C0      		rjmp .L735
 12609               	.LM1202:
 12610 486c C801      		movw r24,r16
 12611               	.LVL1102:
 12612 486e 0E94 0000 		call dir_register
 12613               	.LM1203:
 12614 4872 8823      		tst r24
 12615               	.LVL1103:
 12616 4874 01F0      		breq .+2
 12617 4876 00C0      		rjmp .L735
 12618               	.LM1204:
 12619 4878 FE01      		movw r30,r28
 12620 487a E65B      		subi r30,lo8(-(74))
 12621 487c FF4F      		sbci r31,hi8(-(74))
 12622 487e 4081      		ld r20,Z
 12623 4880 5181      		ldd r21,Z+1
 12624               	.LVL1104:
 12625 4882 DA01      		movw r26,r20
 12626 4884 FE01      		movw r30,r28
 12627               	.LVL1105:
 12628 4886 3F96      		adiw r30,15
 12629 4888 00C0      		rjmp .L742
 12630               	.L743:
 12631               	.LBB616:
 12632               	.LBB617:
 12633               	.LM1205:
 12634 488a 8191      		ld r24,Z+
 12635               	.LVL1106:
 12636 488c 1C96      		adiw r26,12
 12637 488e 8C93      		st X,r24
 12638 4890 1C97      		sbiw r26,12
 12639               	.LVL1107:
 12640               	.L742:
 12641 4892 1196      		adiw r26,1
 12642 4894 EE15      		cp r30,r14
 12643 4896 FF05      		cpc r31,r15
 12644 4898 01F4      		brne .L743
 12645               	.LBE617:
 12646               	.LBE616:
 12647               	.LM1206:
 12648 489a 8D85      		ldd r24,Y+13
 12649               	.LVL1108:
 12650 489c 8062      		ori r24,lo8(32)
 12651 489e DA01      		movw r26,r20
 12652 48a0 1B96      		adiw r26,11
 12653 48a2 8C93      		st X,r24
 12654 48a4 1B97      		sbiw r26,11
 12655               	.LM1207:
 12656 48a6 EAA1      		ldd r30,Y+34
 12657 48a8 FBA1      		ldd r31,Y+35
 12658               	.LVL1109:
 12659 48aa 81E0      		ldi r24,lo8(1)
 12660 48ac 8483      		std Z+4,r24
 12661               	.LM1208:
 12662 48ae 1B96      		adiw r26,11
 12663 48b0 8C91      		ld r24,X
 12664 48b2 1B97      		sbiw r26,11
 12665 48b4 84FF      		sbrs r24,4
 12666 48b6 00C0      		rjmp .L744
 12667               	.LM1209:
 12668 48b8 C8AC      		ldd r12,Y+56
 12669 48ba D9AC      		ldd r13,Y+57
 12670               	.LVL1110:
 12671               	.LBB618:
 12672               	.LBB619:
 12673               	.LM1210:
 12674 48bc 5A96      		adiw r26,26
 12675 48be 2C91      		ld r18,X
 12676 48c0 5A97      		sbiw r26,26
 12677 48c2 30E0      		ldi r19,lo8(0)
 12678 48c4 5496      		adiw r26,20
 12679 48c6 8C91      		ld r24,X
 12680 48c8 5497      		sbiw r26,20
 12681 48ca 90E0      		ldi r25,lo8(0)
 12682 48cc 282B      		or r18,r24
 12683 48ce 392B      		or r19,r25
 12684 48d0 5596      		adiw r26,21
 12685 48d2 9C91      		ld r25,X
 12686 48d4 5597      		sbiw r26,21
 12687 48d6 80E0      		ldi r24,lo8(0)
 12688 48d8 282B      		or r18,r24
 12689 48da 392B      		or r19,r25
 12690 48dc 5B96      		adiw r26,27
 12691 48de 9C91      		ld r25,X
 12692 48e0 80E0      		ldi r24,lo8(0)
 12693 48e2 282B      		or r18,r24
 12694 48e4 392B      		or r19,r25
 12695 48e6 7901      		movw r14,r18
 12696               	.LVL1111:
 12697 48e8 00E0      		ldi r16,lo8(0)
 12698 48ea 10E0      		ldi r17,hi8(0)
 12699               	.LVL1112:
 12700 48ec 8EEF      		ldi r24,lo8(-2)
 12701 48ee 9FEF      		ldi r25,hi8(-2)
 12702 48f0 AFEF      		ldi r26,hlo8(-2)
 12703 48f2 BFEF      		ldi r27,hhi8(-2)
 12704 48f4 E80E      		add r14,r24
 12705 48f6 F91E      		adc r15,r25
 12706 48f8 0A1F      		adc r16,r26
 12707 48fa 1B1F      		adc r17,r27
 12708               	.LVL1113:
 12709               	.LM1211:
 12710 48fc F601      		movw r30,r12
 12711 48fe 828D      		ldd r24,Z+26
 12712 4900 938D      		ldd r25,Z+27
 12713 4902 A48D      		ldd r26,Z+28
 12714 4904 B58D      		ldd r27,Z+29
 12715 4906 0297      		sbiw r24,2
 12716 4908 A109      		sbc r26,__zero_reg__
 12717 490a B109      		sbc r27,__zero_reg__
 12718 490c E816      		cp r14,r24
 12719 490e F906      		cpc r15,r25
 12720 4910 0A07      		cpc r16,r26
 12721 4912 1B07      		cpc r17,r27
 12722 4914 00F0      		brlo .+2
 12723 4916 00C0      		rjmp .L745
 12724               	.LM1212:
 12725 4918 2281      		ldd r18,Z+2
 12726 491a 30E0      		ldi r19,lo8(0)
 12727 491c 40E0      		ldi r20,lo8(0)
 12728 491e 50E0      		ldi r21,hi8(0)
 12729               	.LVL1114:
 12730 4920 C801      		movw r24,r16
 12731 4922 B701      		movw r22,r14
 12732 4924 0E94 0000 		call __mulsi3
 12733 4928 AB01      		movw r20,r22
 12734 492a BC01      		movw r22,r24
 12735               	.LVL1115:
 12736 492c F601      		movw r30,r12
 12737 492e 86A1      		ldd r24,Z+38
 12738 4930 97A1      		ldd r25,Z+39
 12739 4932 A0A5      		ldd r26,Z+40
 12740 4934 B1A5      		ldd r27,Z+41
 12741 4936 480F      		add r20,r24
 12742 4938 591F      		adc r21,r25
 12743 493a 6A1F      		adc r22,r26
 12744 493c 7B1F      		adc r23,r27
 12745               	.LBE619:
 12746               	.LBE618:
 12747               	.LM1213:
 12748 493e 4115      		cp r20,__zero_reg__
 12749 4940 5105      		cpc r21,__zero_reg__
 12750 4942 6105      		cpc r22,__zero_reg__
 12751 4944 7105      		cpc r23,__zero_reg__
 12752 4946 01F4      		brne .+2
 12753 4948 00C0      		rjmp .L745
 12754               	.LM1214:
 12755 494a C601      		movw r24,r12
 12756 494c 0E94 0000 		call move_window
 12757               	.LVL1116:
 12758               	.LM1215:
 12759 4950 A8AD      		ldd r26,Y+56
 12760 4952 B9AD      		ldd r27,Y+57
 12761               	.LM1216:
 12762 4954 8823      		tst r24
 12763               	.LVL1117:
 12764 4956 01F0      		breq .+2
 12765 4958 00C0      		rjmp .L735
 12766               	.LM1217:
 12767 495a BD01      		movw r22,r26
 12768               	.LVL1118:
 12769 495c 625B      		subi r22,lo8(-(78))
 12770 495e 7F4F      		sbci r23,hi8(-(78))
 12771               	.LM1218:
 12772 4960 FB01      		movw r30,r22
 12773 4962 8181      		ldd r24,Z+1
 12774               	.LVL1119:
 12775 4964 8E32      		cpi r24,lo8(46)
 12776 4966 01F4      		brne .L744
 12777               	.LM1219:
 12778 4968 8C91      		ld r24,X
 12779 496a 8330      		cpi r24,lo8(3)
 12780 496c 01F4      		brne .L746
 12781 496e FE01      		movw r30,r28
 12782 4970 FE96      		adiw r30,62
 12783 4972 2081      		ld r18,Z
 12784 4974 3181      		ldd r19,Z+1
 12785 4976 4281      		ldd r20,Z+2
 12786 4978 5381      		ldd r21,Z+3
 12787 497a 9296      		adiw r26,34
 12788 497c 8D91      		ld r24,X+
 12789 497e 9D91      		ld r25,X+
 12790 4980 0D90      		ld __tmp_reg__,X+
 12791 4982 BC91      		ld r27,X
 12792 4984 A02D      		mov r26,__tmp_reg__
 12793 4986 2817      		cp r18,r24
 12794 4988 3907      		cpc r19,r25
 12795 498a 4A07      		cpc r20,r26
 12796 498c 5B07      		cpc r21,r27
 12797 498e 01F4      		brne .L746
 12798 4990 20E0      		ldi r18,lo8(0)
 12799 4992 30E0      		ldi r19,hi8(0)
 12800 4994 40E0      		ldi r20,hlo8(0)
 12801 4996 50E0      		ldi r21,hhi8(0)
 12802               	.LVL1120:
 12803 4998 00C0      		rjmp .L747
 12804               	.LVL1121:
 12805               	.L746:
 12806 499a FE01      		movw r30,r28
 12807 499c FE96      		adiw r30,62
 12808 499e 2081      		ld r18,Z
 12809 49a0 3181      		ldd r19,Z+1
 12810 49a2 4281      		ldd r20,Z+2
 12811 49a4 5381      		ldd r21,Z+3
 12812               	.LVL1122:
 12813               	.L747:
 12814               	.LM1220:
 12815 49a6 DB01      		movw r26,r22
 12816 49a8 5A96      		adiw r26,26
 12817 49aa 2C93      		st X,r18
 12818 49ac 5A97      		sbiw r26,26
 12819 49ae 832F      		mov r24,r19
 12820 49b0 9927      		clr r25
 12821 49b2 5B96      		adiw r26,27
 12822 49b4 8C93      		st X,r24
 12823               	.LM1221:
 12824 49b6 CA01      		movw r24,r20
 12825 49b8 AA27      		clr r26
 12826 49ba BB27      		clr r27
 12827 49bc FB01      		movw r30,r22
 12828 49be 848B      		std Z+20,r24
 12829 49c0 892F      		mov r24,r25
 12830 49c2 9927      		clr r25
 12831 49c4 858B      		std Z+21,r24
 12832               	.LM1222:
 12833 49c6 E8AD      		ldd r30,Y+56
 12834 49c8 F9AD      		ldd r31,Y+57
 12835 49ca 81E0      		ldi r24,lo8(1)
 12836 49cc 8483      		std Z+4,r24
 12837               	.LVL1123:
 12838               	.L744:
 12839               	.LM1223:
 12840 49ce CE01      		movw r24,r28
 12841 49d0 8296      		adiw r24,34
 12842 49d2 0E94 0000 		call dir_remove
 12843               	.LVL1124:
 12844               	.LM1224:
 12845 49d6 8823      		tst r24
 12846               	.LVL1125:
 12847 49d8 01F4      		brne .L735
 12848               	.LM1225:
 12849 49da 8AA1      		ldd r24,Y+34
 12850 49dc 9BA1      		ldd r25,Y+35
 12851               	.LVL1126:
 12852 49de 0E94 0000 		call sync
 12853 49e2 00C0      		rjmp .L735
 12854               	.LVL1127:
 12855               	.L745:
 12856 49e4 82E0      		ldi r24,lo8(2)
 12857               	.LVL1128:
 12858               	.L735:
 12859               	.LVL1129:
 12860               	/* epilogue start */
 12861               	.LM1226:
 12862 49e6 C15B      		subi r28,lo8(-(79))
 12863 49e8 DF4F      		sbci r29,hi8(-(79))
 12864 49ea CDBF      		out __SP_L__,r28
 12865 49ec DEBF      		out __SP_H__,r29
 12866 49ee CF91      		pop r28
 12867 49f0 DF91      		pop r29
 12868 49f2 1F91      		pop r17
 12869 49f4 0F91      		pop r16
 12870               	.LVL1130:
 12871 49f6 FF90      		pop r15
 12872 49f8 EF90      		pop r14
 12873               	.LVL1131:
 12874 49fa DF90      		pop r13
 12875 49fc CF90      		pop r12
 12876               	.LVL1132:
 12877 49fe 0895      		ret
 12878               	.LFE81:
 12880               		.data
 12881               	.LC1:
 12882 000b 4E4F 204E 		.string	"NO NAME    FAT     "
 12882      414D 4520 
 12882      2020 2046 
 12882      4154 2020 
 12882      2020 2000 
 12883               	.LC2:
 12884 001f 4E4F 204E 		.string	"NO NAME    FAT32   "
 12884      414D 4520 
 12884      2020 2046 
 12884      4154 3332 
 12884      2020 2000 
 12885               		.text
 12886               	.global	f_mkfs
 12888               	f_mkfs:
 12889               	.LFB82:
 12890               	.LM1227:
 12891               	.LVL1133:
 12892 4a00 2F92      		push r2
 12893 4a02 3F92      		push r3
 12894 4a04 4F92      		push r4
 12895 4a06 5F92      		push r5
 12896 4a08 6F92      		push r6
 12897 4a0a 7F92      		push r7
 12898 4a0c 8F92      		push r8
 12899 4a0e 9F92      		push r9
 12900 4a10 AF92      		push r10
 12901 4a12 BF92      		push r11
 12902 4a14 CF92      		push r12
 12903 4a16 DF92      		push r13
 12904 4a18 EF92      		push r14
 12905 4a1a FF92      		push r15
 12906 4a1c 0F93      		push r16
 12907 4a1e 1F93      		push r17
 12908 4a20 DF93      		push r29
 12909 4a22 CF93      		push r28
 12910 4a24 CDB7      		in r28,__SP_L__
 12911 4a26 DEB7      		in r29,__SP_H__
 12912 4a28 AE97      		sbiw r28,46
 12913 4a2a CDBF      		out __SP_L__,r28
 12914 4a2c DEBF      		out __SP_H__,r29
 12915               	/* prologue: function */
 12916               	/* frame size = 46 */
 12917 4a2e 362E      		mov r3,r22
 12918 4a30 3A01      		movw r6,r20
 12919               	.LM1228:
 12920 4a32 8230      		cpi r24,lo8(2)
 12921 4a34 00F0      		brlo .L750
 12922               	.LVL1134:
 12923 4a36 8BE0      		ldi r24,lo8(11)
 12924               	.LVL1135:
 12925 4a38 00C0      		rjmp .L751
 12926               	.LVL1136:
 12927               	.L750:
 12928               	.LM1229:
 12929 4a3a 21E0      		ldi r18,lo8(1)
 12930 4a3c 2617      		cp r18,r22
 12931 4a3e 00F4      		brsh .+2
 12932 4a40 00C0      		rjmp .L752
 12933               	.LVL1137:
 12934               	.LM1230:
 12935 4a42 A82F      		mov r26,r24
 12936 4a44 B0E0      		ldi r27,lo8(0)
 12937 4a46 AA0F      		lsl r26
 12938 4a48 BB1F      		rol r27
 12939 4a4a FD01      		movw r30,r26
 12940 4a4c E050      		subi r30,lo8(-(FatFs))
 12941 4a4e F040      		sbci r31,hi8(-(FatFs))
 12942 4a50 C080      		ld r12,Z
 12943 4a52 D180      		ldd r13,Z+1
 12944               	.LVL1138:
 12945               	.LM1231:
 12946 4a54 C114      		cp r12,__zero_reg__
 12947 4a56 D104      		cpc r13,__zero_reg__
 12948 4a58 01F4      		brne .L753
 12949 4a5a 8CE0      		ldi r24,lo8(12)
 12950               	.LVL1139:
 12951 4a5c 00C0      		rjmp .L751
 12952               	.LVL1140:
 12953               	.L753:
 12954               	.LM1232:
 12955 4a5e F601      		movw r30,r12
 12956 4a60 1082      		st Z,__zero_reg__
 12957               	.LM1233:
 12958 4a62 A050      		subi r26,lo8(-(Drives))
 12959 4a64 B040      		sbci r27,hi8(-(Drives))
 12960 4a66 FC91      		ld r31,X
 12961 4a68 FB8B      		std Y+19,r31
 12962               	.LVL1141:
 12963               	.LM1234:
 12964 4a6a 8F2F      		mov r24,r31
 12965 4a6c 0E94 0000 		call disk_initialize
 12966               	.LVL1142:
 12967               	.LM1235:
 12968 4a70 80FF      		sbrs r24,0
 12969 4a72 00C0      		rjmp .L754
 12970 4a74 83E0      		ldi r24,lo8(3)
 12971 4a76 00C0      		rjmp .L751
 12972               	.L754:
 12973               	.LM1236:
 12974 4a78 82FF      		sbrs r24,2
 12975 4a7a 00C0      		rjmp .L755
 12976 4a7c 8AE0      		ldi r24,lo8(10)
 12977 4a7e 00C0      		rjmp .L751
 12978               	.L755:
 12979               	.LM1237:
 12980 4a80 8B89      		ldd r24,Y+19
 12981 4a82 61E0      		ldi r22,lo8(1)
 12982 4a84 AE01      		movw r20,r28
 12983 4a86 4F5F      		subi r20,lo8(-(1))
 12984 4a88 5F4F      		sbci r21,hi8(-(1))
 12985 4a8a 0E94 0000 		call disk_ioctl
 12986 4a8e 8823      		tst r24
 12987 4a90 01F0      		breq .+2
 12988 4a92 00C0      		rjmp .L752
 12989 4a94 8981      		ldd r24,Y+1
 12990 4a96 9A81      		ldd r25,Y+2
 12991 4a98 AB81      		ldd r26,Y+3
 12992 4a9a BC81      		ldd r27,Y+4
 12993               	.LVL1143:
 12994 4a9c 803D      		cpi r24,lo8(2000)
 12995 4a9e 27E0      		ldi r18,hi8(2000)
 12996 4aa0 9207      		cpc r25,r18
 12997 4aa2 20E0      		ldi r18,hlo8(2000)
 12998 4aa4 A207      		cpc r26,r18
 12999 4aa6 20E0      		ldi r18,hhi8(2000)
 13000 4aa8 B207      		cpc r27,r18
 13001 4aaa 00F4      		brsh .+2
 13002 4aac 00C0      		rjmp .L752
 13003               	.LM1238:
 13004 4aae 8150      		subi r24,lo8(131072001)
 13005 4ab0 9040      		sbci r25,hi8(131072001)
 13006 4ab2 A04D      		sbci r26,hlo8(131072001)
 13007 4ab4 B740      		sbci r27,hhi8(131072001)
 13008 4ab6 00F0      		brlo .L756
 13009 4ab8 80E0      		ldi r24,lo8(131072000)
 13010 4aba 90E0      		ldi r25,hi8(131072000)
 13011 4abc A0ED      		ldi r26,hlo8(131072000)
 13012 4abe B7E0      		ldi r27,hhi8(131072000)
 13013 4ac0 8983      		std Y+1,r24
 13014 4ac2 9A83      		std Y+2,r25
 13015 4ac4 AB83      		std Y+3,r26
 13016 4ac6 BC83      		std Y+4,r27
 13017               	.LVL1144:
 13018               	.L756:
 13019               	.LM1239:
 13020 4ac8 3320      		tst r3
 13021 4aca 01F0      		breq .L757
 13022 4acc 1D8E      		std Y+29,__zero_reg__
 13023 4ace 1E8E      		std Y+30,__zero_reg__
 13024 4ad0 1F8E      		std Y+31,__zero_reg__
 13025 4ad2 18A2      		std Y+32,__zero_reg__
 13026               	.LVL1145:
 13027 4ad4 00C0      		rjmp .L758
 13028               	.LVL1146:
 13029               	.L757:
 13030 4ad6 8FE3      		ldi r24,lo8(63)
 13031 4ad8 90E0      		ldi r25,hi8(63)
 13032 4ada A0E0      		ldi r26,hlo8(63)
 13033 4adc B0E0      		ldi r27,hhi8(63)
 13034 4ade 8D8F      		std Y+29,r24
 13035 4ae0 9E8F      		std Y+30,r25
 13036 4ae2 AF8F      		std Y+31,r26
 13037 4ae4 B8A3      		std Y+32,r27
 13038               	.LVL1147:
 13039               	.L758:
 13040               	.LM1240:
 13041 4ae6 8980      		ldd r8,Y+1
 13042 4ae8 9A80      		ldd r9,Y+2
 13043 4aea AB80      		ldd r10,Y+3
 13044 4aec BC80      		ldd r11,Y+4
 13045 4aee 2D8D      		ldd r18,Y+29
 13046 4af0 3E8D      		ldd r19,Y+30
 13047 4af2 4F8D      		ldd r20,Y+31
 13048 4af4 58A1      		ldd r21,Y+32
 13049 4af6 821A      		sub r8,r18
 13050 4af8 930A      		sbc r9,r19
 13051 4afa A40A      		sbc r10,r20
 13052 4afc B50A      		sbc r11,r21
 13053               	.LVL1148:
 13054 4afe 8982      		std Y+1,r8
 13055 4b00 9A82      		std Y+2,r9
 13056 4b02 AB82      		std Y+3,r10
 13057 4b04 BC82      		std Y+4,r11
 13058 4b06 80E0      		ldi r24,lo8(512)
 13059 4b08 92E0      		ldi r25,hi8(512)
 13060 4b0a A0E0      		ldi r26,hlo8(512)
 13061 4b0c B0E0      		ldi r27,hhi8(512)
 13062               	.LVL1149:
 13063 4b0e 20E0      		ldi r18,lo8(0)
 13064 4b10 30E0      		ldi r19,hi8(0)
 13065               	.LM1241:
 13066 4b12 7301      		movw r14,r6
 13067 4b14 00E0      		ldi r16,lo8(0)
 13068 4b16 10E0      		ldi r17,hi8(0)
 13069 4b18 00C0      		rjmp .L759
 13070               	.LVL1150:
 13071               	.L761:
 13072 4b1a 880F      		lsl r24
 13073 4b1c 991F      		rol r25
 13074 4b1e AA1F      		rol r26
 13075 4b20 BB1F      		rol r27
 13076 4b22 2F5F      		subi r18,lo8(-(1))
 13077 4b24 3F4F      		sbci r19,hi8(-(1))
 13078 4b26 2730      		cpi r18,7
 13079 4b28 3105      		cpc r19,__zero_reg__
 13080 4b2a 01F0      		breq .L760
 13081               	.L759:
 13082 4b2c 8E15      		cp r24,r14
 13083 4b2e 9F05      		cpc r25,r15
 13084 4b30 A007      		cpc r26,r16
 13085 4b32 B107      		cpc r27,r17
 13086 4b34 01F4      		brne .L761
 13087 4b36 00C0      		rjmp .L762
 13088               	.L760:
 13089               	.LM1242:
 13090 4b38 8E15      		cp r24,r14
 13091 4b3a 9F05      		cpc r25,r15
 13092 4b3c A007      		cpc r26,r16
 13093 4b3e B107      		cpc r27,r17
 13094 4b40 01F4      		brne .L763
 13095               	.L762:
 13096               	.LM1243:
 13097 4b42 6114      		cp r6,__zero_reg__
 13098 4b44 7104      		cpc r7,__zero_reg__
 13099 4b46 01F4      		brne .L764
 13100               	.L763:
 13101               	.LM1244:
 13102 4b48 E0E0      		ldi r30,lo8(sstbl.6369)
 13103 4b4a F0E0      		ldi r31,hi8(sstbl.6369)
 13104 4b4c 20E0      		ldi r18,lo8(0)
 13105 4b4e 30E0      		ldi r19,hi8(0)
 13106 4b50 40E0      		ldi r20,hlo8(0)
 13107 4b52 50E0      		ldi r21,hhi8(0)
 13108               	.L765:
 13109 4b54 8191      		ld r24,Z+
 13110 4b56 9191      		ld r25,Z+
 13111 4b58 A191      		ld r26,Z+
 13112 4b5a B191      		ld r27,Z+
 13113               	.LVL1151:
 13114 4b5c B901      		movw r22,r18
 13115 4b5e 142F      		mov r17,r20
 13116 4b60 052F      		mov r16,r21
 13117 4b62 2F5F      		subi r18,lo8(-(1))
 13118 4b64 3F4F      		sbci r19,hi8(-(1))
 13119 4b66 4F4F      		sbci r20,hlo8(-(1))
 13120 4b68 5F4F      		sbci r21,hhi8(-(1))
 13121 4b6a 8816      		cp r8,r24
 13122 4b6c 9906      		cpc r9,r25
 13123 4b6e AA06      		cpc r10,r26
 13124 4b70 BB06      		cpc r11,r27
 13125 4b72 00F0      		brlo .L765
 13126               	.LVL1152:
 13127 4b74 CB01      		movw r24,r22
 13128 4b76 6D83      		std Y+5,r22
 13129               	.LVL1153:
 13130 4b78 9E83      		std Y+6,r25
 13131               	.LVL1154:
 13132 4b7a 1F83      		std Y+7,r17
 13133               	.LVL1155:
 13134 4b7c 0887      		std Y+8,r16
 13135               	.LVL1156:
 13136               	.LM1245:
 13137 4b7e FB01      		movw r30,r22
 13138 4b80 EE0F      		lsl r30
 13139 4b82 FF1F      		rol r31
 13140 4b84 E050      		subi r30,lo8(-(cstbl.6370))
 13141 4b86 F040      		sbci r31,hi8(-(cstbl.6370))
 13142 4b88 6080      		ld r6,Z
 13143 4b8a 7180      		ldd r7,Z+1
 13144               	.LVL1157:
 13145               	.L764:
 13146               	.LM1246:
 13147 4b8c 30E0      		ldi r19,lo8(512)
 13148 4b8e 6316      		cp r6,r19
 13149 4b90 32E0      		ldi r19,hi8(512)
 13150 4b92 7306      		cpc r7,r19
 13151 4b94 00F4      		brsh .L766
 13152 4b96 612C      		mov r6,__zero_reg__
 13153 4b98 22E0      		ldi r18,hi8(512)
 13154 4b9a 722E      		mov r7,r18
 13155               	.L766:
 13156               	.LM1247:
 13157 4b9c A301      		movw r20,r6
 13158 4b9e 452F      		mov r20,r21
 13159 4ba0 5527      		clr r21
 13160 4ba2 4695      		lsr r20
 13161 4ba4 498B      		std Y+17,r20
 13162 4ba6 5A8B      		std Y+18,r21
 13163               	.LVL1158:
 13164               	.LM1248:
 13165 4ba8 CA01      		movw r24,r20
 13166               	.LVL1159:
 13167 4baa A0E0      		ldi r26,lo8(0)
 13168 4bac B0E0      		ldi r27,hi8(0)
 13169 4bae 8D87      		std Y+13,r24
 13170 4bb0 9E87      		std Y+14,r25
 13171 4bb2 AF87      		std Y+15,r26
 13172 4bb4 B88B      		std Y+16,r27
 13173 4bb6 C501      		movw r24,r10
 13174 4bb8 B401      		movw r22,r8
 13175 4bba 2D85      		ldd r18,Y+13
 13176 4bbc 3E85      		ldd r19,Y+14
 13177 4bbe 4F85      		ldd r20,Y+15
 13178 4bc0 5889      		ldd r21,Y+16
 13179 4bc2 0E94 0000 		call __udivmodsi4
 13180 4bc6 C901      		movw r24,r18
 13181 4bc8 DA01      		movw r26,r20
 13182               	.LM1249:
 13183 4bca 853F      		cpi r24,lo8(4085)
 13184 4bcc EFE0      		ldi r30,hi8(4085)
 13185 4bce 9E07      		cpc r25,r30
 13186 4bd0 E0E0      		ldi r30,hlo8(4085)
 13187 4bd2 AE07      		cpc r26,r30
 13188 4bd4 E0E0      		ldi r30,hhi8(4085)
 13189 4bd6 BE07      		cpc r27,r30
 13190               	.LVL1160:
 13191 4bd8 00F4      		brsh .+2
 13192 4bda 00C0      		rjmp .L767
 13193               	.LVL1161:
 13194 4bdc 232D      		mov r18,r3
 13195 4bde 30E0      		ldi r19,lo8(0)
 13196               	.LVL1162:
 13197               	.LM1250:
 13198 4be0 853F      		cpi r24,lo8(65525)
 13199 4be2 FFEF      		ldi r31,hi8(65525)
 13200 4be4 9F07      		cpc r25,r31
 13201 4be6 F0E0      		ldi r31,hlo8(65525)
 13202 4be8 AF07      		cpc r26,r31
 13203 4bea F0E0      		ldi r31,hhi8(65525)
 13204 4bec BF07      		cpc r27,r31
 13205 4bee 00F4      		brsh .L768
 13206               	.LVL1163:
 13207               	.LM1251:
 13208 4bf0 7C01      		movw r14,r24
 13209 4bf2 8D01      		movw r16,r26
 13210               	.LVL1164:
 13211 4bf4 EE0C      		lsl r14
 13212 4bf6 FF1C      		rol r15
 13213 4bf8 001F      		rol r16
 13214 4bfa 111F      		rol r17
 13215               	.LVL1165:
 13216 4bfc 83E0      		ldi r24,lo8(515)
 13217 4bfe 92E0      		ldi r25,hi8(515)
 13218 4c00 A0E0      		ldi r26,hlo8(515)
 13219 4c02 B0E0      		ldi r27,hhi8(515)
 13220 4c04 E80E      		add r14,r24
 13221 4c06 F91E      		adc r15,r25
 13222 4c08 0A1F      		adc r16,r26
 13223 4c0a 1B1F      		adc r17,r27
 13224 4c0c B9E0      		ldi r27,9
 13225 4c0e 1695      	1:	lsr r17
 13226 4c10 0795      		ror r16
 13227 4c12 F794      		ror r15
 13228 4c14 E794      		ror r14
 13229 4c16 BA95      		dec r27
 13230 4c18 01F4      		brne 1b
 13231               	.LM1252:
 13232 4c1a 2F5F      		subi r18,lo8(-(1))
 13233 4c1c 3F4F      		sbci r19,hi8(-(1))
 13234               	.LVL1166:
 13235 4c1e C901      		movw r24,r18
 13236 4c20 AA27      		clr r26
 13237 4c22 97FD      		sbrc r25,7
 13238 4c24 A095      		com r26
 13239 4c26 BA2F      		mov r27,r26
 13240 4c28 898F      		std Y+25,r24
 13241 4c2a 9A8F      		std Y+26,r25
 13242 4c2c AB8F      		std Y+27,r26
 13243 4c2e BC8F      		std Y+28,r27
 13244               	.LVL1167:
 13245 4c30 20E2      		ldi r18,lo8(32)
 13246 4c32 30E0      		ldi r19,hi8(32)
 13247 4c34 40E0      		ldi r20,hlo8(32)
 13248 4c36 50E0      		ldi r21,hhi8(32)
 13249               	.LVL1168:
 13250 4c38 2D8B      		std Y+21,r18
 13251 4c3a 3E8B      		std Y+22,r19
 13252 4c3c 4F8B      		std Y+23,r20
 13253 4c3e 588F      		std Y+24,r21
 13254               	.LVL1169:
 13255 4c40 32E0      		ldi r19,lo8(2)
 13256               	.LVL1170:
 13257 4c42 00C0      		rjmp .L811
 13258               	.LVL1171:
 13259               	.L768:
 13260               	.LM1253:
 13261 4c44 7C01      		movw r14,r24
 13262 4c46 8D01      		movw r16,r26
 13263               	.LVL1172:
 13264 4c48 A2E0      		ldi r26,2
 13265 4c4a EE0C      	1:	lsl r14
 13266 4c4c FF1C      		rol r15
 13267 4c4e 001F      		rol r16
 13268 4c50 111F      		rol r17
 13269 4c52 AA95      		dec r26
 13270 4c54 01F4      		brne 1b
 13271 4c56 87E0      		ldi r24,lo8(519)
 13272 4c58 92E0      		ldi r25,hi8(519)
 13273 4c5a A0E0      		ldi r26,hlo8(519)
 13274 4c5c B0E0      		ldi r27,hhi8(519)
 13275               	.LVL1173:
 13276 4c5e E80E      		add r14,r24
 13277 4c60 F91E      		adc r15,r25
 13278 4c62 0A1F      		adc r16,r26
 13279 4c64 1B1F      		adc r17,r27
 13280 4c66 F9E0      		ldi r31,9
 13281 4c68 1695      	1:	lsr r17
 13282 4c6a 0795      		ror r16
 13283 4c6c F794      		ror r15
 13284 4c6e E794      		ror r14
 13285 4c70 FA95      		dec r31
 13286 4c72 01F4      		brne 1b
 13287               	.LM1254:
 13288 4c74 81E2      		ldi r24,lo8(33)
 13289 4c76 90E0      		ldi r25,hi8(33)
 13290 4c78 821B      		sub r24,r18
 13291 4c7a 930B      		sbc r25,r19
 13292 4c7c 9C01      		movw r18,r24
 13293 4c7e 4427      		clr r20
 13294 4c80 37FD      		sbrc r19,7
 13295 4c82 4095      		com r20
 13296 4c84 542F      		mov r21,r20
 13297               	.LVL1174:
 13298 4c86 298F      		std Y+25,r18
 13299 4c88 3A8F      		std Y+26,r19
 13300 4c8a 4B8F      		std Y+27,r20
 13301 4c8c 5C8F      		std Y+28,r21
 13302               	.LVL1175:
 13303 4c8e 1D8A      		std Y+21,__zero_reg__
 13304 4c90 1E8A      		std Y+22,__zero_reg__
 13305 4c92 1F8A      		std Y+23,__zero_reg__
 13306 4c94 188E      		std Y+24,__zero_reg__
 13307               	.LVL1176:
 13308 4c96 33E0      		ldi r19,lo8(3)
 13309               	.LVL1177:
 13310               	.L811:
 13311 4c98 3AA3      		std Y+34,r19
 13312               	.LVL1178:
 13313               	.L769:
 13314               	.LM1255:
 13315 4c9a 8B89      		ldd r24,Y+19
 13316 4c9c 63E0      		ldi r22,lo8(3)
 13317 4c9e AE01      		movw r20,r28
 13318 4ca0 4B5F      		subi r20,lo8(-(5))
 13319 4ca2 5F4F      		sbci r21,hi8(-(5))
 13320 4ca4 0E94 0000 		call disk_ioctl
 13321 4ca8 8823      		tst r24
 13322 4caa 01F0      		breq .+2
 13323 4cac 00C0      		rjmp .L752
 13324               	.LM1256:
 13325 4cae 898D      		ldd r24,Y+25
 13326 4cb0 9A8D      		ldd r25,Y+26
 13327 4cb2 AB8D      		ldd r26,Y+27
 13328 4cb4 BC8D      		ldd r27,Y+28
 13329 4cb6 2D8D      		ldd r18,Y+29
 13330 4cb8 3E8D      		ldd r19,Y+30
 13331 4cba 4F8D      		ldd r20,Y+31
 13332 4cbc 58A1      		ldd r21,Y+32
 13333 4cbe 820F      		add r24,r18
 13334 4cc0 931F      		adc r25,r19
 13335 4cc2 A41F      		adc r26,r20
 13336 4cc4 B51F      		adc r27,r21
 13337 4cc6 8987      		std Y+9,r24
 13338 4cc8 9A87      		std Y+10,r25
 13339 4cca AB87      		std Y+11,r26
 13340 4ccc BC87      		std Y+12,r27
 13341               	.LVL1179:
 13342               	.LM1257:
 13343 4cce 2D89      		ldd r18,Y+21
 13344 4cd0 3E89      		ldd r19,Y+22
 13345 4cd2 4F89      		ldd r20,Y+23
 13346 4cd4 588D      		ldd r21,Y+24
 13347               	.LVL1180:
 13348 4cd6 2E0D      		add r18,r14
 13349 4cd8 3F1D      		adc r19,r15
 13350 4cda 401F      		adc r20,r16
 13351 4cdc 511F      		adc r21,r17
 13352 4cde 280F      		add r18,r24
 13353 4ce0 391F      		adc r19,r25
 13354 4ce2 4A1F      		adc r20,r26
 13355 4ce4 5B1F      		adc r21,r27
 13356               	.LM1258:
 13357 4ce6 8D81      		ldd r24,Y+5
 13358 4ce8 9E81      		ldd r25,Y+6
 13359 4cea AF81      		ldd r26,Y+7
 13360 4cec B885      		ldd r27,Y+8
 13361 4cee 4C01      		movw r8,r24
 13362 4cf0 5D01      		movw r10,r26
 13363               	.LVL1181:
 13364 4cf2 0894      		sec
 13365 4cf4 8108      		sbc r8,__zero_reg__
 13366 4cf6 9108      		sbc r9,__zero_reg__
 13367 4cf8 A108      		sbc r10,__zero_reg__
 13368 4cfa B108      		sbc r11,__zero_reg__
 13369 4cfc 820E      		add r8,r18
 13370 4cfe 931E      		adc r9,r19
 13371 4d00 A41E      		adc r10,r20
 13372 4d02 B51E      		adc r11,r21
 13373 4d04 B095      		com r27
 13374 4d06 A095      		com r26
 13375 4d08 9095      		com r25
 13376 4d0a 8195      		neg r24
 13377 4d0c 9F4F      		sbci r25,lo8(-1)
 13378 4d0e AF4F      		sbci r26,lo8(-1)
 13379 4d10 BF4F      		sbci r27,lo8(-1)
 13380 4d12 8822      		and r8,r24
 13381 4d14 9922      		and r9,r25
 13382 4d16 AA22      		and r10,r26
 13383 4d18 BB22      		and r11,r27
 13384               	.LM1259:
 13385 4d1a 2701      		movw r4,r14
 13386 4d1c 3801      		movw r6,r16
 13387 4d1e 421A      		sub r4,r18
 13388 4d20 530A      		sbc r5,r19
 13389 4d22 640A      		sbc r6,r20
 13390 4d24 750A      		sbc r7,r21
 13391               	.LVL1182:
 13392 4d26 480C      		add r4,r8
 13393 4d28 591C      		adc r5,r9
 13394 4d2a 6A1C      		adc r6,r10
 13395 4d2c 7B1C      		adc r7,r11
 13396               	.LM1260:
 13397 4d2e E980      		ldd r14,Y+1
 13398 4d30 FA80      		ldd r15,Y+2
 13399 4d32 0B81      		ldd r16,Y+3
 13400 4d34 1C81      		ldd r17,Y+4
 13401 4d36 C801      		movw r24,r16
 13402 4d38 B701      		movw r22,r14
 13403 4d3a 298D      		ldd r18,Y+25
 13404 4d3c 3A8D      		ldd r19,Y+26
 13405 4d3e 4B8D      		ldd r20,Y+27
 13406 4d40 5C8D      		ldd r21,Y+28
 13407               	.LVL1183:
 13408 4d42 621B      		sub r22,r18
 13409 4d44 730B      		sbc r23,r19
 13410 4d46 840B      		sbc r24,r20
 13411 4d48 950B      		sbc r25,r21
 13412 4d4a 6419      		sub r22,r4
 13413 4d4c 7509      		sbc r23,r5
 13414 4d4e 8609      		sbc r24,r6
 13415 4d50 9709      		sbc r25,r7
 13416 4d52 2D89      		ldd r18,Y+21
 13417 4d54 3E89      		ldd r19,Y+22
 13418 4d56 4F89      		ldd r20,Y+23
 13419 4d58 588D      		ldd r21,Y+24
 13420 4d5a 621B      		sub r22,r18
 13421 4d5c 730B      		sbc r23,r19
 13422 4d5e 840B      		sbc r24,r20
 13423 4d60 950B      		sbc r25,r21
 13424 4d62 2D85      		ldd r18,Y+13
 13425 4d64 3E85      		ldd r19,Y+14
 13426 4d66 4F85      		ldd r20,Y+15
 13427 4d68 5889      		ldd r21,Y+16
 13428 4d6a 0E94 0000 		call __udivmodsi4
 13429 4d6e 2BA3      		std Y+35,r18
 13430 4d70 3CA3      		std Y+36,r19
 13431 4d72 4DA3      		std Y+37,r20
 13432 4d74 5EA3      		std Y+38,r21
 13433               	.LM1261:
 13434 4d76 3AA1      		ldd r19,Y+34
 13435 4d78 3230      		cpi r19,lo8(2)
 13436 4d7a 01F4      		brne .L770
 13437 4d7c 8BA1      		ldd r24,Y+35
 13438 4d7e 9CA1      		ldd r25,Y+36
 13439 4d80 ADA1      		ldd r26,Y+37
 13440 4d82 BEA1      		ldd r27,Y+38
 13441 4d84 855F      		subi r24,lo8(4085)
 13442 4d86 9F40      		sbci r25,hi8(4085)
 13443 4d88 A040      		sbci r26,hlo8(4085)
 13444 4d8a B040      		sbci r27,hhi8(4085)
 13445 4d8c 00F4      		brsh .L771
 13446 4d8e 00C0      		rjmp .L752
 13447               	.L770:
 13448 4d90 FAA1      		ldd r31,Y+34
 13449 4d92 F330      		cpi r31,lo8(3)
 13450 4d94 01F4      		brne .L771
 13451 4d96 2BA1      		ldd r18,Y+35
 13452 4d98 3CA1      		ldd r19,Y+36
 13453 4d9a 4DA1      		ldd r20,Y+37
 13454 4d9c 5EA1      		ldd r21,Y+38
 13455 4d9e 255F      		subi r18,lo8(65525)
 13456 4da0 3F4F      		sbci r19,hi8(65525)
 13457 4da2 4040      		sbci r20,hlo8(65525)
 13458 4da4 5040      		sbci r21,hhi8(65525)
 13459 4da6 00F4      		brsh .+2
 13460 4da8 00C0      		rjmp .L752
 13461               	.L771:
 13462               	.LM1262:
 13463 4daa 8D82      		std Y+5,r8
 13464 4dac 9E82      		std Y+6,r9
 13465 4dae AF82      		std Y+7,r10
 13466 4db0 B886      		std Y+8,r11
 13467               	.LM1263:
 13468 4db2 3320      		tst r3
 13469 4db4 01F0      		breq .L772
 13470               	.LVL1184:
 13471 4db6 80EF      		ldi r24,lo8(-16)
 13472 4db8 8C8B      		std Y+20,r24
 13473               	.LVL1185:
 13474 4dba 00C0      		rjmp .L773
 13475               	.LVL1186:
 13476               	.L772:
 13477               	.LBB620:
 13478               	.LM1264:
 13479 4dbc 4D8D      		ldd r20,Y+29
 13480 4dbe 5E8D      		ldd r21,Y+30
 13481 4dc0 6F8D      		ldd r22,Y+31
 13482 4dc2 78A1      		ldd r23,Y+32
 13483               	.LVL1187:
 13484 4dc4 4E0D      		add r20,r14
 13485 4dc6 5F1D      		adc r21,r15
 13486 4dc8 601F      		adc r22,r16
 13487 4dca 711F      		adc r23,r17
 13488               	.LBB621:
 13489               	.LBB622:
 13490               	.LM1265:
 13491 4dcc EEE2      		ldi r30,lo8(46)
 13492 4dce EE2E      		mov r14,r30
 13493 4dd0 F12C      		mov r15,__zero_reg__
 13494               	.LVL1188:
 13495 4dd2 EC0C      		add r14,r12
 13496 4dd4 FD1C      		adc r15,r13
 13497 4dd6 F701      		movw r30,r14
 13498 4dd8 20E0      		ldi r18,lo8(512)
 13499 4dda 32E0      		ldi r19,hi8(512)
 13500               	.LVL1189:
 13501 4ddc 00C0      		rjmp .L774
 13502               	.LVL1190:
 13503               	.L775:
 13504               	.LM1266:
 13505 4dde 1192      		st Z+,__zero_reg__
 13506               	.L774:
 13507 4de0 2150      		subi r18,lo8(-(-1))
 13508 4de2 3040      		sbci r19,hi8(-(-1))
 13509 4de4 9FEF      		ldi r25,hi8(-1)
 13510 4de6 2F3F      		cpi r18,lo8(-1)
 13511 4de8 3907      		cpc r19,r25
 13512 4dea 01F4      		brne .L775
 13513               	.LBE622:
 13514               	.LBE621:
 13515               	.LM1267:
 13516 4dec 8601      		movw r16,r12
 13517               	.LVL1191:
 13518 4dee 0451      		subi r16,lo8(-(492))
 13519 4df0 1E4F      		sbci r17,hi8(-(492))
 13520               	.LM1268:
 13521 4df2 80E8      		ldi r24,lo8(-128)
 13522 4df4 D801      		movw r26,r16
 13523 4df6 8C93      		st X,r24
 13524 4df8 81E0      		ldi r24,lo8(1)
 13525 4dfa 1196      		adiw r26,1
 13526 4dfc 8C93      		st X,r24
 13527 4dfe 1197      		sbiw r26,1
 13528 4e00 1296      		adiw r26,2
 13529 4e02 8C93      		st X,r24
 13530 4e04 1297      		sbiw r26,2
 13531 4e06 1396      		adiw r26,3
 13532 4e08 1C92      		st X,__zero_reg__
 13533               	.LM1269:
 13534 4e0a 4030      		cpi r20,lo8(16450560)
 13535 4e0c B4E0      		ldi r27,hi8(16450560)
 13536 4e0e 5B07      		cpc r21,r27
 13537 4e10 BBEF      		ldi r27,hlo8(16450560)
 13538 4e12 6B07      		cpc r22,r27
 13539 4e14 B0E0      		ldi r27,hhi8(16450560)
 13540 4e16 7B07      		cpc r23,r27
 13541 4e18 00F4      		brsh .L776
 13542               	.LM1270:
 13543 4e1a CB01      		movw r24,r22
 13544 4e1c BA01      		movw r22,r20
 13545 4e1e 21EC      		ldi r18,lo8(16065)
 13546 4e20 3EE3      		ldi r19,hi8(16065)
 13547 4e22 40E0      		ldi r20,hlo8(16065)
 13548 4e24 50E0      		ldi r21,hhi8(16065)
 13549               	.LVL1192:
 13550 4e26 0E94 0000 		call __udivmodsi4
 13551               	.LVL1193:
 13552 4e2a C901      		movw r24,r18
 13553 4e2c DA01      		movw r26,r20
 13554               	.LVL1194:
 13555               	.LM1271:
 13556 4e2e F801      		movw r30,r16
 13557 4e30 2783      		std Z+7,r18
 13558               	.LVL1195:
 13559               	.LM1272:
 13560 4e32 72E0      		ldi r23,2
 13561 4e34 B695      	1:	lsr r27
 13562 4e36 A795      		ror r26
 13563 4e38 9795      		ror r25
 13564 4e3a 8795      		ror r24
 13565 4e3c 7A95      		dec r23
 13566 4e3e 01F4      		brne 1b
 13567               	.LVL1196:
 13568 4e40 8F63      		ori r24,lo8(63)
 13569               	.LVL1197:
 13570 4e42 8683      		std Z+6,r24
 13571 4e44 00C0      		rjmp .L777
 13572               	.LVL1198:
 13573               	.L776:
 13574               	.LM1273:
 13575 4e46 8FEF      		ldi r24,lo8(-1)
 13576 4e48 D801      		movw r26,r16
 13577 4e4a 1696      		adiw r26,6
 13578 4e4c 8C93      		st X,r24
 13579 4e4e 1697      		sbiw r26,6
 13580 4e50 1796      		adiw r26,7
 13581 4e52 8C93      		st X,r24
 13582               	.LVL1199:
 13583               	.L777:
 13584               	.LM1274:
 13585 4e54 8EEF      		ldi r24,lo8(-2)
 13586 4e56 F801      		movw r30,r16
 13587 4e58 8583      		std Z+5,r24
 13588               	.LM1275:
 13589 4e5a FAA1      		ldd r31,Y+34
 13590 4e5c F330      		cpi r31,lo8(3)
 13591 4e5e 01F0      		breq .L778
 13592               	.LM1276:
 13593 4e60 8981      		ldd r24,Y+1
 13594 4e62 9A81      		ldd r25,Y+2
 13595 4e64 AB81      		ldd r26,Y+3
 13596 4e66 BC81      		ldd r27,Y+4
 13597 4e68 8050      		subi r24,lo8(65536)
 13598 4e6a 9040      		sbci r25,hi8(65536)
 13599 4e6c A140      		sbci r26,hlo8(65536)
 13600 4e6e B040      		sbci r27,hhi8(65536)
 13601               	.LVL1200:
 13602 4e70 00F0      		brlo .L779
 13603               	.LVL1201:
 13604 4e72 86E0      		ldi r24,lo8(6)
 13605               	.LVL1202:
 13606 4e74 00C0      		rjmp .L780
 13607               	.LVL1203:
 13608               	.L779:
 13609 4e76 84E0      		ldi r24,lo8(4)
 13610               	.LVL1204:
 13611               	.L780:
 13612 4e78 D801      		movw r26,r16
 13613 4e7a 1496      		adiw r26,4
 13614 4e7c 8C93      		st X,r24
 13615 4e7e 00C0      		rjmp .L781
 13616               	.LVL1205:
 13617               	.L778:
 13618               	.LM1277:
 13619 4e80 8CE0      		ldi r24,lo8(12)
 13620 4e82 F801      		movw r30,r16
 13621 4e84 8483      		std Z+4,r24
 13622               	.L781:
 13623               	.LM1278:
 13624 4e86 8FE3      		ldi r24,lo8(63)
 13625 4e88 D801      		movw r26,r16
 13626 4e8a 1896      		adiw r26,8
 13627 4e8c 8C93      		st X,r24
 13628 4e8e 1897      		sbiw r26,8
 13629 4e90 1996      		adiw r26,9
 13630 4e92 1C92      		st X,__zero_reg__
 13631 4e94 1997      		sbiw r26,9
 13632 4e96 1A96      		adiw r26,10
 13633 4e98 1C92      		st X,__zero_reg__
 13634 4e9a 1A97      		sbiw r26,10
 13635 4e9c 1B96      		adiw r26,11
 13636 4e9e 1C92      		st X,__zero_reg__
 13637 4ea0 1B97      		sbiw r26,11
 13638               	.LM1279:
 13639 4ea2 8981      		ldd r24,Y+1
 13640 4ea4 1C96      		adiw r26,12
 13641 4ea6 8C93      		st X,r24
 13642 4ea8 1C97      		sbiw r26,12
 13643 4eaa 8A81      		ldd r24,Y+2
 13644               	.LVL1206:
 13645 4eac 1D96      		adiw r26,13
 13646 4eae 8C93      		st X,r24
 13647 4eb0 8981      		ldd r24,Y+1
 13648 4eb2 9A81      		ldd r25,Y+2
 13649 4eb4 AB81      		ldd r26,Y+3
 13650 4eb6 BC81      		ldd r27,Y+4
 13651 4eb8 CD01      		movw r24,r26
 13652 4eba AA27      		clr r26
 13653 4ebc BB27      		clr r27
 13654 4ebe F801      		movw r30,r16
 13655 4ec0 8687      		std Z+14,r24
 13656 4ec2 8981      		ldd r24,Y+1
 13657 4ec4 9A81      		ldd r25,Y+2
 13658 4ec6 AB81      		ldd r26,Y+3
 13659 4ec8 BC81      		ldd r27,Y+4
 13660 4eca 8B2F      		mov r24,r27
 13661 4ecc 9927      		clr r25
 13662 4ece AA27      		clr r26
 13663 4ed0 BB27      		clr r27
 13664 4ed2 8787      		std Z+15,r24
 13665               	.LM1280:
 13666 4ed4 005C      		subi r16,lo8(-(64))
 13667 4ed6 1F4F      		sbci r17,hi8(-(64))
 13668 4ed8 85E5      		ldi r24,lo8(85)
 13669 4eda D801      		movw r26,r16
 13670 4edc 8D93      		st X+,r24
 13671 4ede FD01      		movw r30,r26
 13672 4ee0 8AEA      		ldi r24,lo8(-86)
 13673 4ee2 8083      		st Z,r24
 13674               	.LM1281:
 13675 4ee4 8B89      		ldd r24,Y+19
 13676 4ee6 B701      		movw r22,r14
 13677 4ee8 20E0      		ldi r18,lo8(0)
 13678 4eea 30E0      		ldi r19,hi8(0)
 13679 4eec 40E0      		ldi r20,hlo8(0)
 13680 4eee 50E0      		ldi r21,hhi8(0)
 13681               	.LVL1207:
 13682 4ef0 01E0      		ldi r16,lo8(1)
 13683               	.LVL1208:
 13684 4ef2 0E94 0000 		call disk_write
 13685               	.LVL1209:
 13686 4ef6 8823      		tst r24
 13687 4ef8 01F0      		breq .+2
 13688 4efa 00C0      		rjmp .L782
 13689 4efc B8EF      		ldi r27,lo8(-8)
 13690 4efe BC8B      		std Y+20,r27
 13691               	.LVL1210:
 13692               	.L773:
 13693               	.LBE620:
 13694               	.LM1282:
 13695 4f00 4EE2      		ldi r20,lo8(46)
 13696 4f02 242E      		mov r2,r20
 13697 4f04 312C      		mov r3,__zero_reg__
 13698               	.LVL1211:
 13699 4f06 2C0C      		add r2,r12
 13700 4f08 3D1C      		adc r3,r13
 13701 4f0a F101      		movw r30,r2
 13702 4f0c 80E0      		ldi r24,lo8(512)
 13703 4f0e 92E0      		ldi r25,hi8(512)
 13704               	.LVL1212:
 13705 4f10 00C0      		rjmp .L783
 13706               	.LVL1213:
 13707               	.L784:
 13708               	.LBB623:
 13709               	.LBB624:
 13710               	.LM1283:
 13711 4f12 1192      		st Z+,__zero_reg__
 13712               	.L783:
 13713 4f14 0197      		sbiw r24,1
 13714 4f16 2FEF      		ldi r18,hi8(-1)
 13715 4f18 8F3F      		cpi r24,lo8(-1)
 13716 4f1a 9207      		cpc r25,r18
 13717 4f1c 01F4      		brne .L784
 13718               	.LBE624:
 13719               	.LBE623:
 13720               	.LM1284:
 13721 4f1e 8BEE      		ldi r24,lo8(-21)
 13722               	.LVL1214:
 13723 4f20 D601      		movw r26,r12
 13724 4f22 9E96      		adiw r26,46
 13725 4f24 8C93      		st X,r24
 13726 4f26 9E97      		sbiw r26,46
 13727 4f28 8EEF      		ldi r24,lo8(-2)
 13728 4f2a 9F96      		adiw r26,47
 13729 4f2c 8C93      		st X,r24
 13730 4f2e 9F97      		sbiw r26,47
 13731 4f30 80E9      		ldi r24,lo8(-112)
 13732 4f32 D096      		adiw r26,48
 13733 4f34 8C93      		st X,r24
 13734 4f36 D097      		sbiw r26,48
 13735 4f38 D196      		adiw r26,49
 13736 4f3a 1C92      		st X,__zero_reg__
 13737 4f3c D197      		sbiw r26,49
 13738               	.LM1285:
 13739 4f3e D996      		adiw r26,57
 13740 4f40 1C92      		st X,__zero_reg__
 13741 4f42 D997      		sbiw r26,57
 13742 4f44 82E0      		ldi r24,lo8(2)
 13743 4f46 DA96      		adiw r26,58
 13744 4f48 8C93      		st X,r24
 13745               	.LM1286:
 13746 4f4a B989      		ldd r27,Y+17
 13747 4f4c B9A3      		std Y+33,r27
 13748               	.LVL1215:
 13749 4f4e F601      		movw r30,r12
 13750               	.LVL1216:
 13751 4f50 B3AF      		std Z+59,r27
 13752               	.LM1287:
 13753 4f52 398D      		ldd r19,Y+25
 13754 4f54 34AF      		std Z+60,r19
 13755 4f56 15AE      		std Z+61,__zero_reg__
 13756               	.LM1288:
 13757 4f58 81E0      		ldi r24,lo8(1)
 13758 4f5a 86AF      		std Z+62,r24
 13759               	.LM1289:
 13760 4f5c 8D89      		ldd r24,Y+21
 13761 4f5e 9E89      		ldd r25,Y+22
 13762 4f60 AF89      		ldd r26,Y+23
 13763 4f62 B88D      		ldd r27,Y+24
 13764 4f64 34E0      		ldi r19,4
 13765 4f66 880F      	1:	lsl r24
 13766 4f68 991F      		rol r25
 13767 4f6a AA1F      		rol r26
 13768 4f6c BB1F      		rol r27
 13769 4f6e 3A95      		dec r19
 13770 4f70 01F4      		brne 1b
 13771 4f72 87AF      		std Z+63,r24
 13772 4f74 40E4      		ldi r20,lo8(64)
 13773 4f76 50E0      		ldi r21,hi8(64)
 13774 4f78 C40E      		add r12,r20
 13775 4f7a D51E      		adc r13,r21
 13776 4f7c 892F      		mov r24,r25
 13777 4f7e 9927      		clr r25
 13778 4f80 D601      		movw r26,r12
 13779 4f82 8C93      		st X,r24
 13780 4f84 E0EC      		ldi r30,lo8(-64)
 13781 4f86 FFEF      		ldi r31,hi8(-64)
 13782 4f88 CE0E      		add r12,r30
 13783 4f8a DF1E      		adc r13,r31
 13784               	.LM1290:
 13785 4f8c 8981      		ldd r24,Y+1
 13786 4f8e 9A81      		ldd r25,Y+2
 13787 4f90 AB81      		ldd r26,Y+3
 13788 4f92 BC81      		ldd r27,Y+4
 13789 4f94 8030      		cpi r24,lo8(65536)
 13790 4f96 F0E0      		ldi r31,hi8(65536)
 13791 4f98 9F07      		cpc r25,r31
 13792 4f9a F1E0      		ldi r31,hlo8(65536)
 13793 4f9c AF07      		cpc r26,r31
 13794 4f9e F0E0      		ldi r31,hhi8(65536)
 13795 4fa0 BF07      		cpc r27,r31
 13796 4fa2 00F4      		brsh .L785
 13797               	.LVL1217:
 13798               	.LM1291:
 13799 4fa4 21E4      		ldi r18,lo8(65)
 13800 4fa6 30E0      		ldi r19,hi8(65)
 13801 4fa8 C20E      		add r12,r18
 13802 4faa D31E      		adc r13,r19
 13803 4fac F601      		movw r30,r12
 13804 4fae 8193      		st Z+,r24
 13805 4fb0 6F01      		movw r12,r30
 13806 4fb2 8A81      		ldd r24,Y+2
 13807 4fb4 8083      		st Z,r24
 13808 4fb6 2EEB      		ldi r18,lo8(-66)
 13809 4fb8 3FEF      		ldi r19,hi8(-66)
 13810 4fba 00C0      		rjmp .L812
 13811               	.L785:
 13812               	.LM1292:
 13813 4fbc 4EE4      		ldi r20,lo8(78)
 13814 4fbe 50E0      		ldi r21,hi8(78)
 13815 4fc0 C40E      		add r12,r20
 13816 4fc2 D51E      		adc r13,r21
 13817 4fc4 F601      		movw r30,r12
 13818 4fc6 8193      		st Z+,r24
 13819 4fc8 8A81      		ldd r24,Y+2
 13820 4fca DF01      		movw r26,r30
 13821 4fcc 8D93      		st X+,r24
 13822 4fce 6D01      		movw r12,r26
 13823 4fd0 8981      		ldd r24,Y+1
 13824 4fd2 9A81      		ldd r25,Y+2
 13825 4fd4 AB81      		ldd r26,Y+3
 13826 4fd6 BC81      		ldd r27,Y+4
 13827 4fd8 CD01      		movw r24,r26
 13828 4fda AA27      		clr r26
 13829 4fdc BB27      		clr r27
 13830 4fde F601      		movw r30,r12
 13831 4fe0 8193      		st Z+,r24
 13832 4fe2 6F01      		movw r12,r30
 13833 4fe4 8981      		ldd r24,Y+1
 13834 4fe6 9A81      		ldd r25,Y+2
 13835 4fe8 AB81      		ldd r26,Y+3
 13836 4fea BC81      		ldd r27,Y+4
 13837 4fec 8B2F      		mov r24,r27
 13838 4fee 9927      		clr r25
 13839 4ff0 AA27      		clr r26
 13840 4ff2 BB27      		clr r27
 13841 4ff4 8083      		st Z,r24
 13842 4ff6 2FEA      		ldi r18,lo8(-81)
 13843 4ff8 3FEF      		ldi r19,hi8(-81)
 13844               	.L812:
 13845 4ffa C20E      		add r12,r18
 13846 4ffc D31E      		adc r13,r19
 13847               	.LM1293:
 13848 4ffe 43E4      		ldi r20,lo8(67)
 13849 5000 50E0      		ldi r21,hi8(67)
 13850 5002 C40E      		add r12,r20
 13851 5004 D51E      		adc r13,r21
 13852 5006 EC89      		ldd r30,Y+20
 13853 5008 D601      		movw r26,r12
 13854 500a EC93      		st X,r30
 13855               	.LM1294:
 13856 500c 23E0      		ldi r18,lo8(3)
 13857 500e 30E0      		ldi r19,hi8(3)
 13858 5010 C20E      		add r12,r18
 13859 5012 D31E      		adc r13,r19
 13860 5014 8FE3      		ldi r24,lo8(63)
 13861 5016 D601      		movw r26,r12
 13862 5018 8D93      		st X+,r24
 13863 501a FD01      		movw r30,r26
 13864 501c 1192      		st Z+,__zero_reg__
 13865               	.LM1295:
 13866 501e 8FEF      		ldi r24,lo8(-1)
 13867 5020 DF01      		movw r26,r30
 13868 5022 8D93      		st X+,r24
 13869 5024 FD01      		movw r30,r26
 13870 5026 1192      		st Z+,__zero_reg__
 13871               	.LM1296:
 13872 5028 DF01      		movw r26,r30
 13873 502a ED8D      		ldd r30,Y+29
 13874 502c ED93      		st X+,r30
 13875 502e 1D92      		st X+,__zero_reg__
 13876 5030 FD01      		movw r30,r26
 13877 5032 1192      		st Z+,__zero_reg__
 13878 5034 6F01      		movw r12,r30
 13879 5036 1082      		st Z,__zero_reg__
 13880 5038 23EB      		ldi r18,lo8(-77)
 13881 503a 3FEF      		ldi r19,hi8(-77)
 13882 503c C20E      		add r12,r18
 13883 503e D31E      		adc r13,r19
 13884               	.LM1297:
 13885 5040 0E94 0000 		call get_fattime
 13886 5044 6D83      		std Y+5,r22
 13887 5046 7E83      		std Y+6,r23
 13888 5048 8F83      		std Y+7,r24
 13889 504a 9887      		std Y+8,r25
 13890 504c E5E5      		ldi r30,lo8(85)
 13891 504e 8E2E      		mov r8,r30
 13892 5050 912C      		mov r9,__zero_reg__
 13893 5052 8C0C      		add r8,r12
 13894 5054 9D1C      		adc r9,r13
 13895 5056 472F      		mov r20,r23
 13896 5058 5527      		clr r21
 13897 505a 49A7      		std Y+41,r20
 13898 505c 5AA7      		std Y+42,r21
 13899 505e 9C01      		movw r18,r24
 13900 5060 4427      		clr r20
 13901 5062 5527      		clr r21
 13902 5064 2BA7      		std Y+43,r18
 13903 5066 3CA7      		std Y+44,r19
 13904 5068 4DA7      		std Y+45,r20
 13905 506a 5EA7      		std Y+46,r21
 13906 506c E92E      		mov r14,r25
 13907 506e FF24      		clr r15
 13908 5070 0027      		clr r16
 13909 5072 1127      		clr r17
 13910               	.LVL1218:
 13911 5074 A52D      		mov r26,r5
 13912 5076 BB27      		clr r27
 13913 5078 92E5      		ldi r25,lo8(82)
 13914 507a A92E      		mov r10,r25
 13915 507c B12C      		mov r11,__zero_reg__
 13916 507e AC0C      		add r10,r12
 13917 5080 BD1C      		adc r11,r13
 13918 5082 A601      		movw r20,r12
 13919 5084 4C5A      		subi r20,lo8(-(84))
 13920 5086 5F4F      		sbci r21,hi8(-(84))
 13921 5088 4FA3      		std Y+39,r20
 13922 508a 58A7      		std Y+40,r21
 13923               	.LM1298:
 13924 508c 5AA1      		ldd r21,Y+34
 13925 508e 5330      		cpi r21,lo8(3)
 13926 5090 01F0      		breq .L787
 13927               	.LVL1219:
 13928               	.LM1299:
 13929 5092 F401      		movw r30,r8
 13930 5094 6083      		st Z,r22
 13931 5096 26E5      		ldi r18,lo8(86)
 13932 5098 30E0      		ldi r19,hi8(86)
 13933 509a C20E      		add r12,r18
 13934 509c D31E      		adc r13,r19
 13935 509e F601      		movw r30,r12
 13936 50a0 29A5      		ldd r18,Y+41
 13937 50a2 2193      		st Z+,r18
 13938 50a4 2BA5      		ldd r18,Y+43
 13939 50a6 2193      		st Z+,r18
 13940 50a8 6F01      		movw r12,r30
 13941 50aa E082      		st Z,r14
 13942               	.LM1300:
 13943 50ac 4CEE      		ldi r20,lo8(-20)
 13944 50ae 5FEF      		ldi r21,hi8(-20)
 13945 50b0 C40E      		add r12,r20
 13946 50b2 D51E      		adc r13,r21
 13947 50b4 F601      		movw r30,r12
 13948 50b6 4192      		st Z+,r4
 13949 50b8 6F01      		movw r12,r30
 13950 50ba A083      		st Z,r26
 13951 50bc 2BEB      		ldi r18,lo8(-69)
 13952 50be 3FEF      		ldi r19,hi8(-69)
 13953 50c0 C20E      		add r12,r18
 13954 50c2 D31E      		adc r13,r19
 13955               	.LM1301:
 13956 50c4 80E8      		ldi r24,lo8(-128)
 13957 50c6 D501      		movw r26,r10
 13958 50c8 8C93      		st X,r24
 13959               	.LM1302:
 13960 50ca 89E2      		ldi r24,lo8(41)
 13961 50cc EFA1      		ldd r30,Y+39
 13962 50ce F8A5      		ldd r31,Y+40
 13963 50d0 8083      		st Z,r24
 13964               	.LBB625:
 13965               	.LBB626:
 13966               	.LM1303:
 13967 50d2 D101      		movw r26,r2
 13968               	.LVL1220:
 13969 50d4 9B96      		adiw r26,43
 13970 50d6 E0E0      		ldi r30,lo8(.LC1)
 13971 50d8 F0E0      		ldi r31,hi8(.LC1)
 13972               	.LVL1221:
 13973 50da 00C0      		rjmp .L788
 13974               	.L789:
 13975               	.LM1304:
 13976 50dc 8191      		ld r24,Z+
 13977 50de 8D93      		st X+,r24
 13978               	.L788:
 13979 50e0 20E0      		ldi r18,hi8(.LC1+19)
 13980 50e2 E030      		cpi r30,lo8(.LC1+19)
 13981 50e4 F207      		cpc r31,r18
 13982 50e6 01F4      		brne .L789
 13983 50e8 00C0      		rjmp .L790
 13984               	.LVL1222:
 13985               	.L787:
 13986               	.LBE626:
 13987               	.LBE625:
 13988               	.LM1305:
 13989 50ea 41E7      		ldi r20,lo8(113)
 13990 50ec 50E0      		ldi r21,hi8(113)
 13991 50ee C40E      		add r12,r20
 13992 50f0 D51E      		adc r13,r21
 13993 50f2 F601      		movw r30,r12
 13994 50f4 6193      		st Z+,r22
 13995 50f6 29A5      		ldd r18,Y+41
 13996 50f8 2193      		st Z+,r18
 13997 50fa 2BA5      		ldd r18,Y+43
 13998 50fc 2193      		st Z+,r18
 13999 50fe 6F01      		movw r12,r30
 14000 5100 E082      		st Z,r14
 14001               	.LM1306:
 14002 5102 F501      		movw r30,r10
 14003 5104 4082      		st Z,r4
 14004 5106 2FED      		ldi r18,lo8(-33)
 14005 5108 3FEF      		ldi r19,hi8(-33)
 14006 510a C20E      		add r12,r18
 14007 510c D31E      		adc r13,r19
 14008 510e F601      		movw r30,r12
 14009 5110 A083      		st Z,r26
 14010 5112 C301      		movw r24,r6
 14011 5114 AA27      		clr r26
 14012 5116 BB27      		clr r27
 14013 5118 EFA1      		ldd r30,Y+39
 14014 511a F8A5      		ldd r31,Y+40
 14015 511c 8083      		st Z,r24
 14016 511e 872D      		mov r24,r7
 14017 5120 9927      		clr r25
 14018 5122 AA27      		clr r26
 14019 5124 BB27      		clr r27
 14020 5126 F401      		movw r30,r8
 14021 5128 8083      		st Z,r24
 14022               	.LM1307:
 14023 512a 27E0      		ldi r18,lo8(7)
 14024 512c 30E0      		ldi r19,hi8(7)
 14025 512e C20E      		add r12,r18
 14026 5130 D31E      		adc r13,r19
 14027 5132 82E0      		ldi r24,lo8(2)
 14028 5134 D601      		movw r26,r12
 14029 5136 8D93      		st X+,r24
 14030 5138 FD01      		movw r30,r26
 14031 513a 1192      		st Z+,__zero_reg__
 14032 513c DF01      		movw r26,r30
 14033 513e 1D92      		st X+,__zero_reg__
 14034 5140 FD01      		movw r30,r26
 14035 5142 1192      		st Z+,__zero_reg__
 14036               	.LM1308:
 14037 5144 81E0      		ldi r24,lo8(1)
 14038 5146 DF01      		movw r26,r30
 14039 5148 8D93      		st X+,r24
 14040 514a FD01      		movw r30,r26
 14041 514c 1192      		st Z+,__zero_reg__
 14042               	.LM1309:
 14043 514e 86E0      		ldi r24,lo8(6)
 14044 5150 DF01      		movw r26,r30
 14045 5152 8D93      		st X+,r24
 14046 5154 6D01      		movw r12,r26
 14047 5156 1C92      		st X,__zero_reg__
 14048               	.LM1310:
 14049 5158 EDE0      		ldi r30,lo8(13)
 14050 515a F0E0      		ldi r31,hi8(13)
 14051 515c CE0E      		add r12,r30
 14052 515e DF1E      		adc r13,r31
 14053 5160 80E8      		ldi r24,lo8(-128)
 14054 5162 D601      		movw r26,r12
 14055 5164 8C93      		st X,r24
 14056               	.LM1311:
 14057 5166 E2E0      		ldi r30,lo8(2)
 14058 5168 F0E0      		ldi r31,hi8(2)
 14059 516a CE0E      		add r12,r30
 14060 516c DF1E      		adc r13,r31
 14061 516e 89E2      		ldi r24,lo8(41)
 14062 5170 D601      		movw r26,r12
 14063 5172 8C93      		st X,r24
 14064 5174 E0E9      		ldi r30,lo8(-112)
 14065 5176 FFEF      		ldi r31,hi8(-112)
 14066 5178 CE0E      		add r12,r30
 14067 517a DF1E      		adc r13,r31
 14068               	.LBB627:
 14069               	.LBB628:
 14070               	.LM1312:
 14071 517c D101      		movw r26,r2
 14072               	.LVL1223:
 14073 517e A95B      		subi r26,lo8(-(71))
 14074 5180 BF4F      		sbci r27,hi8(-(71))
 14075 5182 E0E0      		ldi r30,lo8(.LC2)
 14076 5184 F0E0      		ldi r31,hi8(.LC2)
 14077               	.LVL1224:
 14078 5186 00C0      		rjmp .L791
 14079               	.L792:
 14080               	.LM1313:
 14081 5188 8191      		ld r24,Z+
 14082 518a 8D93      		st X+,r24
 14083               	.L791:
 14084 518c 20E0      		ldi r18,hi8(.LC2+19)
 14085 518e E030      		cpi r30,lo8(.LC2+19)
 14086 5190 F207      		cpc r31,r18
 14087 5192 01F4      		brne .L792
 14088               	.LVL1225:
 14089               	.L790:
 14090               	.LBE628:
 14091               	.LBE627:
 14092               	.LM1314:
 14093 5194 4CE2      		ldi r20,lo8(556)
 14094 5196 52E0      		ldi r21,hi8(556)
 14095 5198 C40E      		add r12,r20
 14096 519a D51E      		adc r13,r21
 14097 519c 85E5      		ldi r24,lo8(85)
 14098 519e D601      		movw r26,r12
 14099               	.LVL1226:
 14100 51a0 8D93      		st X+,r24
 14101 51a2 6D01      		movw r12,r26
 14102 51a4 8AEA      		ldi r24,lo8(-86)
 14103 51a6 8C93      		st X,r24
 14104 51a8 E3ED      		ldi r30,lo8(-557)
 14105 51aa FDEF      		ldi r31,hi8(-557)
 14106               	.LVL1227:
 14107 51ac CE0E      		add r12,r30
 14108 51ae DF1E      		adc r13,r31
 14109               	.LM1315:
 14110 51b0 8B89      		ldd r24,Y+19
 14111 51b2 B101      		movw r22,r2
 14112               	.LVL1228:
 14113 51b4 2D8D      		ldd r18,Y+29
 14114 51b6 3E8D      		ldd r19,Y+30
 14115 51b8 4F8D      		ldd r20,Y+31
 14116 51ba 58A1      		ldd r21,Y+32
 14117 51bc 01E0      		ldi r16,lo8(1)
 14118 51be 0E94 0000 		call disk_write
 14119 51c2 8823      		tst r24
 14120 51c4 01F0      		breq .+2
 14121 51c6 00C0      		rjmp .L782
 14122               	.LVL1229:
 14123               	.LM1316:
 14124 51c8 FAA1      		ldd r31,Y+34
 14125 51ca F330      		cpi r31,lo8(3)
 14126 51cc 01F4      		brne .L793
 14127               	.LM1317:
 14128 51ce 2D8D      		ldd r18,Y+29
 14129 51d0 3E8D      		ldd r19,Y+30
 14130 51d2 4F8D      		ldd r20,Y+31
 14131 51d4 58A1      		ldd r21,Y+32
 14132 51d6 2A5F      		subi r18,lo8(-(6))
 14133 51d8 3F4F      		sbci r19,hi8(-(6))
 14134 51da 4F4F      		sbci r20,hlo8(-(6))
 14135 51dc 5F4F      		sbci r21,hhi8(-(6))
 14136 51de 8B89      		ldd r24,Y+19
 14137 51e0 B101      		movw r22,r2
 14138 51e2 0E94 0000 		call disk_write
 14139               	.L793:
 14140 51e6 F101      		movw r30,r2
 14141 51e8 80E0      		ldi r24,lo8(512)
 14142 51ea 92E0      		ldi r25,hi8(512)
 14143               	.LVL1230:
 14144 51ec 00C0      		rjmp .L794
 14145               	.LVL1231:
 14146               	.L795:
 14147               	.LBB629:
 14148               	.LBB630:
 14149               	.LM1318:
 14150 51ee 1192      		st Z+,__zero_reg__
 14151               	.L794:
 14152 51f0 0197      		sbiw r24,1
 14153 51f2 2FEF      		ldi r18,hi8(-1)
 14154 51f4 8F3F      		cpi r24,lo8(-1)
 14155 51f6 9207      		cpc r25,r18
 14156 51f8 01F4      		brne .L795
 14157               	.LBE630:
 14158               	.LBE629:
 14159               	.LM1319:
 14160 51fa 3AA1      		ldd r19,Y+34
 14161 51fc 3330      		cpi r19,lo8(3)
 14162 51fe 01F0      		breq .L796
 14163               	.LM1320:
 14164 5200 3130      		cpi r19,lo8(1)
 14165 5202 01F0      		breq .L797
 14166 5204 20E0      		ldi r18,lo8(-256)
 14167 5206 3FEF      		ldi r19,hi8(-256)
 14168 5208 4FEF      		ldi r20,hlo8(-256)
 14169 520a 5FEF      		ldi r21,hhi8(-256)
 14170               	.LVL1232:
 14171 520c 00C0      		rjmp .L798
 14172               	.LVL1233:
 14173               	.L797:
 14174 520e 20E0      		ldi r18,lo8(16776960)
 14175 5210 3FEF      		ldi r19,hi8(16776960)
 14176 5212 4FEF      		ldi r20,hlo8(16776960)
 14177 5214 50E0      		ldi r21,hhi8(16776960)
 14178               	.LVL1234:
 14179               	.L798:
 14180               	.LM1321:
 14181 5216 6C89      		ldd r22,Y+20
 14182 5218 862F      		mov r24,r22
 14183               	.LVL1235:
 14184 521a 90E0      		ldi r25,lo8(0)
 14185               	.LVL1236:
 14186 521c A0E0      		ldi r26,lo8(0)
 14187 521e B0E0      		ldi r27,hi8(0)
 14188               	.LVL1237:
 14189 5220 822B      		or r24,r18
 14190 5222 932B      		or r25,r19
 14191 5224 A42B      		or r26,r20
 14192 5226 B52B      		or r27,r21
 14193               	.LVL1238:
 14194 5228 8D83      		std Y+5,r24
 14195 522a 9E83      		std Y+6,r25
 14196 522c AF83      		std Y+7,r26
 14197 522e B887      		std Y+8,r27
 14198               	.LM1322:
 14199 5230 F601      		movw r30,r12
 14200               	.LVL1239:
 14201 5232 86A7      		std Z+46,r24
 14202 5234 292F      		mov r18,r25
 14203 5236 3327      		clr r19
 14204 5238 27A7      		std Z+47,r18
 14205 523a 9D01      		movw r18,r26
 14206 523c 4427      		clr r20
 14207 523e 5527      		clr r21
 14208 5240 20AB      		std Z+48,r18
 14209 5242 8B2F      		mov r24,r27
 14210 5244 9927      		clr r25
 14211 5246 AA27      		clr r26
 14212 5248 BB27      		clr r27
 14213               	.LVL1240:
 14214 524a 81AB      		std Z+49,r24
 14215 524c 00C0      		rjmp .L799
 14216               	.LVL1241:
 14217               	.L796:
 14218               	.LM1323:
 14219 524e 88EF      		ldi r24,lo8(-8)
 14220               	.LVL1242:
 14221 5250 D601      		movw r26,r12
 14222 5252 9E96      		adiw r26,46
 14223 5254 8C93      		st X,r24
 14224 5256 9E97      		sbiw r26,46
 14225 5258 8FEF      		ldi r24,lo8(-1)
 14226 525a 9F96      		adiw r26,47
 14227 525c 8C93      		st X,r24
 14228 525e 9F97      		sbiw r26,47
 14229 5260 D096      		adiw r26,48
 14230 5262 8C93      		st X,r24
 14231 5264 D097      		sbiw r26,48
 14232 5266 D196      		adiw r26,49
 14233 5268 8C93      		st X,r24
 14234 526a D197      		sbiw r26,49
 14235               	.LM1324:
 14236 526c D296      		adiw r26,50
 14237 526e 8C93      		st X,r24
 14238 5270 D297      		sbiw r26,50
 14239 5272 D396      		adiw r26,51
 14240 5274 8C93      		st X,r24
 14241 5276 D397      		sbiw r26,51
 14242 5278 D496      		adiw r26,52
 14243 527a 8C93      		st X,r24
 14244 527c D497      		sbiw r26,52
 14245 527e D596      		adiw r26,53
 14246 5280 8C93      		st X,r24
 14247 5282 D597      		sbiw r26,53
 14248               	.LM1325:
 14249 5284 D696      		adiw r26,54
 14250 5286 8C93      		st X,r24
 14251 5288 D697      		sbiw r26,54
 14252 528a D796      		adiw r26,55
 14253 528c 8C93      		st X,r24
 14254 528e D797      		sbiw r26,55
 14255 5290 D896      		adiw r26,56
 14256 5292 8C93      		st X,r24
 14257 5294 D897      		sbiw r26,56
 14258 5296 8FE0      		ldi r24,lo8(15)
 14259 5298 D996      		adiw r26,57
 14260 529a 8C93      		st X,r24
 14261               	.LVL1243:
 14262               	.L799:
 14263               	.LM1326:
 14264 529c 8B89      		ldd r24,Y+19
 14265 529e B101      		movw r22,r2
 14266 52a0 2985      		ldd r18,Y+9
 14267 52a2 3A85      		ldd r19,Y+10
 14268 52a4 4B85      		ldd r20,Y+11
 14269 52a6 5C85      		ldd r21,Y+12
 14270 52a8 01E0      		ldi r16,lo8(1)
 14271 52aa 0E94 0000 		call disk_write
 14272 52ae 8823      		tst r24
 14273 52b0 01F0      		breq .+2
 14274 52b2 00C0      		rjmp .L782
 14275 52b4 F101      		movw r30,r2
 14276 52b6 80E0      		ldi r24,lo8(512)
 14277 52b8 92E0      		ldi r25,hi8(512)
 14278               	.LVL1244:
 14279 52ba 00C0      		rjmp .L800
 14280               	.LVL1245:
 14281               	.L801:
 14282               	.LBB631:
 14283               	.LBB632:
 14284               	.LM1327:
 14285 52bc 1192      		st Z+,__zero_reg__
 14286               	.L800:
 14287 52be 0197      		sbiw r24,1
 14288 52c0 BFEF      		ldi r27,hi8(-1)
 14289 52c2 8F3F      		cpi r24,lo8(-1)
 14290 52c4 9B07      		cpc r25,r27
 14291 52c6 01F4      		brne .L801
 14292               	.LBE632:
 14293               	.LBE631:
 14294               	.LM1328:
 14295 52c8 8984      		ldd r8,Y+9
 14296 52ca 9A84      		ldd r9,Y+10
 14297 52cc AB84      		ldd r10,Y+11
 14298 52ce BC84      		ldd r11,Y+12
 14299 52d0 0894      		sec
 14300 52d2 811C      		adc r8,__zero_reg__
 14301 52d4 911C      		adc r9,__zero_reg__
 14302 52d6 A11C      		adc r10,__zero_reg__
 14303 52d8 B11C      		adc r11,__zero_reg__
 14304               	.LVL1246:
 14305               	.LM1329:
 14306 52da 81E0      		ldi r24,lo8(1)
 14307 52dc 90E0      		ldi r25,hi8(1)
 14308 52de A0E0      		ldi r26,hlo8(1)
 14309 52e0 B0E0      		ldi r27,hhi8(1)
 14310               	.LVL1247:
 14311 52e2 00C0      		rjmp .L813
 14312               	.LVL1248:
 14313               	.L803:
 14314               	.LM1330:
 14315 52e4 8B89      		ldd r24,Y+19
 14316               	.LVL1249:
 14317 52e6 B101      		movw r22,r2
 14318 52e8 A501      		movw r20,r10
 14319 52ea 9401      		movw r18,r8
 14320 52ec 01E0      		ldi r16,lo8(1)
 14321 52ee 0E94 0000 		call disk_write
 14322               	.LVL1250:
 14323 52f2 8823      		tst r24
 14324 52f4 01F0      		breq .+2
 14325 52f6 00C0      		rjmp .L782
 14326 52f8 0894      		sec
 14327 52fa 811C      		adc r8,__zero_reg__
 14328 52fc 911C      		adc r9,__zero_reg__
 14329 52fe A11C      		adc r10,__zero_reg__
 14330 5300 B11C      		adc r11,__zero_reg__
 14331               	.LM1331:
 14332 5302 8D81      		ldd r24,Y+5
 14333 5304 9E81      		ldd r25,Y+6
 14334 5306 AF81      		ldd r26,Y+7
 14335 5308 B885      		ldd r27,Y+8
 14336 530a 0196      		adiw r24,1
 14337 530c A11D      		adc r26,__zero_reg__
 14338 530e B11D      		adc r27,__zero_reg__
 14339               	.LVL1251:
 14340               	.L813:
 14341 5310 8D83      		std Y+5,r24
 14342 5312 9E83      		std Y+6,r25
 14343 5314 AF83      		std Y+7,r26
 14344 5316 B887      		std Y+8,r27
 14345 5318 8D81      		ldd r24,Y+5
 14346 531a 9E81      		ldd r25,Y+6
 14347 531c AF81      		ldd r26,Y+7
 14348 531e B885      		ldd r27,Y+8
 14349 5320 8415      		cp r24,r4
 14350 5322 9505      		cpc r25,r5
 14351 5324 A605      		cpc r26,r6
 14352 5326 B705      		cpc r27,r7
 14353 5328 00F0      		brlo .L803
 14354               	.LVL1252:
 14355               	.LM1332:
 14356 532a EAA1      		ldd r30,Y+34
 14357               	.LVL1253:
 14358 532c E330      		cpi r30,lo8(3)
 14359 532e 01F0      		breq .L810
 14360 5330 FD89      		ldd r31,Y+21
 14361 5332 F9A3      		std Y+33,r31
 14362               	.LVL1254:
 14363               	.L810:
 14364               	.LM1333:
 14365 5334 2401      		movw r4,r8
 14366 5336 3501      		movw r6,r10
 14367               	.LVL1255:
 14368 5338 0894      		sec
 14369 533a 411C      		adc r4,__zero_reg__
 14370 533c 511C      		adc r5,__zero_reg__
 14371 533e 611C      		adc r6,__zero_reg__
 14372 5340 711C      		adc r7,__zero_reg__
 14373               	.LVL1256:
 14374 5342 8B89      		ldd r24,Y+19
 14375 5344 B101      		movw r22,r2
 14376 5346 A501      		movw r20,r10
 14377 5348 9401      		movw r18,r8
 14378 534a 01E0      		ldi r16,lo8(1)
 14379 534c 0E94 0000 		call disk_write
 14380 5350 8823      		tst r24
 14381 5352 01F0      		breq .+2
 14382 5354 00C0      		rjmp .L782
 14383               	.LVL1257:
 14384               	.LM1334:
 14385 5356 29A1      		ldd r18,Y+33
 14386 5358 2150      		subi r18,lo8(-(-1))
 14387 535a 29A3      		std Y+33,r18
 14388               	.LVL1258:
 14389 535c 2223      		tst r18
 14390 535e 01F0      		breq .L805
 14391 5360 5301      		movw r10,r6
 14392 5362 4201      		movw r8,r4
 14393 5364 00C0      		rjmp .L810
 14394               	.L805:
 14395               	.LM1335:
 14396 5366 3AA1      		ldd r19,Y+34
 14397 5368 3330      		cpi r19,lo8(3)
 14398 536a 01F0      		breq .+2
 14399 536c 00C0      		rjmp .L806
 14400               	.LM1336:
 14401 536e 4CE2      		ldi r20,lo8(556)
 14402 5370 52E0      		ldi r21,hi8(556)
 14403 5372 C40E      		add r12,r20
 14404 5374 D51E      		adc r13,r21
 14405 5376 85E5      		ldi r24,lo8(85)
 14406 5378 D601      		movw r26,r12
 14407 537a 8D93      		st X+,r24
 14408 537c 6D01      		movw r12,r26
 14409 537e 8AEA      		ldi r24,lo8(-86)
 14410 5380 8C93      		st X,r24
 14411 5382 E3ED      		ldi r30,lo8(-557)
 14412 5384 FDEF      		ldi r31,hi8(-557)
 14413 5386 CE0E      		add r12,r30
 14414 5388 DF1E      		adc r13,r31
 14415               	.LM1337:
 14416 538a 82E5      		ldi r24,lo8(82)
 14417 538c D601      		movw r26,r12
 14418 538e 9E96      		adiw r26,46
 14419 5390 8C93      		st X,r24
 14420 5392 9E97      		sbiw r26,46
 14421 5394 9F96      		adiw r26,47
 14422 5396 8C93      		st X,r24
 14423 5398 9F97      		sbiw r26,47
 14424 539a 21E6      		ldi r18,lo8(97)
 14425 539c D096      		adiw r26,48
 14426 539e 2C93      		st X,r18
 14427 53a0 D097      		sbiw r26,48
 14428 53a2 91E4      		ldi r25,lo8(65)
 14429 53a4 D196      		adiw r26,49
 14430 53a6 9C93      		st X,r25
 14431               	.LM1338:
 14432 53a8 E2E1      		ldi r30,lo8(530)
 14433 53aa F2E0      		ldi r31,hi8(530)
 14434 53ac CE0E      		add r12,r30
 14435 53ae DF1E      		adc r13,r31
 14436 53b0 82E7      		ldi r24,lo8(114)
 14437 53b2 D601      		movw r26,r12
 14438 53b4 8D93      		st X+,r24
 14439 53b6 FD01      		movw r30,r26
 14440 53b8 8193      		st Z+,r24
 14441 53ba DF01      		movw r26,r30
 14442 53bc 9D93      		st X+,r25
 14443 53be FD01      		movw r30,r26
 14444 53c0 2193      		st Z+,r18
 14445               	.LM1339:
 14446 53c2 8BA1      		ldd r24,Y+35
 14447 53c4 8150      		subi r24,lo8(-(-1))
 14448 53c6 DF01      		movw r26,r30
 14449 53c8 8D93      		st X+,r24
 14450 53ca 8BA1      		ldd r24,Y+35
 14451 53cc 9CA1      		ldd r25,Y+36
 14452 53ce 0197      		sbiw r24,1
 14453 53d0 FD01      		movw r30,r26
 14454 53d2 9193      		st Z+,r25
 14455 53d4 8BA1      		ldd r24,Y+35
 14456 53d6 9CA1      		ldd r25,Y+36
 14457 53d8 ADA1      		ldd r26,Y+37
 14458 53da BEA1      		ldd r27,Y+38
 14459 53dc 0197      		sbiw r24,1
 14460 53de A109      		sbc r26,__zero_reg__
 14461 53e0 B109      		sbc r27,__zero_reg__
 14462 53e2 9D01      		movw r18,r26
 14463 53e4 4427      		clr r20
 14464 53e6 5527      		clr r21
 14465 53e8 2193      		st Z+,r18
 14466 53ea 8B2F      		mov r24,r27
 14467 53ec 9927      		clr r25
 14468 53ee AA27      		clr r26
 14469 53f0 BB27      		clr r27
 14470 53f2 8193      		st Z+,r24
 14471               	.LM1340:
 14472 53f4 8FEF      		ldi r24,lo8(-1)
 14473 53f6 DF01      		movw r26,r30
 14474 53f8 8D93      		st X+,r24
 14475 53fa FD01      		movw r30,r26
 14476 53fc 8193      		st Z+,r24
 14477 53fe DF01      		movw r26,r30
 14478 5400 8D93      		st X+,r24
 14479 5402 FD01      		movw r30,r26
 14480 5404 8083      		st Z,r24
 14481               	.LM1341:
 14482 5406 2D8D      		ldd r18,Y+29
 14483 5408 3E8D      		ldd r19,Y+30
 14484 540a 4F8D      		ldd r20,Y+31
 14485 540c 58A1      		ldd r21,Y+32
 14486 540e 2F5F      		subi r18,lo8(-(1))
 14487 5410 3F4F      		sbci r19,hi8(-(1))
 14488 5412 4F4F      		sbci r20,hlo8(-(1))
 14489 5414 5F4F      		sbci r21,hhi8(-(1))
 14490 5416 2D8F      		std Y+29,r18
 14491 5418 3E8F      		std Y+30,r19
 14492 541a 4F8F      		std Y+31,r20
 14493 541c 58A3      		std Y+32,r21
 14494               	.LVL1259:
 14495 541e 8B89      		ldd r24,Y+19
 14496 5420 B101      		movw r22,r2
 14497 5422 01E0      		ldi r16,lo8(1)
 14498 5424 0E94 0000 		call disk_write
 14499               	.LM1342:
 14500 5428 8D8D      		ldd r24,Y+29
 14501 542a 9E8D      		ldd r25,Y+30
 14502 542c AF8D      		ldd r26,Y+31
 14503 542e B8A1      		ldd r27,Y+32
 14504 5430 0696      		adiw r24,6
 14505 5432 A11D      		adc r26,__zero_reg__
 14506 5434 B11D      		adc r27,__zero_reg__
 14507 5436 8D8F      		std Y+29,r24
 14508 5438 9E8F      		std Y+30,r25
 14509 543a AF8F      		std Y+31,r26
 14510 543c B8A3      		std Y+32,r27
 14511               	.LVL1260:
 14512 543e 8B89      		ldd r24,Y+19
 14513 5440 B101      		movw r22,r2
 14514 5442 2D8D      		ldd r18,Y+29
 14515 5444 3E8D      		ldd r19,Y+30
 14516 5446 4F8D      		ldd r20,Y+31
 14517 5448 58A1      		ldd r21,Y+32
 14518 544a 0E94 0000 		call disk_write
 14519               	.LVL1261:
 14520               	.L806:
 14521               	.LM1343:
 14522 544e 8B89      		ldd r24,Y+19
 14523 5450 60E0      		ldi r22,lo8(0)
 14524 5452 40E0      		ldi r20,lo8(0)
 14525 5454 50E0      		ldi r21,hi8(0)
 14526 5456 0E94 0000 		call disk_ioctl
 14527 545a 8823      		tst r24
 14528 545c 01F0      		breq .L751
 14529 545e 00C0      		rjmp .L782
 14530               	.LVL1262:
 14531               	.L752:
 14532 5460 8EE0      		ldi r24,lo8(14)
 14533 5462 00C0      		rjmp .L751
 14534               	.LVL1263:
 14535               	.L782:
 14536 5464 81E0      		ldi r24,lo8(1)
 14537               	.LVL1264:
 14538               	.L751:
 14539               	/* epilogue start */
 14540               	.LM1344:
 14541 5466 AE96      		adiw r28,46
 14542 5468 CDBF      		out __SP_L__,r28
 14543 546a DEBF      		out __SP_H__,r29
 14544 546c CF91      		pop r28
 14545 546e DF91      		pop r29
 14546 5470 1F91      		pop r17
 14547 5472 0F91      		pop r16
 14548 5474 FF90      		pop r15
 14549 5476 EF90      		pop r14
 14550               	.LVL1265:
 14551 5478 DF90      		pop r13
 14552 547a CF90      		pop r12
 14553               	.LVL1266:
 14554 547c BF90      		pop r11
 14555 547e AF90      		pop r10
 14556 5480 9F90      		pop r9
 14557 5482 8F90      		pop r8
 14558               	.LVL1267:
 14559 5484 7F90      		pop r7
 14560 5486 6F90      		pop r6
 14561               	.LVL1268:
 14562 5488 5F90      		pop r5
 14563 548a 4F90      		pop r4
 14564               	.LVL1269:
 14565 548c 3F90      		pop r3
 14566               	.LVL1270:
 14567 548e 2F90      		pop r2
 14568               	.LVL1271:
 14569 5490 0895      		ret
 14570               	.LVL1272:
 14571               	.L767:
 14572               	.LM1345:
 14573 5492 7C01      		movw r14,r24
 14574 5494 8D01      		movw r16,r26
 14575               	.LVL1273:
 14576 5496 EE0C      		lsl r14
 14577 5498 FF1C      		rol r15
 14578 549a 001F      		rol r16
 14579 549c 111F      		rol r17
 14580 549e E80E      		add r14,r24
 14581 54a0 F91E      		adc r15,r25
 14582 54a2 0A1F      		adc r16,r26
 14583 54a4 1B1F      		adc r17,r27
 14584 54a6 0894      		sec
 14585 54a8 E11C      		adc r14,__zero_reg__
 14586 54aa F11C      		adc r15,__zero_reg__
 14587 54ac 011D      		adc r16,__zero_reg__
 14588 54ae 111D      		adc r17,__zero_reg__
 14589 54b0 1695      		lsr r17
 14590 54b2 0795      		ror r16
 14591 54b4 F794      		ror r15
 14592 54b6 E794      		ror r14
 14593 54b8 22E0      		ldi r18,lo8(514)
 14594 54ba 32E0      		ldi r19,hi8(514)
 14595 54bc 40E0      		ldi r20,hlo8(514)
 14596 54be 50E0      		ldi r21,hhi8(514)
 14597 54c0 E20E      		add r14,r18
 14598 54c2 F31E      		adc r15,r19
 14599 54c4 041F      		adc r16,r20
 14600 54c6 151F      		adc r17,r21
 14601 54c8 99E0      		ldi r25,9
 14602 54ca 1695      	1:	lsr r17
 14603 54cc 0795      		ror r16
 14604 54ce F794      		ror r15
 14605 54d0 E794      		ror r14
 14606 54d2 9A95      		dec r25
 14607 54d4 01F4      		brne 1b
 14608               	.LM1346:
 14609 54d6 832D      		mov r24,r3
 14610               	.LVL1274:
 14611 54d8 90E0      		ldi r25,lo8(0)
 14612               	.LVL1275:
 14613 54da 0196      		adiw r24,1
 14614               	.LVL1276:
 14615 54dc 9C01      		movw r18,r24
 14616 54de 4427      		clr r20
 14617 54e0 37FD      		sbrc r19,7
 14618 54e2 4095      		com r20
 14619 54e4 542F      		mov r21,r20
 14620 54e6 298F      		std Y+25,r18
 14621 54e8 3A8F      		std Y+26,r19
 14622 54ea 4B8F      		std Y+27,r20
 14623 54ec 5C8F      		std Y+28,r21
 14624               	.LVL1277:
 14625 54ee 80E2      		ldi r24,lo8(32)
 14626 54f0 90E0      		ldi r25,hi8(32)
 14627 54f2 A0E0      		ldi r26,hlo8(32)
 14628 54f4 B0E0      		ldi r27,hhi8(32)
 14629               	.LVL1278:
 14630 54f6 8D8B      		std Y+21,r24
 14631 54f8 9E8B      		std Y+22,r25
 14632 54fa AF8B      		std Y+23,r26
 14633 54fc B88F      		std Y+24,r27
 14634               	.LVL1279:
 14635 54fe 91E0      		ldi r25,lo8(1)
 14636               	.LVL1280:
 14637 5500 9AA3      		std Y+34,r25
 14638               	.LVL1281:
 14639 5502 00C0      		rjmp .L769
 14640               	.LFE82:
 14642               	.global	f_gets
 14644               	f_gets:
 14645               	.LFB83:
 14646               	.LM1347:
 14647               	.LVL1282:
 14648 5504 6F92      		push r6
 14649 5506 7F92      		push r7
 14650 5508 8F92      		push r8
 14651 550a 9F92      		push r9
 14652 550c AF92      		push r10
 14653 550e BF92      		push r11
 14654 5510 CF92      		push r12
 14655 5512 DF92      		push r13
 14656 5514 EF92      		push r14
 14657 5516 FF92      		push r15
 14658 5518 0F93      		push r16
 14659 551a 1F93      		push r17
 14660 551c DF93      		push r29
 14661 551e CF93      		push r28
 14662 5520 0F92      		push __tmp_reg__
 14663 5522 0F92      		push __tmp_reg__
 14664 5524 CDB7      		in r28,__SP_L__
 14665 5526 DEB7      		in r29,__SP_H__
 14666               	/* prologue: function */
 14667               	/* frame size = 2 */
 14668 5528 5C01      		movw r10,r24
 14669 552a 6B01      		movw r12,r22
 14670 552c 4A01      		movw r8,r20
 14671               	.LM1348:
 14672 552e 8C01      		movw r16,r24
 14673               	.LVL1283:
 14674 5530 EE24      		clr r14
 14675 5532 FF24      		clr r15
 14676               	.LVL1284:
 14677               	.LM1349:
 14678 5534 0894      		sec
 14679 5536 C108      		sbc r12,__zero_reg__
 14680 5538 D108      		sbc r13,__zero_reg__
 14681               	.LM1350:
 14682 553a 3E01      		movw r6,r28
 14683 553c 0894      		sec
 14684 553e 611C      		adc r6,__zero_reg__
 14685 5540 711C      		adc r7,__zero_reg__
 14686 5542 00C0      		rjmp .L815
 14687               	.LVL1285:
 14688               	.L817:
 14689 5544 C401      		movw r24,r8
 14690 5546 B801      		movw r22,r16
 14691               	.LVL1286:
 14692 5548 41E0      		ldi r20,lo8(1)
 14693 554a 50E0      		ldi r21,hi8(1)
 14694 554c 9301      		movw r18,r6
 14695 554e 0E94 0000 		call f_read
 14696               	.LM1351:
 14697 5552 8981      		ldd r24,Y+1
 14698 5554 9A81      		ldd r25,Y+2
 14699 5556 0197      		sbiw r24,1
 14700 5558 01F4      		brne .L816
 14701               	.LVL1287:
 14702               	.LM1352:
 14703 555a 0894      		sec
 14704 555c E11C      		adc r14,__zero_reg__
 14705 555e F11C      		adc r15,__zero_reg__
 14706               	.LM1353:
 14707 5560 F801      		movw r30,r16
 14708 5562 8191      		ld r24,Z+
 14709               	.LVL1288:
 14710 5564 8F01      		movw r16,r30
 14711 5566 8A30      		cpi r24,lo8(10)
 14712 5568 01F0      		breq .L816
 14713               	.LVL1289:
 14714               	.L815:
 14715               	.LM1354:
 14716 556a EC14      		cp r14,r12
 14717 556c FD04      		cpc r15,r13
 14718 556e 04F0      		brlt .L817
 14719               	.LVL1290:
 14720               	.L816:
 14721               	.LM1355:
 14722 5570 F801      		movw r30,r16
 14723 5572 1082      		st Z,__zero_reg__
 14724               	.LM1356:
 14725 5574 EF28      		or r14,r15
 14726 5576 01F4      		brne .L818
 14727 5578 AA24      		clr r10
 14728 557a BB24      		clr r11
 14729               	.LVL1291:
 14730               	.L818:
 14731               	.LM1357:
 14732 557c C501      		movw r24,r10
 14733               	.LVL1292:
 14734               	/* epilogue start */
 14735 557e 0F90      		pop __tmp_reg__
 14736 5580 0F90      		pop __tmp_reg__
 14737 5582 CF91      		pop r28
 14738 5584 DF91      		pop r29
 14739 5586 1F91      		pop r17
 14740 5588 0F91      		pop r16
 14741               	.LVL1293:
 14742 558a FF90      		pop r15
 14743 558c EF90      		pop r14
 14744               	.LVL1294:
 14745 558e DF90      		pop r13
 14746 5590 CF90      		pop r12
 14747 5592 BF90      		pop r11
 14748 5594 AF90      		pop r10
 14749 5596 9F90      		pop r9
 14750 5598 8F90      		pop r8
 14751               	.LVL1295:
 14752 559a 7F90      		pop r7
 14753 559c 6F90      		pop r6
 14754 559e 0895      		ret
 14755               	.LFE83:
 14757               	.global	f_putc
 14759               	f_putc:
 14760               	.LFB84:
 14761               	.LM1358:
 14762               	.LVL1296:
 14763 55a0 0F93      		push r16
 14764 55a2 1F93      		push r17
 14765 55a4 DF93      		push r29
 14766 55a6 CF93      		push r28
 14767 55a8 00D0      		rcall .
 14768 55aa CDB7      		in r28,__SP_L__
 14769 55ac DEB7      		in r29,__SP_H__
 14770               	/* prologue: function */
 14771               	/* frame size = 3 */
 14772 55ae 8C01      		movw r16,r24
 14773               	.LM1359:
 14774 55b0 6115      		cp r22,__zero_reg__
 14775 55b2 7105      		cpc r23,__zero_reg__
 14776 55b4 01F0      		breq .L821
 14777               	.LVL1297:
 14778               	.LM1360:
 14779 55b6 8983      		std Y+1,r24
 14780               	.LVL1298:
 14781               	.LM1361:
 14782 55b8 CB01      		movw r24,r22
 14783 55ba BE01      		movw r22,r28
 14784               	.LVL1299:
 14785 55bc 6F5F      		subi r22,lo8(-(1))
 14786 55be 7F4F      		sbci r23,hi8(-(1))
 14787 55c0 41E0      		ldi r20,lo8(1)
 14788 55c2 50E0      		ldi r21,hi8(1)
 14789 55c4 9E01      		movw r18,r28
 14790 55c6 2E5F      		subi r18,lo8(-(2))
 14791 55c8 3F4F      		sbci r19,hi8(-(2))
 14792 55ca 0E94 0000 		call f_write
 14793               	.LM1362:
 14794 55ce 8A81      		ldd r24,Y+2
 14795 55d0 9B81      		ldd r25,Y+3
 14796               	.LVL1300:
 14797 55d2 892B      		or r24,r25
 14798 55d4 01F4      		brne .L821
 14799               	.LVL1301:
 14800 55d6 0FEF      		ldi r16,lo8(-1)
 14801 55d8 1FEF      		ldi r17,hi8(-1)
 14802               	.LVL1302:
 14803               	.L821:
 14804               	.LM1363:
 14805 55da C801      		movw r24,r16
 14806               	.LVL1303:
 14807               	/* epilogue start */
 14808 55dc 2396      		adiw r28,3
 14809 55de CDBF      		out __SP_L__,r28
 14810 55e0 DEBF      		out __SP_H__,r29
 14811 55e2 CF91      		pop r28
 14812 55e4 DF91      		pop r29
 14813 55e6 1F91      		pop r17
 14814 55e8 0F91      		pop r16
 14815 55ea 0895      		ret
 14816               	.LFE84:
 14818               	.global	f_puts
 14820               	f_puts:
 14821               	.LFB85:
 14822               	.LM1364:
 14823               	.LVL1304:
 14824 55ec EF92      		push r14
 14825 55ee FF92      		push r15
 14826 55f0 0F93      		push r16
 14827 55f2 1F93      		push r17
 14828 55f4 CF93      		push r28
 14829 55f6 DF93      		push r29
 14830               	/* prologue: function */
 14831               	/* frame size = 0 */
 14832 55f8 8C01      		movw r16,r24
 14833 55fa 7B01      		movw r14,r22
 14834               	.LM1365:
 14835 55fc C0E0      		ldi r28,lo8(0)
 14836 55fe D0E0      		ldi r29,hi8(0)
 14837               	.LVL1305:
 14838 5600 00C0      		rjmp .L824
 14839               	.LVL1306:
 14840               	.L827:
 14841               	.LM1366:
 14842 5602 90E0      		ldi r25,lo8(0)
 14843 5604 B701      		movw r22,r14
 14844 5606 0E94 0000 		call f_putc
 14845 560a 8F5F      		subi r24,lo8(-1)
 14846 560c 9F4F      		sbci r25,hi8(-1)
 14847 560e 01F4      		brne .L825
 14848 5610 CFEF      		ldi r28,lo8(-1)
 14849 5612 DFEF      		ldi r29,hi8(-1)
 14850 5614 00C0      		rjmp .L826
 14851               	.L825:
 14852               	.LM1367:
 14853 5616 0F5F      		subi r16,lo8(-(1))
 14854 5618 1F4F      		sbci r17,hi8(-(1))
 14855 561a 2196      		adiw r28,1
 14856               	.LVL1307:
 14857               	.L824:
 14858 561c F801      		movw r30,r16
 14859 561e 8081      		ld r24,Z
 14860 5620 8823      		tst r24
 14861 5622 01F4      		brne .L827
 14862               	.L826:
 14863               	.LM1368:
 14864 5624 CE01      		movw r24,r28
 14865               	.LVL1308:
 14866               	/* epilogue start */
 14867 5626 DF91      		pop r29
 14868 5628 CF91      		pop r28
 14869 562a 1F91      		pop r17
 14870 562c 0F91      		pop r16
 14871               	.LVL1309:
 14872 562e FF90      		pop r15
 14873 5630 EF90      		pop r14
 14874               	.LVL1310:
 14875 5632 0895      		ret
 14876               	.LFE85:
 14878               	.global	SD_Close
 14880               	SD_Close:
 14881               	.LFB89:
 14882               	.LM1369:
 14883               	/* prologue: function */
 14884               	/* frame size = 0 */
 14885               	.LM1370:
 14886 5634 80E0      		ldi r24,lo8(Log_File)
 14887 5636 90E0      		ldi r25,hi8(Log_File)
 14888 5638 0E94 0000 		call f_close
 14889               	/* epilogue start */
 14890               	.LM1371:
 14891 563c 0895      		ret
 14892               	.LFE89:
 14894               	.global	SD_Inserted
 14896               	SD_Inserted:
 14897               	.LFB90:
 14898               	.LM1372:
 14899               	/* prologue: function */
 14900               	/* frame size = 0 */
 14901               	.LM1373:
 14902 563e 8091 0000 		lds r24,sdValid
 14903               	/* epilogue start */
 14904               	.LM1374:
 14905 5642 0895      		ret
 14906               	.LFE90:
 14908               	.global	SD_WriteBuffer
 14910               	SD_WriteBuffer:
 14911               	.LFB95:
 14912               	.LM1375:
 14913               	.LVL1311:
 14914 5644 AF92      		push r10
 14915 5646 BF92      		push r11
 14916 5648 CF92      		push r12
 14917 564a DF92      		push r13
 14918 564c EF92      		push r14
 14919 564e FF92      		push r15
 14920 5650 0F93      		push r16
 14921 5652 1F93      		push r17
 14922 5654 DF93      		push r29
 14923 5656 CF93      		push r28
 14924 5658 0F92      		push __tmp_reg__
 14925 565a 0F92      		push __tmp_reg__
 14926 565c CDB7      		in r28,__SP_L__
 14927 565e DEB7      		in r29,__SP_H__
 14928               	/* prologue: function */
 14929               	/* frame size = 2 */
 14930 5660 5C01      		movw r10,r24
 14931 5662 6B01      		movw r12,r22
 14932               	.LM1376:
 14933 5664 80E0      		ldi r24,lo8(Log_File)
 14934 5666 90E0      		ldi r25,hi8(Log_File)
 14935               	.LVL1312:
 14936 5668 B501      		movw r22,r10
 14937               	.LVL1313:
 14938 566a A601      		movw r20,r12
 14939 566c 9E01      		movw r18,r28
 14940 566e 2F5F      		subi r18,lo8(-(1))
 14941 5670 3F4F      		sbci r19,hi8(-(1))
 14942 5672 0E94 0000 		call f_write
 14943 5676 60E0      		ldi r22,lo8(0)
 14944 5678 70E0      		ldi r23,hi8(0)
 14945               	.LVL1314:
 14946 567a 00C0      		rjmp .L834
 14947               	.L835:
 14948               	.LBB633:
 14949               	.LM1377:
 14950 567c E090 0000 		lds r14,CRC
 14951 5680 F090 0000 		lds r15,(CRC)+1
 14952 5684 0091 0000 		lds r16,(CRC)+2
 14953 5688 1091 0000 		lds r17,(CRC)+3
 14954 568c 2091 0000 		lds r18,CRC
 14955 5690 3091 0000 		lds r19,(CRC)+1
 14956 5694 4091 0000 		lds r20,(CRC)+2
 14957 5698 5091 0000 		lds r21,(CRC)+3
 14958 569c 3070      		andi r19,hi8(255)
 14959 569e 4070      		andi r20,hlo8(255)
 14960 56a0 5070      		andi r21,hhi8(255)
 14961 56a2 F501      		movw r30,r10
 14962 56a4 E60F      		add r30,r22
 14963 56a6 F71F      		adc r31,r23
 14964 56a8 8081      		ld r24,Z
 14965 56aa 90E0      		ldi r25,lo8(0)
 14966 56ac A0E0      		ldi r26,lo8(0)
 14967 56ae B0E0      		ldi r27,hi8(0)
 14968 56b0 2827      		eor r18,r24
 14969 56b2 3927      		eor r19,r25
 14970 56b4 4A27      		eor r20,r26
 14971 56b6 5B27      		eor r21,r27
 14972 56b8 220F      		lsl r18
 14973 56ba 331F      		rol r19
 14974 56bc 220F      		lsl r18
 14975 56be 331F      		rol r19
 14976 56c0 2050      		subi r18,lo8(-(crc_table))
 14977 56c2 3040      		sbci r19,hi8(-(crc_table))
 14978 56c4 EF2C      		mov r14,r15
 14979 56c6 F02E      		mov r15,r16
 14980 56c8 012F      		mov r16,r17
 14981 56ca 1127      		clr r17
 14982 56cc F901      		movw r30,r18
 14983 56ce 8081      		ld r24,Z
 14984 56d0 9181      		ldd r25,Z+1
 14985 56d2 A281      		ldd r26,Z+2
 14986 56d4 B381      		ldd r27,Z+3
 14987 56d6 E826      		eor r14,r24
 14988 56d8 F926      		eor r15,r25
 14989 56da 0A27      		eor r16,r26
 14990 56dc 1B27      		eor r17,r27
 14991 56de E092 0000 		sts CRC,r14
 14992 56e2 F092 0000 		sts (CRC)+1,r15
 14993 56e6 0093 0000 		sts (CRC)+2,r16
 14994 56ea 1093 0000 		sts (CRC)+3,r17
 14995               	.LM1378:
 14996 56ee 6F5F      		subi r22,lo8(-(1))
 14997 56f0 7F4F      		sbci r23,hi8(-(1))
 14998               	.L834:
 14999 56f2 6C15      		cp r22,r12
 15000 56f4 7D05      		cpc r23,r13
 15001 56f6 00F0      		brlo .L835
 15002               	/* epilogue start */
 15003               	.LBE633:
 15004               	.LM1379:
 15005 56f8 0F90      		pop __tmp_reg__
 15006 56fa 0F90      		pop __tmp_reg__
 15007 56fc CF91      		pop r28
 15008 56fe DF91      		pop r29
 15009 5700 1F91      		pop r17
 15010 5702 0F91      		pop r16
 15011 5704 FF90      		pop r15
 15012 5706 EF90      		pop r14
 15013 5708 DF90      		pop r13
 15014 570a CF90      		pop r12
 15015               	.LVL1315:
 15016 570c BF90      		pop r11
 15017 570e AF90      		pop r10
 15018               	.LVL1316:
 15019 5710 0895      		ret
 15020               	.LFE95:
 15022               	.global	SD_Write32
 15024               	SD_Write32:
 15025               	.LFB93:
 15026               	.LM1380:
 15027               	.LVL1317:
 15028               	/* prologue: function */
 15029               	/* frame size = 0 */
 15030               	.LM1381:
 15031 5712 6093 0000 		sts tmp32,r22
 15032               	.LM1382:
 15033 5716 272F      		mov r18,r23
 15034 5718 382F      		mov r19,r24
 15035 571a 492F      		mov r20,r25
 15036 571c 5527      		clr r21
 15037 571e 2093 0000 		sts tmp32+1,r18
 15038               	.LM1383:
 15039 5722 9C01      		movw r18,r24
 15040 5724 4427      		clr r20
 15041 5726 5527      		clr r21
 15042 5728 2093 0000 		sts tmp32+2,r18
 15043               	.LM1384:
 15044 572c 692F      		mov r22,r25
 15045 572e 7727      		clr r23
 15046 5730 8827      		clr r24
 15047 5732 9927      		clr r25
 15048               	.LVL1318:
 15049 5734 6093 0000 		sts tmp32+3,r22
 15050               	.LM1385:
 15051 5738 80E0      		ldi r24,lo8(tmp32)
 15052 573a 90E0      		ldi r25,hi8(tmp32)
 15053 573c 64E0      		ldi r22,lo8(4)
 15054 573e 70E0      		ldi r23,hi8(4)
 15055 5740 0E94 0000 		call SD_WriteBuffer
 15056               	/* epilogue start */
 15057               	.LM1386:
 15058 5744 0895      		ret
 15059               	.LFE93:
 15061               	.global	SD_Write16
 15063               	SD_Write16:
 15064               	.LFB92:
 15065               	.LM1387:
 15066               	.LVL1319:
 15067               	/* prologue: function */
 15068               	/* frame size = 0 */
 15069               	.LM1388:
 15070 5746 8093 0000 		sts tmp16,r24
 15071               	.LM1389:
 15072 574a 9093 0000 		sts tmp16+1,r25
 15073               	.LVL1320:
 15074               	.LM1390:
 15075 574e 80E0      		ldi r24,lo8(tmp16)
 15076 5750 90E0      		ldi r25,hi8(tmp16)
 15077               	.LVL1321:
 15078 5752 62E0      		ldi r22,lo8(2)
 15079 5754 70E0      		ldi r23,hi8(2)
 15080 5756 0E94 0000 		call SD_WriteBuffer
 15081               	.LVL1322:
 15082               	/* epilogue start */
 15083               	.LM1391:
 15084 575a 0895      		ret
 15085               	.LFE92:
 15087               	.global	SD_Write8
 15089               	SD_Write8:
 15090               	.LFB91:
 15091               	.LM1392:
 15092               	.LVL1323:
 15093               	/* prologue: function */
 15094               	/* frame size = 0 */
 15095               	.LM1393:
 15096 575c 8093 0000 		sts tmp8,r24
 15097               	.LM1394:
 15098 5760 80E0      		ldi r24,lo8(tmp8)
 15099 5762 90E0      		ldi r25,hi8(tmp8)
 15100               	.LVL1324:
 15101 5764 61E0      		ldi r22,lo8(1)
 15102 5766 70E0      		ldi r23,hi8(1)
 15103 5768 0E94 0000 		call SD_WriteBuffer
 15104               	/* epilogue start */
 15105               	.LM1395:
 15106 576c 0895      		ret
 15107               	.LFE91:
 15109               	.global	SD_ClearCRC
 15111               	SD_ClearCRC:
 15112               	.LFB96:
 15113               	.LM1396:
 15114               	/* prologue: function */
 15115               	/* frame size = 0 */
 15116               	.LM1397:
 15117 576e 8FEF      		ldi r24,lo8(-1)
 15118 5770 9FEF      		ldi r25,hi8(-1)
 15119 5772 AFEF      		ldi r26,hlo8(-1)
 15120 5774 BFEF      		ldi r27,hhi8(-1)
 15121 5776 8093 0000 		sts CRC,r24
 15122 577a 9093 0000 		sts (CRC)+1,r25
 15123 577e A093 0000 		sts (CRC)+2,r26
 15124 5782 B093 0000 		sts (CRC)+3,r27
 15125               	/* epilogue start */
 15126               	.LM1398:
 15127 5786 0895      		ret
 15128               	.LFE96:
 15130               	.global	SD_WriteCRC
 15132               	SD_WriteCRC:
 15133               	.LFB97:
 15134               	.LM1399:
 15135               	/* prologue: function */
 15136               	/* frame size = 0 */
 15137               	.LM1400:
 15138 5788 6091 0000 		lds r22,CRC
 15139 578c 7091 0000 		lds r23,(CRC)+1
 15140 5790 8091 0000 		lds r24,(CRC)+2
 15141 5794 9091 0000 		lds r25,(CRC)+3
 15142 5798 6095      		com r22
 15143 579a 7095      		com r23
 15144 579c 8095      		com r24
 15145 579e 9095      		com r25
 15146 57a0 0E94 0000 		call SD_Write32
 15147               	/* epilogue start */
 15148               	.LM1401:
 15149 57a4 0895      		ret
 15150               	.LFE97:
 15152               		.data
 15153               	.LC3:
 15154 0033 303A 00   		.string	"0:"
 15155               		.text
 15156               	.global	SD_GetSpaceRemaining
 15158               	SD_GetSpaceRemaining:
 15159               	.LFB100:
 15160               	.LM1402:
 15161 57a6 EF92      		push r14
 15162 57a8 FF92      		push r15
 15163 57aa 0F93      		push r16
 15164 57ac 1F93      		push r17
 15165 57ae DF93      		push r29
 15166 57b0 CF93      		push r28
 15167 57b2 00D0      		rcall .
 15168 57b4 0F92      		push __tmp_reg__
 15169 57b6 CDB7      		in r28,__SP_L__
 15170 57b8 DEB7      		in r29,__SP_H__
 15171               	/* prologue: function */
 15172               	/* frame size = 4 */
 15173               	.LM1403:
 15174 57ba 80E0      		ldi r24,lo8(.LC3)
 15175 57bc 90E0      		ldi r25,hi8(.LC3)
 15176 57be BE01      		movw r22,r28
 15177 57c0 6F5F      		subi r22,lo8(-(1))
 15178 57c2 7F4F      		sbci r23,hi8(-(1))
 15179 57c4 40E0      		ldi r20,lo8(fs)
 15180 57c6 50E0      		ldi r21,hi8(fs)
 15181 57c8 0E94 0000 		call f_getfree
 15182               	.LM1404:
 15183 57cc E091 0000 		lds r30,fs
 15184 57d0 F091 0000 		lds r31,(fs)+1
 15185 57d4 E28C      		ldd r14,Z+26
 15186 57d6 F38C      		ldd r15,Z+27
 15187 57d8 048D      		ldd r16,Z+28
 15188 57da 158D      		ldd r17,Z+29
 15189               	.LVL1325:
 15190               	.LM1405:
 15191 57dc 8981      		ldd r24,Y+1
 15192 57de 9A81      		ldd r25,Y+2
 15193 57e0 AB81      		ldd r26,Y+3
 15194 57e2 BC81      		ldd r27,Y+4
 15195               	.LVL1326:
 15196 57e4 A801      		movw r20,r16
 15197 57e6 9701      		movw r18,r14
 15198 57e8 281B      		sub r18,r24
 15199 57ea 390B      		sbc r19,r25
 15200 57ec 4A0B      		sbc r20,r26
 15201 57ee 5B0B      		sbc r21,r27
 15202 57f0 CA01      		movw r24,r20
 15203 57f2 B901      		movw r22,r18
 15204               	.LVL1327:
 15205               	.LM1406:
 15206 57f4 28EE      		ldi r18,lo8(1000)
 15207 57f6 33E0      		ldi r19,hi8(1000)
 15208 57f8 40E0      		ldi r20,hlo8(1000)
 15209 57fa 50E0      		ldi r21,hhi8(1000)
 15210 57fc 0E94 0000 		call __mulsi3
 15211               	.LVL1328:
 15212               	.LM1407:
 15213 5800 A801      		movw r20,r16
 15214 5802 9701      		movw r18,r14
 15215 5804 0E94 0000 		call __udivmodsi4
 15216 5808 2093 0000 		sts percentDiskUsed,r18
 15217 580c 3093 0000 		sts (percentDiskUsed)+1,r19
 15218 5810 4093 0000 		sts (percentDiskUsed)+2,r20
 15219 5814 5093 0000 		sts (percentDiskUsed)+3,r21
 15220               	/* epilogue start */
 15221               	.LM1408:
 15222 5818 2496      		adiw r28,4
 15223 581a CDBF      		out __SP_L__,r28
 15224 581c DEBF      		out __SP_H__,r29
 15225 581e CF91      		pop r28
 15226 5820 DF91      		pop r29
 15227 5822 1F91      		pop r17
 15228 5824 0F91      		pop r16
 15229 5826 FF90      		pop r15
 15230 5828 EF90      		pop r14
 15231               	.LVL1329:
 15232 582a 0895      		ret
 15233               	.LFE100:
 15235               	.global	SD_Timer_Init
 15237               	SD_Timer_Init:
 15238               	.LFB101:
 15239               	.LM1409:
 15240               	/* prologue: function */
 15241               	/* frame size = 0 */
 15242               	.LM1410:
 15243 582c E0E0      		ldi r30,lo8(2560)
 15244 582e FAE0      		ldi r31,hi8(2560)
 15245 5830 80E4      		ldi r24,lo8(576)
 15246 5832 92E0      		ldi r25,hi8(576)
 15247 5834 86A3      		std Z+38,r24
 15248 5836 97A3      		std Z+39,r25
 15249               	.LM1411:
 15250 5838 8081      		ld r24,Z
 15251 583a 807F      		andi r24,lo8(-16)
 15252 583c 8660      		ori r24,lo8(6)
 15253 583e 8083      		st Z,r24
 15254               	.LM1412:
 15255 5840 8681      		ldd r24,Z+6
 15256 5842 8C7F      		andi r24,lo8(-4)
 15257 5844 8260      		ori r24,lo8(2)
 15258 5846 8683      		std Z+6,r24
 15259               	/* epilogue start */
 15260               	.LM1413:
 15261 5848 0895      		ret
 15262               	.LFE101:
 15264               	.global	SD_Init
 15266               	SD_Init:
 15267               	.LFB87:
 15268               	.LM1414:
 15269 584a 1F93      		push r17
 15270               	/* prologue: function */
 15271               	/* frame size = 0 */
 15272               	.LM1415:
 15273 584c 80E1      		ldi r24,lo8(16)
 15274 584e E0EA      		ldi r30,lo8(1696)
 15275 5850 F6E0      		ldi r31,hi8(1696)
 15276 5852 8283      		std Z+2,r24
 15277               	.LM1416:
 15278 5854 0E94 0000 		call SD_Timer_Init
 15279               	.LM1417:
 15280 5858 80E0      		ldi r24,lo8(0)
 15281 585a 0E94 0000 		call disk_initialize
 15282 585e 182F      		mov r17,r24
 15283               	.LVL1330:
 15284               	.LM1418:
 15285 5860 80E0      		ldi r24,lo8(0)
 15286 5862 60E0      		ldi r22,lo8(fso0)
 15287 5864 70E0      		ldi r23,hi8(fso0)
 15288 5866 0E94 0000 		call f_mount
 15289               	.LM1419:
 15290 586a 81E0      		ldi r24,lo8(1)
 15291 586c 60E0      		ldi r22,lo8(fso1)
 15292 586e 70E0      		ldi r23,hi8(fso1)
 15293 5870 0E94 0000 		call f_mount
 15294               	.LM1420:
 15295 5874 1123      		tst r17
 15296 5876 01F4      		brne .L852
 15297               	.LM1421:
 15298 5878 81E0      		ldi r24,lo8(1)
 15299 587a 8093 0000 		sts sdValid,r24
 15300               	.LM1422:
 15301 587e 0E94 0000 		call SD_GetSpaceRemaining
 15302 5882 00C0      		rjmp .L853
 15303               	.L852:
 15304               	.LM1423:
 15305 5884 1092 0000 		sts sdValid,__zero_reg__
 15306               	.L853:
 15307               	.LM1424:
 15308 5888 80E3      		ldi r24,lo8(48)
 15309 588a E0EA      		ldi r30,lo8(1696)
 15310 588c F6E0      		ldi r31,hi8(1696)
 15311 588e 848B      		std Z+20,r24
 15312               	.LM1425:
 15313 5890 812F      		mov r24,r17
 15314               	/* epilogue start */
 15315 5892 1F91      		pop r17
 15316               	.LVL1331:
 15317 5894 0895      		ret
 15318               	.LFE87:
 15320               	.global	__vector_47
 15322               	__vector_47:
 15323               	.LFB102:
 15324               	.LM1426:
 15325 5896 1F92      		push __zero_reg__
 15326 5898 0F92      		push r0
 15327 589a 0FB6      		in r0,__SREG__
 15328 589c 0F92      		push r0
 15329 589e 0BB6      		in r0,59-0
 15330 58a0 0F92      		push r0
 15331 58a2 1124      		clr __zero_reg__
 15332 58a4 2F93      		push r18
 15333 58a6 3F93      		push r19
 15334 58a8 4F93      		push r20
 15335 58aa 5F93      		push r21
 15336 58ac 6F93      		push r22
 15337 58ae 7F93      		push r23
 15338 58b0 8F93      		push r24
 15339 58b2 9F93      		push r25
 15340 58b4 AF93      		push r26
 15341 58b6 BF93      		push r27
 15342 58b8 EF93      		push r30
 15343 58ba FF93      		push r31
 15344               	/* prologue: Signal */
 15345               	/* frame size = 0 */
 15346               	.LM1427:
 15347 58bc 0E94 0000 		call disk_timerproc
 15348               	.LM1428:
 15349 58c0 8091 0000 		lds r24,sdValid
 15350 58c4 8823      		tst r24
 15351 58c6 01F4      		brne .L857
 15352               	.LM1429:
 15353 58c8 8091 A806 		lds r24,1704
 15354 58cc 84FD      		sbrc r24,4
 15355 58ce 00C0      		rjmp .L857
 15356               	.LM1430:
 15357 58d0 0E94 0000 		call SD_Init
 15358               	.L857:
 15359               	/* epilogue start */
 15360               	.LM1431:
 15361 58d4 FF91      		pop r31
 15362 58d6 EF91      		pop r30
 15363 58d8 BF91      		pop r27
 15364 58da AF91      		pop r26
 15365 58dc 9F91      		pop r25
 15366 58de 8F91      		pop r24
 15367 58e0 7F91      		pop r23
 15368 58e2 6F91      		pop r22
 15369 58e4 5F91      		pop r21
 15370 58e6 4F91      		pop r20
 15371 58e8 3F91      		pop r19
 15372 58ea 2F91      		pop r18
 15373 58ec 0F90      		pop r0
 15374 58ee 0BBE      		out 59-0,r0
 15375 58f0 0F90      		pop r0
 15376 58f2 0FBE      		out __SREG__,r0
 15377 58f4 0F90      		pop r0
 15378 58f6 1F90      		pop __zero_reg__
 15379 58f8 1895      		reti
 15380               	.LFE102:
 15382               	.global	Button_Init
 15384               	Button_Init:
 15385               	.LFB103:
 15386               	.LM1432:
 15387               	.LVL1332:
 15388 58fa 0F93      		push r16
 15389               	.LVL1333:
 15390               	/* prologue: function */
 15391               	/* frame size = 0 */
 15392               	.LM1433:
 15393 58fc E1E0      		ldi r30,lo8(1)
 15394 58fe F0E0      		ldi r31,hi8(1)
 15395 5900 00C0      		rjmp 2f
 15396 5902 EE0F      	1:	lsl r30
 15397 5904 FF1F      		rol r31
 15398 5906 8A95      	2:	dec r24
 15399 5908 02F4      		brpl 1b
 15400 590a A0EA      		ldi r26,lo8(1696)
 15401 590c B6E0      		ldi r27,hi8(1696)
 15402 590e 1296      		adiw r26,2
 15403 5910 EC93      		st X,r30
 15404 5912 1297      		sbiw r26,2
 15405               	.LM1434:
 15406 5914 E093 B000 		sts 176,r30
 15407               	.LM1435:
 15408 5918 4863      		ori r20,lo8(56)
 15409               	.LVL1334:
 15410 591a 5096      		adiw r26,16
 15411 591c 4C93      		st X,r20
 15412 591e 5097      		sbiw r26,16
 15413               	.LM1436:
 15414 5920 6623      		tst r22
 15415 5922 01F0      		breq .L861
 15416               	.LM1437:
 15417 5924 2223      		tst r18
 15418 5926 01F4      		brne .L860
 15419               	.LM1438:
 15420 5928 1A96      		adiw r26,10
 15421 592a EC93      		st X,r30
 15422 592c 1A97      		sbiw r26,10
 15423               	.LM1439:
 15424 592e 8091 A906 		lds r24,1705
 15425               	.LVL1335:
 15426 5932 00C0      		rjmp .L862
 15427               	.LVL1336:
 15428               	.L860:
 15429               	.LM1440:
 15430 5934 2130      		cpi r18,lo8(1)
 15431 5936 01F4      		brne .L861
 15432               	.LM1441:
 15433 5938 1B96      		adiw r26,11
 15434 593a EC93      		st X,r30
 15435 593c 1B97      		sbiw r26,11
 15436               	.LM1442:
 15437 593e 8091 A906 		lds r24,1705
 15438               	.LVL1337:
 15439 5942 000F      		lsl r16
 15440 5944 000F      		lsl r16
 15441               	.LVL1338:
 15442               	.L862:
 15443 5946 802B      		or r24,r16
 15444 5948 1996      		adiw r26,9
 15445 594a 8C93      		st X,r24
 15446               	.LVL1339:
 15447               	.L861:
 15448               	/* epilogue start */
 15449               	.LM1443:
 15450 594c 0F91      		pop r16
 15451               	.LVL1340:
 15452 594e 0895      		ret
 15453               	.LFE103:
 15455               	.global	Button_Pressed
 15457               	Button_Pressed:
 15458               	.LFB104:
 15459               	.LM1444:
 15460               	.LVL1341:
 15461               	/* prologue: function */
 15462               	/* frame size = 0 */
 15463               	.LM1445:
 15464 5950 4091 A806 		lds r20,1704
 15465 5954 90E0      		ldi r25,lo8(0)
 15466 5956 21E0      		ldi r18,lo8(1)
 15467 5958 30E0      		ldi r19,hi8(1)
 15468 595a 00C0      		rjmp 2f
 15469 595c 220F      	1:	lsl r18
 15470 595e 331F      		rol r19
 15471 5960 8A95      	2:	dec r24
 15472 5962 02F4      		brpl 1b
 15473 5964 50E0      		ldi r21,lo8(0)
 15474 5966 2423      		and r18,r20
 15475 5968 3523      		and r19,r21
 15476 596a 1216      		cp __zero_reg__,r18
 15477 596c 1306      		cpc __zero_reg__,r19
 15478 596e 04F0      		brlt .L864
 15479 5970 91E0      		ldi r25,lo8(1)
 15480               	.L864:
 15481               	.LM1446:
 15482 5972 892F      		mov r24,r25
 15483               	.LVL1342:
 15484               	/* epilogue start */
 15485 5974 0895      		ret
 15486               	.LFE104:
 15488               	.global	Accel_Write_Byte
 15490               	Accel_Write_Byte:
 15491               	.LFB106:
 15492               	.LM1447:
 15493               	.LVL1343:
 15494               	/* prologue: function */
 15495               	/* frame size = 0 */
 15496               	.LM1448:
 15497 5976 E0EC      		ldi r30,lo8(2240)
 15498 5978 F8E0      		ldi r31,hi8(2240)
 15499 597a 8383      		std Z+3,r24
 15500               	.L867:
 15501               	.LM1449:
 15502 597c 8091 C208 		lds r24,2242
 15503               	.LVL1344:
 15504 5980 87FF      		sbrs r24,7
 15505 5982 00C0      		rjmp .L867
 15506               	/* epilogue start */
 15507               	.LM1450:
 15508 5984 0895      		ret
 15509               	.LFE106:
 15511               	.global	Accel_Read_Byte
 15513               	Accel_Read_Byte:
 15514               	.LFB107:
 15515               	.LM1451:
 15516               	/* prologue: function */
 15517               	/* frame size = 0 */
 15518               	.LBB634:
 15519               	.LBB635:
 15520               	.LM1452:
 15521 5986 E0EC      		ldi r30,lo8(2240)
 15522 5988 F8E0      		ldi r31,hi8(2240)
 15523 598a 1382      		std Z+3,__zero_reg__
 15524               	.L871:
 15525               	.LM1453:
 15526 598c 8091 C208 		lds r24,2242
 15527 5990 87FF      		sbrs r24,7
 15528 5992 00C0      		rjmp .L871
 15529               	.LBE635:
 15530               	.LBE634:
 15531               	.LM1454:
 15532 5994 8091 C308 		lds r24,2243
 15533               	/* epilogue start */
 15534               	.LM1455:
 15535 5998 0895      		ret
 15536               	.LFE107:
 15538               	.global	Accel_WriteToAddress
 15540               	Accel_WriteToAddress:
 15541               	.LFB108:
 15542               	.LM1456:
 15543               	.LVL1345:
 15544               	/* prologue: function */
 15545               	/* frame size = 0 */
 15546               	.LM1457:
 15547 599a 90E1      		ldi r25,lo8(16)
 15548 599c E0E4      		ldi r30,lo8(1600)
 15549 599e F6E0      		ldi r31,hi8(1600)
 15550 59a0 9683      		std Z+6,r25
 15551               	.LM1458:
 15552 59a2 8F73      		andi r24,lo8(63)
 15553               	.LVL1346:
 15554               	.LBB636:
 15555               	.LBB637:
 15556               	.LM1459:
 15557 59a4 E0EC      		ldi r30,lo8(2240)
 15558 59a6 F8E0      		ldi r31,hi8(2240)
 15559 59a8 8383      		std Z+3,r24
 15560               	.L875:
 15561               	.LM1460:
 15562 59aa 8091 C208 		lds r24,2242
 15563 59ae 87FF      		sbrs r24,7
 15564 59b0 00C0      		rjmp .L875
 15565               	.LBE637:
 15566               	.LBE636:
 15567               	.LBB638:
 15568               	.LBB639:
 15569               	.LM1461:
 15570 59b2 E0EC      		ldi r30,lo8(2240)
 15571 59b4 F8E0      		ldi r31,hi8(2240)
 15572 59b6 6383      		std Z+3,r22
 15573               	.L876:
 15574               	.LM1462:
 15575 59b8 8091 C208 		lds r24,2242
 15576 59bc 87FF      		sbrs r24,7
 15577 59be 00C0      		rjmp .L876
 15578               	.LBE639:
 15579               	.LBE638:
 15580               	.LM1463:
 15581 59c0 80E1      		ldi r24,lo8(16)
 15582 59c2 E0E4      		ldi r30,lo8(1600)
 15583 59c4 F6E0      		ldi r31,hi8(1600)
 15584 59c6 8583      		std Z+5,r24
 15585               	/* epilogue start */
 15586               	.LM1464:
 15587 59c8 0895      		ret
 15588               	.LFE108:
 15590               	.global	Accel_ReadFromAddress
 15592               	Accel_ReadFromAddress:
 15593               	.LFB109:
 15594               	.LM1465:
 15595               	.LVL1347:
 15596               	/* prologue: function */
 15597               	/* frame size = 0 */
 15598               	.LM1466:
 15599 59ca 90E1      		ldi r25,lo8(16)
 15600 59cc E0E4      		ldi r30,lo8(1600)
 15601 59ce F6E0      		ldi r31,hi8(1600)
 15602 59d0 9683      		std Z+6,r25
 15603               	.LM1467:
 15604 59d2 8068      		ori r24,lo8(-128)
 15605               	.LVL1348:
 15606               	.LBB640:
 15607               	.LBB641:
 15608               	.LM1468:
 15609 59d4 E0EC      		ldi r30,lo8(2240)
 15610 59d6 F8E0      		ldi r31,hi8(2240)
 15611 59d8 8383      		std Z+3,r24
 15612               	.L881:
 15613               	.LM1469:
 15614 59da 8091 C208 		lds r24,2242
 15615 59de 87FF      		sbrs r24,7
 15616 59e0 00C0      		rjmp .L881
 15617               	.LBE641:
 15618               	.LBE640:
 15619               	.LBB642:
 15620               	.LBB643:
 15621               	.LBB644:
 15622               	.LBB645:
 15623               	.LM1470:
 15624 59e2 E0EC      		ldi r30,lo8(2240)
 15625 59e4 F8E0      		ldi r31,hi8(2240)
 15626 59e6 1382      		std Z+3,__zero_reg__
 15627               	.L882:
 15628               	.LM1471:
 15629 59e8 8091 C208 		lds r24,2242
 15630 59ec 87FF      		sbrs r24,7
 15631 59ee 00C0      		rjmp .L882
 15632               	.LBE645:
 15633               	.LBE644:
 15634               	.LM1472:
 15635 59f0 8091 C308 		lds r24,2243
 15636               	.LVL1349:
 15637               	.LBE643:
 15638               	.LBE642:
 15639               	.LM1473:
 15640 59f4 90E1      		ldi r25,lo8(16)
 15641 59f6 E0E4      		ldi r30,lo8(1600)
 15642 59f8 F6E0      		ldi r31,hi8(1600)
 15643 59fa 9583      		std Z+5,r25
 15644               	.LVL1350:
 15645               	/* epilogue start */
 15646               	.LM1474:
 15647 59fc 0895      		ret
 15648               	.LFE109:
 15650               	.global	Accel_ReadResults
 15652               	Accel_ReadResults:
 15653               	.LFB110:
 15654               	.LM1475:
 15655               	.LVL1351:
 15656 59fe CF93      		push r28
 15657 5a00 DF93      		push r29
 15658               	/* prologue: function */
 15659               	/* frame size = 0 */
 15660 5a02 9C01      		movw r18,r24
 15661 5a04 DA01      		movw r26,r20
 15662               	.LM1476:
 15663 5a06 80E1      		ldi r24,lo8(16)
 15664               	.LVL1352:
 15665 5a08 E0E4      		ldi r30,lo8(1600)
 15666 5a0a F6E0      		ldi r31,hi8(1600)
 15667 5a0c 8683      		std Z+6,r24
 15668               	.LBB646:
 15669               	.LBB647:
 15670               	.LM1477:
 15671 5a0e 82EF      		ldi r24,lo8(-14)
 15672 5a10 E0EC      		ldi r30,lo8(2240)
 15673 5a12 F8E0      		ldi r31,hi8(2240)
 15674 5a14 8383      		std Z+3,r24
 15675               	.LVL1353:
 15676               	.L887:
 15677               	.LM1478:
 15678 5a16 8091 C208 		lds r24,2242
 15679 5a1a 87FF      		sbrs r24,7
 15680 5a1c 00C0      		rjmp .L887
 15681               	.LBE647:
 15682               	.LBE646:
 15683               	.LM1479:
 15684 5a1e E62F      		mov r30,r22
 15685 5a20 F0E0      		ldi r31,lo8(0)
 15686               	.LVL1354:
 15687 5a22 EE0F      		lsl r30
 15688 5a24 FF1F      		rol r31
 15689               	.LVL1355:
 15690 5a26 E20F      		add r30,r18
 15691 5a28 F31F      		adc r31,r19
 15692               	.LVL1356:
 15693 5a2a C081      		ld r28,Z
 15694 5a2c D181      		ldd r29,Z+1
 15695               	.LBB648:
 15696               	.LBB649:
 15697               	.LBB650:
 15698               	.LBB651:
 15699               	.LM1480:
 15700 5a2e E0EC      		ldi r30,lo8(2240)
 15701 5a30 F8E0      		ldi r31,hi8(2240)
 15702               	.LVL1357:
 15703 5a32 1382      		std Z+3,__zero_reg__
 15704               	.L888:
 15705               	.LM1481:
 15706 5a34 8091 C208 		lds r24,2242
 15707 5a38 87FF      		sbrs r24,7
 15708 5a3a 00C0      		rjmp .L888
 15709               	.LBE651:
 15710               	.LBE650:
 15711               	.LM1482:
 15712 5a3c 2091 C308 		lds r18,2243
 15713               	.LVL1358:
 15714               	.LBE649:
 15715               	.LBE648:
 15716               	.LBB652:
 15717               	.LBB653:
 15718               	.LBB654:
 15719               	.LBB655:
 15720               	.LM1483:
 15721 5a40 E0EC      		ldi r30,lo8(2240)
 15722 5a42 F8E0      		ldi r31,hi8(2240)
 15723 5a44 1382      		std Z+3,__zero_reg__
 15724               	.L889:
 15725               	.LM1484:
 15726 5a46 8091 C208 		lds r24,2242
 15727 5a4a 87FF      		sbrs r24,7
 15728 5a4c 00C0      		rjmp .L889
 15729               	.LBE655:
 15730               	.LBE654:
 15731               	.LM1485:
 15732 5a4e 4091 C308 		lds r20,2243
 15733               	.LBE653:
 15734               	.LBE652:
 15735               	.LM1486:
 15736 5a52 FD01      		movw r30,r26
 15737 5a54 EE0F      		lsl r30
 15738 5a56 FF1F      		rol r31
 15739 5a58 EC0F      		add r30,r28
 15740 5a5a FD1F      		adc r31,r29
 15741 5a5c 30E0      		ldi r19,lo8(0)
 15742 5a5e 2050      		subi r18,lo8(-(1024))
 15743 5a60 3C4F      		sbci r19,hi8(-(1024))
 15744 5a62 942F      		mov r25,r20
 15745 5a64 80E0      		ldi r24,lo8(0)
 15746 5a66 280F      		add r18,r24
 15747 5a68 391F      		adc r19,r25
 15748 5a6a 2083      		st Z,r18
 15749 5a6c 3183      		std Z+1,r19
 15750               	.LBB656:
 15751               	.LBB657:
 15752               	.LBB658:
 15753               	.LBB659:
 15754               	.LM1487:
 15755 5a6e E0EC      		ldi r30,lo8(2240)
 15756 5a70 F8E0      		ldi r31,hi8(2240)
 15757 5a72 1382      		std Z+3,__zero_reg__
 15758               	.L890:
 15759               	.LM1488:
 15760 5a74 8091 C208 		lds r24,2242
 15761 5a78 87FF      		sbrs r24,7
 15762 5a7a 00C0      		rjmp .L890
 15763               	.LBE659:
 15764               	.LBE658:
 15765               	.LM1489:
 15766 5a7c 2091 C308 		lds r18,2243
 15767               	.LBE657:
 15768               	.LBE656:
 15769               	.LBB660:
 15770               	.LBB661:
 15771               	.LBB662:
 15772               	.LBB663:
 15773               	.LM1490:
 15774 5a80 E0EC      		ldi r30,lo8(2240)
 15775 5a82 F8E0      		ldi r31,hi8(2240)
 15776 5a84 1382      		std Z+3,__zero_reg__
 15777               	.L891:
 15778               	.LM1491:
 15779 5a86 8091 C208 		lds r24,2242
 15780 5a8a 87FF      		sbrs r24,7
 15781 5a8c 00C0      		rjmp .L891
 15782               	.LBE663:
 15783               	.LBE662:
 15784               	.LM1492:
 15785 5a8e 4091 C308 		lds r20,2243
 15786               	.LBE661:
 15787               	.LBE660:
 15788               	.LM1493:
 15789 5a92 FD01      		movw r30,r26
 15790 5a94 3196      		adiw r30,1
 15791 5a96 EE0F      		lsl r30
 15792 5a98 FF1F      		rol r31
 15793 5a9a EC0F      		add r30,r28
 15794 5a9c FD1F      		adc r31,r29
 15795 5a9e 30E0      		ldi r19,lo8(0)
 15796 5aa0 2050      		subi r18,lo8(-(1024))
 15797 5aa2 3C4F      		sbci r19,hi8(-(1024))
 15798 5aa4 942F      		mov r25,r20
 15799 5aa6 80E0      		ldi r24,lo8(0)
 15800 5aa8 280F      		add r18,r24
 15801 5aaa 391F      		adc r19,r25
 15802 5aac 2083      		st Z,r18
 15803 5aae 3183      		std Z+1,r19
 15804               	.LBB664:
 15805               	.LBB665:
 15806               	.LBB666:
 15807               	.LBB667:
 15808               	.LM1494:
 15809 5ab0 E0EC      		ldi r30,lo8(2240)
 15810 5ab2 F8E0      		ldi r31,hi8(2240)
 15811 5ab4 1382      		std Z+3,__zero_reg__
 15812               	.L892:
 15813               	.LM1495:
 15814 5ab6 8091 C208 		lds r24,2242
 15815 5aba 87FF      		sbrs r24,7
 15816 5abc 00C0      		rjmp .L892
 15817               	.LBE667:
 15818               	.LBE666:
 15819               	.LM1496:
 15820 5abe 2091 C308 		lds r18,2243
 15821               	.LBE665:
 15822               	.LBE664:
 15823               	.LBB668:
 15824               	.LBB669:
 15825               	.LBB670:
 15826               	.LBB671:
 15827               	.LM1497:
 15828 5ac2 E0EC      		ldi r30,lo8(2240)
 15829 5ac4 F8E0      		ldi r31,hi8(2240)
 15830 5ac6 1382      		std Z+3,__zero_reg__
 15831               	.L893:
 15832               	.LM1498:
 15833 5ac8 8091 C208 		lds r24,2242
 15834 5acc 87FF      		sbrs r24,7
 15835 5ace 00C0      		rjmp .L893
 15836               	.LBE671:
 15837               	.LBE670:
 15838               	.LM1499:
 15839 5ad0 4091 C308 		lds r20,2243
 15840               	.LBE669:
 15841               	.LBE668:
 15842               	.LM1500:
 15843 5ad4 1296      		adiw r26,2
 15844 5ad6 AA0F      		lsl r26
 15845 5ad8 BB1F      		rol r27
 15846 5ada CA0F      		add r28,r26
 15847 5adc DB1F      		adc r29,r27
 15848 5ade 30E0      		ldi r19,lo8(0)
 15849 5ae0 2050      		subi r18,lo8(-(1024))
 15850 5ae2 3C4F      		sbci r19,hi8(-(1024))
 15851 5ae4 942F      		mov r25,r20
 15852 5ae6 80E0      		ldi r24,lo8(0)
 15853 5ae8 280F      		add r18,r24
 15854 5aea 391F      		adc r19,r25
 15855 5aec 2883      		st Y,r18
 15856 5aee 3983      		std Y+1,r19
 15857               	.LM1501:
 15858 5af0 80E1      		ldi r24,lo8(16)
 15859 5af2 E0E4      		ldi r30,lo8(1600)
 15860 5af4 F6E0      		ldi r31,hi8(1600)
 15861 5af6 8583      		std Z+5,r24
 15862               	/* epilogue start */
 15863               	.LM1502:
 15864 5af8 DF91      		pop r29
 15865 5afa CF91      		pop r28
 15866 5afc 0895      		ret
 15867               	.LFE110:
 15869               	.global	Sensors_ResetAccelBuffers
 15871               	Sensors_ResetAccelBuffers:
 15872               	.LFB111:
 15873               	.LM1503:
 15874               	/* prologue: function */
 15875               	/* frame size = 0 */
 15876               	.LM1504:
 15877 5afe 1092 0000 		sts accelBufferCounter,__zero_reg__
 15878 5b02 1092 0000 		sts (accelBufferCounter)+1,__zero_reg__
 15879               	.LM1505:
 15880 5b06 1092 0000 		sts accelBufferToWriteTo,__zero_reg__
 15881               	.LBB672:
 15882               	.LM1506:
 15883 5b0a 1092 0000 		sts okToSendAccelBuffer,__zero_reg__
 15884 5b0e 1092 0000 		sts okToSendAccelBuffer+1,__zero_reg__
 15885               	/* epilogue start */
 15886               	.LBE672:
 15887               	.LM1507:
 15888 5b12 0895      		ret
 15889               	.LFE111:
 15891               	.global	Accel_Init
 15893               	Accel_Init:
 15894               	.LFB105:
 15895               	.LM1508:
 15896               	/* prologue: function */
 15897               	/* frame size = 0 */
 15898               	.LM1509:
 15899 5b14 E0E4      		ldi r30,lo8(1600)
 15900 5b16 F6E0      		ldi r31,hi8(1600)
 15901 5b18 80EB      		ldi r24,lo8(-80)
 15902 5b1a 8183      		std Z+1,r24
 15903               	.LM1510:
 15904 5b1c 88E3      		ldi r24,lo8(56)
 15905 5b1e 848B      		std Z+20,r24
 15906               	.LM1511:
 15907 5b20 80E1      		ldi r24,lo8(16)
 15908 5b22 8583      		std Z+5,r24
 15909               	.LM1512:
 15910 5b24 E0EC      		ldi r30,lo8(2240)
 15911 5b26 F8E0      		ldi r31,hi8(2240)
 15912 5b28 8081      		ld r24,Z
 15913 5b2a 8C65      		ori r24,lo8(92)
 15914 5b2c 8083      		st Z,r24
 15915               	.LM1513:
 15916 5b2e 8CE0      		ldi r24,lo8(12)
 15917 5b30 E0EA      		ldi r30,lo8(1696)
 15918 5b32 F6E0      		ldi r31,hi8(1696)
 15919 5b34 8283      		std Z+2,r24
 15920               	.LM1514:
 15921 5b36 81E3      		ldi r24,lo8(49)
 15922 5b38 69E0      		ldi r22,lo8(9)
 15923 5b3a 0E94 0000 		call Accel_WriteToAddress
 15924               	.LM1515:
 15925 5b3e 8CE2      		ldi r24,lo8(44)
 15926 5b40 6CE0      		ldi r22,lo8(12)
 15927 5b42 0E94 0000 		call Accel_WriteToAddress
 15928               	.LM1516:
 15929 5b46 8DE2      		ldi r24,lo8(45)
 15930 5b48 68E0      		ldi r22,lo8(8)
 15931 5b4a 0E94 0000 		call Accel_WriteToAddress
 15932               	.LM1517:
 15933 5b4e E0E0      		ldi r30,lo8(2816)
 15934 5b50 FBE0      		ldi r31,hi8(2816)
 15935 5b52 8FE7      		ldi r24,lo8(5759)
 15936 5b54 96E1      		ldi r25,hi8(5759)
 15937 5b56 86A3      		std Z+38,r24
 15938 5b58 97A3      		std Z+39,r25
 15939               	.LM1518:
 15940 5b5a 8081      		ld r24,Z
 15941 5b5c 807F      		andi r24,lo8(-16)
 15942 5b5e 8460      		ori r24,lo8(4)
 15943 5b60 8083      		st Z,r24
 15944               	.LM1519:
 15945 5b62 8681      		ldd r24,Z+6
 15946 5b64 8360      		ori r24,lo8(3)
 15947 5b66 8683      		std Z+6,r24
 15948               	.LM1520:
 15949 5b68 0E94 0000 		call Sensors_ResetAccelBuffers
 15950               	/* epilogue start */
 15951               	.LM1521:
 15952 5b6c 0895      		ret
 15953               	.LFE105:
 15955               	.global	__vector_108
 15957               	__vector_108:
 15958               	.LFB112:
 15959               	.LM1522:
 15960 5b6e 1F92      		push __zero_reg__
 15961 5b70 0F92      		push r0
 15962 5b72 0FB6      		in r0,__SREG__
 15963 5b74 0F92      		push r0
 15964 5b76 0BB6      		in r0,59-0
 15965 5b78 0F92      		push r0
 15966 5b7a 1124      		clr __zero_reg__
 15967 5b7c 2F93      		push r18
 15968 5b7e 3F93      		push r19
 15969 5b80 4F93      		push r20
 15970 5b82 5F93      		push r21
 15971 5b84 6F93      		push r22
 15972 5b86 7F93      		push r23
 15973 5b88 8F93      		push r24
 15974 5b8a 9F93      		push r25
 15975 5b8c AF93      		push r26
 15976 5b8e BF93      		push r27
 15977 5b90 CF93      		push r28
 15978 5b92 DF93      		push r29
 15979 5b94 EF93      		push r30
 15980 5b96 FF93      		push r31
 15981               	/* prologue: Signal */
 15982               	/* frame size = 0 */
 15983               	.LM1523:
 15984 5b98 8091 0000 		lds r24,recording
 15985 5b9c 8823      		tst r24
 15986 5b9e 01F4      		brne .+2
 15987 5ba0 00C0      		rjmp .L909
 15988 5ba2 8091 0000 		lds r24,wantToRecordFast
 15989 5ba6 8823      		tst r24
 15990 5ba8 01F0      		breq .L909
 15991 5baa 8091 0000 		lds r24,accelBufferToWriteTo
 15992 5bae C82F      		mov r28,r24
 15993 5bb0 D0E0      		ldi r29,lo8(0)
 15994 5bb2 FE01      		movw r30,r28
 15995 5bb4 E050      		subi r30,lo8(-(okToSendAccelBuffer))
 15996 5bb6 F040      		sbci r31,hi8(-(okToSendAccelBuffer))
 15997 5bb8 8081      		ld r24,Z
 15998 5bba 8823      		tst r24
 15999 5bbc 01F4      		brne .L909
 16000               	.LM1524:
 16001 5bbe 8091 0000 		lds r24,accelBufferCounter
 16002 5bc2 9091 0000 		lds r25,(accelBufferCounter)+1
 16003 5bc6 892B      		or r24,r25
 16004 5bc8 01F4      		brne .L908
 16005               	.LM1525:
 16006 5bca 0E94 0000 		call Time_Get32BitTimer
 16007 5bce CC0F      		lsl r28
 16008 5bd0 DD1F      		rol r29
 16009 5bd2 CC0F      		lsl r28
 16010 5bd4 DD1F      		rol r29
 16011 5bd6 C050      		subi r28,lo8(-(accelSampleStartTime))
 16012 5bd8 D040      		sbci r29,hi8(-(accelSampleStartTime))
 16013 5bda 6883      		st Y,r22
 16014 5bdc 7983      		std Y+1,r23
 16015 5bde 8A83      		std Y+2,r24
 16016 5be0 9B83      		std Y+3,r25
 16017               	.L908:
 16018               	.LM1526:
 16019 5be2 8091 0000 		lds r24,accelBufferCounter
 16020 5be6 9091 0000 		lds r25,(accelBufferCounter)+1
 16021 5bea 0396      		adiw r24,3
 16022 5bec 8093 0000 		sts accelBufferCounter,r24
 16023 5bf0 9093 0000 		sts (accelBufferCounter)+1,r25
 16024               	.LM1527:
 16025 5bf4 8458      		subi r24,lo8(900)
 16026 5bf6 9340      		sbci r25,hi8(900)
 16027 5bf8 01F4      		brne .L909
 16028               	.LM1528:
 16029 5bfa 1092 0000 		sts accelBufferCounter,__zero_reg__
 16030 5bfe 1092 0000 		sts (accelBufferCounter)+1,__zero_reg__
 16031               	.LM1529:
 16032 5c02 8091 0000 		lds r24,accelBufferToWriteTo
 16033 5c06 E82F      		mov r30,r24
 16034 5c08 F0E0      		ldi r31,lo8(0)
 16035 5c0a E050      		subi r30,lo8(-(okToSendAccelBuffer))
 16036 5c0c F040      		sbci r31,hi8(-(okToSendAccelBuffer))
 16037 5c0e 91E0      		ldi r25,lo8(1)
 16038 5c10 9083      		st Z,r25
 16039               	.LM1530:
 16040 5c12 8F5F      		subi r24,lo8(-(1))
 16041 5c14 8093 0000 		sts accelBufferToWriteTo,r24
 16042               	.LM1531:
 16043 5c18 8230      		cpi r24,lo8(2)
 16044 5c1a 01F4      		brne .L909
 16045               	.LM1532:
 16046 5c1c 1092 0000 		sts accelBufferToWriteTo,__zero_reg__
 16047               	.L909:
 16048               	/* epilogue start */
 16049               	.LM1533:
 16050 5c20 FF91      		pop r31
 16051 5c22 EF91      		pop r30
 16052 5c24 DF91      		pop r29
 16053 5c26 CF91      		pop r28
 16054 5c28 BF91      		pop r27
 16055 5c2a AF91      		pop r26
 16056 5c2c 9F91      		pop r25
 16057 5c2e 8F91      		pop r24
 16058 5c30 7F91      		pop r23
 16059 5c32 6F91      		pop r22
 16060 5c34 5F91      		pop r21
 16061 5c36 4F91      		pop r20
 16062 5c38 3F91      		pop r19
 16063 5c3a 2F91      		pop r18
 16064 5c3c 0F90      		pop r0
 16065 5c3e 0BBE      		out 59-0,r0
 16066 5c40 0F90      		pop r0
 16067 5c42 0FBE      		out __SREG__,r0
 16068 5c44 0F90      		pop r0
 16069 5c46 1F90      		pop __zero_reg__
 16070 5c48 1895      		reti
 16071               	.LFE112:
 16073               	.global	Sensors_ReadTemperature
 16075               	Sensors_ReadTemperature:
 16076               	.LFB114:
 16077               	.LM1534:
 16078               	/* prologue: function */
 16079               	/* frame size = 0 */
 16080               	.LM1535:
 16081 5c4a E0E0      		ldi r30,lo8(512)
 16082 5c4c F2E0      		ldi r31,hi8(512)
 16083 5c4e 2289      		ldd r18,Z+18
 16084 5c50 3389      		ldd r19,Z+19
 16085               	.LM1536:
 16086 5c52 C901      		movw r24,r18
 16087               	/* epilogue start */
 16088 5c54 0895      		ret
 16089               	.LFE114:
 16091               	.global	Sensors_ReadRespiration
 16093               	Sensors_ReadRespiration:
 16094               	.LFB115:
 16095               	.LM1537:
 16096               	/* prologue: function */
 16097               	/* frame size = 0 */
 16098               	.LM1538:
 16099 5c56 E0E4      		ldi r30,lo8(576)
 16100 5c58 F2E0      		ldi r31,hi8(576)
 16101 5c5a 2089      		ldd r18,Z+16
 16102 5c5c 3189      		ldd r19,Z+17
 16103               	.LM1539:
 16104 5c5e C901      		movw r24,r18
 16105               	/* epilogue start */
 16106 5c60 0895      		ret
 16107               	.LFE115:
 16109               	.global	Sensors_ReadEKG
 16111               	Sensors_ReadEKG:
 16112               	.LFB116:
 16113               	.LM1540:
 16114               	/* prologue: function */
 16115               	/* frame size = 0 */
 16116               	.LM1541:
 16117 5c62 E0E0      		ldi r30,lo8(512)
 16118 5c64 F2E0      		ldi r31,hi8(512)
 16119 5c66 2089      		ldd r18,Z+16
 16120 5c68 3189      		ldd r19,Z+17
 16121               	.LM1542:
 16122 5c6a C901      		movw r24,r18
 16123               	/* epilogue start */
 16124 5c6c 0895      		ret
 16125               	.LFE116:
 16127               	.global	Sensors_ReadHumidity
 16129               	Sensors_ReadHumidity:
 16130               	.LFB117:
 16131               	.LM1543:
 16132 5c6e 0F93      		push r16
 16133 5c70 1F93      		push r17
 16134               	/* prologue: function */
 16135               	/* frame size = 0 */
 16136               	.LM1544:
 16137 5c72 E0E0      		ldi r30,lo8(512)
 16138 5c74 F2E0      		ldi r31,hi8(512)
 16139 5c76 6489      		ldd r22,Z+20
 16140 5c78 7589      		ldd r23,Z+21
 16141 5c7a 0091 0000 		lds r16,zeroOffsetA
 16142 5c7e 1091 0000 		lds r17,(zeroOffsetA)+1
 16143 5c82 601B      		sub r22,r16
 16144 5c84 710B      		sbc r23,r17
 16145 5c86 80E0      		ldi r24,lo8(0)
 16146 5c88 90E0      		ldi r25,hi8(0)
 16147               	.LVL1359:
 16148               	.LM1545:
 16149 5c8a 22E6      		ldi r18,lo8(19554)
 16150 5c8c 3CE4      		ldi r19,hi8(19554)
 16151 5c8e 40E0      		ldi r20,hlo8(19554)
 16152 5c90 50E0      		ldi r21,hhi8(19554)
 16153 5c92 0E94 0000 		call __mulsi3
 16154 5c96 9B01      		movw r18,r22
 16155 5c98 AC01      		movw r20,r24
 16156               	.LVL1360:
 16157               	.LM1546:
 16158 5c9a 8EE4      		ldi r24,lo8(2382)
 16159 5c9c 99E0      		ldi r25,hi8(2382)
 16160               	.LVL1361:
 16161 5c9e 089F      		mul r16,r24
 16162 5ca0 B001      		movw r22,r0
 16163 5ca2 099F      		mul r16,r25
 16164 5ca4 700D      		add r23,r0
 16165 5ca6 189F      		mul r17,r24
 16166 5ca8 700D      		add r23,r0
 16167 5caa 1124      		clr r1
 16168 5cac 80E0      		ldi r24,lo8(0)
 16169 5cae 90E0      		ldi r25,hi8(0)
 16170 5cb0 6050      		subi r22,lo8(-(-9756672))
 16171 5cb2 704E      		sbci r23,hi8(-(-9756672))
 16172 5cb4 8449      		sbci r24,hlo8(-(-9756672))
 16173 5cb6 9040      		sbci r25,hhi8(-(-9756672))
 16174 5cb8 620F      		add r22,r18
 16175 5cba 731F      		adc r23,r19
 16176 5cbc 841F      		adc r24,r20
 16177 5cbe 951F      		adc r25,r21
 16178 5cc0 20E0      		ldi r18,lo8(4096)
 16179 5cc2 30E1      		ldi r19,hi8(4096)
 16180               	.LVL1362:
 16181 5cc4 201B      		sub r18,r16
 16182 5cc6 310B      		sbc r19,r17
 16183 5cc8 40E0      		ldi r20,lo8(0)
 16184 5cca 50E0      		ldi r21,hi8(0)
 16185 5ccc 0E94 0000 		call __udivmodsi4
 16186 5cd0 CA01      		movw r24,r20
 16187 5cd2 B901      		movw r22,r18
 16188 5cd4 2AE0      		ldi r18,lo8(10)
 16189 5cd6 30E0      		ldi r19,hi8(10)
 16190 5cd8 40E0      		ldi r20,hlo8(10)
 16191 5cda 50E0      		ldi r21,hhi8(10)
 16192 5cdc 0E94 0000 		call __udivmodsi4
 16193 5ce0 C901      		movw r24,r18
 16194               	/* epilogue start */
 16195               	.LM1547:
 16196 5ce2 1F91      		pop r17
 16197 5ce4 0F91      		pop r16
 16198 5ce6 0895      		ret
 16199               	.LFE117:
 16201               	.global	Sensors_ResetTemperatureBuffers
 16203               	Sensors_ResetTemperatureBuffers:
 16204               	.LFB118:
 16205               	.LM1548:
 16206               	/* prologue: function */
 16207               	/* frame size = 0 */
 16208               	.LM1549:
 16209 5ce8 1092 0000 		sts temperatureBufferCounter,__zero_reg__
 16210 5cec 1092 0000 		sts (temperatureBufferCounter)+1,__zero_reg__
 16211               	.LM1550:
 16212 5cf0 1092 0000 		sts temperatureBufferToWriteTo,__zero_reg__
 16213               	.LBB673:
 16214               	.LM1551:
 16215 5cf4 1092 0000 		sts okToSendTemperatureBuffer,__zero_reg__
 16216 5cf8 1092 0000 		sts okToSendTemperatureBuffer+1,__zero_reg__
 16217               	/* epilogue start */
 16218               	.LBE673:
 16219               	.LM1552:
 16220 5cfc 0895      		ret
 16221               	.LFE118:
 16223               	.global	Sensors_ResetRespirationBuffers
 16225               	Sensors_ResetRespirationBuffers:
 16226               	.LFB119:
 16227               	.LM1553:
 16228               	/* prologue: function */
 16229               	/* frame size = 0 */
 16230               	.LM1554:
 16231 5cfe 1092 0000 		sts respirationBufferCounter,__zero_reg__
 16232 5d02 1092 0000 		sts (respirationBufferCounter)+1,__zero_reg__
 16233               	.LM1555:
 16234 5d06 1092 0000 		sts respirationBufferToWriteTo,__zero_reg__
 16235               	.LBB674:
 16236               	.LM1556:
 16237 5d0a 1092 0000 		sts okToSendRespirationBuffer,__zero_reg__
 16238 5d0e 1092 0000 		sts okToSendRespirationBuffer+1,__zero_reg__
 16239 5d12 1092 0000 		sts okToSendRespirationBuffer+2,__zero_reg__
 16240               	/* epilogue start */
 16241               	.LBE674:
 16242               	.LM1557:
 16243 5d16 0895      		ret
 16244               	.LFE119:
 16246               	.global	Sensors_ResetEKGBuffers
 16248               	Sensors_ResetEKGBuffers:
 16249               	.LFB120:
 16250               	.LM1558:
 16251               	/* prologue: function */
 16252               	/* frame size = 0 */
 16253               	.LM1559:
 16254 5d18 1092 0000 		sts EKGBufferCounter,__zero_reg__
 16255 5d1c 1092 0000 		sts (EKGBufferCounter)+1,__zero_reg__
 16256               	.LM1560:
 16257 5d20 1092 0000 		sts EKGBufferToWriteTo,__zero_reg__
 16258               	.LBB675:
 16259               	.LM1561:
 16260 5d24 1092 0000 		sts okToSendEKGBuffer,__zero_reg__
 16261 5d28 1092 0000 		sts okToSendEKGBuffer+1,__zero_reg__
 16262 5d2c 1092 0000 		sts okToSendEKGBuffer+2,__zero_reg__
 16263               	/* epilogue start */
 16264               	.LBE675:
 16265               	.LM1562:
 16266 5d30 0895      		ret
 16267               	.LFE120:
 16269               	.global	Sensors_ResetHumidityBuffers
 16271               	Sensors_ResetHumidityBuffers:
 16272               	.LFB121:
 16273               	.LM1563:
 16274               	/* prologue: function */
 16275               	/* frame size = 0 */
 16276               	.LM1564:
 16277 5d32 1092 0000 		sts humidityBufferCounter,__zero_reg__
 16278 5d36 1092 0000 		sts (humidityBufferCounter)+1,__zero_reg__
 16279               	.LM1565:
 16280 5d3a 1092 0000 		sts humidityBufferToWriteTo,__zero_reg__
 16281               	.LBB676:
 16282               	.LM1566:
 16283 5d3e 1092 0000 		sts okToSendHumidityBuffer,__zero_reg__
 16284 5d42 1092 0000 		sts okToSendHumidityBuffer+1,__zero_reg__
 16285               	/* epilogue start */
 16286               	.LBE676:
 16287               	.LM1567:
 16288 5d46 0895      		ret
 16289               	.LFE121:
 16291               	.global	Sensors_Init
 16293               	Sensors_Init:
 16294               	.LFB113:
 16295               	.LM1568:
 16296 5d48 CF93      		push r28
 16297 5d4a DF93      		push r29
 16298               	/* prologue: function */
 16299               	/* frame size = 0 */
 16300               	.LBB677:
 16301               	.LBB678:
 16302               	.LM1569:
 16303 5d4c 8AEC      		ldi r24,lo8(458)
 16304 5d4e 91E0      		ldi r25,hi8(458)
 16305 5d50 42E0      		ldi r20,lo8(2)
 16306 5d52 DC01      		movw r26,r24
 16307 5d54 4C93      		st X,r20
 16308               	.LBB679:
 16309               	.LM1570:
 16310 5d56 E0E2      		ldi r30,lo8(32)
 16311 5d58 F0E0      		ldi r31,hi8(32)
 16312               	/* #APP */
 16313               	 ;  264 "sensorsCS.c" 1
 16314 5d5a E491      		lpm r30, Z
 16315               		
 16316               	 ;  0 "" 2
 16317               	.LVL1363:
 16318               	/* #NOAPP */
 16319               	.LBE679:
 16320               	.LM1571:
 16321 5d5c 1C92      		st X,__zero_reg__
 16322               	.LBE678:
 16323               	.LBE677:
 16324               	.LM1572:
 16325 5d5e A0E0      		ldi r26,lo8(512)
 16326 5d60 B2E0      		ldi r27,hi8(512)
 16327 5d62 1C96      		adiw r26,12
 16328 5d64 EC93      		st X,r30
 16329 5d66 1C97      		sbiw r26,12
 16330               	.LBB680:
 16331               	.LBB681:
 16332               	.LM1573:
 16333 5d68 EC01      		movw r28,r24
 16334 5d6a 4883      		st Y,r20
 16335               	.LBB682:
 16336               	.LM1574:
 16337 5d6c E1E2      		ldi r30,lo8(33)
 16338 5d6e F0E0      		ldi r31,hi8(33)
 16339               	.LVL1364:
 16340               	/* #APP */
 16341               	 ;  264 "sensorsCS.c" 1
 16342 5d70 E491      		lpm r30, Z
 16343               		
 16344               	 ;  0 "" 2
 16345               	.LVL1365:
 16346               	/* #NOAPP */
 16347               	.LBE682:
 16348               	.LM1575:
 16349 5d72 1882      		st Y,__zero_reg__
 16350               	.LBE681:
 16351               	.LBE680:
 16352               	.LM1576:
 16353 5d74 1D96      		adiw r26,13
 16354 5d76 EC93      		st X,r30
 16355 5d78 1D97      		sbiw r26,13
 16356               	.LBB683:
 16357               	.LBB684:
 16358               	.LM1577:
 16359 5d7a 4883      		st Y,r20
 16360               	.LBB685:
 16361               	.LM1578:
 16362 5d7c E4E2      		ldi r30,lo8(36)
 16363 5d7e F0E0      		ldi r31,hi8(36)
 16364               	.LVL1366:
 16365               	/* #APP */
 16366               	 ;  264 "sensorsCS.c" 1
 16367 5d80 E491      		lpm r30, Z
 16368               		
 16369               	 ;  0 "" 2
 16370               	.LVL1367:
 16371               	/* #NOAPP */
 16372               	.LBE685:
 16373               	.LM1579:
 16374 5d82 1882      		st Y,__zero_reg__
 16375               	.LBE684:
 16376               	.LBE683:
 16377               	.LM1580:
 16378 5d84 20E4      		ldi r18,lo8(576)
 16379 5d86 32E0      		ldi r19,hi8(576)
 16380 5d88 E901      		movw r28,r18
 16381 5d8a EC87      		std Y+12,r30
 16382               	.LBB686:
 16383               	.LBB687:
 16384               	.LM1581:
 16385 5d8c FC01      		movw r30,r24
 16386               	.LVL1368:
 16387 5d8e 4083      		st Z,r20
 16388               	.LBB688:
 16389               	.LM1582:
 16390 5d90 E5E2      		ldi r30,lo8(37)
 16391 5d92 F0E0      		ldi r31,hi8(37)
 16392               	/* #APP */
 16393               	 ;  264 "sensorsCS.c" 1
 16394 5d94 E491      		lpm r30, Z
 16395               		
 16396               	 ;  0 "" 2
 16397               	.LVL1369:
 16398               	/* #NOAPP */
 16399               	.LBE688:
 16400               	.LM1583:
 16401 5d96 EC01      		movw r28,r24
 16402 5d98 1882      		st Y,__zero_reg__
 16403               	.LBE687:
 16404               	.LBE686:
 16405               	.LM1584:
 16406 5d9a E901      		movw r28,r18
 16407 5d9c ED87      		std Y+13,r30
 16408               	.LM1585:
 16409 5d9e 61E0      		ldi r22,lo8(1)
 16410 5da0 9096      		adiw r26,32
 16411 5da2 6C93      		st X,r22
 16412 5da4 9097      		sbiw r26,32
 16413               	.LM1586:
 16414 5da6 70E2      		ldi r23,lo8(32)
 16415 5da8 9196      		adiw r26,33
 16416 5daa 7C93      		st X,r23
 16417 5dac 9197      		sbiw r26,33
 16418               	.LM1587:
 16419 5dae 9896      		adiw r26,40
 16420 5db0 6C93      		st X,r22
 16421 5db2 9897      		sbiw r26,40
 16422               	.LM1588:
 16423 5db4 88E2      		ldi r24,lo8(40)
 16424 5db6 9996      		adiw r26,41
 16425 5db8 8C93      		st X,r24
 16426 5dba 9997      		sbiw r26,41
 16427               	.LM1589:
 16428 5dbc D096      		adiw r26,48
 16429 5dbe 6C93      		st X,r22
 16430 5dc0 D097      		sbiw r26,48
 16431               	.LM1590:
 16432 5dc2 80E3      		ldi r24,lo8(48)
 16433 5dc4 D196      		adiw r26,49
 16434 5dc6 8C93      		st X,r24
 16435 5dc8 D197      		sbiw r26,49
 16436               	.LM1591:
 16437 5dca D896      		adiw r26,56
 16438 5dcc 6C93      		st X,r22
 16439 5dce D897      		sbiw r26,56
 16440               	.LM1592:
 16441 5dd0 88E0      		ldi r24,lo8(8)
 16442 5dd2 D996      		adiw r26,57
 16443 5dd4 8C93      		st X,r24
 16444 5dd6 D997      		sbiw r26,57
 16445               	.LM1593:
 16446 5dd8 1496      		adiw r26,4
 16447 5dda 8C91      		ld r24,X
 16448 5ddc 1497      		sbiw r26,4
 16449 5dde 887F      		andi r24,lo8(-8)
 16450 5de0 8460      		ori r24,lo8(4)
 16451 5de2 1496      		adiw r26,4
 16452 5de4 8C93      		st X,r24
 16453 5de6 1497      		sbiw r26,4
 16454               	.LM1594:
 16455 5de8 1296      		adiw r26,2
 16456 5dea 7C93      		st X,r23
 16457 5dec 1297      		sbiw r26,2
 16458               	.LM1595:
 16459 5dee 1396      		adiw r26,3
 16460 5df0 8C91      		ld r24,X
 16461 5df2 1397      		sbiw r26,3
 16462 5df4 806C      		ori r24,lo8(-64)
 16463 5df6 1396      		adiw r26,3
 16464 5df8 8C93      		st X,r24
 16465 5dfa 1397      		sbiw r26,3
 16466               	.LM1596:
 16467 5dfc 1196      		adiw r26,1
 16468 5dfe 8C91      		ld r24,X
 16469 5e00 1197      		sbiw r26,1
 16470 5e02 8860      		ori r24,lo8(8)
 16471 5e04 1196      		adiw r26,1
 16472 5e06 8C93      		st X,r24
 16473 5e08 1197      		sbiw r26,1
 16474               	.LM1597:
 16475 5e0a 9896      		adiw r26,40
 16476 5e0c 8C91      		ld r24,X
 16477 5e0e 9897      		sbiw r26,40
 16478 5e10 8068      		ori r24,lo8(-128)
 16479 5e12 9896      		adiw r26,40
 16480 5e14 8C93      		st X,r24
 16481 5e16 9897      		sbiw r26,40
 16482               	.LM1598:
 16483 5e18 D096      		adiw r26,48
 16484 5e1a 8C91      		ld r24,X
 16485 5e1c D097      		sbiw r26,48
 16486 5e1e 8068      		ori r24,lo8(-128)
 16487 5e20 D096      		adiw r26,48
 16488 5e22 8C93      		st X,r24
 16489 5e24 D097      		sbiw r26,48
 16490               	.LM1599:
 16491 5e26 9096      		adiw r26,32
 16492 5e28 8C91      		ld r24,X
 16493 5e2a 9097      		sbiw r26,32
 16494 5e2c 8068      		ori r24,lo8(-128)
 16495 5e2e 9096      		adiw r26,32
 16496 5e30 8C93      		st X,r24
 16497 5e32 9097      		sbiw r26,32
 16498               	.LM1600:
 16499 5e34 D896      		adiw r26,56
 16500 5e36 8C91      		ld r24,X
 16501 5e38 D897      		sbiw r26,56
 16502 5e3a 8068      		ori r24,lo8(-128)
 16503 5e3c D896      		adiw r26,56
 16504 5e3e 8C93      		st X,r24
 16505 5e40 D897      		sbiw r26,56
 16506               	.LM1601:
 16507 5e42 6C93      		st X,r22
 16508               	.LBB689:
 16509               	.LBB690:
 16510               	.LBB691:
 16511               	.LBB692:
 16512               	.LM1602:
 16513 5e44 40E0      		ldi r20,lo8(-28672)
 16514 5e46 50E9      		ldi r21,hi8(-28672)
 16515 5e48 CA01      		movw r24,r20
 16516               	.LVL1370:
 16517               	/* #APP */
 16518               	 ;  105 "/usr/local/CrossPack-AVR-20100115/lib/gcc/avr/4.3.3/../../../../avr/include/util/delay_bas
 16519 5e4a 0197      		1: sbiw r24,1
 16520 5e4c 01F4      		brne 1b
 16521               	 ;  0 "" 2
 16522               	/* #NOAPP */
 16523               	.LBE692:
 16524               	.LBE691:
 16525               	.LBE690:
 16526               	.LBE689:
 16527               	.LM1603:
 16528 5e4e 5696      		adiw r26,22
 16529 5e50 8D91      		ld r24,X+
 16530 5e52 9C91      		ld r25,X
 16531 5e54 5797      		sbiw r26,22+1
 16532               	.LVL1371:
 16533 5e56 8093 0000 		sts zeroOffsetA,r24
 16534 5e5a 9093 0000 		sts (zeroOffsetA)+1,r25
 16535               	.LM1604:
 16536 5e5e 8FE0      		ldi r24,lo8(15)
 16537 5e60 F901      		movw r30,r18
 16538               	.LVL1372:
 16539 5e62 80A3      		std Z+32,r24
 16540               	.LM1605:
 16541 5e64 8CE0      		ldi r24,lo8(12)
 16542 5e66 81A3      		std Z+33,r24
 16543               	.LM1606:
 16544 5e68 8481      		ldd r24,Z+4
 16545 5e6a 887F      		andi r24,lo8(-8)
 16546 5e6c 8460      		ori r24,lo8(4)
 16547 5e6e 8483      		std Z+4,r24
 16548               	.LM1607:
 16549 5e70 7283      		std Z+2,r23
 16550               	.LM1608:
 16551 5e72 8381      		ldd r24,Z+3
 16552 5e74 806C      		ori r24,lo8(-64)
 16553 5e76 8383      		std Z+3,r24
 16554               	.LM1609:
 16555 5e78 8181      		ldd r24,Z+1
 16556 5e7a 8861      		ori r24,lo8(24)
 16557 5e7c 8183      		std Z+1,r24
 16558               	.LM1610:
 16559 5e7e 80A1      		ldd r24,Z+32
 16560 5e80 8068      		ori r24,lo8(-128)
 16561 5e82 80A3      		std Z+32,r24
 16562               	.LM1611:
 16563 5e84 6083      		st Z,r22
 16564               	.LBB693:
 16565               	.LBB694:
 16566               	.LBB695:
 16567               	.LBB696:
 16568               	.LM1612:
 16569 5e86 CA01      		movw r24,r20
 16570               	.LVL1373:
 16571               	/* #APP */
 16572               	 ;  105 "/usr/local/CrossPack-AVR-20100115/lib/gcc/avr/4.3.3/../../../../avr/include/util/delay_bas
 16573 5e88 0197      		1: sbiw r24,1
 16574 5e8a 01F4      		brne 1b
 16575               	 ;  0 "" 2
 16576               	/* #NOAPP */
 16577               	.LBE696:
 16578               	.LBE695:
 16579               	.LBE694:
 16580               	.LBE693:
 16581               	.LM1613:
 16582 5e8c D901      		movw r26,r18
 16583 5e8e 5696      		adiw r26,22
 16584 5e90 8D91      		ld r24,X+
 16585 5e92 9C91      		ld r25,X
 16586 5e94 5797      		sbiw r26,22+1
 16587               	.LVL1374:
 16588 5e96 8093 0000 		sts zeroOffsetB,r24
 16589 5e9a 9093 0000 		sts (zeroOffsetB)+1,r25
 16590               	.LM1614:
 16591 5e9e E0E2      		ldi r30,lo8(1568)
 16592 5ea0 F6E0      		ldi r31,hi8(1568)
 16593 5ea2 84E0      		ldi r24,lo8(4)
 16594 5ea4 8183      		std Z+1,r24
 16595               	.LM1615:
 16596 5ea6 8583      		std Z+5,r24
 16597               	.LM1616:
 16598 5ea8 E0E4      		ldi r30,lo8(2368)
 16599 5eaa F9E0      		ldi r31,hi8(2368)
 16600 5eac 8FEF      		ldi r24,lo8(767)
 16601 5eae 92E0      		ldi r25,hi8(767)
 16602 5eb0 86A3      		std Z+38,r24
 16603 5eb2 97A3      		std Z+39,r25
 16604               	.LM1617:
 16605 5eb4 8081      		ld r24,Z
 16606 5eb6 807F      		andi r24,lo8(-16)
 16607 5eb8 8560      		ori r24,lo8(5)
 16608 5eba 8083      		st Z,r24
 16609               	.LM1618:
 16610 5ebc 8681      		ldd r24,Z+6
 16611 5ebe 8360      		ori r24,lo8(3)
 16612 5ec0 8683      		std Z+6,r24
 16613               	.LM1619:
 16614 5ec2 0E94 0000 		call Sensors_ResetTemperatureBuffers
 16615               	.LM1620:
 16616 5ec6 0E94 0000 		call Sensors_ResetRespirationBuffers
 16617               	.LM1621:
 16618 5eca 0E94 0000 		call Sensors_ResetEKGBuffers
 16619               	.LM1622:
 16620 5ece 0E94 0000 		call Sensors_ResetHumidityBuffers
 16621               	/* epilogue start */
 16622               	.LM1623:
 16623 5ed2 DF91      		pop r29
 16624 5ed4 CF91      		pop r28
 16625 5ed6 0895      		ret
 16626               	.LFE113:
 16628               	.global	__vector_83
 16630               	__vector_83:
 16631               	.LFB122:
 16632               	.LM1624:
 16633 5ed8 1F92      		push __zero_reg__
 16634 5eda 0F92      		push r0
 16635 5edc 0FB6      		in r0,__SREG__
 16636 5ede 0F92      		push r0
 16637 5ee0 0BB6      		in r0,59-0
 16638 5ee2 0F92      		push r0
 16639 5ee4 1124      		clr __zero_reg__
 16640 5ee6 EF92      		push r14
 16641 5ee8 FF92      		push r15
 16642 5eea 1F93      		push r17
 16643 5eec 2F93      		push r18
 16644 5eee 3F93      		push r19
 16645 5ef0 4F93      		push r20
 16646 5ef2 5F93      		push r21
 16647 5ef4 6F93      		push r22
 16648 5ef6 7F93      		push r23
 16649 5ef8 8F93      		push r24
 16650 5efa 9F93      		push r25
 16651 5efc AF93      		push r26
 16652 5efe BF93      		push r27
 16653 5f00 CF93      		push r28
 16654 5f02 DF93      		push r29
 16655 5f04 EF93      		push r30
 16656 5f06 FF93      		push r31
 16657               	/* prologue: Signal */
 16658               	/* frame size = 0 */
 16659               	.LM1625:
 16660 5f08 8091 0000 		lds r24,recording
 16661 5f0c 8823      		tst r24
 16662 5f0e 01F4      		brne .+2
 16663 5f10 00C0      		rjmp .L929
 16664               	.LM1626:
 16665 5f12 8091 0000 		lds r24,wantToRecordEKG
 16666 5f16 8823      		tst r24
 16667 5f18 01F4      		brne .+2
 16668 5f1a 00C0      		rjmp .L930
 16669 5f1c 8091 0000 		lds r24,EKGBufferToWriteTo
 16670 5f20 C82F      		mov r28,r24
 16671 5f22 D0E0      		ldi r29,lo8(0)
 16672 5f24 FE01      		movw r30,r28
 16673 5f26 E050      		subi r30,lo8(-(okToSendEKGBuffer))
 16674 5f28 F040      		sbci r31,hi8(-(okToSendEKGBuffer))
 16675 5f2a 8081      		ld r24,Z
 16676 5f2c 8823      		tst r24
 16677 5f2e 01F0      		breq .+2
 16678 5f30 00C0      		rjmp .L930
 16679               	.LM1627:
 16680 5f32 8091 0000 		lds r24,EKGBufferCounter
 16681 5f36 9091 0000 		lds r25,(EKGBufferCounter)+1
 16682 5f3a 892B      		or r24,r25
 16683 5f3c 01F4      		brne .L931
 16684               	.LM1628:
 16685 5f3e 0E94 0000 		call Time_Get32BitTimer
 16686 5f42 CC0F      		lsl r28
 16687 5f44 DD1F      		rol r29
 16688 5f46 CC0F      		lsl r28
 16689 5f48 DD1F      		rol r29
 16690 5f4a C050      		subi r28,lo8(-(EKGSampleStartTime))
 16691 5f4c D040      		sbci r29,hi8(-(EKGSampleStartTime))
 16692 5f4e 6883      		st Y,r22
 16693 5f50 7983      		std Y+1,r23
 16694 5f52 8A83      		std Y+2,r24
 16695 5f54 9B83      		std Y+3,r25
 16696               	.L931:
 16697               	.LM1629:
 16698 5f56 6091 0000 		lds r22,EKGBufferToWriteTo
 16699 5f5a A62F      		mov r26,r22
 16700 5f5c B0E0      		ldi r27,lo8(0)
 16701 5f5e 2091 0000 		lds r18,EKGBufferCounter
 16702 5f62 3091 0000 		lds r19,(EKGBufferCounter)+1
 16703               	.LBB697:
 16704               	.LBB698:
 16705               	.LM1630:
 16706 5f66 4091 1002 		lds r20,528
 16707 5f6a 5091 1102 		lds r21,(528)+1
 16708               	.LBE698:
 16709               	.LBE697:
 16710               	.LM1631:
 16711 5f6e 8CE2      		ldi r24,lo8(300)
 16712 5f70 91E0      		ldi r25,hi8(300)
 16713 5f72 A89F      		mul r26,r24
 16714 5f74 F001      		movw r30,r0
 16715 5f76 A99F      		mul r26,r25
 16716 5f78 F00D      		add r31,r0
 16717 5f7a B89F      		mul r27,r24
 16718 5f7c F00D      		add r31,r0
 16719 5f7e 1124      		clr r1
 16720 5f80 E20F      		add r30,r18
 16721 5f82 F31F      		adc r31,r19
 16722 5f84 EE0F      		lsl r30
 16723 5f86 FF1F      		rol r31
 16724 5f88 E050      		subi r30,lo8(-(EKGBuffer))
 16725 5f8a F040      		sbci r31,hi8(-(EKGBuffer))
 16726 5f8c 4083      		st Z,r20
 16727 5f8e 5183      		std Z+1,r21
 16728               	.LM1632:
 16729 5f90 2F5F      		subi r18,lo8(-(1))
 16730 5f92 3F4F      		sbci r19,hi8(-(1))
 16731 5f94 2093 0000 		sts EKGBufferCounter,r18
 16732 5f98 3093 0000 		sts (EKGBufferCounter)+1,r19
 16733               	.LM1633:
 16734 5f9c 2C52      		subi r18,lo8(300)
 16735 5f9e 3140      		sbci r19,hi8(300)
 16736 5fa0 01F4      		brne .L930
 16737               	.LM1634:
 16738 5fa2 1092 0000 		sts EKGBufferCounter,__zero_reg__
 16739 5fa6 1092 0000 		sts (EKGBufferCounter)+1,__zero_reg__
 16740               	.LM1635:
 16741 5faa A050      		subi r26,lo8(-(okToSendEKGBuffer))
 16742 5fac B040      		sbci r27,hi8(-(okToSendEKGBuffer))
 16743 5fae 81E0      		ldi r24,lo8(1)
 16744 5fb0 8C93      		st X,r24
 16745               	.LM1636:
 16746 5fb2 862F      		mov r24,r22
 16747 5fb4 8F5F      		subi r24,lo8(-(1))
 16748 5fb6 8093 0000 		sts EKGBufferToWriteTo,r24
 16749               	.LM1637:
 16750 5fba 8330      		cpi r24,lo8(3)
 16751 5fbc 01F4      		brne .L930
 16752               	.LM1638:
 16753 5fbe 1092 0000 		sts EKGBufferToWriteTo,__zero_reg__
 16754               	.L930:
 16755               	.LM1639:
 16756 5fc2 8091 0000 		lds r24,HZ_RefeshCounter2
 16757 5fc6 9091 0000 		lds r25,(HZ_RefeshCounter2)+1
 16758 5fca 0196      		adiw r24,1
 16759 5fcc 8093 0000 		sts HZ_RefeshCounter2,r24
 16760 5fd0 9093 0000 		sts (HZ_RefeshCounter2)+1,r25
 16761               	.LM1640:
 16762 5fd4 8091 0000 		lds r24,HZ_RefeshCounter2
 16763 5fd8 9091 0000 		lds r25,(HZ_RefeshCounter2)+1
 16764 5fdc 0697      		sbiw r24,6
 16765 5fde 01F0      		breq .+2
 16766 5fe0 00C0      		rjmp .L929
 16767               	.LM1641:
 16768 5fe2 1092 0000 		sts HZ_RefeshCounter2,__zero_reg__
 16769 5fe6 1092 0000 		sts (HZ_RefeshCounter2)+1,__zero_reg__
 16770               	.LM1642:
 16771 5fea 8091 0000 		lds r24,wantToRecordRespiration
 16772 5fee 8823      		tst r24
 16773 5ff0 01F4      		brne .+2
 16774 5ff2 00C0      		rjmp .L929
 16775 5ff4 8091 0000 		lds r24,respirationBufferToWriteTo
 16776 5ff8 C82F      		mov r28,r24
 16777 5ffa D0E0      		ldi r29,lo8(0)
 16778 5ffc FE01      		movw r30,r28
 16779 5ffe E050      		subi r30,lo8(-(okToSendRespirationBuffer))
 16780 6000 F040      		sbci r31,hi8(-(okToSendRespirationBuffer))
 16781 6002 8081      		ld r24,Z
 16782 6004 8823      		tst r24
 16783 6006 01F0      		breq .+2
 16784 6008 00C0      		rjmp .L929
 16785               	.LM1643:
 16786 600a 8091 0000 		lds r24,respirationBufferCounter
 16787 600e 9091 0000 		lds r25,(respirationBufferCounter)+1
 16788 6012 892B      		or r24,r25
 16789 6014 01F4      		brne .L932
 16790               	.LM1644:
 16791 6016 0E94 0000 		call Time_Get32BitTimer
 16792 601a CC0F      		lsl r28
 16793 601c DD1F      		rol r29
 16794 601e CC0F      		lsl r28
 16795 6020 DD1F      		rol r29
 16796 6022 C050      		subi r28,lo8(-(respirationSampleStartTime))
 16797 6024 D040      		sbci r29,hi8(-(respirationSampleStartTime))
 16798 6026 6883      		st Y,r22
 16799 6028 7983      		std Y+1,r23
 16800 602a 8A83      		std Y+2,r24
 16801 602c 9B83      		std Y+3,r25
 16802               	.L932:
 16803               	.LM1645:
 16804 602e 6091 0000 		lds r22,respirationBufferToWriteTo
 16805 6032 A62F      		mov r26,r22
 16806 6034 B0E0      		ldi r27,lo8(0)
 16807 6036 2091 0000 		lds r18,respirationBufferCounter
 16808 603a 3091 0000 		lds r19,(respirationBufferCounter)+1
 16809               	.LBB699:
 16810               	.LBB700:
 16811               	.LM1646:
 16812 603e 4091 5002 		lds r20,592
 16813 6042 5091 5102 		lds r21,(592)+1
 16814               	.LBE700:
 16815               	.LBE699:
 16816               	.LM1647:
 16817 6046 82E3      		ldi r24,lo8(50)
 16818 6048 90E0      		ldi r25,hi8(50)
 16819 604a A89F      		mul r26,r24
 16820 604c F001      		movw r30,r0
 16821 604e A99F      		mul r26,r25
 16822 6050 F00D      		add r31,r0
 16823 6052 B89F      		mul r27,r24
 16824 6054 F00D      		add r31,r0
 16825 6056 1124      		clr r1
 16826 6058 E20F      		add r30,r18
 16827 605a F31F      		adc r31,r19
 16828 605c EE0F      		lsl r30
 16829 605e FF1F      		rol r31
 16830 6060 E050      		subi r30,lo8(-(respirationBuffer))
 16831 6062 F040      		sbci r31,hi8(-(respirationBuffer))
 16832 6064 4083      		st Z,r20
 16833 6066 5183      		std Z+1,r21
 16834               	.LM1648:
 16835 6068 2F5F      		subi r18,lo8(-(1))
 16836 606a 3F4F      		sbci r19,hi8(-(1))
 16837 606c 2093 0000 		sts respirationBufferCounter,r18
 16838 6070 3093 0000 		sts (respirationBufferCounter)+1,r19
 16839               	.LM1649:
 16840 6074 2233      		cpi r18,50
 16841 6076 3105      		cpc r19,__zero_reg__
 16842 6078 01F4      		brne .L929
 16843               	.LM1650:
 16844 607a 1092 0000 		sts respirationBufferCounter,__zero_reg__
 16845 607e 1092 0000 		sts (respirationBufferCounter)+1,__zero_reg__
 16846               	.LM1651:
 16847 6082 A050      		subi r26,lo8(-(okToSendRespirationBuffer))
 16848 6084 B040      		sbci r27,hi8(-(okToSendRespirationBuffer))
 16849 6086 81E0      		ldi r24,lo8(1)
 16850 6088 8C93      		st X,r24
 16851               	.LM1652:
 16852 608a 862F      		mov r24,r22
 16853 608c 8F5F      		subi r24,lo8(-(1))
 16854 608e 8093 0000 		sts respirationBufferToWriteTo,r24
 16855               	.LM1653:
 16856 6092 8330      		cpi r24,lo8(3)
 16857 6094 01F4      		brne .L929
 16858               	.LM1654:
 16859 6096 1092 0000 		sts respirationBufferToWriteTo,__zero_reg__
 16860               	.L929:
 16861               	.LM1655:
 16862 609a 8091 0000 		lds r24,HZ_RefeshCounter
 16863 609e 9091 0000 		lds r25,(HZ_RefeshCounter)+1
 16864 60a2 0196      		adiw r24,1
 16865 60a4 8093 0000 		sts HZ_RefeshCounter,r24
 16866 60a8 9093 0000 		sts (HZ_RefeshCounter)+1,r25
 16867               	.LM1656:
 16868 60ac 8091 0000 		lds r24,HZ_RefeshCounter
 16869 60b0 9091 0000 		lds r25,(HZ_RefeshCounter)+1
 16870 60b4 8C52      		subi r24,lo8(300)
 16871 60b6 9140      		sbci r25,hi8(300)
 16872 60b8 01F0      		breq .+2
 16873 60ba 00C0      		rjmp .L938
 16874               	.LM1657:
 16875 60bc 1092 0000 		sts HZ_RefeshCounter,__zero_reg__
 16876 60c0 1092 0000 		sts (HZ_RefeshCounter)+1,__zero_reg__
 16877               	.LM1658:
 16878 60c4 8091 0000 		lds r24,UNIX_Time
 16879 60c8 9091 0000 		lds r25,(UNIX_Time)+1
 16880 60cc A091 0000 		lds r26,(UNIX_Time)+2
 16881 60d0 B091 0000 		lds r27,(UNIX_Time)+3
 16882 60d4 0196      		adiw r24,1
 16883 60d6 A11D      		adc r26,__zero_reg__
 16884 60d8 B11D      		adc r27,__zero_reg__
 16885 60da 8093 0000 		sts UNIX_Time,r24
 16886 60de 9093 0000 		sts (UNIX_Time)+1,r25
 16887 60e2 A093 0000 		sts (UNIX_Time)+2,r26
 16888 60e6 B093 0000 		sts (UNIX_Time)+3,r27
 16889               	.LM1659:
 16890 60ea 8091 0000 		lds r24,rtcBlockCounter
 16891 60ee 8F5F      		subi r24,lo8(-(1))
 16892 60f0 8093 0000 		sts rtcBlockCounter,r24
 16893               	.LM1660:
 16894 60f4 8823      		tst r24
 16895 60f6 01F4      		brne .L934
 16896               	.LM1661:
 16897 60f8 81E0      		ldi r24,lo8(1)
 16898 60fa 8093 0000 		sts okToSendRTCBlock,r24
 16899               	.L934:
 16900               	.LM1662:
 16901 60fe 8091 0000 		lds r24,recording
 16902 6102 8823      		tst r24
 16903 6104 01F4      		brne .+2
 16904 6106 00C0      		rjmp .L938
 16905               	.LM1663:
 16906 6108 8091 0000 		lds r24,wantToRecordTemperature
 16907 610c 8823      		tst r24
 16908 610e 01F4      		brne .+2
 16909 6110 00C0      		rjmp .L935
 16910 6112 8091 0000 		lds r24,temperatureBufferToWriteTo
 16911 6116 C82F      		mov r28,r24
 16912 6118 D0E0      		ldi r29,lo8(0)
 16913 611a FE01      		movw r30,r28
 16914 611c E050      		subi r30,lo8(-(okToSendTemperatureBuffer))
 16915 611e F040      		sbci r31,hi8(-(okToSendTemperatureBuffer))
 16916 6120 8081      		ld r24,Z
 16917 6122 8823      		tst r24
 16918 6124 01F0      		breq .+2
 16919 6126 00C0      		rjmp .L935
 16920               	.LM1664:
 16921 6128 8091 0000 		lds r24,temperatureBufferCounter
 16922 612c 9091 0000 		lds r25,(temperatureBufferCounter)+1
 16923 6130 892B      		or r24,r25
 16924 6132 01F4      		brne .L936
 16925               	.LM1665:
 16926 6134 0E94 0000 		call Time_Get32BitTimer
 16927 6138 CC0F      		lsl r28
 16928 613a DD1F      		rol r29
 16929 613c CC0F      		lsl r28
 16930 613e DD1F      		rol r29
 16931 6140 C050      		subi r28,lo8(-(temperatureSampleStartTime))
 16932 6142 D040      		sbci r29,hi8(-(temperatureSampleStartTime))
 16933 6144 6883      		st Y,r22
 16934 6146 7983      		std Y+1,r23
 16935 6148 8A83      		std Y+2,r24
 16936 614a 9B83      		std Y+3,r25
 16937               	.L936:
 16938               	.LM1666:
 16939 614c 6091 0000 		lds r22,temperatureBufferToWriteTo
 16940 6150 A62F      		mov r26,r22
 16941 6152 B0E0      		ldi r27,lo8(0)
 16942 6154 2091 0000 		lds r18,temperatureBufferCounter
 16943 6158 3091 0000 		lds r19,(temperatureBufferCounter)+1
 16944               	.LBB701:
 16945               	.LBB702:
 16946               	.LM1667:
 16947 615c 4091 1202 		lds r20,530
 16948 6160 5091 1302 		lds r21,(530)+1
 16949               	.LBE702:
 16950               	.LBE701:
 16951               	.LM1668:
 16952 6164 FD01      		movw r30,r26
 16953 6166 EE0F      		lsl r30
 16954 6168 FF1F      		rol r31
 16955 616a CD01      		movw r24,r26
 16956 616c 13E0      		ldi r17,3
 16957 616e 880F      	1:	lsl r24
 16958 6170 991F      		rol r25
 16959 6172 1A95      		dec r17
 16960 6174 01F4      		brne 1b
 16961 6176 E80F      		add r30,r24
 16962 6178 F91F      		adc r31,r25
 16963 617a E20F      		add r30,r18
 16964 617c F31F      		adc r31,r19
 16965 617e EE0F      		lsl r30
 16966 6180 FF1F      		rol r31
 16967 6182 E050      		subi r30,lo8(-(temperatureBuffer))
 16968 6184 F040      		sbci r31,hi8(-(temperatureBuffer))
 16969 6186 4083      		st Z,r20
 16970 6188 5183      		std Z+1,r21
 16971               	.LM1669:
 16972 618a 2F5F      		subi r18,lo8(-(1))
 16973 618c 3F4F      		sbci r19,hi8(-(1))
 16974 618e 2093 0000 		sts temperatureBufferCounter,r18
 16975 6192 3093 0000 		sts (temperatureBufferCounter)+1,r19
 16976               	.LM1670:
 16977 6196 2A30      		cpi r18,10
 16978 6198 3105      		cpc r19,__zero_reg__
 16979 619a 01F4      		brne .L935
 16980               	.LM1671:
 16981 619c 1092 0000 		sts temperatureBufferCounter,__zero_reg__
 16982 61a0 1092 0000 		sts (temperatureBufferCounter)+1,__zero_reg__
 16983               	.LM1672:
 16984 61a4 A050      		subi r26,lo8(-(okToSendTemperatureBuffer))
 16985 61a6 B040      		sbci r27,hi8(-(okToSendTemperatureBuffer))
 16986 61a8 81E0      		ldi r24,lo8(1)
 16987 61aa 8C93      		st X,r24
 16988               	.LM1673:
 16989 61ac 862F      		mov r24,r22
 16990 61ae 8F5F      		subi r24,lo8(-(1))
 16991 61b0 8093 0000 		sts temperatureBufferToWriteTo,r24
 16992               	.LM1674:
 16993 61b4 8230      		cpi r24,lo8(2)
 16994 61b6 01F4      		brne .L935
 16995               	.LM1675:
 16996 61b8 1092 0000 		sts temperatureBufferToWriteTo,__zero_reg__
 16997               	.L935:
 16998               	.LM1676:
 16999 61bc 8091 0000 		lds r24,wantToRecordHumidity
 17000 61c0 8823      		tst r24
 17001 61c2 01F4      		brne .+2
 17002 61c4 00C0      		rjmp .L938
 17003 61c6 8091 0000 		lds r24,humidityBufferToWriteTo
 17004 61ca C82F      		mov r28,r24
 17005 61cc D0E0      		ldi r29,lo8(0)
 17006 61ce FE01      		movw r30,r28
 17007 61d0 E050      		subi r30,lo8(-(okToSendHumidityBuffer))
 17008 61d2 F040      		sbci r31,hi8(-(okToSendHumidityBuffer))
 17009 61d4 8081      		ld r24,Z
 17010 61d6 8823      		tst r24
 17011 61d8 01F0      		breq .+2
 17012 61da 00C0      		rjmp .L938
 17013               	.LM1677:
 17014 61dc 8091 0000 		lds r24,humidityBufferCounter
 17015 61e0 9091 0000 		lds r25,(humidityBufferCounter)+1
 17016 61e4 892B      		or r24,r25
 17017 61e6 01F4      		brne .L937
 17018               	.LM1678:
 17019 61e8 0E94 0000 		call Time_Get32BitTimer
 17020 61ec CC0F      		lsl r28
 17021 61ee DD1F      		rol r29
 17022 61f0 CC0F      		lsl r28
 17023 61f2 DD1F      		rol r29
 17024 61f4 C050      		subi r28,lo8(-(humiditySampleStartTime))
 17025 61f6 D040      		sbci r29,hi8(-(humiditySampleStartTime))
 17026 61f8 6883      		st Y,r22
 17027 61fa 7983      		std Y+1,r23
 17028 61fc 8A83      		std Y+2,r24
 17029 61fe 9B83      		std Y+3,r25
 17030               	.L937:
 17031               	.LM1679:
 17032 6200 1091 0000 		lds r17,humidityBufferToWriteTo
 17033 6204 E090 0000 		lds r14,humidityBufferCounter
 17034 6208 F090 0000 		lds r15,(humidityBufferCounter)+1
 17035 620c 0E94 0000 		call Sensors_ReadHumidity
 17036 6210 212F      		mov r18,r17
 17037 6212 30E0      		ldi r19,lo8(0)
 17038 6214 F901      		movw r30,r18
 17039 6216 13E0      		ldi r17,3
 17040 6218 EE0F      	1:	lsl r30
 17041 621a FF1F      		rol r31
 17042 621c 1A95      		dec r17
 17043 621e 01F4      		brne 1b
 17044 6220 220F      		lsl r18
 17045 6222 331F      		rol r19
 17046 6224 E20F      		add r30,r18
 17047 6226 F31F      		adc r31,r19
 17048 6228 EE0D      		add r30,r14
 17049 622a FF1D      		adc r31,r15
 17050 622c EE0F      		lsl r30
 17051 622e FF1F      		rol r31
 17052 6230 E050      		subi r30,lo8(-(humidityBuffer))
 17053 6232 F040      		sbci r31,hi8(-(humidityBuffer))
 17054 6234 8083      		st Z,r24
 17055 6236 9183      		std Z+1,r25
 17056               	.LM1680:
 17057 6238 8091 0000 		lds r24,humidityBufferCounter
 17058 623c 9091 0000 		lds r25,(humidityBufferCounter)+1
 17059 6240 0196      		adiw r24,1
 17060 6242 8093 0000 		sts humidityBufferCounter,r24
 17061 6246 9093 0000 		sts (humidityBufferCounter)+1,r25
 17062               	.LM1681:
 17063 624a 0A97      		sbiw r24,10
 17064 624c 01F4      		brne .L938
 17065               	.LM1682:
 17066 624e 1092 0000 		sts humidityBufferCounter,__zero_reg__
 17067 6252 1092 0000 		sts (humidityBufferCounter)+1,__zero_reg__
 17068               	.LM1683:
 17069 6256 8091 0000 		lds r24,humidityBufferToWriteTo
 17070 625a E82F      		mov r30,r24
 17071 625c F0E0      		ldi r31,lo8(0)
 17072 625e E050      		subi r30,lo8(-(okToSendHumidityBuffer))
 17073 6260 F040      		sbci r31,hi8(-(okToSendHumidityBuffer))
 17074 6262 91E0      		ldi r25,lo8(1)
 17075 6264 9083      		st Z,r25
 17076               	.LM1684:
 17077 6266 8F5F      		subi r24,lo8(-(1))
 17078 6268 8093 0000 		sts humidityBufferToWriteTo,r24
 17079               	.LM1685:
 17080 626c 8230      		cpi r24,lo8(2)
 17081 626e 01F4      		brne .L938
 17082               	.LM1686:
 17083 6270 1092 0000 		sts humidityBufferToWriteTo,__zero_reg__
 17084               	.L938:
 17085               	/* epilogue start */
 17086               	.LM1687:
 17087 6274 FF91      		pop r31
 17088 6276 EF91      		pop r30
 17089 6278 DF91      		pop r29
 17090 627a CF91      		pop r28
 17091 627c BF91      		pop r27
 17092 627e AF91      		pop r26
 17093 6280 9F91      		pop r25
 17094 6282 8F91      		pop r24
 17095 6284 7F91      		pop r23
 17096 6286 6F91      		pop r22
 17097 6288 5F91      		pop r21
 17098 628a 4F91      		pop r20
 17099 628c 3F91      		pop r19
 17100 628e 2F91      		pop r18
 17101 6290 1F91      		pop r17
 17102 6292 FF90      		pop r15
 17103 6294 EF90      		pop r14
 17104 6296 0F90      		pop r0
 17105 6298 0BBE      		out 59-0,r0
 17106 629a 0F90      		pop r0
 17107 629c 0FBE      		out __SREG__,r0
 17108 629e 0F90      		pop r0
 17109 62a0 1F90      		pop __zero_reg__
 17110 62a2 1895      		reti
 17111               	.LFE122:
 17113               	.global	SP_ReadCalibrationByte
 17115               	SP_ReadCalibrationByte:
 17116               	.LFB123:
 17117               	.LM1688:
 17118               	.LVL1375:
 17119               	/* prologue: function */
 17120               	/* frame size = 0 */
 17121               	.LM1689:
 17122 62a4 AAEC      		ldi r26,lo8(458)
 17123 62a6 B1E0      		ldi r27,hi8(458)
 17124 62a8 92E0      		ldi r25,lo8(2)
 17125 62aa 9C93      		st X,r25
 17126               	.LBB703:
 17127               	.LM1690:
 17128 62ac E82F      		mov r30,r24
 17129 62ae F0E0      		ldi r31,lo8(0)
 17130               	.LVL1376:
 17131               	/* #APP */
 17132               	 ;  264 "sensorsCS.c" 1
 17133 62b0 E491      		lpm r30, Z
 17134               		
 17135               	 ;  0 "" 2
 17136               	.LVL1377:
 17137               	/* #NOAPP */
 17138               	.LBE703:
 17139               	.LM1691:
 17140 62b2 1C92      		st X,__zero_reg__
 17141               	.LM1692:
 17142 62b4 8E2F      		mov r24,r30
 17143               	.LVL1378:
 17144               	/* epilogue start */
 17145 62b6 0895      		ret
 17146               	.LFE123:
 17148               	.global	Uploader_getTime
 17150               	Uploader_getTime:
 17151               	.LFB126:
 17152               	.LM1693:
 17153 62b8 EF92      		push r14
 17154 62ba FF92      		push r15
 17155 62bc 1F93      		push r17
 17156 62be DF93      		push r29
 17157 62c0 CF93      		push r28
 17158 62c2 00D0      		rcall .
 17159 62c4 00D0      		rcall .
 17160 62c6 CDB7      		in r28,__SP_L__
 17161 62c8 DEB7      		in r29,__SP_H__
 17162               	/* prologue: function */
 17163               	/* frame size = 6 */
 17164               	.LM1694:
 17165 62ca 1B82      		std Y+3,__zero_reg__
 17166 62cc 1C82      		std Y+4,__zero_reg__
 17167 62ce 1D82      		std Y+5,__zero_reg__
 17168 62d0 1E82      		std Y+6,__zero_reg__
 17169               	.LVL1379:
 17170               	.LM1695:
 17171 62d2 1982      		std Y+1,__zero_reg__
 17172               	.LVL1380:
 17173               	.LM1696:
 17174 62d4 1A82      		std Y+2,__zero_reg__
 17175               	.LVL1381:
 17176               	.LM1697:
 17177 62d6 84E5      		ldi r24,lo8(84)
 17178 62d8 0E94 0000 		call Debug_SendByte
 17179 62dc 8823      		tst r24
 17180 62de 01F4      		brne .+2
 17181 62e0 00C0      		rjmp .L942
 17182               	.LBB704:
 17183               	.LBB705:
 17184               	.LBB706:
 17185               	.LBB707:
 17186               	.LM1698:
 17187 62e2 66E6      		ldi r22,lo8(3686)
 17188 62e4 E62E      		mov r14,r22
 17189 62e6 6EE0      		ldi r22,hi8(3686)
 17190 62e8 F62E      		mov r15,r22
 17191               	.L947:
 17192               	.LBE707:
 17193               	.LBE706:
 17194               	.LBE705:
 17195               	.LBE704:
 17196               	.LM1699:
 17197 62ea 0E94 0000 		call Debug_CharReadyToRead
 17198 62ee 8823      		tst r24
 17199 62f0 01F4      		brne .+2
 17200 62f2 00C0      		rjmp .L943
 17201               	.LM1700:
 17202 62f4 1A81      		ldd r17,Y+2
 17203 62f6 80E0      		ldi r24,lo8(0)
 17204 62f8 0E94 0000 		call Debug_GetByte
 17205 62fc E12F      		mov r30,r17
 17206 62fe F0E0      		ldi r31,lo8(0)
 17207 6300 E050      		subi r30,lo8(-(command))
 17208 6302 F040      		sbci r31,hi8(-(command))
 17209 6304 8183      		std Z+1,r24
 17210               	.LM1701:
 17211 6306 EA81      		ldd r30,Y+2
 17212 6308 F0E0      		ldi r31,lo8(0)
 17213 630a E050      		subi r30,lo8(-(command))
 17214 630c F040      		sbci r31,hi8(-(command))
 17215 630e 8181      		ldd r24,Z+1
 17216 6310 0E94 0000 		call Debug_SendByte
 17217 6314 8823      		tst r24
 17218 6316 01F4      		brne .+2
 17219 6318 00C0      		rjmp .L942
 17220               	.LM1702:
 17221 631a 8A81      		ldd r24,Y+2
 17222 631c 8F5F      		subi r24,lo8(-(1))
 17223 631e 8A83      		std Y+2,r24
 17224               	.LVL1382:
 17225               	.LM1703:
 17226 6320 8A81      		ldd r24,Y+2
 17227 6322 8430      		cpi r24,lo8(4)
 17228 6324 01F0      		breq .+2
 17229 6326 00C0      		rjmp .L943
 17230               	.LM1704:
 17231 6328 8091 0000 		lds r24,command+1
 17232 632c 90E0      		ldi r25,lo8(0)
 17233               	.LVL1383:
 17234 632e A0E0      		ldi r26,lo8(0)
 17235 6330 B0E0      		ldi r27,hi8(0)
 17236               	.LVL1384:
 17237 6332 8B83      		std Y+3,r24
 17238 6334 9C83      		std Y+4,r25
 17239 6336 AD83      		std Y+5,r26
 17240 6338 BE83      		std Y+6,r27
 17241               	.LM1705:
 17242 633a 8B81      		ldd r24,Y+3
 17243 633c 9C81      		ldd r25,Y+4
 17244 633e AD81      		ldd r26,Y+5
 17245 6340 BE81      		ldd r27,Y+6
 17246 6342 BA2F      		mov r27,r26
 17247 6344 A92F      		mov r26,r25
 17248 6346 982F      		mov r25,r24
 17249 6348 8827      		clr r24
 17250               	.LVL1385:
 17251 634a 8B83      		std Y+3,r24
 17252 634c 9C83      		std Y+4,r25
 17253 634e AD83      		std Y+5,r26
 17254 6350 BE83      		std Y+6,r27
 17255               	.LM1706:
 17256 6352 8B81      		ldd r24,Y+3
 17257 6354 9C81      		ldd r25,Y+4
 17258 6356 AD81      		ldd r26,Y+5
 17259 6358 BE81      		ldd r27,Y+6
 17260               	.LVL1386:
 17261 635a 2091 0000 		lds r18,command+2
 17262 635e 820F      		add r24,r18
 17263 6360 911D      		adc r25,__zero_reg__
 17264 6362 A11D      		adc r26,__zero_reg__
 17265 6364 B11D      		adc r27,__zero_reg__
 17266 6366 8B83      		std Y+3,r24
 17267 6368 9C83      		std Y+4,r25
 17268 636a AD83      		std Y+5,r26
 17269 636c BE83      		std Y+6,r27
 17270               	.LVL1387:
 17271               	.LM1707:
 17272 636e 8B81      		ldd r24,Y+3
 17273 6370 9C81      		ldd r25,Y+4
 17274 6372 AD81      		ldd r26,Y+5
 17275 6374 BE81      		ldd r27,Y+6
 17276 6376 BA2F      		mov r27,r26
 17277 6378 A92F      		mov r26,r25
 17278 637a 982F      		mov r25,r24
 17279 637c 8827      		clr r24
 17280               	.LVL1388:
 17281 637e 8B83      		std Y+3,r24
 17282 6380 9C83      		std Y+4,r25
 17283 6382 AD83      		std Y+5,r26
 17284 6384 BE83      		std Y+6,r27
 17285               	.LM1708:
 17286 6386 8B81      		ldd r24,Y+3
 17287 6388 9C81      		ldd r25,Y+4
 17288 638a AD81      		ldd r26,Y+5
 17289 638c BE81      		ldd r27,Y+6
 17290               	.LVL1389:
 17291 638e 2091 0000 		lds r18,command+3
 17292 6392 820F      		add r24,r18
 17293 6394 911D      		adc r25,__zero_reg__
 17294 6396 A11D      		adc r26,__zero_reg__
 17295 6398 B11D      		adc r27,__zero_reg__
 17296 639a 8B83      		std Y+3,r24
 17297 639c 9C83      		std Y+4,r25
 17298 639e AD83      		std Y+5,r26
 17299 63a0 BE83      		std Y+6,r27
 17300               	.LVL1390:
 17301               	.LM1709:
 17302 63a2 8B81      		ldd r24,Y+3
 17303 63a4 9C81      		ldd r25,Y+4
 17304 63a6 AD81      		ldd r26,Y+5
 17305 63a8 BE81      		ldd r27,Y+6
 17306 63aa BA2F      		mov r27,r26
 17307 63ac A92F      		mov r26,r25
 17308 63ae 982F      		mov r25,r24
 17309 63b0 8827      		clr r24
 17310               	.LVL1391:
 17311 63b2 8B83      		std Y+3,r24
 17312 63b4 9C83      		std Y+4,r25
 17313 63b6 AD83      		std Y+5,r26
 17314 63b8 BE83      		std Y+6,r27
 17315               	.LM1710:
 17316 63ba 8B81      		ldd r24,Y+3
 17317 63bc 9C81      		ldd r25,Y+4
 17318 63be AD81      		ldd r26,Y+5
 17319 63c0 BE81      		ldd r27,Y+6
 17320               	.LVL1392:
 17321 63c2 2091 0000 		lds r18,command+4
 17322 63c6 820F      		add r24,r18
 17323 63c8 911D      		adc r25,__zero_reg__
 17324 63ca A11D      		adc r26,__zero_reg__
 17325 63cc B11D      		adc r27,__zero_reg__
 17326 63ce 8B83      		std Y+3,r24
 17327 63d0 9C83      		std Y+4,r25
 17328 63d2 AD83      		std Y+5,r26
 17329 63d4 BE83      		std Y+6,r27
 17330               	.LVL1393:
 17331               	.LM1711:
 17332 63d6 6B81      		ldd r22,Y+3
 17333 63d8 7C81      		ldd r23,Y+4
 17334 63da 8D81      		ldd r24,Y+5
 17335 63dc 9E81      		ldd r25,Y+6
 17336 63de 0E94 0000 		call Time_Set
 17337               	.LVL1394:
 17338 63e2 81E0      		ldi r24,lo8(1)
 17339 63e4 00C0      		rjmp .L944
 17340               	.L943:
 17341               	.LBB711:
 17342               	.LBB710:
 17343               	.LBB709:
 17344               	.LBB708:
 17345               	.LM1712:
 17346 63e6 C701      		movw r24,r14
 17347               	.LVL1395:
 17348               	/* #APP */
 17349               	 ;  105 "/usr/local/CrossPack-AVR-20100115/lib/gcc/avr/4.3.3/../../../../avr/include/util/delay_bas
 17350 63e8 0197      		1: sbiw r24,1
 17351 63ea 01F4      		brne 1b
 17352               	 ;  0 "" 2
 17353               	/* #NOAPP */
 17354               	.LBE708:
 17355               	.LBE709:
 17356               	.LBE710:
 17357               	.LBE711:
 17358               	.LM1713:
 17359 63ec 8981      		ldd r24,Y+1
 17360               	.LVL1396:
 17361 63ee 8F5F      		subi r24,lo8(-(1))
 17362 63f0 8983      		std Y+1,r24
 17363               	.LVL1397:
 17364               	.LM1714:
 17365 63f2 8981      		ldd r24,Y+1
 17366 63f4 8536      		cpi r24,lo8(101)
 17367 63f6 00F4      		brsh .+2
 17368 63f8 00C0      		rjmp .L947
 17369               	.L942:
 17370 63fa 80E0      		ldi r24,lo8(0)
 17371               	.L944:
 17372               	/* epilogue start */
 17373               	.LM1715:
 17374 63fc 2696      		adiw r28,6
 17375 63fe CDBF      		out __SP_L__,r28
 17376 6400 DEBF      		out __SP_H__,r29
 17377 6402 CF91      		pop r28
 17378 6404 DF91      		pop r29
 17379 6406 1F91      		pop r17
 17380 6408 FF90      		pop r15
 17381 640a EF90      		pop r14
 17382 640c 0895      		ret
 17383               	.LFE126:
 17385               	.global	Uploader_eraseFile
 17387               	Uploader_eraseFile:
 17388               	.LFB134:
 17389               	.LM1716:
 17390 640e FF92      		push r15
 17391 6410 0F93      		push r16
 17392 6412 1F93      		push r17
 17393 6414 CF93      		push r28
 17394 6416 DF93      		push r29
 17395               	/* prologue: function */
 17396               	/* frame size = 0 */
 17397               	.LM1717:
 17398 6418 85E4      		ldi r24,lo8(69)
 17399 641a 0E94 0000 		call Debug_SendByte
 17400 641e 8823      		tst r24
 17401 6420 01F4      		brne .+2
 17402 6422 00C0      		rjmp .L950
 17403 6424 FF24      		clr r15
 17404               	.LVL1398:
 17405 6426 10E0      		ldi r17,lo8(0)
 17406               	.LVL1399:
 17407 6428 00E0      		ldi r16,lo8(0)
 17408               	.LVL1400:
 17409               	.LBB712:
 17410               	.LBB713:
 17411               	.LBB714:
 17412               	.LBB715:
 17413               	.LM1718:
 17414 642a C6E6      		ldi r28,lo8(3686)
 17415 642c DEE0      		ldi r29,hi8(3686)
 17416               	.LVL1401:
 17417               	.L959:
 17418               	.LBE715:
 17419               	.LBE714:
 17420               	.LBE713:
 17421               	.LBE712:
 17422               	.LM1719:
 17423 642e 0E94 0000 		call Debug_CharReadyToRead
 17424               	.LVL1402:
 17425 6432 8823      		tst r24
 17426 6434 01F0      		breq .L951
 17427               	.LM1720:
 17428 6436 1123      		tst r17
 17429 6438 01F4      		brne .L952
 17430               	.LM1721:
 17431 643a 80E0      		ldi r24,lo8(0)
 17432 643c 0E94 0000 		call Debug_GetByte
 17433 6440 082F      		mov r16,r24
 17434               	.LM1722:
 17435 6442 0E94 0000 		call Debug_SendByte
 17436 6446 8823      		tst r24
 17437 6448 01F4      		brne .L963
 17438 644a 00C0      		rjmp .L950
 17439               	.L952:
 17440               	.LM1723:
 17441 644c 80E0      		ldi r24,lo8(0)
 17442 644e 0E94 0000 		call Debug_GetByte
 17443 6452 E12F      		mov r30,r17
 17444 6454 F0E0      		ldi r31,lo8(0)
 17445               	.LVL1403:
 17446 6456 E050      		subi r30,lo8(-(fileToErase-1))
 17447 6458 F040      		sbci r31,hi8(-(fileToErase-1))
 17448               	.LVL1404:
 17449 645a 8083      		st Z,r24
 17450               	.LM1724:
 17451 645c 0E94 0000 		call Debug_SendByte
 17452               	.LVL1405:
 17453 6460 8823      		tst r24
 17454 6462 01F0      		breq .L950
 17455               	.LM1725:
 17456 6464 1F5F      		subi r17,lo8(-(1))
 17457               	.LVL1406:
 17458               	.LM1726:
 17459 6466 802F      		mov r24,r16
 17460 6468 90E0      		ldi r25,lo8(0)
 17461               	.LVL1407:
 17462 646a 0196      		adiw r24,1
 17463               	.LVL1408:
 17464 646c E12F      		mov r30,r17
 17465 646e F0E0      		ldi r31,lo8(0)
 17466               	.LVL1409:
 17467 6470 E817      		cp r30,r24
 17468 6472 F907      		cpc r31,r25
 17469 6474 01F4      		brne .L951
 17470               	.LVL1410:
 17471               	.LM1727:
 17472 6476 E050      		subi r30,lo8(-(fileToErase))
 17473 6478 F040      		sbci r31,hi8(-(fileToErase))
 17474               	.LVL1411:
 17475 647a 1082      		st Z,__zero_reg__
 17476               	.LM1728:
 17477 647c 81E0      		ldi r24,lo8(1)
 17478               	.LVL1412:
 17479 647e 8093 0000 		sts okToEraseFile,r24
 17480               	.L954:
 17481               	.LM1729:
 17482 6482 8091 0000 		lds r24,okToEraseFile
 17483 6486 8823      		tst r24
 17484 6488 01F4      		brne .L954
 17485               	.LM1730:
 17486 648a 8091 0000 		lds r24,eraseFileReturn
 17487 648e 8823      		tst r24
 17488 6490 01F4      		brne .L955
 17489               	.LM1731:
 17490 6492 84E5      		ldi r24,lo8(84)
 17491 6494 00C0      		rjmp .L965
 17492               	.L955:
 17493               	.LM1732:
 17494 6496 86E4      		ldi r24,lo8(70)
 17495               	.L965:
 17496 6498 0E94 0000 		call Debug_SendByte
 17497               	.LVL1413:
 17498 649c 8823      		tst r24
 17499 649e 01F0      		breq .L957
 17500 64a0 81E0      		ldi r24,lo8(1)
 17501 64a2 00C0      		rjmp .L957
 17502               	.LVL1414:
 17503               	.L963:
 17504 64a4 11E0      		ldi r17,lo8(1)
 17505               	.LVL1415:
 17506               	.L951:
 17507               	.LBB719:
 17508               	.LBB718:
 17509               	.LBB717:
 17510               	.LBB716:
 17511               	.LM1733:
 17512 64a6 CE01      		movw r24,r28
 17513               	.LVL1416:
 17514               	/* #APP */
 17515               	 ;  105 "/usr/local/CrossPack-AVR-20100115/lib/gcc/avr/4.3.3/../../../../avr/include/util/delay_bas
 17516 64a8 0197      		1: sbiw r24,1
 17517 64aa 01F4      		brne 1b
 17518               	 ;  0 "" 2
 17519               	/* #NOAPP */
 17520               	.LBE716:
 17521               	.LBE717:
 17522               	.LBE718:
 17523               	.LBE719:
 17524               	.LM1734:
 17525 64ac F394      		inc r15
 17526               	.LM1735:
 17527 64ae 85E6      		ldi r24,lo8(101)
 17528               	.LVL1417:
 17529 64b0 F816      		cp r15,r24
 17530 64b2 01F0      		breq .+2
 17531 64b4 00C0      		rjmp .L959
 17532               	.L950:
 17533 64b6 80E0      		ldi r24,lo8(0)
 17534               	.L957:
 17535               	/* epilogue start */
 17536               	.LM1736:
 17537 64b8 DF91      		pop r29
 17538 64ba CF91      		pop r28
 17539 64bc 1F91      		pop r17
 17540               	.LVL1418:
 17541 64be 0F91      		pop r16
 17542               	.LVL1419:
 17543 64c0 FF90      		pop r15
 17544               	.LVL1420:
 17545 64c2 0895      		ret
 17546               	.LFE134:
 17548               	.global	Uploader_ClearCRC
 17550               	Uploader_ClearCRC:
 17551               	.LFB137:
 17552               	.LM1737:
 17553               	/* prologue: function */
 17554               	/* frame size = 0 */
 17555               	.LM1738:
 17556 64c4 8FEF      		ldi r24,lo8(-1)
 17557 64c6 9FEF      		ldi r25,hi8(-1)
 17558 64c8 AFEF      		ldi r26,hlo8(-1)
 17559 64ca BFEF      		ldi r27,hhi8(-1)
 17560 64cc 8093 0000 		sts uploadCRC,r24
 17561 64d0 9093 0000 		sts (uploadCRC)+1,r25
 17562 64d4 A093 0000 		sts (uploadCRC)+2,r26
 17563 64d8 B093 0000 		sts (uploadCRC)+3,r27
 17564               	/* epilogue start */
 17565               	.LM1739:
 17566 64dc 0895      		ret
 17567               	.LFE137:
 17569               	.global	Uploader_WriteCRC
 17571               	Uploader_WriteCRC:
 17572               	.LFB138:
 17573               	.LM1740:
 17574 64de EF92      		push r14
 17575 64e0 FF92      		push r15
 17576 64e2 0F93      		push r16
 17577 64e4 1F93      		push r17
 17578               	/* prologue: function */
 17579               	/* frame size = 0 */
 17580               	.LM1741:
 17581 64e6 E090 0000 		lds r14,uploadCRC
 17582 64ea F090 0000 		lds r15,(uploadCRC)+1
 17583 64ee 0091 0000 		lds r16,(uploadCRC)+2
 17584 64f2 1091 0000 		lds r17,(uploadCRC)+3
 17585               	.LVL1421:
 17586 64f6 E094      		com r14
 17587 64f8 F094      		com r15
 17588 64fa 0095      		com r16
 17589 64fc 1095      		com r17
 17590               	.LM1742:
 17591 64fe 812F      		mov r24,r17
 17592 6500 9927      		clr r25
 17593 6502 AA27      		clr r26
 17594 6504 BB27      		clr r27
 17595 6506 0E94 0000 		call Debug_SendByte
 17596 650a 8823      		tst r24
 17597 650c 01F0      		breq .L969
 17598               	.LM1743:
 17599 650e C801      		movw r24,r16
 17600 6510 AA27      		clr r26
 17601 6512 BB27      		clr r27
 17602 6514 0E94 0000 		call Debug_SendByte
 17603 6518 8823      		tst r24
 17604 651a 01F0      		breq .L969
 17605               	.LM1744:
 17606 651c BB27      		clr r27
 17607 651e A12F      		mov r26,r17
 17608 6520 902F      		mov r25,r16
 17609 6522 8F2D      		mov r24,r15
 17610 6524 0E94 0000 		call Debug_SendByte
 17611 6528 8823      		tst r24
 17612 652a 01F0      		breq .L969
 17613               	.LM1745:
 17614 652c 8E2D      		mov r24,r14
 17615 652e 0E94 0000 		call Debug_SendByte
 17616 6532 8823      		tst r24
 17617 6534 01F0      		breq .L971
 17618 6536 81E0      		ldi r24,lo8(1)
 17619 6538 00C0      		rjmp .L971
 17620               	.L969:
 17621 653a 80E0      		ldi r24,lo8(0)
 17622               	.L971:
 17623               	/* epilogue start */
 17624               	.LM1746:
 17625 653c 1F91      		pop r17
 17626 653e 0F91      		pop r16
 17627 6540 FF90      		pop r15
 17628 6542 EF90      		pop r14
 17629               	.LVL1422:
 17630 6544 0895      		ret
 17631               	.LFE138:
 17633               	.global	Uploader_uploadFile
 17635               	Uploader_uploadFile:
 17636               	.LFB133:
 17637               	.LM1747:
 17638 6546 5F92      		push r5
 17639 6548 6F92      		push r6
 17640 654a 7F92      		push r7
 17641 654c 8F92      		push r8
 17642 654e 9F92      		push r9
 17643 6550 AF92      		push r10
 17644 6552 BF92      		push r11
 17645 6554 CF92      		push r12
 17646 6556 DF92      		push r13
 17647 6558 EF92      		push r14
 17648 655a FF92      		push r15
 17649 655c 0F93      		push r16
 17650 655e 1F93      		push r17
 17651 6560 CF93      		push r28
 17652 6562 DF93      		push r29
 17653               	/* prologue: function */
 17654               	/* frame size = 0 */
 17655               	.LM1748:
 17656 6564 81E0      		ldi r24,lo8(1)
 17657 6566 8093 0000 		sts uploading,r24
 17658 656a 88EE      		ldi r24,lo8(1000)
 17659 656c 93E0      		ldi r25,hi8(1000)
 17660               	.LVL1423:
 17661               	.LBB720:
 17662               	.LBB721:
 17663               	.LBB722:
 17664               	.LBB723:
 17665               	.LM1749:
 17666 656e 20E7      		ldi r18,lo8(368)
 17667 6570 31E0      		ldi r19,hi8(368)
 17668               	.L974:
 17669 6572 F901      		movw r30,r18
 17670               	.LVL1424:
 17671               	/* #APP */
 17672               	 ;  105 "/usr/local/CrossPack-AVR-20100115/lib/gcc/avr/4.3.3/../../../../avr/include/util/delay_bas
 17673 6574 3197      		1: sbiw r30,1
 17674 6576 01F4      		brne 1b
 17675               	 ;  0 "" 2
 17676               	/* #NOAPP */
 17677               	.LBE723:
 17678               	.LBE722:
 17679               	.LM1750:
 17680 6578 0197      		sbiw r24,1
 17681               	.LM1751:
 17682 657a 01F4      		brne .L974
 17683               	.LBE721:
 17684               	.LBE720:
 17685               	.LM1752:
 17686 657c 84E4      		ldi r24,lo8(68)
 17687               	.LVL1425:
 17688 657e 0E94 0000 		call Debug_SendByte
 17689               	.LVL1426:
 17690 6582 8823      		tst r24
 17691 6584 01F4      		brne .+2
 17692 6586 00C0      		rjmp .L975
 17693 6588 FF24      		clr r15
 17694               	.LVL1427:
 17695 658a 10E0      		ldi r17,lo8(0)
 17696               	.LVL1428:
 17697 658c 00E0      		ldi r16,lo8(0)
 17698               	.LVL1429:
 17699               	.LBB724:
 17700               	.LBB725:
 17701               	.LBB726:
 17702               	.LBB727:
 17703               	.LM1753:
 17704 658e C6E6      		ldi r28,lo8(3686)
 17705 6590 DEE0      		ldi r29,hi8(3686)
 17706               	.LVL1430:
 17707               	.L979:
 17708               	.LBE727:
 17709               	.LBE726:
 17710               	.LBE725:
 17711               	.LBE724:
 17712               	.LM1754:
 17713 6592 0E94 0000 		call Debug_CharReadyToRead
 17714               	.LVL1431:
 17715 6596 8823      		tst r24
 17716 6598 01F0      		breq .L976
 17717               	.LM1755:
 17718 659a 1123      		tst r17
 17719 659c 01F4      		brne .L977
 17720               	.LM1756:
 17721 659e 80E0      		ldi r24,lo8(0)
 17722 65a0 0E94 0000 		call Debug_GetByte
 17723 65a4 082F      		mov r16,r24
 17724               	.LM1757:
 17725 65a6 0E94 0000 		call Debug_SendByte
 17726 65aa 8823      		tst r24
 17727 65ac 01F4      		brne .+2
 17728 65ae 00C0      		rjmp .L975
 17729 65b0 11E0      		ldi r17,lo8(1)
 17730 65b2 00C0      		rjmp .L976
 17731               	.L977:
 17732               	.LM1758:
 17733 65b4 80E0      		ldi r24,lo8(0)
 17734 65b6 0E94 0000 		call Debug_GetByte
 17735 65ba E12F      		mov r30,r17
 17736 65bc F0E0      		ldi r31,lo8(0)
 17737               	.LVL1432:
 17738 65be E050      		subi r30,lo8(-(fileToUpload-1))
 17739 65c0 F040      		sbci r31,hi8(-(fileToUpload-1))
 17740               	.LVL1433:
 17741 65c2 8083      		st Z,r24
 17742               	.LM1759:
 17743 65c4 0E94 0000 		call Debug_SendByte
 17744               	.LVL1434:
 17745 65c8 8823      		tst r24
 17746 65ca 01F4      		brne .+2
 17747 65cc 00C0      		rjmp .L975
 17748               	.LM1760:
 17749 65ce 1F5F      		subi r17,lo8(-(1))
 17750               	.LVL1435:
 17751               	.LM1761:
 17752 65d0 E12F      		mov r30,r17
 17753 65d2 F0E0      		ldi r31,lo8(0)
 17754 65d4 802F      		mov r24,r16
 17755 65d6 90E0      		ldi r25,lo8(0)
 17756               	.LVL1436:
 17757 65d8 0196      		adiw r24,1
 17758               	.LVL1437:
 17759 65da E817      		cp r30,r24
 17760 65dc F907      		cpc r31,r25
 17761 65de 01F4      		brne .L976
 17762               	.LM1762:
 17763 65e0 E050      		subi r30,lo8(-(fileToUpload))
 17764 65e2 F040      		sbci r31,hi8(-(fileToUpload))
 17765 65e4 1082      		st Z,__zero_reg__
 17766 65e6 21E0      		ldi r18,lo8(1)
 17767               	.LVL1438:
 17768 65e8 00C0      		rjmp .L978
 17769               	.LVL1439:
 17770               	.L976:
 17771 65ea 20E0      		ldi r18,lo8(0)
 17772               	.LVL1440:
 17773               	.L978:
 17774               	.LBB731:
 17775               	.LBB730:
 17776               	.LBB729:
 17777               	.LBB728:
 17778               	.LM1763:
 17779 65ec CE01      		movw r24,r28
 17780               	.LVL1441:
 17781               	/* #APP */
 17782               	 ;  105 "/usr/local/CrossPack-AVR-20100115/lib/gcc/avr/4.3.3/../../../../avr/include/util/delay_bas
 17783 65ee 0197      		1: sbiw r24,1
 17784 65f0 01F4      		brne 1b
 17785               	 ;  0 "" 2
 17786               	/* #NOAPP */
 17787               	.LBE728:
 17788               	.LBE729:
 17789               	.LBE730:
 17790               	.LBE731:
 17791               	.LM1764:
 17792 65f2 F394      		inc r15
 17793               	.LM1765:
 17794 65f4 85E6      		ldi r24,lo8(101)
 17795               	.LVL1442:
 17796 65f6 F816      		cp r15,r24
 17797 65f8 01F4      		brne .+2
 17798 65fa 00C0      		rjmp .L975
 17799               	.LM1766:
 17800 65fc 2223      		tst r18
 17801 65fe 01F0      		breq .L979
 17802               	.LM1767:
 17803 6600 81E0      		ldi r24,lo8(1)
 17804 6602 8093 0000 		sts okToOpenFileToUpload,r24
 17805               	.L980:
 17806               	.LM1768:
 17807 6606 8091 0000 		lds r24,uploadFileOpened
 17808 660a 8823      		tst r24
 17809 660c 01F0      		breq .L980
 17810 660e 80E1      		ldi r24,lo8(10000)
 17811 6610 97E2      		ldi r25,hi8(10000)
 17812               	.LVL1443:
 17813               	.LBB732:
 17814               	.LBB733:
 17815               	.LBB734:
 17816               	.LBB735:
 17817               	.LM1769:
 17818 6612 20E7      		ldi r18,lo8(368)
 17819 6614 31E0      		ldi r19,hi8(368)
 17820               	.LVL1444:
 17821               	.L981:
 17822 6616 F901      		movw r30,r18
 17823               	.LVL1445:
 17824               	/* #APP */
 17825               	 ;  105 "/usr/local/CrossPack-AVR-20100115/lib/gcc/avr/4.3.3/../../../../avr/include/util/delay_bas
 17826 6618 3197      		1: sbiw r30,1
 17827 661a 01F4      		brne 1b
 17828               	 ;  0 "" 2
 17829               	/* #NOAPP */
 17830               	.LBE735:
 17831               	.LBE734:
 17832               	.LM1770:
 17833 661c 0197      		sbiw r24,1
 17834               	.LM1771:
 17835 661e 01F4      		brne .L981
 17836               	.LBE733:
 17837               	.LBE732:
 17838               	.LM1772:
 17839 6620 8091 0000 		lds r24,fileExists
 17840               	.LVL1446:
 17841 6624 8823      		tst r24
 17842 6626 01F4      		brne .L982
 17843               	.LM1773:
 17844 6628 0E94 0000 		call Debug_SendByte
 17845               	.LVL1447:
 17846 662c 8823      		tst r24
 17847 662e 01F4      		brne .+2
 17848 6630 00C0      		rjmp .L975
 17849               	.LM1774:
 17850 6632 80E0      		ldi r24,lo8(0)
 17851 6634 0E94 0000 		call Debug_SendByte
 17852 6638 8823      		tst r24
 17853 663a 01F4      		brne .+2
 17854 663c 00C0      		rjmp .L975
 17855               	.LM1775:
 17856 663e 80E0      		ldi r24,lo8(0)
 17857 6640 0E94 0000 		call Debug_SendByte
 17858 6644 8823      		tst r24
 17859 6646 01F4      		brne .+2
 17860 6648 00C0      		rjmp .L975
 17861               	.LM1776:
 17862 664a 80E0      		ldi r24,lo8(0)
 17863 664c 0E94 0000 		call Debug_SendByte
 17864 6650 8823      		tst r24
 17865 6652 01F4      		brne .+2
 17866 6654 00C0      		rjmp .L975
 17867               	.LM1777:
 17868 6656 81E0      		ldi r24,lo8(1)
 17869 6658 8093 0000 		sts okToCloseUploadFile,r24
 17870               	.L983:
 17871               	.LM1778:
 17872 665c 8091 0000 		lds r24,okToCloseUploadFile
 17873 6660 8823      		tst r24
 17874 6662 01F4      		brne .L983
 17875               	.LM1779:
 17876 6664 1092 0000 		sts uploading,__zero_reg__
 17877               	.LM1780:
 17878 6668 1092 0000 		sts okToUpload,__zero_reg__
 17879 666c 00C0      		rjmp .L1003
 17880               	.LVL1448:
 17881               	.L982:
 17882               	.LBB736:
 17883               	.LBB737:
 17884               	.LM1781:
 17885 666e 8FEF      		ldi r24,lo8(-1)
 17886 6670 9FEF      		ldi r25,hi8(-1)
 17887 6672 AFEF      		ldi r26,hlo8(-1)
 17888 6674 BFEF      		ldi r27,hhi8(-1)
 17889 6676 8093 0000 		sts uploadCRC,r24
 17890 667a 9093 0000 		sts (uploadCRC)+1,r25
 17891 667e A093 0000 		sts (uploadCRC)+2,r26
 17892 6682 B093 0000 		sts (uploadCRC)+3,r27
 17893               	.LBE737:
 17894               	.LBE736:
 17895               	.LM1782:
 17896 6686 E090 0000 		lds r14,uploadFileSize
 17897 668a F090 0000 		lds r15,(uploadFileSize)+1
 17898 668e 0091 0000 		lds r16,(uploadFileSize)+2
 17899 6692 1091 0000 		lds r17,(uploadFileSize)+3
 17900               	.LVL1449:
 17901 6696 84E0      		ldi r24,lo8(4)
 17902 6698 90E0      		ldi r25,hi8(4)
 17903 669a A0E0      		ldi r26,hlo8(4)
 17904 669c B0E0      		ldi r27,hhi8(4)
 17905 669e E80E      		add r14,r24
 17906 66a0 F91E      		adc r15,r25
 17907 66a2 0A1F      		adc r16,r26
 17908 66a4 1B1F      		adc r17,r27
 17909               	.LM1783:
 17910 66a6 812F      		mov r24,r17
 17911 66a8 9927      		clr r25
 17912 66aa AA27      		clr r26
 17913 66ac BB27      		clr r27
 17914 66ae 0E94 0000 		call Debug_SendByte
 17915               	.LVL1450:
 17916 66b2 8823      		tst r24
 17917 66b4 01F4      		brne .+2
 17918 66b6 00C0      		rjmp .L975
 17919               	.LM1784:
 17920 66b8 C801      		movw r24,r16
 17921 66ba AA27      		clr r26
 17922 66bc BB27      		clr r27
 17923 66be 0E94 0000 		call Debug_SendByte
 17924 66c2 8823      		tst r24
 17925 66c4 01F4      		brne .+2
 17926 66c6 00C0      		rjmp .L975
 17927               	.LM1785:
 17928 66c8 BB27      		clr r27
 17929 66ca A12F      		mov r26,r17
 17930 66cc 902F      		mov r25,r16
 17931 66ce 8F2D      		mov r24,r15
 17932 66d0 0E94 0000 		call Debug_SendByte
 17933 66d4 8823      		tst r24
 17934 66d6 01F4      		brne .+2
 17935 66d8 00C0      		rjmp .L975
 17936               	.LM1786:
 17937 66da 8E2D      		mov r24,r14
 17938 66dc 0E94 0000 		call Debug_SendByte
 17939 66e0 8823      		tst r24
 17940 66e2 01F4      		brne .+2
 17941 66e4 00C0      		rjmp .L975
 17942               	.LM1787:
 17943 66e6 6091 0000 		lds r22,uploadFileSize
 17944 66ea 7091 0000 		lds r23,(uploadFileSize)+1
 17945 66ee 8091 0000 		lds r24,(uploadFileSize)+2
 17946 66f2 9091 0000 		lds r25,(uploadFileSize)+3
 17947 66f6 28EE      		ldi r18,lo8(1000)
 17948 66f8 33E0      		ldi r19,hi8(1000)
 17949 66fa 40E0      		ldi r20,hlo8(1000)
 17950 66fc 50E0      		ldi r21,hhi8(1000)
 17951 66fe 0E94 0000 		call __udivmodsi4
 17952 6702 C901      		movw r24,r18
 17953 6704 DA01      		movw r26,r20
 17954 6706 8093 0000 		sts numberOfPacketsToUpload,r24
 17955 670a 9093 0000 		sts (numberOfPacketsToUpload)+1,r25
 17956 670e A093 0000 		sts (numberOfPacketsToUpload)+2,r26
 17957 6712 B093 0000 		sts (numberOfPacketsToUpload)+3,r27
 17958               	.LM1788:
 17959 6716 6091 0000 		lds r22,uploadFileSize
 17960 671a 7091 0000 		lds r23,(uploadFileSize)+1
 17961 671e 8091 0000 		lds r24,(uploadFileSize)+2
 17962 6722 9091 0000 		lds r25,(uploadFileSize)+3
 17963 6726 28EE      		ldi r18,lo8(1000)
 17964 6728 33E0      		ldi r19,hi8(1000)
 17965 672a 40E0      		ldi r20,hlo8(1000)
 17966 672c 50E0      		ldi r21,hhi8(1000)
 17967 672e 0E94 0000 		call __udivmodsi4
 17968 6732 9B01      		movw r18,r22
 17969 6734 AC01      		movw r20,r24
 17970 6736 2093 0000 		sts leftOverBytesToUpload,r18
 17971 673a 3093 0000 		sts (leftOverBytesToUpload)+1,r19
 17972 673e 4093 0000 		sts (leftOverBytesToUpload)+2,r20
 17973 6742 5093 0000 		sts (leftOverBytesToUpload)+3,r21
 17974 6746 6624      		clr r6
 17975 6748 7724      		clr r7
 17976 674a 4301      		movw r8,r6
 17977               	.LVL1451:
 17978 674c AA24      		clr r10
 17979 674e BB24      		clr r11
 17980 6750 6501      		movw r12,r10
 17981               	.LBB738:
 17982               	.LM1789:
 17983 6752 5524      		clr r5
 17984 6754 5394      		inc r5
 17985 6756 00C0      		rjmp .L985
 17986               	.L988:
 17987               	.LM1790:
 17988 6758 1092 0000 		sts uploadFileBufferFull,__zero_reg__
 17989               	.LM1791:
 17990 675c 5092 0000 		sts okToFillUploadFileBuffer,r5
 17991               	.LM1792:
 17992 6760 2091 0000 		lds r18,numberOfPacketsToUpload
 17993 6764 3091 0000 		lds r19,(numberOfPacketsToUpload)+1
 17994 6768 4091 0000 		lds r20,(numberOfPacketsToUpload)+2
 17995 676c 5091 0000 		lds r21,(numberOfPacketsToUpload)+3
 17996 6770 C601      		movw r24,r12
 17997 6772 B501      		movw r22,r10
 17998 6774 0E94 0000 		call __udivmodsi4
 17999 6778 2093 0000 		sts uploadPercentBS,r18
 18000               	.L986:
 18001               	.LM1793:
 18002 677c 8091 0000 		lds r24,uploadFileBufferFull
 18003 6780 8823      		tst r24
 18004 6782 01F0      		breq .L986
 18005 6784 C0E0      		ldi r28,lo8(uploadFileBuffer)
 18006 6786 D0E0      		ldi r29,hi8(uploadFileBuffer)
 18007               	.L987:
 18008               	.LBB739:
 18009               	.LM1794:
 18010 6788 8881      		ld r24,Y
 18011 678a 0E94 0000 		call Debug_SendByte
 18012 678e 8823      		tst r24
 18013 6790 01F4      		brne .+2
 18014 6792 00C0      		rjmp .L975
 18015               	.LBB740:
 18016               	.LBB741:
 18017               	.LM1795:
 18018 6794 E090 0000 		lds r14,uploadCRC
 18019 6798 F090 0000 		lds r15,(uploadCRC)+1
 18020 679c 0091 0000 		lds r16,(uploadCRC)+2
 18021 67a0 1091 0000 		lds r17,(uploadCRC)+3
 18022               	.LVL1452:
 18023 67a4 8091 0000 		lds r24,uploadCRC
 18024 67a8 9091 0000 		lds r25,(uploadCRC)+1
 18025 67ac A091 0000 		lds r26,(uploadCRC)+2
 18026 67b0 B091 0000 		lds r27,(uploadCRC)+3
 18027 67b4 9070      		andi r25,hi8(255)
 18028 67b6 A070      		andi r26,hlo8(255)
 18029 67b8 B070      		andi r27,hhi8(255)
 18030 67ba 2991      		ld r18,Y+
 18031 67bc 30E0      		ldi r19,lo8(0)
 18032 67be 40E0      		ldi r20,lo8(0)
 18033 67c0 50E0      		ldi r21,hi8(0)
 18034 67c2 8227      		eor r24,r18
 18035 67c4 9327      		eor r25,r19
 18036 67c6 A427      		eor r26,r20
 18037 67c8 B527      		eor r27,r21
 18038 67ca 880F      		lsl r24
 18039 67cc 991F      		rol r25
 18040 67ce 880F      		lsl r24
 18041 67d0 991F      		rol r25
 18042 67d2 8050      		subi r24,lo8(-(crc_table))
 18043 67d4 9040      		sbci r25,hi8(-(crc_table))
 18044 67d6 EF2C      		mov r14,r15
 18045 67d8 F02E      		mov r15,r16
 18046 67da 012F      		mov r16,r17
 18047 67dc 1127      		clr r17
 18048 67de FC01      		movw r30,r24
 18049 67e0 8081      		ld r24,Z
 18050 67e2 9181      		ldd r25,Z+1
 18051 67e4 A281      		ldd r26,Z+2
 18052 67e6 B381      		ldd r27,Z+3
 18053 67e8 E826      		eor r14,r24
 18054 67ea F926      		eor r15,r25
 18055 67ec 0A27      		eor r16,r26
 18056 67ee 1B27      		eor r17,r27
 18057 67f0 E092 0000 		sts uploadCRC,r14
 18058 67f4 F092 0000 		sts (uploadCRC)+1,r15
 18059 67f8 0093 0000 		sts (uploadCRC)+2,r16
 18060 67fc 1093 0000 		sts (uploadCRC)+3,r17
 18061               	.LBE741:
 18062               	.LBE740:
 18063               	.LM1796:
 18064 6800 F0E0      		ldi r31,hi8(uploadFileBuffer+1000)
 18065 6802 C030      		cpi r28,lo8(uploadFileBuffer+1000)
 18066 6804 DF07      		cpc r29,r31
 18067 6806 01F0      		breq .+2
 18068 6808 00C0      		rjmp .L987
 18069               	.LBE739:
 18070               	.LM1797:
 18071 680a 0894      		sec
 18072 680c 611C      		adc r6,__zero_reg__
 18073 680e 711C      		adc r7,__zero_reg__
 18074 6810 811C      		adc r8,__zero_reg__
 18075 6812 911C      		adc r9,__zero_reg__
 18076 6814 84E6      		ldi r24,lo8(100)
 18077 6816 90E0      		ldi r25,hi8(100)
 18078 6818 A0E0      		ldi r26,hlo8(100)
 18079 681a B0E0      		ldi r27,hhi8(100)
 18080 681c A80E      		add r10,r24
 18081 681e B91E      		adc r11,r25
 18082 6820 CA1E      		adc r12,r26
 18083 6822 DB1E      		adc r13,r27
 18084               	.LVL1453:
 18085               	.L985:
 18086 6824 8091 0000 		lds r24,numberOfPacketsToUpload
 18087 6828 9091 0000 		lds r25,(numberOfPacketsToUpload)+1
 18088 682c A091 0000 		lds r26,(numberOfPacketsToUpload)+2
 18089 6830 B091 0000 		lds r27,(numberOfPacketsToUpload)+3
 18090 6834 6816      		cp r6,r24
 18091 6836 7906      		cpc r7,r25
 18092 6838 8A06      		cpc r8,r26
 18093 683a 9B06      		cpc r9,r27
 18094 683c 00F4      		brsh .+2
 18095 683e 00C0      		rjmp .L988
 18096               	.LBE738:
 18097               	.LM1798:
 18098 6840 1092 0000 		sts uploadFileBufferFull,__zero_reg__
 18099               	.LM1799:
 18100 6844 81E0      		ldi r24,lo8(1)
 18101 6846 8093 0000 		sts okToFillUploadFileBuffer,r24
 18102               	.L989:
 18103               	.LM1800:
 18104 684a 8091 0000 		lds r24,uploadFileBufferFull
 18105 684e 8823      		tst r24
 18106 6850 01F0      		breq .L989
 18107 6852 C0E0      		ldi r28,lo8(uploadFileBuffer)
 18108 6854 D0E0      		ldi r29,hi8(uploadFileBuffer)
 18109 6856 AA24      		clr r10
 18110 6858 BB24      		clr r11
 18111 685a 6501      		movw r12,r10
 18112 685c 00C0      		rjmp .L990
 18113               	.L991:
 18114               	.LBB742:
 18115               	.LM1801:
 18116 685e 8881      		ld r24,Y
 18117 6860 0E94 0000 		call Debug_SendByte
 18118 6864 0894      		sec
 18119 6866 A11C      		adc r10,__zero_reg__
 18120 6868 B11C      		adc r11,__zero_reg__
 18121 686a C11C      		adc r12,__zero_reg__
 18122 686c D11C      		adc r13,__zero_reg__
 18123 686e 8823      		tst r24
 18124 6870 01F4      		brne .+2
 18125 6872 00C0      		rjmp .L975
 18126               	.LBB743:
 18127               	.LBB744:
 18128               	.LM1802:
 18129 6874 E090 0000 		lds r14,uploadCRC
 18130 6878 F090 0000 		lds r15,(uploadCRC)+1
 18131 687c 0091 0000 		lds r16,(uploadCRC)+2
 18132 6880 1091 0000 		lds r17,(uploadCRC)+3
 18133               	.LVL1454:
 18134 6884 8091 0000 		lds r24,uploadCRC
 18135 6888 9091 0000 		lds r25,(uploadCRC)+1
 18136 688c A091 0000 		lds r26,(uploadCRC)+2
 18137 6890 B091 0000 		lds r27,(uploadCRC)+3
 18138 6894 9070      		andi r25,hi8(255)
 18139 6896 A070      		andi r26,hlo8(255)
 18140 6898 B070      		andi r27,hhi8(255)
 18141 689a 2991      		ld r18,Y+
 18142 689c 30E0      		ldi r19,lo8(0)
 18143 689e 40E0      		ldi r20,lo8(0)
 18144 68a0 50E0      		ldi r21,hi8(0)
 18145 68a2 8227      		eor r24,r18
 18146 68a4 9327      		eor r25,r19
 18147 68a6 A427      		eor r26,r20
 18148 68a8 B527      		eor r27,r21
 18149 68aa 880F      		lsl r24
 18150 68ac 991F      		rol r25
 18151 68ae 880F      		lsl r24
 18152 68b0 991F      		rol r25
 18153 68b2 8050      		subi r24,lo8(-(crc_table))
 18154 68b4 9040      		sbci r25,hi8(-(crc_table))
 18155 68b6 EF2C      		mov r14,r15
 18156 68b8 F02E      		mov r15,r16
 18157 68ba 012F      		mov r16,r17
 18158 68bc 1127      		clr r17
 18159 68be FC01      		movw r30,r24
 18160 68c0 8081      		ld r24,Z
 18161 68c2 9181      		ldd r25,Z+1
 18162 68c4 A281      		ldd r26,Z+2
 18163 68c6 B381      		ldd r27,Z+3
 18164 68c8 E826      		eor r14,r24
 18165 68ca F926      		eor r15,r25
 18166 68cc 0A27      		eor r16,r26
 18167 68ce 1B27      		eor r17,r27
 18168 68d0 E092 0000 		sts uploadCRC,r14
 18169 68d4 F092 0000 		sts (uploadCRC)+1,r15
 18170 68d8 0093 0000 		sts (uploadCRC)+2,r16
 18171 68dc 1093 0000 		sts (uploadCRC)+3,r17
 18172               	.LVL1455:
 18173               	.L990:
 18174               	.LBE744:
 18175               	.LBE743:
 18176               	.LM1803:
 18177 68e0 8091 0000 		lds r24,leftOverBytesToUpload
 18178 68e4 9091 0000 		lds r25,(leftOverBytesToUpload)+1
 18179 68e8 A091 0000 		lds r26,(leftOverBytesToUpload)+2
 18180 68ec B091 0000 		lds r27,(leftOverBytesToUpload)+3
 18181 68f0 A816      		cp r10,r24
 18182 68f2 B906      		cpc r11,r25
 18183 68f4 CA06      		cpc r12,r26
 18184 68f6 DB06      		cpc r13,r27
 18185 68f8 00F4      		brsh .+2
 18186 68fa 00C0      		rjmp .L991
 18187               	.LBE742:
 18188               	.LM1804:
 18189 68fc 0E94 0000 		call Uploader_WriteCRC
 18190               	.LM1805:
 18191 6900 81E0      		ldi r24,lo8(1)
 18192 6902 8093 0000 		sts okToCloseUploadFile,r24
 18193               	.L992:
 18194               	.LM1806:
 18195 6906 8091 0000 		lds r24,okToCloseUploadFile
 18196 690a 8823      		tst r24
 18197 690c 01F4      		brne .L992
 18198               	.LM1807:
 18199 690e 1092 0000 		sts uploading,__zero_reg__
 18200               	.LM1808:
 18201 6912 1092 0000 		sts okToUpload,__zero_reg__
 18202               	.LM1809:
 18203 6916 84E6      		ldi r24,lo8(100)
 18204 6918 8093 0000 		sts uploadPercentBS,r24
 18205               	.L1003:
 18206 691c 81E0      		ldi r24,lo8(1)
 18207 691e 00C0      		rjmp .L984
 18208               	.LVL1456:
 18209               	.L975:
 18210               	.LM1810:
 18211 6920 80E0      		ldi r24,lo8(0)
 18212               	.L984:
 18213               	/* epilogue start */
 18214               	.LM1811:
 18215 6922 DF91      		pop r29
 18216 6924 CF91      		pop r28
 18217 6926 1F91      		pop r17
 18218               	.LVL1457:
 18219 6928 0F91      		pop r16
 18220               	.LVL1458:
 18221 692a FF90      		pop r15
 18222               	.LVL1459:
 18223 692c EF90      		pop r14
 18224               	.LVL1460:
 18225 692e DF90      		pop r13
 18226 6930 CF90      		pop r12
 18227 6932 BF90      		pop r11
 18228 6934 AF90      		pop r10
 18229 6936 9F90      		pop r9
 18230 6938 8F90      		pop r8
 18231 693a 7F90      		pop r7
 18232 693c 6F90      		pop r6
 18233               	.LVL1461:
 18234 693e 5F90      		pop r5
 18235 6940 0895      		ret
 18236               	.LFE133:
 18238               	.global	Uploader_UpdateCRC
 18240               	Uploader_UpdateCRC:
 18241               	.LFB139:
 18242               	.LM1812:
 18243               	.LVL1462:
 18244 6942 EF92      		push r14
 18245 6944 FF92      		push r15
 18246 6946 0F93      		push r16
 18247 6948 1F93      		push r17
 18248               	/* prologue: function */
 18249               	/* frame size = 0 */
 18250               	.LM1813:
 18251 694a E090 0000 		lds r14,uploadCRC
 18252 694e F090 0000 		lds r15,(uploadCRC)+1
 18253 6952 0091 0000 		lds r16,(uploadCRC)+2
 18254 6956 1091 0000 		lds r17,(uploadCRC)+3
 18255 695a 2091 0000 		lds r18,uploadCRC
 18256 695e 3091 0000 		lds r19,(uploadCRC)+1
 18257 6962 4091 0000 		lds r20,(uploadCRC)+2
 18258 6966 5091 0000 		lds r21,(uploadCRC)+3
 18259 696a 90E0      		ldi r25,lo8(0)
 18260               	.LVL1463:
 18261 696c A0E0      		ldi r26,lo8(0)
 18262 696e B0E0      		ldi r27,hi8(0)
 18263               	.LVL1464:
 18264 6970 3070      		andi r19,hi8(255)
 18265 6972 4070      		andi r20,hlo8(255)
 18266 6974 5070      		andi r21,hhi8(255)
 18267 6976 8227      		eor r24,r18
 18268 6978 9327      		eor r25,r19
 18269 697a A427      		eor r26,r20
 18270 697c B527      		eor r27,r21
 18271               	.LVL1465:
 18272 697e 880F      		lsl r24
 18273 6980 991F      		rol r25
 18274 6982 880F      		lsl r24
 18275 6984 991F      		rol r25
 18276               	.LVL1466:
 18277 6986 8050      		subi r24,lo8(-(crc_table))
 18278 6988 9040      		sbci r25,hi8(-(crc_table))
 18279 698a EF2C      		mov r14,r15
 18280 698c F02E      		mov r15,r16
 18281 698e 012F      		mov r16,r17
 18282 6990 1127      		clr r17
 18283 6992 FC01      		movw r30,r24
 18284 6994 8081      		ld r24,Z
 18285 6996 9181      		ldd r25,Z+1
 18286 6998 A281      		ldd r26,Z+2
 18287 699a B381      		ldd r27,Z+3
 18288 699c E826      		eor r14,r24
 18289 699e F926      		eor r15,r25
 18290 69a0 0A27      		eor r16,r26
 18291 69a2 1B27      		eor r17,r27
 18292 69a4 E092 0000 		sts uploadCRC,r14
 18293 69a8 F092 0000 		sts (uploadCRC)+1,r15
 18294 69ac 0093 0000 		sts (uploadCRC)+2,r16
 18295 69b0 1093 0000 		sts (uploadCRC)+3,r17
 18296               	/* epilogue start */
 18297               	.LM1814:
 18298 69b4 1F91      		pop r17
 18299 69b6 0F91      		pop r16
 18300 69b8 FF90      		pop r15
 18301 69ba EF90      		pop r14
 18302 69bc 0895      		ret
 18303               	.LFE139:
 18305               	.global	Clock_Init
 18307               	Clock_Init:
 18308               	.LFB141:
 18309               	.LM1815:
 18310 69be 0F93      		push r16
 18311 69c0 DF93      		push r29
 18312 69c2 CF93      		push r28
 18313 69c4 0F92      		push __tmp_reg__
 18314 69c6 CDB7      		in r28,__SP_L__
 18315 69c8 DEB7      		in r29,__SP_H__
 18316               	/* prologue: function */
 18317               	/* frame size = 1 */
 18318               	.LM1816:
 18319 69ca 80EC      		ldi r24,lo8(-64)
 18320 69cc E0E5      		ldi r30,lo8(80)
 18321 69ce F0E0      		ldi r31,hi8(80)
 18322 69d0 8283      		std Z+2,r24
 18323               	.LM1817:
 18324 69d2 8091 5000 		lds r24,80
 18325 69d6 8860      		ori r24,lo8(8)
 18326 69d8 8093 5000 		sts 80,r24
 18327               	.L1007:
 18328               	.LM1818:
 18329 69dc 8091 5100 		lds r24,81
 18330 69e0 83FF      		sbrs r24,3
 18331 69e2 00C0      		rjmp .L1007
 18332               	.LM1819:
 18333 69e4 2091 4000 		lds r18,64
 18334               	.LBB745:
 18335               	.LBB746:
 18336               	.LM1820:
 18337 69e8 8FB7      		in r24,__SREG__
 18338 69ea 8983      		std Y+1,r24
 18339               	.LVL1467:
 18340               	.LM1821:
 18341               	/* #APP */
 18342               	 ;  83 "mainChestStrap.h" 1
 18343 69ec F894      		cli
 18344               	 ;  0 "" 2
 18345               	.LM1822:
 18346               	/* #NOAPP */
 18347 69ee 1BBE      		out 59-0,__zero_reg__
 18348               	.LM1823:
 18349 69f0 287F      		andi r18,lo8(-8)
 18350 69f2 2360      		ori r18,lo8(3)
 18351 69f4 80E4      		ldi r24,lo8(64)
 18352 69f6 90E0      		ldi r25,hi8(64)
 18353               	/* #APP */
 18354               	 ;  105 "mainChestStrap.h" 1
 18355 69f8 FC01      		movw r30,  r24
 18356 69fa 08ED      		ldi  r16,  216
 18357 69fc 04BF      		out   52, r16
 18358 69fe 2083      		st     Z,  r18
 18359               		
 18360               	 ;  0 "" 2
 18361               	.LM1824:
 18362               	/* #NOAPP */
 18363 6a00 8981      		ldd r24,Y+1
 18364 6a02 8FBF      		out __SREG__,r24
 18365               	.LBE746:
 18366               	.LBE745:
 18367               	.LM1825:
 18368 6a04 8091 5000 		lds r24,80
 18369 6a08 8E7F      		andi r24,lo8(-2)
 18370 6a0a 8093 5000 		sts 80,r24
 18371               	/* epilogue start */
 18372               	.LM1826:
 18373 6a0e 0F90      		pop __tmp_reg__
 18374 6a10 CF91      		pop r28
 18375 6a12 DF91      		pop r29
 18376 6a14 0F91      		pop r16
 18377 6a16 0895      		ret
 18378               	.LFE141:
 18380               	.global	Disable_JTAG
 18382               	Disable_JTAG:
 18383               	.LFB142:
 18384               	.LM1827:
 18385 6a18 0F93      		push r16
 18386 6a1a DF93      		push r29
 18387 6a1c CF93      		push r28
 18388 6a1e 0F92      		push __tmp_reg__
 18389 6a20 CDB7      		in r28,__SP_L__
 18390 6a22 DEB7      		in r29,__SP_H__
 18391               	/* prologue: function */
 18392               	/* frame size = 1 */
 18393               	.LBB747:
 18394               	.LBB748:
 18395               	.LM1828:
 18396 6a24 8FB7      		in r24,__SREG__
 18397 6a26 8983      		std Y+1,r24
 18398               	.LVL1468:
 18399               	.LM1829:
 18400               	/* #APP */
 18401               	 ;  83 "mainChestStrap.h" 1
 18402 6a28 F894      		cli
 18403               	 ;  0 "" 2
 18404               	.LM1830:
 18405               	/* #NOAPP */
 18406 6a2a 1BBE      		out 59-0,__zero_reg__
 18407               	.LM1831:
 18408 6a2c 21E0      		ldi r18,lo8(1)
 18409 6a2e 86E9      		ldi r24,lo8(150)
 18410 6a30 90E0      		ldi r25,hi8(150)
 18411               	/* #APP */
 18412               	 ;  105 "mainChestStrap.h" 1
 18413 6a32 FC01      		movw r30,  r24
 18414 6a34 08ED      		ldi  r16,  216
 18415 6a36 04BF      		out   52, r16
 18416 6a38 2083      		st     Z,  r18
 18417               		
 18418               	 ;  0 "" 2
 18419               	.LM1832:
 18420               	/* #NOAPP */
 18421 6a3a 8981      		ldd r24,Y+1
 18422 6a3c 8FBF      		out __SREG__,r24
 18423               	/* epilogue start */
 18424               	.LBE748:
 18425               	.LBE747:
 18426               	.LM1833:
 18427 6a3e 0F90      		pop __tmp_reg__
 18428 6a40 CF91      		pop r28
 18429 6a42 DF91      		pop r29
 18430 6a44 0F91      		pop r16
 18431 6a46 0895      		ret
 18432               	.LFE142:
 18434               	.global	Interrupt_Init
 18436               	Interrupt_Init:
 18437               	.LFB143:
 18438               	.LM1834:
 18439               	/* prologue: function */
 18440               	/* frame size = 0 */
 18441               	.LM1835:
 18442 6a48 E0EA      		ldi r30,lo8(160)
 18443 6a4a F0E0      		ldi r31,hi8(160)
 18444 6a4c 8281      		ldd r24,Z+2
 18445 6a4e 8760      		ori r24,lo8(7)
 18446 6a50 8283      		std Z+2,r24
 18447               	.LM1836:
 18448               	/* #APP */
 18449               	 ;  180 "mainChestStrap.c" 1
 18450 6a52 7894      		sei
 18451               	 ;  0 "" 2
 18452               	/* epilogue start */
 18453               	.LM1837:
 18454               	/* #NOAPP */
 18455 6a54 0895      		ret
 18456               	.LFE143:
 18458               	.global	__vector_104
 18460               	__vector_104:
 18461               	.LFB144:
 18462               	.LM1838:
 18463 6a56 1F92      		push __zero_reg__
 18464 6a58 0F92      		push r0
 18465 6a5a 0FB6      		in r0,__SREG__
 18466 6a5c 0F92      		push r0
 18467 6a5e 0BB6      		in r0,59-0
 18468 6a60 0F92      		push r0
 18469 6a62 1124      		clr __zero_reg__
 18470 6a64 2F93      		push r18
 18471 6a66 3F93      		push r19
 18472 6a68 4F93      		push r20
 18473 6a6a 5F93      		push r21
 18474 6a6c 6F93      		push r22
 18475 6a6e 7F93      		push r23
 18476 6a70 8F93      		push r24
 18477 6a72 9F93      		push r25
 18478 6a74 AF93      		push r26
 18479 6a76 BF93      		push r27
 18480 6a78 EF93      		push r30
 18481 6a7a FF93      		push r31
 18482               	/* prologue: Signal */
 18483               	/* frame size = 0 */
 18484               	.LM1839:
 18485 6a7c 8091 0000 		lds r24,okToOpenLogFile
 18486 6a80 8823      		tst r24
 18487 6a82 01F4      		brne .L1015
 18488 6a84 8091 0000 		lds r24,recording
 18489 6a88 8823      		tst r24
 18490 6a8a 01F4      		brne .L1015
 18491 6a8c 8091 0000 		lds r24,timeIsValid
 18492 6a90 8823      		tst r24
 18493 6a92 01F0      		breq .L1015
 18494               	.LBB749:
 18495               	.LBB750:
 18496               	.LM1840:
 18497 6a94 8091 0000 		lds r24,sdValid
 18498               	.LBE750:
 18499               	.LBE749:
 18500               	.LM1841:
 18501 6a98 8823      		tst r24
 18502 6a9a 01F0      		breq .L1015
 18503 6a9c 8091 0000 		lds r24,debounceEnabled
 18504 6aa0 8823      		tst r24
 18505 6aa2 01F4      		brne .L1015
 18506               	.LM1842:
 18507 6aa4 8091 0000 		lds r24,percentDiskUsed
 18508 6aa8 9091 0000 		lds r25,(percentDiskUsed)+1
 18509 6aac A091 0000 		lds r26,(percentDiskUsed)+2
 18510 6ab0 B091 0000 		lds r27,(percentDiskUsed)+3
 18511 6ab4 865B      		subi r24,lo8(950)
 18512 6ab6 9340      		sbci r25,hi8(950)
 18513 6ab8 A040      		sbci r26,hlo8(950)
 18514 6aba B040      		sbci r27,hhi8(950)
 18515 6abc 00F4      		brsh .L1017
 18516               	.LM1843:
 18517 6abe 81E0      		ldi r24,lo8(1)
 18518 6ac0 8093 0000 		sts debounceEnabled,r24
 18519               	.LM1844:
 18520 6ac4 8093 0000 		sts okToOpenLogFile,r24
 18521 6ac8 00C0      		rjmp .L1017
 18522               	.L1015:
 18523               	.LM1845:
 18524 6aca 8091 0000 		lds r24,recording
 18525 6ace 8823      		tst r24
 18526 6ad0 01F0      		breq .L1017
 18527 6ad2 8091 0000 		lds r24,debounceEnabled
 18528 6ad6 8823      		tst r24
 18529 6ad8 01F4      		brne .L1017
 18530               	.LM1846:
 18531 6ada 1092 0000 		sts recording,__zero_reg__
 18532               	.LM1847:
 18533 6ade 0E94 0000 		call Sensors_ResetHumidityBuffers
 18534               	.LM1848:
 18535 6ae2 0E94 0000 		call Sensors_ResetTemperatureBuffers
 18536               	.LM1849:
 18537 6ae6 0E94 0000 		call Sensors_ResetRespirationBuffers
 18538               	.LM1850:
 18539 6aea 0E94 0000 		call Sensors_ResetEKGBuffers
 18540               	.LM1851:
 18541 6aee 0E94 0000 		call Sensors_ResetAccelBuffers
 18542               	.LM1852:
 18543 6af2 81E0      		ldi r24,lo8(1)
 18544 6af4 8093 0000 		sts okToCloseLogFile,r24
 18545               	.LM1853:
 18546 6af8 8093 0000 		sts debounceEnabled,r24
 18547               	.L1017:
 18548               	/* epilogue start */
 18549               	.LM1854:
 18550 6afc FF91      		pop r31
 18551 6afe EF91      		pop r30
 18552 6b00 BF91      		pop r27
 18553 6b02 AF91      		pop r26
 18554 6b04 9F91      		pop r25
 18555 6b06 8F91      		pop r24
 18556 6b08 7F91      		pop r23
 18557 6b0a 6F91      		pop r22
 18558 6b0c 5F91      		pop r21
 18559 6b0e 4F91      		pop r20
 18560 6b10 3F91      		pop r19
 18561 6b12 2F91      		pop r18
 18562 6b14 0F90      		pop r0
 18563 6b16 0BBE      		out 59-0,r0
 18564 6b18 0F90      		pop r0
 18565 6b1a 0FBE      		out __SREG__,r0
 18566 6b1c 0F90      		pop r0
 18567 6b1e 1F90      		pop __zero_reg__
 18568 6b20 1895      		reti
 18569               	.LFE144:
 18571               	.global	Charger_Init
 18573               	Charger_Init:
 18574               	.LFB145:
 18575               	.LM1855:
 18576               	/* prologue: function */
 18577               	/* frame size = 0 */
 18578               	.LM1856:
 18579 6b22 E0E6      		ldi r30,lo8(1632)
 18580 6b24 F6E0      		ldi r31,hi8(1632)
 18581 6b26 88E0      		ldi r24,lo8(8)
 18582 6b28 8283      		std Z+2,r24
 18583               	.LM1857:
 18584 6b2a 88E3      		ldi r24,lo8(56)
 18585 6b2c 838B      		std Z+19,r24
 18586               	/* epilogue start */
 18587               	.LM1858:
 18588 6b2e 0895      		ret
 18589               	.LFE145:
 18591               	.global	Charged
 18593               	Charged:
 18594               	.LFB146:
 18595               	.LM1859:
 18596               	/* prologue: function */
 18597               	/* frame size = 0 */
 18598               	.LM1860:
 18599 6b30 E0EA      		ldi r30,lo8(1696)
 18600 6b32 F6E0      		ldi r31,hi8(1696)
 18601 6b34 8085      		ldd r24,Z+8
 18602 6b36 90E0      		ldi r25,lo8(0)
 18603 6b38 F3E0      		ldi r31,3
 18604 6b3a 9695      	1:	lsr r25
 18605 6b3c 8795      		ror r24
 18606 6b3e FA95      		dec r31
 18607 6b40 01F4      		brne 1b
 18608               	.LM1861:
 18609 6b42 8170      		andi r24,lo8(1)
 18610               	/* epilogue start */
 18611 6b44 0895      		ret
 18612               	.LFE146:
 18614               	.global	GUI_Init
 18616               	GUI_Init:
 18617               	.LFB147:
 18618               	.LM1862:
 18619               	/* prologue: function */
 18620               	/* frame size = 0 */
 18621               	.LM1863:
 18622 6b46 E0E0      		ldi r30,lo8(2304)
 18623 6b48 F9E0      		ldi r31,hi8(2304)
 18624 6b4a 80EA      		ldi r24,lo8(1440)
 18625 6b4c 95E0      		ldi r25,hi8(1440)
 18626 6b4e 86A3      		std Z+38,r24
 18627 6b50 97A3      		std Z+39,r25
 18628               	.LM1864:
 18629 6b52 8081      		ld r24,Z
 18630 6b54 807F      		andi r24,lo8(-16)
 18631 6b56 8760      		ori r24,lo8(7)
 18632 6b58 8083      		st Z,r24
 18633               	.LM1865:
 18634 6b5a 8681      		ldd r24,Z+6
 18635 6b5c 8C7F      		andi r24,lo8(-4)
 18636 6b5e 8160      		ori r24,lo8(1)
 18637 6b60 8683      		std Z+6,r24
 18638               	/* epilogue start */
 18639               	.LM1866:
 18640 6b62 0895      		ret
 18641               	.LFE147:
 18643               	.global	__vector_77
 18645               	__vector_77:
 18646               	.LFB148:
 18647               	.LM1867:
 18648 6b64 1F92      		push __zero_reg__
 18649 6b66 0F92      		push r0
 18650 6b68 0FB6      		in r0,__SREG__
 18651 6b6a 0F92      		push r0
 18652 6b6c 0BB6      		in r0,59-0
 18653 6b6e 0F92      		push r0
 18654 6b70 1124      		clr __zero_reg__
 18655 6b72 2F93      		push r18
 18656 6b74 3F93      		push r19
 18657 6b76 4F93      		push r20
 18658 6b78 5F93      		push r21
 18659 6b7a 8F93      		push r24
 18660 6b7c 9F93      		push r25
 18661 6b7e AF93      		push r26
 18662 6b80 BF93      		push r27
 18663 6b82 CF93      		push r28
 18664 6b84 DF93      		push r29
 18665 6b86 EF93      		push r30
 18666 6b88 FF93      		push r31
 18667               	/* prologue: Signal */
 18668               	/* frame size = 0 */
 18669               	.LM1868:
 18670 6b8a 8091 0000 		lds r24,recording
 18671 6b8e 8823      		tst r24
 18672 6b90 01F0      		breq .L1025
 18673               	.LM1869:
 18674 6b92 8091 0000 		lds r24,lengthOfCurrentFile
 18675 6b96 9091 0000 		lds r25,(lengthOfCurrentFile)+1
 18676 6b9a 0196      		adiw r24,1
 18677 6b9c 8093 0000 		sts lengthOfCurrentFile,r24
 18678 6ba0 9093 0000 		sts (lengthOfCurrentFile)+1,r25
 18679               	.LM1870:
 18680 6ba4 8091 0000 		lds r24,lengthOfCurrentFile
 18681 6ba8 9091 0000 		lds r25,(lengthOfCurrentFile)+1
 18682 6bac 8952      		subi r24,lo8(9001)
 18683 6bae 9342      		sbci r25,hi8(9001)
 18684 6bb0 00F0      		brlo .L1025
 18685               	.LM1871:
 18686 6bb2 81E0      		ldi r24,lo8(1)
 18687 6bb4 8093 0000 		sts restartingFile,r24
 18688               	.LM1872:
 18689 6bb8 1092 0000 		sts recording,__zero_reg__
 18690               	.LM1873:
 18691 6bbc 8093 0000 		sts okToCloseLogFile,r24
 18692               	.L1026:
 18693               	.LM1874:
 18694 6bc0 8091 0000 		lds r24,okToCloseLogFile
 18695 6bc4 8823      		tst r24
 18696 6bc6 01F4      		brne .L1026
 18697               	.LM1875:
 18698 6bc8 8091 0000 		lds r24,percentDiskUsed
 18699 6bcc 9091 0000 		lds r25,(percentDiskUsed)+1
 18700 6bd0 A091 0000 		lds r26,(percentDiskUsed)+2
 18701 6bd4 B091 0000 		lds r27,(percentDiskUsed)+3
 18702 6bd8 865B      		subi r24,lo8(950)
 18703 6bda 9340      		sbci r25,hi8(950)
 18704 6bdc A040      		sbci r26,hlo8(950)
 18705 6bde B040      		sbci r27,hhi8(950)
 18706 6be0 00F4      		brsh .L1027
 18707               	.LM1876:
 18708 6be2 81E0      		ldi r24,lo8(1)
 18709 6be4 8093 0000 		sts okToOpenLogFile,r24
 18710               	.L1028:
 18711               	.LM1877:
 18712 6be8 8091 0000 		lds r24,recording
 18713 6bec 8823      		tst r24
 18714 6bee 01F0      		breq .L1028
 18715               	.L1027:
 18716               	.LM1878:
 18717 6bf0 1092 0000 		sts restartingFile,__zero_reg__
 18718               	.L1025:
 18719               	.LM1879:
 18720 6bf4 8091 0000 		lds r24,timeIsValid
 18721 6bf8 8823      		tst r24
 18722 6bfa 01F0      		breq .L1029
 18723 6bfc 8091 0000 		lds r24,okToSendRTCBlock
 18724 6c00 8823      		tst r24
 18725 6c02 01F4      		brne .L1029
 18726               	.LM1880:
 18727 6c04 8091 0000 		lds r24,syncCounter
 18728 6c08 9091 0000 		lds r25,(syncCounter)+1
 18729 6c0c 0196      		adiw r24,1
 18730 6c0e 8093 0000 		sts syncCounter,r24
 18731 6c12 9093 0000 		sts (syncCounter)+1,r25
 18732               	.LM1881:
 18733 6c16 8091 0000 		lds r24,syncCounter
 18734 6c1a 9091 0000 		lds r25,(syncCounter)+1
 18735 6c1e 8157      		subi r24,lo8(6001)
 18736 6c20 9741      		sbci r25,hi8(6001)
 18737 6c22 00F0      		brlo .L1029
 18738               	.LM1882:
 18739 6c24 1092 0000 		sts syncCounter,__zero_reg__
 18740 6c28 1092 0000 		sts (syncCounter)+1,__zero_reg__
 18741               	.LBB751:
 18742               	.LBB752:
 18743               	.LM1883:
 18744 6c2c 8091 2104 		lds r24,1057
 18745 6c30 8061      		ori r24,lo8(16)
 18746 6c32 E0E2      		ldi r30,lo8(1056)
 18747 6c34 F4E0      		ldi r31,hi8(1056)
 18748 6c36 8183      		std Z+1,r24
 18749               	.L1030:
 18750               	.LM1884:
 18751 6c38 8091 2104 		lds r24,1057
 18752 6c3c 84FD      		sbrc r24,4
 18753 6c3e 00C0      		rjmp .L1030
 18754               	.LM1885:
 18755 6c40 8091 2404 		lds r24,1060
 18756 6c44 9091 2504 		lds r25,(1060)+1
 18757 6c48 A091 2604 		lds r26,(1060)+2
 18758 6c4c B091 2704 		lds r27,(1060)+3
 18759               	.LBE752:
 18760               	.LBE751:
 18761               	.LM1886:
 18762 6c50 8093 0000 		sts UNIX_Time,r24
 18763 6c54 9093 0000 		sts (UNIX_Time)+1,r25
 18764 6c58 A093 0000 		sts (UNIX_Time)+2,r26
 18765 6c5c B093 0000 		sts (UNIX_Time)+3,r27
 18766               	.L1029:
 18767               	.LM1887:
 18768 6c60 8091 0000 		lds r24,spaceRemainingCounter
 18769 6c64 8F5F      		subi r24,lo8(-(1))
 18770 6c66 8093 0000 		sts spaceRemainingCounter,r24
 18771               	.LM1888:
 18772 6c6a 8091 0000 		lds r24,spaceRemainingCounter
 18773 6c6e 8823      		tst r24
 18774 6c70 01F4      		brne .L1031
 18775               	.LM1889:
 18776 6c72 81E0      		ldi r24,lo8(1)
 18777 6c74 8093 0000 		sts okToGetRemainingSpace,r24
 18778               	.L1032:
 18779               	.LM1890:
 18780 6c78 8091 0000 		lds r24,okToGetRemainingSpace
 18781 6c7c 8823      		tst r24
 18782 6c7e 01F4      		brne .L1032
 18783               	.L1031:
 18784               	.LM1891:
 18785 6c80 8091 0000 		lds r24,debounceEnabled
 18786 6c84 8823      		tst r24
 18787 6c86 01F0      		breq .L1033
 18788               	.LM1892:
 18789 6c88 8091 0000 		lds r24,debounceTimer
 18790 6c8c 8F5F      		subi r24,lo8(-(1))
 18791 6c8e 8093 0000 		sts debounceTimer,r24
 18792               	.LM1893:
 18793 6c92 8091 0000 		lds r24,debounceTimer
 18794 6c96 8B30      		cpi r24,lo8(11)
 18795 6c98 00F0      		brlo .L1033
 18796               	.LM1894:
 18797 6c9a 1092 0000 		sts debounceTimer,__zero_reg__
 18798               	.LM1895:
 18799 6c9e 1092 0000 		sts debounceEnabled,__zero_reg__
 18800               	.L1033:
 18801               	.LBB753:
 18802               	.LBB754:
 18803               	.LM1896:
 18804 6ca2 8091 0000 		lds r24,sdValid
 18805               	.LBE754:
 18806               	.LBE753:
 18807               	.LM1897:
 18808 6ca6 8823      		tst r24
 18809 6ca8 01F4      		brne .L1034
 18810               	.LBB755:
 18811               	.LBB756:
 18812               	.LM1898:
 18813 6caa 81E0      		ldi r24,lo8(1)
 18814 6cac 8093 0000 		sts ledState,r24
 18815               	.LBE756:
 18816               	.LBE755:
 18817               	.LM1899:
 18818 6cb0 1092 0000 		sts recording,__zero_reg__
 18819 6cb4 00C0      		rjmp .L1035
 18820               	.L1034:
 18821               	.LM1900:
 18822 6cb6 8091 0000 		lds r24,timeIsValid
 18823 6cba 8823      		tst r24
 18824 6cbc 01F4      		brne .L1036
 18825               	.LBB757:
 18826               	.LBB758:
 18827               	.LM1901:
 18828 6cbe 82E0      		ldi r24,lo8(2)
 18829 6cc0 00C0      		rjmp .L1055
 18830               	.L1036:
 18831               	.LBE758:
 18832               	.LBE757:
 18833               	.LM1902:
 18834 6cc2 8091 0000 		lds r24,batteryVoltageOk
 18835 6cc6 8823      		tst r24
 18836 6cc8 01F4      		brne .L1037
 18837               	.LBB759:
 18838               	.LBB760:
 18839               	.LM1903:
 18840 6cca 83E0      		ldi r24,lo8(3)
 18841               	.L1055:
 18842 6ccc 8093 0000 		sts ledState,r24
 18843 6cd0 00C0      		rjmp .L1035
 18844               	.L1037:
 18845               	.LBE760:
 18846               	.LBE759:
 18847               	.LBB761:
 18848               	.LBB762:
 18849 6cd2 1092 0000 		sts ledState,__zero_reg__
 18850               	.L1035:
 18851               	.LBE762:
 18852               	.LBE761:
 18853               	.LM1904:
 18854 6cd6 8091 0000 		lds r24,recording
 18855 6cda 8823      		tst r24
 18856 6cdc 01F0      		breq .L1038
 18857               	.LBB763:
 18858               	.LBB764:
 18859               	.LM1905:
 18860 6cde 81E0      		ldi r24,lo8(1)
 18861 6ce0 00C0      		rjmp .L1056
 18862               	.L1038:
 18863               	.LBE764:
 18864               	.LBE763:
 18865               	.LM1906:
 18866 6ce2 8091 0000 		lds r24,connected
 18867 6ce6 8823      		tst r24
 18868 6ce8 01F0      		breq .L1040
 18869               	.LBB765:
 18870               	.LBB766:
 18871               	.LM1907:
 18872 6cea 8091 A806 		lds r24,1704
 18873 6cee 83FF      		sbrs r24,3
 18874 6cf0 00C0      		rjmp .L1041
 18875               	.L1040:
 18876               	.LBE766:
 18877               	.LBE765:
 18878               	.LBB767:
 18879               	.LBB768:
 18880 6cf2 8091 A806 		lds r24,1704
 18881 6cf6 83FF      		sbrs r24,3
 18882 6cf8 00C0      		rjmp .L1042
 18883               	.LBE768:
 18884               	.LBE767:
 18885               	.LBB769:
 18886               	.LBB770:
 18887               	.LM1908:
 18888 6cfa 83E0      		ldi r24,lo8(3)
 18889               	.L1056:
 18890 6cfc 8093 0000 		sts ledState+1,r24
 18891               	.L1039:
 18892 6d00 20E0      		ldi r18,lo8(0)
 18893 6d02 30E0      		ldi r19,hi8(0)
 18894               	.LBE770:
 18895               	.LBE769:
 18896               	.LBB771:
 18897               	.LBB772:
 18898               	.LBB773:
 18899               	.LM1909:
 18900 6d04 41E0      		ldi r20,lo8(1)
 18901 6d06 50E0      		ldi r21,hi8(1)
 18902 6d08 C0EA      		ldi r28,lo8(1696)
 18903 6d0a D6E0      		ldi r29,hi8(1696)
 18904               	.L1047:
 18905               	.LBE773:
 18906               	.LBE772:
 18907               	.LM1910:
 18908 6d0c D901      		movw r26,r18
 18909 6d0e A050      		subi r26,lo8(-(ledCounter))
 18910 6d10 B040      		sbci r27,hi8(-(ledCounter))
 18911 6d12 8C91      		ld r24,X
 18912 6d14 8F5F      		subi r24,lo8(-(1))
 18913 6d16 8C93      		st X,r24
 18914               	.LM1911:
 18915 6d18 F901      		movw r30,r18
 18916 6d1a E050      		subi r30,lo8(-(ledState))
 18917 6d1c F040      		sbci r31,hi8(-(ledState))
 18918 6d1e 8081      		ld r24,Z
 18919 6d20 8130      		cpi r24,lo8(1)
 18920 6d22 01F4      		brne .L1043
 18921               	.LBB775:
 18922               	.LBB776:
 18923               	.LM1912:
 18924 6d24 CA01      		movw r24,r20
 18925 6d26 022E      		mov r0,r18
 18926 6d28 00C0      		rjmp 2f
 18927 6d2a 880F      	1:	lsl r24
 18928 6d2c 991F      		rol r25
 18929 6d2e 0A94      	2:	dec r0
 18930 6d30 02F4      		brpl 1b
 18931 6d32 8D83      		std Y+5,r24
 18932 6d34 00C0      		rjmp .L1044
 18933               	.L1043:
 18934               	.LBE776:
 18935               	.LBE775:
 18936               	.LM1913:
 18937 6d36 8081      		ld r24,Z
 18938 6d38 8230      		cpi r24,lo8(2)
 18939 6d3a 01F4      		brne .L1045
 18940               	.LM1914:
 18941 6d3c 8C91      		ld r24,X
 18942 6d3e 8B30      		cpi r24,lo8(11)
 18943 6d40 00F0      		brlo .L1044
 18944 6d42 00C0      		rjmp .L1057
 18945               	.L1045:
 18946               	.LM1915:
 18947 6d44 8081      		ld r24,Z
 18948 6d46 8330      		cpi r24,lo8(3)
 18949 6d48 01F4      		brne .L1046
 18950               	.LM1916:
 18951 6d4a 8C91      		ld r24,X
 18952 6d4c 8330      		cpi r24,lo8(3)
 18953 6d4e 00F0      		brlo .L1044
 18954               	.L1057:
 18955               	.LBB777:
 18956               	.LBB778:
 18957               	.LM1917:
 18958 6d50 CA01      		movw r24,r20
 18959 6d52 022E      		mov r0,r18
 18960 6d54 00C0      		rjmp 2f
 18961 6d56 880F      	1:	lsl r24
 18962 6d58 991F      		rol r25
 18963 6d5a 0A94      	2:	dec r0
 18964 6d5c 02F4      		brpl 1b
 18965 6d5e 8F83      		std Y+7,r24
 18966               	.LBE778:
 18967               	.LBE777:
 18968               	.LM1918:
 18969 6d60 1C92      		st X,__zero_reg__
 18970 6d62 00C0      		rjmp .L1044
 18971               	.L1046:
 18972               	.LBB779:
 18973               	.LBB774:
 18974               	.LM1919:
 18975 6d64 CA01      		movw r24,r20
 18976 6d66 022E      		mov r0,r18
 18977 6d68 00C0      		rjmp 2f
 18978 6d6a 880F      	1:	lsl r24
 18979 6d6c 991F      		rol r25
 18980 6d6e 0A94      	2:	dec r0
 18981 6d70 02F4      		brpl 1b
 18982 6d72 8E83      		std Y+6,r24
 18983               	.L1044:
 18984 6d74 2F5F      		subi r18,lo8(-(1))
 18985 6d76 3F4F      		sbci r19,hi8(-(1))
 18986               	.LBE774:
 18987               	.LBE779:
 18988               	.LM1920:
 18989 6d78 2230      		cpi r18,2
 18990 6d7a 3105      		cpc r19,__zero_reg__
 18991 6d7c 01F4      		brne .L1047
 18992 6d7e 00C0      		rjmp .L1058
 18993               	.L1041:
 18994               	.LBE771:
 18995               	.LBB780:
 18996               	.LBB781:
 18997               	.LM1921:
 18998 6d80 82E0      		ldi r24,lo8(2)
 18999 6d82 00C0      		rjmp .L1056
 19000               	.L1042:
 19001               	.LBE781:
 19002               	.LBE780:
 19003               	.LBB782:
 19004               	.LBB783:
 19005               	.LM1922:
 19006 6d84 1092 0000 		sts ledState+1,__zero_reg__
 19007 6d88 00C0      		rjmp .L1039
 19008               	.L1058:
 19009               	/* epilogue start */
 19010               	.LBE783:
 19011               	.LBE782:
 19012               	.LM1923:
 19013 6d8a FF91      		pop r31
 19014 6d8c EF91      		pop r30
 19015 6d8e DF91      		pop r29
 19016 6d90 CF91      		pop r28
 19017 6d92 BF91      		pop r27
 19018 6d94 AF91      		pop r26
 19019 6d96 9F91      		pop r25
 19020 6d98 8F91      		pop r24
 19021 6d9a 5F91      		pop r21
 19022 6d9c 4F91      		pop r20
 19023 6d9e 3F91      		pop r19
 19024 6da0 2F91      		pop r18
 19025 6da2 0F90      		pop r0
 19026 6da4 0BBE      		out 59-0,r0
 19027 6da6 0F90      		pop r0
 19028 6da8 0FBE      		out __SREG__,r0
 19029 6daa 0F90      		pop r0
 19030 6dac 1F90      		pop __zero_reg__
 19031 6dae 1895      		reti
 19032               	.LFE148:
 19034               	.global	SD_BackroundWriter_Init
 19036               	SD_BackroundWriter_Init:
 19037               	.LFB149:
 19038               	.LM1924:
 19039               	/* prologue: function */
 19040               	/* frame size = 0 */
 19041               	.LM1925:
 19042 6db0 E0E4      		ldi r30,lo8(2624)
 19043 6db2 FAE0      		ldi r31,hi8(2624)
 19044 6db4 80E0      		ldi r24,lo8(2304)
 19045 6db6 99E0      		ldi r25,hi8(2304)
 19046 6db8 86A3      		std Z+38,r24
 19047 6dba 97A3      		std Z+39,r25
 19048               	.LM1926:
 19049 6dbc 8081      		ld r24,Z
 19050 6dbe 807F      		andi r24,lo8(-16)
 19051 6dc0 8560      		ori r24,lo8(5)
 19052 6dc2 8083      		st Z,r24
 19053               	.LM1927:
 19054 6dc4 8681      		ldd r24,Z+6
 19055 6dc6 8C7F      		andi r24,lo8(-4)
 19056 6dc8 8260      		ori r24,lo8(2)
 19057 6dca 8683      		std Z+6,r24
 19058               	/* epilogue start */
 19059               	.LM1928:
 19060 6dcc 0895      		ret
 19061               	.LFE149:
 19063               	.global	SD_WriteRTCBlock
 19065               	SD_WriteRTCBlock:
 19066               	.LFB152:
 19067               	.LM1929:
 19068               	.LVL1469:
 19069 6dce AF92      		push r10
 19070 6dd0 BF92      		push r11
 19071 6dd2 CF92      		push r12
 19072 6dd4 DF92      		push r13
 19073 6dd6 EF92      		push r14
 19074 6dd8 FF92      		push r15
 19075 6dda 0F93      		push r16
 19076 6ddc 1F93      		push r17
 19077               	/* prologue: function */
 19078               	/* frame size = 0 */
 19079 6dde 7B01      		movw r14,r22
 19080 6de0 8C01      		movw r16,r24
 19081 6de2 5901      		movw r10,r18
 19082 6de4 6A01      		movw r12,r20
 19083               	.LBB784:
 19084               	.LBB785:
 19085               	.LM1930:
 19086 6de6 8FEF      		ldi r24,lo8(-1)
 19087 6de8 9FEF      		ldi r25,hi8(-1)
 19088 6dea AFEF      		ldi r26,hlo8(-1)
 19089 6dec BFEF      		ldi r27,hhi8(-1)
 19090 6dee 8093 0000 		sts CRC,r24
 19091 6df2 9093 0000 		sts (CRC)+1,r25
 19092 6df6 A093 0000 		sts (CRC)+2,r26
 19093 6dfa B093 0000 		sts (CRC)+3,r27
 19094               	.LBE785:
 19095               	.LBE784:
 19096               	.LM1931:
 19097 6dfe 6CE4      		ldi r22,lo8(-1327598516)
 19098 6e00 74E7      		ldi r23,hi8(-1327598516)
 19099 6e02 8EED      		ldi r24,hlo8(-1327598516)
 19100 6e04 90EB      		ldi r25,hhi8(-1327598516)
 19101               	.LVL1470:
 19102 6e06 0E94 0000 		call SD_Write32
 19103               	.LVL1471:
 19104               	.LM1932:
 19105 6e0a 6BE1      		ldi r22,lo8(27)
 19106 6e0c 70E0      		ldi r23,hi8(27)
 19107 6e0e 80E0      		ldi r24,hlo8(27)
 19108 6e10 90E0      		ldi r25,hhi8(27)
 19109 6e12 0E94 0000 		call SD_Write32
 19110               	.LM1933:
 19111 6e16 82E0      		ldi r24,lo8(2)
 19112 6e18 90E0      		ldi r25,hi8(2)
 19113 6e1a 0E94 0000 		call SD_Write16
 19114               	.LM1934:
 19115 6e1e C801      		movw r24,r16
 19116 6e20 B701      		movw r22,r14
 19117 6e22 0E94 0000 		call SD_Write32
 19118               	.LM1935:
 19119 6e26 C601      		movw r24,r12
 19120 6e28 B501      		movw r22,r10
 19121 6e2a 0E94 0000 		call SD_Write32
 19122               	.LM1936:
 19123 6e2e 80E0      		ldi r24,lo8(0)
 19124 6e30 0E94 0000 		call SD_Write8
 19125               	.LM1937:
 19126 6e34 60E0      		ldi r22,lo8(0)
 19127 6e36 70E0      		ldi r23,hi8(0)
 19128 6e38 80E0      		ldi r24,hlo8(0)
 19129 6e3a 90E0      		ldi r25,hhi8(0)
 19130 6e3c 0E94 0000 		call SD_Write32
 19131               	.LM1938:
 19132 6e40 0E94 0000 		call SD_WriteCRC
 19133               	.LM1939:
 19134 6e44 80E0      		ldi r24,lo8(Log_File)
 19135 6e46 90E0      		ldi r25,hi8(Log_File)
 19136 6e48 0E94 0000 		call f_sync
 19137 6e4c 8823      		tst r24
 19138 6e4e 01F0      		breq .L1063
 19139               	.LM1940:
 19140 6e50 1092 0000 		sts sdValid,__zero_reg__
 19141               	.L1063:
 19142               	/* epilogue start */
 19143               	.LM1941:
 19144 6e54 1F91      		pop r17
 19145 6e56 0F91      		pop r16
 19146 6e58 FF90      		pop r15
 19147 6e5a EF90      		pop r14
 19148               	.LVL1472:
 19149 6e5c DF90      		pop r13
 19150 6e5e CF90      		pop r12
 19151 6e60 BF90      		pop r11
 19152 6e62 AF90      		pop r10
 19153               	.LVL1473:
 19154 6e64 0895      		ret
 19155               	.LFE152:
 19157               	.global	getDeviceID
 19159               	getDeviceID:
 19160               	.LFB158:
 19161               	.LM1942:
 19162 6e66 BF92      		push r11
 19163 6e68 CF92      		push r12
 19164 6e6a DF92      		push r13
 19165 6e6c EF92      		push r14
 19166 6e6e FF92      		push r15
 19167 6e70 0F93      		push r16
 19168 6e72 1F93      		push r17
 19169 6e74 DF93      		push r29
 19170 6e76 CF93      		push r28
 19171 6e78 CDB7      		in r28,__SP_L__
 19172 6e7a DEB7      		in r29,__SP_H__
 19173 6e7c 2597      		sbiw r28,5
 19174 6e7e CDBF      		out __SP_L__,r28
 19175 6e80 DEBF      		out __SP_H__,r29
 19176               	/* prologue: function */
 19177               	/* frame size = 5 */
 19178               	.LBB786:
 19179               	.LBB787:
 19180               	.LM1943:
 19181 6e82 0AEC      		ldi r16,lo8(458)
 19182 6e84 11E0      		ldi r17,hi8(458)
 19183 6e86 B2E0      		ldi r27,lo8(2)
 19184 6e88 BB2E      		mov r11,r27
 19185 6e8a D801      		movw r26,r16
 19186 6e8c BC92      		st X,r11
 19187               	.LBB788:
 19188               	.LM1944:
 19189 6e8e E8E0      		ldi r30,lo8(8)
 19190 6e90 F0E0      		ldi r31,hi8(8)
 19191               	/* #APP */
 19192               	 ;  264 "sensorsCS.c" 1
 19193 6e92 E491      		lpm r30, Z
 19194               		
 19195               	 ;  0 "" 2
 19196               	.LVL1474:
 19197               	/* #NOAPP */
 19198               	.LBE788:
 19199               	.LM1945:
 19200 6e94 1C92      		st X,__zero_reg__
 19201               	.LBE787:
 19202               	.LBE786:
 19203               	.LM1946:
 19204 6e96 8E2F      		mov r24,r30
 19205 6e98 90E0      		ldi r25,lo8(0)
 19206 6e9a 6E01      		movw r12,r28
 19207 6e9c 0894      		sec
 19208 6e9e C11C      		adc r12,__zero_reg__
 19209 6ea0 D11C      		adc r13,__zero_reg__
 19210 6ea2 B601      		movw r22,r12
 19211 6ea4 40E1      		ldi r20,lo8(16)
 19212 6ea6 50E0      		ldi r21,hi8(16)
 19213 6ea8 0E94 0000 		call itoa
 19214               	.LVL1475:
 19215 6eac BC01      		movw r22,r24
 19216 6eae A0E0      		ldi r26,lo8(deviceID)
 19217 6eb0 EA2E      		mov r14,r26
 19218 6eb2 A0E0      		ldi r26,hi8(deviceID)
 19219 6eb4 FA2E      		mov r15,r26
 19220 6eb6 C701      		movw r24,r14
 19221 6eb8 0E94 0000 		call strcpy
 19222               	.LBB789:
 19223               	.LBB790:
 19224               	.LM1947:
 19225 6ebc F801      		movw r30,r16
 19226 6ebe B082      		st Z,r11
 19227               	.LBB791:
 19228               	.LM1948:
 19229 6ec0 E9E0      		ldi r30,lo8(9)
 19230 6ec2 F0E0      		ldi r31,hi8(9)
 19231               	/* #APP */
 19232               	 ;  264 "sensorsCS.c" 1
 19233 6ec4 E491      		lpm r30, Z
 19234               		
 19235               	 ;  0 "" 2
 19236               	.LVL1476:
 19237               	/* #NOAPP */
 19238               	.LBE791:
 19239               	.LM1949:
 19240 6ec6 D801      		movw r26,r16
 19241 6ec8 1C92      		st X,__zero_reg__
 19242               	.LBE790:
 19243               	.LBE789:
 19244               	.LM1950:
 19245 6eca 8E2F      		mov r24,r30
 19246 6ecc 90E0      		ldi r25,lo8(0)
 19247 6ece B601      		movw r22,r12
 19248 6ed0 40E1      		ldi r20,lo8(16)
 19249 6ed2 50E0      		ldi r21,hi8(16)
 19250 6ed4 0E94 0000 		call itoa
 19251               	.LVL1477:
 19252 6ed8 BC01      		movw r22,r24
 19253 6eda C701      		movw r24,r14
 19254 6edc 0E94 0000 		call strcat
 19255               	.LBB792:
 19256               	.LBB793:
 19257               	.LM1951:
 19258 6ee0 F801      		movw r30,r16
 19259 6ee2 B082      		st Z,r11
 19260               	.LBB794:
 19261               	.LM1952:
 19262 6ee4 EAE0      		ldi r30,lo8(10)
 19263 6ee6 F0E0      		ldi r31,hi8(10)
 19264               	/* #APP */
 19265               	 ;  264 "sensorsCS.c" 1
 19266 6ee8 E491      		lpm r30, Z
 19267               		
 19268               	 ;  0 "" 2
 19269               	.LVL1478:
 19270               	/* #NOAPP */
 19271               	.LBE794:
 19272               	.LM1953:
 19273 6eea D801      		movw r26,r16
 19274 6eec 1C92      		st X,__zero_reg__
 19275               	.LBE793:
 19276               	.LBE792:
 19277               	.LM1954:
 19278 6eee 8E2F      		mov r24,r30
 19279 6ef0 90E0      		ldi r25,lo8(0)
 19280 6ef2 B601      		movw r22,r12
 19281 6ef4 40E1      		ldi r20,lo8(16)
 19282 6ef6 50E0      		ldi r21,hi8(16)
 19283 6ef8 0E94 0000 		call itoa
 19284               	.LVL1479:
 19285 6efc BC01      		movw r22,r24
 19286 6efe C701      		movw r24,r14
 19287 6f00 0E94 0000 		call strcat
 19288               	.LBB795:
 19289               	.LBB796:
 19290               	.LM1955:
 19291 6f04 F801      		movw r30,r16
 19292 6f06 B082      		st Z,r11
 19293               	.LBB797:
 19294               	.LM1956:
 19295 6f08 EBE0      		ldi r30,lo8(11)
 19296 6f0a F0E0      		ldi r31,hi8(11)
 19297               	/* #APP */
 19298               	 ;  264 "sensorsCS.c" 1
 19299 6f0c E491      		lpm r30, Z
 19300               		
 19301               	 ;  0 "" 2
 19302               	.LVL1480:
 19303               	/* #NOAPP */
 19304               	.LBE797:
 19305               	.LM1957:
 19306 6f0e D801      		movw r26,r16
 19307 6f10 1C92      		st X,__zero_reg__
 19308               	.LBE796:
 19309               	.LBE795:
 19310               	.LM1958:
 19311 6f12 8E2F      		mov r24,r30
 19312 6f14 90E0      		ldi r25,lo8(0)
 19313 6f16 B601      		movw r22,r12
 19314 6f18 40E1      		ldi r20,lo8(16)
 19315 6f1a 50E0      		ldi r21,hi8(16)
 19316 6f1c 0E94 0000 		call itoa
 19317               	.LVL1481:
 19318 6f20 BC01      		movw r22,r24
 19319 6f22 C701      		movw r24,r14
 19320 6f24 0E94 0000 		call strcat
 19321               	.LBB798:
 19322               	.LBB799:
 19323               	.LM1959:
 19324 6f28 F801      		movw r30,r16
 19325 6f2a B082      		st Z,r11
 19326               	.LBB800:
 19327               	.LM1960:
 19328 6f2c ECE0      		ldi r30,lo8(12)
 19329 6f2e F0E0      		ldi r31,hi8(12)
 19330               	/* #APP */
 19331               	 ;  264 "sensorsCS.c" 1
 19332 6f30 E491      		lpm r30, Z
 19333               		
 19334               	 ;  0 "" 2
 19335               	.LVL1482:
 19336               	/* #NOAPP */
 19337               	.LBE800:
 19338               	.LM1961:
 19339 6f32 D801      		movw r26,r16
 19340 6f34 1C92      		st X,__zero_reg__
 19341               	.LBE799:
 19342               	.LBE798:
 19343               	.LM1962:
 19344 6f36 8E2F      		mov r24,r30
 19345 6f38 90E0      		ldi r25,lo8(0)
 19346 6f3a B601      		movw r22,r12
 19347 6f3c 40E1      		ldi r20,lo8(16)
 19348 6f3e 50E0      		ldi r21,hi8(16)
 19349 6f40 0E94 0000 		call itoa
 19350               	.LVL1483:
 19351 6f44 BC01      		movw r22,r24
 19352 6f46 C701      		movw r24,r14
 19353 6f48 0E94 0000 		call strcat
 19354               	.LBB801:
 19355               	.LBB802:
 19356               	.LM1963:
 19357 6f4c F801      		movw r30,r16
 19358 6f4e B082      		st Z,r11
 19359               	.LBB803:
 19360               	.LM1964:
 19361 6f50 EDE0      		ldi r30,lo8(13)
 19362 6f52 F0E0      		ldi r31,hi8(13)
 19363               	/* #APP */
 19364               	 ;  264 "sensorsCS.c" 1
 19365 6f54 E491      		lpm r30, Z
 19366               		
 19367               	 ;  0 "" 2
 19368               	.LVL1484:
 19369               	/* #NOAPP */
 19370               	.LBE803:
 19371               	.LM1965:
 19372 6f56 D801      		movw r26,r16
 19373 6f58 1C92      		st X,__zero_reg__
 19374               	.LBE802:
 19375               	.LBE801:
 19376               	.LM1966:
 19377 6f5a 8E2F      		mov r24,r30
 19378 6f5c 90E0      		ldi r25,lo8(0)
 19379 6f5e B601      		movw r22,r12
 19380 6f60 40E1      		ldi r20,lo8(16)
 19381 6f62 50E0      		ldi r21,hi8(16)
 19382 6f64 0E94 0000 		call itoa
 19383               	.LVL1485:
 19384 6f68 BC01      		movw r22,r24
 19385 6f6a C701      		movw r24,r14
 19386 6f6c 0E94 0000 		call strcat
 19387               	.LBB804:
 19388               	.LBB805:
 19389               	.LM1967:
 19390 6f70 F801      		movw r30,r16
 19391 6f72 B082      		st Z,r11
 19392               	.LBB806:
 19393               	.LM1968:
 19394 6f74 E0E1      		ldi r30,lo8(16)
 19395 6f76 F0E0      		ldi r31,hi8(16)
 19396               	/* #APP */
 19397               	 ;  264 "sensorsCS.c" 1
 19398 6f78 E491      		lpm r30, Z
 19399               		
 19400               	 ;  0 "" 2
 19401               	.LVL1486:
 19402               	/* #NOAPP */
 19403               	.LBE806:
 19404               	.LM1969:
 19405 6f7a D801      		movw r26,r16
 19406 6f7c 1C92      		st X,__zero_reg__
 19407               	.LBE805:
 19408               	.LBE804:
 19409               	.LM1970:
 19410 6f7e 8E2F      		mov r24,r30
 19411 6f80 90E0      		ldi r25,lo8(0)
 19412 6f82 B601      		movw r22,r12
 19413 6f84 40E1      		ldi r20,lo8(16)
 19414 6f86 50E0      		ldi r21,hi8(16)
 19415 6f88 0E94 0000 		call itoa
 19416               	.LVL1487:
 19417 6f8c BC01      		movw r22,r24
 19418 6f8e C701      		movw r24,r14
 19419 6f90 0E94 0000 		call strcat
 19420               	.LBB807:
 19421               	.LBB808:
 19422               	.LM1971:
 19423 6f94 F801      		movw r30,r16
 19424 6f96 B082      		st Z,r11
 19425               	.LBB809:
 19426               	.LM1972:
 19427 6f98 E2E1      		ldi r30,lo8(18)
 19428 6f9a F0E0      		ldi r31,hi8(18)
 19429               	/* #APP */
 19430               	 ;  264 "sensorsCS.c" 1
 19431 6f9c E491      		lpm r30, Z
 19432               		
 19433               	 ;  0 "" 2
 19434               	.LVL1488:
 19435               	/* #NOAPP */
 19436               	.LBE809:
 19437               	.LM1973:
 19438 6f9e D801      		movw r26,r16
 19439 6fa0 1C92      		st X,__zero_reg__
 19440               	.LBE808:
 19441               	.LBE807:
 19442               	.LM1974:
 19443 6fa2 8E2F      		mov r24,r30
 19444 6fa4 90E0      		ldi r25,lo8(0)
 19445 6fa6 B601      		movw r22,r12
 19446 6fa8 40E1      		ldi r20,lo8(16)
 19447 6faa 50E0      		ldi r21,hi8(16)
 19448 6fac 0E94 0000 		call itoa
 19449               	.LVL1489:
 19450 6fb0 BC01      		movw r22,r24
 19451 6fb2 C701      		movw r24,r14
 19452 6fb4 0E94 0000 		call strcat
 19453               	.LBB810:
 19454               	.LBB811:
 19455               	.LM1975:
 19456 6fb8 F801      		movw r30,r16
 19457 6fba B082      		st Z,r11
 19458               	.LBB812:
 19459               	.LM1976:
 19460 6fbc E3E1      		ldi r30,lo8(19)
 19461 6fbe F0E0      		ldi r31,hi8(19)
 19462               	/* #APP */
 19463               	 ;  264 "sensorsCS.c" 1
 19464 6fc0 E491      		lpm r30, Z
 19465               		
 19466               	 ;  0 "" 2
 19467               	.LVL1490:
 19468               	/* #NOAPP */
 19469               	.LBE812:
 19470               	.LM1977:
 19471 6fc2 D801      		movw r26,r16
 19472 6fc4 1C92      		st X,__zero_reg__
 19473               	.LBE811:
 19474               	.LBE810:
 19475               	.LM1978:
 19476 6fc6 8E2F      		mov r24,r30
 19477 6fc8 90E0      		ldi r25,lo8(0)
 19478 6fca B601      		movw r22,r12
 19479 6fcc 40E1      		ldi r20,lo8(16)
 19480 6fce 50E0      		ldi r21,hi8(16)
 19481 6fd0 0E94 0000 		call itoa
 19482               	.LVL1491:
 19483 6fd4 BC01      		movw r22,r24
 19484 6fd6 C701      		movw r24,r14
 19485 6fd8 0E94 0000 		call strcat
 19486               	.LBB813:
 19487               	.LBB814:
 19488               	.LM1979:
 19489 6fdc F801      		movw r30,r16
 19490 6fde B082      		st Z,r11
 19491               	.LBB815:
 19492               	.LM1980:
 19493 6fe0 E4E1      		ldi r30,lo8(20)
 19494 6fe2 F0E0      		ldi r31,hi8(20)
 19495               	/* #APP */
 19496               	 ;  264 "sensorsCS.c" 1
 19497 6fe4 E491      		lpm r30, Z
 19498               		
 19499               	 ;  0 "" 2
 19500               	.LVL1492:
 19501               	/* #NOAPP */
 19502               	.LBE815:
 19503               	.LM1981:
 19504 6fe6 D801      		movw r26,r16
 19505 6fe8 1C92      		st X,__zero_reg__
 19506               	.LBE814:
 19507               	.LBE813:
 19508               	.LM1982:
 19509 6fea 8E2F      		mov r24,r30
 19510 6fec 90E0      		ldi r25,lo8(0)
 19511 6fee B601      		movw r22,r12
 19512 6ff0 40E1      		ldi r20,lo8(16)
 19513 6ff2 50E0      		ldi r21,hi8(16)
 19514 6ff4 0E94 0000 		call itoa
 19515               	.LVL1493:
 19516 6ff8 BC01      		movw r22,r24
 19517 6ffa C701      		movw r24,r14
 19518 6ffc 0E94 0000 		call strcat
 19519               	.LBB816:
 19520               	.LBB817:
 19521               	.LM1983:
 19522 7000 F801      		movw r30,r16
 19523 7002 B082      		st Z,r11
 19524               	.LBB818:
 19525               	.LM1984:
 19526 7004 E5E1      		ldi r30,lo8(21)
 19527 7006 F0E0      		ldi r31,hi8(21)
 19528               	/* #APP */
 19529               	 ;  264 "sensorsCS.c" 1
 19530 7008 E491      		lpm r30, Z
 19531               		
 19532               	 ;  0 "" 2
 19533               	.LVL1494:
 19534               	/* #NOAPP */
 19535               	.LBE818:
 19536               	.LM1985:
 19537 700a D801      		movw r26,r16
 19538 700c 1C92      		st X,__zero_reg__
 19539               	.LBE817:
 19540               	.LBE816:
 19541               	.LM1986:
 19542 700e 8E2F      		mov r24,r30
 19543 7010 90E0      		ldi r25,lo8(0)
 19544 7012 B601      		movw r22,r12
 19545 7014 40E1      		ldi r20,lo8(16)
 19546 7016 50E0      		ldi r21,hi8(16)
 19547 7018 0E94 0000 		call itoa
 19548               	.LVL1495:
 19549 701c BC01      		movw r22,r24
 19550 701e C701      		movw r24,r14
 19551 7020 0E94 0000 		call strcat
 19552               	/* epilogue start */
 19553               	.LM1987:
 19554 7024 2596      		adiw r28,5
 19555 7026 CDBF      		out __SP_L__,r28
 19556 7028 DEBF      		out __SP_H__,r29
 19557 702a CF91      		pop r28
 19558 702c DF91      		pop r29
 19559 702e 1F91      		pop r17
 19560 7030 0F91      		pop r16
 19561 7032 FF90      		pop r15
 19562 7034 EF90      		pop r14
 19563 7036 DF90      		pop r13
 19564 7038 CF90      		pop r12
 19565 703a BF90      		pop r11
 19566 703c 0895      		ret
 19567               	.LFE158:
 19569               	.global	SD_WriteString
 19571               	SD_WriteString:
 19572               	.LFB94:
 19573               	.LM1988:
 19574               	.LVL1496:
 19575 703e EF92      		push r14
 19576 7040 FF92      		push r15
 19577 7042 0F93      		push r16
 19578 7044 1F93      		push r17
 19579 7046 CF93      		push r28
 19580 7048 DF93      		push r29
 19581               	/* prologue: function */
 19582               	/* frame size = 0 */
 19583 704a EC01      		movw r28,r24
 19584               	.LM1989:
 19585 704c 60E0      		ldi r22,lo8(Log_File)
 19586 704e 70E0      		ldi r23,hi8(Log_File)
 19587 7050 0E94 0000 		call f_puts
 19588               	.LVL1497:
 19589 7054 60E0      		ldi r22,lo8(0)
 19590 7056 70E0      		ldi r23,hi8(0)
 19591               	.LVL1498:
 19592 7058 00C0      		rjmp .L1067
 19593               	.L1068:
 19594               	.LBB819:
 19595               	.LM1990:
 19596 705a E090 0000 		lds r14,CRC
 19597 705e F090 0000 		lds r15,(CRC)+1
 19598 7062 0091 0000 		lds r16,(CRC)+2
 19599 7066 1091 0000 		lds r17,(CRC)+3
 19600 706a 2091 0000 		lds r18,CRC
 19601 706e 3091 0000 		lds r19,(CRC)+1
 19602 7072 4091 0000 		lds r20,(CRC)+2
 19603 7076 5091 0000 		lds r21,(CRC)+3
 19604 707a 3070      		andi r19,hi8(255)
 19605 707c 4070      		andi r20,hlo8(255)
 19606 707e 5070      		andi r21,hhi8(255)
 19607 7080 FE01      		movw r30,r28
 19608 7082 E60F      		add r30,r22
 19609 7084 F71F      		adc r31,r23
 19610 7086 8081      		ld r24,Z
 19611 7088 90E0      		ldi r25,lo8(0)
 19612 708a A0E0      		ldi r26,lo8(0)
 19613 708c B0E0      		ldi r27,hi8(0)
 19614 708e 2827      		eor r18,r24
 19615 7090 3927      		eor r19,r25
 19616 7092 4A27      		eor r20,r26
 19617 7094 5B27      		eor r21,r27
 19618 7096 220F      		lsl r18
 19619 7098 331F      		rol r19
 19620 709a 220F      		lsl r18
 19621 709c 331F      		rol r19
 19622 709e 2050      		subi r18,lo8(-(crc_table))
 19623 70a0 3040      		sbci r19,hi8(-(crc_table))
 19624 70a2 EF2C      		mov r14,r15
 19625 70a4 F02E      		mov r15,r16
 19626 70a6 012F      		mov r16,r17
 19627 70a8 1127      		clr r17
 19628 70aa F901      		movw r30,r18
 19629 70ac 8081      		ld r24,Z
 19630 70ae 9181      		ldd r25,Z+1
 19631 70b0 A281      		ldd r26,Z+2
 19632 70b2 B381      		ldd r27,Z+3
 19633 70b4 E826      		eor r14,r24
 19634 70b6 F926      		eor r15,r25
 19635 70b8 0A27      		eor r16,r26
 19636 70ba 1B27      		eor r17,r27
 19637 70bc E092 0000 		sts CRC,r14
 19638 70c0 F092 0000 		sts (CRC)+1,r15
 19639 70c4 0093 0000 		sts (CRC)+2,r16
 19640 70c8 1093 0000 		sts (CRC)+3,r17
 19641               	.LM1991:
 19642 70cc 6F5F      		subi r22,lo8(-(1))
 19643 70ce 7F4F      		sbci r23,hi8(-(1))
 19644               	.L1067:
 19645 70d0 FE01      		movw r30,r28
 19646 70d2 0190      		ld __tmp_reg__,Z+
 19647 70d4 0020      		tst __tmp_reg__
 19648 70d6 01F4      		brne .-6
 19649 70d8 3197      		sbiw r30,1
 19650 70da EC1B      		sub r30,r28
 19651 70dc FD0B      		sbc r31,r29
 19652 70de 6E17      		cp r22,r30
 19653 70e0 7F07      		cpc r23,r31
 19654 70e2 00F4      		brsh .+2
 19655 70e4 00C0      		rjmp .L1068
 19656               	/* epilogue start */
 19657               	.LBE819:
 19658               	.LM1992:
 19659 70e6 DF91      		pop r29
 19660 70e8 CF91      		pop r28
 19661               	.LVL1499:
 19662 70ea 1F91      		pop r17
 19663 70ec 0F91      		pop r16
 19664 70ee FF90      		pop r15
 19665 70f0 EF90      		pop r14
 19666 70f2 0895      		ret
 19667               	.LFE94:
 19669               		.data
 19670               	.LC4:
 19671 0036 4163 6365 		.string	"Accel_X"
 19671      6C5F 5800 
 19672               	.LC5:
 19673 003e 3136 00   		.string	"16"
 19674               	.LC6:
 19675 0041 4163 6365 		.string	"Accel_Y"
 19675      6C5F 5900 
 19676               	.LC7:
 19677 0049 4163 6365 		.string	"Accel_Z"
 19677      6C5F 5A00 
 19678               		.text
 19679               	.global	SD_WriteAccelBuffer
 19681               	SD_WriteAccelBuffer:
 19682               	.LFB157:
 19683               	.LM1993:
 19684               	.LVL1500:
 19685 70f4 EF92      		push r14
 19686 70f6 FF92      		push r15
 19687 70f8 0F93      		push r16
 19688 70fa 1F93      		push r17
 19689 70fc CF93      		push r28
 19690 70fe DF93      		push r29
 19691               	/* prologue: function */
 19692               	/* frame size = 0 */
 19693 7100 082F      		mov r16,r24
 19694               	.LBB820:
 19695               	.LBB821:
 19696               	.LM1994:
 19697 7102 8FEF      		ldi r24,lo8(-1)
 19698 7104 9FEF      		ldi r25,hi8(-1)
 19699 7106 AFEF      		ldi r26,hlo8(-1)
 19700 7108 BFEF      		ldi r27,hhi8(-1)
 19701               	.LVL1501:
 19702 710a 8093 0000 		sts CRC,r24
 19703 710e 9093 0000 		sts (CRC)+1,r25
 19704 7112 A093 0000 		sts (CRC)+2,r26
 19705 7116 B093 0000 		sts (CRC)+3,r27
 19706               	.LBE821:
 19707               	.LBE820:
 19708               	.LM1995:
 19709 711a 6CE4      		ldi r22,lo8(-1327598516)
 19710 711c 74E7      		ldi r23,hi8(-1327598516)
 19711 711e 8EED      		ldi r24,hlo8(-1327598516)
 19712 7120 90EB      		ldi r25,hhi8(-1327598516)
 19713 7122 0E94 0000 		call SD_Write32
 19714               	.LM1996:
 19715 7126 64E4      		ldi r22,lo8(1860)
 19716 7128 77E0      		ldi r23,hi8(1860)
 19717 712a 80E0      		ldi r24,hlo8(1860)
 19718 712c 90E0      		ldi r25,hhi8(1860)
 19719 712e 0E94 0000 		call SD_Write32
 19720               	.LM1997:
 19721 7132 83E0      		ldi r24,lo8(3)
 19722 7134 90E0      		ldi r25,hi8(3)
 19723 7136 0E94 0000 		call SD_Write16
 19724               	.LM1998:
 19725 713a 10E0      		ldi r17,lo8(0)
 19726 713c F801      		movw r30,r16
 19727               	.LVL1502:
 19728 713e EE0F      		lsl r30
 19729 7140 FF1F      		rol r31
 19730 7142 EE0F      		lsl r30
 19731 7144 FF1F      		rol r31
 19732 7146 E050      		subi r30,lo8(-(accelSampleStartTime))
 19733 7148 F040      		sbci r31,hi8(-(accelSampleStartTime))
 19734 714a 6081      		ld r22,Z
 19735 714c 7181      		ldd r23,Z+1
 19736 714e 8281      		ldd r24,Z+2
 19737 7150 9381      		ldd r25,Z+3
 19738 7152 0E94 0000 		call SD_Write32
 19739               	.LM1999:
 19740 7156 60E8      		ldi r22,lo8(5760)
 19741 7158 76E1      		ldi r23,hi8(5760)
 19742 715a 80E0      		ldi r24,hlo8(5760)
 19743 715c 90E0      		ldi r25,hhi8(5760)
 19744 715e 0E94 0000 		call SD_Write32
 19745               	.LM2000:
 19746 7162 6CE2      		ldi r22,lo8(300)
 19747 7164 71E0      		ldi r23,hi8(300)
 19748 7166 80E0      		ldi r24,hlo8(300)
 19749 7168 90E0      		ldi r25,hhi8(300)
 19750 716a 0E94 0000 		call SD_Write32
 19751               	.LM2001:
 19752 716e 80E0      		ldi r24,lo8(.LC4)
 19753 7170 90E0      		ldi r25,hi8(.LC4)
 19754 7172 0E94 0000 		call SD_WriteString
 19755               	.LM2002:
 19756 7176 89E0      		ldi r24,lo8(9)
 19757 7178 0E94 0000 		call SD_Write8
 19758               	.LM2003:
 19759 717c 80E0      		ldi r24,lo8(.LC5)
 19760 717e 90E0      		ldi r25,hi8(.LC5)
 19761 7180 0E94 0000 		call SD_WriteString
 19762               	.LM2004:
 19763 7184 8AE0      		ldi r24,lo8(10)
 19764 7186 0E94 0000 		call SD_Write8
 19765               	.LM2005:
 19766 718a 80E0      		ldi r24,lo8(.LC6)
 19767 718c 90E0      		ldi r25,hi8(.LC6)
 19768 718e 0E94 0000 		call SD_WriteString
 19769               	.LM2006:
 19770 7192 89E0      		ldi r24,lo8(9)
 19771 7194 0E94 0000 		call SD_Write8
 19772               	.LM2007:
 19773 7198 80E0      		ldi r24,lo8(.LC5)
 19774 719a 90E0      		ldi r25,hi8(.LC5)
 19775 719c 0E94 0000 		call SD_WriteString
 19776               	.LM2008:
 19777 71a0 8AE0      		ldi r24,lo8(10)
 19778 71a2 0E94 0000 		call SD_Write8
 19779               	.LM2009:
 19780 71a6 80E0      		ldi r24,lo8(.LC7)
 19781 71a8 90E0      		ldi r25,hi8(.LC7)
 19782 71aa 0E94 0000 		call SD_WriteString
 19783               	.LM2010:
 19784 71ae 89E0      		ldi r24,lo8(9)
 19785 71b0 0E94 0000 		call SD_Write8
 19786               	.LM2011:
 19787 71b4 80E0      		ldi r24,lo8(.LC5)
 19788 71b6 90E0      		ldi r25,hi8(.LC5)
 19789 71b8 0E94 0000 		call SD_WriteString
 19790               	.LM2012:
 19791 71bc 8AE0      		ldi r24,lo8(10)
 19792 71be 0E94 0000 		call SD_Write8
 19793               	.LM2013:
 19794 71c2 80E0      		ldi r24,lo8(0)
 19795 71c4 0E94 0000 		call SD_Write8
 19796 71c8 88E0      		ldi r24,lo8(1800)
 19797 71ca 97E0      		ldi r25,hi8(1800)
 19798 71cc 089F      		mul r16,r24
 19799 71ce 7001      		movw r14,r0
 19800 71d0 099F      		mul r16,r25
 19801 71d2 F00C      		add r15,r0
 19802 71d4 189F      		mul r17,r24
 19803 71d6 F00C      		add r15,r0
 19804 71d8 1124      		clr r1
 19805 71da 80E0      		ldi r24,lo8(accelBuffer)
 19806 71dc 90E0      		ldi r25,hi8(accelBuffer)
 19807 71de E80E      		add r14,r24
 19808 71e0 F91E      		adc r15,r25
 19809 71e2 C0E0      		ldi r28,lo8(0)
 19810 71e4 D0E0      		ldi r29,hi8(0)
 19811               	.LVL1503:
 19812               	.L1071:
 19813               	.LBB822:
 19814               	.LM2014:
 19815 71e6 F701      		movw r30,r14
 19816 71e8 8191      		ld r24,Z+
 19817 71ea 9191      		ld r25,Z+
 19818 71ec 7F01      		movw r14,r30
 19819 71ee 0E94 0000 		call SD_Write16
 19820               	.LM2015:
 19821 71f2 2196      		adiw r28,1
 19822 71f4 F3E0      		ldi r31,hi8(900)
 19823 71f6 C438      		cpi r28,lo8(900)
 19824 71f8 DF07      		cpc r29,r31
 19825 71fa 01F4      		brne .L1071
 19826               	.LBE822:
 19827               	.LM2016:
 19828 71fc 0E94 0000 		call SD_WriteCRC
 19829               	.LM2017:
 19830 7200 80E0      		ldi r24,lo8(Log_File)
 19831 7202 90E0      		ldi r25,hi8(Log_File)
 19832 7204 0E94 0000 		call f_sync
 19833 7208 8823      		tst r24
 19834 720a 01F0      		breq .L1073
 19835               	.LM2018:
 19836 720c 1092 0000 		sts sdValid,__zero_reg__
 19837               	.L1073:
 19838               	/* epilogue start */
 19839               	.LM2019:
 19840 7210 DF91      		pop r29
 19841 7212 CF91      		pop r28
 19842               	.LVL1504:
 19843 7214 1F91      		pop r17
 19844 7216 0F91      		pop r16
 19845 7218 FF90      		pop r15
 19846 721a EF90      		pop r14
 19847 721c 0895      		ret
 19848               	.LFE157:
 19850               		.data
 19851               	.LC8:
 19852 0051 454B 4700 		.string	"EKG"
 19853               		.text
 19854               	.global	SD_WriteEKGBuffer
 19856               	SD_WriteEKGBuffer:
 19857               	.LFB156:
 19858               	.LM2020:
 19859               	.LVL1505:
 19860 721e EF92      		push r14
 19861 7220 FF92      		push r15
 19862 7222 0F93      		push r16
 19863 7224 1F93      		push r17
 19864 7226 CF93      		push r28
 19865 7228 DF93      		push r29
 19866               	/* prologue: function */
 19867               	/* frame size = 0 */
 19868 722a 082F      		mov r16,r24
 19869               	.LBB823:
 19870               	.LBB824:
 19871               	.LM2021:
 19872 722c 8FEF      		ldi r24,lo8(-1)
 19873 722e 9FEF      		ldi r25,hi8(-1)
 19874 7230 AFEF      		ldi r26,hlo8(-1)
 19875 7232 BFEF      		ldi r27,hhi8(-1)
 19876               	.LVL1506:
 19877 7234 8093 0000 		sts CRC,r24
 19878 7238 9093 0000 		sts (CRC)+1,r25
 19879 723c A093 0000 		sts (CRC)+2,r26
 19880 7240 B093 0000 		sts (CRC)+3,r27
 19881               	.LBE824:
 19882               	.LBE823:
 19883               	.LM2022:
 19884 7244 6CE4      		ldi r22,lo8(-1327598516)
 19885 7246 74E7      		ldi r23,hi8(-1327598516)
 19886 7248 8EED      		ldi r24,hlo8(-1327598516)
 19887 724a 90EB      		ldi r25,hhi8(-1327598516)
 19888 724c 0E94 0000 		call SD_Write32
 19889               	.LM2023:
 19890 7250 6AE7      		ldi r22,lo8(634)
 19891 7252 72E0      		ldi r23,hi8(634)
 19892 7254 80E0      		ldi r24,hlo8(634)
 19893 7256 90E0      		ldi r25,hhi8(634)
 19894 7258 0E94 0000 		call SD_Write32
 19895               	.LM2024:
 19896 725c 83E0      		ldi r24,lo8(3)
 19897 725e 90E0      		ldi r25,hi8(3)
 19898 7260 0E94 0000 		call SD_Write16
 19899               	.LM2025:
 19900 7264 10E0      		ldi r17,lo8(0)
 19901 7266 F801      		movw r30,r16
 19902               	.LVL1507:
 19903 7268 EE0F      		lsl r30
 19904 726a FF1F      		rol r31
 19905 726c EE0F      		lsl r30
 19906 726e FF1F      		rol r31
 19907 7270 E050      		subi r30,lo8(-(EKGSampleStartTime))
 19908 7272 F040      		sbci r31,hi8(-(EKGSampleStartTime))
 19909 7274 6081      		ld r22,Z
 19910 7276 7181      		ldd r23,Z+1
 19911 7278 8281      		ldd r24,Z+2
 19912 727a 9381      		ldd r25,Z+3
 19913 727c 0E94 0000 		call SD_Write32
 19914               	.LM2026:
 19915 7280 60E0      		ldi r22,lo8(6144)
 19916 7282 78E1      		ldi r23,hi8(6144)
 19917 7284 80E0      		ldi r24,hlo8(6144)
 19918 7286 90E0      		ldi r25,hhi8(6144)
 19919 7288 0E94 0000 		call SD_Write32
 19920               	.LM2027:
 19921 728c 6CE2      		ldi r22,lo8(300)
 19922 728e 71E0      		ldi r23,hi8(300)
 19923 7290 80E0      		ldi r24,hlo8(300)
 19924 7292 90E0      		ldi r25,hhi8(300)
 19925 7294 0E94 0000 		call SD_Write32
 19926               	.LM2028:
 19927 7298 80E0      		ldi r24,lo8(.LC8)
 19928 729a 90E0      		ldi r25,hi8(.LC8)
 19929 729c 0E94 0000 		call SD_WriteString
 19930               	.LM2029:
 19931 72a0 89E0      		ldi r24,lo8(9)
 19932 72a2 0E94 0000 		call SD_Write8
 19933               	.LM2030:
 19934 72a6 80E0      		ldi r24,lo8(.LC5)
 19935 72a8 90E0      		ldi r25,hi8(.LC5)
 19936 72aa 0E94 0000 		call SD_WriteString
 19937               	.LM2031:
 19938 72ae 8AE0      		ldi r24,lo8(10)
 19939 72b0 0E94 0000 		call SD_Write8
 19940               	.LM2032:
 19941 72b4 80E0      		ldi r24,lo8(0)
 19942 72b6 0E94 0000 		call SD_Write8
 19943 72ba 88E5      		ldi r24,lo8(600)
 19944 72bc 92E0      		ldi r25,hi8(600)
 19945 72be 089F      		mul r16,r24
 19946 72c0 7001      		movw r14,r0
 19947 72c2 099F      		mul r16,r25
 19948 72c4 F00C      		add r15,r0
 19949 72c6 189F      		mul r17,r24
 19950 72c8 F00C      		add r15,r0
 19951 72ca 1124      		clr r1
 19952 72cc 80E0      		ldi r24,lo8(EKGBuffer)
 19953 72ce 90E0      		ldi r25,hi8(EKGBuffer)
 19954 72d0 E80E      		add r14,r24
 19955 72d2 F91E      		adc r15,r25
 19956 72d4 C0E0      		ldi r28,lo8(0)
 19957 72d6 D0E0      		ldi r29,hi8(0)
 19958               	.LVL1508:
 19959               	.L1076:
 19960               	.LBB825:
 19961               	.LM2033:
 19962 72d8 F701      		movw r30,r14
 19963 72da 8191      		ld r24,Z+
 19964 72dc 9191      		ld r25,Z+
 19965 72de 7F01      		movw r14,r30
 19966 72e0 0E94 0000 		call SD_Write16
 19967               	.LM2034:
 19968 72e4 2196      		adiw r28,1
 19969 72e6 F1E0      		ldi r31,hi8(300)
 19970 72e8 CC32      		cpi r28,lo8(300)
 19971 72ea DF07      		cpc r29,r31
 19972 72ec 01F4      		brne .L1076
 19973               	.LBE825:
 19974               	.LM2035:
 19975 72ee 0E94 0000 		call SD_WriteCRC
 19976               	.LM2036:
 19977 72f2 80E0      		ldi r24,lo8(Log_File)
 19978 72f4 90E0      		ldi r25,hi8(Log_File)
 19979 72f6 0E94 0000 		call f_sync
 19980 72fa 8823      		tst r24
 19981 72fc 01F0      		breq .L1078
 19982               	.LM2037:
 19983 72fe 1092 0000 		sts sdValid,__zero_reg__
 19984               	.L1078:
 19985               	/* epilogue start */
 19986               	.LM2038:
 19987 7302 DF91      		pop r29
 19988 7304 CF91      		pop r28
 19989               	.LVL1509:
 19990 7306 1F91      		pop r17
 19991 7308 0F91      		pop r16
 19992 730a FF90      		pop r15
 19993 730c EF90      		pop r14
 19994 730e 0895      		ret
 19995               	.LFE156:
 19997               		.data
 19998               	.LC9:
 19999 0055 5265 7370 		.string	"Respiration"
 19999      6972 6174 
 19999      696F 6E00 
 20000               		.text
 20001               	.global	SD_WriteRespirationBuffer
 20003               	SD_WriteRespirationBuffer:
 20004               	.LFB155:
 20005               	.LM2039:
 20006               	.LVL1510:
 20007 7310 EF92      		push r14
 20008 7312 FF92      		push r15
 20009 7314 0F93      		push r16
 20010 7316 1F93      		push r17
 20011 7318 CF93      		push r28
 20012 731a DF93      		push r29
 20013               	/* prologue: function */
 20014               	/* frame size = 0 */
 20015 731c 082F      		mov r16,r24
 20016               	.LBB826:
 20017               	.LBB827:
 20018               	.LM2040:
 20019 731e 8FEF      		ldi r24,lo8(-1)
 20020 7320 9FEF      		ldi r25,hi8(-1)
 20021 7322 AFEF      		ldi r26,hlo8(-1)
 20022 7324 BFEF      		ldi r27,hhi8(-1)
 20023               	.LVL1511:
 20024 7326 8093 0000 		sts CRC,r24
 20025 732a 9093 0000 		sts (CRC)+1,r25
 20026 732e A093 0000 		sts (CRC)+2,r26
 20027 7332 B093 0000 		sts (CRC)+3,r27
 20028               	.LBE827:
 20029               	.LBE826:
 20030               	.LM2041:
 20031 7336 6CE4      		ldi r22,lo8(-1327598516)
 20032 7338 74E7      		ldi r23,hi8(-1327598516)
 20033 733a 8EED      		ldi r24,hlo8(-1327598516)
 20034 733c 90EB      		ldi r25,hhi8(-1327598516)
 20035 733e 0E94 0000 		call SD_Write32
 20036               	.LM2042:
 20037 7342 6EE8      		ldi r22,lo8(142)
 20038 7344 70E0      		ldi r23,hi8(142)
 20039 7346 80E0      		ldi r24,hlo8(142)
 20040 7348 90E0      		ldi r25,hhi8(142)
 20041 734a 0E94 0000 		call SD_Write32
 20042               	.LM2043:
 20043 734e 83E0      		ldi r24,lo8(3)
 20044 7350 90E0      		ldi r25,hi8(3)
 20045 7352 0E94 0000 		call SD_Write16
 20046               	.LM2044:
 20047 7356 10E0      		ldi r17,lo8(0)
 20048 7358 F801      		movw r30,r16
 20049               	.LVL1512:
 20050 735a EE0F      		lsl r30
 20051 735c FF1F      		rol r31
 20052 735e EE0F      		lsl r30
 20053 7360 FF1F      		rol r31
 20054 7362 E050      		subi r30,lo8(-(respirationSampleStartTime))
 20055 7364 F040      		sbci r31,hi8(-(respirationSampleStartTime))
 20056 7366 6081      		ld r22,Z
 20057 7368 7181      		ldd r23,Z+1
 20058 736a 8281      		ldd r24,Z+2
 20059 736c 9381      		ldd r25,Z+3
 20060 736e 0E94 0000 		call SD_Write32
 20061               	.LM2045:
 20062 7372 60E0      		ldi r22,lo8(36864)
 20063 7374 70E9      		ldi r23,hi8(36864)
 20064 7376 80E0      		ldi r24,hlo8(36864)
 20065 7378 90E0      		ldi r25,hhi8(36864)
 20066 737a 0E94 0000 		call SD_Write32
 20067               	.LM2046:
 20068 737e 62E3      		ldi r22,lo8(50)
 20069 7380 70E0      		ldi r23,hi8(50)
 20070 7382 80E0      		ldi r24,hlo8(50)
 20071 7384 90E0      		ldi r25,hhi8(50)
 20072 7386 0E94 0000 		call SD_Write32
 20073               	.LM2047:
 20074 738a 80E0      		ldi r24,lo8(.LC9)
 20075 738c 90E0      		ldi r25,hi8(.LC9)
 20076 738e 0E94 0000 		call SD_WriteString
 20077               	.LM2048:
 20078 7392 89E0      		ldi r24,lo8(9)
 20079 7394 0E94 0000 		call SD_Write8
 20080               	.LM2049:
 20081 7398 80E0      		ldi r24,lo8(.LC5)
 20082 739a 90E0      		ldi r25,hi8(.LC5)
 20083 739c 0E94 0000 		call SD_WriteString
 20084               	.LM2050:
 20085 73a0 8AE0      		ldi r24,lo8(10)
 20086 73a2 0E94 0000 		call SD_Write8
 20087               	.LM2051:
 20088 73a6 80E0      		ldi r24,lo8(0)
 20089 73a8 0E94 0000 		call SD_Write8
 20090 73ac 84E6      		ldi r24,lo8(100)
 20091 73ae 90E0      		ldi r25,hi8(100)
 20092 73b0 089F      		mul r16,r24
 20093 73b2 7001      		movw r14,r0
 20094 73b4 099F      		mul r16,r25
 20095 73b6 F00C      		add r15,r0
 20096 73b8 189F      		mul r17,r24
 20097 73ba F00C      		add r15,r0
 20098 73bc 1124      		clr r1
 20099 73be 80E0      		ldi r24,lo8(respirationBuffer)
 20100 73c0 90E0      		ldi r25,hi8(respirationBuffer)
 20101 73c2 E80E      		add r14,r24
 20102 73c4 F91E      		adc r15,r25
 20103 73c6 C0E0      		ldi r28,lo8(0)
 20104 73c8 D0E0      		ldi r29,hi8(0)
 20105               	.LVL1513:
 20106               	.L1081:
 20107               	.LBB828:
 20108               	.LM2052:
 20109 73ca F701      		movw r30,r14
 20110 73cc 8191      		ld r24,Z+
 20111 73ce 9191      		ld r25,Z+
 20112 73d0 7F01      		movw r14,r30
 20113 73d2 0E94 0000 		call SD_Write16
 20114               	.LM2053:
 20115 73d6 2196      		adiw r28,1
 20116 73d8 C233      		cpi r28,50
 20117 73da D105      		cpc r29,__zero_reg__
 20118 73dc 01F4      		brne .L1081
 20119               	.LBE828:
 20120               	.LM2054:
 20121 73de 0E94 0000 		call SD_WriteCRC
 20122               	.LM2055:
 20123 73e2 80E0      		ldi r24,lo8(Log_File)
 20124 73e4 90E0      		ldi r25,hi8(Log_File)
 20125 73e6 0E94 0000 		call f_sync
 20126 73ea 8823      		tst r24
 20127 73ec 01F0      		breq .L1083
 20128               	.LM2056:
 20129 73ee 1092 0000 		sts sdValid,__zero_reg__
 20130               	.L1083:
 20131               	/* epilogue start */
 20132               	.LM2057:
 20133 73f2 DF91      		pop r29
 20134 73f4 CF91      		pop r28
 20135               	.LVL1514:
 20136 73f6 1F91      		pop r17
 20137 73f8 0F91      		pop r16
 20138 73fa FF90      		pop r15
 20139 73fc EF90      		pop r14
 20140 73fe 0895      		ret
 20141               	.LFE155:
 20143               		.data
 20144               	.LC10:
 20145 0061 4875 6D69 		.string	"Humidity"
 20145      6469 7479 
 20145      00
 20146               		.text
 20147               	.global	SD_WriteHumidityBuffer
 20149               	SD_WriteHumidityBuffer:
 20150               	.LFB154:
 20151               	.LM2058:
 20152               	.LVL1515:
 20153 7400 0F93      		push r16
 20154 7402 1F93      		push r17
 20155 7404 CF93      		push r28
 20156 7406 DF93      		push r29
 20157               	/* prologue: function */
 20158               	/* frame size = 0 */
 20159 7408 082F      		mov r16,r24
 20160               	.LBB829:
 20161               	.LBB830:
 20162               	.LM2059:
 20163 740a 8FEF      		ldi r24,lo8(-1)
 20164 740c 9FEF      		ldi r25,hi8(-1)
 20165 740e AFEF      		ldi r26,hlo8(-1)
 20166 7410 BFEF      		ldi r27,hhi8(-1)
 20167               	.LVL1516:
 20168 7412 8093 0000 		sts CRC,r24
 20169 7416 9093 0000 		sts (CRC)+1,r25
 20170 741a A093 0000 		sts (CRC)+2,r26
 20171 741e B093 0000 		sts (CRC)+3,r27
 20172               	.LBE830:
 20173               	.LBE829:
 20174               	.LM2060:
 20175 7422 6CE4      		ldi r22,lo8(-1327598516)
 20176 7424 74E7      		ldi r23,hi8(-1327598516)
 20177 7426 8EED      		ldi r24,hlo8(-1327598516)
 20178 7428 90EB      		ldi r25,hhi8(-1327598516)
 20179 742a 0E94 0000 		call SD_Write32
 20180               	.LM2061:
 20181 742e 6BE3      		ldi r22,lo8(59)
 20182 7430 70E0      		ldi r23,hi8(59)
 20183 7432 80E0      		ldi r24,hlo8(59)
 20184 7434 90E0      		ldi r25,hhi8(59)
 20185 7436 0E94 0000 		call SD_Write32
 20186               	.LM2062:
 20187 743a 83E0      		ldi r24,lo8(3)
 20188 743c 90E0      		ldi r25,hi8(3)
 20189 743e 0E94 0000 		call SD_Write16
 20190               	.LM2063:
 20191 7442 10E0      		ldi r17,lo8(0)
 20192 7444 F801      		movw r30,r16
 20193               	.LVL1517:
 20194 7446 EE0F      		lsl r30
 20195 7448 FF1F      		rol r31
 20196 744a EE0F      		lsl r30
 20197 744c FF1F      		rol r31
 20198 744e E050      		subi r30,lo8(-(humiditySampleStartTime))
 20199 7450 F040      		sbci r31,hi8(-(humiditySampleStartTime))
 20200 7452 6081      		ld r22,Z
 20201 7454 7181      		ldd r23,Z+1
 20202 7456 8281      		ldd r24,Z+2
 20203 7458 9381      		ldd r25,Z+3
 20204 745a 0E94 0000 		call SD_Write32
 20205               	.LM2064:
 20206 745e 60E0      		ldi r22,lo8(1843200)
 20207 7460 70E2      		ldi r23,hi8(1843200)
 20208 7462 8CE1      		ldi r24,hlo8(1843200)
 20209 7464 90E0      		ldi r25,hhi8(1843200)
 20210 7466 0E94 0000 		call SD_Write32
 20211               	.LM2065:
 20212 746a 6AE0      		ldi r22,lo8(10)
 20213 746c 70E0      		ldi r23,hi8(10)
 20214 746e 80E0      		ldi r24,hlo8(10)
 20215 7470 90E0      		ldi r25,hhi8(10)
 20216 7472 0E94 0000 		call SD_Write32
 20217               	.LM2066:
 20218 7476 80E0      		ldi r24,lo8(.LC10)
 20219 7478 90E0      		ldi r25,hi8(.LC10)
 20220 747a 0E94 0000 		call SD_WriteString
 20221               	.LM2067:
 20222 747e 89E0      		ldi r24,lo8(9)
 20223 7480 0E94 0000 		call SD_Write8
 20224               	.LM2068:
 20225 7484 80E0      		ldi r24,lo8(.LC5)
 20226 7486 90E0      		ldi r25,hi8(.LC5)
 20227 7488 0E94 0000 		call SD_WriteString
 20228               	.LM2069:
 20229 748c 8AE0      		ldi r24,lo8(10)
 20230 748e 0E94 0000 		call SD_Write8
 20231               	.LM2070:
 20232 7492 80E0      		ldi r24,lo8(0)
 20233 7494 0E94 0000 		call SD_Write8
 20234 7498 84E1      		ldi r24,lo8(20)
 20235 749a 90E0      		ldi r25,hi8(20)
 20236 749c 089F      		mul r16,r24
 20237 749e E001      		movw r28,r0
 20238 74a0 099F      		mul r16,r25
 20239 74a2 D00D      		add r29,r0
 20240 74a4 189F      		mul r17,r24
 20241 74a6 D00D      		add r29,r0
 20242 74a8 1124      		clr r1
 20243 74aa C050      		subi r28,lo8(-(humidityBuffer))
 20244 74ac D040      		sbci r29,hi8(-(humidityBuffer))
 20245 74ae 00E0      		ldi r16,lo8(0)
 20246               	.LVL1518:
 20247               	.L1086:
 20248               	.LBB831:
 20249               	.LM2071:
 20250 74b0 8991      		ld r24,Y+
 20251 74b2 9991      		ld r25,Y+
 20252 74b4 0E94 0000 		call SD_Write16
 20253               	.LM2072:
 20254 74b8 0F5F      		subi r16,lo8(-(1))
 20255 74ba 0A30      		cpi r16,lo8(10)
 20256 74bc 01F4      		brne .L1086
 20257               	.LBE831:
 20258               	.LM2073:
 20259 74be 0E94 0000 		call SD_WriteCRC
 20260               	.LM2074:
 20261 74c2 80E0      		ldi r24,lo8(Log_File)
 20262 74c4 90E0      		ldi r25,hi8(Log_File)
 20263 74c6 0E94 0000 		call f_sync
 20264 74ca 8823      		tst r24
 20265 74cc 01F0      		breq .L1088
 20266               	.LM2075:
 20267 74ce 1092 0000 		sts sdValid,__zero_reg__
 20268               	.L1088:
 20269               	/* epilogue start */
 20270               	.LM2076:
 20271 74d2 DF91      		pop r29
 20272 74d4 CF91      		pop r28
 20273 74d6 1F91      		pop r17
 20274 74d8 0F91      		pop r16
 20275               	.LVL1519:
 20276 74da 0895      		ret
 20277               	.LFE154:
 20279               		.data
 20280               	.LC11:
 20281 006a 5465 6D70 		.string	"Temperature"
 20281      6572 6174 
 20281      7572 6500 
 20282               		.text
 20283               	.global	SD_WriteTemperatureBuffer
 20285               	SD_WriteTemperatureBuffer:
 20286               	.LFB153:
 20287               	.LM2077:
 20288               	.LVL1520:
 20289 74dc 0F93      		push r16
 20290 74de 1F93      		push r17
 20291 74e0 CF93      		push r28
 20292 74e2 DF93      		push r29
 20293               	/* prologue: function */
 20294               	/* frame size = 0 */
 20295 74e4 082F      		mov r16,r24
 20296               	.LBB832:
 20297               	.LBB833:
 20298               	.LM2078:
 20299 74e6 8FEF      		ldi r24,lo8(-1)
 20300 74e8 9FEF      		ldi r25,hi8(-1)
 20301 74ea AFEF      		ldi r26,hlo8(-1)
 20302 74ec BFEF      		ldi r27,hhi8(-1)
 20303               	.LVL1521:
 20304 74ee 8093 0000 		sts CRC,r24
 20305 74f2 9093 0000 		sts (CRC)+1,r25
 20306 74f6 A093 0000 		sts (CRC)+2,r26
 20307 74fa B093 0000 		sts (CRC)+3,r27
 20308               	.LBE833:
 20309               	.LBE832:
 20310               	.LM2079:
 20311 74fe 6CE4      		ldi r22,lo8(-1327598516)
 20312 7500 74E7      		ldi r23,hi8(-1327598516)
 20313 7502 8EED      		ldi r24,hlo8(-1327598516)
 20314 7504 90EB      		ldi r25,hhi8(-1327598516)
 20315 7506 0E94 0000 		call SD_Write32
 20316               	.LM2080:
 20317 750a 6EE3      		ldi r22,lo8(62)
 20318 750c 70E0      		ldi r23,hi8(62)
 20319 750e 80E0      		ldi r24,hlo8(62)
 20320 7510 90E0      		ldi r25,hhi8(62)
 20321 7512 0E94 0000 		call SD_Write32
 20322               	.LM2081:
 20323 7516 83E0      		ldi r24,lo8(3)
 20324 7518 90E0      		ldi r25,hi8(3)
 20325 751a 0E94 0000 		call SD_Write16
 20326               	.LM2082:
 20327 751e 10E0      		ldi r17,lo8(0)
 20328 7520 F801      		movw r30,r16
 20329               	.LVL1522:
 20330 7522 EE0F      		lsl r30
 20331 7524 FF1F      		rol r31
 20332 7526 EE0F      		lsl r30
 20333 7528 FF1F      		rol r31
 20334 752a E050      		subi r30,lo8(-(temperatureSampleStartTime))
 20335 752c F040      		sbci r31,hi8(-(temperatureSampleStartTime))
 20336 752e 6081      		ld r22,Z
 20337 7530 7181      		ldd r23,Z+1
 20338 7532 8281      		ldd r24,Z+2
 20339 7534 9381      		ldd r25,Z+3
 20340 7536 0E94 0000 		call SD_Write32
 20341               	.LM2083:
 20342 753a 60E0      		ldi r22,lo8(1843200)
 20343 753c 70E2      		ldi r23,hi8(1843200)
 20344 753e 8CE1      		ldi r24,hlo8(1843200)
 20345 7540 90E0      		ldi r25,hhi8(1843200)
 20346 7542 0E94 0000 		call SD_Write32
 20347               	.LM2084:
 20348 7546 6AE0      		ldi r22,lo8(10)
 20349 7548 70E0      		ldi r23,hi8(10)
 20350 754a 80E0      		ldi r24,hlo8(10)
 20351 754c 90E0      		ldi r25,hhi8(10)
 20352 754e 0E94 0000 		call SD_Write32
 20353               	.LM2085:
 20354 7552 80E0      		ldi r24,lo8(.LC11)
 20355 7554 90E0      		ldi r25,hi8(.LC11)
 20356 7556 0E94 0000 		call SD_WriteString
 20357               	.LM2086:
 20358 755a 89E0      		ldi r24,lo8(9)
 20359 755c 0E94 0000 		call SD_Write8
 20360               	.LM2087:
 20361 7560 80E0      		ldi r24,lo8(.LC5)
 20362 7562 90E0      		ldi r25,hi8(.LC5)
 20363 7564 0E94 0000 		call SD_WriteString
 20364               	.LM2088:
 20365 7568 8AE0      		ldi r24,lo8(10)
 20366 756a 0E94 0000 		call SD_Write8
 20367               	.LM2089:
 20368 756e 80E0      		ldi r24,lo8(0)
 20369 7570 0E94 0000 		call SD_Write8
 20370 7574 84E1      		ldi r24,lo8(20)
 20371 7576 90E0      		ldi r25,hi8(20)
 20372 7578 089F      		mul r16,r24
 20373 757a E001      		movw r28,r0
 20374 757c 099F      		mul r16,r25
 20375 757e D00D      		add r29,r0
 20376 7580 189F      		mul r17,r24
 20377 7582 D00D      		add r29,r0
 20378 7584 1124      		clr r1
 20379 7586 C050      		subi r28,lo8(-(temperatureBuffer))
 20380 7588 D040      		sbci r29,hi8(-(temperatureBuffer))
 20381 758a 00E0      		ldi r16,lo8(0)
 20382               	.LVL1523:
 20383               	.L1091:
 20384               	.LBB834:
 20385               	.LM2090:
 20386 758c 8991      		ld r24,Y+
 20387 758e 9991      		ld r25,Y+
 20388 7590 0E94 0000 		call SD_Write16
 20389               	.LM2091:
 20390 7594 0F5F      		subi r16,lo8(-(1))
 20391 7596 0A30      		cpi r16,lo8(10)
 20392 7598 01F4      		brne .L1091
 20393               	.LBE834:
 20394               	.LM2092:
 20395 759a 0E94 0000 		call SD_WriteCRC
 20396               	.LM2093:
 20397 759e 80E0      		ldi r24,lo8(Log_File)
 20398 75a0 90E0      		ldi r25,hi8(Log_File)
 20399 75a2 0E94 0000 		call f_sync
 20400 75a6 8823      		tst r24
 20401 75a8 01F0      		breq .L1093
 20402               	.LM2094:
 20403 75aa 1092 0000 		sts sdValid,__zero_reg__
 20404               	.L1093:
 20405               	/* epilogue start */
 20406               	.LM2095:
 20407 75ae DF91      		pop r29
 20408 75b0 CF91      		pop r28
 20409 75b2 1F91      		pop r17
 20410 75b4 0F91      		pop r16
 20411               	.LVL1524:
 20412 75b6 0895      		ret
 20413               	.LFE153:
 20415               	.global	Debug_SendString
 20417               	Debug_SendString:
 20418               	.LFB13:
 20419               	.LM2096:
 20420               	.LVL1525:
 20421 75b8 EF92      		push r14
 20422 75ba FF92      		push r15
 20423 75bc 0F93      		push r16
 20424 75be 1F93      		push r17
 20425 75c0 CF93      		push r28
 20426 75c2 DF93      		push r29
 20427               	/* prologue: function */
 20428               	/* frame size = 0 */
 20429 75c4 8C01      		movw r16,r24
 20430 75c6 E62E      		mov r14,r22
 20431               	.LM2097:
 20432 75c8 FF24      		clr r15
 20433               	.LVL1526:
 20434 75ca 00C0      		rjmp .L1096
 20435               	.LVL1527:
 20436               	.L1098:
 20437               	.LBB835:
 20438               	.LM2098:
 20439 75cc C00F      		add r28,r16
 20440 75ce D11F      		adc r29,r17
 20441 75d0 8881      		ld r24,Y
 20442 75d2 0E94 0000 		call Debug_SendByte
 20443 75d6 8823      		tst r24
 20444 75d8 01F0      		breq .L1097
 20445               	.LM2099:
 20446 75da F394      		inc r15
 20447               	.LVL1528:
 20448               	.L1096:
 20449 75dc CF2D      		mov r28,r15
 20450 75de D0E0      		ldi r29,lo8(0)
 20451 75e0 F801      		movw r30,r16
 20452 75e2 0190      		ld __tmp_reg__,Z+
 20453 75e4 0020      		tst __tmp_reg__
 20454 75e6 01F4      		brne .-6
 20455 75e8 3197      		sbiw r30,1
 20456 75ea E01B      		sub r30,r16
 20457 75ec F10B      		sbc r31,r17
 20458 75ee CE17      		cp r28,r30
 20459 75f0 DF07      		cpc r29,r31
 20460 75f2 00F0      		brlo .L1098
 20461               	.LBE835:
 20462               	.LM2100:
 20463 75f4 EE20      		tst r14
 20464 75f6 01F0      		breq .L1103
 20465               	.L1099:
 20466               	.LM2101:
 20467 75f8 8DE0      		ldi r24,lo8(13)
 20468 75fa 0E94 0000 		call Debug_SendByte
 20469 75fe 8823      		tst r24
 20470 7600 01F0      		breq .L1097
 20471               	.LM2102:
 20472 7602 8AE0      		ldi r24,lo8(10)
 20473 7604 0E94 0000 		call Debug_SendByte
 20474 7608 8823      		tst r24
 20475 760a 01F0      		breq .L1100
 20476               	.LVL1529:
 20477               	.L1103:
 20478 760c 81E0      		ldi r24,lo8(1)
 20479 760e 00C0      		rjmp .L1100
 20480               	.LVL1530:
 20481               	.L1097:
 20482 7610 80E0      		ldi r24,lo8(0)
 20483               	.LVL1531:
 20484               	.L1100:
 20485               	/* epilogue start */
 20486               	.LM2103:
 20487 7612 DF91      		pop r29
 20488 7614 CF91      		pop r28
 20489 7616 1F91      		pop r17
 20490 7618 0F91      		pop r16
 20491               	.LVL1532:
 20492 761a FF90      		pop r15
 20493               	.LVL1533:
 20494 761c EF90      		pop r14
 20495               	.LVL1534:
 20496 761e 0895      		ret
 20497               	.LFE13:
 20499               		.data
 20500               	.LC12:
 20501 0076 4253 00   		.string	"BS"
 20502               	.LC13:
 20503 0079 4254 00   		.string	"BT"
 20504               		.text
 20505               	.global	Uploader_connectToComputer
 20507               	Uploader_connectToComputer:
 20508               	.LFB125:
 20509               	.LM2104:
 20510 7620 DF92      		push r13
 20511 7622 EF92      		push r14
 20512 7624 FF92      		push r15
 20513 7626 0F93      		push r16
 20514 7628 1F93      		push r17
 20515 762a CF93      		push r28
 20516 762c DF93      		push r29
 20517               	/* prologue: function */
 20518               	/* frame size = 0 */
 20519               	.LM2105:
 20520 762e 1092 0000 		sts connected,__zero_reg__
 20521               	.LM2106:
 20522 7632 0E94 0000 		call Debug_ClearBuffer
 20523               	.LBB836:
 20524               	.LBB837:
 20525               	.LBB838:
 20526               	.LBB839:
 20527               	.LM2107:
 20528 7636 E12C      		mov r14,__zero_reg__
 20529 7638 78E4      		ldi r23,hi8(18432)
 20530 763a F72E      		mov r15,r23
 20531               	.LBE839:
 20532               	.LBE838:
 20533               	.LBE837:
 20534               	.LBE836:
 20535               	.LBB843:
 20536               	.LBB844:
 20537               	.LBB845:
 20538               	.LBB846:
 20539 763c 06E6      		ldi r16,lo8(3686)
 20540 763e 1EE0      		ldi r17,hi8(3686)
 20541               	.LBE846:
 20542               	.LBE845:
 20543               	.LBE844:
 20544               	.LBE843:
 20545               	.LM2108:
 20546 7640 DD24      		clr r13
 20547 7642 D394      		inc r13
 20548 7644 00C0      		rjmp .L1113
 20549               	.LVL1535:
 20550               	.L1109:
 20551               	.LM2109:
 20552 7646 80E0      		ldi r24,lo8(.LC12)
 20553 7648 90E0      		ldi r25,hi8(.LC12)
 20554 764a 60E0      		ldi r22,lo8(0)
 20555 764c 0E94 0000 		call Debug_SendString
 20556 7650 8823      		tst r24
 20557 7652 01F0      		breq .L1106
 20558 7654 CEEE      		ldi r28,lo8(750)
 20559 7656 D2E0      		ldi r29,hi8(750)
 20560               	.LVL1536:
 20561               	.L1108:
 20562               	.LM2110:
 20563 7658 0E94 0000 		call Debug_CharReadyToRead
 20564               	.LVL1537:
 20565 765c 8823      		tst r24
 20566 765e 01F0      		breq .L1107
 20567               	.LM2111:
 20568 7660 80E0      		ldi r24,lo8(0)
 20569 7662 0E94 0000 		call Debug_GetByte
 20570               	.LM2112:
 20571 7666 8234      		cpi r24,lo8(66)
 20572 7668 01F4      		brne .L1107
 20573               	.LBB850:
 20574               	.LBB842:
 20575               	.LBB841:
 20576               	.LBB840:
 20577               	.LM2113:
 20578 766a C701      		movw r24,r14
 20579               	.LVL1538:
 20580               	/* #APP */
 20581               	 ;  105 "/usr/local/CrossPack-AVR-20100115/lib/gcc/avr/4.3.3/../../../../avr/include/util/delay_bas
 20582 766c 0197      		1: sbiw r24,1
 20583 766e 01F4      		brne 1b
 20584               	 ;  0 "" 2
 20585               	/* #NOAPP */
 20586               	.LBE840:
 20587               	.LBE841:
 20588               	.LBE842:
 20589               	.LBE850:
 20590               	.LM2114:
 20591 7670 80E0      		ldi r24,lo8(0)
 20592               	.LVL1539:
 20593 7672 0E94 0000 		call Debug_GetByte
 20594               	.LM2115:
 20595 7676 8435      		cpi r24,lo8(84)
 20596 7678 01F4      		brne .L1107
 20597               	.LM2116:
 20598 767a 80E0      		ldi r24,lo8(.LC13)
 20599 767c 90E0      		ldi r25,hi8(.LC13)
 20600 767e 60E0      		ldi r22,lo8(0)
 20601 7680 0E94 0000 		call Debug_SendString
 20602 7684 8823      		tst r24
 20603 7686 01F0      		breq .L1106
 20604               	.LM2117:
 20605 7688 D092 0000 		sts connected,r13
 20606               	.LM2118:
 20607 768c 1092 0000 		sts timeOutCounter,__zero_reg__
 20608 7690 1092 0000 		sts (timeOutCounter)+1,__zero_reg__
 20609               	.LM2119:
 20610 7694 0E94 0000 		call Debug_ClearBuffer
 20611 7698 00C0      		rjmp .L1113
 20612               	.L1107:
 20613               	.LBB851:
 20614               	.LBB849:
 20615               	.LBB848:
 20616               	.LBB847:
 20617               	.LM2120:
 20618 769a C801      		movw r24,r16
 20619               	.LVL1540:
 20620               	/* #APP */
 20621               	 ;  105 "/usr/local/CrossPack-AVR-20100115/lib/gcc/avr/4.3.3/../../../../avr/include/util/delay_bas
 20622 769c 0197      		1: sbiw r24,1
 20623 769e 01F4      		brne 1b
 20624               	 ;  0 "" 2
 20625               	/* #NOAPP */
 20626               	.LBE847:
 20627               	.LBE848:
 20628               	.LBE849:
 20629               	.LBE851:
 20630               	.LM2121:
 20631 76a0 2197      		sbiw r28,1
 20632               	.LM2122:
 20633 76a2 01F4      		brne .L1108
 20634               	.L1113:
 20635               	.LM2123:
 20636 76a4 8091 0000 		lds r24,connected
 20637               	.LVL1541:
 20638 76a8 8823      		tst r24
 20639 76aa 01F0      		breq .L1109
 20640 76ac 81E0      		ldi r24,lo8(1)
 20641 76ae 00C0      		rjmp .L1110
 20642               	.L1106:
 20643 76b0 80E0      		ldi r24,lo8(0)
 20644               	.L1110:
 20645               	/* epilogue start */
 20646               	.LM2124:
 20647 76b2 DF91      		pop r29
 20648 76b4 CF91      		pop r28
 20649               	.LVL1542:
 20650 76b6 1F91      		pop r17
 20651 76b8 0F91      		pop r16
 20652 76ba FF90      		pop r15
 20653 76bc EF90      		pop r14
 20654 76be DF90      		pop r13
 20655 76c0 0895      		ret
 20656               	.LFE125:
 20658               	.global	Uploader_sendPort
 20660               	Uploader_sendPort:
 20661               	.LFB136:
 20662               	.LM2125:
 20663 76c2 CF93      		push r28
 20664 76c4 DF93      		push r29
 20665               	/* prologue: function */
 20666               	/* frame size = 0 */
 20667               	.LM2126:
 20668 76c6 8FE4      		ldi r24,lo8(79)
 20669 76c8 0E94 0000 		call Debug_SendByte
 20670 76cc 8823      		tst r24
 20671 76ce 01F0      		breq .L1115
 20672               	.LM2127:
 20673 76d0 E0E0      		ldi r30,lo8(port)
 20674 76d2 F0E0      		ldi r31,hi8(port)
 20675 76d4 0190      		ld __tmp_reg__,Z+
 20676 76d6 0020      		tst __tmp_reg__
 20677 76d8 01F4      		brne .-6
 20678 76da 3297      		sbiw r30,2
 20679 76dc 8081      		ld r24,Z
 20680 76de 8032      		cpi r24,lo8(32)
 20681 76e0 00F4      		brsh .L1116
 20682               	.LM2128:
 20683 76e2 1082      		st Z,__zero_reg__
 20684               	.L1116:
 20685               	.LM2129:
 20686 76e4 C0E0      		ldi r28,lo8(port)
 20687 76e6 D0E0      		ldi r29,hi8(port)
 20688 76e8 FE01      		movw r30,r28
 20689 76ea 0190      		ld __tmp_reg__,Z+
 20690 76ec 0020      		tst __tmp_reg__
 20691 76ee 01F4      		brne .-6
 20692 76f0 3197      		sbiw r30,1
 20693 76f2 EC1B      		sub r30,r28
 20694 76f4 FD0B      		sbc r31,r29
 20695 76f6 8E2F      		mov r24,r30
 20696 76f8 8E5F      		subi r24,lo8(-(2))
 20697 76fa 0E94 0000 		call Debug_SendByte
 20698 76fe 8823      		tst r24
 20699 7700 01F0      		breq .L1115
 20700               	.LM2130:
 20701 7702 CE01      		movw r24,r28
 20702 7704 61E0      		ldi r22,lo8(1)
 20703 7706 0E94 0000 		call Debug_SendString
 20704 770a 8823      		tst r24
 20705 770c 01F0      		breq .L1118
 20706 770e 81E0      		ldi r24,lo8(1)
 20707 7710 00C0      		rjmp .L1118
 20708               	.L1115:
 20709 7712 80E0      		ldi r24,lo8(0)
 20710               	.L1118:
 20711               	/* epilogue start */
 20712               	.LM2131:
 20713 7714 DF91      		pop r29
 20714 7716 CF91      		pop r28
 20715 7718 0895      		ret
 20716               	.LFE136:
 20718               	.global	Uploader_sendServer
 20720               	Uploader_sendServer:
 20721               	.LFB135:
 20722               	.LM2132:
 20723 771a CF93      		push r28
 20724 771c DF93      		push r29
 20725               	/* prologue: function */
 20726               	/* frame size = 0 */
 20727               	.LM2133:
 20728 771e 86E5      		ldi r24,lo8(86)
 20729 7720 0E94 0000 		call Debug_SendByte
 20730 7724 8823      		tst r24
 20731 7726 01F0      		breq .L1121
 20732               	.LM2134:
 20733 7728 E0E0      		ldi r30,lo8(server)
 20734 772a F0E0      		ldi r31,hi8(server)
 20735 772c 0190      		ld __tmp_reg__,Z+
 20736 772e 0020      		tst __tmp_reg__
 20737 7730 01F4      		brne .-6
 20738 7732 3297      		sbiw r30,2
 20739 7734 8081      		ld r24,Z
 20740 7736 8032      		cpi r24,lo8(32)
 20741 7738 00F4      		brsh .L1122
 20742               	.LM2135:
 20743 773a 1082      		st Z,__zero_reg__
 20744               	.L1122:
 20745               	.LM2136:
 20746 773c C0E0      		ldi r28,lo8(server)
 20747 773e D0E0      		ldi r29,hi8(server)
 20748 7740 FE01      		movw r30,r28
 20749 7742 0190      		ld __tmp_reg__,Z+
 20750 7744 0020      		tst __tmp_reg__
 20751 7746 01F4      		brne .-6
 20752 7748 3197      		sbiw r30,1
 20753 774a EC1B      		sub r30,r28
 20754 774c FD0B      		sbc r31,r29
 20755 774e 8E2F      		mov r24,r30
 20756 7750 8E5F      		subi r24,lo8(-(2))
 20757 7752 0E94 0000 		call Debug_SendByte
 20758 7756 8823      		tst r24
 20759 7758 01F0      		breq .L1121
 20760               	.LM2137:
 20761 775a CE01      		movw r24,r28
 20762 775c 61E0      		ldi r22,lo8(1)
 20763 775e 0E94 0000 		call Debug_SendString
 20764 7762 8823      		tst r24
 20765 7764 01F0      		breq .L1124
 20766 7766 81E0      		ldi r24,lo8(1)
 20767 7768 00C0      		rjmp .L1124
 20768               	.L1121:
 20769 776a 80E0      		ldi r24,lo8(0)
 20770               	.L1124:
 20771               	/* epilogue start */
 20772               	.LM2138:
 20773 776c DF91      		pop r29
 20774 776e CF91      		pop r28
 20775 7770 0895      		ret
 20776               	.LFE135:
 20778               	.global	Uploader_sendNickname
 20780               	Uploader_sendNickname:
 20781               	.LFB131:
 20782               	.LM2139:
 20783 7772 CF93      		push r28
 20784 7774 DF93      		push r29
 20785               	/* prologue: function */
 20786               	/* frame size = 0 */
 20787               	.LM2140:
 20788 7776 8EE4      		ldi r24,lo8(78)
 20789 7778 0E94 0000 		call Debug_SendByte
 20790 777c 8823      		tst r24
 20791 777e 01F0      		breq .L1127
 20792               	.LM2141:
 20793 7780 E0E0      		ldi r30,lo8(nickname)
 20794 7782 F0E0      		ldi r31,hi8(nickname)
 20795 7784 0190      		ld __tmp_reg__,Z+
 20796 7786 0020      		tst __tmp_reg__
 20797 7788 01F4      		brne .-6
 20798 778a 3297      		sbiw r30,2
 20799 778c 8081      		ld r24,Z
 20800 778e 8032      		cpi r24,lo8(32)
 20801 7790 00F4      		brsh .L1128
 20802               	.LM2142:
 20803 7792 1082      		st Z,__zero_reg__
 20804               	.L1128:
 20805               	.LM2143:
 20806 7794 C0E0      		ldi r28,lo8(nickname)
 20807 7796 D0E0      		ldi r29,hi8(nickname)
 20808 7798 FE01      		movw r30,r28
 20809 779a 0190      		ld __tmp_reg__,Z+
 20810 779c 0020      		tst __tmp_reg__
 20811 779e 01F4      		brne .-6
 20812 77a0 3197      		sbiw r30,1
 20813 77a2 EC1B      		sub r30,r28
 20814 77a4 FD0B      		sbc r31,r29
 20815 77a6 8E2F      		mov r24,r30
 20816 77a8 8E5F      		subi r24,lo8(-(2))
 20817 77aa 0E94 0000 		call Debug_SendByte
 20818 77ae 8823      		tst r24
 20819 77b0 01F0      		breq .L1127
 20820               	.LM2144:
 20821 77b2 CE01      		movw r24,r28
 20822 77b4 61E0      		ldi r22,lo8(1)
 20823 77b6 0E94 0000 		call Debug_SendString
 20824 77ba 8823      		tst r24
 20825 77bc 01F0      		breq .L1130
 20826 77be 81E0      		ldi r24,lo8(1)
 20827 77c0 00C0      		rjmp .L1130
 20828               	.L1127:
 20829 77c2 80E0      		ldi r24,lo8(0)
 20830               	.L1130:
 20831               	/* epilogue start */
 20832               	.LM2145:
 20833 77c4 DF91      		pop r29
 20834 77c6 CF91      		pop r28
 20835 77c8 0895      		ret
 20836               	.LFE131:
 20838               	.global	Uploader_sendUser
 20840               	Uploader_sendUser:
 20841               	.LFB130:
 20842               	.LM2146:
 20843 77ca CF93      		push r28
 20844 77cc DF93      		push r29
 20845               	/* prologue: function */
 20846               	/* frame size = 0 */
 20847               	.LM2147:
 20848 77ce 85E5      		ldi r24,lo8(85)
 20849 77d0 0E94 0000 		call Debug_SendByte
 20850 77d4 8823      		tst r24
 20851 77d6 01F0      		breq .L1133
 20852               	.LM2148:
 20853 77d8 E0E0      		ldi r30,lo8(user)
 20854 77da F0E0      		ldi r31,hi8(user)
 20855 77dc 0190      		ld __tmp_reg__,Z+
 20856 77de 0020      		tst __tmp_reg__
 20857 77e0 01F4      		brne .-6
 20858 77e2 3297      		sbiw r30,2
 20859 77e4 8081      		ld r24,Z
 20860 77e6 8032      		cpi r24,lo8(32)
 20861 77e8 00F4      		brsh .L1134
 20862               	.LM2149:
 20863 77ea 1082      		st Z,__zero_reg__
 20864               	.L1134:
 20865               	.LM2150:
 20866 77ec C0E0      		ldi r28,lo8(user)
 20867 77ee D0E0      		ldi r29,hi8(user)
 20868 77f0 FE01      		movw r30,r28
 20869 77f2 0190      		ld __tmp_reg__,Z+
 20870 77f4 0020      		tst __tmp_reg__
 20871 77f6 01F4      		brne .-6
 20872 77f8 3197      		sbiw r30,1
 20873 77fa EC1B      		sub r30,r28
 20874 77fc FD0B      		sbc r31,r29
 20875 77fe 8E2F      		mov r24,r30
 20876 7800 8E5F      		subi r24,lo8(-(2))
 20877 7802 0E94 0000 		call Debug_SendByte
 20878 7806 8823      		tst r24
 20879 7808 01F0      		breq .L1133
 20880               	.LM2151:
 20881 780a CE01      		movw r24,r28
 20882 780c 61E0      		ldi r22,lo8(1)
 20883 780e 0E94 0000 		call Debug_SendString
 20884 7812 8823      		tst r24
 20885 7814 01F0      		breq .L1136
 20886 7816 81E0      		ldi r24,lo8(1)
 20887 7818 00C0      		rjmp .L1136
 20888               	.L1133:
 20889 781a 80E0      		ldi r24,lo8(0)
 20890               	.L1136:
 20891               	/* epilogue start */
 20892               	.LM2152:
 20893 781c DF91      		pop r29
 20894 781e CF91      		pop r28
 20895 7820 0895      		ret
 20896               	.LFE130:
 20898               		.data
 20899               	.LC14:
 20900 007c 00        		.string	""
 20901               		.text
 20902               	.global	Uploader_sendKey
 20904               	Uploader_sendKey:
 20905               	.LFB129:
 20906               	.LM2153:
 20907 7822 CF93      		push r28
 20908 7824 DF93      		push r29
 20909               	/* prologue: function */
 20910               	/* frame size = 0 */
 20911               	.LM2154:
 20912 7826 8091 0000 		lds r24,phraseRead
 20913 782a 8823      		tst r24
 20914 782c 01F0      		breq .L1139
 20915               	.LM2155:
 20916 782e E0E0      		ldi r30,lo8(phrase)
 20917 7830 F0E0      		ldi r31,hi8(phrase)
 20918 7832 0190      		ld __tmp_reg__,Z+
 20919 7834 0020      		tst __tmp_reg__
 20920 7836 01F4      		brne .-6
 20921 7838 3297      		sbiw r30,2
 20922 783a 8081      		ld r24,Z
 20923 783c 8032      		cpi r24,lo8(32)
 20924 783e 00F4      		brsh .L1140
 20925               	.LM2156:
 20926 7840 1082      		st Z,__zero_reg__
 20927               	.L1140:
 20928               	.LM2157:
 20929 7842 8BE4      		ldi r24,lo8(75)
 20930 7844 0E94 0000 		call Debug_SendByte
 20931 7848 8823      		tst r24
 20932 784a 01F0      		breq .L1141
 20933               	.LM2158:
 20934 784c C0E0      		ldi r28,lo8(phrase)
 20935 784e D0E0      		ldi r29,hi8(phrase)
 20936 7850 00C0      		rjmp .L1154
 20937               	.L1139:
 20938               	.LM2159:
 20939 7852 8091 0000 		lds r24,keyRead
 20940 7856 8823      		tst r24
 20941 7858 01F0      		breq .L1144
 20942               	.LM2160:
 20943 785a E0E0      		ldi r30,lo8(key)
 20944 785c F0E0      		ldi r31,hi8(key)
 20945 785e 0190      		ld __tmp_reg__,Z+
 20946 7860 0020      		tst __tmp_reg__
 20947 7862 01F4      		brne .-6
 20948 7864 3297      		sbiw r30,2
 20949 7866 8081      		ld r24,Z
 20950 7868 8032      		cpi r24,lo8(32)
 20951 786a 00F4      		brsh .L1145
 20952               	.LM2161:
 20953 786c 1082      		st Z,__zero_reg__
 20954               	.L1145:
 20955               	.LM2162:
 20956 786e 8BE4      		ldi r24,lo8(75)
 20957 7870 0E94 0000 		call Debug_SendByte
 20958 7874 8823      		tst r24
 20959 7876 01F0      		breq .L1141
 20960               	.LM2163:
 20961 7878 C0E0      		ldi r28,lo8(key)
 20962 787a D0E0      		ldi r29,hi8(key)
 20963               	.L1154:
 20964 787c FE01      		movw r30,r28
 20965 787e 0190      		ld __tmp_reg__,Z+
 20966 7880 0020      		tst __tmp_reg__
 20967 7882 01F4      		brne .-6
 20968 7884 3197      		sbiw r30,1
 20969 7886 EC1B      		sub r30,r28
 20970 7888 FD0B      		sbc r31,r29
 20971 788a 8E2F      		mov r24,r30
 20972 788c 8E5F      		subi r24,lo8(-(2))
 20973 788e 0E94 0000 		call Debug_SendByte
 20974 7892 8823      		tst r24
 20975 7894 01F0      		breq .L1141
 20976               	.LM2164:
 20977 7896 CE01      		movw r24,r28
 20978 7898 00C0      		rjmp .L1151
 20979               	.L1144:
 20980               	.LM2165:
 20981 789a 8BE4      		ldi r24,lo8(75)
 20982 789c 0E94 0000 		call Debug_SendByte
 20983 78a0 8823      		tst r24
 20984 78a2 01F0      		breq .L1141
 20985               	.LM2166:
 20986 78a4 80E0      		ldi r24,lo8(0)
 20987 78a6 0E94 0000 		call Debug_SendByte
 20988 78aa 8823      		tst r24
 20989 78ac 01F0      		breq .L1141
 20990               	.LM2167:
 20991 78ae 80E0      		ldi r24,lo8(.LC14)
 20992 78b0 90E0      		ldi r25,hi8(.LC14)
 20993               	.L1151:
 20994 78b2 61E0      		ldi r22,lo8(1)
 20995 78b4 0E94 0000 		call Debug_SendString
 20996 78b8 8823      		tst r24
 20997 78ba 01F0      		breq .L1143
 20998 78bc 81E0      		ldi r24,lo8(1)
 20999 78be 00C0      		rjmp .L1143
 21000               	.L1141:
 21001 78c0 80E0      		ldi r24,lo8(0)
 21002               	.L1143:
 21003               	/* epilogue start */
 21004               	.LM2168:
 21005 78c2 DF91      		pop r29
 21006 78c4 CF91      		pop r28
 21007 78c6 0895      		ret
 21008               	.LFE129:
 21010               	.global	Uploader_sendAuthType
 21012               	Uploader_sendAuthType:
 21013               	.LFB128:
 21014               	.LM2169:
 21015 78c8 CF93      		push r28
 21016 78ca DF93      		push r29
 21017               	/* prologue: function */
 21018               	/* frame size = 0 */
 21019               	.LM2170:
 21020 78cc 8091 0000 		lds r24,authRead
 21021 78d0 8823      		tst r24
 21022 78d2 01F0      		breq .L1156
 21023               	.LM2171:
 21024 78d4 E0E0      		ldi r30,lo8(auth)
 21025 78d6 F0E0      		ldi r31,hi8(auth)
 21026 78d8 0190      		ld __tmp_reg__,Z+
 21027 78da 0020      		tst __tmp_reg__
 21028 78dc 01F4      		brne .-6
 21029 78de 3297      		sbiw r30,2
 21030 78e0 8081      		ld r24,Z
 21031 78e2 8032      		cpi r24,lo8(32)
 21032 78e4 00F4      		brsh .L1157
 21033               	.LM2172:
 21034 78e6 1082      		st Z,__zero_reg__
 21035               	.L1157:
 21036               	.LM2173:
 21037 78e8 81E4      		ldi r24,lo8(65)
 21038 78ea 0E94 0000 		call Debug_SendByte
 21039 78ee 8823      		tst r24
 21040 78f0 01F0      		breq .L1158
 21041               	.LM2174:
 21042 78f2 C0E0      		ldi r28,lo8(auth)
 21043 78f4 D0E0      		ldi r29,hi8(auth)
 21044 78f6 FE01      		movw r30,r28
 21045 78f8 0190      		ld __tmp_reg__,Z+
 21046 78fa 0020      		tst __tmp_reg__
 21047 78fc 01F4      		brne .-6
 21048 78fe 3197      		sbiw r30,1
 21049 7900 EC1B      		sub r30,r28
 21050 7902 FD0B      		sbc r31,r29
 21051 7904 8E2F      		mov r24,r30
 21052 7906 8E5F      		subi r24,lo8(-(2))
 21053 7908 0E94 0000 		call Debug_SendByte
 21054 790c 8823      		tst r24
 21055 790e 01F0      		breq .L1158
 21056               	.LM2175:
 21057 7910 CE01      		movw r24,r28
 21058 7912 00C0      		rjmp .L1164
 21059               	.L1156:
 21060               	.LM2176:
 21061 7914 81E4      		ldi r24,lo8(65)
 21062 7916 0E94 0000 		call Debug_SendByte
 21063 791a 8823      		tst r24
 21064 791c 01F0      		breq .L1158
 21065               	.LM2177:
 21066 791e 80E0      		ldi r24,lo8(0)
 21067 7920 0E94 0000 		call Debug_SendByte
 21068 7924 8823      		tst r24
 21069 7926 01F0      		breq .L1158
 21070               	.LM2178:
 21071 7928 80E0      		ldi r24,lo8(.LC14)
 21072 792a 90E0      		ldi r25,hi8(.LC14)
 21073               	.L1164:
 21074 792c 61E0      		ldi r22,lo8(1)
 21075 792e 0E94 0000 		call Debug_SendString
 21076 7932 8823      		tst r24
 21077 7934 01F0      		breq .L1160
 21078 7936 81E0      		ldi r24,lo8(1)
 21079 7938 00C0      		rjmp .L1160
 21080               	.L1158:
 21081 793a 80E0      		ldi r24,lo8(0)
 21082               	.L1160:
 21083               	/* epilogue start */
 21084               	.LM2179:
 21085 793c DF91      		pop r29
 21086 793e CF91      		pop r28
 21087 7940 0895      		ret
 21088               	.LFE128:
 21090               	.global	Uploader_sendSSID
 21092               	Uploader_sendSSID:
 21093               	.LFB127:
 21094               	.LM2180:
 21095 7942 CF93      		push r28
 21096 7944 DF93      		push r29
 21097               	/* prologue: function */
 21098               	/* frame size = 0 */
 21099               	.LM2181:
 21100 7946 8091 0000 		lds r24,ssidRead
 21101 794a 8823      		tst r24
 21102 794c 01F0      		breq .L1166
 21103               	.LM2182:
 21104 794e E0E0      		ldi r30,lo8(ssid)
 21105 7950 F0E0      		ldi r31,hi8(ssid)
 21106 7952 0190      		ld __tmp_reg__,Z+
 21107 7954 0020      		tst __tmp_reg__
 21108 7956 01F4      		brne .-6
 21109 7958 3297      		sbiw r30,2
 21110 795a 8081      		ld r24,Z
 21111 795c 8032      		cpi r24,lo8(32)
 21112 795e 00F4      		brsh .L1167
 21113               	.LM2183:
 21114 7960 1082      		st Z,__zero_reg__
 21115               	.L1167:
 21116               	.LM2184:
 21117 7962 83E5      		ldi r24,lo8(83)
 21118 7964 0E94 0000 		call Debug_SendByte
 21119 7968 8823      		tst r24
 21120 796a 01F0      		breq .L1168
 21121               	.LM2185:
 21122 796c C0E0      		ldi r28,lo8(ssid)
 21123 796e D0E0      		ldi r29,hi8(ssid)
 21124 7970 FE01      		movw r30,r28
 21125 7972 0190      		ld __tmp_reg__,Z+
 21126 7974 0020      		tst __tmp_reg__
 21127 7976 01F4      		brne .-6
 21128 7978 3197      		sbiw r30,1
 21129 797a EC1B      		sub r30,r28
 21130 797c FD0B      		sbc r31,r29
 21131 797e 8E2F      		mov r24,r30
 21132 7980 8E5F      		subi r24,lo8(-(2))
 21133 7982 0E94 0000 		call Debug_SendByte
 21134 7986 8823      		tst r24
 21135 7988 01F0      		breq .L1168
 21136               	.LM2186:
 21137 798a CE01      		movw r24,r28
 21138 798c 00C0      		rjmp .L1174
 21139               	.L1166:
 21140               	.LM2187:
 21141 798e 83E5      		ldi r24,lo8(83)
 21142 7990 0E94 0000 		call Debug_SendByte
 21143 7994 8823      		tst r24
 21144 7996 01F0      		breq .L1168
 21145               	.LM2188:
 21146 7998 80E0      		ldi r24,lo8(0)
 21147 799a 0E94 0000 		call Debug_SendByte
 21148 799e 8823      		tst r24
 21149 79a0 01F0      		breq .L1168
 21150               	.LM2189:
 21151 79a2 80E0      		ldi r24,lo8(.LC14)
 21152 79a4 90E0      		ldi r25,hi8(.LC14)
 21153               	.L1174:
 21154 79a6 61E0      		ldi r22,lo8(1)
 21155 79a8 0E94 0000 		call Debug_SendString
 21156 79ac 8823      		tst r24
 21157 79ae 01F0      		breq .L1170
 21158 79b0 81E0      		ldi r24,lo8(1)
 21159 79b2 00C0      		rjmp .L1170
 21160               	.L1168:
 21161 79b4 80E0      		ldi r24,lo8(0)
 21162               	.L1170:
 21163               	/* epilogue start */
 21164               	.LM2190:
 21165 79b6 DF91      		pop r29
 21166 79b8 CF91      		pop r28
 21167 79ba 0895      		ret
 21168               	.LFE127:
 21170               		.data
 21171               	.LC15:
 21172 007d 2E42 5400 		.string	".BT"
 21173               		.text
 21174               	.global	Uploader_sendFilename
 21176               	Uploader_sendFilename:
 21177               	.LFB132:
 21178               	.LM2191:
 21179 79bc 1F93      		push r17
 21180               	/* prologue: function */
 21181               	/* frame size = 0 */
 21182               	.LM2192:
 21183 79be 86E4      		ldi r24,lo8(70)
 21184 79c0 0E94 0000 		call Debug_SendByte
 21185 79c4 8823      		tst r24
 21186 79c6 01F4      		brne .+2
 21187 79c8 00C0      		rjmp .L1176
 21188               	.LM2193:
 21189 79ca 81E0      		ldi r24,lo8(1)
 21190 79cc 8093 0000 		sts okToOpenDirectory,r24
 21191               	.L1177:
 21192               	.LM2194:
 21193 79d0 8091 0000 		lds r24,okToOpenDirectory
 21194 79d4 8823      		tst r24
 21195 79d6 01F4      		brne .L1177
 21196               	.LM2195:
 21197 79d8 11E0      		ldi r17,lo8(1)
 21198               	.L1189:
 21199 79da 1093 0000 		sts okToGrabNextFileName,r17
 21200               	.L1178:
 21201               	.LM2196:
 21202 79de 8091 0000 		lds r24,okToGrabNextFileName
 21203 79e2 8823      		tst r24
 21204 79e4 01F4      		brne .L1178
 21205               	.LM2197:
 21206 79e6 8091 0000 		lds r24,availableFileName
 21207 79ea 8823      		tst r24
 21208 79ec 01F4      		brne .L1179
 21209               	.LM2198:
 21210 79ee 80E0      		ldi r24,lo8(.LC14)
 21211 79f0 90E0      		ldi r25,hi8(.LC14)
 21212 79f2 61E0      		ldi r22,lo8(1)
 21213 79f4 0E94 0000 		call Debug_SendString
 21214 79f8 8823      		tst r24
 21215 79fa 01F0      		breq .L1181
 21216 79fc 81E0      		ldi r24,lo8(1)
 21217 79fe 00C0      		rjmp .L1181
 21218               	.L1179:
 21219               	.LM2199:
 21220 7a00 8091 0000 		lds r24,recording
 21221 7a04 8823      		tst r24
 21222 7a06 01F0      		breq .L1182
 21223               	.LM2200:
 21224 7a08 80E0      		ldi r24,lo8(currentLogFile)
 21225 7a0a 90E0      		ldi r25,hi8(currentLogFile)
 21226 7a0c 60E0      		ldi r22,lo8(availableFileName)
 21227 7a0e 70E0      		ldi r23,hi8(availableFileName)
 21228 7a10 0E94 0000 		call strcasecmp
 21229 7a14 892B      		or r24,r25
 21230 7a16 01F0      		breq .L1189
 21231               	.LM2201:
 21232 7a18 80E0      		ldi r24,lo8(availableFileName)
 21233 7a1a 90E0      		ldi r25,hi8(availableFileName)
 21234 7a1c 60E0      		ldi r22,lo8(.LC15)
 21235 7a1e 70E0      		ldi r23,hi8(.LC15)
 21236 7a20 0E94 0000 		call strcasestr
 21237 7a24 00C0      		rjmp .L1194
 21238               	.L1182:
 21239               	.LM2202:
 21240 7a26 80E0      		ldi r24,lo8(availableFileName)
 21241 7a28 90E0      		ldi r25,hi8(availableFileName)
 21242 7a2a 60E0      		ldi r22,lo8(.LC15)
 21243 7a2c 70E0      		ldi r23,hi8(.LC15)
 21244 7a2e 0E94 0000 		call strcasestr
 21245               	.L1194:
 21246 7a32 892B      		or r24,r25
 21247 7a34 01F0      		breq .L1189
 21248               	.LM2203:
 21249 7a36 80E0      		ldi r24,lo8(availableFileName)
 21250 7a38 90E0      		ldi r25,hi8(availableFileName)
 21251 7a3a 60E0      		ldi r22,lo8(0)
 21252 7a3c 0E94 0000 		call Debug_SendString
 21253 7a40 8823      		tst r24
 21254 7a42 01F0      		breq .L1176
 21255               	.LM2204:
 21256 7a44 8CE2      		ldi r24,lo8(44)
 21257 7a46 0E94 0000 		call Debug_SendByte
 21258 7a4a 8823      		tst r24
 21259 7a4c 01F4      		brne .L1189
 21260               	.L1176:
 21261 7a4e 80E0      		ldi r24,lo8(0)
 21262               	.L1181:
 21263               	/* epilogue start */
 21264               	.LM2205:
 21265 7a50 1F91      		pop r17
 21266 7a52 0895      		ret
 21267               	.LFE132:
 21269               	.global	Uploader_Update
 21271               	Uploader_Update:
 21272               	.LFB124:
 21273               	.LM2206:
 21274               	/* prologue: function */
 21275               	/* frame size = 0 */
 21276               	.LM2207:
 21277 7a54 0E94 0000 		call Debug_CharReadyToRead
 21278 7a58 8823      		tst r24
 21279 7a5a 01F4      		brne .+2
 21280 7a5c 00C0      		rjmp .L1196
 21281               	.LM2208:
 21282 7a5e 1092 0000 		sts timeOutCounter,__zero_reg__
 21283 7a62 1092 0000 		sts (timeOutCounter)+1,__zero_reg__
 21284               	.LM2209:
 21285 7a66 80E0      		ldi r24,lo8(0)
 21286 7a68 0E94 0000 		call Debug_GetByte
 21287 7a6c 8093 0000 		sts command,r24
 21288               	.LM2210:
 21289 7a70 8435      		cpi r24,lo8(84)
 21290 7a72 01F4      		brne .L1197
 21291               	.LM2211:
 21292 7a74 0E94 0000 		call Uploader_getTime
 21293 7a78 8823      		tst r24
 21294 7a7a 01F0      		breq .L1198
 21295               	.LBB852:
 21296               	.LBB853:
 21297               	.LM2212:
 21298 7a7c 8091 2104 		lds r24,1057
 21299 7a80 8061      		ori r24,lo8(16)
 21300 7a82 E0E2      		ldi r30,lo8(1056)
 21301 7a84 F4E0      		ldi r31,hi8(1056)
 21302 7a86 8183      		std Z+1,r24
 21303               	.L1199:
 21304               	.LM2213:
 21305 7a88 8091 2104 		lds r24,1057
 21306 7a8c 84FD      		sbrc r24,4
 21307 7a8e 00C0      		rjmp .L1199
 21308               	.LM2214:
 21309 7a90 8091 2404 		lds r24,1060
 21310 7a94 9091 2504 		lds r25,(1060)+1
 21311 7a98 A091 2604 		lds r26,(1060)+2
 21312 7a9c B091 2704 		lds r27,(1060)+3
 21313               	.LBE853:
 21314               	.LBE852:
 21315               	.LM2215:
 21316 7aa0 8093 0000 		sts UNIX_Time,r24
 21317 7aa4 9093 0000 		sts (UNIX_Time)+1,r25
 21318 7aa8 A093 0000 		sts (UNIX_Time)+2,r26
 21319 7aac B093 0000 		sts (UNIX_Time)+3,r27
 21320               	.LM2216:
 21321 7ab0 81E0      		ldi r24,lo8(1)
 21322 7ab2 8093 0000 		sts timeIsValid,r24
 21323 7ab6 00C0      		rjmp .L1196
 21324               	.L1198:
 21325               	.LM2217:
 21326 7ab8 1092 0000 		sts timeIsValid,__zero_reg__
 21327 7abc 00C0      		rjmp .L1202
 21328               	.L1197:
 21329               	.LM2218:
 21330 7abe 8335      		cpi r24,lo8(83)
 21331 7ac0 01F4      		brne .L1201
 21332               	.LM2219:
 21333 7ac2 0E94 0000 		call Uploader_sendSSID
 21334 7ac6 00C0      		rjmp .L1216
 21335               	.L1201:
 21336               	.LM2220:
 21337 7ac8 8134      		cpi r24,lo8(65)
 21338 7aca 01F4      		brne .L1203
 21339               	.LM2221:
 21340 7acc 0E94 0000 		call Uploader_sendAuthType
 21341 7ad0 00C0      		rjmp .L1216
 21342               	.L1203:
 21343               	.LM2222:
 21344 7ad2 8B34      		cpi r24,lo8(75)
 21345 7ad4 01F4      		brne .L1204
 21346               	.LM2223:
 21347 7ad6 0E94 0000 		call Uploader_sendKey
 21348 7ada 00C0      		rjmp .L1216
 21349               	.L1204:
 21350               	.LM2224:
 21351 7adc 8535      		cpi r24,lo8(85)
 21352 7ade 01F4      		brne .L1205
 21353               	.LM2225:
 21354 7ae0 0E94 0000 		call Uploader_sendUser
 21355 7ae4 00C0      		rjmp .L1216
 21356               	.L1205:
 21357               	.LM2226:
 21358 7ae6 8E34      		cpi r24,lo8(78)
 21359 7ae8 01F4      		brne .L1206
 21360               	.LM2227:
 21361 7aea 0E94 0000 		call Uploader_sendNickname
 21362 7aee 00C0      		rjmp .L1216
 21363               	.L1206:
 21364               	.LM2228:
 21365 7af0 8634      		cpi r24,lo8(70)
 21366 7af2 01F4      		brne .L1207
 21367               	.LM2229:
 21368 7af4 0E94 0000 		call Uploader_sendFilename
 21369 7af8 00C0      		rjmp .L1216
 21370               	.L1207:
 21371               	.LM2230:
 21372 7afa 8434      		cpi r24,lo8(68)
 21373 7afc 01F4      		brne .L1208
 21374               	.LM2231:
 21375 7afe 0E94 0000 		call Uploader_uploadFile
 21376 7b02 00C0      		rjmp .L1216
 21377               	.L1208:
 21378               	.LM2232:
 21379 7b04 8534      		cpi r24,lo8(69)
 21380 7b06 01F4      		brne .L1209
 21381               	.LM2233:
 21382 7b08 0E94 0000 		call Uploader_eraseFile
 21383 7b0c 00C0      		rjmp .L1216
 21384               	.L1209:
 21385               	.LM2234:
 21386 7b0e 8635      		cpi r24,lo8(86)
 21387 7b10 01F4      		brne .L1210
 21388               	.LM2235:
 21389 7b12 0E94 0000 		call Uploader_sendServer
 21390 7b16 00C0      		rjmp .L1216
 21391               	.L1210:
 21392               	.LM2236:
 21393 7b18 8F34      		cpi r24,lo8(79)
 21394 7b1a 01F4      		brne .L1211
 21395               	.LM2237:
 21396 7b1c 0E94 0000 		call Uploader_sendPort
 21397               	.L1216:
 21398 7b20 8823      		tst r24
 21399 7b22 01F4      		brne .L1196
 21400 7b24 00C0      		rjmp .L1202
 21401               	.L1211:
 21402               	.LM2238:
 21403 7b26 8235      		cpi r24,lo8(82)
 21404 7b28 01F4      		brne .L1196
 21405               	.LBB854:
 21406               	.LBB855:
 21407               	.LBB856:
 21408               	.LBB857:
 21409               	.LM2239:
 21410 7b2a 80E0      		ldi r24,lo8(18432)
 21411 7b2c 98E4      		ldi r25,hi8(18432)
 21412               	.LVL1543:
 21413               	/* #APP */
 21414               	 ;  105 "/usr/local/CrossPack-AVR-20100115/lib/gcc/avr/4.3.3/../../../../avr/include/util/delay_bas
 21415 7b2e 0197      		1: sbiw r24,1
 21416 7b30 01F4      		brne 1b
 21417               	 ;  0 "" 2
 21418               	/* #NOAPP */
 21419               	.LBE857:
 21420               	.LBE856:
 21421               	.LBE855:
 21422               	.LBE854:
 21423               	.LM2240:
 21424 7b32 82E5      		ldi r24,lo8(82)
 21425               	.LVL1544:
 21426 7b34 0E94 0000 		call Debug_SendByte
 21427 7b38 00C0      		rjmp .L1202
 21428               	.L1196:
 21429               	.LBB858:
 21430               	.LBB859:
 21431               	.LBB860:
 21432               	.LBB861:
 21433               	.LM2241:
 21434 7b3a 86E6      		ldi r24,lo8(3686)
 21435 7b3c 9EE0      		ldi r25,hi8(3686)
 21436               	.LVL1545:
 21437               	/* #APP */
 21438               	 ;  105 "/usr/local/CrossPack-AVR-20100115/lib/gcc/avr/4.3.3/../../../../avr/include/util/delay_bas
 21439 7b3e 0197      		1: sbiw r24,1
 21440 7b40 01F4      		brne 1b
 21441               	 ;  0 "" 2
 21442               	/* #NOAPP */
 21443               	.LBE861:
 21444               	.LBE860:
 21445               	.LBE859:
 21446               	.LBE858:
 21447               	.LM2242:
 21448 7b42 8091 0000 		lds r24,timeOutCounter
 21449 7b46 9091 0000 		lds r25,(timeOutCounter)+1
 21450               	.LVL1546:
 21451 7b4a 0196      		adiw r24,1
 21452 7b4c 8093 0000 		sts timeOutCounter,r24
 21453 7b50 9093 0000 		sts (timeOutCounter)+1,r25
 21454               	.LM2243:
 21455 7b54 8091 0000 		lds r24,timeOutCounter
 21456 7b58 9091 0000 		lds r25,(timeOutCounter)+1
 21457 7b5c 20E0      		ldi r18,lo8(0)
 21458 7b5e 8153      		subi r24,lo8(30001)
 21459 7b60 9547      		sbci r25,hi8(30001)
 21460 7b62 00F4      		brsh .L1200
 21461 7b64 21E0      		ldi r18,lo8(1)
 21462 7b66 00C0      		rjmp .L1200
 21463               	.L1202:
 21464 7b68 20E0      		ldi r18,lo8(0)
 21465               	.L1200:
 21466               	.LM2244:
 21467 7b6a 822F      		mov r24,r18
 21468               	/* epilogue start */
 21469 7b6c 0895      		ret
 21470               	.LFE124:
 21472               		.data
 21473               	.LC16:
 21474 0081 2E62 7400 		.string	".bt"
 21475               		.text
 21476               	.global	SD_MakeFileName
 21478               	SD_MakeFileName:
 21479               	.LFB98:
 21480               	.LM2245:
 21481               	.LVL1547:
 21482 7b6e 0F93      		push r16
 21483 7b70 1F93      		push r17
 21484               	/* prologue: function */
 21485               	/* frame size = 0 */
 21486               	.LM2246:
 21487 7b72 00E0      		ldi r16,lo8(fileName)
 21488 7b74 10E0      		ldi r17,hi8(fileName)
 21489 7b76 2FE2      		ldi r18,lo8(47)
 21490 7b78 2093 0000 		sts fileName,r18
 21491               	.LM2247:
 21492 7b7c A801      		movw r20,r16
 21493 7b7e 4F5F      		subi r20,lo8(-(1))
 21494 7b80 5F4F      		sbci r21,hi8(-(1))
 21495 7b82 20E1      		ldi r18,lo8(16)
 21496 7b84 30E0      		ldi r19,hi8(16)
 21497 7b86 0E94 0000 		call ltoa
 21498               	.LVL1548:
 21499               	.LM2248:
 21500 7b8a C801      		movw r24,r16
 21501 7b8c 60E0      		ldi r22,lo8(.LC16)
 21502 7b8e 70E0      		ldi r23,hi8(.LC16)
 21503 7b90 0E94 0000 		call strcat
 21504               	/* epilogue start */
 21505               	.LM2249:
 21506 7b94 1F91      		pop r17
 21507 7b96 0F91      		pop r16
 21508 7b98 0895      		ret
 21509               	.LFE98:
 21511               	.global	SD_Open
 21513               	SD_Open:
 21514               	.LFB88:
 21515               	.LM2250:
 21516               	.LVL1549:
 21517 7b9a CF93      		push r28
 21518 7b9c DF93      		push r29
 21519               	/* prologue: function */
 21520               	/* frame size = 0 */
 21521 7b9e EC01      		movw r28,r24
 21522               	.LM2251:
 21523 7ba0 80E0      		ldi r24,lo8(currentLogFile)
 21524 7ba2 90E0      		ldi r25,hi8(currentLogFile)
 21525               	.LVL1550:
 21526 7ba4 BE01      		movw r22,r28
 21527 7ba6 0E94 0000 		call strcpy
 21528               	.LM2252:
 21529 7baa 80E0      		ldi r24,lo8(currentLogFile)
 21530 7bac 90E0      		ldi r25,hi8(currentLogFile)
 21531 7bae 0E94 0000 		call strupr
 21532 7bb2 21E0      		ldi r18,lo8(1)
 21533               	.LVL1551:
 21534               	.LBB862:
 21535               	.LM2253:
 21536 7bb4 A0E0      		ldi r26,lo8(currentLogFile)
 21537 7bb6 B0E0      		ldi r27,hi8(currentLogFile)
 21538 7bb8 00C0      		rjmp .L1234
 21539               	.LVL1552:
 21540               	.L1235:
 21541               	.LM2254:
 21542 7bba FC01      		movw r30,r24
 21543 7bbc E050      		subi r30,lo8(-(currentLogFile))
 21544 7bbe F040      		sbci r31,hi8(-(currentLogFile))
 21545 7bc0 8081      		ld r24,Z
 21546               	.LVL1553:
 21547 7bc2 3197      		sbiw r30,1
 21548 7bc4 8083      		st Z,r24
 21549               	.LM2255:
 21550 7bc6 2F5F      		subi r18,lo8(-(1))
 21551               	.L1234:
 21552 7bc8 FD01      		movw r30,r26
 21553 7bca 0190      		ld __tmp_reg__,Z+
 21554 7bcc 0020      		tst __tmp_reg__
 21555 7bce 01F4      		brne .-6
 21556 7bd0 3197      		sbiw r30,1
 21557 7bd2 E050      		subi r30,lo8(currentLogFile)
 21558 7bd4 F040      		sbci r31,hi8(currentLogFile)
 21559 7bd6 822F      		mov r24,r18
 21560 7bd8 90E0      		ldi r25,lo8(0)
 21561 7bda 8E17      		cp r24,r30
 21562 7bdc 9F07      		cpc r25,r31
 21563 7bde 00F0      		brlo .L1235
 21564               	.LVL1554:
 21565               	.LBE862:
 21566               	.LM2256:
 21567 7be0 E050      		subi r30,lo8(-(currentLogFile-1))
 21568 7be2 F040      		sbci r31,hi8(-(currentLogFile-1))
 21569 7be4 1082      		st Z,__zero_reg__
 21570               	.LM2257:
 21571 7be6 80E0      		ldi r24,lo8(Log_File)
 21572 7be8 90E0      		ldi r25,hi8(Log_File)
 21573               	.LVL1555:
 21574 7bea BE01      		movw r22,r28
 21575 7bec 43E1      		ldi r20,lo8(19)
 21576 7bee 0E94 0000 		call f_open
 21577               	.LVL1556:
 21578               	/* epilogue start */
 21579               	.LM2258:
 21580 7bf2 DF91      		pop r29
 21581 7bf4 CF91      		pop r28
 21582               	.LVL1557:
 21583 7bf6 0895      		ret
 21584               	.LFE88:
 21586               		.data
 21587               	.LC17:
 21588 0085 6465 7669 		.string	"device_class"
 21588      6365 5F63 
 21588      6C61 7373 
 21588      00
 21589               	.LC18:
 21590 0092 4368 6573 		.string	"ChestStrap"
 21590      7453 7472 
 21590      6170 00
 21591               	.LC19:
 21592 009d 6465 7669 		.string	"device_id"
 21592      6365 5F69 
 21592      6400 
 21593               	.LC20:
 21594 00a7 6669 726D 		.string	"firmware_version"
 21594      7761 7265 
 21594      5F76 6572 
 21594      7369 6F6E 
 21594      00
 21595               	.LC21:
 21596 00b8 332E 3035 		.string	"3.05"
 21596      00
 21597               	.LC22:
 21598 00bd 6861 7264 		.string	"hardware_version"
 21598      7761 7265 
 21598      5F76 6572 
 21598      7369 6F6E 
 21598      00
 21599               	.LC23:
 21600 00ce 3300      		.string	"3"
 21601               	.LC24:
 21602 00d0 6368 616E 		.string	"channel_specs"
 21602      6E65 6C5F 
 21602      7370 6563 
 21602      7300 
 21603               	.LC25:
 21604 00de 7B22 5465 		.string	"{\"Temperature\":{\"units\": \"bits\", \"scale\": 1},"
 21604      6D70 6572 
 21604      6174 7572 
 21604      6522 3A7B 
 21604      2275 6E69 
 21605               	.LC26:
 21606 010c 2252 6573 		.string	"\"Respiration\":{\"units\": \"bits\", \"scale\": 1},"
 21606      7069 7261 
 21606      7469 6F6E 
 21606      223A 7B22 
 21606      756E 6974 
 21607               	.LC27:
 21608 0139 2245 4B47 		.string	"\"EKG\":{\"units\": \"bits\", \"scale\": -1},"
 21608      223A 7B22 
 21608      756E 6974 
 21608      7322 3A20 
 21608      2262 6974 
 21609               	.LC28:
 21610 015f 2248 756D 		.string	"\"Humidity\":{\"units\": \"%RH\", \"scale\": 0.1},"
 21610      6964 6974 
 21610      7922 3A7B 
 21610      2275 6E69 
 21610      7473 223A 
 21611               	.LC29:
 21612 018a 2241 6363 		.string	"\"Accel_X\":{\"units\": \"bits\", \"offset\": -1024, \"scale\": 0.004},"
 21612      656C 5F58 
 21612      223A 7B22 
 21612      756E 6974 
 21612      7322 3A20 
 21613               	.LC30:
 21614 01c8 2241 6363 		.string	"\"Accel_Y\":{\"units\": \"bits\", \"offset\": -1024, \"scale\": 0.004},"
 21614      656C 5F59 
 21614      223A 7B22 
 21614      756E 6974 
 21614      7322 3A20 
 21615               	.LC31:
 21616 0206 2241 6363 		.string	"\"Accel_Z\":{\"units\": \"bits\", \"offset\": -1024, \"scale\": 0.004}}"
 21616      656C 5F5A 
 21616      223A 7B22 
 21616      756E 6974 
 21616      7322 3A20 
 21617               		.text
 21618               	.global	SD_StartLogFile
 21620               	SD_StartLogFile:
 21621               	.LFB151:
 21622               	.LM2259:
 21623               	.LVL1558:
 21624 7bf8 FF92      		push r15
 21625 7bfa 0F93      		push r16
 21626 7bfc 1F93      		push r17
 21627 7bfe CF93      		push r28
 21628 7c00 DF93      		push r29
 21629               	/* prologue: function */
 21630               	/* frame size = 0 */
 21631               	.LM2260:
 21632 7c02 00E0      		ldi r16,lo8(deviceID)
 21633 7c04 10E0      		ldi r17,hi8(deviceID)
 21634 7c06 E801      		movw r28,r16
 21635 7c08 0990      		ld __tmp_reg__,Y+
 21636 7c0a 0020      		tst __tmp_reg__
 21637 7c0c 01F4      		brne .-6
 21638 7c0e 2197      		sbiw r28,1
 21639 7c10 C01B      		sub r28,r16
 21640 7c12 D10B      		sbc r29,r17
 21641               	.LM2261:
 21642 7c14 0E94 0000 		call SD_MakeFileName
 21643               	.LVL1559:
 21644               	.LM2262:
 21645 7c18 80E0      		ldi r24,lo8(fileName)
 21646 7c1a 90E0      		ldi r25,hi8(fileName)
 21647 7c1c 0E94 0000 		call SD_Open
 21648 7c20 F82E      		mov r15,r24
 21649               	.LVL1560:
 21650               	.LM2263:
 21651 7c22 8823      		tst r24
 21652 7c24 01F0      		breq .+2
 21653 7c26 00C0      		rjmp .L1241
 21654               	.LVL1561:
 21655               	.L1238:
 21656               	.LBB863:
 21657               	.LBB864:
 21658               	.LM2264:
 21659 7c28 8FEF      		ldi r24,lo8(-1)
 21660 7c2a 9FEF      		ldi r25,hi8(-1)
 21661 7c2c AFEF      		ldi r26,hlo8(-1)
 21662 7c2e BFEF      		ldi r27,hhi8(-1)
 21663               	.LVL1562:
 21664 7c30 8093 0000 		sts CRC,r24
 21665 7c34 9093 0000 		sts (CRC)+1,r25
 21666 7c38 A093 0000 		sts (CRC)+2,r26
 21667 7c3c B093 0000 		sts (CRC)+3,r27
 21668               	.LBE864:
 21669               	.LBE863:
 21670               	.LM2265:
 21671 7c40 6CE4      		ldi r22,lo8(-1327598516)
 21672 7c42 74E7      		ldi r23,hi8(-1327598516)
 21673 7c44 8EED      		ldi r24,hlo8(-1327598516)
 21674 7c46 90EB      		ldi r25,hhi8(-1327598516)
 21675 7c48 0E94 0000 		call SD_Write32
 21676               	.LM2266:
 21677 7c4c BE01      		movw r22,r28
 21678 7c4e 6A52      		subi r22,lo8(-(470))
 21679 7c50 7E4F      		sbci r23,hi8(-(470))
 21680 7c52 80E0      		ldi r24,lo8(0)
 21681 7c54 90E0      		ldi r25,hi8(0)
 21682 7c56 0E94 0000 		call SD_Write32
 21683               	.LM2267:
 21684 7c5a 81E0      		ldi r24,lo8(1)
 21685 7c5c 90E0      		ldi r25,hi8(1)
 21686 7c5e 0E94 0000 		call SD_Write16
 21687               	.LM2268:
 21688 7c62 80E0      		ldi r24,lo8(256)
 21689 7c64 91E0      		ldi r25,hi8(256)
 21690 7c66 0E94 0000 		call SD_Write16
 21691               	.LM2269:
 21692 7c6a 82E0      		ldi r24,lo8(2)
 21693 7c6c 0E94 0000 		call SD_Write8
 21694               	.LM2270:
 21695 7c70 0E94 0000 		call Time_Get32BitTimer
 21696 7c74 0E94 0000 		call SD_Write32
 21697               	.LM2271:
 21698 7c78 67E4      		ldi r22,lo8(542535)
 21699 7c7a 77E4      		ldi r23,hi8(542535)
 21700 7c7c 88E0      		ldi r24,hlo8(542535)
 21701 7c7e 90E0      		ldi r25,hhi8(542535)
 21702 7c80 0E94 0000 		call SD_Write32
 21703               	.LM2272:
 21704 7c84 80E0      		ldi r24,lo8(0)
 21705 7c86 90E0      		ldi r25,hi8(0)
 21706 7c88 0E94 0000 		call SD_Write16
 21707               	.LM2273:
 21708 7c8c 80E0      		ldi r24,lo8(.LC17)
 21709 7c8e 90E0      		ldi r25,hi8(.LC17)
 21710 7c90 0E94 0000 		call SD_WriteString
 21711               	.LM2274:
 21712 7c94 89E0      		ldi r24,lo8(9)
 21713 7c96 0E94 0000 		call SD_Write8
 21714               	.LM2275:
 21715 7c9a 80E0      		ldi r24,lo8(.LC18)
 21716 7c9c 90E0      		ldi r25,hi8(.LC18)
 21717 7c9e 0E94 0000 		call SD_WriteString
 21718               	.LM2276:
 21719 7ca2 8AE0      		ldi r24,lo8(10)
 21720 7ca4 0E94 0000 		call SD_Write8
 21721               	.LM2277:
 21722 7ca8 80E0      		ldi r24,lo8(.LC19)
 21723 7caa 90E0      		ldi r25,hi8(.LC19)
 21724 7cac 0E94 0000 		call SD_WriteString
 21725               	.LM2278:
 21726 7cb0 89E0      		ldi r24,lo8(9)
 21727 7cb2 0E94 0000 		call SD_Write8
 21728               	.LM2279:
 21729 7cb6 C801      		movw r24,r16
 21730 7cb8 0E94 0000 		call SD_WriteString
 21731               	.LM2280:
 21732 7cbc 8AE0      		ldi r24,lo8(10)
 21733 7cbe 0E94 0000 		call SD_Write8
 21734               	.LM2281:
 21735 7cc2 80E0      		ldi r24,lo8(.LC20)
 21736 7cc4 90E0      		ldi r25,hi8(.LC20)
 21737 7cc6 0E94 0000 		call SD_WriteString
 21738               	.LM2282:
 21739 7cca 89E0      		ldi r24,lo8(9)
 21740 7ccc 0E94 0000 		call SD_Write8
 21741               	.LM2283:
 21742 7cd0 80E0      		ldi r24,lo8(.LC21)
 21743 7cd2 90E0      		ldi r25,hi8(.LC21)
 21744 7cd4 0E94 0000 		call SD_WriteString
 21745               	.LM2284:
 21746 7cd8 8AE0      		ldi r24,lo8(10)
 21747 7cda 0E94 0000 		call SD_Write8
 21748               	.LM2285:
 21749 7cde 80E0      		ldi r24,lo8(.LC22)
 21750 7ce0 90E0      		ldi r25,hi8(.LC22)
 21751 7ce2 0E94 0000 		call SD_WriteString
 21752               	.LM2286:
 21753 7ce6 89E0      		ldi r24,lo8(9)
 21754 7ce8 0E94 0000 		call SD_Write8
 21755               	.LM2287:
 21756 7cec 80E0      		ldi r24,lo8(.LC23)
 21757 7cee 90E0      		ldi r25,hi8(.LC23)
 21758 7cf0 0E94 0000 		call SD_WriteString
 21759               	.LM2288:
 21760 7cf4 8AE0      		ldi r24,lo8(10)
 21761 7cf6 0E94 0000 		call SD_Write8
 21762               	.LM2289:
 21763 7cfa 80E0      		ldi r24,lo8(.LC24)
 21764 7cfc 90E0      		ldi r25,hi8(.LC24)
 21765 7cfe 0E94 0000 		call SD_WriteString
 21766               	.LM2290:
 21767 7d02 89E0      		ldi r24,lo8(9)
 21768 7d04 0E94 0000 		call SD_Write8
 21769               	.LM2291:
 21770 7d08 80E0      		ldi r24,lo8(.LC25)
 21771 7d0a 90E0      		ldi r25,hi8(.LC25)
 21772 7d0c 0E94 0000 		call SD_WriteString
 21773               	.LM2292:
 21774 7d10 80E0      		ldi r24,lo8(.LC26)
 21775 7d12 90E0      		ldi r25,hi8(.LC26)
 21776 7d14 0E94 0000 		call SD_WriteString
 21777               	.LM2293:
 21778 7d18 80E0      		ldi r24,lo8(.LC27)
 21779 7d1a 90E0      		ldi r25,hi8(.LC27)
 21780 7d1c 0E94 0000 		call SD_WriteString
 21781               	.LM2294:
 21782 7d20 80E0      		ldi r24,lo8(.LC28)
 21783 7d22 90E0      		ldi r25,hi8(.LC28)
 21784 7d24 0E94 0000 		call SD_WriteString
 21785               	.LM2295:
 21786 7d28 80E0      		ldi r24,lo8(.LC29)
 21787 7d2a 90E0      		ldi r25,hi8(.LC29)
 21788 7d2c 0E94 0000 		call SD_WriteString
 21789               	.LM2296:
 21790 7d30 80E0      		ldi r24,lo8(.LC30)
 21791 7d32 90E0      		ldi r25,hi8(.LC30)
 21792 7d34 0E94 0000 		call SD_WriteString
 21793               	.LM2297:
 21794 7d38 80E0      		ldi r24,lo8(.LC31)
 21795 7d3a 90E0      		ldi r25,hi8(.LC31)
 21796 7d3c 0E94 0000 		call SD_WriteString
 21797               	.LM2298:
 21798 7d40 8AE0      		ldi r24,lo8(10)
 21799 7d42 0E94 0000 		call SD_Write8
 21800               	.LM2299:
 21801 7d46 80E0      		ldi r24,lo8(0)
 21802 7d48 0E94 0000 		call SD_Write8
 21803               	.LM2300:
 21804 7d4c 0E94 0000 		call SD_WriteCRC
 21805               	.LM2301:
 21806 7d50 80E0      		ldi r24,lo8(Log_File)
 21807 7d52 90E0      		ldi r25,hi8(Log_File)
 21808 7d54 0E94 0000 		call f_sync
 21809 7d58 8823      		tst r24
 21810 7d5a 01F0      		breq .L1239
 21811               	.LVL1563:
 21812               	.L1241:
 21813               	.LM2302:
 21814 7d5c 1092 0000 		sts sdValid,__zero_reg__
 21815               	.L1239:
 21816               	.LM2303:
 21817 7d60 8F2D      		mov r24,r15
 21818               	/* epilogue start */
 21819 7d62 DF91      		pop r29
 21820 7d64 CF91      		pop r28
 21821 7d66 1F91      		pop r17
 21822 7d68 0F91      		pop r16
 21823 7d6a FF90      		pop r15
 21824               	.LVL1564:
 21825 7d6c 0895      		ret
 21826               	.LFE151:
 21828               		.data
 21829               	.LC32:
 21830 0244 2F00      		.string	"/"
 21831               		.text
 21832               	.global	__vector_53
 21834               	__vector_53:
 21835               	.LFB150:
 21836               	.LM2304:
 21837 7d6e 1F92      		push __zero_reg__
 21838 7d70 0F92      		push r0
 21839 7d72 0FB6      		in r0,__SREG__
 21840 7d74 0F92      		push r0
 21841 7d76 0BB6      		in r0,59-0
 21842 7d78 0F92      		push r0
 21843 7d7a 1124      		clr __zero_reg__
 21844 7d7c EF92      		push r14
 21845 7d7e FF92      		push r15
 21846 7d80 0F93      		push r16
 21847 7d82 1F93      		push r17
 21848 7d84 2F93      		push r18
 21849 7d86 3F93      		push r19
 21850 7d88 4F93      		push r20
 21851 7d8a 5F93      		push r21
 21852 7d8c 6F93      		push r22
 21853 7d8e 7F93      		push r23
 21854 7d90 8F93      		push r24
 21855 7d92 9F93      		push r25
 21856 7d94 AF93      		push r26
 21857 7d96 BF93      		push r27
 21858 7d98 EF93      		push r30
 21859 7d9a FF93      		push r31
 21860 7d9c DF93      		push r29
 21861 7d9e CF93      		push r28
 21862 7da0 0F92      		push __tmp_reg__
 21863 7da2 0F92      		push __tmp_reg__
 21864 7da4 CDB7      		in r28,__SP_L__
 21865 7da6 DEB7      		in r29,__SP_H__
 21866               	/* prologue: Signal */
 21867               	/* frame size = 2 */
 21868               	.LM2305:
 21869 7da8 8091 0000 		lds r24,recording
 21870 7dac 8823      		tst r24
 21871 7dae 01F4      		brne .+2
 21872 7db0 00C0      		rjmp .L1243
 21873               	.LBB865:
 21874               	.LM2306:
 21875 7db2 8091 0000 		lds r24,okToSendAccelBuffer
 21876 7db6 8823      		tst r24
 21877 7db8 01F0      		breq .L1244
 21878 7dba 8091 0000 		lds r24,lastAccelerometerBufferSent
 21879 7dbe 8823      		tst r24
 21880 7dc0 01F0      		breq .L1244
 21881               	.LM2307:
 21882 7dc2 80E0      		ldi r24,lo8(0)
 21883 7dc4 0E94 0000 		call SD_WriteAccelBuffer
 21884               	.LM2308:
 21885 7dc8 1092 0000 		sts lastAccelerometerBufferSent,__zero_reg__
 21886               	.LM2309:
 21887 7dcc 1092 0000 		sts okToSendAccelBuffer,__zero_reg__
 21888               	.L1244:
 21889               	.LM2310:
 21890 7dd0 8091 0000 		lds r24,okToSendAccelBuffer+1
 21891 7dd4 8823      		tst r24
 21892 7dd6 01F0      		breq .L1245
 21893 7dd8 8091 0000 		lds r24,lastAccelerometerBufferSent
 21894 7ddc 8130      		cpi r24,lo8(1)
 21895 7dde 01F0      		breq .L1245
 21896               	.LM2311:
 21897 7de0 81E0      		ldi r24,lo8(1)
 21898 7de2 0E94 0000 		call SD_WriteAccelBuffer
 21899               	.LM2312:
 21900 7de6 81E0      		ldi r24,lo8(1)
 21901 7de8 8093 0000 		sts lastAccelerometerBufferSent,r24
 21902               	.LM2313:
 21903 7dec 1092 0000 		sts okToSendAccelBuffer+1,__zero_reg__
 21904               	.L1245:
 21905 7df0 00E0      		ldi r16,lo8(0)
 21906 7df2 10E0      		ldi r17,hi8(0)
 21907               	.L1247:
 21908               	.LBE865:
 21909               	.LBB866:
 21910               	.LM2314:
 21911 7df4 F0E0      		ldi r31,lo8(okToSendEKGBuffer)
 21912 7df6 EF2E      		mov r14,r31
 21913 7df8 F0E0      		ldi r31,hi8(okToSendEKGBuffer)
 21914 7dfa FF2E      		mov r15,r31
 21915 7dfc E00E      		add r14,r16
 21916 7dfe F11E      		adc r15,r17
 21917 7e00 F701      		movw r30,r14
 21918 7e02 8081      		ld r24,Z
 21919 7e04 8823      		tst r24
 21920 7e06 01F0      		breq .L1246
 21921 7e08 8091 0000 		lds r24,lastEKGBufferSent
 21922 7e0c 8017      		cp r24,r16
 21923               	.LVL1565:
 21924 7e0e 01F0      		breq .L1246
 21925               	.LM2315:
 21926 7e10 802F      		mov r24,r16
 21927               	.LVL1566:
 21928 7e12 0E94 0000 		call SD_WriteEKGBuffer
 21929               	.LM2316:
 21930 7e16 0093 0000 		sts lastEKGBufferSent,r16
 21931               	.LM2317:
 21932 7e1a F701      		movw r30,r14
 21933 7e1c 1082      		st Z,__zero_reg__
 21934               	.LVL1567:
 21935               	.L1246:
 21936 7e1e 0F5F      		subi r16,lo8(-(1))
 21937 7e20 1F4F      		sbci r17,hi8(-(1))
 21938               	.LVL1568:
 21939               	.LM2318:
 21940 7e22 0330      		cpi r16,3
 21941 7e24 1105      		cpc r17,__zero_reg__
 21942 7e26 01F4      		brne .L1247
 21943 7e28 00E0      		ldi r16,lo8(0)
 21944 7e2a 10E0      		ldi r17,hi8(0)
 21945               	.L1249:
 21946               	.LBE866:
 21947               	.LBB867:
 21948               	.LM2319:
 21949 7e2c E0E0      		ldi r30,lo8(okToSendRespirationBuffer)
 21950 7e2e EE2E      		mov r14,r30
 21951 7e30 E0E0      		ldi r30,hi8(okToSendRespirationBuffer)
 21952 7e32 FE2E      		mov r15,r30
 21953 7e34 E00E      		add r14,r16
 21954 7e36 F11E      		adc r15,r17
 21955 7e38 F701      		movw r30,r14
 21956 7e3a 8081      		ld r24,Z
 21957 7e3c 8823      		tst r24
 21958 7e3e 01F0      		breq .L1248
 21959 7e40 8091 0000 		lds r24,lastRespirationBufferSent
 21960 7e44 8017      		cp r24,r16
 21961               	.LVL1569:
 21962 7e46 01F0      		breq .L1248
 21963               	.LM2320:
 21964 7e48 802F      		mov r24,r16
 21965               	.LVL1570:
 21966 7e4a 0E94 0000 		call SD_WriteRespirationBuffer
 21967               	.LM2321:
 21968 7e4e 0093 0000 		sts lastRespirationBufferSent,r16
 21969               	.LM2322:
 21970 7e52 F701      		movw r30,r14
 21971 7e54 1082      		st Z,__zero_reg__
 21972               	.LVL1571:
 21973               	.L1248:
 21974 7e56 0F5F      		subi r16,lo8(-(1))
 21975 7e58 1F4F      		sbci r17,hi8(-(1))
 21976               	.LVL1572:
 21977               	.LM2323:
 21978 7e5a 0330      		cpi r16,3
 21979 7e5c 1105      		cpc r17,__zero_reg__
 21980 7e5e 01F4      		brne .L1249
 21981               	.LBE867:
 21982               	.LBB868:
 21983               	.LM2324:
 21984 7e60 8091 0000 		lds r24,okToSendTemperatureBuffer
 21985 7e64 8823      		tst r24
 21986 7e66 01F0      		breq .L1250
 21987 7e68 8091 0000 		lds r24,lastTemperatureBufferSent
 21988 7e6c 8823      		tst r24
 21989 7e6e 01F0      		breq .L1250
 21990               	.LM2325:
 21991 7e70 80E0      		ldi r24,lo8(0)
 21992 7e72 0E94 0000 		call SD_WriteTemperatureBuffer
 21993               	.LM2326:
 21994 7e76 1092 0000 		sts lastTemperatureBufferSent,__zero_reg__
 21995               	.LM2327:
 21996 7e7a 1092 0000 		sts okToSendTemperatureBuffer,__zero_reg__
 21997               	.L1250:
 21998               	.LM2328:
 21999 7e7e 8091 0000 		lds r24,okToSendTemperatureBuffer+1
 22000 7e82 8823      		tst r24
 22001 7e84 01F0      		breq .L1251
 22002 7e86 8091 0000 		lds r24,lastTemperatureBufferSent
 22003 7e8a 8130      		cpi r24,lo8(1)
 22004 7e8c 01F0      		breq .L1251
 22005               	.LM2329:
 22006 7e8e 81E0      		ldi r24,lo8(1)
 22007 7e90 0E94 0000 		call SD_WriteTemperatureBuffer
 22008               	.LM2330:
 22009 7e94 81E0      		ldi r24,lo8(1)
 22010 7e96 8093 0000 		sts lastTemperatureBufferSent,r24
 22011               	.LM2331:
 22012 7e9a 1092 0000 		sts okToSendTemperatureBuffer+1,__zero_reg__
 22013               	.L1251:
 22014               	.LBE868:
 22015               	.LBB869:
 22016               	.LM2332:
 22017 7e9e 8091 0000 		lds r24,okToSendHumidityBuffer
 22018 7ea2 8823      		tst r24
 22019 7ea4 01F0      		breq .L1252
 22020 7ea6 8091 0000 		lds r24,lastHumidityBufferSent
 22021 7eaa 8823      		tst r24
 22022 7eac 01F0      		breq .L1252
 22023               	.LM2333:
 22024 7eae 80E0      		ldi r24,lo8(0)
 22025 7eb0 0E94 0000 		call SD_WriteHumidityBuffer
 22026               	.LM2334:
 22027 7eb4 1092 0000 		sts lastHumidityBufferSent,__zero_reg__
 22028               	.LM2335:
 22029 7eb8 1092 0000 		sts okToSendHumidityBuffer,__zero_reg__
 22030               	.L1252:
 22031               	.LM2336:
 22032 7ebc 8091 0000 		lds r24,okToSendHumidityBuffer+1
 22033 7ec0 8823      		tst r24
 22034 7ec2 01F0      		breq .L1253
 22035 7ec4 8091 0000 		lds r24,lastHumidityBufferSent
 22036 7ec8 8130      		cpi r24,lo8(1)
 22037 7eca 01F0      		breq .L1253
 22038               	.LM2337:
 22039 7ecc 81E0      		ldi r24,lo8(1)
 22040 7ece 0E94 0000 		call SD_WriteHumidityBuffer
 22041               	.LM2338:
 22042 7ed2 81E0      		ldi r24,lo8(1)
 22043 7ed4 8093 0000 		sts lastHumidityBufferSent,r24
 22044               	.LM2339:
 22045 7ed8 1092 0000 		sts okToSendHumidityBuffer+1,__zero_reg__
 22046               	.L1253:
 22047               	.LBE869:
 22048               	.LM2340:
 22049 7edc 8091 0000 		lds r24,okToSendRTCBlock
 22050 7ee0 8823      		tst r24
 22051 7ee2 01F0      		breq .L1243
 22052               	.LBB870:
 22053               	.LBB871:
 22054               	.LM2341:
 22055 7ee4 8091 2104 		lds r24,1057
 22056 7ee8 8061      		ori r24,lo8(16)
 22057 7eea E0E2      		ldi r30,lo8(1056)
 22058 7eec F4E0      		ldi r31,hi8(1056)
 22059 7eee 8183      		std Z+1,r24
 22060               	.L1254:
 22061               	.LM2342:
 22062 7ef0 8091 2104 		lds r24,1057
 22063 7ef4 84FD      		sbrc r24,4
 22064 7ef6 00C0      		rjmp .L1254
 22065               	.LM2343:
 22066 7ef8 8091 2404 		lds r24,1060
 22067 7efc 9091 2504 		lds r25,(1060)+1
 22068 7f00 A091 2604 		lds r26,(1060)+2
 22069 7f04 B091 2704 		lds r27,(1060)+3
 22070               	.LBE871:
 22071               	.LBE870:
 22072               	.LM2344:
 22073 7f08 8093 0000 		sts UNIX_Time,r24
 22074 7f0c 9093 0000 		sts (UNIX_Time)+1,r25
 22075 7f10 A093 0000 		sts (UNIX_Time)+2,r26
 22076 7f14 B093 0000 		sts (UNIX_Time)+3,r27
 22077               	.LM2345:
 22078 7f18 0E94 0000 		call Time_Get32BitTimer
 22079 7f1c 2091 0000 		lds r18,UNIX_Time
 22080 7f20 3091 0000 		lds r19,(UNIX_Time)+1
 22081 7f24 4091 0000 		lds r20,(UNIX_Time)+2
 22082 7f28 5091 0000 		lds r21,(UNIX_Time)+3
 22083 7f2c 0E94 0000 		call SD_WriteRTCBlock
 22084               	.LM2346:
 22085 7f30 1092 0000 		sts okToSendRTCBlock,__zero_reg__
 22086               	.L1243:
 22087               	.LM2347:
 22088 7f34 8091 0000 		lds r24,okToOpenLogFile
 22089 7f38 8823      		tst r24
 22090 7f3a 01F4      		brne .+2
 22091 7f3c 00C0      		rjmp .L1255
 22092               	.LM2348:
 22093 7f3e 6091 0000 		lds r22,UNIX_Time
 22094 7f42 7091 0000 		lds r23,(UNIX_Time)+1
 22095 7f46 8091 0000 		lds r24,(UNIX_Time)+2
 22096 7f4a 9091 0000 		lds r25,(UNIX_Time)+3
 22097 7f4e 0E94 0000 		call SD_StartLogFile
 22098 7f52 8823      		tst r24
 22099 7f54 01F4      		brne .L1256
 22100 7f56 88EE      		ldi r24,lo8(1000)
 22101 7f58 93E0      		ldi r25,hi8(1000)
 22102               	.LVL1573:
 22103               	.LBB872:
 22104               	.LBB873:
 22105               	.LBB874:
 22106               	.LBB875:
 22107               	.LM2349:
 22108 7f5a 20E7      		ldi r18,lo8(368)
 22109 7f5c 31E0      		ldi r19,hi8(368)
 22110               	.L1257:
 22111 7f5e F901      		movw r30,r18
 22112               	.LVL1574:
 22113               	/* #APP */
 22114               	 ;  105 "/usr/local/CrossPack-AVR-20100115/lib/gcc/avr/4.3.3/../../../../avr/include/util/delay_bas
 22115 7f60 3197      		1: sbiw r30,1
 22116 7f62 01F4      		brne 1b
 22117               	 ;  0 "" 2
 22118               	/* #NOAPP */
 22119               	.LBE875:
 22120               	.LBE874:
 22121               	.LM2350:
 22122 7f64 0197      		sbiw r24,1
 22123               	.LM2351:
 22124 7f66 01F4      		brne .L1257
 22125               	.LBE873:
 22126               	.LBE872:
 22127               	.LM2352:
 22128 7f68 1092 0000 		sts lengthOfCurrentFile,__zero_reg__
 22129 7f6c 1092 0000 		sts (lengthOfCurrentFile)+1,__zero_reg__
 22130               	.LM2353:
 22131 7f70 8091 0000 		lds r24,UNIX_Time
 22132 7f74 9091 0000 		lds r25,(UNIX_Time)+1
 22133 7f78 A091 0000 		lds r26,(UNIX_Time)+2
 22134 7f7c B091 0000 		lds r27,(UNIX_Time)+3
 22135               	.LVL1575:
 22136 7f80 8093 0000 		sts timeRecordingStarted,r24
 22137 7f84 9093 0000 		sts (timeRecordingStarted)+1,r25
 22138 7f88 A093 0000 		sts (timeRecordingStarted)+2,r26
 22139 7f8c B093 0000 		sts (timeRecordingStarted)+3,r27
 22140               	.LM2354:
 22141 7f90 0E94 0000 		call Time_Get32BitTimer
 22142               	.LVL1576:
 22143 7f94 2091 0000 		lds r18,UNIX_Time
 22144 7f98 3091 0000 		lds r19,(UNIX_Time)+1
 22145 7f9c 4091 0000 		lds r20,(UNIX_Time)+2
 22146 7fa0 5091 0000 		lds r21,(UNIX_Time)+3
 22147 7fa4 0E94 0000 		call SD_WriteRTCBlock
 22148               	.LM2355:
 22149 7fa8 81E0      		ldi r24,lo8(1)
 22150 7faa 8093 0000 		sts recording,r24
 22151 7fae 00C0      		rjmp .L1258
 22152               	.L1256:
 22153               	.LM2356:
 22154 7fb0 1092 0000 		sts sdValid,__zero_reg__
 22155               	.L1258:
 22156               	.LM2357:
 22157 7fb4 1092 0000 		sts okToOpenLogFile,__zero_reg__
 22158               	.L1255:
 22159               	.LM2358:
 22160 7fb8 8091 0000 		lds r24,okToCloseLogFile
 22161 7fbc 8823      		tst r24
 22162 7fbe 01F0      		breq .L1259
 22163               	.LM2359:
 22164 7fc0 0E94 0000 		call SD_Close
 22165               	.LM2360:
 22166 7fc4 1092 0000 		sts okToCloseLogFile,__zero_reg__
 22167               	.L1259:
 22168               	.LM2361:
 22169 7fc8 8091 0000 		lds r24,okToOpenDirectory
 22170 7fcc 8823      		tst r24
 22171 7fce 01F0      		breq .L1260
 22172               	.LM2362:
 22173 7fd0 80E0      		ldi r24,lo8(dir)
 22174 7fd2 90E0      		ldi r25,hi8(dir)
 22175 7fd4 60E0      		ldi r22,lo8(.LC32)
 22176 7fd6 70E0      		ldi r23,hi8(.LC32)
 22177 7fd8 0E94 0000 		call f_opendir
 22178 7fdc 8823      		tst r24
 22179 7fde 01F0      		breq .L1261
 22180               	.LM2363:
 22181 7fe0 1092 0000 		sts sdValid,__zero_reg__
 22182               	.L1261:
 22183               	.LM2364:
 22184 7fe4 1092 0000 		sts okToOpenDirectory,__zero_reg__
 22185               	.L1260:
 22186               	.LM2365:
 22187 7fe8 8091 0000 		lds r24,okToGrabNextFileName
 22188 7fec 8823      		tst r24
 22189 7fee 01F0      		breq .L1262
 22190               	.LM2366:
 22191 7ff0 1092 0000 		sts availableFileName,__zero_reg__
 22192               	.LM2367:
 22193 7ff4 80E0      		ldi r24,lo8(dir)
 22194 7ff6 90E0      		ldi r25,hi8(dir)
 22195 7ff8 60E0      		ldi r22,lo8(fno)
 22196 7ffa 70E0      		ldi r23,hi8(fno)
 22197 7ffc 0E94 0000 		call f_readdir
 22198 8000 8823      		tst r24
 22199 8002 01F4      		brne .L1263
 22200               	.LM2368:
 22201 8004 8091 0000 		lds r24,fno+9
 22202 8008 8823      		tst r24
 22203 800a 01F0      		breq .L1264
 22204               	.LM2369:
 22205 800c 80E0      		ldi r24,lo8(availableFileName)
 22206 800e 90E0      		ldi r25,hi8(availableFileName)
 22207 8010 60E0      		ldi r22,lo8(fno+9)
 22208 8012 70E0      		ldi r23,hi8(fno+9)
 22209 8014 0E94 0000 		call strcpy
 22210               	.L1264:
 22211               	.LM2370:
 22212 8018 1092 0000 		sts okToGrabNextFileName,__zero_reg__
 22213 801c 00C0      		rjmp .L1262
 22214               	.L1263:
 22215               	.LBB876:
 22216               	.LBB877:
 22217               	.LM2371:
 22218 801e 8091 0000 		lds r24,sdValid
 22219               	.LBE877:
 22220               	.LBE876:
 22221               	.LM2372:
 22222 8022 8823      		tst r24
 22223 8024 01F0      		breq .L1262
 22224               	.LM2373:
 22225 8026 0E94 0000 		call SD_Init
 22226               	.LM2374:
 22227 802a 80E0      		ldi r24,lo8(dir)
 22228 802c 90E0      		ldi r25,hi8(dir)
 22229 802e 60E0      		ldi r22,lo8(.LC32)
 22230 8030 70E0      		ldi r23,hi8(.LC32)
 22231 8032 0E94 0000 		call f_opendir
 22232               	.L1262:
 22233               	.LM2375:
 22234 8036 8091 0000 		lds r24,okToOpenFileToUpload
 22235 803a 8823      		tst r24
 22236 803c 01F0      		breq .L1265
 22237               	.LM2376:
 22238 803e 80E0      		ldi r24,lo8(fileToUpload)
 22239 8040 90E0      		ldi r25,hi8(fileToUpload)
 22240 8042 60E0      		ldi r22,lo8(fno)
 22241 8044 70E0      		ldi r23,hi8(fno)
 22242 8046 0E94 0000 		call f_stat
 22243               	.LM2377:
 22244 804a 8091 0000 		lds r24,fno
 22245 804e 9091 0000 		lds r25,(fno)+1
 22246 8052 A091 0000 		lds r26,(fno)+2
 22247 8056 B091 0000 		lds r27,(fno)+3
 22248 805a 8093 0000 		sts uploadFileSize,r24
 22249 805e 9093 0000 		sts (uploadFileSize)+1,r25
 22250 8062 A093 0000 		sts (uploadFileSize)+2,r26
 22251 8066 B093 0000 		sts (uploadFileSize)+3,r27
 22252               	.LM2378:
 22253 806a 80E0      		ldi r24,lo8(Upload_File)
 22254 806c 90E0      		ldi r25,hi8(Upload_File)
 22255 806e 60E0      		ldi r22,lo8(fileToUpload)
 22256 8070 70E0      		ldi r23,hi8(fileToUpload)
 22257 8072 43E0      		ldi r20,lo8(3)
 22258 8074 0E94 0000 		call f_open
 22259 8078 8823      		tst r24
 22260 807a 01F4      		brne .L1266
 22261               	.LM2379:
 22262 807c 81E0      		ldi r24,lo8(1)
 22263 807e 8093 0000 		sts fileExists,r24
 22264 8082 00C0      		rjmp .L1267
 22265               	.L1266:
 22266               	.LM2380:
 22267 8084 1092 0000 		sts fileExists,__zero_reg__
 22268               	.L1267:
 22269               	.LM2381:
 22270 8088 80E0      		ldi r24,lo8(Upload_File)
 22271 808a 90E0      		ldi r25,hi8(Upload_File)
 22272 808c 40E0      		ldi r20,lo8(0)
 22273 808e 50E0      		ldi r21,hi8(0)
 22274 8090 60E0      		ldi r22,hlo8(0)
 22275 8092 70E0      		ldi r23,hhi8(0)
 22276 8094 0E94 0000 		call f_lseek
 22277               	.LM2382:
 22278 8098 81E0      		ldi r24,lo8(1)
 22279 809a 8093 0000 		sts uploadFileOpened,r24
 22280               	.LM2383:
 22281 809e 1092 0000 		sts okToOpenFileToUpload,__zero_reg__
 22282               	.L1265:
 22283               	.LM2384:
 22284 80a2 8091 0000 		lds r24,okToFillUploadFileBuffer
 22285 80a6 8823      		tst r24
 22286 80a8 01F0      		breq .L1268
 22287               	.LBB878:
 22288               	.LM2385:
 22289 80aa 80E0      		ldi r24,lo8(Upload_File)
 22290 80ac 90E0      		ldi r25,hi8(Upload_File)
 22291 80ae 60E0      		ldi r22,lo8(uploadFileBuffer)
 22292 80b0 70E0      		ldi r23,hi8(uploadFileBuffer)
 22293 80b2 48EE      		ldi r20,lo8(1000)
 22294 80b4 53E0      		ldi r21,hi8(1000)
 22295 80b6 9E01      		movw r18,r28
 22296 80b8 2F5F      		subi r18,lo8(-(1))
 22297 80ba 3F4F      		sbci r19,hi8(-(1))
 22298 80bc 0E94 0000 		call f_read
 22299 80c0 8823      		tst r24
 22300 80c2 01F0      		breq .L1269
 22301               	.LM2386:
 22302 80c4 1092 0000 		sts sdValid,__zero_reg__
 22303               	.L1269:
 22304               	.LM2387:
 22305 80c8 1092 0000 		sts okToFillUploadFileBuffer,__zero_reg__
 22306               	.LM2388:
 22307 80cc 81E0      		ldi r24,lo8(1)
 22308 80ce 8093 0000 		sts uploadFileBufferFull,r24
 22309               	.L1268:
 22310               	.LBE878:
 22311               	.LM2389:
 22312 80d2 8091 0000 		lds r24,okToCloseUploadFile
 22313 80d6 8823      		tst r24
 22314 80d8 01F0      		breq .L1270
 22315               	.LM2390:
 22316 80da 80E0      		ldi r24,lo8(Upload_File)
 22317 80dc 90E0      		ldi r25,hi8(Upload_File)
 22318 80de 0E94 0000 		call f_sync
 22319 80e2 8823      		tst r24
 22320 80e4 01F0      		breq .L1271
 22321               	.LM2391:
 22322 80e6 1092 0000 		sts sdValid,__zero_reg__
 22323               	.L1271:
 22324               	.LM2392:
 22325 80ea 80E0      		ldi r24,lo8(Upload_File)
 22326 80ec 90E0      		ldi r25,hi8(Upload_File)
 22327 80ee 0E94 0000 		call f_close
 22328               	.LM2393:
 22329 80f2 80E0      		ldi r24,lo8(fileToUpload)
 22330 80f4 90E0      		ldi r25,hi8(fileToUpload)
 22331 80f6 60E0      		ldi r22,lo8(.LC14)
 22332 80f8 70E0      		ldi r23,hi8(.LC14)
 22333 80fa 0E94 0000 		call strcpy
 22334               	.LM2394:
 22335 80fe 1092 0000 		sts okToCloseUploadFile,__zero_reg__
 22336               	.L1270:
 22337               	.LM2395:
 22338 8102 8091 0000 		lds r24,okToGetRemainingSpace
 22339 8106 8823      		tst r24
 22340 8108 01F0      		breq .L1272
 22341               	.LM2396:
 22342 810a 0E94 0000 		call SD_GetSpaceRemaining
 22343               	.LM2397:
 22344 810e 1092 0000 		sts okToGetRemainingSpace,__zero_reg__
 22345               	.L1272:
 22346               	.LM2398:
 22347 8112 8091 0000 		lds r24,okToEraseFile
 22348 8116 8823      		tst r24
 22349 8118 01F0      		breq .L1275
 22350               	.LM2399:
 22351 811a 80E0      		ldi r24,lo8(fileToErase)
 22352 811c 90E0      		ldi r25,hi8(fileToErase)
 22353 811e 0E94 0000 		call f_unlink
 22354 8122 8093 0000 		sts eraseFileReturn,r24
 22355               	.LM2400:
 22356 8126 8091 0000 		lds r24,eraseFileReturn
 22357 812a 8823      		tst r24
 22358 812c 01F0      		breq .L1274
 22359               	.LM2401:
 22360 812e 1092 0000 		sts sdValid,__zero_reg__
 22361               	.L1274:
 22362               	.LM2402:
 22363 8132 80E0      		ldi r24,lo8(fileToUpload)
 22364 8134 90E0      		ldi r25,hi8(fileToUpload)
 22365 8136 60E0      		ldi r22,lo8(.LC14)
 22366 8138 70E0      		ldi r23,hi8(.LC14)
 22367 813a 0E94 0000 		call strcpy
 22368               	.LM2403:
 22369 813e 1092 0000 		sts okToEraseFile,__zero_reg__
 22370               	.L1275:
 22371               	/* epilogue start */
 22372               	.LM2404:
 22373 8142 0F90      		pop __tmp_reg__
 22374 8144 0F90      		pop __tmp_reg__
 22375 8146 CF91      		pop r28
 22376 8148 DF91      		pop r29
 22377 814a FF91      		pop r31
 22378 814c EF91      		pop r30
 22379 814e BF91      		pop r27
 22380 8150 AF91      		pop r26
 22381 8152 9F91      		pop r25
 22382 8154 8F91      		pop r24
 22383 8156 7F91      		pop r23
 22384 8158 6F91      		pop r22
 22385 815a 5F91      		pop r21
 22386 815c 4F91      		pop r20
 22387 815e 3F91      		pop r19
 22388 8160 2F91      		pop r18
 22389 8162 1F91      		pop r17
 22390 8164 0F91      		pop r16
 22391 8166 FF90      		pop r15
 22392 8168 EF90      		pop r14
 22393 816a 0F90      		pop r0
 22394 816c 0BBE      		out 59-0,r0
 22395 816e 0F90      		pop r0
 22396 8170 0FBE      		out __SREG__,r0
 22397 8172 0F90      		pop r0
 22398 8174 1F90      		pop __zero_reg__
 22399 8176 1895      		reti
 22400               	.LFE150:
 22402               		.data
 22403               	.LC33:
 22404 0246 2F63 6F6E 		.string	"/config.txt"
 22404      6669 672E 
 22404      7478 7400 
 22405               	.LC34:
 22406 0252 7373 6964 		.string	"ssid"
 22406      00
 22407               	.LC35:
 22408 0257 3D00      		.string	"="
 22409               	.LC36:
 22410 0259 7068 7261 		.string	"phrase"
 22410      7365 00
 22411               	.LC37:
 22412 0260 6B65 7900 		.string	"key"
 22413               	.LC38:
 22414 0264 706F 7274 		.string	"port"
 22414      00
 22415               	.LC39:
 22416 0269 6175 7468 		.string	"auth"
 22416      00
 22417               	.LC40:
 22418 026e 7573 6572 		.string	"user"
 22418      00
 22419               	.LC41:
 22420 0273 6E69 636B 		.string	"nickname"
 22420      6E61 6D65 
 22420      00
 22421               	.LC42:
 22422 027c 7365 7276 		.string	"server"
 22422      6572 00
 22423               	.LC43:
 22424 0283 6461 796C 		.string	"daylightTime"
 22424      6967 6874 
 22424      5469 6D65 
 22424      00
 22425               	.LC44:
 22426 0290 6465 6D6F 		.string	"demoMode"
 22426      4D6F 6465 
 22426      00
 22427               	.LC45:
 22428 0299 7265 636F 		.string	"recordFast"
 22428      7264 4661 
 22428      7374 00
 22429               	.LC46:
 22430 02a4 7A6F 6E65 		.string	"zone"
 22430      00
 22431               	.LC47:
 22432 02a9 4553 5400 		.string	"EST"
 22433               	.LC48:
 22434 02ad 4353 5400 		.string	"CST"
 22435               	.LC49:
 22436 02b1 4D53 5400 		.string	"MST"
 22437               	.LC50:
 22438 02b5 5053 5400 		.string	"PST"
 22439               	.LC51:
 22440 02b9 2000      		.string	" "
 22441               	.LC52:
 22442 02bb 7472 7565 		.string	"true"
 22442      00
 22443               		.text
 22444               	.global	SD_Read_config_file
 22446               	SD_Read_config_file:
 22447               	.LFB99:
 22448               	.LM2405:
 22449 8178 AF92      		push r10
 22450 817a BF92      		push r11
 22451 817c CF92      		push r12
 22452 817e DF92      		push r13
 22453 8180 EF92      		push r14
 22454 8182 FF92      		push r15
 22455 8184 0F93      		push r16
 22456 8186 1F93      		push r17
 22457 8188 DF93      		push r29
 22458 818a CF93      		push r28
 22459 818c CDB7      		in r28,__SP_L__
 22460 818e DEB7      		in r29,__SP_H__
 22461 8190 E297      		sbiw r28,50
 22462 8192 CDBF      		out __SP_L__,r28
 22463 8194 DEBF      		out __SP_H__,r29
 22464               	/* prologue: function */
 22465               	/* frame size = 50 */
 22466               	.LM2406:
 22467 8196 80E0      		ldi r24,lo8(.LC33)
 22468 8198 90E0      		ldi r25,hi8(.LC33)
 22469 819a 0E94 0000 		call SD_Open
 22470               	.LM2407:
 22471 819e 80E0      		ldi r24,lo8(Log_File)
 22472 81a0 90E0      		ldi r25,hi8(Log_File)
 22473 81a2 40E0      		ldi r20,lo8(0)
 22474 81a4 50E0      		ldi r21,hi8(0)
 22475 81a6 60E0      		ldi r22,hlo8(0)
 22476 81a8 70E0      		ldi r23,hhi8(0)
 22477 81aa 0E94 0000 		call f_lseek
 22478               	.LM2408:
 22479 81ae 8E01      		movw r16,r28
 22480 81b0 0F5F      		subi r16,lo8(-(1))
 22481 81b2 1F4F      		sbci r17,hi8(-(1))
 22482               	.LM2409:
 22483 81b4 80E0      		ldi r24,lo8(zone)
 22484 81b6 E82E      		mov r14,r24
 22485 81b8 80E0      		ldi r24,hi8(zone)
 22486 81ba F82E      		mov r15,r24
 22487               	.LM2410:
 22488 81bc B0E0      		ldi r27,lo8(nickname)
 22489 81be CB2E      		mov r12,r27
 22490 81c0 B0E0      		ldi r27,hi8(nickname)
 22491 81c2 DB2E      		mov r13,r27
 22492               	.LM2411:
 22493 81c4 A0E0      		ldi r26,lo8(user)
 22494 81c6 AA2E      		mov r10,r26
 22495 81c8 A0E0      		ldi r26,hi8(user)
 22496 81ca BA2E      		mov r11,r26
 22497               	.LVL1577:
 22498               	.L1313:
 22499               	.LM2412:
 22500 81cc C801      		movw r24,r16
 22501 81ce 62E3      		ldi r22,lo8(50)
 22502 81d0 70E0      		ldi r23,hi8(50)
 22503 81d2 40E0      		ldi r20,lo8(Log_File)
 22504 81d4 50E0      		ldi r21,hi8(Log_File)
 22505 81d6 0E94 0000 		call f_gets
 22506               	.LVL1578:
 22507               	.LM2413:
 22508 81da 8981      		ldd r24,Y+1
 22509 81dc 8823      		tst r24
 22510 81de 01F4      		brne .+2
 22511 81e0 00C0      		rjmp .L1281
 22512               	.LM2414:
 22513 81e2 C801      		movw r24,r16
 22514 81e4 60E0      		ldi r22,lo8(.LC34)
 22515 81e6 70E0      		ldi r23,hi8(.LC34)
 22516 81e8 0E94 0000 		call strstr
 22517 81ec 0097      		sbiw r24,0
 22518 81ee 01F0      		breq .L1282
 22519               	.LM2415:
 22520 81f0 C801      		movw r24,r16
 22521 81f2 60E0      		ldi r22,lo8(.LC35)
 22522 81f4 70E0      		ldi r23,hi8(.LC35)
 22523 81f6 0E94 0000 		call strtok
 22524               	.LM2416:
 22525 81fa 80E0      		ldi r24,lo8(0)
 22526 81fc 90E0      		ldi r25,hi8(0)
 22527 81fe 60E0      		ldi r22,lo8(.LC35)
 22528 8200 70E0      		ldi r23,hi8(.LC35)
 22529 8202 0E94 0000 		call strtok
 22530 8206 BC01      		movw r22,r24
 22531 8208 80E0      		ldi r24,lo8(ssid)
 22532 820a 90E0      		ldi r25,hi8(ssid)
 22533 820c 0E94 0000 		call strcpy
 22534               	.LM2417:
 22535 8210 81E0      		ldi r24,lo8(1)
 22536 8212 8093 0000 		sts ssidRead,r24
 22537 8216 00C0      		rjmp .L1313
 22538               	.L1282:
 22539               	.LM2418:
 22540 8218 C801      		movw r24,r16
 22541 821a 60E0      		ldi r22,lo8(.LC36)
 22542 821c 70E0      		ldi r23,hi8(.LC36)
 22543 821e 0E94 0000 		call strstr
 22544 8222 0097      		sbiw r24,0
 22545 8224 01F0      		breq .L1284
 22546               	.LM2419:
 22547 8226 C801      		movw r24,r16
 22548 8228 60E0      		ldi r22,lo8(.LC35)
 22549 822a 70E0      		ldi r23,hi8(.LC35)
 22550 822c 0E94 0000 		call strtok
 22551               	.LM2420:
 22552 8230 80E0      		ldi r24,lo8(0)
 22553 8232 90E0      		ldi r25,hi8(0)
 22554 8234 60E0      		ldi r22,lo8(.LC35)
 22555 8236 70E0      		ldi r23,hi8(.LC35)
 22556 8238 0E94 0000 		call strtok
 22557 823c BC01      		movw r22,r24
 22558 823e 80E0      		ldi r24,lo8(phrase)
 22559 8240 90E0      		ldi r25,hi8(phrase)
 22560 8242 0E94 0000 		call strcpy
 22561               	.LM2421:
 22562 8246 81E0      		ldi r24,lo8(1)
 22563 8248 8093 0000 		sts phraseRead,r24
 22564 824c 00C0      		rjmp .L1313
 22565               	.L1284:
 22566               	.LM2422:
 22567 824e C801      		movw r24,r16
 22568 8250 60E0      		ldi r22,lo8(.LC37)
 22569 8252 70E0      		ldi r23,hi8(.LC37)
 22570 8254 0E94 0000 		call strstr
 22571 8258 0097      		sbiw r24,0
 22572 825a 01F0      		breq .L1285
 22573               	.LM2423:
 22574 825c C801      		movw r24,r16
 22575 825e 60E0      		ldi r22,lo8(.LC35)
 22576 8260 70E0      		ldi r23,hi8(.LC35)
 22577 8262 0E94 0000 		call strtok
 22578               	.LM2424:
 22579 8266 80E0      		ldi r24,lo8(0)
 22580 8268 90E0      		ldi r25,hi8(0)
 22581 826a 60E0      		ldi r22,lo8(.LC35)
 22582 826c 70E0      		ldi r23,hi8(.LC35)
 22583 826e 0E94 0000 		call strtok
 22584 8272 BC01      		movw r22,r24
 22585 8274 80E0      		ldi r24,lo8(key)
 22586 8276 90E0      		ldi r25,hi8(key)
 22587 8278 0E94 0000 		call strcpy
 22588               	.LM2425:
 22589 827c 81E0      		ldi r24,lo8(1)
 22590 827e 8093 0000 		sts keyRead,r24
 22591 8282 00C0      		rjmp .L1313
 22592               	.L1285:
 22593               	.LM2426:
 22594 8284 C801      		movw r24,r16
 22595 8286 60E0      		ldi r22,lo8(.LC38)
 22596 8288 70E0      		ldi r23,hi8(.LC38)
 22597 828a 0E94 0000 		call strstr
 22598 828e 0097      		sbiw r24,0
 22599 8290 01F0      		breq .L1286
 22600               	.LM2427:
 22601 8292 C801      		movw r24,r16
 22602 8294 60E0      		ldi r22,lo8(.LC35)
 22603 8296 70E0      		ldi r23,hi8(.LC35)
 22604 8298 0E94 0000 		call strtok
 22605               	.LM2428:
 22606 829c 80E0      		ldi r24,lo8(0)
 22607 829e 90E0      		ldi r25,hi8(0)
 22608 82a0 60E0      		ldi r22,lo8(.LC35)
 22609 82a2 70E0      		ldi r23,hi8(.LC35)
 22610 82a4 0E94 0000 		call strtok
 22611 82a8 BC01      		movw r22,r24
 22612 82aa 80E0      		ldi r24,lo8(port)
 22613 82ac 90E0      		ldi r25,hi8(port)
 22614 82ae 00C0      		rjmp .L1315
 22615               	.L1286:
 22616               	.LM2429:
 22617 82b0 C801      		movw r24,r16
 22618 82b2 60E0      		ldi r22,lo8(.LC39)
 22619 82b4 70E0      		ldi r23,hi8(.LC39)
 22620 82b6 0E94 0000 		call strstr
 22621 82ba 0097      		sbiw r24,0
 22622 82bc 01F0      		breq .L1287
 22623               	.LM2430:
 22624 82be C801      		movw r24,r16
 22625 82c0 60E0      		ldi r22,lo8(.LC35)
 22626 82c2 70E0      		ldi r23,hi8(.LC35)
 22627 82c4 0E94 0000 		call strtok
 22628               	.LM2431:
 22629 82c8 80E0      		ldi r24,lo8(0)
 22630 82ca 90E0      		ldi r25,hi8(0)
 22631 82cc 60E0      		ldi r22,lo8(.LC35)
 22632 82ce 70E0      		ldi r23,hi8(.LC35)
 22633 82d0 0E94 0000 		call strtok
 22634 82d4 BC01      		movw r22,r24
 22635 82d6 80E0      		ldi r24,lo8(auth)
 22636 82d8 90E0      		ldi r25,hi8(auth)
 22637 82da 0E94 0000 		call strcpy
 22638               	.LM2432:
 22639 82de 81E0      		ldi r24,lo8(1)
 22640 82e0 8093 0000 		sts authRead,r24
 22641 82e4 00C0      		rjmp .L1313
 22642               	.L1287:
 22643               	.LM2433:
 22644 82e6 C801      		movw r24,r16
 22645 82e8 60E0      		ldi r22,lo8(.LC40)
 22646 82ea 70E0      		ldi r23,hi8(.LC40)
 22647 82ec 0E94 0000 		call strstr
 22648 82f0 0097      		sbiw r24,0
 22649 82f2 01F0      		breq .L1288
 22650               	.LM2434:
 22651 82f4 C801      		movw r24,r16
 22652 82f6 60E0      		ldi r22,lo8(.LC35)
 22653 82f8 70E0      		ldi r23,hi8(.LC35)
 22654 82fa 0E94 0000 		call strtok
 22655               	.LM2435:
 22656 82fe 80E0      		ldi r24,lo8(0)
 22657 8300 90E0      		ldi r25,hi8(0)
 22658 8302 60E0      		ldi r22,lo8(.LC35)
 22659 8304 70E0      		ldi r23,hi8(.LC35)
 22660 8306 0E94 0000 		call strtok
 22661 830a BC01      		movw r22,r24
 22662 830c 80E0      		ldi r24,lo8(user)
 22663 830e 90E0      		ldi r25,hi8(user)
 22664 8310 0E94 0000 		call strcpy
 22665               	.LBB879:
 22666               	.LM2436:
 22667 8314 F501      		movw r30,r10
 22668 8316 0190      		ld __tmp_reg__,Z+
 22669 8318 0020      		tst __tmp_reg__
 22670 831a 01F4      		brne .-6
 22671 831c 3197      		sbiw r30,1
 22672 831e E050      		subi r30,lo8(user)
 22673 8320 F040      		sbci r31,hi8(user)
 22674 8322 20E0      		ldi r18,lo8(0)
 22675               	.LVL1579:
 22676 8324 00C0      		rjmp .L1289
 22677               	.LVL1580:
 22678               	.L1291:
 22679               	.LM2437:
 22680 8326 DC01      		movw r26,r24
 22681 8328 A050      		subi r26,lo8(-(user))
 22682 832a B040      		sbci r27,hi8(-(user))
 22683 832c 8C91      		ld r24,X
 22684               	.LVL1581:
 22685 832e 8032      		cpi r24,lo8(32)
 22686 8330 00F0      		brlo .L1316
 22687               	.L1290:
 22688               	.LM2438:
 22689 8332 2F5F      		subi r18,lo8(-(1))
 22690               	.L1289:
 22691 8334 822F      		mov r24,r18
 22692 8336 90E0      		ldi r25,lo8(0)
 22693 8338 8E17      		cp r24,r30
 22694 833a 9F07      		cpc r25,r31
 22695 833c 00F0      		brlo .L1291
 22696               	.LVL1582:
 22697 833e 00C0      		rjmp .L1313
 22698               	.LVL1583:
 22699               	.L1288:
 22700               	.LBE879:
 22701               	.LM2439:
 22702 8340 C801      		movw r24,r16
 22703 8342 60E0      		ldi r22,lo8(.LC41)
 22704 8344 70E0      		ldi r23,hi8(.LC41)
 22705 8346 0E94 0000 		call strstr
 22706 834a 0097      		sbiw r24,0
 22707 834c 01F0      		breq .L1292
 22708               	.LM2440:
 22709 834e C801      		movw r24,r16
 22710 8350 60E0      		ldi r22,lo8(.LC35)
 22711 8352 70E0      		ldi r23,hi8(.LC35)
 22712 8354 0E94 0000 		call strtok
 22713               	.LM2441:
 22714 8358 80E0      		ldi r24,lo8(0)
 22715 835a 90E0      		ldi r25,hi8(0)
 22716 835c 60E0      		ldi r22,lo8(.LC35)
 22717 835e 70E0      		ldi r23,hi8(.LC35)
 22718 8360 0E94 0000 		call strtok
 22719 8364 BC01      		movw r22,r24
 22720 8366 80E0      		ldi r24,lo8(nickname)
 22721 8368 90E0      		ldi r25,hi8(nickname)
 22722 836a 0E94 0000 		call strcpy
 22723               	.LBB880:
 22724               	.LM2442:
 22725 836e F601      		movw r30,r12
 22726 8370 0190      		ld __tmp_reg__,Z+
 22727 8372 0020      		tst __tmp_reg__
 22728 8374 01F4      		brne .-6
 22729 8376 3197      		sbiw r30,1
 22730 8378 E050      		subi r30,lo8(nickname)
 22731 837a F040      		sbci r31,hi8(nickname)
 22732 837c 20E0      		ldi r18,lo8(0)
 22733               	.LVL1584:
 22734 837e 00C0      		rjmp .L1293
 22735               	.LVL1585:
 22736               	.L1295:
 22737               	.LM2443:
 22738 8380 DC01      		movw r26,r24
 22739 8382 A050      		subi r26,lo8(-(nickname))
 22740 8384 B040      		sbci r27,hi8(-(nickname))
 22741 8386 8C91      		ld r24,X
 22742               	.LVL1586:
 22743 8388 8032      		cpi r24,lo8(32)
 22744 838a 00F4      		brsh .L1294
 22745               	.LVL1587:
 22746               	.L1316:
 22747               	.LM2444:
 22748 838c 1C92      		st X,__zero_reg__
 22749 838e 00C0      		rjmp .L1313
 22750               	.LVL1588:
 22751               	.L1294:
 22752               	.LM2445:
 22753 8390 2F5F      		subi r18,lo8(-(1))
 22754               	.L1293:
 22755 8392 822F      		mov r24,r18
 22756 8394 90E0      		ldi r25,lo8(0)
 22757 8396 8E17      		cp r24,r30
 22758 8398 9F07      		cpc r25,r31
 22759 839a 00F0      		brlo .L1295
 22760               	.LVL1589:
 22761 839c 00C0      		rjmp .L1313
 22762               	.LVL1590:
 22763               	.L1292:
 22764               	.LBE880:
 22765               	.LM2446:
 22766 839e C801      		movw r24,r16
 22767 83a0 60E0      		ldi r22,lo8(.LC42)
 22768 83a2 70E0      		ldi r23,hi8(.LC42)
 22769 83a4 0E94 0000 		call strstr
 22770 83a8 0097      		sbiw r24,0
 22771 83aa 01F0      		breq .L1296
 22772               	.LM2447:
 22773 83ac C801      		movw r24,r16
 22774 83ae 60E0      		ldi r22,lo8(.LC35)
 22775 83b0 70E0      		ldi r23,hi8(.LC35)
 22776 83b2 0E94 0000 		call strtok
 22777               	.LM2448:
 22778 83b6 80E0      		ldi r24,lo8(0)
 22779 83b8 90E0      		ldi r25,hi8(0)
 22780 83ba 60E0      		ldi r22,lo8(.LC35)
 22781 83bc 70E0      		ldi r23,hi8(.LC35)
 22782 83be 0E94 0000 		call strtok
 22783 83c2 BC01      		movw r22,r24
 22784 83c4 80E0      		ldi r24,lo8(server)
 22785 83c6 90E0      		ldi r25,hi8(server)
 22786               	.L1315:
 22787 83c8 0E94 0000 		call strcpy
 22788 83cc 00C0      		rjmp .L1313
 22789               	.L1296:
 22790               	.LM2449:
 22791 83ce C801      		movw r24,r16
 22792 83d0 60E0      		ldi r22,lo8(.LC43)
 22793 83d2 70E0      		ldi r23,hi8(.LC43)
 22794 83d4 0E94 0000 		call strstr
 22795 83d8 0097      		sbiw r24,0
 22796 83da 01F0      		breq .L1297
 22797               	.LM2450:
 22798 83dc C801      		movw r24,r16
 22799 83de 60E0      		ldi r22,lo8(.LC35)
 22800 83e0 70E0      		ldi r23,hi8(.LC35)
 22801 83e2 0E94 0000 		call strtok
 22802               	.LM2451:
 22803 83e6 80E0      		ldi r24,lo8(0)
 22804 83e8 90E0      		ldi r25,hi8(0)
 22805 83ea 60E0      		ldi r22,lo8(.LC35)
 22806 83ec 70E0      		ldi r23,hi8(.LC35)
 22807 83ee 0E94 0000 		call strtok
 22808 83f2 BC01      		movw r22,r24
 22809 83f4 80E0      		ldi r24,lo8(daylightTime)
 22810 83f6 90E0      		ldi r25,hi8(daylightTime)
 22811 83f8 00C0      		rjmp .L1315
 22812               	.L1297:
 22813               	.LM2452:
 22814 83fa C801      		movw r24,r16
 22815 83fc 60E0      		ldi r22,lo8(.LC44)
 22816 83fe 70E0      		ldi r23,hi8(.LC44)
 22817 8400 0E94 0000 		call strstr
 22818 8404 0097      		sbiw r24,0
 22819 8406 01F0      		breq .L1298
 22820               	.LM2453:
 22821 8408 C801      		movw r24,r16
 22822 840a 60E0      		ldi r22,lo8(.LC35)
 22823 840c 70E0      		ldi r23,hi8(.LC35)
 22824 840e 0E94 0000 		call strtok
 22825               	.LM2454:
 22826 8412 80E0      		ldi r24,lo8(0)
 22827 8414 90E0      		ldi r25,hi8(0)
 22828 8416 60E0      		ldi r22,lo8(.LC35)
 22829 8418 70E0      		ldi r23,hi8(.LC35)
 22830 841a 0E94 0000 		call strtok
 22831 841e BC01      		movw r22,r24
 22832 8420 80E0      		ldi r24,lo8(demoModeString)
 22833 8422 90E0      		ldi r25,hi8(demoModeString)
 22834 8424 00C0      		rjmp .L1315
 22835               	.L1298:
 22836               	.LM2455:
 22837 8426 C801      		movw r24,r16
 22838 8428 60E0      		ldi r22,lo8(.LC45)
 22839 842a 70E0      		ldi r23,hi8(.LC45)
 22840 842c 0E94 0000 		call strstr
 22841 8430 0097      		sbiw r24,0
 22842 8432 01F0      		breq .L1299
 22843               	.LM2456:
 22844 8434 C801      		movw r24,r16
 22845 8436 60E0      		ldi r22,lo8(.LC35)
 22846 8438 70E0      		ldi r23,hi8(.LC35)
 22847 843a 0E94 0000 		call strtok
 22848               	.LM2457:
 22849 843e 80E0      		ldi r24,lo8(0)
 22850 8440 90E0      		ldi r25,hi8(0)
 22851 8442 60E0      		ldi r22,lo8(.LC35)
 22852 8444 70E0      		ldi r23,hi8(.LC35)
 22853 8446 0E94 0000 		call strtok
 22854 844a BC01      		movw r22,r24
 22855 844c 80E0      		ldi r24,lo8(fastString)
 22856 844e 90E0      		ldi r25,hi8(fastString)
 22857 8450 00C0      		rjmp .L1315
 22858               	.L1299:
 22859               	.LM2458:
 22860 8452 C801      		movw r24,r16
 22861 8454 60E0      		ldi r22,lo8(.LC46)
 22862 8456 70E0      		ldi r23,hi8(.LC46)
 22863 8458 0E94 0000 		call strstr
 22864 845c 0097      		sbiw r24,0
 22865 845e 01F4      		brne .+2
 22866 8460 00C0      		rjmp .L1313
 22867               	.LM2459:
 22868 8462 C801      		movw r24,r16
 22869 8464 60E0      		ldi r22,lo8(.LC35)
 22870 8466 70E0      		ldi r23,hi8(.LC35)
 22871 8468 0E94 0000 		call strtok
 22872               	.LM2460:
 22873 846c 80E0      		ldi r24,lo8(0)
 22874 846e 90E0      		ldi r25,hi8(0)
 22875 8470 60E0      		ldi r22,lo8(.LC35)
 22876 8472 70E0      		ldi r23,hi8(.LC35)
 22877 8474 0E94 0000 		call strtok
 22878 8478 BC01      		movw r22,r24
 22879 847a 80E0      		ldi r24,lo8(zone)
 22880 847c 90E0      		ldi r25,hi8(zone)
 22881 847e 44E0      		ldi r20,lo8(4)
 22882 8480 50E0      		ldi r21,hi8(4)
 22883 8482 0E94 0000 		call memmove
 22884 8486 20E0      		ldi r18,lo8(0)
 22885               	.LVL1591:
 22886 8488 00C0      		rjmp .L1300
 22887               	.LVL1592:
 22888               	.L1302:
 22889               	.LBB881:
 22890               	.LM2461:
 22891 848a FC01      		movw r30,r24
 22892 848c E050      		subi r30,lo8(-(zone))
 22893 848e F040      		sbci r31,hi8(-(zone))
 22894 8490 8081      		ld r24,Z
 22895               	.LVL1593:
 22896 8492 8032      		cpi r24,lo8(32)
 22897 8494 00F4      		brsh .L1301
 22898               	.LM2462:
 22899 8496 1082      		st Z,__zero_reg__
 22900               	.L1301:
 22901               	.LM2463:
 22902 8498 2F5F      		subi r18,lo8(-(1))
 22903               	.L1300:
 22904 849a F701      		movw r30,r14
 22905 849c 0190      		ld __tmp_reg__,Z+
 22906 849e 0020      		tst __tmp_reg__
 22907 84a0 01F4      		brne .-6
 22908 84a2 3197      		sbiw r30,1
 22909 84a4 E050      		subi r30,lo8(zone)
 22910 84a6 F040      		sbci r31,hi8(zone)
 22911 84a8 822F      		mov r24,r18
 22912 84aa 90E0      		ldi r25,lo8(0)
 22913 84ac 8E17      		cp r24,r30
 22914 84ae 9F07      		cpc r25,r31
 22915 84b0 00F0      		brlo .L1302
 22916               	.LVL1594:
 22917               	.LBE881:
 22918               	.LM2464:
 22919 84b2 80E0      		ldi r24,lo8(zone)
 22920 84b4 90E0      		ldi r25,hi8(zone)
 22921               	.LVL1595:
 22922 84b6 60E0      		ldi r22,lo8(.LC47)
 22923 84b8 70E0      		ldi r23,hi8(.LC47)
 22924 84ba 0E94 0000 		call strcmp
 22925               	.LVL1596:
 22926 84be 0097      		sbiw r24,0
 22927 84c0 01F4      		brne .L1303
 22928               	.LM2465:
 22929 84c2 85E0      		ldi r24,lo8(5)
 22930 84c4 00C0      		rjmp .L1314
 22931               	.L1303:
 22932               	.LM2466:
 22933 84c6 80E0      		ldi r24,lo8(zone)
 22934 84c8 90E0      		ldi r25,hi8(zone)
 22935 84ca 60E0      		ldi r22,lo8(.LC48)
 22936 84cc 70E0      		ldi r23,hi8(.LC48)
 22937 84ce 0E94 0000 		call strcmp
 22938 84d2 0097      		sbiw r24,0
 22939 84d4 01F4      		brne .L1304
 22940               	.LM2467:
 22941 84d6 86E0      		ldi r24,lo8(6)
 22942 84d8 00C0      		rjmp .L1314
 22943               	.L1304:
 22944               	.LM2468:
 22945 84da 80E0      		ldi r24,lo8(zone)
 22946 84dc 90E0      		ldi r25,hi8(zone)
 22947 84de 60E0      		ldi r22,lo8(.LC49)
 22948 84e0 70E0      		ldi r23,hi8(.LC49)
 22949 84e2 0E94 0000 		call strcmp
 22950 84e6 0097      		sbiw r24,0
 22951 84e8 01F4      		brne .L1305
 22952               	.LM2469:
 22953 84ea 87E0      		ldi r24,lo8(7)
 22954 84ec 00C0      		rjmp .L1314
 22955               	.L1305:
 22956               	.LM2470:
 22957 84ee 80E0      		ldi r24,lo8(zone)
 22958 84f0 90E0      		ldi r25,hi8(zone)
 22959 84f2 60E0      		ldi r22,lo8(.LC50)
 22960 84f4 70E0      		ldi r23,hi8(.LC50)
 22961 84f6 0E94 0000 		call strcmp
 22962 84fa 0097      		sbiw r24,0
 22963 84fc 01F0      		breq .+2
 22964 84fe 00C0      		rjmp .L1313
 22965               	.LM2471:
 22966 8500 88E0      		ldi r24,lo8(8)
 22967               	.L1314:
 22968 8502 8093 0000 		sts timeZoneShift,r24
 22969               	.LM2472:
 22970 8506 81E0      		ldi r24,lo8(1)
 22971 8508 8093 0000 		sts zoneChanged,r24
 22972 850c 00C0      		rjmp .L1313
 22973               	.L1281:
 22974               	.LM2473:
 22975 850e E0E0      		ldi r30,lo8(server)
 22976 8510 F0E0      		ldi r31,hi8(server)
 22977 8512 0190      		ld __tmp_reg__,Z+
 22978 8514 0020      		tst __tmp_reg__
 22979 8516 01F4      		brne .-6
 22980 8518 3297      		sbiw r30,2
 22981 851a 8081      		ld r24,Z
 22982 851c 8032      		cpi r24,lo8(32)
 22983 851e 00F4      		brsh .L1306
 22984               	.LM2474:
 22985 8520 1082      		st Z,__zero_reg__
 22986               	.L1306:
 22987               	.LM2475:
 22988 8522 80E0      		ldi r24,lo8(serverOpenCommand)
 22989 8524 90E0      		ldi r25,hi8(serverOpenCommand)
 22990 8526 60E0      		ldi r22,lo8(server)
 22991 8528 70E0      		ldi r23,hi8(server)
 22992 852a 0E94 0000 		call strcat
 22993               	.LM2476:
 22994 852e 80E0      		ldi r24,lo8(serverOpenCommand)
 22995 8530 90E0      		ldi r25,hi8(serverOpenCommand)
 22996 8532 60E0      		ldi r22,lo8(.LC51)
 22997 8534 70E0      		ldi r23,hi8(.LC51)
 22998 8536 0E94 0000 		call strcat
 22999               	.LM2477:
 23000 853a 80E0      		ldi r24,lo8(serverOpenCommand)
 23001 853c 90E0      		ldi r25,hi8(serverOpenCommand)
 23002 853e 60E0      		ldi r22,lo8(port)
 23003 8540 70E0      		ldi r23,hi8(port)
 23004 8542 0E94 0000 		call strcat
 23005               	.LM2478:
 23006 8546 80E0      		ldi r24,lo8(daylightTime)
 23007 8548 90E0      		ldi r25,hi8(daylightTime)
 23008 854a 60E0      		ldi r22,lo8(.LC52)
 23009 854c 70E0      		ldi r23,hi8(.LC52)
 23010 854e 0E94 0000 		call strstr
 23011 8552 0097      		sbiw r24,0
 23012 8554 01F0      		breq .L1307
 23013 8556 8091 0000 		lds r24,zoneChanged
 23014 855a 8823      		tst r24
 23015 855c 01F0      		breq .L1307
 23016               	.LM2479:
 23017 855e 8091 0000 		lds r24,timeZoneShift
 23018 8562 8150      		subi r24,lo8(-(-1))
 23019 8564 8093 0000 		sts timeZoneShift,r24
 23020               	.L1307:
 23021               	.LM2480:
 23022 8568 80E0      		ldi r24,lo8(demoModeString)
 23023 856a 90E0      		ldi r25,hi8(demoModeString)
 23024 856c 60E0      		ldi r22,lo8(.LC52)
 23025 856e 70E0      		ldi r23,hi8(.LC52)
 23026 8570 0E94 0000 		call strstr
 23027 8574 0097      		sbiw r24,0
 23028 8576 01F0      		breq .L1308
 23029               	.LM2481:
 23030 8578 81E0      		ldi r24,lo8(1)
 23031 857a 8093 0000 		sts demoMode,r24
 23032               	.L1308:
 23033               	.LM2482:
 23034 857e 80E0      		ldi r24,lo8(fastString)
 23035 8580 90E0      		ldi r25,hi8(fastString)
 23036 8582 60E0      		ldi r22,lo8(.LC52)
 23037 8584 70E0      		ldi r23,hi8(.LC52)
 23038 8586 0E94 0000 		call strstr
 23039 858a 0097      		sbiw r24,0
 23040 858c 01F0      		breq .L1310
 23041               	.LM2483:
 23042 858e 81E0      		ldi r24,lo8(1)
 23043 8590 8093 0000 		sts wantToRecordFast,r24
 23044               	.L1310:
 23045               	/* epilogue start */
 23046               	.LM2484:
 23047 8594 E296      		adiw r28,50
 23048 8596 CDBF      		out __SP_L__,r28
 23049 8598 DEBF      		out __SP_H__,r29
 23050 859a CF91      		pop r28
 23051 859c DF91      		pop r29
 23052 859e 1F91      		pop r17
 23053 85a0 0F91      		pop r16
 23054 85a2 FF90      		pop r15
 23055 85a4 EF90      		pop r14
 23056 85a6 DF90      		pop r13
 23057 85a8 CF90      		pop r12
 23058 85aa BF90      		pop r11
 23059 85ac AF90      		pop r10
 23060 85ae 0895      		ret
 23061               	.LFE99:
 23063               	.global	main
 23065               	main:
 23066               	.LFB140:
 23067               	.LM2485:
 23068 85b0 FF92      		push r15
 23069 85b2 0F93      		push r16
 23070 85b4 1F93      		push r17
 23071 85b6 DF93      		push r29
 23072 85b8 CF93      		push r28
 23073 85ba 0F92      		push __tmp_reg__
 23074 85bc CDB7      		in r28,__SP_L__
 23075 85be DEB7      		in r29,__SP_H__
 23076               	/* prologue: function */
 23077               	/* frame size = 1 */
 23078               	.LM2486:
 23079 85c0 0E94 0000 		call Clock_Init
 23080               	.LBB882:
 23081               	.LBB883:
 23082               	.LBB884:
 23083               	.LBB885:
 23084               	.LM2487:
 23085 85c4 8FB7      		in r24,__SREG__
 23086 85c6 8983      		std Y+1,r24
 23087               	.LVL1597:
 23088               	.LM2488:
 23089               	/* #APP */
 23090               	 ;  83 "mainChestStrap.h" 1
 23091 85c8 F894      		cli
 23092               	 ;  0 "" 2
 23093               	.LM2489:
 23094               	/* #NOAPP */
 23095 85ca 1BBE      		out 59-0,__zero_reg__
 23096               	.LM2490:
 23097 85cc 11E0      		ldi r17,lo8(1)
 23098 85ce 86E9      		ldi r24,lo8(150)
 23099 85d0 90E0      		ldi r25,hi8(150)
 23100               	/* #APP */
 23101               	 ;  105 "mainChestStrap.h" 1
 23102 85d2 FC01      		movw r30,  r24
 23103 85d4 08ED      		ldi  r16,  216
 23104 85d6 04BF      		out   52, r16
 23105 85d8 1083      		st     Z,  r17
 23106               		
 23107               	 ;  0 "" 2
 23108               	.LM2491:
 23109               	/* #NOAPP */
 23110 85da 8981      		ldd r24,Y+1
 23111 85dc 8FBF      		out __SREG__,r24
 23112               	.LBE885:
 23113               	.LBE884:
 23114               	.LBE883:
 23115               	.LBE882:
 23116               	.LM2492:
 23117 85de 0E94 0000 		call getDeviceID
 23118               	.LM2493:
 23119 85e2 0E94 0000 		call Time_Init
 23120               	.LM2494:
 23121 85e6 0E94 0000 		call Sensors_Init
 23122               	.LM2495:
 23123 85ea 60E0      		ldi r22,lo8(460800)
 23124 85ec 78E0      		ldi r23,hi8(460800)
 23125 85ee 87E0      		ldi r24,hlo8(460800)
 23126 85f0 90E0      		ldi r25,hhi8(460800)
 23127 85f2 0E94 0000 		call Debug_Init
 23128               	.LM2496:
 23129 85f6 86E0      		ldi r24,lo8(6)
 23130 85f8 61E0      		ldi r22,lo8(1)
 23131 85fa 42E0      		ldi r20,lo8(2)
 23132 85fc 20E0      		ldi r18,lo8(0)
 23133 85fe 03E0      		ldi r16,lo8(3)
 23134 8600 0E94 0000 		call Button_Init
 23135               	.LM2497:
 23136 8604 0E94 0000 		call Accel_Init
 23137               	.LBB886:
 23138               	.LBB887:
 23139               	.LM2498:
 23140 8608 E0EA      		ldi r30,lo8(1696)
 23141 860a F6E0      		ldi r31,hi8(1696)
 23142 860c 82E0      		ldi r24,lo8(2)
 23143 860e 8183      		std Z+1,r24
 23144               	.LBB888:
 23145               	.LBB889:
 23146               	.LM2499:
 23147 8610 1092 0000 		sts ledState+1,__zero_reg__
 23148               	.LBE889:
 23149               	.LBE888:
 23150               	.LBE887:
 23151               	.LBE886:
 23152               	.LBB890:
 23153               	.LBB891:
 23154               	.LM2500:
 23155 8614 1183      		std Z+1,r17
 23156               	.LBB892:
 23157               	.LBB893:
 23158               	.LM2501:
 23159 8616 1092 0000 		sts ledState,__zero_reg__
 23160               	.LBE893:
 23161               	.LBE892:
 23162               	.LBE891:
 23163               	.LBE890:
 23164               	.LM2502:
 23165 861a 0E94 0000 		call GUI_Init
 23166               	.LM2503:
 23167 861e 0E94 0000 		call SD_BackroundWriter_Init
 23168               	.LM2504:
 23169 8622 0E94 0000 		call SD_Init
 23170               	.LBB894:
 23171               	.LBB895:
 23172               	.LM2505:
 23173 8626 8091 A200 		lds r24,162
 23174 862a 8760      		ori r24,lo8(7)
 23175 862c E0EA      		ldi r30,lo8(160)
 23176 862e F0E0      		ldi r31,hi8(160)
 23177 8630 8283      		std Z+2,r24
 23178               	.LM2506:
 23179               	/* #APP */
 23180               	 ;  180 "mainChestStrap.c" 1
 23181 8632 7894      		sei
 23182               	 ;  0 "" 2
 23183               	/* #NOAPP */
 23184               	.LBE895:
 23185               	.LBE894:
 23186               	.LM2507:
 23187 8634 0E94 0000 		call Time_CheckVBatSystem
 23188 8638 8823      		tst r24
 23189 863a 01F0      		breq .L1318
 23190               	.LBB896:
 23191               	.LBB897:
 23192               	.LM2508:
 23193 863c 8091 2104 		lds r24,1057
 23194 8640 8061      		ori r24,lo8(16)
 23195 8642 E0E2      		ldi r30,lo8(1056)
 23196 8644 F4E0      		ldi r31,hi8(1056)
 23197 8646 8183      		std Z+1,r24
 23198               	.L1319:
 23199               	.LM2509:
 23200 8648 E0E2      		ldi r30,lo8(1056)
 23201 864a F4E0      		ldi r31,hi8(1056)
 23202 864c 8091 2104 		lds r24,1057
 23203 8650 84FD      		sbrc r24,4
 23204 8652 00C0      		rjmp .L1319
 23205               	.LM2510:
 23206 8654 8091 2404 		lds r24,1060
 23207 8658 9091 2504 		lds r25,(1060)+1
 23208 865c A091 2604 		lds r26,(1060)+2
 23209 8660 B091 2704 		lds r27,(1060)+3
 23210               	.LBE897:
 23211               	.LBE896:
 23212               	.LM2511:
 23213 8664 8154      		subi r24,lo8(1000001)
 23214 8666 9244      		sbci r25,hi8(1000001)
 23215 8668 AF40      		sbci r26,hlo8(1000001)
 23216 866a B040      		sbci r27,hhi8(1000001)
 23217 866c 00F0      		brlo .L1318
 23218               	.LM2512:
 23219 866e 81E0      		ldi r24,lo8(1)
 23220 8670 8093 0000 		sts timeIsValid,r24
 23221               	.LM2513:
 23222 8674 8091 2204 		lds r24,1058
 23223 8678 837F      		andi r24,lo8(-13)
 23224 867a 8460      		ori r24,lo8(4)
 23225 867c 8283      		std Z+2,r24
 23226               	.LBB898:
 23227               	.LBB899:
 23228               	.LM2514:
 23229 867e 8091 2104 		lds r24,1057
 23230 8682 8061      		ori r24,lo8(16)
 23231 8684 8183      		std Z+1,r24
 23232               	.L1320:
 23233               	.LM2515:
 23234 8686 8091 2104 		lds r24,1057
 23235 868a 84FD      		sbrc r24,4
 23236 868c 00C0      		rjmp .L1320
 23237               	.LM2516:
 23238 868e 8091 2404 		lds r24,1060
 23239 8692 9091 2504 		lds r25,(1060)+1
 23240 8696 A091 2604 		lds r26,(1060)+2
 23241 869a B091 2704 		lds r27,(1060)+3
 23242               	.LBE899:
 23243               	.LBE898:
 23244               	.LM2517:
 23245 869e 8093 0000 		sts UNIX_Time,r24
 23246 86a2 9093 0000 		sts (UNIX_Time)+1,r25
 23247 86a6 A093 0000 		sts (UNIX_Time)+2,r26
 23248 86aa B093 0000 		sts (UNIX_Time)+3,r27
 23249 86ae 00C0      		rjmp .L1321
 23250               	.L1318:
 23251               	.LM2518:
 23252 86b0 82E0      		ldi r24,lo8(2)
 23253 86b2 8093 F000 		sts 240,r24
 23254               	.LBB900:
 23255               	.LBB901:
 23256               	.LM2519:
 23257 86b6 8FB7      		in r24,__SREG__
 23258 86b8 8983      		std Y+1,r24
 23259               	.LVL1598:
 23260               	.LM2520:
 23261               	/* #APP */
 23262               	 ;  83 "mainChestStrap.h" 1
 23263 86ba F894      		cli
 23264               	 ;  0 "" 2
 23265               	.LM2521:
 23266               	/* #NOAPP */
 23267 86bc 1BBE      		out 59-0,__zero_reg__
 23268               	.LM2522:
 23269 86be 21E0      		ldi r18,lo8(1)
 23270 86c0 80EF      		ldi r24,lo8(240)
 23271 86c2 90E0      		ldi r25,hi8(240)
 23272               	/* #APP */
 23273               	 ;  105 "mainChestStrap.h" 1
 23274 86c4 FC01      		movw r30,  r24
 23275 86c6 08ED      		ldi  r16,  216
 23276 86c8 04BF      		out   52, r16
 23277 86ca 2083      		st     Z,  r18
 23278               		
 23279               	 ;  0 "" 2
 23280               	.LM2523:
 23281               	/* #NOAPP */
 23282 86cc 8981      		ldd r24,Y+1
 23283 86ce 8FBF      		out __SREG__,r24
 23284               	.LBE901:
 23285               	.LBE900:
 23286               	.LM2524:
 23287 86d0 1092 2004 		sts 1056,__zero_reg__
 23288               	.LM2525:
 23289 86d4 E0E2      		ldi r30,lo8(1056)
 23290 86d6 F4E0      		ldi r31,hi8(1056)
 23291 86d8 1282      		std Z+2,__zero_reg__
 23292 86da 00C0      		rjmp .L1321
 23293               	.LVL1599:
 23294               	.L1323:
 23295               	.LM2526:
 23296 86dc 0E94 0000 		call SD_Init
 23297               	.LVL1600:
 23298 86e0 84EC      		ldi r24,lo8(2500)
 23299 86e2 99E0      		ldi r25,hi8(2500)
 23300               	.LVL1601:
 23301               	.L1322:
 23302               	.LBB902:
 23303               	.LBB903:
 23304               	.LBB904:
 23305               	.LBB905:
 23306               	.LM2527:
 23307 86e4 F801      		movw r30,r16
 23308               	.LVL1602:
 23309               	/* #APP */
 23310               	 ;  105 "/usr/local/CrossPack-AVR-20100115/lib/gcc/avr/4.3.3/../../../../avr/include/util/delay_bas
 23311 86e6 3197      		1: sbiw r30,1
 23312 86e8 01F4      		brne 1b
 23313               	 ;  0 "" 2
 23314               	/* #NOAPP */
 23315               	.LBE905:
 23316               	.LBE904:
 23317               	.LM2528:
 23318 86ea 0197      		sbiw r24,1
 23319               	.LM2529:
 23320 86ec 01F4      		brne .L1322
 23321 86ee 00C0      		rjmp .L1338
 23322               	.LVL1603:
 23323               	.L1321:
 23324               	.LBB907:
 23325               	.LBB906:
 23326               	.LM2530:
 23327 86f0 00E7      		ldi r16,lo8(368)
 23328 86f2 11E0      		ldi r17,hi8(368)
 23329               	.LVL1604:
 23330               	.L1338:
 23331               	.LBE906:
 23332               	.LBE907:
 23333               	.LBE903:
 23334               	.LBE902:
 23335               	.LBB908:
 23336               	.LBB909:
 23337               	.LM2531:
 23338 86f4 8091 0000 		lds r24,sdValid
 23339               	.LVL1605:
 23340               	.LBE909:
 23341               	.LBE908:
 23342               	.LM2532:
 23343 86f8 8823      		tst r24
 23344 86fa 01F0      		breq .L1323
 23345 86fc 88E8      		ldi r24,lo8(5000)
 23346 86fe 93E1      		ldi r25,hi8(5000)
 23347               	.LVL1606:
 23348               	.LBB910:
 23349               	.LBB911:
 23350               	.LBB912:
 23351               	.LBB913:
 23352               	.LM2533:
 23353 8700 20E7      		ldi r18,lo8(368)
 23354 8702 31E0      		ldi r19,hi8(368)
 23355               	.LVL1607:
 23356               	.L1324:
 23357 8704 F901      		movw r30,r18
 23358               	.LVL1608:
 23359               	/* #APP */
 23360               	 ;  105 "/usr/local/CrossPack-AVR-20100115/lib/gcc/avr/4.3.3/../../../../avr/include/util/delay_bas
 23361 8706 3197      		1: sbiw r30,1
 23362 8708 01F4      		brne 1b
 23363               	 ;  0 "" 2
 23364               	/* #NOAPP */
 23365               	.LBE913:
 23366               	.LBE912:
 23367               	.LM2534:
 23368 870a 0197      		sbiw r24,1
 23369               	.LM2535:
 23370 870c 01F4      		brne .L1324
 23371               	.LBE911:
 23372               	.LBE910:
 23373               	.LM2536:
 23374 870e 0E94 0000 		call SD_Read_config_file
 23375               	.LVL1609:
 23376 8712 28E8      		ldi r18,lo8(5000)
 23377 8714 33E1      		ldi r19,hi8(5000)
 23378               	.LVL1610:
 23379               	.LM2537:
 23380 8716 FF24      		clr r15
 23381 8718 F394      		inc r15
 23382               	.LBB914:
 23383               	.LBB915:
 23384               	.LBB916:
 23385               	.LBB917:
 23386               	.LM2538:
 23387 871a 00E7      		ldi r16,lo8(368)
 23388 871c 11E0      		ldi r17,hi8(368)
 23389 871e 00C0      		rjmp .L1339
 23390               	.LVL1611:
 23391               	.L1326:
 23392 8720 C801      		movw r24,r16
 23393               	/* #APP */
 23394               	 ;  105 "/usr/local/CrossPack-AVR-20100115/lib/gcc/avr/4.3.3/../../../../avr/include/util/delay_bas
 23395 8722 0197      		1: sbiw r24,1
 23396 8724 01F4      		brne 1b
 23397               	 ;  0 "" 2
 23398               	/* #NOAPP */
 23399               	.LBE917:
 23400               	.LBE916:
 23401               	.LM2539:
 23402 8726 2150      		subi r18,lo8(-(-1))
 23403 8728 3040      		sbci r19,hi8(-(-1))
 23404               	.L1339:
 23405               	.LM2540:
 23406 872a 2115      		cp r18,__zero_reg__
 23407 872c 3105      		cpc r19,__zero_reg__
 23408 872e 01F4      		brne .L1326
 23409               	.LBE915:
 23410               	.LBE914:
 23411               	.LM2541:
 23412 8730 F092 0000 		sts okToGetRemainingSpace,r15
 23413               	.L1327:
 23414               	.LM2542:
 23415 8734 8091 0000 		lds r24,okToGetRemainingSpace
 23416               	.LVL1612:
 23417 8738 8823      		tst r24
 23418 873a 01F4      		brne .L1327
 23419               	.LM2543:
 23420 873c 1092 0000 		sts connected,__zero_reg__
 23421               	.L1328:
 23422               	.LM2544:
 23423 8740 0E94 0000 		call Uploader_connectToComputer
 23424               	.LVL1613:
 23425 8744 8823      		tst r24
 23426 8746 01F0      		breq .L1328
 23427               	.LM2545:
 23428 8748 F092 0000 		sts connected,r15
 23429               	.L1329:
 23430               	.LM2546:
 23431 874c 0E94 0000 		call Uploader_Update
 23432 8750 8823      		tst r24
 23433 8752 01F4      		brne .L1329
 23434 8754 28E8      		ldi r18,lo8(5000)
 23435 8756 33E1      		ldi r19,hi8(5000)
 23436               	.LVL1614:
 23437 8758 00C0      		rjmp .L1326
 23438               	.LFE140:
 23440               	.global	f_printf
 23442               	f_printf:
 23443               	.LFB86:
 23444               	.LM2547:
 23445               	.LVL1615:
 23446 875a 2F92      		push r2
 23447 875c 3F92      		push r3
 23448 875e 4F92      		push r4
 23449 8760 5F92      		push r5
 23450 8762 6F92      		push r6
 23451 8764 7F92      		push r7
 23452 8766 8F92      		push r8
 23453 8768 9F92      		push r9
 23454 876a AF92      		push r10
 23455 876c BF92      		push r11
 23456 876e CF92      		push r12
 23457 8770 DF92      		push r13
 23458 8772 EF92      		push r14
 23459 8774 FF92      		push r15
 23460 8776 0F93      		push r16
 23461 8778 1F93      		push r17
 23462 877a DF93      		push r29
 23463 877c CF93      		push r28
 23464 877e CDB7      		in r28,__SP_L__
 23465 8780 DEB7      		in r29,__SP_H__
 23466 8782 6397      		sbiw r28,19
 23467 8784 CDBF      		out __SP_L__,r28
 23468 8786 DEBF      		out __SP_H__,r29
 23469               	/* prologue: function */
 23470               	/* frame size = 19 */
 23471 8788 6BA4      		ldd r6,Y+43
 23472 878a 7CA4      		ldd r7,Y+44
 23473               	.LM2548:
 23474 878c 8E01      		movw r16,r28
 23475               	.LVL1616:
 23476 878e 035D      		subi r16,lo8(-(45))
 23477 8790 1F4F      		sbci r17,hi8(-(45))
 23478 8792 198A      		std Y+17,__zero_reg__
 23479 8794 1A8A      		std Y+18,__zero_reg__
 23480               	.LVL1617:
 23481 8796 20E0      		ldi r18,lo8(0)
 23482 8798 30E0      		ldi r19,hi8(0)
 23483               	.LVL1618:
 23484               	.LVL1619:
 23485               	.L1368:
 23486               	.LM2549:
 23487 879a D301      		movw r26,r6
 23488 879c 8C91      		ld r24,X
 23489               	.LVL1620:
 23490               	.LM2550:
 23491 879e 8823      		tst r24
 23492 87a0 01F4      		brne .+2
 23493 87a2 00C0      		rjmp .L1341
 23494               	.LM2551:
 23495 87a4 0894      		sec
 23496 87a6 611C      		adc r6,__zero_reg__
 23497 87a8 711C      		adc r7,__zero_reg__
 23498               	.LM2552:
 23499 87aa 8532      		cpi r24,lo8(37)
 23500 87ac 01F0      		breq .L1342
 23501               	.LM2553:
 23502 87ae 90E0      		ldi r25,lo8(0)
 23503 87b0 69A5      		ldd r22,Y+41
 23504 87b2 7AA5      		ldd r23,Y+42
 23505 87b4 0E94 0000 		call f_putc
 23506               	.LVL1621:
 23507 87b8 9C01      		movw r18,r24
 23508               	.LVL1622:
 23509               	.LM2554:
 23510 87ba BFEF      		ldi r27,hi8(-1)
 23511 87bc 8F3F      		cpi r24,lo8(-1)
 23512 87be 9B07      		cpc r25,r27
 23513 87c0 01F4      		brne .L1343
 23514               	.LVL1623:
 23515 87c2 4801      		movw r8,r16
 23516 87c4 00C0      		rjmp .L1344
 23517               	.L1343:
 23518 87c6 4801      		movw r8,r16
 23519 87c8 00C0      		rjmp .L1371
 23520               	.LVL1624:
 23521               	.L1342:
 23522               	.LM2555:
 23523 87ca D301      		movw r26,r6
 23524 87cc ED91      		ld r30,X+
 23525               	.LVL1625:
 23526 87ce 3D01      		movw r6,r26
 23527               	.LM2556:
 23528 87d0 E033      		cpi r30,lo8(48)
 23529 87d2 01F0      		breq .L1345
 23530 87d4 1B8A      		std Y+19,__zero_reg__
 23531               	.LVL1626:
 23532 87d6 00C0      		rjmp .L1346
 23533               	.L1345:
 23534               	.LM2557:
 23535 87d8 ED91      		ld r30,X+
 23536 87da 3D01      		movw r6,r26
 23537 87dc B1E0      		ldi r27,lo8(1)
 23538 87de BB8B      		std Y+19,r27
 23539               	.LVL1627:
 23540               	.L1346:
 23541 87e0 AA24      		clr r10
 23542 87e2 BB24      		clr r11
 23543 87e4 00C0      		rjmp .L1347
 23544               	.L1348:
 23545               	.LM2558:
 23546 87e6 C501      		movw r24,r10
 23547 87e8 73E0      		ldi r23,3
 23548 87ea 880F      	1:	lsl r24
 23549 87ec 991F      		rol r25
 23550 87ee 7A95      		dec r23
 23551 87f0 01F4      		brne 1b
 23552 87f2 AA0C      		lsl r10
 23553 87f4 BB1C      		rol r11
 23554 87f6 A80E      		add r10,r24
 23555 87f8 B91E      		adc r11,r25
 23556 87fa AE0E      		add r10,r30
 23557 87fc B11C      		adc r11,__zero_reg__
 23558 87fe E0ED      		ldi r30,lo8(-48)
 23559 8800 FFEF      		ldi r31,hi8(-48)
 23560               	.LVL1628:
 23561 8802 AE0E      		add r10,r30
 23562 8804 BF1E      		adc r11,r31
 23563               	.LM2559:
 23564 8806 D301      		movw r26,r6
 23565 8808 ED91      		ld r30,X+
 23566               	.LVL1629:
 23567 880a 3D01      		movw r6,r26
 23568               	.L1347:
 23569               	.LM2560:
 23570 880c 8E2F      		mov r24,r30
 23571 880e 8053      		subi r24,lo8(-(-48))
 23572 8810 8A30      		cpi r24,lo8(10)
 23573 8812 00F0      		brlo .L1348
 23574               	.LM2561:
 23575 8814 EC36      		cpi r30,lo8(108)
 23576 8816 01F4      		brne .L1349
 23577               	.LM2562:
 23578 8818 BB89      		ldd r27,Y+19
 23579 881a B260      		ori r27,lo8(2)
 23580 881c BB8B      		std Y+19,r27
 23581               	.LVL1630:
 23582 881e D301      		movw r26,r6
 23583 8820 ED91      		ld r30,X+
 23584 8822 3D01      		movw r6,r26
 23585               	.L1349:
 23586               	.LM2563:
 23587 8824 E337      		cpi r30,lo8(115)
 23588 8826 01F4      		brne .L1350
 23589               	.LM2564:
 23590 8828 52E0      		ldi r21,lo8(2)
 23591 882a 852E      		mov r8,r21
 23592 882c 912C      		mov r9,__zero_reg__
 23593               	.LVL1631:
 23594 882e 800E      		add r8,r16
 23595 8830 911E      		adc r9,r17
 23596 8832 F801      		movw r30,r16
 23597               	.LVL1632:
 23598 8834 8081      		ld r24,Z
 23599 8836 9181      		ldd r25,Z+1
 23600 8838 00C0      		rjmp .L1372
 23601               	.LVL1633:
 23602               	.L1350:
 23603               	.LM2565:
 23604 883a E336      		cpi r30,lo8(99)
 23605 883c 01F4      		brne .L1351
 23606               	.LM2566:
 23607 883e 42E0      		ldi r20,lo8(2)
 23608 8840 842E      		mov r8,r20
 23609 8842 912C      		mov r9,__zero_reg__
 23610               	.LVL1634:
 23611 8844 800E      		add r8,r16
 23612 8846 911E      		adc r9,r17
 23613 8848 D801      		movw r26,r16
 23614 884a 8D91      		ld r24,X+
 23615 884c 9C91      		ld r25,X
 23616 884e 69A5      		ldd r22,Y+41
 23617 8850 7AA5      		ldd r23,Y+42
 23618 8852 0E94 0000 		call f_putc
 23619               	.LVL1635:
 23620 8856 9C01      		movw r18,r24
 23621               	.LVL1636:
 23622               	.LM2567:
 23623 8858 BFEF      		ldi r27,hi8(-1)
 23624 885a 8F3F      		cpi r24,lo8(-1)
 23625 885c 9B07      		cpc r25,r27
 23626 885e 01F4      		brne .+2
 23627 8860 00C0      		rjmp .L1344
 23628               	.LVL1637:
 23629               	.L1371:
 23630 8862 21E0      		ldi r18,lo8(1)
 23631 8864 30E0      		ldi r19,hi8(1)
 23632               	.LVL1638:
 23633 8866 00C0      		rjmp .L1344
 23634               	.LVL1639:
 23635               	.L1351:
 23636               	.LM2568:
 23637 8868 E436      		cpi r30,lo8(100)
 23638 886a 01F0      		breq .L1352
 23639               	.LM2569:
 23640 886c E537      		cpi r30,lo8(117)
 23641 886e 01F0      		breq .L1352
 23642               	.LM2570:
 23643 8870 E835      		cpi r30,lo8(88)
 23644 8872 01F0      		breq .+2
 23645 8874 00C0      		rjmp .L1341
 23646 8876 20E1      		ldi r18,lo8(16)
 23647               	.LVL1640:
 23648 8878 00C0      		rjmp .L1353
 23649               	.LVL1641:
 23650               	.L1352:
 23651 887a 2AE0      		ldi r18,lo8(10)
 23652               	.LVL1642:
 23653               	.L1353:
 23654               	.LM2571:
 23655 887c FB89      		ldd r31,Y+19
 23656 887e F1FF      		sbrs r31,1
 23657 8880 00C0      		rjmp .L1354
 23658               	.LM2572:
 23659 8882 34E0      		ldi r19,lo8(4)
 23660 8884 832E      		mov r8,r19
 23661 8886 912C      		mov r9,__zero_reg__
 23662               	.LVL1643:
 23663 8888 800E      		add r8,r16
 23664 888a 911E      		adc r9,r17
 23665 888c D801      		movw r26,r16
 23666 888e ED90      		ld r14,X+
 23667 8890 FD90      		ld r15,X+
 23668 8892 0D91      		ld r16,X+
 23669 8894 1C91      		ld r17,X
 23670               	.LM2573:
 23671 8896 E436      		cpi r30,lo8(100)
 23672 8898 01F4      		brne .L1356
 23673               	.LVL1644:
 23674 889a 00C0      		rjmp .L1355
 23675               	.L1354:
 23676 889c C801      		movw r24,r16
 23677 889e 0296      		adiw r24,2
 23678               	.LVL1645:
 23679 88a0 D801      		movw r26,r16
 23680 88a2 6D91      		ld r22,X+
 23681 88a4 7C91      		ld r23,X
 23682               	.LM2574:
 23683 88a6 E436      		cpi r30,lo8(100)
 23684 88a8 01F4      		brne .L1357
 23685               	.LVL1646:
 23686 88aa 4C01      		movw r8,r24
 23687 88ac 7B01      		movw r14,r22
 23688 88ae 0027      		clr r16
 23689 88b0 F7FC      		sbrc r15,7
 23690 88b2 0095      		com r16
 23691 88b4 102F      		mov r17,r16
 23692 88b6 00C0      		rjmp .L1355
 23693               	.LVL1647:
 23694               	.L1357:
 23695 88b8 4C01      		movw r8,r24
 23696 88ba 7B01      		movw r14,r22
 23697               	.LVL1648:
 23698 88bc 00E0      		ldi r16,lo8(0)
 23699 88be 10E0      		ldi r17,hi8(0)
 23700               	.LVL1649:
 23701 88c0 00C0      		rjmp .L1356
 23702               	.LVL1650:
 23703               	.L1355:
 23704               	.LM2575:
 23705 88c2 17FF      		sbrs r17,7
 23706 88c4 00C0      		rjmp .L1356
 23707               	.LM2576:
 23708 88c6 1095      		com r17
 23709 88c8 0095      		com r16
 23710 88ca F094      		com r15
 23711 88cc E094      		com r14
 23712 88ce E11C      		adc r14,__zero_reg__
 23713 88d0 F11C      		adc r15,__zero_reg__
 23714 88d2 011D      		adc r16,__zero_reg__
 23715 88d4 111D      		adc r17,__zero_reg__
 23716               	.LM2577:
 23717 88d6 BB89      		ldd r27,Y+19
 23718 88d8 B460      		ori r27,lo8(4)
 23719 88da BB8B      		std Y+19,r27
 23720               	.LVL1651:
 23721               	.L1356:
 23722               	.LM2578:
 23723 88dc 188A      		std Y+16,__zero_reg__
 23724 88de 9FE0      		ldi r25,lo8(15)
 23725 88e0 C92E      		mov r12,r25
 23726 88e2 D12C      		mov r13,__zero_reg__
 23727               	.LM2579:
 23728 88e4 222E      		mov r2,r18
 23729 88e6 3324      		clr r3
 23730 88e8 4424      		clr r4
 23731 88ea 5524      		clr r5
 23732               	.LVL1652:
 23733               	.L1361:
 23734 88ec C801      		movw r24,r16
 23735 88ee B701      		movw r22,r14
 23736 88f0 A201      		movw r20,r4
 23737 88f2 9101      		movw r18,r2
 23738               	.LVL1653:
 23739 88f4 0E94 0000 		call __udivmodsi4
 23740               	.LVL1654:
 23741 88f8 862F      		mov r24,r22
 23742               	.LVL1655:
 23743 88fa 805D      		subi r24,lo8(-(48))
 23744               	.LM2580:
 23745 88fc 8A33      		cpi r24,lo8(58)
 23746 88fe 00F0      		brlo .L1358
 23747 8900 895F      		subi r24,lo8(-(7))
 23748               	.L1358:
 23749               	.LM2581:
 23750 8902 0894      		sec
 23751 8904 C108      		sbc r12,__zero_reg__
 23752 8906 D108      		sbc r13,__zero_reg__
 23753 8908 E1E0      		ldi r30,lo8(1)
 23754 890a F0E0      		ldi r31,hi8(1)
 23755 890c EC0F      		add r30,r28
 23756 890e FD1F      		adc r31,r29
 23757 8910 EC0D      		add r30,r12
 23758 8912 FD1D      		adc r31,r13
 23759 8914 8083      		st Z,r24
 23760               	.LM2582:
 23761 8916 C114      		cp r12,__zero_reg__
 23762 8918 D104      		cpc r13,__zero_reg__
 23763 891a 01F0      		breq .L1360
 23764               	.LM2583:
 23765 891c C801      		movw r24,r16
 23766 891e B701      		movw r22,r14
 23767 8920 A201      		movw r20,r4
 23768 8922 9101      		movw r18,r2
 23769 8924 0E94 0000 		call __udivmodsi4
 23770 8928 C901      		movw r24,r18
 23771               	.LVL1656:
 23772 892a DA01      		movw r26,r20
 23773 892c 7C01      		movw r14,r24
 23774 892e 8D01      		movw r16,r26
 23775               	.LM2584:
 23776 8930 E114      		cp r14,__zero_reg__
 23777 8932 F104      		cpc r15,__zero_reg__
 23778 8934 0105      		cpc r16,__zero_reg__
 23779 8936 1105      		cpc r17,__zero_reg__
 23780 8938 01F4      		brne .L1361
 23781               	.LM2585:
 23782 893a EB89      		ldd r30,Y+19
 23783 893c E2FF      		sbrs r30,2
 23784 893e 00C0      		rjmp .L1360
 23785 8940 0894      		sec
 23786 8942 C108      		sbc r12,__zero_reg__
 23787 8944 D108      		sbc r13,__zero_reg__
 23788 8946 E1E0      		ldi r30,lo8(1)
 23789 8948 F0E0      		ldi r31,hi8(1)
 23790 894a EC0F      		add r30,r28
 23791 894c FD1F      		adc r31,r29
 23792 894e EC0D      		add r30,r12
 23793 8950 FD1D      		adc r31,r13
 23794 8952 4DE2      		ldi r20,lo8(45)
 23795 8954 4083      		st Z,r20
 23796               	.LVL1657:
 23797               	.L1360:
 23798               	.LM2586:
 23799 8956 8FE0      		ldi r24,lo8(15)
 23800 8958 90E0      		ldi r25,hi8(15)
 23801               	.LVL1658:
 23802 895a 8A19      		sub r24,r10
 23803 895c 9B09      		sbc r25,r11
 23804 895e 0894      		sec
 23805 8960 C108      		sbc r12,__zero_reg__
 23806 8962 D108      		sbc r13,__zero_reg__
 23807 8964 E1E0      		ldi r30,lo8(1)
 23808 8966 F0E0      		ldi r31,hi8(1)
 23809 8968 EC0F      		add r30,r28
 23810 896a FD1F      		adc r31,r29
 23811 896c EC0D      		add r30,r12
 23812 896e FD1D      		adc r31,r13
 23813 8970 0894      		sec
 23814 8972 C11C      		adc r12,__zero_reg__
 23815 8974 D11C      		adc r13,__zero_reg__
 23816               	.LM2587:
 23817 8976 AB89      		ldd r26,Y+19
 23818 8978 2A2F      		mov r18,r26
 23819 897a 30E0      		ldi r19,lo8(0)
 23820 897c 2170      		andi r18,lo8(1)
 23821 897e 3070      		andi r19,hi8(1)
 23822 8980 00C0      		rjmp .L1362
 23823               	.L1366:
 23824 8982 0894      		sec
 23825 8984 C108      		sbc r12,__zero_reg__
 23826 8986 D108      		sbc r13,__zero_reg__
 23827 8988 2115      		cp r18,__zero_reg__
 23828 898a 3105      		cpc r19,__zero_reg__
 23829 898c 01F4      		brne .L1363
 23830 898e 40E2      		ldi r20,lo8(32)
 23831 8990 00C0      		rjmp .L1364
 23832               	.L1363:
 23833 8992 40E3      		ldi r20,lo8(48)
 23834               	.L1364:
 23835 8994 4083      		st Z,r20
 23836 8996 3197      		sbiw r30,1
 23837               	.L1362:
 23838 8998 C114      		cp r12,__zero_reg__
 23839 899a D104      		cpc r13,__zero_reg__
 23840 899c 01F0      		breq .L1365
 23841 899e 8C15      		cp r24,r12
 23842 89a0 9D05      		cpc r25,r13
 23843 89a2 04F0      		brlt .L1366
 23844               	.L1365:
 23845               	.LM2588:
 23846 89a4 81E0      		ldi r24,lo8(1)
 23847 89a6 90E0      		ldi r25,hi8(1)
 23848               	.LVL1659:
 23849 89a8 8C0F      		add r24,r28
 23850 89aa 9D1F      		adc r25,r29
 23851 89ac 8C0D      		add r24,r12
 23852 89ae 9D1D      		adc r25,r13
 23853               	.LVL1660:
 23854               	.L1372:
 23855 89b0 69A5      		ldd r22,Y+41
 23856 89b2 7AA5      		ldd r23,Y+42
 23857 89b4 0E94 0000 		call f_puts
 23858               	.LVL1661:
 23859 89b8 9C01      		movw r18,r24
 23860               	.LVL1662:
 23861               	.L1344:
 23862               	.LM2589:
 23863 89ba E989      		ldd r30,Y+17
 23864 89bc FA89      		ldd r31,Y+18
 23865 89be E20F      		add r30,r18
 23866 89c0 F31F      		adc r31,r19
 23867 89c2 E98B      		std Y+17,r30
 23868 89c4 FA8B      		std Y+18,r31
 23869               	.LVL1663:
 23870 89c6 FFEF      		ldi r31,hi8(-1)
 23871 89c8 2F3F      		cpi r18,lo8(-1)
 23872 89ca 3F07      		cpc r19,r31
 23873 89cc 01F0      		breq .L1367
 23874 89ce 8401      		movw r16,r8
 23875               	.LVL1664:
 23876 89d0 00C0      		rjmp .L1368
 23877               	.LVL1665:
 23878               	.L1341:
 23879               	.LM2590:
 23880 89d2 4FEF      		ldi r20,hi8(-1)
 23881 89d4 2F3F      		cpi r18,lo8(-1)
 23882 89d6 3407      		cpc r19,r20
 23883 89d8 01F0      		breq .L1367
 23884 89da 2989      		ldd r18,Y+17
 23885 89dc 3A89      		ldd r19,Y+18
 23886               	.LVL1666:
 23887               	.L1367:
 23888               	.LM2591:
 23889 89de C901      		movw r24,r18
 23890               	.LVL1667:
 23891               	/* epilogue start */
 23892 89e0 6396      		adiw r28,19
 23893 89e2 CDBF      		out __SP_L__,r28
 23894 89e4 DEBF      		out __SP_H__,r29
 23895 89e6 CF91      		pop r28
 23896 89e8 DF91      		pop r29
 23897 89ea 1F91      		pop r17
 23898 89ec 0F91      		pop r16
 23899               	.LVL1668:
 23900 89ee FF90      		pop r15
 23901 89f0 EF90      		pop r14
 23902               	.LVL1669:
 23903 89f2 DF90      		pop r13
 23904 89f4 CF90      		pop r12
 23905               	.LVL1670:
 23906 89f6 BF90      		pop r11
 23907 89f8 AF90      		pop r10
 23908               	.LVL1671:
 23909 89fa 9F90      		pop r9
 23910 89fc 8F90      		pop r8
 23911               	.LVL1672:
 23912 89fe 7F90      		pop r7
 23913 8a00 6F90      		pop r6
 23914               	.LVL1673:
 23915 8a02 5F90      		pop r5
 23916 8a04 4F90      		pop r4
 23917 8a06 3F90      		pop r3
 23918 8a08 2F90      		pop r2
 23919 8a0a 0895      		ret
 23920               	.LFE86:
 23922               	.global	wantToRecordTemperature
 23923               		.data
 23926               	wantToRecordTemperature:
 23927 02c0 01        		.byte	1
 23928               	.global	wantToRecordHumidity
 23931               	wantToRecordHumidity:
 23932 02c1 01        		.byte	1
 23933               	.global	wantToRecordEKG
 23936               	wantToRecordEKG:
 23937 02c2 01        		.byte	1
 23938               	.global	wantToRecordRespiration
 23941               	wantToRecordRespiration:
 23942 02c3 01        		.byte	1
 23943               	.global	wantToRecordFast
 23944               	.global	wantToRecordFast
 23945               		.section .bss
 23948               	wantToRecordFast:
 23949 0000 00        		.skip 1,0
 23950               	.global	recording
 23951               	.global	recording
 23954               	recording:
 23955 0001 00        		.skip 1,0
 23956               	.global	temperatureBufferToWriteTo
 23957               	.global	temperatureBufferToWriteTo
 23960               	temperatureBufferToWriteTo:
 23961 0002 00        		.skip 1,0
 23962               	.global	temperatureBufferCounter
 23963               	.global	temperatureBufferCounter
 23966               	temperatureBufferCounter:
 23967 0003 0000      		.skip 2,0
 23968               	.global	lastTemperatureBufferSent
 23969               		.data
 23972               	lastTemperatureBufferSent:
 23973 02c4 64        		.byte	100
 23974               	.global	respirationBufferToWriteTo
 23975               	.global	respirationBufferToWriteTo
 23976               		.section .bss
 23979               	respirationBufferToWriteTo:
 23980 0005 00        		.skip 1,0
 23981               	.global	respirationBufferCounter
 23982               	.global	respirationBufferCounter
 23985               	respirationBufferCounter:
 23986 0006 0000      		.skip 2,0
 23987               	.global	lastRespirationBufferSent
 23988               		.data
 23991               	lastRespirationBufferSent:
 23992 02c5 64        		.byte	100
 23993               	.global	EKGBufferToWriteTo
 23994               	.global	EKGBufferToWriteTo
 23995               		.section .bss
 23998               	EKGBufferToWriteTo:
 23999 0008 00        		.skip 1,0
 24000               	.global	EKGBufferCounter
 24001               	.global	EKGBufferCounter
 24004               	EKGBufferCounter:
 24005 0009 0000      		.skip 2,0
 24006               	.global	lastEKGBufferSent
 24007               		.data
 24010               	lastEKGBufferSent:
 24011 02c6 64        		.byte	100
 24012               	.global	humidityBufferToWriteTo
 24013               	.global	humidityBufferToWriteTo
 24014               		.section .bss
 24017               	humidityBufferToWriteTo:
 24018 000b 00        		.skip 1,0
 24019               	.global	humidityBufferCounter
 24020               	.global	humidityBufferCounter
 24023               	humidityBufferCounter:
 24024 000c 0000      		.skip 2,0
 24025               	.global	lastHumidityBufferSent
 24026               		.data
 24029               	lastHumidityBufferSent:
 24030 02c7 64        		.byte	100
 24031               	.global	accelBufferToWriteTo
 24032               	.global	accelBufferToWriteTo
 24033               		.section .bss
 24036               	accelBufferToWriteTo:
 24037 000e 00        		.skip 1,0
 24038               	.global	accelBufferCounter
 24039               	.global	accelBufferCounter
 24042               	accelBufferCounter:
 24043 000f 0000      		.skip 2,0
 24044               	.global	lastAccelerometerBufferSent
 24045               		.data
 24048               	lastAccelerometerBufferSent:
 24049 02c8 64        		.byte	100
 24050               	.global	okToSendRTCBlock
 24051               	.global	okToSendRTCBlock
 24052               		.section .bss
 24055               	okToSendRTCBlock:
 24056 0011 00        		.skip 1,0
 24057               	.global	rtcBlockCounter
 24058               	.global	rtcBlockCounter
 24061               	rtcBlockCounter:
 24062 0012 00        		.skip 1,0
 24063               	.global	timeRecordingStarted
 24064               	.global	timeRecordingStarted
 24067               	timeRecordingStarted:
 24068 0013 0000 0000 		.skip 4,0
 24069               	.global	demoMode
 24070               	.global	demoMode
 24073               	demoMode:
 24074 0017 00        		.skip 1,0
 24075               	.global	useWifiForUploading
 24076               	.global	useWifiForUploading
 24079               	useWifiForUploading:
 24080 0018 00        		.skip 1,0
 24081               	.global	Debug_readLocation
 24082               	.global	Debug_readLocation
 24085               	Debug_readLocation:
 24086 0019 0000      		.skip 2,0
 24087               	.global	Debug_writeLocation
 24088               	.global	Debug_writeLocation
 24091               	Debug_writeLocation:
 24092 001b 0000      		.skip 2,0
 24093               	.global	Debug_timeOutCounter
 24094               	.global	Debug_timeOutCounter
 24097               	Debug_timeOutCounter:
 24098 001d 0000 0000 		.skip 4,0
 24099               	.global	UNIX_Time
 24100               	.global	UNIX_Time
 24103               	UNIX_Time:
 24104 0021 0000 0000 		.skip 4,0
 24105               	.global	Drives
 24106               		.data
 24109               	Drives:
 24110 02c9 00        		.byte	0
 24111 02ca 00        		.byte	0
 24112 02cb 00        		.byte	0
 24113 02cc 01        		.byte	1
 24114               	.global	serverOpenCommand
 24117               	serverOpenCommand:
 24118 02cd 6F70 656E 		.string	"open "
 24118      2000 
 24119 02d3 0000 0000 		.skip 44,0
 24119      0000 0000 
 24119      0000 0000 
 24119      0000 0000 
 24119      0000 0000 
 24120               	.global	zone
 24123               	zone:
 24124 02ff 474D 5400 		.string	"GMT"
 24125 0303 0000 0000 		.skip 6,0
 24125      0000 
 24126               	.global	am
 24129               	am:
 24130 0309 414D 00   		.string	"AM"
 24131 030c 0000      		.skip 2,0
 24132               	.global	pm
 24135               	pm:
 24136 030e 504D 00   		.string	"PM"
 24137 0311 0000      		.skip 2,0
 24138               	.global	timeZoneShift
 24139               	.global	timeZoneShift
 24140               		.section .bss
 24143               	timeZoneShift:
 24144 0025 00        		.skip 1,0
 24145               	.global	authRead
 24146               	.global	authRead
 24149               	authRead:
 24150 0026 00        		.skip 1,0
 24151               	.global	phraseRead
 24152               	.global	phraseRead
 24155               	phraseRead:
 24156 0027 00        		.skip 1,0
 24157               	.global	keyRead
 24158               	.global	keyRead
 24161               	keyRead:
 24162 0028 00        		.skip 1,0
 24163               	.global	ssidRead
 24164               	.global	ssidRead
 24167               	ssidRead:
 24168 0029 00        		.skip 1,0
 24169               	.global	zoneChanged
 24170               	.global	zoneChanged
 24173               	zoneChanged:
 24174 002a 00        		.skip 1,0
 24175               	.global	sdValid
 24176               	.global	sdValid
 24179               	sdValid:
 24180 002b 00        		.skip 1,0
 24181               	.global	percentDiskUsed
 24182               	.global	percentDiskUsed
 24185               	percentDiskUsed:
 24186 002c 0000 0000 		.skip 4,0
 24187               	.global	crc_table
 24188               		.data
 24191               	crc_table:
 24192 0313 00        		.byte	0
 24193 0314 00        		.byte	0
 24194 0315 00        		.byte	0
 24195 0316 00        		.byte	0
 24196 0317 96        		.byte	-106
 24197 0318 30        		.byte	48
 24198 0319 07        		.byte	7
 24199 031a 77        		.byte	119
 24200 031b 2C        		.byte	44
 24201 031c 61        		.byte	97
 24202 031d 0E        		.byte	14
 24203 031e EE        		.byte	-18
 24204 031f BA        		.byte	-70
 24205 0320 51        		.byte	81
 24206 0321 09        		.byte	9
 24207 0322 99        		.byte	-103
 24208 0323 19        		.byte	25
 24209 0324 C4        		.byte	-60
 24210 0325 6D        		.byte	109
 24211 0326 07        		.byte	7
 24212 0327 8F        		.byte	-113
 24213 0328 F4        		.byte	-12
 24214 0329 6A        		.byte	106
 24215 032a 70        		.byte	112
 24216 032b 35        		.byte	53
 24217 032c A5        		.byte	-91
 24218 032d 63        		.byte	99
 24219 032e E9        		.byte	-23
 24220 032f A3        		.byte	-93
 24221 0330 95        		.byte	-107
 24222 0331 64        		.byte	100
 24223 0332 9E        		.byte	-98
 24224 0333 32        		.byte	50
 24225 0334 88        		.byte	-120
 24226 0335 DB        		.byte	-37
 24227 0336 0E        		.byte	14
 24228 0337 A4        		.byte	-92
 24229 0338 B8        		.byte	-72
 24230 0339 DC        		.byte	-36
 24231 033a 79        		.byte	121
 24232 033b 1E        		.byte	30
 24233 033c E9        		.byte	-23
 24234 033d D5        		.byte	-43
 24235 033e E0        		.byte	-32
 24236 033f 88        		.byte	-120
 24237 0340 D9        		.byte	-39
 24238 0341 D2        		.byte	-46
 24239 0342 97        		.byte	-105
 24240 0343 2B        		.byte	43
 24241 0344 4C        		.byte	76
 24242 0345 B6        		.byte	-74
 24243 0346 09        		.byte	9
 24244 0347 BD        		.byte	-67
 24245 0348 7C        		.byte	124
 24246 0349 B1        		.byte	-79
 24247 034a 7E        		.byte	126
 24248 034b 07        		.byte	7
 24249 034c 2D        		.byte	45
 24250 034d B8        		.byte	-72
 24251 034e E7        		.byte	-25
 24252 034f 91        		.byte	-111
 24253 0350 1D        		.byte	29
 24254 0351 BF        		.byte	-65
 24255 0352 90        		.byte	-112
 24256 0353 64        		.byte	100
 24257 0354 10        		.byte	16
 24258 0355 B7        		.byte	-73
 24259 0356 1D        		.byte	29
 24260 0357 F2        		.byte	-14
 24261 0358 20        		.byte	32
 24262 0359 B0        		.byte	-80
 24263 035a 6A        		.byte	106
 24264 035b 48        		.byte	72
 24265 035c 71        		.byte	113
 24266 035d B9        		.byte	-71
 24267 035e F3        		.byte	-13
 24268 035f DE        		.byte	-34
 24269 0360 41        		.byte	65
 24270 0361 BE        		.byte	-66
 24271 0362 84        		.byte	-124
 24272 0363 7D        		.byte	125
 24273 0364 D4        		.byte	-44
 24274 0365 DA        		.byte	-38
 24275 0366 1A        		.byte	26
 24276 0367 EB        		.byte	-21
 24277 0368 E4        		.byte	-28
 24278 0369 DD        		.byte	-35
 24279 036a 6D        		.byte	109
 24280 036b 51        		.byte	81
 24281 036c B5        		.byte	-75
 24282 036d D4        		.byte	-44
 24283 036e F4        		.byte	-12
 24284 036f C7        		.byte	-57
 24285 0370 85        		.byte	-123
 24286 0371 D3        		.byte	-45
 24287 0372 83        		.byte	-125
 24288 0373 56        		.byte	86
 24289 0374 98        		.byte	-104
 24290 0375 6C        		.byte	108
 24291 0376 13        		.byte	19
 24292 0377 C0        		.byte	-64
 24293 0378 A8        		.byte	-88
 24294 0379 6B        		.byte	107
 24295 037a 64        		.byte	100
 24296 037b 7A        		.byte	122
 24297 037c F9        		.byte	-7
 24298 037d 62        		.byte	98
 24299 037e FD        		.byte	-3
 24300 037f EC        		.byte	-20
 24301 0380 C9        		.byte	-55
 24302 0381 65        		.byte	101
 24303 0382 8A        		.byte	-118
 24304 0383 4F        		.byte	79
 24305 0384 5C        		.byte	92
 24306 0385 01        		.byte	1
 24307 0386 14        		.byte	20
 24308 0387 D9        		.byte	-39
 24309 0388 6C        		.byte	108
 24310 0389 06        		.byte	6
 24311 038a 63        		.byte	99
 24312 038b 63        		.byte	99
 24313 038c 3D        		.byte	61
 24314 038d 0F        		.byte	15
 24315 038e FA        		.byte	-6
 24316 038f F5        		.byte	-11
 24317 0390 0D        		.byte	13
 24318 0391 08        		.byte	8
 24319 0392 8D        		.byte	-115
 24320 0393 C8        		.byte	-56
 24321 0394 20        		.byte	32
 24322 0395 6E        		.byte	110
 24323 0396 3B        		.byte	59
 24324 0397 5E        		.byte	94
 24325 0398 10        		.byte	16
 24326 0399 69        		.byte	105
 24327 039a 4C        		.byte	76
 24328 039b E4        		.byte	-28
 24329 039c 41        		.byte	65
 24330 039d 60        		.byte	96
 24331 039e D5        		.byte	-43
 24332 039f 72        		.byte	114
 24333 03a0 71        		.byte	113
 24334 03a1 67        		.byte	103
 24335 03a2 A2        		.byte	-94
 24336 03a3 D1        		.byte	-47
 24337 03a4 E4        		.byte	-28
 24338 03a5 03        		.byte	3
 24339 03a6 3C        		.byte	60
 24340 03a7 47        		.byte	71
 24341 03a8 D4        		.byte	-44
 24342 03a9 04        		.byte	4
 24343 03aa 4B        		.byte	75
 24344 03ab FD        		.byte	-3
 24345 03ac 85        		.byte	-123
 24346 03ad 0D        		.byte	13
 24347 03ae D2        		.byte	-46
 24348 03af 6B        		.byte	107
 24349 03b0 B5        		.byte	-75
 24350 03b1 0A        		.byte	10
 24351 03b2 A5        		.byte	-91
 24352 03b3 FA        		.byte	-6
 24353 03b4 A8        		.byte	-88
 24354 03b5 B5        		.byte	-75
 24355 03b6 35        		.byte	53
 24356 03b7 6C        		.byte	108
 24357 03b8 98        		.byte	-104
 24358 03b9 B2        		.byte	-78
 24359 03ba 42        		.byte	66
 24360 03bb D6        		.byte	-42
 24361 03bc C9        		.byte	-55
 24362 03bd BB        		.byte	-69
 24363 03be DB        		.byte	-37
 24364 03bf 40        		.byte	64
 24365 03c0 F9        		.byte	-7
 24366 03c1 BC        		.byte	-68
 24367 03c2 AC        		.byte	-84
 24368 03c3 E3        		.byte	-29
 24369 03c4 6C        		.byte	108
 24370 03c5 D8        		.byte	-40
 24371 03c6 32        		.byte	50
 24372 03c7 75        		.byte	117
 24373 03c8 5C        		.byte	92
 24374 03c9 DF        		.byte	-33
 24375 03ca 45        		.byte	69
 24376 03cb CF        		.byte	-49
 24377 03cc 0D        		.byte	13
 24378 03cd D6        		.byte	-42
 24379 03ce DC        		.byte	-36
 24380 03cf 59        		.byte	89
 24381 03d0 3D        		.byte	61
 24382 03d1 D1        		.byte	-47
 24383 03d2 AB        		.byte	-85
 24384 03d3 AC        		.byte	-84
 24385 03d4 30        		.byte	48
 24386 03d5 D9        		.byte	-39
 24387 03d6 26        		.byte	38
 24388 03d7 3A        		.byte	58
 24389 03d8 00        		.byte	0
 24390 03d9 DE        		.byte	-34
 24391 03da 51        		.byte	81
 24392 03db 80        		.byte	-128
 24393 03dc 51        		.byte	81
 24394 03dd D7        		.byte	-41
 24395 03de C8        		.byte	-56
 24396 03df 16        		.byte	22
 24397 03e0 61        		.byte	97
 24398 03e1 D0        		.byte	-48
 24399 03e2 BF        		.byte	-65
 24400 03e3 B5        		.byte	-75
 24401 03e4 F4        		.byte	-12
 24402 03e5 B4        		.byte	-76
 24403 03e6 21        		.byte	33
 24404 03e7 23        		.byte	35
 24405 03e8 C4        		.byte	-60
 24406 03e9 B3        		.byte	-77
 24407 03ea 56        		.byte	86
 24408 03eb 99        		.byte	-103
 24409 03ec 95        		.byte	-107
 24410 03ed BA        		.byte	-70
 24411 03ee CF        		.byte	-49
 24412 03ef 0F        		.byte	15
 24413 03f0 A5        		.byte	-91
 24414 03f1 BD        		.byte	-67
 24415 03f2 B8        		.byte	-72
 24416 03f3 9E        		.byte	-98
 24417 03f4 B8        		.byte	-72
 24418 03f5 02        		.byte	2
 24419 03f6 28        		.byte	40
 24420 03f7 08        		.byte	8
 24421 03f8 88        		.byte	-120
 24422 03f9 05        		.byte	5
 24423 03fa 5F        		.byte	95
 24424 03fb B2        		.byte	-78
 24425 03fc D9        		.byte	-39
 24426 03fd 0C        		.byte	12
 24427 03fe C6        		.byte	-58
 24428 03ff 24        		.byte	36
 24429 0400 E9        		.byte	-23
 24430 0401 0B        		.byte	11
 24431 0402 B1        		.byte	-79
 24432 0403 87        		.byte	-121
 24433 0404 7C        		.byte	124
 24434 0405 6F        		.byte	111
 24435 0406 2F        		.byte	47
 24436 0407 11        		.byte	17
 24437 0408 4C        		.byte	76
 24438 0409 68        		.byte	104
 24439 040a 58        		.byte	88
 24440 040b AB        		.byte	-85
 24441 040c 1D        		.byte	29
 24442 040d 61        		.byte	97
 24443 040e C1        		.byte	-63
 24444 040f 3D        		.byte	61
 24445 0410 2D        		.byte	45
 24446 0411 66        		.byte	102
 24447 0412 B6        		.byte	-74
 24448 0413 90        		.byte	-112
 24449 0414 41        		.byte	65
 24450 0415 DC        		.byte	-36
 24451 0416 76        		.byte	118
 24452 0417 06        		.byte	6
 24453 0418 71        		.byte	113
 24454 0419 DB        		.byte	-37
 24455 041a 01        		.byte	1
 24456 041b BC        		.byte	-68
 24457 041c 20        		.byte	32
 24458 041d D2        		.byte	-46
 24459 041e 98        		.byte	-104
 24460 041f 2A        		.byte	42
 24461 0420 10        		.byte	16
 24462 0421 D5        		.byte	-43
 24463 0422 EF        		.byte	-17
 24464 0423 89        		.byte	-119
 24465 0424 85        		.byte	-123
 24466 0425 B1        		.byte	-79
 24467 0426 71        		.byte	113
 24468 0427 1F        		.byte	31
 24469 0428 B5        		.byte	-75
 24470 0429 B6        		.byte	-74
 24471 042a 06        		.byte	6
 24472 042b A5        		.byte	-91
 24473 042c E4        		.byte	-28
 24474 042d BF        		.byte	-65
 24475 042e 9F        		.byte	-97
 24476 042f 33        		.byte	51
 24477 0430 D4        		.byte	-44
 24478 0431 B8        		.byte	-72
 24479 0432 E8        		.byte	-24
 24480 0433 A2        		.byte	-94
 24481 0434 C9        		.byte	-55
 24482 0435 07        		.byte	7
 24483 0436 78        		.byte	120
 24484 0437 34        		.byte	52
 24485 0438 F9        		.byte	-7
 24486 0439 00        		.byte	0
 24487 043a 0F        		.byte	15
 24488 043b 8E        		.byte	-114
 24489 043c A8        		.byte	-88
 24490 043d 09        		.byte	9
 24491 043e 96        		.byte	-106
 24492 043f 18        		.byte	24
 24493 0440 98        		.byte	-104
 24494 0441 0E        		.byte	14
 24495 0442 E1        		.byte	-31
 24496 0443 BB        		.byte	-69
 24497 0444 0D        		.byte	13
 24498 0445 6A        		.byte	106
 24499 0446 7F        		.byte	127
 24500 0447 2D        		.byte	45
 24501 0448 3D        		.byte	61
 24502 0449 6D        		.byte	109
 24503 044a 08        		.byte	8
 24504 044b 97        		.byte	-105
 24505 044c 6C        		.byte	108
 24506 044d 64        		.byte	100
 24507 044e 91        		.byte	-111
 24508 044f 01        		.byte	1
 24509 0450 5C        		.byte	92
 24510 0451 63        		.byte	99
 24511 0452 E6        		.byte	-26
 24512 0453 F4        		.byte	-12
 24513 0454 51        		.byte	81
 24514 0455 6B        		.byte	107
 24515 0456 6B        		.byte	107
 24516 0457 62        		.byte	98
 24517 0458 61        		.byte	97
 24518 0459 6C        		.byte	108
 24519 045a 1C        		.byte	28
 24520 045b D8        		.byte	-40
 24521 045c 30        		.byte	48
 24522 045d 65        		.byte	101
 24523 045e 85        		.byte	-123
 24524 045f 4E        		.byte	78
 24525 0460 00        		.byte	0
 24526 0461 62        		.byte	98
 24527 0462 F2        		.byte	-14
 24528 0463 ED        		.byte	-19
 24529 0464 95        		.byte	-107
 24530 0465 06        		.byte	6
 24531 0466 6C        		.byte	108
 24532 0467 7B        		.byte	123
 24533 0468 A5        		.byte	-91
 24534 0469 01        		.byte	1
 24535 046a 1B        		.byte	27
 24536 046b C1        		.byte	-63
 24537 046c F4        		.byte	-12
 24538 046d 08        		.byte	8
 24539 046e 82        		.byte	-126
 24540 046f 57        		.byte	87
 24541 0470 C4        		.byte	-60
 24542 0471 0F        		.byte	15
 24543 0472 F5        		.byte	-11
 24544 0473 C6        		.byte	-58
 24545 0474 D9        		.byte	-39
 24546 0475 B0        		.byte	-80
 24547 0476 65        		.byte	101
 24548 0477 50        		.byte	80
 24549 0478 E9        		.byte	-23
 24550 0479 B7        		.byte	-73
 24551 047a 12        		.byte	18
 24552 047b EA        		.byte	-22
 24553 047c B8        		.byte	-72
 24554 047d BE        		.byte	-66
 24555 047e 8B        		.byte	-117
 24556 047f 7C        		.byte	124
 24557 0480 88        		.byte	-120
 24558 0481 B9        		.byte	-71
 24559 0482 FC        		.byte	-4
 24560 0483 DF        		.byte	-33
 24561 0484 1D        		.byte	29
 24562 0485 DD        		.byte	-35
 24563 0486 62        		.byte	98
 24564 0487 49        		.byte	73
 24565 0488 2D        		.byte	45
 24566 0489 DA        		.byte	-38
 24567 048a 15        		.byte	21
 24568 048b F3        		.byte	-13
 24569 048c 7C        		.byte	124
 24570 048d D3        		.byte	-45
 24571 048e 8C        		.byte	-116
 24572 048f 65        		.byte	101
 24573 0490 4C        		.byte	76
 24574 0491 D4        		.byte	-44
 24575 0492 FB        		.byte	-5
 24576 0493 58        		.byte	88
 24577 0494 61        		.byte	97
 24578 0495 B2        		.byte	-78
 24579 0496 4D        		.byte	77
 24580 0497 CE        		.byte	-50
 24581 0498 51        		.byte	81
 24582 0499 B5        		.byte	-75
 24583 049a 3A        		.byte	58
 24584 049b 74        		.byte	116
 24585 049c 00        		.byte	0
 24586 049d BC        		.byte	-68
 24587 049e A3        		.byte	-93
 24588 049f E2        		.byte	-30
 24589 04a0 30        		.byte	48
 24590 04a1 BB        		.byte	-69
 24591 04a2 D4        		.byte	-44
 24592 04a3 41        		.byte	65
 24593 04a4 A5        		.byte	-91
 24594 04a5 DF        		.byte	-33
 24595 04a6 4A        		.byte	74
 24596 04a7 D7        		.byte	-41
 24597 04a8 95        		.byte	-107
 24598 04a9 D8        		.byte	-40
 24599 04aa 3D        		.byte	61
 24600 04ab 6D        		.byte	109
 24601 04ac C4        		.byte	-60
 24602 04ad D1        		.byte	-47
 24603 04ae A4        		.byte	-92
 24604 04af FB        		.byte	-5
 24605 04b0 F4        		.byte	-12
 24606 04b1 D6        		.byte	-42
 24607 04b2 D3        		.byte	-45
 24608 04b3 6A        		.byte	106
 24609 04b4 E9        		.byte	-23
 24610 04b5 69        		.byte	105
 24611 04b6 43        		.byte	67
 24612 04b7 FC        		.byte	-4
 24613 04b8 D9        		.byte	-39
 24614 04b9 6E        		.byte	110
 24615 04ba 34        		.byte	52
 24616 04bb 46        		.byte	70
 24617 04bc 88        		.byte	-120
 24618 04bd 67        		.byte	103
 24619 04be AD        		.byte	-83
 24620 04bf D0        		.byte	-48
 24621 04c0 B8        		.byte	-72
 24622 04c1 60        		.byte	96
 24623 04c2 DA        		.byte	-38
 24624 04c3 73        		.byte	115
 24625 04c4 2D        		.byte	45
 24626 04c5 04        		.byte	4
 24627 04c6 44        		.byte	68
 24628 04c7 E5        		.byte	-27
 24629 04c8 1D        		.byte	29
 24630 04c9 03        		.byte	3
 24631 04ca 33        		.byte	51
 24632 04cb 5F        		.byte	95
 24633 04cc 4C        		.byte	76
 24634 04cd 0A        		.byte	10
 24635 04ce AA        		.byte	-86
 24636 04cf C9        		.byte	-55
 24637 04d0 7C        		.byte	124
 24638 04d1 0D        		.byte	13
 24639 04d2 DD        		.byte	-35
 24640 04d3 3C        		.byte	60
 24641 04d4 71        		.byte	113
 24642 04d5 05        		.byte	5
 24643 04d6 50        		.byte	80
 24644 04d7 AA        		.byte	-86
 24645 04d8 41        		.byte	65
 24646 04d9 02        		.byte	2
 24647 04da 27        		.byte	39
 24648 04db 10        		.byte	16
 24649 04dc 10        		.byte	16
 24650 04dd 0B        		.byte	11
 24651 04de BE        		.byte	-66
 24652 04df 86        		.byte	-122
 24653 04e0 20        		.byte	32
 24654 04e1 0C        		.byte	12
 24655 04e2 C9        		.byte	-55
 24656 04e3 25        		.byte	37
 24657 04e4 B5        		.byte	-75
 24658 04e5 68        		.byte	104
 24659 04e6 57        		.byte	87
 24660 04e7 B3        		.byte	-77
 24661 04e8 85        		.byte	-123
 24662 04e9 6F        		.byte	111
 24663 04ea 20        		.byte	32
 24664 04eb 09        		.byte	9
 24665 04ec D4        		.byte	-44
 24666 04ed 66        		.byte	102
 24667 04ee B9        		.byte	-71
 24668 04ef 9F        		.byte	-97
 24669 04f0 E4        		.byte	-28
 24670 04f1 61        		.byte	97
 24671 04f2 CE        		.byte	-50
 24672 04f3 0E        		.byte	14
 24673 04f4 F9        		.byte	-7
 24674 04f5 DE        		.byte	-34
 24675 04f6 5E        		.byte	94
 24676 04f7 98        		.byte	-104
 24677 04f8 C9        		.byte	-55
 24678 04f9 D9        		.byte	-39
 24679 04fa 29        		.byte	41
 24680 04fb 22        		.byte	34
 24681 04fc 98        		.byte	-104
 24682 04fd D0        		.byte	-48
 24683 04fe B0        		.byte	-80
 24684 04ff B4        		.byte	-76
 24685 0500 A8        		.byte	-88
 24686 0501 D7        		.byte	-41
 24687 0502 C7        		.byte	-57
 24688 0503 17        		.byte	23
 24689 0504 3D        		.byte	61
 24690 0505 B3        		.byte	-77
 24691 0506 59        		.byte	89
 24692 0507 81        		.byte	-127
 24693 0508 0D        		.byte	13
 24694 0509 B4        		.byte	-76
 24695 050a 2E        		.byte	46
 24696 050b 3B        		.byte	59
 24697 050c 5C        		.byte	92
 24698 050d BD        		.byte	-67
 24699 050e B7        		.byte	-73
 24700 050f AD        		.byte	-83
 24701 0510 6C        		.byte	108
 24702 0511 BA        		.byte	-70
 24703 0512 C0        		.byte	-64
 24704 0513 20        		.byte	32
 24705 0514 83        		.byte	-125
 24706 0515 B8        		.byte	-72
 24707 0516 ED        		.byte	-19
 24708 0517 B6        		.byte	-74
 24709 0518 B3        		.byte	-77
 24710 0519 BF        		.byte	-65
 24711 051a 9A        		.byte	-102
 24712 051b 0C        		.byte	12
 24713 051c E2        		.byte	-30
 24714 051d B6        		.byte	-74
 24715 051e 03        		.byte	3
 24716 051f 9A        		.byte	-102
 24717 0520 D2        		.byte	-46
 24718 0521 B1        		.byte	-79
 24719 0522 74        		.byte	116
 24720 0523 39        		.byte	57
 24721 0524 47        		.byte	71
 24722 0525 D5        		.byte	-43
 24723 0526 EA        		.byte	-22
 24724 0527 AF        		.byte	-81
 24725 0528 77        		.byte	119
 24726 0529 D2        		.byte	-46
 24727 052a 9D        		.byte	-99
 24728 052b 15        		.byte	21
 24729 052c 26        		.byte	38
 24730 052d DB        		.byte	-37
 24731 052e 04        		.byte	4
 24732 052f 83        		.byte	-125
 24733 0530 16        		.byte	22
 24734 0531 DC        		.byte	-36
 24735 0532 73        		.byte	115
 24736 0533 12        		.byte	18
 24737 0534 0B        		.byte	11
 24738 0535 63        		.byte	99
 24739 0536 E3        		.byte	-29
 24740 0537 84        		.byte	-124
 24741 0538 3B        		.byte	59
 24742 0539 64        		.byte	100
 24743 053a 94        		.byte	-108
 24744 053b 3E        		.byte	62
 24745 053c 6A        		.byte	106
 24746 053d 6D        		.byte	109
 24747 053e 0D        		.byte	13
 24748 053f A8        		.byte	-88
 24749 0540 5A        		.byte	90
 24750 0541 6A        		.byte	106
 24751 0542 7A        		.byte	122
 24752 0543 0B        		.byte	11
 24753 0544 CF        		.byte	-49
 24754 0545 0E        		.byte	14
 24755 0546 E4        		.byte	-28
 24756 0547 9D        		.byte	-99
 24757 0548 FF        		.byte	-1
 24758 0549 09        		.byte	9
 24759 054a 93        		.byte	-109
 24760 054b 27        		.byte	39
 24761 054c AE        		.byte	-82
 24762 054d 00        		.byte	0
 24763 054e 0A        		.byte	10
 24764 054f B1        		.byte	-79
 24765 0550 9E        		.byte	-98
 24766 0551 07        		.byte	7
 24767 0552 7D        		.byte	125
 24768 0553 44        		.byte	68
 24769 0554 93        		.byte	-109
 24770 0555 0F        		.byte	15
 24771 0556 F0        		.byte	-16
 24772 0557 D2        		.byte	-46
 24773 0558 A3        		.byte	-93
 24774 0559 08        		.byte	8
 24775 055a 87        		.byte	-121
 24776 055b 68        		.byte	104
 24777 055c F2        		.byte	-14
 24778 055d 01        		.byte	1
 24779 055e 1E        		.byte	30
 24780 055f FE        		.byte	-2
 24781 0560 C2        		.byte	-62
 24782 0561 06        		.byte	6
 24783 0562 69        		.byte	105
 24784 0563 5D        		.byte	93
 24785 0564 57        		.byte	87
 24786 0565 62        		.byte	98
 24787 0566 F7        		.byte	-9
 24788 0567 CB        		.byte	-53
 24789 0568 67        		.byte	103
 24790 0569 65        		.byte	101
 24791 056a 80        		.byte	-128
 24792 056b 71        		.byte	113
 24793 056c 36        		.byte	54
 24794 056d 6C        		.byte	108
 24795 056e 19        		.byte	25
 24796 056f E7        		.byte	-25
 24797 0570 06        		.byte	6
 24798 0571 6B        		.byte	107
 24799 0572 6E        		.byte	110
 24800 0573 76        		.byte	118
 24801 0574 1B        		.byte	27
 24802 0575 D4        		.byte	-44
 24803 0576 FE        		.byte	-2
 24804 0577 E0        		.byte	-32
 24805 0578 2B        		.byte	43
 24806 0579 D3        		.byte	-45
 24807 057a 89        		.byte	-119
 24808 057b 5A        		.byte	90
 24809 057c 7A        		.byte	122
 24810 057d DA        		.byte	-38
 24811 057e 10        		.byte	16
 24812 057f CC        		.byte	-52
 24813 0580 4A        		.byte	74
 24814 0581 DD        		.byte	-35
 24815 0582 67        		.byte	103
 24816 0583 6F        		.byte	111
 24817 0584 DF        		.byte	-33
 24818 0585 B9        		.byte	-71
 24819 0586 F9        		.byte	-7
 24820 0587 F9        		.byte	-7
 24821 0588 EF        		.byte	-17
 24822 0589 BE        		.byte	-66
 24823 058a 8E        		.byte	-114
 24824 058b 43        		.byte	67
 24825 058c BE        		.byte	-66
 24826 058d B7        		.byte	-73
 24827 058e 17        		.byte	23
 24828 058f D5        		.byte	-43
 24829 0590 8E        		.byte	-114
 24830 0591 B0        		.byte	-80
 24831 0592 60        		.byte	96
 24832 0593 E8        		.byte	-24
 24833 0594 A3        		.byte	-93
 24834 0595 D6        		.byte	-42
 24835 0596 D6        		.byte	-42
 24836 0597 7E        		.byte	126
 24837 0598 93        		.byte	-109
 24838 0599 D1        		.byte	-47
 24839 059a A1        		.byte	-95
 24840 059b C4        		.byte	-60
 24841 059c C2        		.byte	-62
 24842 059d D8        		.byte	-40
 24843 059e 38        		.byte	56
 24844 059f 52        		.byte	82
 24845 05a0 F2        		.byte	-14
 24846 05a1 DF        		.byte	-33
 24847 05a2 4F        		.byte	79
 24848 05a3 F1        		.byte	-15
 24849 05a4 67        		.byte	103
 24850 05a5 BB        		.byte	-69
 24851 05a6 D1        		.byte	-47
 24852 05a7 67        		.byte	103
 24853 05a8 57        		.byte	87
 24854 05a9 BC        		.byte	-68
 24855 05aa A6        		.byte	-90
 24856 05ab DD        		.byte	-35
 24857 05ac 06        		.byte	6
 24858 05ad B5        		.byte	-75
 24859 05ae 3F        		.byte	63
 24860 05af 4B        		.byte	75
 24861 05b0 36        		.byte	54
 24862 05b1 B2        		.byte	-78
 24863 05b2 48        		.byte	72
 24864 05b3 DA        		.byte	-38
 24865 05b4 2B        		.byte	43
 24866 05b5 0D        		.byte	13
 24867 05b6 D8        		.byte	-40
 24868 05b7 4C        		.byte	76
 24869 05b8 1B        		.byte	27
 24870 05b9 0A        		.byte	10
 24871 05ba AF        		.byte	-81
 24872 05bb F6        		.byte	-10
 24873 05bc 4A        		.byte	74
 24874 05bd 03        		.byte	3
 24875 05be 36        		.byte	54
 24876 05bf 60        		.byte	96
 24877 05c0 7A        		.byte	122
 24878 05c1 04        		.byte	4
 24879 05c2 41        		.byte	65
 24880 05c3 C3        		.byte	-61
 24881 05c4 EF        		.byte	-17
 24882 05c5 60        		.byte	96
 24883 05c6 DF        		.byte	-33
 24884 05c7 55        		.byte	85
 24885 05c8 DF        		.byte	-33
 24886 05c9 67        		.byte	103
 24887 05ca A8        		.byte	-88
 24888 05cb EF        		.byte	-17
 24889 05cc 8E        		.byte	-114
 24890 05cd 6E        		.byte	110
 24891 05ce 31        		.byte	49
 24892 05cf 79        		.byte	121
 24893 05d0 BE        		.byte	-66
 24894 05d1 69        		.byte	105
 24895 05d2 46        		.byte	70
 24896 05d3 8C        		.byte	-116
 24897 05d4 B3        		.byte	-77
 24898 05d5 61        		.byte	97
 24899 05d6 CB        		.byte	-53
 24900 05d7 1A        		.byte	26
 24901 05d8 83        		.byte	-125
 24902 05d9 66        		.byte	102
 24903 05da BC        		.byte	-68
 24904 05db A0        		.byte	-96
 24905 05dc D2        		.byte	-46
 24906 05dd 6F        		.byte	111
 24907 05de 25        		.byte	37
 24908 05df 36        		.byte	54
 24909 05e0 E2        		.byte	-30
 24910 05e1 68        		.byte	104
 24911 05e2 52        		.byte	82
 24912 05e3 95        		.byte	-107
 24913 05e4 77        		.byte	119
 24914 05e5 0C        		.byte	12
 24915 05e6 CC        		.byte	-52
 24916 05e7 03        		.byte	3
 24917 05e8 47        		.byte	71
 24918 05e9 0B        		.byte	11
 24919 05ea BB        		.byte	-69
 24920 05eb B9        		.byte	-71
 24921 05ec 16        		.byte	22
 24922 05ed 02        		.byte	2
 24923 05ee 22        		.byte	34
 24924 05ef 2F        		.byte	47
 24925 05f0 26        		.byte	38
 24926 05f1 05        		.byte	5
 24927 05f2 55        		.byte	85
 24928 05f3 BE        		.byte	-66
 24929 05f4 3B        		.byte	59
 24930 05f5 BA        		.byte	-70
 24931 05f6 C5        		.byte	-59
 24932 05f7 28        		.byte	40
 24933 05f8 0B        		.byte	11
 24934 05f9 BD        		.byte	-67
 24935 05fa B2        		.byte	-78
 24936 05fb 92        		.byte	-110
 24937 05fc 5A        		.byte	90
 24938 05fd B4        		.byte	-76
 24939 05fe 2B        		.byte	43
 24940 05ff 04        		.byte	4
 24941 0600 6A        		.byte	106
 24942 0601 B3        		.byte	-77
 24943 0602 5C        		.byte	92
 24944 0603 A7        		.byte	-89
 24945 0604 FF        		.byte	-1
 24946 0605 D7        		.byte	-41
 24947 0606 C2        		.byte	-62
 24948 0607 31        		.byte	49
 24949 0608 CF        		.byte	-49
 24950 0609 D0        		.byte	-48
 24951 060a B5        		.byte	-75
 24952 060b 8B        		.byte	-117
 24953 060c 9E        		.byte	-98
 24954 060d D9        		.byte	-39
 24955 060e 2C        		.byte	44
 24956 060f 1D        		.byte	29
 24957 0610 AE        		.byte	-82
 24958 0611 DE        		.byte	-34
 24959 0612 5B        		.byte	91
 24960 0613 B0        		.byte	-80
 24961 0614 C2        		.byte	-62
 24962 0615 64        		.byte	100
 24963 0616 9B        		.byte	-101
 24964 0617 26        		.byte	38
 24965 0618 F2        		.byte	-14
 24966 0619 63        		.byte	99
 24967 061a EC        		.byte	-20
 24968 061b 9C        		.byte	-100
 24969 061c A3        		.byte	-93
 24970 061d 6A        		.byte	106
 24971 061e 75        		.byte	117
 24972 061f 0A        		.byte	10
 24973 0620 93        		.byte	-109
 24974 0621 6D        		.byte	109
 24975 0622 02        		.byte	2
 24976 0623 A9        		.byte	-87
 24977 0624 06        		.byte	6
 24978 0625 09        		.byte	9
 24979 0626 9C        		.byte	-100
 24980 0627 3F        		.byte	63
 24981 0628 36        		.byte	54
 24982 0629 0E        		.byte	14
 24983 062a EB        		.byte	-21
 24984 062b 85        		.byte	-123
 24985 062c 67        		.byte	103
 24986 062d 07        		.byte	7
 24987 062e 72        		.byte	114
 24988 062f 13        		.byte	19
 24989 0630 57        		.byte	87
 24990 0631 00        		.byte	0
 24991 0632 05        		.byte	5
 24992 0633 82        		.byte	-126
 24993 0634 4A        		.byte	74
 24994 0635 BF        		.byte	-65
 24995 0636 95        		.byte	-107
 24996 0637 14        		.byte	20
 24997 0638 7A        		.byte	122
 24998 0639 B8        		.byte	-72
 24999 063a E2        		.byte	-30
 25000 063b AE        		.byte	-82
 25001 063c 2B        		.byte	43
 25002 063d B1        		.byte	-79
 25003 063e 7B        		.byte	123
 25004 063f 38        		.byte	56
 25005 0640 1B        		.byte	27
 25006 0641 B6        		.byte	-74
 25007 0642 0C        		.byte	12
 25008 0643 9B        		.byte	-101
 25009 0644 8E        		.byte	-114
 25010 0645 D2        		.byte	-46
 25011 0646 92        		.byte	-110
 25012 0647 0D        		.byte	13
 25013 0648 BE        		.byte	-66
 25014 0649 D5        		.byte	-43
 25015 064a E5        		.byte	-27
 25016 064b B7        		.byte	-73
 25017 064c EF        		.byte	-17
 25018 064d DC        		.byte	-36
 25019 064e 7C        		.byte	124
 25020 064f 21        		.byte	33
 25021 0650 DF        		.byte	-33
 25022 0651 DB        		.byte	-37
 25023 0652 0B        		.byte	11
 25024 0653 D4        		.byte	-44
 25025 0654 D2        		.byte	-46
 25026 0655 D3        		.byte	-45
 25027 0656 86        		.byte	-122
 25028 0657 42        		.byte	66
 25029 0658 E2        		.byte	-30
 25030 0659 D4        		.byte	-44
 25031 065a F1        		.byte	-15
 25032 065b F8        		.byte	-8
 25033 065c B3        		.byte	-77
 25034 065d DD        		.byte	-35
 25035 065e 68        		.byte	104
 25036 065f 6E        		.byte	110
 25037 0660 83        		.byte	-125
 25038 0661 DA        		.byte	-38
 25039 0662 1F        		.byte	31
 25040 0663 CD        		.byte	-51
 25041 0664 16        		.byte	22
 25042 0665 BE        		.byte	-66
 25043 0666 81        		.byte	-127
 25044 0667 5B        		.byte	91
 25045 0668 26        		.byte	38
 25046 0669 B9        		.byte	-71
 25047 066a F6        		.byte	-10
 25048 066b E1        		.byte	-31
 25049 066c 77        		.byte	119
 25050 066d B0        		.byte	-80
 25051 066e 6F        		.byte	111
 25052 066f 77        		.byte	119
 25053 0670 47        		.byte	71
 25054 0671 B7        		.byte	-73
 25055 0672 18        		.byte	24
 25056 0673 E6        		.byte	-26
 25057 0674 5A        		.byte	90
 25058 0675 08        		.byte	8
 25059 0676 88        		.byte	-120
 25060 0677 70        		.byte	112
 25061 0678 6A        		.byte	106
 25062 0679 0F        		.byte	15
 25063 067a FF        		.byte	-1
 25064 067b CA        		.byte	-54
 25065 067c 3B        		.byte	59
 25066 067d 06        		.byte	6
 25067 067e 66        		.byte	102
 25068 067f 5C        		.byte	92
 25069 0680 0B        		.byte	11
 25070 0681 01        		.byte	1
 25071 0682 11        		.byte	17
 25072 0683 FF        		.byte	-1
 25073 0684 9E        		.byte	-98
 25074 0685 65        		.byte	101
 25075 0686 8F        		.byte	-113
 25076 0687 69        		.byte	105
 25077 0688 AE        		.byte	-82
 25078 0689 62        		.byte	98
 25079 068a F8        		.byte	-8
 25080 068b D3        		.byte	-45
 25081 068c FF        		.byte	-1
 25082 068d 6B        		.byte	107
 25083 068e 61        		.byte	97
 25084 068f 45        		.byte	69
 25085 0690 CF        		.byte	-49
 25086 0691 6C        		.byte	108
 25087 0692 16        		.byte	22
 25088 0693 78        		.byte	120
 25089 0694 E2        		.byte	-30
 25090 0695 0A        		.byte	10
 25091 0696 A0        		.byte	-96
 25092 0697 EE        		.byte	-18
 25093 0698 D2        		.byte	-46
 25094 0699 0D        		.byte	13
 25095 069a D7        		.byte	-41
 25096 069b 54        		.byte	84
 25097 069c 83        		.byte	-125
 25098 069d 04        		.byte	4
 25099 069e 4E        		.byte	78
 25100 069f C2        		.byte	-62
 25101 06a0 B3        		.byte	-77
 25102 06a1 03        		.byte	3
 25103 06a2 39        		.byte	57
 25104 06a3 61        		.byte	97
 25105 06a4 26        		.byte	38
 25106 06a5 67        		.byte	103
 25107 06a6 A7        		.byte	-89
 25108 06a7 F7        		.byte	-9
 25109 06a8 16        		.byte	22
 25110 06a9 60        		.byte	96
 25111 06aa D0        		.byte	-48
 25112 06ab 4D        		.byte	77
 25113 06ac 47        		.byte	71
 25114 06ad 69        		.byte	105
 25115 06ae 49        		.byte	73
 25116 06af DB        		.byte	-37
 25117 06b0 77        		.byte	119
 25118 06b1 6E        		.byte	110
 25119 06b2 3E        		.byte	62
 25120 06b3 4A        		.byte	74
 25121 06b4 6A        		.byte	106
 25122 06b5 D1        		.byte	-47
 25123 06b6 AE        		.byte	-82
 25124 06b7 DC        		.byte	-36
 25125 06b8 5A        		.byte	90
 25126 06b9 D6        		.byte	-42
 25127 06ba D9        		.byte	-39
 25128 06bb 66        		.byte	102
 25129 06bc 0B        		.byte	11
 25130 06bd DF        		.byte	-33
 25131 06be 40        		.byte	64
 25132 06bf F0        		.byte	-16
 25133 06c0 3B        		.byte	59
 25134 06c1 D8        		.byte	-40
 25135 06c2 37        		.byte	55
 25136 06c3 53        		.byte	83
 25137 06c4 AE        		.byte	-82
 25138 06c5 BC        		.byte	-68
 25139 06c6 A9        		.byte	-87
 25140 06c7 C5        		.byte	-59
 25141 06c8 9E        		.byte	-98
 25142 06c9 BB        		.byte	-69
 25143 06ca DE        		.byte	-34
 25144 06cb 7F        		.byte	127
 25145 06cc CF        		.byte	-49
 25146 06cd B2        		.byte	-78
 25147 06ce 47        		.byte	71
 25148 06cf E9        		.byte	-23
 25149 06d0 FF        		.byte	-1
 25150 06d1 B5        		.byte	-75
 25151 06d2 30        		.byte	48
 25152 06d3 1C        		.byte	28
 25153 06d4 F2        		.byte	-14
 25154 06d5 BD        		.byte	-67
 25155 06d6 BD        		.byte	-67
 25156 06d7 8A        		.byte	-118
 25157 06d8 C2        		.byte	-62
 25158 06d9 BA        		.byte	-70
 25159 06da CA        		.byte	-54
 25160 06db 30        		.byte	48
 25161 06dc 93        		.byte	-109
 25162 06dd B3        		.byte	-77
 25163 06de 53        		.byte	83
 25164 06df A6        		.byte	-90
 25165 06e0 A3        		.byte	-93
 25166 06e1 B4        		.byte	-76
 25167 06e2 24        		.byte	36
 25168 06e3 05        		.byte	5
 25169 06e4 36        		.byte	54
 25170 06e5 D0        		.byte	-48
 25171 06e6 BA        		.byte	-70
 25172 06e7 93        		.byte	-109
 25173 06e8 06        		.byte	6
 25174 06e9 D7        		.byte	-41
 25175 06ea CD        		.byte	-51
 25176 06eb 29        		.byte	41
 25177 06ec 57        		.byte	87
 25178 06ed DE        		.byte	-34
 25179 06ee 54        		.byte	84
 25180 06ef BF        		.byte	-65
 25181 06f0 67        		.byte	103
 25182 06f1 D9        		.byte	-39
 25183 06f2 23        		.byte	35
 25184 06f3 2E        		.byte	46
 25185 06f4 7A        		.byte	122
 25186 06f5 66        		.byte	102
 25187 06f6 B3        		.byte	-77
 25188 06f7 B8        		.byte	-72
 25189 06f8 4A        		.byte	74
 25190 06f9 61        		.byte	97
 25191 06fa C4        		.byte	-60
 25192 06fb 02        		.byte	2
 25193 06fc 1B        		.byte	27
 25194 06fd 68        		.byte	104
 25195 06fe 5D        		.byte	93
 25196 06ff 94        		.byte	-108
 25197 0700 2B        		.byte	43
 25198 0701 6F        		.byte	111
 25199 0702 2A        		.byte	42
 25200 0703 37        		.byte	55
 25201 0704 BE        		.byte	-66
 25202 0705 0B        		.byte	11
 25203 0706 B4        		.byte	-76
 25204 0707 A1        		.byte	-95
 25205 0708 8E        		.byte	-114
 25206 0709 0C        		.byte	12
 25207 070a C3        		.byte	-61
 25208 070b 1B        		.byte	27
 25209 070c DF        		.byte	-33
 25210 070d 05        		.byte	5
 25211 070e 5A        		.byte	90
 25212 070f 8D        		.byte	-115
 25213 0710 EF        		.byte	-17
 25214 0711 02        		.byte	2
 25215 0712 2D        		.byte	45
 25216               	.global	HZ_RefeshCounter
 25217               	.global	HZ_RefeshCounter
 25218               		.section .bss
 25221               	HZ_RefeshCounter:
 25222 0030 0000      		.skip 2,0
 25223               	.global	HZ_RefeshCounter2
 25224               	.global	HZ_RefeshCounter2
 25227               	HZ_RefeshCounter2:
 25228 0032 0000      		.skip 2,0
 25229               	.global	ekgCounter
 25230               	.global	ekgCounter
 25233               	ekgCounter:
 25234 0034 0000      		.skip 2,0
 25235               	.global	tempTime
 25236               	.global	tempTime
 25239               	tempTime:
 25240 0036 0000 0000 		.skip 4,0
 25241               	.global	commandCounter
 25242               		.data
 25245               	commandCounter:
 25246 0713 30        		.byte	48
 25247               	.global	timeOutCounter
 25248               	.global	timeOutCounter
 25249               		.section .bss
 25252               	timeOutCounter:
 25253 003a 0000      		.skip 2,0
 25254               	.global	uploadFileSize
 25255               	.global	uploadFileSize
 25258               	uploadFileSize:
 25259 003c 0000 0000 		.skip 4,0
 25260               	.global	uploadPercentBS
 25261               	.global	uploadPercentBS
 25264               	uploadPercentBS:
 25265 0040 00        		.skip 1,0
 25266               	.global	numberOfPacketsToUpload
 25267               	.global	numberOfPacketsToUpload
 25270               	numberOfPacketsToUpload:
 25271 0041 0000 0000 		.skip 4,0
 25272               	.global	leftOverBytesToUpload
 25273               	.global	leftOverBytesToUpload
 25276               	leftOverBytesToUpload:
 25277 0045 0000 0000 		.skip 4,0
 25278               	.global	connected
 25279               	.global	connected
 25282               	connected:
 25283 0049 00        		.skip 1,0
 25284               	.global	uploading
 25285               	.global	uploading
 25288               	uploading:
 25289 004a 00        		.skip 1,0
 25290               	.global	okToOpenDirectory
 25291               	.global	okToOpenDirectory
 25294               	okToOpenDirectory:
 25295 004b 00        		.skip 1,0
 25296               	.global	okToGrabNextFileName
 25297               	.global	okToGrabNextFileName
 25300               	okToGrabNextFileName:
 25301 004c 00        		.skip 1,0
 25302               	.global	okToUpload
 25303               	.global	okToUpload
 25306               	okToUpload:
 25307 004d 00        		.skip 1,0
 25308               	.global	doneUploading
 25309               	.global	doneUploading
 25312               	doneUploading:
 25313 004e 00        		.skip 1,0
 25314               	.global	okToOpenFileToUpload
 25315               	.global	okToOpenFileToUpload
 25318               	okToOpenFileToUpload:
 25319 004f 00        		.skip 1,0
 25320               	.global	uploadFileOpened
 25321               	.global	uploadFileOpened
 25324               	uploadFileOpened:
 25325 0050 00        		.skip 1,0
 25326               	.global	okToFillUploadFileBuffer
 25327               	.global	okToFillUploadFileBuffer
 25330               	okToFillUploadFileBuffer:
 25331 0051 00        		.skip 1,0
 25332               	.global	uploadFileBufferFull
 25333               	.global	uploadFileBufferFull
 25336               	uploadFileBufferFull:
 25337 0052 00        		.skip 1,0
 25338               	.global	okToCloseUploadFile
 25339               	.global	okToCloseUploadFile
 25342               	okToCloseUploadFile:
 25343 0053 00        		.skip 1,0
 25344               	.global	okToEraseFile
 25345               	.global	okToEraseFile
 25348               	okToEraseFile:
 25349 0054 00        		.skip 1,0
 25350               	.global	fileExists
 25351               	.global	fileExists
 25354               	fileExists:
 25355 0055 00        		.skip 1,0
 25356               	.global	timeIsValid
 25357               	.global	timeIsValid
 25360               	timeIsValid:
 25361 0056 00        		.skip 1,0
 25362               	.global	okToOpenLogFile
 25363               	.global	okToOpenLogFile
 25366               	okToOpenLogFile:
 25367 0057 00        		.skip 1,0
 25368               	.global	okToWriteToLogFile
 25369               	.global	okToWriteToLogFile
 25372               	okToWriteToLogFile:
 25373 0058 00        		.skip 1,0
 25374               	.global	okToCloseLogFile
 25375               	.global	okToCloseLogFile
 25378               	okToCloseLogFile:
 25379 0059 00        		.skip 1,0
 25380               	.global	okToGetRemainingSpace
 25381               	.global	okToGetRemainingSpace
 25384               	okToGetRemainingSpace:
 25385 005a 00        		.skip 1,0
 25386               	.global	restartingFile
 25387               	.global	restartingFile
 25390               	restartingFile:
 25391 005b 00        		.skip 1,0
 25392               	.global	lengthOfCurrentFile
 25393               	.global	lengthOfCurrentFile
 25396               	lengthOfCurrentFile:
 25397 005c 0000      		.skip 2,0
 25398               	.global	syncCounter
 25399               	.global	syncCounter
 25402               	syncCounter:
 25403 005e 0000      		.skip 2,0
 25404               	.global	debounceTimer
 25405               	.global	debounceTimer
 25408               	debounceTimer:
 25409 0060 00        		.skip 1,0
 25410               	.global	debounceEnabled
 25411               	.global	debounceEnabled
 25414               	debounceEnabled:
 25415 0061 00        		.skip 1,0
 25416               	.global	spaceRemainingCounter
 25417               	.global	spaceRemainingCounter
 25420               	spaceRemainingCounter:
 25421 0062 00        		.skip 1,0
 25422               	.global	batteryVoltageOk
 25423               		.data
 25426               	batteryVoltageOk:
 25427 0714 01        		.byte	1
 25430               	cstbl.6370:
 25431 0715 0080      		.word	-32768
 25432 0717 0040      		.word	16384
 25433 0719 0020      		.word	8192
 25434 071b 0010      		.word	4096
 25435 071d 0008      		.word	2048
 25436 071f 0040      		.word	16384
 25437 0721 0020      		.word	8192
 25438 0723 0010      		.word	4096
 25439 0725 0008      		.word	2048
 25440 0727 0004      		.word	1024
 25441 0729 0002      		.word	512
 25444               	sstbl.6369:
 25445 072b 00        		.byte	0
 25446 072c 40        		.byte	64
 25447 072d 1F        		.byte	31
 25448 072e 00        		.byte	0
 25449 072f 00        		.byte	0
 25450 0730 A0        		.byte	-96
 25451 0731 0F        		.byte	15
 25452 0732 00        		.byte	0
 25453 0733 00        		.byte	0
 25454 0734 D0        		.byte	-48
 25455 0735 07        		.byte	7
 25456 0736 00        		.byte	0
 25457 0737 00        		.byte	0
 25458 0738 E8        		.byte	-24
 25459 0739 03        		.byte	3
 25460 073a 00        		.byte	0
 25461 073b 00        		.byte	0
 25462 073c F4        		.byte	-12
 25463 073d 01        		.byte	1
 25464 073e 00        		.byte	0
 25465 073f 00        		.byte	0
 25466 0740 FA        		.byte	-6
 25467 0741 00        		.byte	0
 25468 0742 00        		.byte	0
 25469 0743 00        		.byte	0
 25470 0744 7D        		.byte	125
 25471 0745 00        		.byte	0
 25472 0746 00        		.byte	0
 25473 0747 80        		.byte	-128
 25474 0748 3E        		.byte	62
 25475 0749 00        		.byte	0
 25476 074a 00        		.byte	0
 25477 074b 40        		.byte	64
 25478 074c 1F        		.byte	31
 25479 074d 00        		.byte	0
 25480 074e 00        		.byte	0
 25481 074f A0        		.byte	-96
 25482 0750 0F        		.byte	15
 25483 0751 00        		.byte	0
 25484 0752 00        		.byte	0
 25485 0753 00        		.byte	0
 25486 0754 00        		.byte	0
 25487 0755 00        		.byte	0
 25488 0756 00        		.byte	0
 25491               	Stat:
 25492 0757 01        		.byte	1
 25495               	monthDays:
 25496 0758 1F        		.byte	31
 25497 0759 1C        		.byte	28
 25498 075a 1F        		.byte	31
 25499 075b 1E        		.byte	30
 25500 075c 1F        		.byte	31
 25501 075d 1E        		.byte	30
 25502 075e 1F        		.byte	31
 25503 075f 1F        		.byte	31
 25504 0760 1E        		.byte	30
 25505 0761 1F        		.byte	31
 25506 0762 1E        		.byte	30
 25507 0763 1F        		.byte	31
 25508               		.lcomm Timer1,1
 25509               		.lcomm Timer2,1
 25510               		.lcomm CardType,1
 25511               		.lcomm FatFs,4
 25512               		.lcomm Fsid,2
 25513               		.lcomm fso0,558
 25514               		.lcomm fso1,558
 25515               		.comm deviceID,50,1
 25516               		.comm temperatureSampleStartTime,40,1
 25517               		.comm temperatureBuffer,40,1
 25518               		.comm okToSendTemperatureBuffer,2,1
 25519               		.comm respirationSampleStartTime,200,1
 25520               		.comm respirationBuffer,300,1
 25521               		.comm okToSendRespirationBuffer,3,1
 25522               		.comm EKGSampleStartTime,1200,1
 25523               		.comm EKGBuffer,1800,1
 25524               		.comm okToSendEKGBuffer,3,1
 25525               		.comm humiditySampleStartTime,40,1
 25526               		.comm humidityBuffer,40,1
 25527               		.comm okToSendHumidityBuffer,2,1
 25528               		.comm accelSampleStartTime,1200,1
 25529               		.comm accelBuffer,3600,1
 25530               		.comm okToSendAccelBuffer,2,1
 25531               		.comm DebugBuffer,100,1
 25532               		.comm ledState,2,1
 25533               		.comm ledCounter,2,1
 25534               		.comm time,8,1
 25535               		.comm fs,2,1
 25536               		.comm fno,22,1
 25537               		.comm fno2,22,1
 25538               		.comm dir,22,1
 25539               		.comm Log_File,544,1
 25540               		.comm Upload_File,544,1
 25541               		.comm fileName,20,1
 25542               		.comm tmpString,10,1
 25543               		.comm tmp8,1,1
 25544               		.comm tmp16,2,1
 25545               		.comm tmp32,4,1
 25546               		.comm CRC,4,1
 25547               		.comm currentLogFile,15,1
 25548               		.comm auth,50,1
 25549               		.comm phrase,50,1
 25550               		.comm key,50,1
 25551               		.comm ssid,50,1
 25552               		.comm nickname,50,1
 25553               		.comm port,50,1
 25554               		.comm server,50,1
 25555               		.comm user,10,1
 25556               		.comm daylightTime,10,1
 25557               		.comm demoModeString,10,1
 25558               		.comm fastString,10,1
 25559               		.comm zeroOffsetA,2,1
 25560               		.comm zeroOffsetB,2,1
 25561               		.comm uploadFileBuffer,1000,1
 25562               		.comm fileToUpload,15,1
 25563               		.comm availableFileName,15,1
 25564               		.comm fileToErase,20,1
 25565               		.comm command,50,1
 25566               		.comm eraseFileReturn,1,1
 25567               		.comm uploadCRC,4,1
 25568               		.comm temp,50,1
 26713               	.Letext0:
DEFINED SYMBOLS
                            *ABS*:00000000 mainChestStrap.c
/var/folders/wz/wzM13vx1HuGiQAygYPOM9k+++TI/-Tmp-//ccR7HpQT.s:2      *ABS*:0000003f __SREG__
/var/folders/wz/wzM13vx1HuGiQAygYPOM9k+++TI/-Tmp-//ccR7HpQT.s:3      *ABS*:0000003e __SP_H__
/var/folders/wz/wzM13vx1HuGiQAygYPOM9k+++TI/-Tmp-//ccR7HpQT.s:4      *ABS*:0000003d __SP_L__
/var/folders/wz/wzM13vx1HuGiQAygYPOM9k+++TI/-Tmp-//ccR7HpQT.s:5      *ABS*:00000034 __CCP__
/var/folders/wz/wzM13vx1HuGiQAygYPOM9k+++TI/-Tmp-//ccR7HpQT.s:6      *ABS*:00000000 __tmp_reg__
/var/folders/wz/wzM13vx1HuGiQAygYPOM9k+++TI/-Tmp-//ccR7HpQT.s:7      *ABS*:00000001 __zero_reg__
/var/folders/wz/wzM13vx1HuGiQAygYPOM9k+++TI/-Tmp-//ccR7HpQT.s:18     .text:00000000 CCPWrite
/var/folders/wz/wzM13vx1HuGiQAygYPOM9k+++TI/-Tmp-//ccR7HpQT.s:67     .text:0000002a Debug_CharReadyToRead
/var/folders/wz/wzM13vx1HuGiQAygYPOM9k+++TI/-Tmp-//ccR7HpQT.s:24091  .bss:0000001b Debug_writeLocation
                            *COM*:00000064 DebugBuffer
/var/folders/wz/wzM13vx1HuGiQAygYPOM9k+++TI/-Tmp-//ccR7HpQT.s:24085  .bss:00000019 Debug_readLocation
/var/folders/wz/wzM13vx1HuGiQAygYPOM9k+++TI/-Tmp-//ccR7HpQT.s:112    .text:00000084 Debug_ClearBuffer
/var/folders/wz/wzM13vx1HuGiQAygYPOM9k+++TI/-Tmp-//ccR7HpQT.s:153    .text:000000da Debug_Init
/var/folders/wz/wzM13vx1HuGiQAygYPOM9k+++TI/-Tmp-//ccR7HpQT.s:305    .text:000001b0 Debug_GetByte
/var/folders/wz/wzM13vx1HuGiQAygYPOM9k+++TI/-Tmp-//ccR7HpQT.s:354    .text:000001f6 Debug_SendByte
/var/folders/wz/wzM13vx1HuGiQAygYPOM9k+++TI/-Tmp-//ccR7HpQT.s:24097  .bss:0000001d Debug_timeOutCounter
/var/folders/wz/wzM13vx1HuGiQAygYPOM9k+++TI/-Tmp-//ccR7HpQT.s:437    .text:00000272 Leds_Init
                            *COM*:00000002 ledState
/var/folders/wz/wzM13vx1HuGiQAygYPOM9k+++TI/-Tmp-//ccR7HpQT.s:474    .text:00000296 Leds_State
/var/folders/wz/wzM13vx1HuGiQAygYPOM9k+++TI/-Tmp-//ccR7HpQT.s:493    .text:000002a2 Leds_Set
/var/folders/wz/wzM13vx1HuGiQAygYPOM9k+++TI/-Tmp-//ccR7HpQT.s:517    .text:000002b8 Leds_Clear
/var/folders/wz/wzM13vx1HuGiQAygYPOM9k+++TI/-Tmp-//ccR7HpQT.s:541    .text:000002ce Leds_Toggle
/var/folders/wz/wzM13vx1HuGiQAygYPOM9k+++TI/-Tmp-//ccR7HpQT.s:565    .text:000002e4 Time_Init
/var/folders/wz/wzM13vx1HuGiQAygYPOM9k+++TI/-Tmp-//ccR7HpQT.s:595    .text:00000306 Time_Set
/var/folders/wz/wzM13vx1HuGiQAygYPOM9k+++TI/-Tmp-//ccR7HpQT.s:722    .text:000003ae Time_CheckVBatSystem
/var/folders/wz/wzM13vx1HuGiQAygYPOM9k+++TI/-Tmp-//ccR7HpQT.s:757    .text:000003de Time_Get
/var/folders/wz/wzM13vx1HuGiQAygYPOM9k+++TI/-Tmp-//ccR7HpQT.s:787    .text:00000408 Time_Get32BitTimer
/var/folders/wz/wzM13vx1HuGiQAygYPOM9k+++TI/-Tmp-//ccR7HpQT.s:851    .text:00000458 Time_UTCSecsToTime
/var/folders/wz/wzM13vx1HuGiQAygYPOM9k+++TI/-Tmp-//ccR7HpQT.s:25495  .data:00000758 monthDays
/var/folders/wz/wzM13vx1HuGiQAygYPOM9k+++TI/-Tmp-//ccR7HpQT.s:1169   .text:0000065e wait_ready
/var/folders/wz/wzM13vx1HuGiQAygYPOM9k+++TI/-Tmp-//ccR7HpQT.s:25508  .bss:00000064 Timer2
/var/folders/wz/wzM13vx1HuGiQAygYPOM9k+++TI/-Tmp-//ccR7HpQT.s:1225   .text:0000069c select
/var/folders/wz/wzM13vx1HuGiQAygYPOM9k+++TI/-Tmp-//ccR7HpQT.s:1278   .text:000006d6 rcvr_datablock
                             .bss:00000063 Timer1
/var/folders/wz/wzM13vx1HuGiQAygYPOM9k+++TI/-Tmp-//ccR7HpQT.s:1422   .text:0000079a xmit_datablock
/var/folders/wz/wzM13vx1HuGiQAygYPOM9k+++TI/-Tmp-//ccR7HpQT.s:1539   .text:00000838 send_cmd
/var/folders/wz/wzM13vx1HuGiQAygYPOM9k+++TI/-Tmp-//ccR7HpQT.s:1756   .text:00000950 disk_initialize
/var/folders/wz/wzM13vx1HuGiQAygYPOM9k+++TI/-Tmp-//ccR7HpQT.s:25491  .data:00000757 Stat
/var/folders/wz/wzM13vx1HuGiQAygYPOM9k+++TI/-Tmp-//ccR7HpQT.s:25509  .bss:00000065 CardType
/var/folders/wz/wzM13vx1HuGiQAygYPOM9k+++TI/-Tmp-//ccR7HpQT.s:2089   .text:00000b1c disk_status
/var/folders/wz/wzM13vx1HuGiQAygYPOM9k+++TI/-Tmp-//ccR7HpQT.s:2112   .text:00000b2a disk_read
/var/folders/wz/wzM13vx1HuGiQAygYPOM9k+++TI/-Tmp-//ccR7HpQT.s:2258   .text:00000bea disk_write
/var/folders/wz/wzM13vx1HuGiQAygYPOM9k+++TI/-Tmp-//ccR7HpQT.s:2435   .text:00000cda disk_ioctl
/var/folders/wz/wzM13vx1HuGiQAygYPOM9k+++TI/-Tmp-//ccR7HpQT.s:3075   .text:00001080 disk_timerproc
/var/folders/wz/wzM13vx1HuGiQAygYPOM9k+++TI/-Tmp-//ccR7HpQT.s:3112   .text:000010a8 get_fattime
/var/folders/wz/wzM13vx1HuGiQAygYPOM9k+++TI/-Tmp-//ccR7HpQT.s:24103  .bss:00000021 UNIX_Time
/var/folders/wz/wzM13vx1HuGiQAygYPOM9k+++TI/-Tmp-//ccR7HpQT.s:3243   .text:00001198 move_window
/var/folders/wz/wzM13vx1HuGiQAygYPOM9k+++TI/-Tmp-//ccR7HpQT.s:3404   .text:0000128a sync
/var/folders/wz/wzM13vx1HuGiQAygYPOM9k+++TI/-Tmp-//ccR7HpQT.s:3589   .text:000013a8 get_fat
/var/folders/wz/wzM13vx1HuGiQAygYPOM9k+++TI/-Tmp-//ccR7HpQT.s:3876   .text:0000157c put_fat
/var/folders/wz/wzM13vx1HuGiQAygYPOM9k+++TI/-Tmp-//ccR7HpQT.s:4193   .text:00001754 remove_chain
/var/folders/wz/wzM13vx1HuGiQAygYPOM9k+++TI/-Tmp-//ccR7HpQT.s:4362   .text:0000184a create_chain
/var/folders/wz/wzM13vx1HuGiQAygYPOM9k+++TI/-Tmp-//ccR7HpQT.s:4683   .text:00001a30 clust2sect
/var/folders/wz/wzM13vx1HuGiQAygYPOM9k+++TI/-Tmp-//ccR7HpQT.s:4763   .text:00001aaa dir_seek
/var/folders/wz/wzM13vx1HuGiQAygYPOM9k+++TI/-Tmp-//ccR7HpQT.s:5082   .text:00001ca2 dir_next
/var/folders/wz/wzM13vx1HuGiQAygYPOM9k+++TI/-Tmp-//ccR7HpQT.s:5563   .text:00001f9c dir_read
/var/folders/wz/wzM13vx1HuGiQAygYPOM9k+++TI/-Tmp-//ccR7HpQT.s:5659   .text:00002004 dir_register
/var/folders/wz/wzM13vx1HuGiQAygYPOM9k+++TI/-Tmp-//ccR7HpQT.s:5810   .text:000020b2 dir_remove
/var/folders/wz/wzM13vx1HuGiQAygYPOM9k+++TI/-Tmp-//ccR7HpQT.s:5869   .text:000020f4 get_fileinfo
/var/folders/wz/wzM13vx1HuGiQAygYPOM9k+++TI/-Tmp-//ccR7HpQT.s:6068   .text:0000220c follow_path
/var/folders/wz/wzM13vx1HuGiQAygYPOM9k+++TI/-Tmp-//ccR7HpQT.s:6605   .text:000024b8 check_fs
/var/folders/wz/wzM13vx1HuGiQAygYPOM9k+++TI/-Tmp-//ccR7HpQT.s:6759   .text:000025be chk_mounted
/var/folders/wz/wzM13vx1HuGiQAygYPOM9k+++TI/-Tmp-//ccR7HpQT.s:25510  .bss:00000066 FatFs
/var/folders/wz/wzM13vx1HuGiQAygYPOM9k+++TI/-Tmp-//ccR7HpQT.s:24109  .data:000002c9 Drives
/var/folders/wz/wzM13vx1HuGiQAygYPOM9k+++TI/-Tmp-//ccR7HpQT.s:25511  .bss:0000006a Fsid
/var/folders/wz/wzM13vx1HuGiQAygYPOM9k+++TI/-Tmp-//ccR7HpQT.s:7652   .text:00002baa validate
/var/folders/wz/wzM13vx1HuGiQAygYPOM9k+++TI/-Tmp-//ccR7HpQT.s:7702   .text:00002bde f_mount
/var/folders/wz/wzM13vx1HuGiQAygYPOM9k+++TI/-Tmp-//ccR7HpQT.s:7764   .text:00002c20 f_open
/var/folders/wz/wzM13vx1HuGiQAygYPOM9k+++TI/-Tmp-//ccR7HpQT.s:8245   .text:00002f0a f_read
/var/folders/wz/wzM13vx1HuGiQAygYPOM9k+++TI/-Tmp-//ccR7HpQT.s:8914   .text:000032f6 f_write
/var/folders/wz/wzM13vx1HuGiQAygYPOM9k+++TI/-Tmp-//ccR7HpQT.s:9677   .text:0000377e f_sync
/var/folders/wz/wzM13vx1HuGiQAygYPOM9k+++TI/-Tmp-//ccR7HpQT.s:9859   .text:0000388c f_close
/var/folders/wz/wzM13vx1HuGiQAygYPOM9k+++TI/-Tmp-//ccR7HpQT.s:9889   .text:000038a4 f_lseek
/var/folders/wz/wzM13vx1HuGiQAygYPOM9k+++TI/-Tmp-//ccR7HpQT.s:10585  .text:00003d00 f_opendir
/var/folders/wz/wzM13vx1HuGiQAygYPOM9k+++TI/-Tmp-//ccR7HpQT.s:10725  .text:00003dc6 f_readdir
/var/folders/wz/wzM13vx1HuGiQAygYPOM9k+++TI/-Tmp-//ccR7HpQT.s:10834  .text:00003e5c f_stat
/var/folders/wz/wzM13vx1HuGiQAygYPOM9k+++TI/-Tmp-//ccR7HpQT.s:10925  .text:00003eda f_getfree
/var/folders/wz/wzM13vx1HuGiQAygYPOM9k+++TI/-Tmp-//ccR7HpQT.s:11306  .text:00004126 f_truncate
/var/folders/wz/wzM13vx1HuGiQAygYPOM9k+++TI/-Tmp-//ccR7HpQT.s:11497  .text:00004240 f_unlink
/var/folders/wz/wzM13vx1HuGiQAygYPOM9k+++TI/-Tmp-//ccR7HpQT.s:11718  .text:00004374 f_mkdir
/var/folders/wz/wzM13vx1HuGiQAygYPOM9k+++TI/-Tmp-//ccR7HpQT.s:12256  .text:0000468e f_chmod
/var/folders/wz/wzM13vx1HuGiQAygYPOM9k+++TI/-Tmp-//ccR7HpQT.s:12361  .text:00004718 f_utime
/var/folders/wz/wzM13vx1HuGiQAygYPOM9k+++TI/-Tmp-//ccR7HpQT.s:12471  .text:000047b2 f_rename
/var/folders/wz/wzM13vx1HuGiQAygYPOM9k+++TI/-Tmp-//ccR7HpQT.s:12888  .text:00004a00 f_mkfs
/var/folders/wz/wzM13vx1HuGiQAygYPOM9k+++TI/-Tmp-//ccR7HpQT.s:25444  .data:0000072b sstbl.6369
/var/folders/wz/wzM13vx1HuGiQAygYPOM9k+++TI/-Tmp-//ccR7HpQT.s:25430  .data:00000715 cstbl.6370
/var/folders/wz/wzM13vx1HuGiQAygYPOM9k+++TI/-Tmp-//ccR7HpQT.s:14644  .text:00005504 f_gets
/var/folders/wz/wzM13vx1HuGiQAygYPOM9k+++TI/-Tmp-//ccR7HpQT.s:14759  .text:000055a0 f_putc
/var/folders/wz/wzM13vx1HuGiQAygYPOM9k+++TI/-Tmp-//ccR7HpQT.s:14820  .text:000055ec f_puts
/var/folders/wz/wzM13vx1HuGiQAygYPOM9k+++TI/-Tmp-//ccR7HpQT.s:14880  .text:00005634 SD_Close
                            *COM*:00000220 Log_File
/var/folders/wz/wzM13vx1HuGiQAygYPOM9k+++TI/-Tmp-//ccR7HpQT.s:14896  .text:0000563e SD_Inserted
/var/folders/wz/wzM13vx1HuGiQAygYPOM9k+++TI/-Tmp-//ccR7HpQT.s:24179  .bss:0000002b sdValid
/var/folders/wz/wzM13vx1HuGiQAygYPOM9k+++TI/-Tmp-//ccR7HpQT.s:14910  .text:00005644 SD_WriteBuffer
                            *COM*:00000004 CRC
/var/folders/wz/wzM13vx1HuGiQAygYPOM9k+++TI/-Tmp-//ccR7HpQT.s:24191  .data:00000313 crc_table
/var/folders/wz/wzM13vx1HuGiQAygYPOM9k+++TI/-Tmp-//ccR7HpQT.s:15024  .text:00005712 SD_Write32
                            *COM*:00000004 tmp32
/var/folders/wz/wzM13vx1HuGiQAygYPOM9k+++TI/-Tmp-//ccR7HpQT.s:15063  .text:00005746 SD_Write16
                            *COM*:00000002 tmp16
/var/folders/wz/wzM13vx1HuGiQAygYPOM9k+++TI/-Tmp-//ccR7HpQT.s:15089  .text:0000575c SD_Write8
                            *COM*:00000001 tmp8
/var/folders/wz/wzM13vx1HuGiQAygYPOM9k+++TI/-Tmp-//ccR7HpQT.s:15111  .text:0000576e SD_ClearCRC
/var/folders/wz/wzM13vx1HuGiQAygYPOM9k+++TI/-Tmp-//ccR7HpQT.s:15132  .text:00005788 SD_WriteCRC
/var/folders/wz/wzM13vx1HuGiQAygYPOM9k+++TI/-Tmp-//ccR7HpQT.s:15158  .text:000057a6 SD_GetSpaceRemaining
                            *COM*:00000002 fs
/var/folders/wz/wzM13vx1HuGiQAygYPOM9k+++TI/-Tmp-//ccR7HpQT.s:24185  .bss:0000002c percentDiskUsed
/var/folders/wz/wzM13vx1HuGiQAygYPOM9k+++TI/-Tmp-//ccR7HpQT.s:15237  .text:0000582c SD_Timer_Init
/var/folders/wz/wzM13vx1HuGiQAygYPOM9k+++TI/-Tmp-//ccR7HpQT.s:15266  .text:0000584a SD_Init
/var/folders/wz/wzM13vx1HuGiQAygYPOM9k+++TI/-Tmp-//ccR7HpQT.s:25512  .bss:0000006c fso0
/var/folders/wz/wzM13vx1HuGiQAygYPOM9k+++TI/-Tmp-//ccR7HpQT.s:25513  .bss:0000029a fso1
/var/folders/wz/wzM13vx1HuGiQAygYPOM9k+++TI/-Tmp-//ccR7HpQT.s:15322  .text:00005896 __vector_47
/var/folders/wz/wzM13vx1HuGiQAygYPOM9k+++TI/-Tmp-//ccR7HpQT.s:15384  .text:000058fa Button_Init
/var/folders/wz/wzM13vx1HuGiQAygYPOM9k+++TI/-Tmp-//ccR7HpQT.s:15457  .text:00005950 Button_Pressed
/var/folders/wz/wzM13vx1HuGiQAygYPOM9k+++TI/-Tmp-//ccR7HpQT.s:15490  .text:00005976 Accel_Write_Byte
/var/folders/wz/wzM13vx1HuGiQAygYPOM9k+++TI/-Tmp-//ccR7HpQT.s:15513  .text:00005986 Accel_Read_Byte
/var/folders/wz/wzM13vx1HuGiQAygYPOM9k+++TI/-Tmp-//ccR7HpQT.s:15540  .text:0000599a Accel_WriteToAddress
/var/folders/wz/wzM13vx1HuGiQAygYPOM9k+++TI/-Tmp-//ccR7HpQT.s:15592  .text:000059ca Accel_ReadFromAddress
/var/folders/wz/wzM13vx1HuGiQAygYPOM9k+++TI/-Tmp-//ccR7HpQT.s:15652  .text:000059fe Accel_ReadResults
/var/folders/wz/wzM13vx1HuGiQAygYPOM9k+++TI/-Tmp-//ccR7HpQT.s:15871  .text:00005afe Sensors_ResetAccelBuffers
/var/folders/wz/wzM13vx1HuGiQAygYPOM9k+++TI/-Tmp-//ccR7HpQT.s:24042  .bss:0000000f accelBufferCounter
/var/folders/wz/wzM13vx1HuGiQAygYPOM9k+++TI/-Tmp-//ccR7HpQT.s:24036  .bss:0000000e accelBufferToWriteTo
                            *COM*:00000002 okToSendAccelBuffer
/var/folders/wz/wzM13vx1HuGiQAygYPOM9k+++TI/-Tmp-//ccR7HpQT.s:15893  .text:00005b14 Accel_Init
/var/folders/wz/wzM13vx1HuGiQAygYPOM9k+++TI/-Tmp-//ccR7HpQT.s:15957  .text:00005b6e __vector_108
/var/folders/wz/wzM13vx1HuGiQAygYPOM9k+++TI/-Tmp-//ccR7HpQT.s:23954  .bss:00000001 recording
/var/folders/wz/wzM13vx1HuGiQAygYPOM9k+++TI/-Tmp-//ccR7HpQT.s:23948  .bss:00000000 wantToRecordFast
                            *COM*:000004b0 accelSampleStartTime
/var/folders/wz/wzM13vx1HuGiQAygYPOM9k+++TI/-Tmp-//ccR7HpQT.s:16075  .text:00005c4a Sensors_ReadTemperature
/var/folders/wz/wzM13vx1HuGiQAygYPOM9k+++TI/-Tmp-//ccR7HpQT.s:16093  .text:00005c56 Sensors_ReadRespiration
/var/folders/wz/wzM13vx1HuGiQAygYPOM9k+++TI/-Tmp-//ccR7HpQT.s:16111  .text:00005c62 Sensors_ReadEKG
/var/folders/wz/wzM13vx1HuGiQAygYPOM9k+++TI/-Tmp-//ccR7HpQT.s:16129  .text:00005c6e Sensors_ReadHumidity
                            *COM*:00000002 zeroOffsetA
/var/folders/wz/wzM13vx1HuGiQAygYPOM9k+++TI/-Tmp-//ccR7HpQT.s:16203  .text:00005ce8 Sensors_ResetTemperatureBuffers
/var/folders/wz/wzM13vx1HuGiQAygYPOM9k+++TI/-Tmp-//ccR7HpQT.s:23966  .bss:00000003 temperatureBufferCounter
/var/folders/wz/wzM13vx1HuGiQAygYPOM9k+++TI/-Tmp-//ccR7HpQT.s:23960  .bss:00000002 temperatureBufferToWriteTo
                            *COM*:00000002 okToSendTemperatureBuffer
/var/folders/wz/wzM13vx1HuGiQAygYPOM9k+++TI/-Tmp-//ccR7HpQT.s:16225  .text:00005cfe Sensors_ResetRespirationBuffers
/var/folders/wz/wzM13vx1HuGiQAygYPOM9k+++TI/-Tmp-//ccR7HpQT.s:23985  .bss:00000006 respirationBufferCounter
/var/folders/wz/wzM13vx1HuGiQAygYPOM9k+++TI/-Tmp-//ccR7HpQT.s:23979  .bss:00000005 respirationBufferToWriteTo
                            *COM*:00000003 okToSendRespirationBuffer
/var/folders/wz/wzM13vx1HuGiQAygYPOM9k+++TI/-Tmp-//ccR7HpQT.s:16248  .text:00005d18 Sensors_ResetEKGBuffers
/var/folders/wz/wzM13vx1HuGiQAygYPOM9k+++TI/-Tmp-//ccR7HpQT.s:24004  .bss:00000009 EKGBufferCounter
/var/folders/wz/wzM13vx1HuGiQAygYPOM9k+++TI/-Tmp-//ccR7HpQT.s:23998  .bss:00000008 EKGBufferToWriteTo
                            *COM*:00000003 okToSendEKGBuffer
/var/folders/wz/wzM13vx1HuGiQAygYPOM9k+++TI/-Tmp-//ccR7HpQT.s:16271  .text:00005d32 Sensors_ResetHumidityBuffers
/var/folders/wz/wzM13vx1HuGiQAygYPOM9k+++TI/-Tmp-//ccR7HpQT.s:24023  .bss:0000000c humidityBufferCounter
/var/folders/wz/wzM13vx1HuGiQAygYPOM9k+++TI/-Tmp-//ccR7HpQT.s:24017  .bss:0000000b humidityBufferToWriteTo
                            *COM*:00000002 okToSendHumidityBuffer
/var/folders/wz/wzM13vx1HuGiQAygYPOM9k+++TI/-Tmp-//ccR7HpQT.s:16293  .text:00005d48 Sensors_Init
                            *COM*:00000002 zeroOffsetB
/var/folders/wz/wzM13vx1HuGiQAygYPOM9k+++TI/-Tmp-//ccR7HpQT.s:16630  .text:00005ed8 __vector_83
/var/folders/wz/wzM13vx1HuGiQAygYPOM9k+++TI/-Tmp-//ccR7HpQT.s:23936  .data:000002c2 wantToRecordEKG
                            *COM*:000004b0 EKGSampleStartTime
                            *COM*:00000708 EKGBuffer
/var/folders/wz/wzM13vx1HuGiQAygYPOM9k+++TI/-Tmp-//ccR7HpQT.s:25227  .bss:00000032 HZ_RefeshCounter2
/var/folders/wz/wzM13vx1HuGiQAygYPOM9k+++TI/-Tmp-//ccR7HpQT.s:23941  .data:000002c3 wantToRecordRespiration
                            *COM*:000000c8 respirationSampleStartTime
                            *COM*:0000012c respirationBuffer
/var/folders/wz/wzM13vx1HuGiQAygYPOM9k+++TI/-Tmp-//ccR7HpQT.s:25221  .bss:00000030 HZ_RefeshCounter
/var/folders/wz/wzM13vx1HuGiQAygYPOM9k+++TI/-Tmp-//ccR7HpQT.s:24061  .bss:00000012 rtcBlockCounter
/var/folders/wz/wzM13vx1HuGiQAygYPOM9k+++TI/-Tmp-//ccR7HpQT.s:24055  .bss:00000011 okToSendRTCBlock
/var/folders/wz/wzM13vx1HuGiQAygYPOM9k+++TI/-Tmp-//ccR7HpQT.s:23926  .data:000002c0 wantToRecordTemperature
                            *COM*:00000028 temperatureSampleStartTime
                            *COM*:00000028 temperatureBuffer
/var/folders/wz/wzM13vx1HuGiQAygYPOM9k+++TI/-Tmp-//ccR7HpQT.s:23931  .data:000002c1 wantToRecordHumidity
                            *COM*:00000028 humiditySampleStartTime
                            *COM*:00000028 humidityBuffer
/var/folders/wz/wzM13vx1HuGiQAygYPOM9k+++TI/-Tmp-//ccR7HpQT.s:17115  .text:000062a4 SP_ReadCalibrationByte
/var/folders/wz/wzM13vx1HuGiQAygYPOM9k+++TI/-Tmp-//ccR7HpQT.s:17150  .text:000062b8 Uploader_getTime
                            *COM*:00000032 command
/var/folders/wz/wzM13vx1HuGiQAygYPOM9k+++TI/-Tmp-//ccR7HpQT.s:17387  .text:0000640e Uploader_eraseFile
                            *COM*:00000014 fileToErase
/var/folders/wz/wzM13vx1HuGiQAygYPOM9k+++TI/-Tmp-//ccR7HpQT.s:25348  .bss:00000054 okToEraseFile
                            *COM*:00000001 eraseFileReturn
/var/folders/wz/wzM13vx1HuGiQAygYPOM9k+++TI/-Tmp-//ccR7HpQT.s:17550  .text:000064c4 Uploader_ClearCRC
                            *COM*:00000004 uploadCRC
/var/folders/wz/wzM13vx1HuGiQAygYPOM9k+++TI/-Tmp-//ccR7HpQT.s:17571  .text:000064de Uploader_WriteCRC
/var/folders/wz/wzM13vx1HuGiQAygYPOM9k+++TI/-Tmp-//ccR7HpQT.s:17635  .text:00006546 Uploader_uploadFile
/var/folders/wz/wzM13vx1HuGiQAygYPOM9k+++TI/-Tmp-//ccR7HpQT.s:25288  .bss:0000004a uploading
                            *COM*:0000000f fileToUpload
/var/folders/wz/wzM13vx1HuGiQAygYPOM9k+++TI/-Tmp-//ccR7HpQT.s:25318  .bss:0000004f okToOpenFileToUpload
/var/folders/wz/wzM13vx1HuGiQAygYPOM9k+++TI/-Tmp-//ccR7HpQT.s:25324  .bss:00000050 uploadFileOpened
/var/folders/wz/wzM13vx1HuGiQAygYPOM9k+++TI/-Tmp-//ccR7HpQT.s:25354  .bss:00000055 fileExists
/var/folders/wz/wzM13vx1HuGiQAygYPOM9k+++TI/-Tmp-//ccR7HpQT.s:25342  .bss:00000053 okToCloseUploadFile
/var/folders/wz/wzM13vx1HuGiQAygYPOM9k+++TI/-Tmp-//ccR7HpQT.s:25306  .bss:0000004d okToUpload
/var/folders/wz/wzM13vx1HuGiQAygYPOM9k+++TI/-Tmp-//ccR7HpQT.s:25258  .bss:0000003c uploadFileSize
/var/folders/wz/wzM13vx1HuGiQAygYPOM9k+++TI/-Tmp-//ccR7HpQT.s:25270  .bss:00000041 numberOfPacketsToUpload
/var/folders/wz/wzM13vx1HuGiQAygYPOM9k+++TI/-Tmp-//ccR7HpQT.s:25276  .bss:00000045 leftOverBytesToUpload
/var/folders/wz/wzM13vx1HuGiQAygYPOM9k+++TI/-Tmp-//ccR7HpQT.s:25336  .bss:00000052 uploadFileBufferFull
/var/folders/wz/wzM13vx1HuGiQAygYPOM9k+++TI/-Tmp-//ccR7HpQT.s:25330  .bss:00000051 okToFillUploadFileBuffer
/var/folders/wz/wzM13vx1HuGiQAygYPOM9k+++TI/-Tmp-//ccR7HpQT.s:25264  .bss:00000040 uploadPercentBS
                            *COM*:000003e8 uploadFileBuffer
/var/folders/wz/wzM13vx1HuGiQAygYPOM9k+++TI/-Tmp-//ccR7HpQT.s:18240  .text:00006942 Uploader_UpdateCRC
/var/folders/wz/wzM13vx1HuGiQAygYPOM9k+++TI/-Tmp-//ccR7HpQT.s:18307  .text:000069be Clock_Init
/var/folders/wz/wzM13vx1HuGiQAygYPOM9k+++TI/-Tmp-//ccR7HpQT.s:18382  .text:00006a18 Disable_JTAG
/var/folders/wz/wzM13vx1HuGiQAygYPOM9k+++TI/-Tmp-//ccR7HpQT.s:18436  .text:00006a48 Interrupt_Init
/var/folders/wz/wzM13vx1HuGiQAygYPOM9k+++TI/-Tmp-//ccR7HpQT.s:18460  .text:00006a56 __vector_104
/var/folders/wz/wzM13vx1HuGiQAygYPOM9k+++TI/-Tmp-//ccR7HpQT.s:25366  .bss:00000057 okToOpenLogFile
/var/folders/wz/wzM13vx1HuGiQAygYPOM9k+++TI/-Tmp-//ccR7HpQT.s:25360  .bss:00000056 timeIsValid
/var/folders/wz/wzM13vx1HuGiQAygYPOM9k+++TI/-Tmp-//ccR7HpQT.s:25414  .bss:00000061 debounceEnabled
/var/folders/wz/wzM13vx1HuGiQAygYPOM9k+++TI/-Tmp-//ccR7HpQT.s:25378  .bss:00000059 okToCloseLogFile
/var/folders/wz/wzM13vx1HuGiQAygYPOM9k+++TI/-Tmp-//ccR7HpQT.s:18573  .text:00006b22 Charger_Init
/var/folders/wz/wzM13vx1HuGiQAygYPOM9k+++TI/-Tmp-//ccR7HpQT.s:18593  .text:00006b30 Charged
/var/folders/wz/wzM13vx1HuGiQAygYPOM9k+++TI/-Tmp-//ccR7HpQT.s:18616  .text:00006b46 GUI_Init
/var/folders/wz/wzM13vx1HuGiQAygYPOM9k+++TI/-Tmp-//ccR7HpQT.s:18645  .text:00006b64 __vector_77
/var/folders/wz/wzM13vx1HuGiQAygYPOM9k+++TI/-Tmp-//ccR7HpQT.s:25396  .bss:0000005c lengthOfCurrentFile
/var/folders/wz/wzM13vx1HuGiQAygYPOM9k+++TI/-Tmp-//ccR7HpQT.s:25390  .bss:0000005b restartingFile
/var/folders/wz/wzM13vx1HuGiQAygYPOM9k+++TI/-Tmp-//ccR7HpQT.s:25402  .bss:0000005e syncCounter
/var/folders/wz/wzM13vx1HuGiQAygYPOM9k+++TI/-Tmp-//ccR7HpQT.s:25420  .bss:00000062 spaceRemainingCounter
/var/folders/wz/wzM13vx1HuGiQAygYPOM9k+++TI/-Tmp-//ccR7HpQT.s:25384  .bss:0000005a okToGetRemainingSpace
/var/folders/wz/wzM13vx1HuGiQAygYPOM9k+++TI/-Tmp-//ccR7HpQT.s:25408  .bss:00000060 debounceTimer
/var/folders/wz/wzM13vx1HuGiQAygYPOM9k+++TI/-Tmp-//ccR7HpQT.s:25426  .data:00000714 batteryVoltageOk
/var/folders/wz/wzM13vx1HuGiQAygYPOM9k+++TI/-Tmp-//ccR7HpQT.s:25282  .bss:00000049 connected
                            *COM*:00000002 ledCounter
/var/folders/wz/wzM13vx1HuGiQAygYPOM9k+++TI/-Tmp-//ccR7HpQT.s:19036  .text:00006db0 SD_BackroundWriter_Init
/var/folders/wz/wzM13vx1HuGiQAygYPOM9k+++TI/-Tmp-//ccR7HpQT.s:19065  .text:00006dce SD_WriteRTCBlock
/var/folders/wz/wzM13vx1HuGiQAygYPOM9k+++TI/-Tmp-//ccR7HpQT.s:19159  .text:00006e66 getDeviceID
                            *COM*:00000032 deviceID
/var/folders/wz/wzM13vx1HuGiQAygYPOM9k+++TI/-Tmp-//ccR7HpQT.s:19571  .text:0000703e SD_WriteString
/var/folders/wz/wzM13vx1HuGiQAygYPOM9k+++TI/-Tmp-//ccR7HpQT.s:19681  .text:000070f4 SD_WriteAccelBuffer
                            *COM*:00000e10 accelBuffer
/var/folders/wz/wzM13vx1HuGiQAygYPOM9k+++TI/-Tmp-//ccR7HpQT.s:19856  .text:0000721e SD_WriteEKGBuffer
/var/folders/wz/wzM13vx1HuGiQAygYPOM9k+++TI/-Tmp-//ccR7HpQT.s:20003  .text:00007310 SD_WriteRespirationBuffer
/var/folders/wz/wzM13vx1HuGiQAygYPOM9k+++TI/-Tmp-//ccR7HpQT.s:20149  .text:00007400 SD_WriteHumidityBuffer
/var/folders/wz/wzM13vx1HuGiQAygYPOM9k+++TI/-Tmp-//ccR7HpQT.s:20285  .text:000074dc SD_WriteTemperatureBuffer
/var/folders/wz/wzM13vx1HuGiQAygYPOM9k+++TI/-Tmp-//ccR7HpQT.s:20417  .text:000075b8 Debug_SendString
/var/folders/wz/wzM13vx1HuGiQAygYPOM9k+++TI/-Tmp-//ccR7HpQT.s:20507  .text:00007620 Uploader_connectToComputer
/var/folders/wz/wzM13vx1HuGiQAygYPOM9k+++TI/-Tmp-//ccR7HpQT.s:25252  .bss:0000003a timeOutCounter
/var/folders/wz/wzM13vx1HuGiQAygYPOM9k+++TI/-Tmp-//ccR7HpQT.s:20660  .text:000076c2 Uploader_sendPort
                            *COM*:00000032 port
/var/folders/wz/wzM13vx1HuGiQAygYPOM9k+++TI/-Tmp-//ccR7HpQT.s:20720  .text:0000771a Uploader_sendServer
                            *COM*:00000032 server
/var/folders/wz/wzM13vx1HuGiQAygYPOM9k+++TI/-Tmp-//ccR7HpQT.s:20780  .text:00007772 Uploader_sendNickname
                            *COM*:00000032 nickname
/var/folders/wz/wzM13vx1HuGiQAygYPOM9k+++TI/-Tmp-//ccR7HpQT.s:20840  .text:000077ca Uploader_sendUser
                            *COM*:0000000a user
/var/folders/wz/wzM13vx1HuGiQAygYPOM9k+++TI/-Tmp-//ccR7HpQT.s:20904  .text:00007822 Uploader_sendKey
/var/folders/wz/wzM13vx1HuGiQAygYPOM9k+++TI/-Tmp-//ccR7HpQT.s:24155  .bss:00000027 phraseRead
                            *COM*:00000032 phrase
/var/folders/wz/wzM13vx1HuGiQAygYPOM9k+++TI/-Tmp-//ccR7HpQT.s:24161  .bss:00000028 keyRead
                            *COM*:00000032 key
/var/folders/wz/wzM13vx1HuGiQAygYPOM9k+++TI/-Tmp-//ccR7HpQT.s:21012  .text:000078c8 Uploader_sendAuthType
/var/folders/wz/wzM13vx1HuGiQAygYPOM9k+++TI/-Tmp-//ccR7HpQT.s:24149  .bss:00000026 authRead
                            *COM*:00000032 auth
/var/folders/wz/wzM13vx1HuGiQAygYPOM9k+++TI/-Tmp-//ccR7HpQT.s:21092  .text:00007942 Uploader_sendSSID
/var/folders/wz/wzM13vx1HuGiQAygYPOM9k+++TI/-Tmp-//ccR7HpQT.s:24167  .bss:00000029 ssidRead
                            *COM*:00000032 ssid
/var/folders/wz/wzM13vx1HuGiQAygYPOM9k+++TI/-Tmp-//ccR7HpQT.s:21176  .text:000079bc Uploader_sendFilename
/var/folders/wz/wzM13vx1HuGiQAygYPOM9k+++TI/-Tmp-//ccR7HpQT.s:25294  .bss:0000004b okToOpenDirectory
/var/folders/wz/wzM13vx1HuGiQAygYPOM9k+++TI/-Tmp-//ccR7HpQT.s:25300  .bss:0000004c okToGrabNextFileName
                            *COM*:0000000f availableFileName
                            *COM*:0000000f currentLogFile
/var/folders/wz/wzM13vx1HuGiQAygYPOM9k+++TI/-Tmp-//ccR7HpQT.s:21271  .text:00007a54 Uploader_Update
/var/folders/wz/wzM13vx1HuGiQAygYPOM9k+++TI/-Tmp-//ccR7HpQT.s:21478  .text:00007b6e SD_MakeFileName
                            *COM*:00000014 fileName
/var/folders/wz/wzM13vx1HuGiQAygYPOM9k+++TI/-Tmp-//ccR7HpQT.s:21513  .text:00007b9a SD_Open
/var/folders/wz/wzM13vx1HuGiQAygYPOM9k+++TI/-Tmp-//ccR7HpQT.s:21620  .text:00007bf8 SD_StartLogFile
/var/folders/wz/wzM13vx1HuGiQAygYPOM9k+++TI/-Tmp-//ccR7HpQT.s:21834  .text:00007d6e __vector_53
/var/folders/wz/wzM13vx1HuGiQAygYPOM9k+++TI/-Tmp-//ccR7HpQT.s:24048  .data:000002c8 lastAccelerometerBufferSent
/var/folders/wz/wzM13vx1HuGiQAygYPOM9k+++TI/-Tmp-//ccR7HpQT.s:24010  .data:000002c6 lastEKGBufferSent
/var/folders/wz/wzM13vx1HuGiQAygYPOM9k+++TI/-Tmp-//ccR7HpQT.s:23991  .data:000002c5 lastRespirationBufferSent
/var/folders/wz/wzM13vx1HuGiQAygYPOM9k+++TI/-Tmp-//ccR7HpQT.s:23972  .data:000002c4 lastTemperatureBufferSent
/var/folders/wz/wzM13vx1HuGiQAygYPOM9k+++TI/-Tmp-//ccR7HpQT.s:24029  .data:000002c7 lastHumidityBufferSent
/var/folders/wz/wzM13vx1HuGiQAygYPOM9k+++TI/-Tmp-//ccR7HpQT.s:24067  .bss:00000013 timeRecordingStarted
                            *COM*:00000016 dir
                            *COM*:00000016 fno
                            *COM*:00000220 Upload_File
/var/folders/wz/wzM13vx1HuGiQAygYPOM9k+++TI/-Tmp-//ccR7HpQT.s:22446  .text:00008178 SD_Read_config_file
/var/folders/wz/wzM13vx1HuGiQAygYPOM9k+++TI/-Tmp-//ccR7HpQT.s:24123  .data:000002ff zone
                            *COM*:0000000a daylightTime
                            *COM*:0000000a demoModeString
                            *COM*:0000000a fastString
/var/folders/wz/wzM13vx1HuGiQAygYPOM9k+++TI/-Tmp-//ccR7HpQT.s:24143  .bss:00000025 timeZoneShift
/var/folders/wz/wzM13vx1HuGiQAygYPOM9k+++TI/-Tmp-//ccR7HpQT.s:24173  .bss:0000002a zoneChanged
/var/folders/wz/wzM13vx1HuGiQAygYPOM9k+++TI/-Tmp-//ccR7HpQT.s:24117  .data:000002cd serverOpenCommand
/var/folders/wz/wzM13vx1HuGiQAygYPOM9k+++TI/-Tmp-//ccR7HpQT.s:24073  .bss:00000017 demoMode
/var/folders/wz/wzM13vx1HuGiQAygYPOM9k+++TI/-Tmp-//ccR7HpQT.s:23065  .text:000085b0 main
/var/folders/wz/wzM13vx1HuGiQAygYPOM9k+++TI/-Tmp-//ccR7HpQT.s:23442  .text:0000875a f_printf
/var/folders/wz/wzM13vx1HuGiQAygYPOM9k+++TI/-Tmp-//ccR7HpQT.s:24079  .bss:00000018 useWifiForUploading
/var/folders/wz/wzM13vx1HuGiQAygYPOM9k+++TI/-Tmp-//ccR7HpQT.s:24129  .data:00000309 am
/var/folders/wz/wzM13vx1HuGiQAygYPOM9k+++TI/-Tmp-//ccR7HpQT.s:24135  .data:0000030e pm
/var/folders/wz/wzM13vx1HuGiQAygYPOM9k+++TI/-Tmp-//ccR7HpQT.s:25233  .bss:00000034 ekgCounter
/var/folders/wz/wzM13vx1HuGiQAygYPOM9k+++TI/-Tmp-//ccR7HpQT.s:25239  .bss:00000036 tempTime
/var/folders/wz/wzM13vx1HuGiQAygYPOM9k+++TI/-Tmp-//ccR7HpQT.s:25245  .data:00000713 commandCounter
/var/folders/wz/wzM13vx1HuGiQAygYPOM9k+++TI/-Tmp-//ccR7HpQT.s:25312  .bss:0000004e doneUploading
/var/folders/wz/wzM13vx1HuGiQAygYPOM9k+++TI/-Tmp-//ccR7HpQT.s:25372  .bss:00000058 okToWriteToLogFile
                            *COM*:00000008 time
                            *COM*:00000016 fno2
                            *COM*:0000000a tmpString
                            *COM*:00000032 temp

UNDEFINED SYMBOLS
__udivmodsi4
__divmodhi4
__mulsi3
itoa
strcpy
strcat
strcasecmp
strcasestr
ltoa
strupr
strstr
strtok
memmove
strcmp
__do_copy_data
__do_clear_bss
