   1               		.file	"main.c"
   2               	__SREG__ = 0x3f
   3               	__SP_H__ = 0x3e
   4               	__SP_L__ = 0x3d
   5               	__CCP__  = 0x34
   6               	__tmp_reg__ = 0
   7               	__zero_reg__ = 1
  15               	.Ltext0:
  16               	.global	Debug_Init
  18               	Debug_Init:
  19               	.LFB7:
  20               	.LM1:
  21               	/* prologue: function */
  22               	/* frame size = 0 */
  23               	.LM2:
  24 0000 E0E4      		ldi r30,lo8(1600)
  25 0002 F6E0      		ldi r31,hi8(1600)
  26 0004 88E0      		ldi r24,lo8(8)
  27 0006 8183      		std Z+1,r24
  28               	.LM3:
  29 0008 84E0      		ldi r24,lo8(4)
  30 000a 8283      		std Z+2,r24
  31               	.LM4:
  32 000c E0EA      		ldi r30,lo8(2208)
  33 000e F8E0      		ldi r31,hi8(2208)
  34 0010 83E0      		ldi r24,lo8(3)
  35 0012 8583      		std Z+5,r24
  36               	.LM5:
  37 0014 8FE5      		ldi r24,lo8(95)
  38 0016 8683      		std Z+6,r24
  39               	.LM6:
  40 0018 1782      		std Z+7,__zero_reg__
  41               	.LM7:
  42 001a 8481      		ldd r24,Z+4
  43 001c 8061      		ori r24,lo8(16)
  44 001e 8483      		std Z+4,r24
  45               	.LM8:
  46 0020 8481      		ldd r24,Z+4
  47 0022 8860      		ori r24,lo8(8)
  48 0024 8483      		std Z+4,r24
  49               	.LM9:
  50 0026 8381      		ldd r24,Z+3
  51 0028 8062      		ori r24,lo8(32)
  52 002a 8383      		std Z+3,r24
  53               	/* epilogue start */
  54               	.LM10:
  55 002c 0895      		ret
  56               	.LFE7:
  58               	.global	Debug_CharReadyToRead
  60               	Debug_CharReadyToRead:
  61               	.LFB8:
  62               	.LM11:
  63               	/* prologue: function */
  64               	/* frame size = 0 */
  65               	.LM12:
  66 002e 2091 0000 		lds r18,Debug_writeLocation
  67 0032 3091 0000 		lds r19,(Debug_writeLocation)+1
  68 0036 8091 0000 		lds r24,Debug_readLocation
  69 003a 9091 0000 		lds r25,(Debug_readLocation)+1
  70 003e 40E0      		ldi r20,lo8(0)
  71 0040 2817      		cp r18,r24
  72 0042 3907      		cpc r19,r25
  73 0044 01F0      		breq .L4
  74 0046 41E0      		ldi r20,lo8(1)
  75               	.L4:
  76               	.LM13:
  77 0048 842F      		mov r24,r20
  78               	/* epilogue start */
  79 004a 0895      		ret
  80               	.LFE8:
  82               	.global	Debug_GetByte
  84               	Debug_GetByte:
  85               	.LFB9:
  86               	.LM14:
  87               	.LVL0:
  88               	/* prologue: function */
  89               	/* frame size = 0 */
  90               	.LM15:
  91 004c 8823      		tst r24
  92 004e 01F0      		breq .L7
  93               	.L11:
  94               	.LBB741:
  95               	.LBB742:
  96               	.LM16:
  97 0050 2091 0000 		lds r18,Debug_writeLocation
  98 0054 3091 0000 		lds r19,(Debug_writeLocation)+1
  99 0058 8091 0000 		lds r24,Debug_readLocation
 100 005c 9091 0000 		lds r25,(Debug_readLocation)+1
 101               	.LVL1:
 102 0060 2817      		cp r18,r24
 103 0062 3907      		cpc r19,r25
 104 0064 01F0      		breq .L11
 105               	.LVL2:
 106               	.L7:
 107               	.LBE742:
 108               	.LBE741:
 109               	.LM17:
 110 0066 E091 0000 		lds r30,Debug_readLocation
 111 006a F091 0000 		lds r31,(Debug_readLocation)+1
 112 006e E050      		subi r30,lo8(-(DebugBuffer))
 113 0070 F040      		sbci r31,hi8(-(DebugBuffer))
 114 0072 E081      		ld r30,Z
 115               	.LVL3:
 116               	.LM18:
 117 0074 8091 0000 		lds r24,Debug_readLocation
 118 0078 9091 0000 		lds r25,(Debug_readLocation)+1
 119               	.LVL4:
 120 007c 0196      		adiw r24,1
 121 007e 8093 0000 		sts Debug_readLocation,r24
 122 0082 9093 0000 		sts (Debug_readLocation)+1,r25
 123               	.LM19:
 124 0086 8091 0000 		lds r24,Debug_readLocation
 125 008a 9091 0000 		lds r25,(Debug_readLocation)+1
 126 008e 8050      		subi r24,lo8(1024)
 127 0090 9440      		sbci r25,hi8(1024)
 128 0092 00F0      		brlo .L9
 129               	.LM20:
 130 0094 1092 0000 		sts Debug_readLocation,__zero_reg__
 131 0098 1092 0000 		sts (Debug_readLocation)+1,__zero_reg__
 132               	.L9:
 133               	.LM21:
 134 009c 8E2F      		mov r24,r30
 135               	/* epilogue start */
 136 009e 0895      		ret
 137               	.LFE9:
 139               	.global	Debug_SendByte
 141               	Debug_SendByte:
 142               	.LFB10:
 143               	.LM22:
 144               	.LVL5:
 145               	/* prologue: function */
 146               	/* frame size = 0 */
 147 00a0 982F      		mov r25,r24
 148               	.LVL6:
 149               	.L14:
 150               	.LM23:
 151 00a2 8091 A108 		lds r24,2209
 152 00a6 85FF      		sbrs r24,5
 153 00a8 00C0      		rjmp .L14
 154               	.LM24:
 155 00aa 9093 A008 		sts 2208,r25
 156               	/* epilogue start */
 157               	.LM25:
 158 00ae 0895      		ret
 159               	.LFE10:
 161               	.global	__vector_25
 163               	__vector_25:
 164               	.LFB12:
 165               	.LM26:
 166 00b0 1F92      		push __zero_reg__
 167 00b2 0F92      		push r0
 168 00b4 0FB6      		in r0,__SREG__
 169 00b6 0F92      		push r0
 170 00b8 0BB6      		in r0,59-0
 171 00ba 0F92      		push r0
 172 00bc 1124      		clr __zero_reg__
 173 00be 2F93      		push r18
 174 00c0 8F93      		push r24
 175 00c2 9F93      		push r25
 176 00c4 EF93      		push r30
 177 00c6 FF93      		push r31
 178               	/* prologue: Signal */
 179               	/* frame size = 0 */
 180               	.LM27:
 181 00c8 E091 0000 		lds r30,Debug_writeLocation
 182 00cc F091 0000 		lds r31,(Debug_writeLocation)+1
 183 00d0 8091 A008 		lds r24,2208
 184 00d4 E050      		subi r30,lo8(-(DebugBuffer))
 185 00d6 F040      		sbci r31,hi8(-(DebugBuffer))
 186 00d8 8083      		st Z,r24
 187               	.LM28:
 188 00da 8091 0000 		lds r24,Debug_writeLocation
 189 00de 9091 0000 		lds r25,(Debug_writeLocation)+1
 190 00e2 0196      		adiw r24,1
 191 00e4 8093 0000 		sts Debug_writeLocation,r24
 192 00e8 9093 0000 		sts (Debug_writeLocation)+1,r25
 193               	.LM29:
 194 00ec 8091 0000 		lds r24,Debug_writeLocation
 195 00f0 9091 0000 		lds r25,(Debug_writeLocation)+1
 196 00f4 8050      		subi r24,lo8(1024)
 197 00f6 9440      		sbci r25,hi8(1024)
 198 00f8 00F0      		brlo .L19
 199               	.LM30:
 200 00fa 1092 0000 		sts Debug_writeLocation,__zero_reg__
 201 00fe 1092 0000 		sts (Debug_writeLocation)+1,__zero_reg__
 202               	.L19:
 203               	/* epilogue start */
 204               	.LM31:
 205 0102 FF91      		pop r31
 206 0104 EF91      		pop r30
 207 0106 9F91      		pop r25
 208 0108 8F91      		pop r24
 209 010a 2F91      		pop r18
 210 010c 0F90      		pop r0
 211 010e 0BBE      		out 59-0,r0
 212 0110 0F90      		pop r0
 213 0112 0FBE      		out __SREG__,r0
 214 0114 0F90      		pop r0
 215 0116 1F90      		pop __zero_reg__
 216 0118 1895      		reti
 217               	.LFE12:
 219               	.global	Wifi_Init
 221               	Wifi_Init:
 222               	.LFB13:
 223               	.LM32:
 224               	.LVL7:
 225               	/* prologue: function */
 226               	/* frame size = 0 */
 227 011a AB01      		movw r20,r22
 228 011c BC01      		movw r22,r24
 229               	.LM33:
 230 011e 80E8      		ldi r24,lo8(-128)
 231 0120 E0EA      		ldi r30,lo8(1696)
 232 0122 F6E0      		ldi r31,hi8(1696)
 233 0124 8283      		std Z+2,r24
 234               	.LM34:
 235 0126 E0EA      		ldi r30,lo8(2720)
 236 0128 FAE0      		ldi r31,hi8(2720)
 237 012a 8091 A40A 		lds r24,2724
 238 012e 8F7E      		andi r24,lo8(-17)
 239 0130 8483      		std Z+4,r24
 240               	.LM35:
 241 0132 8091 A40A 		lds r24,2724
 242 0136 877F      		andi r24,lo8(-9)
 243 0138 8483      		std Z+4,r24
 244 013a 20E1      		ldi r18,lo8(10000)
 245 013c 37E2      		ldi r19,hi8(10000)
 246               	.LVL8:
 247               	.LBB743:
 248               	.LBB744:
 249               	.LBB745:
 250               	.LBB746:
 251               	.LM36:
 252 013e 80E7      		ldi r24,lo8(368)
 253 0140 91E0      		ldi r25,hi8(368)
 254               	.LVL9:
 255               	.L21:
 256 0142 FC01      		movw r30,r24
 257               	.LVL10:
 258               	/* #APP */
 259               	 ;  105 "/usr/local/CrossPack-AVR-20100115/lib/gcc/avr/4.3.3/../../../../avr/include/util/delay_bas
 260 0144 3197      		1: sbiw r30,1
 261 0146 01F4      		brne 1b
 262               	 ;  0 "" 2
 263               	/* #NOAPP */
 264               	.LBE746:
 265               	.LBE745:
 266               	.LM37:
 267 0148 2150      		subi r18,lo8(-(-1))
 268 014a 3040      		sbci r19,hi8(-(-1))
 269               	.LM38:
 270 014c 01F4      		brne .L21
 271               	.LBE744:
 272               	.LBE743:
 273               	.LM39:
 274 014e E0E8      		ldi r30,lo8(1664)
 275 0150 F6E0      		ldi r31,hi8(1664)
 276               	.LVL11:
 277 0152 88E0      		ldi r24,lo8(8)
 278 0154 8183      		std Z+1,r24
 279               	.LM40:
 280 0156 84E0      		ldi r24,lo8(4)
 281 0158 8283      		std Z+2,r24
 282               	.LM41:
 283 015a E0EA      		ldi r30,lo8(2720)
 284 015c FAE0      		ldi r31,hi8(2720)
 285 015e 83E0      		ldi r24,lo8(3)
 286 0160 8583      		std Z+5,r24
 287               	.LM42:
 288 0162 4038      		cpi r20,lo8(9600)
 289 0164 95E2      		ldi r25,hi8(9600)
 290 0166 5907      		cpc r21,r25
 291 0168 90E0      		ldi r25,hlo8(9600)
 292 016a 6907      		cpc r22,r25
 293 016c 90E0      		ldi r25,hhi8(9600)
 294 016e 7907      		cpc r23,r25
 295 0170 01F4      		brne .L22
 296               	.LM43:
 297 0172 8FE5      		ldi r24,lo8(95)
 298 0174 00C0      		rjmp .L30
 299               	.L22:
 300               	.LM44:
 301 0176 4030      		cpi r20,lo8(115200)
 302 0178 92EC      		ldi r25,hi8(115200)
 303 017a 5907      		cpc r21,r25
 304 017c 91E0      		ldi r25,hlo8(115200)
 305 017e 6907      		cpc r22,r25
 306 0180 90E0      		ldi r25,hhi8(115200)
 307 0182 7907      		cpc r23,r25
 308 0184 01F4      		brne .L24
 309               	.LM45:
 310 0186 87E0      		ldi r24,lo8(7)
 311 0188 00C0      		rjmp .L30
 312               	.L24:
 313               	.LM46:
 314 018a 4030      		cpi r20,lo8(230400)
 315 018c 94E8      		ldi r25,hi8(230400)
 316 018e 5907      		cpc r21,r25
 317 0190 93E0      		ldi r25,hlo8(230400)
 318 0192 6907      		cpc r22,r25
 319 0194 90E0      		ldi r25,hhi8(230400)
 320 0196 7907      		cpc r23,r25
 321 0198 01F0      		breq .L30
 322               	.L25:
 323               	.LM47:
 324 019a 4030      		cpi r20,lo8(460800)
 325 019c 88E0      		ldi r24,hi8(460800)
 326 019e 5807      		cpc r21,r24
 327 01a0 87E0      		ldi r24,hlo8(460800)
 328 01a2 6807      		cpc r22,r24
 329 01a4 80E0      		ldi r24,hhi8(460800)
 330 01a6 7807      		cpc r23,r24
 331 01a8 01F4      		brne .L26
 332               	.LM48:
 333 01aa 81E0      		ldi r24,lo8(1)
 334               	.L30:
 335 01ac 8683      		std Z+6,r24
 336 01ae 00C0      		rjmp .L29
 337               	.L26:
 338               	.LM49:
 339 01b0 4050      		subi r20,lo8(921600)
 340 01b2 5041      		sbci r21,hi8(921600)
 341 01b4 6E40      		sbci r22,hlo8(921600)
 342 01b6 7040      		sbci r23,hhi8(921600)
 343 01b8 01F4      		brne .L23
 344               	.LM50:
 345 01ba 1682      		std Z+6,__zero_reg__
 346               	.L29:
 347               	.LM51:
 348 01bc 1782      		std Z+7,__zero_reg__
 349               	.L23:
 350               	.LM52:
 351 01be E0EA      		ldi r30,lo8(2720)
 352 01c0 FAE0      		ldi r31,hi8(2720)
 353 01c2 8091 A40A 		lds r24,2724
 354 01c6 8061      		ori r24,lo8(16)
 355 01c8 8483      		std Z+4,r24
 356               	.LM53:
 357 01ca 8091 A40A 		lds r24,2724
 358 01ce 8860      		ori r24,lo8(8)
 359 01d0 8483      		std Z+4,r24
 360               	/* epilogue start */
 361               	.LM54:
 362 01d2 0895      		ret
 363               	.LFE13:
 365               	.global	Wifi_CharReadyToRead
 367               	Wifi_CharReadyToRead:
 368               	.LFB15:
 369               	.LM55:
 370               	/* prologue: function */
 371               	/* frame size = 0 */
 372               	.LM56:
 373 01d4 2091 1D01 		lds r18,285
 374 01d8 922F      		mov r25,r18
 375 01da 80E0      		ldi r24,lo8(0)
 376 01dc 8093 0000 		sts Wifi_writeLocation,r24
 377 01e0 9093 0000 		sts (Wifi_writeLocation)+1,r25
 378               	.LM57:
 379 01e4 8091 0000 		lds r24,Wifi_writeLocation
 380 01e8 9091 0000 		lds r25,(Wifi_writeLocation)+1
 381 01ec 2091 1C01 		lds r18,284
 382 01f0 820F      		add r24,r18
 383 01f2 911D      		adc r25,__zero_reg__
 384 01f4 8093 0000 		sts Wifi_writeLocation,r24
 385 01f8 9093 0000 		sts (Wifi_writeLocation)+1,r25
 386               	.LM58:
 387 01fc 8091 0000 		lds r24,Wifi_writeLocation
 388 0200 9091 0000 		lds r25,(Wifi_writeLocation)+1
 389 0204 8050      		subi r24,lo8(WifiBuffer)
 390 0206 9040      		sbci r25,hi8(WifiBuffer)
 391 0208 8093 0000 		sts Wifi_writeLocation,r24
 392 020c 9093 0000 		sts (Wifi_writeLocation)+1,r25
 393               	.LM59:
 394 0210 2091 0000 		lds r18,Wifi_writeLocation
 395 0214 3091 0000 		lds r19,(Wifi_writeLocation)+1
 396 0218 8091 0000 		lds r24,Wifi_readLocation
 397 021c 9091 0000 		lds r25,(Wifi_readLocation)+1
 398 0220 40E0      		ldi r20,lo8(0)
 399 0222 2817      		cp r18,r24
 400 0224 3907      		cpc r19,r25
 401 0226 01F0      		breq .L32
 402 0228 41E0      		ldi r20,lo8(1)
 403               	.L32:
 404               	.LM60:
 405 022a 842F      		mov r24,r20
 406               	/* epilogue start */
 407 022c 0895      		ret
 408               	.LFE15:
 410               	.global	Wifi_ClearBuffer
 412               	Wifi_ClearBuffer:
 413               	.LFB14:
 414               	.LM61:
 415               	/* prologue: function */
 416               	/* frame size = 0 */
 417               	.LM62:
 418 022e 0E94 0000 		call Wifi_CharReadyToRead
 419 0232 8823      		tst r24
 420 0234 01F0      		breq .L36
 421               	.LM63:
 422 0236 2091 1D01 		lds r18,285
 423 023a 922F      		mov r25,r18
 424 023c 80E0      		ldi r24,lo8(0)
 425 023e 8093 0000 		sts Wifi_writeLocation,r24
 426 0242 9093 0000 		sts (Wifi_writeLocation)+1,r25
 427               	.LM64:
 428 0246 8091 0000 		lds r24,Wifi_writeLocation
 429 024a 9091 0000 		lds r25,(Wifi_writeLocation)+1
 430 024e 2091 1C01 		lds r18,284
 431 0252 820F      		add r24,r18
 432 0254 911D      		adc r25,__zero_reg__
 433 0256 8093 0000 		sts Wifi_writeLocation,r24
 434 025a 9093 0000 		sts (Wifi_writeLocation)+1,r25
 435               	.LM65:
 436 025e 8091 0000 		lds r24,Wifi_writeLocation
 437 0262 9091 0000 		lds r25,(Wifi_writeLocation)+1
 438 0266 8050      		subi r24,lo8(WifiBuffer)
 439 0268 9040      		sbci r25,hi8(WifiBuffer)
 440 026a 8093 0000 		sts Wifi_writeLocation,r24
 441 026e 9093 0000 		sts (Wifi_writeLocation)+1,r25
 442               	.LM66:
 443 0272 8091 0000 		lds r24,Wifi_writeLocation
 444 0276 9091 0000 		lds r25,(Wifi_writeLocation)+1
 445 027a 8093 0000 		sts Wifi_readLocation,r24
 446 027e 9093 0000 		sts (Wifi_readLocation)+1,r25
 447               	.L36:
 448 0282 0895      		ret
 449               	.LFE14:
 451               	.global	Wifi_GetByte
 453               	Wifi_GetByte:
 454               	.LFB16:
 455               	.LM67:
 456               	.LVL12:
 457               	/* prologue: function */
 458               	/* frame size = 0 */
 459               	.LM68:
 460 0284 8823      		tst r24
 461 0286 01F0      		breq .L38
 462               	.L42:
 463               	.LM69:
 464 0288 0E94 0000 		call Wifi_CharReadyToRead
 465               	.LVL13:
 466 028c 8823      		tst r24
 467 028e 01F0      		breq .L42
 468               	.LVL14:
 469               	.L38:
 470               	.LM70:
 471 0290 E091 0000 		lds r30,Wifi_readLocation
 472 0294 F091 0000 		lds r31,(Wifi_readLocation)+1
 473 0298 E050      		subi r30,lo8(-(WifiBuffer))
 474 029a F040      		sbci r31,hi8(-(WifiBuffer))
 475 029c E081      		ld r30,Z
 476               	.LVL15:
 477               	.LM71:
 478 029e 8091 0000 		lds r24,Wifi_readLocation
 479 02a2 9091 0000 		lds r25,(Wifi_readLocation)+1
 480               	.LVL16:
 481 02a6 0196      		adiw r24,1
 482 02a8 8093 0000 		sts Wifi_readLocation,r24
 483 02ac 9093 0000 		sts (Wifi_readLocation)+1,r25
 484               	.LM72:
 485 02b0 8091 0000 		lds r24,Wifi_readLocation
 486 02b4 9091 0000 		lds r25,(Wifi_readLocation)+1
 487 02b8 8050      		subi r24,lo8(1024)
 488 02ba 9440      		sbci r25,hi8(1024)
 489 02bc 00F0      		brlo .L40
 490               	.LM73:
 491 02be 1092 0000 		sts Wifi_readLocation,__zero_reg__
 492 02c2 1092 0000 		sts (Wifi_readLocation)+1,__zero_reg__
 493               	.L40:
 494               	.LM74:
 495 02c6 8E2F      		mov r24,r30
 496               	/* epilogue start */
 497 02c8 0895      		ret
 498               	.LFE16:
 500               	.global	Wifi_SendByte
 502               	Wifi_SendByte:
 503               	.LFB17:
 504               	.LM75:
 505               	.LVL17:
 506               	/* prologue: function */
 507               	/* frame size = 0 */
 508 02ca 982F      		mov r25,r24
 509               	.LVL18:
 510               	.L45:
 511               	.LM76:
 512 02cc 8091 A10A 		lds r24,2721
 513 02d0 85FF      		sbrs r24,5
 514 02d2 00C0      		rjmp .L45
 515               	.LM77:
 516 02d4 9093 A00A 		sts 2720,r25
 517               	/* epilogue start */
 518               	.LM78:
 519 02d8 0895      		ret
 520               	.LFE17:
 522               	.global	Wifi_Connected
 524               	Wifi_Connected:
 525               	.LFB23:
 526               	.LM79:
 527               	.LVL19:
 528               	/* prologue: function */
 529               	/* frame size = 0 */
 530 02da AC01      		movw r20,r24
 531               	.LM80:
 532 02dc 20E0      		ldi r18,lo8(0)
 533 02de 30E0      		ldi r19,hi8(0)
 534               	.LVL20:
 535               	.LBB747:
 536               	.LBB748:
 537               	.LBB749:
 538               	.LBB750:
 539               	.LBB751:
 540               	.LM81:
 541 02e0 66E6      		ldi r22,lo8(3686)
 542 02e2 7EE0      		ldi r23,hi8(3686)
 543 02e4 00C0      		rjmp .L49
 544               	.LVL21:
 545               	.L52:
 546               	.LBE751:
 547               	.LBE750:
 548               	.LBE749:
 549               	.LBE748:
 550               	.LM82:
 551 02e6 8091 A806 		lds r24,1704
 552 02ea 87FF      		sbrs r24,7
 553 02ec 00C0      		rjmp .L50
 554               	.LM83:
 555 02ee 81E0      		ldi r24,lo8(1)
 556 02f0 8093 0000 		sts connected,r24
 557 02f4 0895      		ret
 558               	.L50:
 559               	.LBB755:
 560               	.LBB754:
 561               	.LBB753:
 562               	.LBB752:
 563               	.LM84:
 564 02f6 FB01      		movw r30,r22
 565               	/* #APP */
 566               	 ;  105 "/usr/local/CrossPack-AVR-20100115/lib/gcc/avr/4.3.3/../../../../avr/include/util/delay_bas
 567 02f8 3197      		1: sbiw r30,1
 568 02fa 01F4      		brne 1b
 569               	 ;  0 "" 2
 570               	/* #NOAPP */
 571               	.LBE752:
 572               	.LBE753:
 573               	.LBE754:
 574               	.LBE755:
 575               	.LM85:
 576 02fc 2F5F      		subi r18,lo8(-(1))
 577 02fe 3F4F      		sbci r19,hi8(-(1))
 578               	.LVL22:
 579               	.L49:
 580 0300 2417      		cp r18,r20
 581 0302 3507      		cpc r19,r21
 582 0304 00F0      		brlo .L52
 583               	.LBE747:
 584               	.LM86:
 585 0306 1092 0000 		sts connected,__zero_reg__
 586 030a 80E0      		ldi r24,lo8(0)
 587               	.LM87:
 588 030c 0895      		ret
 589               	.LFE23:
 591               	.global	Dpad_Init
 593               	Dpad_Init:
 594               	.LFB26:
 595               	.LM88:
 596               	/* prologue: function */
 597               	/* frame size = 0 */
 598               	.LM89:
 599 030e E0EA      		ldi r30,lo8(1696)
 600 0310 F6E0      		ldi r31,hi8(1696)
 601 0312 88E1      		ldi r24,lo8(24)
 602 0314 828B      		std Z+18,r24
 603               	.LM90:
 604 0316 838B      		std Z+19,r24
 605               	.LM91:
 606 0318 848B      		std Z+20,r24
 607               	.LM92:
 608 031a 858B      		std Z+21,r24
 609               	.LM93:
 610 031c 868B      		std Z+22,r24
 611               	.LM94:
 612 031e 8281      		ldd r24,Z+2
 613 0320 8C67      		ori r24,lo8(124)
 614 0322 8283      		std Z+2,r24
 615               	/* epilogue start */
 616               	.LM95:
 617 0324 0895      		ret
 618               	.LFE26:
 620               	.global	Dpad_Read
 622               	Dpad_Read:
 623               	.LFB27:
 624               	.LM96:
 625               	/* prologue: function */
 626               	/* frame size = 0 */
 627               	.LM97:
 628 0326 E0EA      		ldi r30,lo8(1696)
 629 0328 F6E0      		ldi r31,hi8(1696)
 630 032a 8085      		ldd r24,Z+8
 631               	.LM98:
 632 032c 8C77      		andi r24,lo8(124)
 633               	/* epilogue start */
 634 032e 0895      		ret
 635               	.LFE27:
 637               	.global	Dpad_CheckButton
 639               	Dpad_CheckButton:
 640               	.LFB28:
 641               	.LM99:
 642               	.LVL23:
 643               	/* prologue: function */
 644               	/* frame size = 0 */
 645               	.LBB756:
 646               	.LBB757:
 647               	.LM100:
 648 0330 4091 A806 		lds r20,1704
 649 0334 90E0      		ldi r25,lo8(0)
 650 0336 21E0      		ldi r18,lo8(1)
 651 0338 30E0      		ldi r19,hi8(1)
 652 033a 00C0      		rjmp 2f
 653 033c 220F      	1:	lsl r18
 654 033e 331F      		rol r19
 655 0340 8A95      	2:	dec r24
 656 0342 02F4      		brpl 1b
 657 0344 4C77      		andi r20,lo8(124)
 658 0346 50E0      		ldi r21,lo8(0)
 659 0348 2423      		and r18,r20
 660 034a 3523      		and r19,r21
 661 034c 1216      		cp __zero_reg__,r18
 662 034e 1306      		cpc __zero_reg__,r19
 663 0350 04F0      		brlt .L59
 664 0352 91E0      		ldi r25,lo8(1)
 665               	.L59:
 666               	.LBE757:
 667               	.LBE756:
 668               	.LM101:
 669 0354 892F      		mov r24,r25
 670               	.LVL24:
 671               	/* epilogue start */
 672 0356 0895      		ret
 673               	.LFE28:
 675               	.global	Leds_Init
 677               	Leds_Init:
 678               	.LFB29:
 679               	.LM102:
 680               	/* prologue: function */
 681               	/* frame size = 0 */
 682               	.LM103:
 683 0358 E0E2      		ldi r30,lo8(1568)
 684 035a F6E0      		ldi r31,hi8(1568)
 685 035c 8181      		ldd r24,Z+1
 686 035e 836F      		ori r24,lo8(-13)
 687 0360 8183      		std Z+1,r24
 688               	/* epilogue start */
 689               	.LM104:
 690 0362 0895      		ret
 691               	.LFE29:
 693               	.global	Leds_Set
 695               	Leds_Set:
 696               	.LFB30:
 697               	.LM105:
 698               	.LVL25:
 699               	/* prologue: function */
 700               	/* frame size = 0 */
 701               	.LM106:
 702 0364 21E0      		ldi r18,lo8(1)
 703 0366 30E0      		ldi r19,hi8(1)
 704 0368 00C0      		rjmp 2f
 705 036a 220F      	1:	lsl r18
 706 036c 331F      		rol r19
 707 036e 8A95      	2:	dec r24
 708 0370 02F4      		brpl 1b
 709 0372 E0E2      		ldi r30,lo8(1568)
 710 0374 F6E0      		ldi r31,hi8(1568)
 711 0376 2583      		std Z+5,r18
 712               	/* epilogue start */
 713               	.LM107:
 714 0378 0895      		ret
 715               	.LFE30:
 717               	.global	Leds_Clear
 719               	Leds_Clear:
 720               	.LFB31:
 721               	.LM108:
 722               	.LVL26:
 723               	/* prologue: function */
 724               	/* frame size = 0 */
 725               	.LM109:
 726 037a 21E0      		ldi r18,lo8(1)
 727 037c 30E0      		ldi r19,hi8(1)
 728 037e 00C0      		rjmp 2f
 729 0380 220F      	1:	lsl r18
 730 0382 331F      		rol r19
 731 0384 8A95      	2:	dec r24
 732 0386 02F4      		brpl 1b
 733 0388 E0E2      		ldi r30,lo8(1568)
 734 038a F6E0      		ldi r31,hi8(1568)
 735 038c 2683      		std Z+6,r18
 736               	/* epilogue start */
 737               	.LM110:
 738 038e 0895      		ret
 739               	.LFE31:
 741               	.global	Leds_Toggle
 743               	Leds_Toggle:
 744               	.LFB32:
 745               	.LM111:
 746               	.LVL27:
 747               	/* prologue: function */
 748               	/* frame size = 0 */
 749               	.LM112:
 750 0390 21E0      		ldi r18,lo8(1)
 751 0392 30E0      		ldi r19,hi8(1)
 752 0394 00C0      		rjmp 2f
 753 0396 220F      	1:	lsl r18
 754 0398 331F      		rol r19
 755 039a 8A95      	2:	dec r24
 756 039c 02F4      		brpl 1b
 757 039e E0E2      		ldi r30,lo8(1568)
 758 03a0 F6E0      		ldi r31,hi8(1568)
 759 03a2 2783      		std Z+7,r18
 760               	/* epilogue start */
 761               	.LM113:
 762 03a4 0895      		ret
 763               	.LFE32:
 765               	.global	Rs232_Init
 767               	Rs232_Init:
 768               	.LFB33:
 769               	.LM114:
 770               	/* prologue: function */
 771               	/* frame size = 0 */
 772               	.LM115:
 773 03a6 E0E6      		ldi r30,lo8(1632)
 774 03a8 F6E0      		ldi r31,hi8(1632)
 775 03aa 88E0      		ldi r24,lo8(8)
 776 03ac 8183      		std Z+1,r24
 777               	.LM116:
 778 03ae 84E0      		ldi r24,lo8(4)
 779 03b0 8283      		std Z+2,r24
 780               	.LM117:
 781 03b2 E0EA      		ldi r30,lo8(2464)
 782 03b4 F9E0      		ldi r31,hi8(2464)
 783 03b6 83E0      		ldi r24,lo8(3)
 784 03b8 8583      		std Z+5,r24
 785               	.LM118:
 786 03ba 8FE5      		ldi r24,lo8(95)
 787 03bc 8683      		std Z+6,r24
 788               	.LM119:
 789 03be 1782      		std Z+7,__zero_reg__
 790               	.LM120:
 791 03c0 8481      		ldd r24,Z+4
 792 03c2 8061      		ori r24,lo8(16)
 793 03c4 8483      		std Z+4,r24
 794               	.LM121:
 795 03c6 8481      		ldd r24,Z+4
 796 03c8 8860      		ori r24,lo8(8)
 797 03ca 8483      		std Z+4,r24
 798               	.LM122:
 799 03cc 8381      		ldd r24,Z+3
 800 03ce 8062      		ori r24,lo8(32)
 801 03d0 8383      		std Z+3,r24
 802               	/* epilogue start */
 803               	.LM123:
 804 03d2 0895      		ret
 805               	.LFE33:
 807               	.global	Rs232_CharReadyToRead
 809               	Rs232_CharReadyToRead:
 810               	.LFB34:
 811               	.LM124:
 812               	/* prologue: function */
 813               	/* frame size = 0 */
 814               	.LM125:
 815 03d4 2091 0000 		lds r18,Rs232_writeLocation
 816 03d8 3091 0000 		lds r19,(Rs232_writeLocation)+1
 817 03dc 8091 0000 		lds r24,Rs232_readLocation
 818 03e0 9091 0000 		lds r25,(Rs232_readLocation)+1
 819 03e4 40E0      		ldi r20,lo8(0)
 820 03e6 2817      		cp r18,r24
 821 03e8 3907      		cpc r19,r25
 822 03ea 01F0      		breq .L72
 823 03ec 41E0      		ldi r20,lo8(1)
 824               	.L72:
 825               	.LM126:
 826 03ee 842F      		mov r24,r20
 827               	/* epilogue start */
 828 03f0 0895      		ret
 829               	.LFE34:
 831               	.global	Rs232_GetByte
 833               	Rs232_GetByte:
 834               	.LFB35:
 835               	.LM127:
 836               	.LVL28:
 837               	/* prologue: function */
 838               	/* frame size = 0 */
 839               	.LM128:
 840 03f2 8823      		tst r24
 841 03f4 01F0      		breq .L75
 842               	.L79:
 843               	.LBB758:
 844               	.LBB759:
 845               	.LM129:
 846 03f6 2091 0000 		lds r18,Rs232_writeLocation
 847 03fa 3091 0000 		lds r19,(Rs232_writeLocation)+1
 848 03fe 8091 0000 		lds r24,Rs232_readLocation
 849 0402 9091 0000 		lds r25,(Rs232_readLocation)+1
 850               	.LVL29:
 851 0406 2817      		cp r18,r24
 852 0408 3907      		cpc r19,r25
 853 040a 01F0      		breq .L79
 854               	.LVL30:
 855               	.L75:
 856               	.LBE759:
 857               	.LBE758:
 858               	.LM130:
 859 040c E091 0000 		lds r30,Rs232_readLocation
 860 0410 F091 0000 		lds r31,(Rs232_readLocation)+1
 861 0414 E050      		subi r30,lo8(-(Rs232Buffer))
 862 0416 F040      		sbci r31,hi8(-(Rs232Buffer))
 863 0418 E081      		ld r30,Z
 864               	.LVL31:
 865               	.LM131:
 866 041a 8091 0000 		lds r24,Rs232_readLocation
 867 041e 9091 0000 		lds r25,(Rs232_readLocation)+1
 868               	.LVL32:
 869 0422 0196      		adiw r24,1
 870 0424 8093 0000 		sts Rs232_readLocation,r24
 871 0428 9093 0000 		sts (Rs232_readLocation)+1,r25
 872               	.LM132:
 873 042c 8091 0000 		lds r24,Rs232_readLocation
 874 0430 9091 0000 		lds r25,(Rs232_readLocation)+1
 875 0434 8050      		subi r24,lo8(1024)
 876 0436 9440      		sbci r25,hi8(1024)
 877 0438 00F0      		brlo .L77
 878               	.LM133:
 879 043a 1092 0000 		sts Rs232_readLocation,__zero_reg__
 880 043e 1092 0000 		sts (Rs232_readLocation)+1,__zero_reg__
 881               	.L77:
 882               	.LM134:
 883 0442 8E2F      		mov r24,r30
 884               	/* epilogue start */
 885 0444 0895      		ret
 886               	.LFE35:
 888               	.global	Rs232_ClearBuffer
 890               	Rs232_ClearBuffer:
 891               	.LFB36:
 892               	.LM135:
 893               	/* prologue: function */
 894               	/* frame size = 0 */
 895               	.LM136:
 896 0446 8091 0000 		lds r24,Rs232_writeLocation
 897 044a 9091 0000 		lds r25,(Rs232_writeLocation)+1
 898 044e 8093 0000 		sts Rs232_readLocation,r24
 899 0452 9093 0000 		sts (Rs232_readLocation)+1,r25
 900               	/* epilogue start */
 901               	.LM137:
 902 0456 0895      		ret
 903               	.LFE36:
 905               	.global	Rs232_SendByte
 907               	Rs232_SendByte:
 908               	.LFB37:
 909               	.LM138:
 910               	.LVL33:
 911               	/* prologue: function */
 912               	/* frame size = 0 */
 913 0458 982F      		mov r25,r24
 914               	.LVL34:
 915               	.L84:
 916               	.LM139:
 917 045a 8091 A109 		lds r24,2465
 918 045e 85FF      		sbrs r24,5
 919 0460 00C0      		rjmp .L84
 920               	.LM140:
 921 0462 9093 A009 		sts 2464,r25
 922               	/* epilogue start */
 923               	.LM141:
 924 0466 0895      		ret
 925               	.LFE37:
 928               	wait_ready:
 929               	.LFB41:
 930               	.LM142:
 931               	/* prologue: function */
 932               	/* frame size = 0 */
 933               	.LM143:
 934 0468 82E3      		ldi r24,lo8(50)
 935 046a 8093 0000 		sts Timer2,r24
 936               	.LBB760:
 937               	.LBB761:
 938               	.LM144:
 939 046e 8FEF      		ldi r24,lo8(-1)
 940 0470 E0EC      		ldi r30,lo8(2496)
 941 0472 F9E0      		ldi r31,hi8(2496)
 942 0474 8383      		std Z+3,r24
 943               	.L88:
 944               	.LM145:
 945 0476 8091 C209 		lds r24,2498
 946 047a 87FF      		sbrs r24,7
 947 047c 00C0      		rjmp .L88
 948               	.LM146:
 949 047e 8091 C309 		lds r24,2499
 950               	.LBE761:
 951               	.LBE760:
 952               	.LBB762:
 953               	.LBB763:
 954               	.LM147:
 955 0482 E0EC      		ldi r30,lo8(2496)
 956 0484 F9E0      		ldi r31,hi8(2496)
 957 0486 2FEF      		ldi r18,lo8(-1)
 958               	.LVL35:
 959               	.L91:
 960 0488 2383      		std Z+3,r18
 961               	.L89:
 962               	.LM148:
 963 048a 8091 C209 		lds r24,2498
 964 048e 87FF      		sbrs r24,7
 965 0490 00C0      		rjmp .L89
 966               	.LM149:
 967 0492 9091 C309 		lds r25,2499
 968               	.LBE763:
 969               	.LBE762:
 970               	.LM150:
 971 0496 9F3F      		cpi r25,lo8(-1)
 972 0498 01F0      		breq .L90
 973 049a 8091 0000 		lds r24,Timer2
 974 049e 8823      		tst r24
 975 04a0 01F4      		brne .L91
 976               	.L90:
 977               	.LM151:
 978 04a2 892F      		mov r24,r25
 979               	/* epilogue start */
 980 04a4 0895      		ret
 981               	.LFE41:
 984               	select:
 985               	.LFB43:
 986               	.LM152:
 987 04a6 1F93      		push r17
 988 04a8 CF93      		push r28
 989 04aa DF93      		push r29
 990               	/* prologue: function */
 991               	/* frame size = 0 */
 992               	.LM153:
 993 04ac C0E6      		ldi r28,lo8(1632)
 994 04ae D6E0      		ldi r29,hi8(1632)
 995 04b0 10E1      		ldi r17,lo8(16)
 996 04b2 1E83      		std Y+6,r17
 997               	.LM154:
 998 04b4 0E94 0000 		call wait_ready
 999 04b8 8F3F      		cpi r24,lo8(-1)
 1000 04ba 01F4      		brne .L97
 1001 04bc 81E0      		ldi r24,lo8(1)
 1002 04be 00C0      		rjmp .L98
 1003               	.L97:
 1004               	.LBB764:
 1005               	.LBB765:
 1006               	.LM155:
 1007 04c0 1D83      		std Y+5,r17
 1008               	.LBB766:
 1009               	.LBB767:
 1010               	.LM156:
 1011 04c2 8FEF      		ldi r24,lo8(-1)
 1012 04c4 E0EC      		ldi r30,lo8(2496)
 1013 04c6 F9E0      		ldi r31,hi8(2496)
 1014 04c8 8383      		std Z+3,r24
 1015               	.L99:
 1016               	.LM157:
 1017 04ca 8091 C209 		lds r24,2498
 1018 04ce 87FF      		sbrs r24,7
 1019 04d0 00C0      		rjmp .L99
 1020               	.LM158:
 1021 04d2 8091 C309 		lds r24,2499
 1022 04d6 80E0      		ldi r24,lo8(0)
 1023               	.L98:
 1024               	/* epilogue start */
 1025               	.LBE767:
 1026               	.LBE766:
 1027               	.LBE765:
 1028               	.LBE764:
 1029               	.LM159:
 1030 04d8 DF91      		pop r29
 1031 04da CF91      		pop r28
 1032 04dc 1F91      		pop r17
 1033 04de 0895      		ret
 1034               	.LFE43:
 1037               	rcvr_datablock:
 1038               	.LFB47:
 1039               	.LM160:
 1040               	.LVL36:
 1041               	/* prologue: function */
 1042               	/* frame size = 0 */
 1043 04e0 FC01      		movw r30,r24
 1044               	.LM161:
 1045 04e2 84E1      		ldi r24,lo8(20)
 1046               	.LVL37:
 1047 04e4 8093 0000 		sts Timer1,r24
 1048               	.LBB768:
 1049               	.LBB769:
 1050               	.LM162:
 1051 04e8 A0EC      		ldi r26,lo8(2496)
 1052 04ea B9E0      		ldi r27,hi8(2496)
 1053 04ec 9FEF      		ldi r25,lo8(-1)
 1054               	.L105:
 1055 04ee 1396      		adiw r26,3
 1056 04f0 9C93      		st X,r25
 1057 04f2 1397      		sbiw r26,3
 1058               	.L103:
 1059               	.LM163:
 1060 04f4 8091 C209 		lds r24,2498
 1061 04f8 87FF      		sbrs r24,7
 1062 04fa 00C0      		rjmp .L103
 1063               	.LM164:
 1064 04fc 8091 C309 		lds r24,2499
 1065               	.LVL38:
 1066               	.LBE769:
 1067               	.LBE768:
 1068               	.LM165:
 1069 0500 8F3F      		cpi r24,lo8(-1)
 1070 0502 01F4      		brne .L104
 1071 0504 8091 0000 		lds r24,Timer1
 1072               	.LVL39:
 1073 0508 8823      		tst r24
 1074 050a 01F4      		brne .L105
 1075 050c 00C0      		rjmp .L106
 1076               	.LVL40:
 1077               	.L104:
 1078               	.LM166:
 1079 050e 8E3F      		cpi r24,lo8(-2)
 1080 0510 01F0      		breq .+2
 1081 0512 00C0      		rjmp .L106
 1082               	.LM167:
 1083 0514 A0EC      		ldi r26,lo8(2496)
 1084 0516 B9E0      		ldi r27,hi8(2496)
 1085 0518 9FEF      		ldi r25,lo8(-1)
 1086               	.L125:
 1087 051a 1396      		adiw r26,3
 1088 051c 9C93      		st X,r25
 1089 051e 1397      		sbiw r26,3
 1090               	.L107:
 1091 0520 8091 C209 		lds r24,2498
 1092               	.LVL41:
 1093 0524 87FF      		sbrs r24,7
 1094 0526 00C0      		rjmp .L107
 1095 0528 8091 C309 		lds r24,2499
 1096 052c 8083      		st Z,r24
 1097               	.LM168:
 1098 052e 1396      		adiw r26,3
 1099 0530 9C93      		st X,r25
 1100 0532 1397      		sbiw r26,3
 1101               	.L108:
 1102 0534 8091 C209 		lds r24,2498
 1103 0538 87FF      		sbrs r24,7
 1104 053a 00C0      		rjmp .L108
 1105 053c 8091 C309 		lds r24,2499
 1106 0540 8183      		std Z+1,r24
 1107               	.LM169:
 1108 0542 1396      		adiw r26,3
 1109 0544 9C93      		st X,r25
 1110 0546 1397      		sbiw r26,3
 1111               	.L109:
 1112 0548 8091 C209 		lds r24,2498
 1113 054c 87FF      		sbrs r24,7
 1114 054e 00C0      		rjmp .L109
 1115 0550 8091 C309 		lds r24,2499
 1116 0554 8283      		std Z+2,r24
 1117               	.LM170:
 1118 0556 1396      		adiw r26,3
 1119 0558 9C93      		st X,r25
 1120 055a 1397      		sbiw r26,3
 1121               	.L110:
 1122 055c 8091 C209 		lds r24,2498
 1123 0560 87FF      		sbrs r24,7
 1124 0562 00C0      		rjmp .L110
 1125 0564 8091 C309 		lds r24,2499
 1126 0568 8383      		std Z+3,r24
 1127               	.LM171:
 1128 056a 6450      		subi r22,lo8(-(-4))
 1129 056c 7040      		sbci r23,hi8(-(-4))
 1130               	.LVL42:
 1131 056e 01F0      		breq .L111
 1132               	.LM172:
 1133 0570 3496      		adiw r30,4
 1134 0572 00C0      		rjmp .L125
 1135               	.L111:
 1136               	.LBB770:
 1137               	.LBB771:
 1138               	.LM173:
 1139 0574 8FEF      		ldi r24,lo8(-1)
 1140 0576 E0EC      		ldi r30,lo8(2496)
 1141 0578 F9E0      		ldi r31,hi8(2496)
 1142               	.LVL43:
 1143 057a 8383      		std Z+3,r24
 1144               	.L113:
 1145               	.LM174:
 1146 057c 8091 C209 		lds r24,2498
 1147 0580 87FF      		sbrs r24,7
 1148 0582 00C0      		rjmp .L113
 1149               	.LM175:
 1150 0584 8091 C309 		lds r24,2499
 1151               	.LBE771:
 1152               	.LBE770:
 1153               	.LBB772:
 1154               	.LBB773:
 1155               	.LM176:
 1156 0588 8FEF      		ldi r24,lo8(-1)
 1157 058a E0EC      		ldi r30,lo8(2496)
 1158 058c F9E0      		ldi r31,hi8(2496)
 1159 058e 8383      		std Z+3,r24
 1160               	.L114:
 1161               	.LM177:
 1162 0590 8091 C209 		lds r24,2498
 1163 0594 87FF      		sbrs r24,7
 1164 0596 00C0      		rjmp .L114
 1165               	.LM178:
 1166 0598 8091 C309 		lds r24,2499
 1167 059c 81E0      		ldi r24,lo8(1)
 1168 059e 0895      		ret
 1169               	.LVL44:
 1170               	.L106:
 1171               	.LM179:
 1172 05a0 80E0      		ldi r24,lo8(0)
 1173               	.LVL45:
 1174               	.LBE773:
 1175               	.LBE772:
 1176               	.LM180:
 1177 05a2 0895      		ret
 1178               	.LFE47:
 1181               	xmit_datablock:
 1182               	.LFB48:
 1183               	.LM181:
 1184               	.LVL46:
 1185 05a4 1F93      		push r17
 1186 05a6 CF93      		push r28
 1187 05a8 DF93      		push r29
 1188               	/* prologue: function */
 1189               	/* frame size = 0 */
 1190 05aa EC01      		movw r28,r24
 1191 05ac 162F      		mov r17,r22
 1192               	.LM182:
 1193 05ae 0E94 0000 		call wait_ready
 1194               	.LVL47:
 1195 05b2 8F3F      		cpi r24,lo8(-1)
 1196 05b4 01F0      		breq .L127
 1197 05b6 90E0      		ldi r25,lo8(0)
 1198 05b8 00C0      		rjmp .L128
 1199               	.L127:
 1200               	.LM183:
 1201 05ba E0EC      		ldi r30,lo8(2496)
 1202 05bc F9E0      		ldi r31,hi8(2496)
 1203 05be 1383      		std Z+3,r17
 1204               	.L129:
 1205 05c0 8091 C209 		lds r24,2498
 1206 05c4 87FF      		sbrs r24,7
 1207 05c6 00C0      		rjmp .L129
 1208               	.LM184:
 1209 05c8 1D3F      		cpi r17,lo8(-3)
 1210 05ca 01F4      		brne .L130
 1211 05cc 91E0      		ldi r25,lo8(1)
 1212 05ce 00C0      		rjmp .L128
 1213               	.L130:
 1214 05d0 90E0      		ldi r25,lo8(0)
 1215               	.LVL48:
 1216               	.LM185:
 1217 05d2 E0EC      		ldi r30,lo8(2496)
 1218 05d4 F9E0      		ldi r31,hi8(2496)
 1219               	.L134:
 1220 05d6 8881      		ld r24,Y
 1221 05d8 8383      		std Z+3,r24
 1222               	.L131:
 1223 05da 8091 C209 		lds r24,2498
 1224 05de 87FF      		sbrs r24,7
 1225 05e0 00C0      		rjmp .L131
 1226               	.LM186:
 1227 05e2 8981      		ldd r24,Y+1
 1228 05e4 8383      		std Z+3,r24
 1229               	.L132:
 1230 05e6 8091 C209 		lds r24,2498
 1231 05ea 87FF      		sbrs r24,7
 1232 05ec 00C0      		rjmp .L132
 1233               	.LM187:
 1234 05ee 9150      		subi r25,lo8(-(-1))
 1235 05f0 01F0      		breq .L133
 1236               	.LM188:
 1237 05f2 2296      		adiw r28,2
 1238 05f4 00C0      		rjmp .L134
 1239               	.L133:
 1240               	.LM189:
 1241 05f6 8FEF      		ldi r24,lo8(-1)
 1242 05f8 E0EC      		ldi r30,lo8(2496)
 1243 05fa F9E0      		ldi r31,hi8(2496)
 1244 05fc 8383      		std Z+3,r24
 1245               	.L135:
 1246 05fe 8091 C209 		lds r24,2498
 1247 0602 87FF      		sbrs r24,7
 1248 0604 00C0      		rjmp .L135
 1249               	.LM190:
 1250 0606 8FEF      		ldi r24,lo8(-1)
 1251 0608 E0EC      		ldi r30,lo8(2496)
 1252 060a F9E0      		ldi r31,hi8(2496)
 1253 060c 8383      		std Z+3,r24
 1254               	.L136:
 1255 060e 8091 C209 		lds r24,2498
 1256 0612 87FF      		sbrs r24,7
 1257 0614 00C0      		rjmp .L136
 1258               	.LBB774:
 1259               	.LBB775:
 1260               	.LM191:
 1261 0616 8FEF      		ldi r24,lo8(-1)
 1262 0618 E0EC      		ldi r30,lo8(2496)
 1263 061a F9E0      		ldi r31,hi8(2496)
 1264 061c 8383      		std Z+3,r24
 1265               	.L137:
 1266               	.LM192:
 1267 061e 8091 C209 		lds r24,2498
 1268 0622 87FF      		sbrs r24,7
 1269 0624 00C0      		rjmp .L137
 1270               	.LM193:
 1271 0626 8091 C309 		lds r24,2499
 1272               	.LVL49:
 1273 062a 90E0      		ldi r25,lo8(0)
 1274               	.LVL50:
 1275 062c 8F71      		andi r24,lo8(31)
 1276 062e 8530      		cpi r24,lo8(5)
 1277 0630 01F0      		breq .L138
 1278 0632 91E0      		ldi r25,lo8(1)
 1279               	.L138:
 1280 0634 81E0      		ldi r24,lo8(1)
 1281               	.LVL51:
 1282 0636 9827      		eor r25,r24
 1283               	.L128:
 1284               	.LBE775:
 1285               	.LBE774:
 1286               	.LM194:
 1287 0638 892F      		mov r24,r25
 1288               	/* epilogue start */
 1289 063a DF91      		pop r29
 1290 063c CF91      		pop r28
 1291               	.LVL52:
 1292 063e 1F91      		pop r17
 1293               	.LVL53:
 1294 0640 0895      		ret
 1295               	.LFE48:
 1298               	send_cmd:
 1299               	.LFB49:
 1300               	.LM195:
 1301               	.LVL54:
 1302 0642 DF92      		push r13
 1303 0644 EF92      		push r14
 1304 0646 FF92      		push r15
 1305 0648 0F93      		push r16
 1306 064a 1F93      		push r17
 1307               	/* prologue: function */
 1308               	/* frame size = 0 */
 1309 064c D82E      		mov r13,r24
 1310 064e 7A01      		movw r14,r20
 1311 0650 8B01      		movw r16,r22
 1312               	.LM196:
 1313 0652 87FF      		sbrs r24,7
 1314 0654 00C0      		rjmp .L147
 1315               	.LVL55:
 1316               	.LM197:
 1317 0656 87E7      		ldi r24,lo8(119)
 1318               	.LVL56:
 1319 0658 40E0      		ldi r20,lo8(0)
 1320 065a 50E0      		ldi r21,hi8(0)
 1321 065c 60E0      		ldi r22,hlo8(0)
 1322 065e 70E0      		ldi r23,hhi8(0)
 1323 0660 0E94 0000 		call send_cmd
 1324               	.LM198:
 1325 0664 8230      		cpi r24,lo8(2)
 1326               	.LVL57:
 1327 0666 00F0      		brlo .+2
 1328 0668 00C0      		rjmp .L148
 1329               	.LM199:
 1330 066a 8FE7      		ldi r24,lo8(127)
 1331               	.LVL58:
 1332 066c D822      		and r13,r24
 1333               	.LVL59:
 1334               	.L147:
 1335               	.LBB776:
 1336               	.LBB777:
 1337               	.LM200:
 1338 066e 80E1      		ldi r24,lo8(16)
 1339 0670 E0E6      		ldi r30,lo8(1632)
 1340 0672 F6E0      		ldi r31,hi8(1632)
 1341 0674 8583      		std Z+5,r24
 1342               	.LBB778:
 1343               	.LBB779:
 1344               	.LM201:
 1345 0676 8FEF      		ldi r24,lo8(-1)
 1346 0678 E0EC      		ldi r30,lo8(2496)
 1347 067a F9E0      		ldi r31,hi8(2496)
 1348 067c 8383      		std Z+3,r24
 1349               	.L149:
 1350               	.LM202:
 1351 067e 8091 C209 		lds r24,2498
 1352 0682 87FF      		sbrs r24,7
 1353 0684 00C0      		rjmp .L149
 1354               	.LM203:
 1355 0686 8091 C309 		lds r24,2499
 1356               	.LBE779:
 1357               	.LBE778:
 1358               	.LBE777:
 1359               	.LBE776:
 1360               	.LM204:
 1361 068a 0E94 0000 		call select
 1362 068e 8823      		tst r24
 1363 0690 01F4      		brne .L150
 1364 0692 8FEF      		ldi r24,lo8(-1)
 1365               	.LVL60:
 1366 0694 00C0      		rjmp .L148
 1367               	.LVL61:
 1368               	.L150:
 1369               	.LM205:
 1370 0696 E0EC      		ldi r30,lo8(2496)
 1371 0698 F9E0      		ldi r31,hi8(2496)
 1372 069a D382      		std Z+3,r13
 1373               	.L151:
 1374 069c 8091 C209 		lds r24,2498
 1375 06a0 87FF      		sbrs r24,7
 1376 06a2 00C0      		rjmp .L151
 1377               	.LM206:
 1378 06a4 812F      		mov r24,r17
 1379 06a6 9927      		clr r25
 1380 06a8 AA27      		clr r26
 1381 06aa BB27      		clr r27
 1382 06ac E0EC      		ldi r30,lo8(2496)
 1383 06ae F9E0      		ldi r31,hi8(2496)
 1384 06b0 8383      		std Z+3,r24
 1385               	.L152:
 1386 06b2 8091 C209 		lds r24,2498
 1387 06b6 87FF      		sbrs r24,7
 1388 06b8 00C0      		rjmp .L152
 1389               	.LM207:
 1390 06ba C801      		movw r24,r16
 1391 06bc AA27      		clr r26
 1392 06be BB27      		clr r27
 1393 06c0 E0EC      		ldi r30,lo8(2496)
 1394 06c2 F9E0      		ldi r31,hi8(2496)
 1395 06c4 8383      		std Z+3,r24
 1396               	.L153:
 1397 06c6 8091 C209 		lds r24,2498
 1398 06ca 87FF      		sbrs r24,7
 1399 06cc 00C0      		rjmp .L153
 1400               	.LM208:
 1401 06ce BB27      		clr r27
 1402 06d0 A12F      		mov r26,r17
 1403 06d2 902F      		mov r25,r16
 1404 06d4 8F2D      		mov r24,r15
 1405 06d6 E0EC      		ldi r30,lo8(2496)
 1406 06d8 F9E0      		ldi r31,hi8(2496)
 1407 06da 8383      		std Z+3,r24
 1408               	.L154:
 1409 06dc 8091 C209 		lds r24,2498
 1410 06e0 87FF      		sbrs r24,7
 1411 06e2 00C0      		rjmp .L154
 1412               	.LM209:
 1413 06e4 E0EC      		ldi r30,lo8(2496)
 1414 06e6 F9E0      		ldi r31,hi8(2496)
 1415 06e8 E382      		std Z+3,r14
 1416               	.L155:
 1417 06ea 8091 C209 		lds r24,2498
 1418 06ee 87FF      		sbrs r24,7
 1419 06f0 00C0      		rjmp .L155
 1420               	.LM210:
 1421 06f2 80E4      		ldi r24,lo8(64)
 1422 06f4 D816      		cp r13,r24
 1423 06f6 01F4      		brne .L156
 1424 06f8 85E9      		ldi r24,lo8(-107)
 1425               	.LVL62:
 1426 06fa 00C0      		rjmp .L157
 1427               	.LVL63:
 1428               	.L156:
 1429               	.LM211:
 1430 06fc 88E4      		ldi r24,lo8(72)
 1431 06fe D816      		cp r13,r24
 1432 0700 01F4      		brne .L158
 1433 0702 87E8      		ldi r24,lo8(-121)
 1434               	.LVL64:
 1435 0704 00C0      		rjmp .L157
 1436               	.LVL65:
 1437               	.L158:
 1438 0706 81E0      		ldi r24,lo8(1)
 1439               	.LVL66:
 1440               	.L157:
 1441               	.LM212:
 1442 0708 E0EC      		ldi r30,lo8(2496)
 1443 070a F9E0      		ldi r31,hi8(2496)
 1444 070c 8383      		std Z+3,r24
 1445               	.L159:
 1446 070e 8091 C209 		lds r24,2498
 1447               	.LVL67:
 1448 0712 87FF      		sbrs r24,7
 1449 0714 00C0      		rjmp .L159
 1450               	.LM213:
 1451 0716 8CE4      		ldi r24,lo8(76)
 1452 0718 D816      		cp r13,r24
 1453 071a 01F4      		brne .L176
 1454               	.L160:
 1455               	.LBB780:
 1456               	.LBB781:
 1457               	.LM214:
 1458 071c 8FEF      		ldi r24,lo8(-1)
 1459 071e E0EC      		ldi r30,lo8(2496)
 1460 0720 F9E0      		ldi r31,hi8(2496)
 1461 0722 8383      		std Z+3,r24
 1462               	.L162:
 1463               	.LM215:
 1464 0724 8091 C209 		lds r24,2498
 1465 0728 87FF      		sbrs r24,7
 1466 072a 00C0      		rjmp .L162
 1467               	.LM216:
 1468 072c 8091 C309 		lds r24,2499
 1469               	.L176:
 1470 0730 9AE0      		ldi r25,lo8(10)
 1471               	.LVL68:
 1472               	.LBE781:
 1473               	.LBE780:
 1474               	.LBB782:
 1475               	.LBB783:
 1476               	.LM217:
 1477 0732 E0EC      		ldi r30,lo8(2496)
 1478 0734 F9E0      		ldi r31,hi8(2496)
 1479 0736 2FEF      		ldi r18,lo8(-1)
 1480               	.LVL69:
 1481               	.L165:
 1482 0738 2383      		std Z+3,r18
 1483               	.L163:
 1484               	.LM218:
 1485 073a 8091 C209 		lds r24,2498
 1486               	.LVL70:
 1487 073e 87FF      		sbrs r24,7
 1488 0740 00C0      		rjmp .L163
 1489               	.LM219:
 1490 0742 8091 C309 		lds r24,2499
 1491               	.LVL71:
 1492               	.LBE783:
 1493               	.LBE782:
 1494               	.LM220:
 1495 0746 87FF      		sbrs r24,7
 1496 0748 00C0      		rjmp .L148
 1497 074a 9150      		subi r25,lo8(-(-1))
 1498 074c 01F4      		brne .L165
 1499               	.L148:
 1500               	.LVL72:
 1501               	/* epilogue start */
 1502               	.LM221:
 1503 074e 1F91      		pop r17
 1504 0750 0F91      		pop r16
 1505 0752 FF90      		pop r15
 1506 0754 EF90      		pop r14
 1507               	.LVL73:
 1508 0756 DF90      		pop r13
 1509               	.LVL74:
 1510 0758 0895      		ret
 1511               	.LFE49:
 1513               	.global	disk_initialize
 1515               	disk_initialize:
 1516               	.LFB50:
 1517               	.LM222:
 1518               	.LVL75:
 1519 075a EF92      		push r14
 1520 075c FF92      		push r15
 1521 075e 0F93      		push r16
 1522 0760 1F93      		push r17
 1523 0762 DF93      		push r29
 1524 0764 CF93      		push r28
 1525 0766 CDB7      		in r28,__SP_L__
 1526 0768 DEB7      		in r29,__SP_H__
 1527 076a 2597      		sbiw r28,5
 1528 076c CDBF      		out __SP_L__,r28
 1529 076e DEBF      		out __SP_H__,r29
 1530               	/* prologue: function */
 1531               	/* frame size = 5 */
 1532               	.LM223:
 1533 0770 8823      		tst r24
 1534 0772 01F0      		breq .L178
 1535 0774 81E0      		ldi r24,lo8(1)
 1536               	.LVL76:
 1537 0776 00C0      		rjmp .L179
 1538               	.LVL77:
 1539               	.L178:
 1540               	.LM224:
 1541 0778 8091 0000 		lds r24,Stat
 1542               	.LVL78:
 1543 077c 81FD      		sbrc r24,1
 1544 077e 00C0      		rjmp .L213
 1545               	.L180:
 1546               	.LBB784:
 1547               	.LBB785:
 1548               	.LM225:
 1549 0780 E0E6      		ldi r30,lo8(1632)
 1550 0782 F6E0      		ldi r31,hi8(1632)
 1551 0784 80EB      		ldi r24,lo8(-80)
 1552 0786 8183      		std Z+1,r24
 1553               	.LM226:
 1554 0788 88E3      		ldi r24,lo8(56)
 1555 078a 868B      		std Z+22,r24
 1556               	.LM227:
 1557 078c 1482      		std Z+4,__zero_reg__
 1558 078e 8CE2      		ldi r24,lo8(300)
 1559 0790 91E0      		ldi r25,hi8(300)
 1560               	.LVL79:
 1561               	.LBB786:
 1562               	.LBB787:
 1563               	.LBB788:
 1564               	.LBB789:
 1565               	.LM228:
 1566 0792 20E7      		ldi r18,lo8(368)
 1567 0794 31E0      		ldi r19,hi8(368)
 1568               	.L181:
 1569 0796 F901      		movw r30,r18
 1570               	.LVL80:
 1571               	/* #APP */
 1572               	 ;  105 "/usr/local/CrossPack-AVR-20100115/lib/gcc/avr/4.3.3/../../../../avr/include/util/delay_bas
 1573 0798 3197      		1: sbiw r30,1
 1574 079a 01F4      		brne 1b
 1575               	 ;  0 "" 2
 1576               	/* #NOAPP */
 1577               	.LBE789:
 1578               	.LBE788:
 1579               	.LM229:
 1580 079c 0197      		sbiw r24,1
 1581               	.LM230:
 1582 079e 01F4      		brne .L181
 1583               	.LBE787:
 1584               	.LBE786:
 1585               	.LBE785:
 1586               	.LBE784:
 1587               	.LBB790:
 1588               	.LBB791:
 1589               	.LM231:
 1590 07a0 8FB7      		in r24,__SREG__
 1591               	.LVL81:
 1592 07a2 8983      		std Y+1,r24
 1593               	.LVL82:
 1594               	.LM232:
 1595               	/* #APP */
 1596               	 ;  240 "sd.c" 1
 1597 07a4 F894      		cli
 1598               	 ;  0 "" 2
 1599               	.LM233:
 1600               	/* #NOAPP */
 1601 07a6 1BBE      		out 59-0,__zero_reg__
 1602               	.LM234:
 1603 07a8 24E0      		ldi r18,lo8(4)
 1604 07aa 81E4      		ldi r24,lo8(65)
 1605 07ac 90E0      		ldi r25,hi8(65)
 1606               	/* #APP */
 1607               	 ;  262 "sd.c" 1
 1608 07ae FC01      		movw r30,  r24
 1609 07b0 08ED      		ldi  r16,  216
 1610 07b2 04BF      		out   52, r16
 1611 07b4 2083      		st     Z,  r18
 1612               		
 1613               	 ;  0 "" 2
 1614               	.LVL83:
 1615               	.LM235:
 1616               	/* #NOAPP */
 1617 07b6 8981      		ldd r24,Y+1
 1618 07b8 8FBF      		out __SREG__,r24
 1619               	.LBE791:
 1620               	.LBE790:
 1621               	.LM236:
 1622 07ba 83E5      		ldi r24,lo8(83)
 1623 07bc 8093 C009 		sts 2496,r24
 1624 07c0 9AE0      		ldi r25,lo8(10)
 1625               	.LVL84:
 1626               	.LBB792:
 1627               	.LBB793:
 1628               	.LM237:
 1629 07c2 E0EC      		ldi r30,lo8(2496)
 1630 07c4 F9E0      		ldi r31,hi8(2496)
 1631 07c6 2FEF      		ldi r18,lo8(-1)
 1632               	.L183:
 1633 07c8 2383      		std Z+3,r18
 1634               	.L182:
 1635               	.LM238:
 1636 07ca 8091 C209 		lds r24,2498
 1637 07ce 87FF      		sbrs r24,7
 1638 07d0 00C0      		rjmp .L182
 1639               	.LM239:
 1640 07d2 8091 C309 		lds r24,2499
 1641               	.LBE793:
 1642               	.LBE792:
 1643               	.LM240:
 1644 07d6 9150      		subi r25,lo8(-(-1))
 1645 07d8 01F4      		brne .L183
 1646               	.LM241:
 1647 07da 80E4      		ldi r24,lo8(64)
 1648 07dc 40E0      		ldi r20,lo8(0)
 1649 07de 50E0      		ldi r21,hi8(0)
 1650 07e0 60E0      		ldi r22,hlo8(0)
 1651 07e2 70E0      		ldi r23,hhi8(0)
 1652 07e4 0E94 0000 		call send_cmd
 1653               	.LVL85:
 1654 07e8 8130      		cpi r24,lo8(1)
 1655 07ea 01F0      		breq .+2
 1656 07ec 00C0      		rjmp .L184
 1657               	.LM242:
 1658 07ee 84E6      		ldi r24,lo8(100)
 1659 07f0 8093 0000 		sts Timer1,r24
 1660               	.LM243:
 1661 07f4 88E4      		ldi r24,lo8(72)
 1662 07f6 4AEA      		ldi r20,lo8(426)
 1663 07f8 51E0      		ldi r21,hi8(426)
 1664 07fa 60E0      		ldi r22,hlo8(426)
 1665 07fc 70E0      		ldi r23,hhi8(426)
 1666 07fe 0E94 0000 		call send_cmd
 1667 0802 8130      		cpi r24,lo8(1)
 1668 0804 01F0      		breq .+2
 1669 0806 00C0      		rjmp .L185
 1670 0808 32E0      		ldi r19,lo8(2)
 1671 080a E32E      		mov r14,r19
 1672 080c F12C      		mov r15,__zero_reg__
 1673 080e EC0E      		add r14,r28
 1674 0810 FD1E      		adc r15,r29
 1675 0812 8701      		movw r16,r14
 1676               	.LBB794:
 1677               	.LBB795:
 1678               	.LM244:
 1679 0814 E0EC      		ldi r30,lo8(2496)
 1680 0816 F9E0      		ldi r31,hi8(2496)
 1681 0818 9FEF      		ldi r25,lo8(-1)
 1682               	.LBE795:
 1683               	.LBE794:
 1684               	.LM245:
 1685 081a 9E01      		movw r18,r28
 1686 081c 2A5F      		subi r18,lo8(-(6))
 1687 081e 3F4F      		sbci r19,hi8(-(6))
 1688               	.L187:
 1689               	.LBB797:
 1690               	.LBB796:
 1691               	.LM246:
 1692 0820 9383      		std Z+3,r25
 1693               	.L186:
 1694               	.LM247:
 1695 0822 8091 C209 		lds r24,2498
 1696 0826 87FF      		sbrs r24,7
 1697 0828 00C0      		rjmp .L186
 1698               	.LM248:
 1699 082a 8091 C309 		lds r24,2499
 1700               	.LBE796:
 1701               	.LBE797:
 1702               	.LM249:
 1703 082e D801      		movw r26,r16
 1704 0830 8D93      		st X+,r24
 1705 0832 8D01      		movw r16,r26
 1706 0834 A217      		cp r26,r18
 1707 0836 B307      		cpc r27,r19
 1708 0838 01F4      		brne .L187
 1709               	.LM250:
 1710 083a 8C81      		ldd r24,Y+4
 1711 083c 8130      		cpi r24,lo8(1)
 1712 083e 01F0      		breq .+2
 1713 0840 00C0      		rjmp .L184
 1714 0842 8D81      		ldd r24,Y+5
 1715 0844 8A3A      		cpi r24,lo8(-86)
 1716 0846 01F0      		breq .+2
 1717 0848 00C0      		rjmp .L184
 1718               	.L201:
 1719               	.LM251:
 1720 084a 8091 0000 		lds r24,Timer1
 1721 084e 8823      		tst r24
 1722 0850 01F0      		breq .L188
 1723 0852 89EE      		ldi r24,lo8(-23)
 1724 0854 40E0      		ldi r20,lo8(1073741824)
 1725 0856 50E0      		ldi r21,hi8(1073741824)
 1726 0858 60E0      		ldi r22,hlo8(1073741824)
 1727 085a 70E4      		ldi r23,hhi8(1073741824)
 1728 085c 0E94 0000 		call send_cmd
 1729 0860 8823      		tst r24
 1730 0862 01F4      		brne .L201
 1731               	.L188:
 1732               	.LM252:
 1733 0864 8091 0000 		lds r24,Timer1
 1734 0868 8823      		tst r24
 1735 086a 01F4      		brne .+2
 1736 086c 00C0      		rjmp .L184
 1737 086e 8AE7      		ldi r24,lo8(122)
 1738 0870 40E0      		ldi r20,lo8(0)
 1739 0872 50E0      		ldi r21,hi8(0)
 1740 0874 60E0      		ldi r22,hlo8(0)
 1741 0876 70E0      		ldi r23,hhi8(0)
 1742 0878 0E94 0000 		call send_cmd
 1743 087c 8823      		tst r24
 1744 087e 01F0      		breq .+2
 1745 0880 00C0      		rjmp .L184
 1746               	.LBB798:
 1747               	.LBB799:
 1748               	.LM253:
 1749 0882 E0EC      		ldi r30,lo8(2496)
 1750 0884 F9E0      		ldi r31,hi8(2496)
 1751 0886 9FEF      		ldi r25,lo8(-1)
 1752               	.L200:
 1753 0888 9383      		std Z+3,r25
 1754               	.L190:
 1755               	.LM254:
 1756 088a 8091 C209 		lds r24,2498
 1757 088e 87FF      		sbrs r24,7
 1758 0890 00C0      		rjmp .L190
 1759               	.LM255:
 1760 0892 8091 C309 		lds r24,2499
 1761               	.LBE799:
 1762               	.LBE798:
 1763               	.LM256:
 1764 0896 D701      		movw r26,r14
 1765 0898 8D93      		st X+,r24
 1766 089a 7D01      		movw r14,r26
 1767 089c A017      		cp r26,r16
 1768 089e B107      		cpc r27,r17
 1769 08a0 01F4      		brne .L200
 1770               	.LM257:
 1771 08a2 8A81      		ldd r24,Y+2
 1772 08a4 86FD      		sbrc r24,6
 1773 08a6 00C0      		rjmp .L192
 1774 08a8 14E0      		ldi r17,lo8(4)
 1775               	.LVL86:
 1776 08aa 00C0      		rjmp .L193
 1777               	.LVL87:
 1778               	.L192:
 1779 08ac 1CE0      		ldi r17,lo8(12)
 1780               	.LVL88:
 1781 08ae 00C0      		rjmp .L193
 1782               	.LVL89:
 1783               	.L185:
 1784               	.LM258:
 1785 08b0 89EE      		ldi r24,lo8(-23)
 1786 08b2 40E0      		ldi r20,lo8(0)
 1787 08b4 50E0      		ldi r21,hi8(0)
 1788 08b6 60E0      		ldi r22,hlo8(0)
 1789 08b8 70E0      		ldi r23,hhi8(0)
 1790 08ba 0E94 0000 		call send_cmd
 1791 08be 8230      		cpi r24,lo8(2)
 1792 08c0 00F0      		brlo .L194
 1793 08c2 01E4      		ldi r16,lo8(65)
 1794               	.LVL90:
 1795 08c4 11E0      		ldi r17,lo8(1)
 1796               	.LVL91:
 1797 08c6 00C0      		rjmp .L202
 1798               	.LVL92:
 1799               	.L194:
 1800 08c8 09EE      		ldi r16,lo8(-23)
 1801               	.LVL93:
 1802 08ca 12E0      		ldi r17,lo8(2)
 1803               	.LVL94:
 1804               	.L202:
 1805               	.LM259:
 1806 08cc 8091 0000 		lds r24,Timer1
 1807 08d0 8823      		tst r24
 1808 08d2 01F0      		breq .L196
 1809 08d4 802F      		mov r24,r16
 1810 08d6 40E0      		ldi r20,lo8(0)
 1811 08d8 50E0      		ldi r21,hi8(0)
 1812 08da 60E0      		ldi r22,hlo8(0)
 1813 08dc 70E0      		ldi r23,hhi8(0)
 1814 08de 0E94 0000 		call send_cmd
 1815 08e2 8823      		tst r24
 1816 08e4 01F4      		brne .L202
 1817               	.L196:
 1818               	.LM260:
 1819 08e6 8091 0000 		lds r24,Timer1
 1820 08ea 8823      		tst r24
 1821 08ec 01F0      		breq .L184
 1822 08ee 80E5      		ldi r24,lo8(80)
 1823 08f0 40E0      		ldi r20,lo8(512)
 1824 08f2 52E0      		ldi r21,hi8(512)
 1825 08f4 60E0      		ldi r22,hlo8(512)
 1826 08f6 70E0      		ldi r23,hhi8(512)
 1827 08f8 0E94 0000 		call send_cmd
 1828 08fc 8111      		cpse r24,__zero_reg__
 1829               	.L184:
 1830 08fe 10E0      		ldi r17,lo8(0)
 1831               	.L193:
 1832               	.LM261:
 1833 0900 1093 0000 		sts CardType,r17
 1834               	.LBB800:
 1835               	.LBB801:
 1836               	.LM262:
 1837 0904 80E1      		ldi r24,lo8(16)
 1838 0906 E0E6      		ldi r30,lo8(1632)
 1839 0908 F6E0      		ldi r31,hi8(1632)
 1840 090a 8583      		std Z+5,r24
 1841               	.LBB802:
 1842               	.LBB803:
 1843               	.LM263:
 1844 090c 8FEF      		ldi r24,lo8(-1)
 1845 090e E0EC      		ldi r30,lo8(2496)
 1846 0910 F9E0      		ldi r31,hi8(2496)
 1847 0912 8383      		std Z+3,r24
 1848               	.L197:
 1849               	.LM264:
 1850 0914 8091 C209 		lds r24,2498
 1851 0918 87FF      		sbrs r24,7
 1852 091a 00C0      		rjmp .L197
 1853               	.LM265:
 1854 091c 8091 C309 		lds r24,2499
 1855               	.LBE803:
 1856               	.LBE802:
 1857               	.LBE801:
 1858               	.LBE800:
 1859               	.LM266:
 1860 0920 1123      		tst r17
 1861 0922 01F0      		breq .L198
 1862               	.LM267:
 1863 0924 8091 0000 		lds r24,Stat
 1864 0928 8E7F      		andi r24,lo8(-2)
 1865 092a 8093 0000 		sts Stat,r24
 1866               	.LM268:
 1867 092e 80ED      		ldi r24,lo8(-48)
 1868 0930 8093 C009 		sts 2496,r24
 1869               	.L198:
 1870               	.LBB804:
 1871               	.LBB805:
 1872               	.LM269:
 1873 0934 8FB7      		in r24,__SREG__
 1874 0936 8983      		std Y+1,r24
 1875               	.LVL95:
 1876               	.LM270:
 1877               	/* #APP */
 1878               	 ;  240 "sd.c" 1
 1879 0938 F894      		cli
 1880               	 ;  0 "" 2
 1881               	.LM271:
 1882               	/* #NOAPP */
 1883 093a 1BBE      		out 59-0,__zero_reg__
 1884               	.LM272:
 1885 093c 20E0      		ldi r18,lo8(0)
 1886 093e 81E4      		ldi r24,lo8(65)
 1887 0940 90E0      		ldi r25,hi8(65)
 1888               	/* #APP */
 1889               	 ;  262 "sd.c" 1
 1890 0942 FC01      		movw r30,  r24
 1891 0944 08ED      		ldi  r16,  216
 1892 0946 04BF      		out   52, r16
 1893 0948 2083      		st     Z,  r18
 1894               		
 1895               	 ;  0 "" 2
 1896               	.LVL96:
 1897               	.LM273:
 1898               	/* #NOAPP */
 1899 094a 8981      		ldd r24,Y+1
 1900 094c 8FBF      		out __SREG__,r24
 1901               	.L213:
 1902               	.LBE805:
 1903               	.LBE804:
 1904               	.LM274:
 1905 094e 8091 0000 		lds r24,Stat
 1906               	.L179:
 1907               	/* epilogue start */
 1908               	.LM275:
 1909 0952 2596      		adiw r28,5
 1910 0954 CDBF      		out __SP_L__,r28
 1911 0956 DEBF      		out __SP_H__,r29
 1912 0958 CF91      		pop r28
 1913 095a DF91      		pop r29
 1914 095c 1F91      		pop r17
 1915               	.LVL97:
 1916 095e 0F91      		pop r16
 1917 0960 FF90      		pop r15
 1918 0962 EF90      		pop r14
 1919 0964 0895      		ret
 1920               	.LFE50:
 1922               	.global	disk_status
 1924               	disk_status:
 1925               	.LFB51:
 1926               	.LM276:
 1927               	.LVL98:
 1928               	/* prologue: function */
 1929               	/* frame size = 0 */
 1930               	.LM277:
 1931 0966 8823      		tst r24
 1932 0968 01F0      		breq .L215
 1933 096a 81E0      		ldi r24,lo8(1)
 1934               	.LVL99:
 1935 096c 0895      		ret
 1936               	.LVL100:
 1937               	.L215:
 1938               	.LM278:
 1939 096e 8091 0000 		lds r24,Stat
 1940               	.LVL101:
 1941               	.LM279:
 1942 0972 0895      		ret
 1943               	.LFE51:
 1945               	.global	disk_read
 1947               	disk_read:
 1948               	.LFB52:
 1949               	.LM280:
 1950               	.LVL102:
 1951 0974 0F93      		push r16
 1952               	.LVL103:
 1953 0976 CF93      		push r28
 1954 0978 DF93      		push r29
 1955               	/* prologue: function */
 1956               	/* frame size = 0 */
 1957 097a EB01      		movw r28,r22
 1958               	.LM281:
 1959 097c 8823      		tst r24
 1960 097e 01F0      		breq .+2
 1961 0980 00C0      		rjmp .L219
 1962               	.LVL104:
 1963 0982 0023      		tst r16
 1964               	.LVL105:
 1965 0984 01F4      		brne .+2
 1966 0986 00C0      		rjmp .L219
 1967               	.LM282:
 1968 0988 8091 0000 		lds r24,Stat
 1969               	.LVL106:
 1970 098c 80FF      		sbrs r24,0
 1971 098e 00C0      		rjmp .L220
 1972 0990 03E0      		ldi r16,lo8(3)
 1973               	.LVL107:
 1974 0992 00C0      		rjmp .L221
 1975               	.LVL108:
 1976               	.L220:
 1977               	.LM283:
 1978 0994 8091 0000 		lds r24,CardType
 1979 0998 83FD      		sbrc r24,3
 1980 099a 00C0      		rjmp .L222
 1981 099c 69E0      		ldi r22,9
 1982 099e 220F      	1:	lsl r18
 1983 09a0 331F      		rol r19
 1984 09a2 441F      		rol r20
 1985 09a4 551F      		rol r21
 1986 09a6 6A95      		dec r22
 1987 09a8 01F4      		brne 1b
 1988               	.LVL109:
 1989               	.L222:
 1990               	.LM284:
 1991 09aa 0130      		cpi r16,lo8(1)
 1992 09ac 01F4      		brne .L223
 1993               	.LM285:
 1994 09ae 81E5      		ldi r24,lo8(81)
 1995 09b0 BA01      		movw r22,r20
 1996 09b2 A901      		movw r20,r18
 1997 09b4 0E94 0000 		call send_cmd
 1998               	.LVL110:
 1999 09b8 8823      		tst r24
 2000 09ba 01F4      		brne .L224
 2001 09bc CE01      		movw r24,r28
 2002 09be 60E0      		ldi r22,lo8(512)
 2003 09c0 72E0      		ldi r23,hi8(512)
 2004 09c2 0E94 0000 		call rcvr_datablock
 2005 09c6 00E0      		ldi r16,lo8(0)
 2006 09c8 8823      		tst r24
 2007 09ca 01F4      		brne .L224
 2008 09cc 01E0      		ldi r16,lo8(1)
 2009 09ce 00C0      		rjmp .L224
 2010               	.LVL111:
 2011               	.L223:
 2012               	.LM286:
 2013 09d0 82E5      		ldi r24,lo8(82)
 2014 09d2 BA01      		movw r22,r20
 2015 09d4 A901      		movw r20,r18
 2016 09d6 0E94 0000 		call send_cmd
 2017               	.LVL112:
 2018 09da 8823      		tst r24
 2019 09dc 01F4      		brne .L224
 2020               	.L232:
 2021               	.LM287:
 2022 09de CE01      		movw r24,r28
 2023 09e0 60E0      		ldi r22,lo8(512)
 2024 09e2 72E0      		ldi r23,hi8(512)
 2025 09e4 0E94 0000 		call rcvr_datablock
 2026 09e8 8823      		tst r24
 2027 09ea 01F0      		breq .L226
 2028               	.LM288:
 2029 09ec 0150      		subi r16,lo8(-(-1))
 2030 09ee 01F0      		breq .L226
 2031               	.LM289:
 2032 09f0 C050      		subi r28,lo8(-(512))
 2033 09f2 DE4F      		sbci r29,hi8(-(512))
 2034 09f4 00C0      		rjmp .L232
 2035               	.L226:
 2036               	.LM290:
 2037 09f6 8CE4      		ldi r24,lo8(76)
 2038 09f8 40E0      		ldi r20,lo8(0)
 2039 09fa 50E0      		ldi r21,hi8(0)
 2040 09fc 60E0      		ldi r22,hlo8(0)
 2041 09fe 70E0      		ldi r23,hhi8(0)
 2042 0a00 0E94 0000 		call send_cmd
 2043               	.L224:
 2044               	.LBB806:
 2045               	.LBB807:
 2046               	.LM291:
 2047 0a04 80E1      		ldi r24,lo8(16)
 2048 0a06 E0E6      		ldi r30,lo8(1632)
 2049 0a08 F6E0      		ldi r31,hi8(1632)
 2050 0a0a 8583      		std Z+5,r24
 2051               	.LBB808:
 2052               	.LBB809:
 2053               	.LM292:
 2054 0a0c 8FEF      		ldi r24,lo8(-1)
 2055 0a0e E0EC      		ldi r30,lo8(2496)
 2056 0a10 F9E0      		ldi r31,hi8(2496)
 2057 0a12 8383      		std Z+3,r24
 2058               	.L228:
 2059               	.LM293:
 2060 0a14 8091 C209 		lds r24,2498
 2061 0a18 87FF      		sbrs r24,7
 2062 0a1a 00C0      		rjmp .L228
 2063               	.LM294:
 2064 0a1c 8091 C309 		lds r24,2499
 2065               	.LBE809:
 2066               	.LBE808:
 2067               	.LBE807:
 2068               	.LBE806:
 2069               	.LM295:
 2070 0a20 0023      		tst r16
 2071 0a22 01F0      		breq .L221
 2072 0a24 01E0      		ldi r16,lo8(1)
 2073               	.LVL113:
 2074 0a26 00C0      		rjmp .L221
 2075               	.LVL114:
 2076               	.L219:
 2077 0a28 04E0      		ldi r16,lo8(4)
 2078               	.LVL115:
 2079               	.L221:
 2080               	.LM296:
 2081 0a2a 802F      		mov r24,r16
 2082               	.LVL116:
 2083               	/* epilogue start */
 2084 0a2c DF91      		pop r29
 2085 0a2e CF91      		pop r28
 2086               	.LVL117:
 2087 0a30 0F91      		pop r16
 2088 0a32 0895      		ret
 2089               	.LFE52:
 2091               	.global	disk_write
 2093               	disk_write:
 2094               	.LFB53:
 2095               	.LM297:
 2096               	.LVL118:
 2097 0a34 CF92      		push r12
 2098 0a36 DF92      		push r13
 2099 0a38 EF92      		push r14
 2100 0a3a FF92      		push r15
 2101 0a3c 0F93      		push r16
 2102               	.LVL119:
 2103 0a3e CF93      		push r28
 2104 0a40 DF93      		push r29
 2105               	/* prologue: function */
 2106               	/* frame size = 0 */
 2107 0a42 EB01      		movw r28,r22
 2108 0a44 6901      		movw r12,r18
 2109 0a46 7A01      		movw r14,r20
 2110               	.LM298:
 2111 0a48 8823      		tst r24
 2112 0a4a 01F0      		breq .+2
 2113 0a4c 00C0      		rjmp .L234
 2114               	.LVL120:
 2115 0a4e 0023      		tst r16
 2116               	.LVL121:
 2117 0a50 01F4      		brne .+2
 2118 0a52 00C0      		rjmp .L234
 2119               	.LM299:
 2120 0a54 8091 0000 		lds r24,Stat
 2121               	.LVL122:
 2122 0a58 80FF      		sbrs r24,0
 2123 0a5a 00C0      		rjmp .L235
 2124 0a5c 03E0      		ldi r16,lo8(3)
 2125               	.LVL123:
 2126 0a5e 00C0      		rjmp .L236
 2127               	.LVL124:
 2128               	.L235:
 2129               	.LM300:
 2130 0a60 8091 0000 		lds r24,Stat
 2131 0a64 82FF      		sbrs r24,2
 2132 0a66 00C0      		rjmp .L237
 2133 0a68 02E0      		ldi r16,lo8(2)
 2134               	.LVL125:
 2135 0a6a 00C0      		rjmp .L236
 2136               	.LVL126:
 2137               	.L237:
 2138               	.LM301:
 2139 0a6c 8091 0000 		lds r24,CardType
 2140 0a70 90E0      		ldi r25,lo8(0)
 2141 0a72 83FD      		sbrc r24,3
 2142 0a74 00C0      		rjmp .L238
 2143 0a76 79E0      		ldi r23,9
 2144 0a78 CC0C      	1:	lsl r12
 2145 0a7a DD1C      		rol r13
 2146 0a7c EE1C      		rol r14
 2147 0a7e FF1C      		rol r15
 2148 0a80 7A95      		dec r23
 2149 0a82 01F4      		brne 1b
 2150               	.LVL127:
 2151               	.L238:
 2152               	.LM302:
 2153 0a84 0130      		cpi r16,lo8(1)
 2154 0a86 01F4      		brne .L239
 2155               	.LM303:
 2156 0a88 88E5      		ldi r24,lo8(88)
 2157 0a8a B701      		movw r22,r14
 2158 0a8c A601      		movw r20,r12
 2159 0a8e 0E94 0000 		call send_cmd
 2160 0a92 8823      		tst r24
 2161 0a94 01F4      		brne .L240
 2162 0a96 CE01      		movw r24,r28
 2163 0a98 6EEF      		ldi r22,lo8(-2)
 2164 0a9a 0E94 0000 		call xmit_datablock
 2165 0a9e 00E0      		ldi r16,lo8(0)
 2166 0aa0 00C0      		rjmp .L251
 2167               	.LVL128:
 2168               	.L239:
 2169               	.LM304:
 2170 0aa2 8670      		andi r24,lo8(6)
 2171 0aa4 9070      		andi r25,hi8(6)
 2172 0aa6 892B      		or r24,r25
 2173 0aa8 01F0      		breq .L242
 2174 0aaa 402F      		mov r20,r16
 2175 0aac 50E0      		ldi r21,lo8(0)
 2176               	.LVL129:
 2177 0aae 60E0      		ldi r22,lo8(0)
 2178 0ab0 70E0      		ldi r23,hi8(0)
 2179               	.LVL130:
 2180 0ab2 87ED      		ldi r24,lo8(-41)
 2181 0ab4 0E94 0000 		call send_cmd
 2182               	.LVL131:
 2183               	.L242:
 2184               	.LM305:
 2185 0ab8 89E5      		ldi r24,lo8(89)
 2186 0aba B701      		movw r22,r14
 2187 0abc A601      		movw r20,r12
 2188 0abe 0E94 0000 		call send_cmd
 2189 0ac2 8823      		tst r24
 2190 0ac4 01F4      		brne .L240
 2191               	.L249:
 2192               	.LM306:
 2193 0ac6 CE01      		movw r24,r28
 2194 0ac8 6CEF      		ldi r22,lo8(-4)
 2195 0aca 0E94 0000 		call xmit_datablock
 2196 0ace 8823      		tst r24
 2197 0ad0 01F0      		breq .L243
 2198               	.LM307:
 2199 0ad2 0150      		subi r16,lo8(-(-1))
 2200 0ad4 01F0      		breq .L243
 2201               	.LM308:
 2202 0ad6 C050      		subi r28,lo8(-(512))
 2203 0ad8 DE4F      		sbci r29,hi8(-(512))
 2204 0ada 00C0      		rjmp .L249
 2205               	.L243:
 2206               	.LM309:
 2207 0adc 80E0      		ldi r24,lo8(0)
 2208 0ade 90E0      		ldi r25,hi8(0)
 2209 0ae0 6DEF      		ldi r22,lo8(-3)
 2210 0ae2 0E94 0000 		call xmit_datablock
 2211               	.L251:
 2212 0ae6 8823      		tst r24
 2213 0ae8 01F4      		brne .L240
 2214 0aea 01E0      		ldi r16,lo8(1)
 2215               	.L240:
 2216               	.LBB810:
 2217               	.LBB811:
 2218               	.LM310:
 2219 0aec 80E1      		ldi r24,lo8(16)
 2220 0aee E0E6      		ldi r30,lo8(1632)
 2221 0af0 F6E0      		ldi r31,hi8(1632)
 2222 0af2 8583      		std Z+5,r24
 2223               	.LBB812:
 2224               	.LBB813:
 2225               	.LM311:
 2226 0af4 8FEF      		ldi r24,lo8(-1)
 2227 0af6 E0EC      		ldi r30,lo8(2496)
 2228 0af8 F9E0      		ldi r31,hi8(2496)
 2229 0afa 8383      		std Z+3,r24
 2230               	.L245:
 2231               	.LM312:
 2232 0afc 8091 C209 		lds r24,2498
 2233 0b00 87FF      		sbrs r24,7
 2234 0b02 00C0      		rjmp .L245
 2235               	.LM313:
 2236 0b04 8091 C309 		lds r24,2499
 2237               	.LBE813:
 2238               	.LBE812:
 2239               	.LBE811:
 2240               	.LBE810:
 2241               	.LM314:
 2242 0b08 0023      		tst r16
 2243 0b0a 01F0      		breq .L236
 2244 0b0c 01E0      		ldi r16,lo8(1)
 2245               	.LVL132:
 2246 0b0e 00C0      		rjmp .L236
 2247               	.LVL133:
 2248               	.L234:
 2249 0b10 04E0      		ldi r16,lo8(4)
 2250               	.LVL134:
 2251               	.L236:
 2252               	.LM315:
 2253 0b12 802F      		mov r24,r16
 2254               	.LVL135:
 2255               	/* epilogue start */
 2256 0b14 DF91      		pop r29
 2257 0b16 CF91      		pop r28
 2258               	.LVL136:
 2259 0b18 0F91      		pop r16
 2260 0b1a FF90      		pop r15
 2261 0b1c EF90      		pop r14
 2262 0b1e DF90      		pop r13
 2263 0b20 CF90      		pop r12
 2264               	.LVL137:
 2265 0b22 0895      		ret
 2266               	.LFE53:
 2268               	.global	disk_ioctl
 2270               	disk_ioctl:
 2271               	.LFB54:
 2272               	.LM316:
 2273               	.LVL138:
 2274 0b24 FF92      		push r15
 2275 0b26 0F93      		push r16
 2276 0b28 1F93      		push r17
 2277 0b2a DF93      		push r29
 2278 0b2c CF93      		push r28
 2279 0b2e CDB7      		in r28,__SP_L__
 2280 0b30 DEB7      		in r29,__SP_H__
 2281 0b32 6097      		sbiw r28,16
 2282 0b34 CDBF      		out __SP_L__,r28
 2283 0b36 DEBF      		out __SP_H__,r29
 2284               	/* prologue: function */
 2285               	/* frame size = 16 */
 2286 0b38 8A01      		movw r16,r20
 2287               	.LM317:
 2288 0b3a 8823      		tst r24
 2289 0b3c 01F0      		breq .+2
 2290 0b3e 00C0      		rjmp .L253
 2291               	.LVL139:
 2292               	.LM318:
 2293 0b40 6430      		cpi r22,lo8(4)
 2294 0b42 01F4      		brne .L254
 2295               	.LM319:
 2296 0b44 FA01      		movw r30,r20
 2297 0b46 8081      		ld r24,Z
 2298               	.LVL140:
 2299 0b48 8130      		cpi r24,lo8(1)
 2300 0b4a 01F0      		breq .L256
 2301               	.LVL141:
 2302 0b4c 8130      		cpi r24,lo8(1)
 2303 0b4e 00F4      		brsh .+2
 2304 0b50 00C0      		rjmp .L255
 2305 0b52 8230      		cpi r24,lo8(2)
 2306 0b54 01F0      		breq .+2
 2307 0b56 00C0      		rjmp .L253
 2308 0b58 00C0      		rjmp .L305
 2309               	.L256:
 2310               	.LBB814:
 2311               	.LBB815:
 2312               	.LM320:
 2313 0b5a E0E6      		ldi r30,lo8(1632)
 2314 0b5c F6E0      		ldi r31,hi8(1632)
 2315 0b5e 80EB      		ldi r24,lo8(-80)
 2316 0b60 8183      		std Z+1,r24
 2317               	.LM321:
 2318 0b62 88E3      		ldi r24,lo8(56)
 2319 0b64 868B      		std Z+22,r24
 2320               	.LM322:
 2321 0b66 1482      		std Z+4,__zero_reg__
 2322 0b68 8CE2      		ldi r24,lo8(300)
 2323 0b6a 91E0      		ldi r25,hi8(300)
 2324               	.LVL142:
 2325               	.LBB816:
 2326               	.LBB817:
 2327               	.LBB818:
 2328               	.LBB819:
 2329               	.LM323:
 2330 0b6c 20E7      		ldi r18,lo8(368)
 2331 0b6e 31E0      		ldi r19,hi8(368)
 2332               	.L258:
 2333 0b70 F901      		movw r30,r18
 2334               	.LVL143:
 2335               	/* #APP */
 2336               	 ;  105 "/usr/local/CrossPack-AVR-20100115/lib/gcc/avr/4.3.3/../../../../avr/include/util/delay_bas
 2337 0b72 3197      		1: sbiw r30,1
 2338 0b74 01F4      		brne 1b
 2339               	 ;  0 "" 2
 2340               	/* #NOAPP */
 2341               	.LBE819:
 2342               	.LBE818:
 2343               	.LM324:
 2344 0b76 0197      		sbiw r24,1
 2345               	.LM325:
 2346 0b78 01F4      		brne .L258
 2347 0b7a 00C0      		rjmp .L255
 2348               	.LVL144:
 2349               	.L305:
 2350               	.LBE817:
 2351               	.LBE816:
 2352               	.LBE815:
 2353               	.LBE814:
 2354               	.LM326:
 2355 0b7c 81E0      		ldi r24,lo8(1)
 2356 0b7e FA01      		movw r30,r20
 2357 0b80 8183      		std Z+1,r24
 2358 0b82 00C0      		rjmp .L255
 2359               	.LVL145:
 2360               	.L254:
 2361               	.LM327:
 2362 0b84 8091 0000 		lds r24,Stat
 2363               	.LVL146:
 2364 0b88 80FF      		sbrs r24,0
 2365 0b8a 00C0      		rjmp .L260
 2366 0b8c 93E0      		ldi r25,lo8(3)
 2367               	.LVL147:
 2368 0b8e 00C0      		rjmp .L259
 2369               	.LVL148:
 2370               	.L260:
 2371               	.LM328:
 2372 0b90 6A30      		cpi r22,lo8(10)
 2373 0b92 01F4      		brne .+2
 2374 0b94 00C0      		rjmp .L266
 2375 0b96 6B30      		cpi r22,lo8(11)
 2376 0b98 00F4      		brsh .L271
 2377 0b9a 6130      		cpi r22,lo8(1)
 2378 0b9c 01F0      		breq .L263
 2379 0b9e 6130      		cpi r22,lo8(1)
 2380 0ba0 00F0      		brlo .L262
 2381 0ba2 6230      		cpi r22,lo8(2)
 2382 0ba4 01F4      		brne .+2
 2383 0ba6 00C0      		rjmp .L264
 2384 0ba8 6330      		cpi r22,lo8(3)
 2385 0baa 01F4      		brne .L261
 2386 0bac 00C0      		rjmp .L306
 2387               	.L271:
 2388 0bae 6C30      		cpi r22,lo8(12)
 2389 0bb0 01F4      		brne .+2
 2390 0bb2 00C0      		rjmp .L268
 2391 0bb4 6C30      		cpi r22,lo8(12)
 2392 0bb6 00F4      		brsh .+2
 2393 0bb8 00C0      		rjmp .L267
 2394 0bba 6D30      		cpi r22,lo8(13)
 2395 0bbc 01F4      		brne .+2
 2396 0bbe 00C0      		rjmp .L269
 2397 0bc0 6E30      		cpi r22,lo8(14)
 2398 0bc2 01F4      		brne .+2
 2399 0bc4 00C0      		rjmp .L270
 2400               	.L261:
 2401 0bc6 94E0      		ldi r25,lo8(4)
 2402               	.LVL149:
 2403 0bc8 00C0      		rjmp .L272
 2404               	.LVL150:
 2405               	.L262:
 2406               	.LM329:
 2407 0bca 0E94 0000 		call select
 2408               	.LVL151:
 2409 0bce 8823      		tst r24
 2410 0bd0 01F4      		brne .+2
 2411 0bd2 00C0      		rjmp .L273
 2412               	.LBB820:
 2413               	.LBB821:
 2414               	.LM330:
 2415 0bd4 80E1      		ldi r24,lo8(16)
 2416 0bd6 E0E6      		ldi r30,lo8(1632)
 2417 0bd8 F6E0      		ldi r31,hi8(1632)
 2418 0bda 8583      		std Z+5,r24
 2419               	.LBB822:
 2420               	.LBB823:
 2421               	.LM331:
 2422 0bdc 8FEF      		ldi r24,lo8(-1)
 2423 0bde E0EC      		ldi r30,lo8(2496)
 2424 0be0 F9E0      		ldi r31,hi8(2496)
 2425 0be2 8383      		std Z+3,r24
 2426               	.L274:
 2427               	.LM332:
 2428 0be4 8091 C209 		lds r24,2498
 2429 0be8 87FF      		sbrs r24,7
 2430 0bea 00C0      		rjmp .L274
 2431               	.LM333:
 2432 0bec 8091 C309 		lds r24,2499
 2433 0bf0 00C0      		rjmp .L298
 2434               	.LVL152:
 2435               	.L263:
 2436               	.LBE823:
 2437               	.LBE822:
 2438               	.LBE821:
 2439               	.LBE820:
 2440               	.LM334:
 2441 0bf2 89E4      		ldi r24,lo8(73)
 2442 0bf4 40E0      		ldi r20,lo8(0)
 2443 0bf6 50E0      		ldi r21,hi8(0)
 2444 0bf8 60E0      		ldi r22,hlo8(0)
 2445 0bfa 70E0      		ldi r23,hhi8(0)
 2446 0bfc 0E94 0000 		call send_cmd
 2447               	.LVL153:
 2448 0c00 8823      		tst r24
 2449 0c02 01F0      		breq .+2
 2450 0c04 00C0      		rjmp .L273
 2451 0c06 CE01      		movw r24,r28
 2452 0c08 0196      		adiw r24,1
 2453 0c0a 60E1      		ldi r22,lo8(16)
 2454 0c0c 70E0      		ldi r23,hi8(16)
 2455 0c0e 0E94 0000 		call rcvr_datablock
 2456 0c12 8823      		tst r24
 2457 0c14 01F4      		brne .+2
 2458 0c16 00C0      		rjmp .L273
 2459               	.LM335:
 2460 0c18 8981      		ldd r24,Y+1
 2461 0c1a 8295      		swap r24
 2462 0c1c 8695      		lsr r24
 2463 0c1e 8695      		lsr r24
 2464 0c20 8370      		andi r24,lo8(3)
 2465 0c22 7A85      		ldd r23,Y+10
 2466 0c24 4985      		ldd r20,Y+9
 2467 0c26 8130      		cpi r24,lo8(1)
 2468 0c28 01F4      		brne .L275
 2469               	.LM336:
 2470 0c2a 872F      		mov r24,r23
 2471 0c2c 90E0      		ldi r25,lo8(0)
 2472 0c2e 0196      		adiw r24,1
 2473 0c30 342F      		mov r19,r20
 2474 0c32 20E0      		ldi r18,lo8(0)
 2475 0c34 820F      		add r24,r18
 2476 0c36 931F      		adc r25,r19
 2477 0c38 A0E0      		ldi r26,lo8(0)
 2478 0c3a B0E0      		ldi r27,hi8(0)
 2479 0c3c 2AE0      		ldi r18,10
 2480 0c3e 880F      	1:	lsl r24
 2481 0c40 991F      		rol r25
 2482 0c42 AA1F      		rol r26
 2483 0c44 BB1F      		rol r27
 2484 0c46 2A95      		dec r18
 2485 0c48 01F4      		brne 1b
 2486 0c4a 00C0      		rjmp .L300
 2487               	.L275:
 2488               	.LM337:
 2489 0c4c 4295      		swap r20
 2490 0c4e 4695      		lsr r20
 2491 0c50 4695      		lsr r20
 2492 0c52 4370      		andi r20,lo8(3)
 2493 0c54 2885      		ldd r18,Y+8
 2494 0c56 30E0      		ldi r19,lo8(0)
 2495 0c58 220F      		lsl r18
 2496 0c5a 331F      		rol r19
 2497 0c5c 220F      		lsl r18
 2498 0c5e 331F      		rol r19
 2499 0c60 240F      		add r18,r20
 2500 0c62 311D      		adc r19,__zero_reg__
 2501 0c64 2F5F      		subi r18,lo8(-(1))
 2502 0c66 3F4F      		sbci r19,hi8(-(1))
 2503 0c68 8F81      		ldd r24,Y+7
 2504 0c6a 90E0      		ldi r25,lo8(0)
 2505 0c6c 8370      		andi r24,lo8(3)
 2506 0c6e 9070      		andi r25,hi8(3)
 2507 0c70 982F      		mov r25,r24
 2508 0c72 8827      		clr r24
 2509 0c74 990F      		lsl r25
 2510 0c76 990F      		lsl r25
 2511 0c78 280F      		add r18,r24
 2512 0c7a 391F      		adc r19,r25
 2513 0c7c 40E0      		ldi r20,lo8(0)
 2514 0c7e 50E0      		ldi r21,hi8(0)
 2515 0c80 8E81      		ldd r24,Y+6
 2516 0c82 8F70      		andi r24,lo8(15)
 2517 0c84 6B85      		ldd r22,Y+11
 2518 0c86 661F      		rol r22
 2519 0c88 6627      		clr r22
 2520 0c8a 661F      		rol r22
 2521 0c8c 860F      		add r24,r22
 2522 0c8e 8E5F      		subi r24,lo8(-(2))
 2523 0c90 7370      		andi r23,lo8(3)
 2524 0c92 770F      		lsl r23
 2525 0c94 870F      		add r24,r23
 2526 0c96 90E0      		ldi r25,lo8(0)
 2527 0c98 0997      		sbiw r24,9
 2528 0c9a 00C0      		rjmp 2f
 2529 0c9c 220F      	1:	lsl r18
 2530 0c9e 331F      		rol r19
 2531 0ca0 441F      		rol r20
 2532 0ca2 551F      		rol r21
 2533 0ca4 8A95      	2:	dec r24
 2534 0ca6 02F4      		brpl 1b
 2535 0ca8 F801      		movw r30,r16
 2536 0caa 2083      		st Z,r18
 2537 0cac 3183      		std Z+1,r19
 2538 0cae 4283      		std Z+2,r20
 2539 0cb0 5383      		std Z+3,r21
 2540 0cb2 00C0      		rjmp .L298
 2541               	.LVL154:
 2542               	.L264:
 2543               	.LM338:
 2544 0cb4 80E0      		ldi r24,lo8(512)
 2545 0cb6 92E0      		ldi r25,hi8(512)
 2546 0cb8 FA01      		movw r30,r20
 2547 0cba 8083      		st Z,r24
 2548 0cbc 9183      		std Z+1,r25
 2549 0cbe 00C0      		rjmp .L298
 2550               	.L306:
 2551               	.LM339:
 2552 0cc0 8091 0000 		lds r24,CardType
 2553 0cc4 F82E      		mov r15,r24
 2554 0cc6 82FF      		sbrs r24,2
 2555 0cc8 00C0      		rjmp .L276
 2556               	.LM340:
 2557 0cca 8DEC      		ldi r24,lo8(-51)
 2558 0ccc 40E0      		ldi r20,lo8(0)
 2559 0cce 50E0      		ldi r21,hi8(0)
 2560 0cd0 60E0      		ldi r22,hlo8(0)
 2561 0cd2 70E0      		ldi r23,hhi8(0)
 2562 0cd4 0E94 0000 		call send_cmd
 2563               	.LVL155:
 2564 0cd8 8823      		tst r24
 2565 0cda 01F0      		breq .+2
 2566 0cdc 00C0      		rjmp .L273
 2567               	.LBB824:
 2568               	.LBB825:
 2569               	.LM341:
 2570 0cde 8FEF      		ldi r24,lo8(-1)
 2571 0ce0 E0EC      		ldi r30,lo8(2496)
 2572 0ce2 F9E0      		ldi r31,hi8(2496)
 2573 0ce4 8383      		std Z+3,r24
 2574               	.L277:
 2575               	.LM342:
 2576 0ce6 8091 C209 		lds r24,2498
 2577 0cea 87FF      		sbrs r24,7
 2578 0cec 00C0      		rjmp .L277
 2579               	.LM343:
 2580 0cee 8091 C309 		lds r24,2499
 2581               	.LBE825:
 2582               	.LBE824:
 2583               	.LM344:
 2584 0cf2 CE01      		movw r24,r28
 2585 0cf4 0196      		adiw r24,1
 2586 0cf6 60E1      		ldi r22,lo8(16)
 2587 0cf8 70E0      		ldi r23,hi8(16)
 2588 0cfa 0E94 0000 		call rcvr_datablock
 2589 0cfe 8823      		tst r24
 2590 0d00 01F4      		brne .+2
 2591 0d02 00C0      		rjmp .L273
 2592 0d04 90E3      		ldi r25,lo8(48)
 2593               	.LVL156:
 2594               	.LBB826:
 2595               	.LBB827:
 2596               	.LM345:
 2597 0d06 E0EC      		ldi r30,lo8(2496)
 2598 0d08 F9E0      		ldi r31,hi8(2496)
 2599 0d0a 2FEF      		ldi r18,lo8(-1)
 2600               	.L279:
 2601 0d0c 2383      		std Z+3,r18
 2602               	.L278:
 2603               	.LM346:
 2604 0d0e 8091 C209 		lds r24,2498
 2605 0d12 87FF      		sbrs r24,7
 2606 0d14 00C0      		rjmp .L278
 2607               	.LM347:
 2608 0d16 8091 C309 		lds r24,2499
 2609               	.LBE827:
 2610               	.LBE826:
 2611               	.LM348:
 2612 0d1a 9150      		subi r25,lo8(-(-1))
 2613 0d1c 01F4      		brne .L279
 2614               	.LM349:
 2615 0d1e 2B85      		ldd r18,Y+11
 2616 0d20 2295      		swap r18
 2617 0d22 2F70      		andi r18,lo8(15)
 2618 0d24 80E1      		ldi r24,lo8(16)
 2619 0d26 90E0      		ldi r25,hi8(16)
 2620 0d28 A0E0      		ldi r26,hlo8(16)
 2621 0d2a B0E0      		ldi r27,hhi8(16)
 2622 0d2c 00C0      		rjmp 2f
 2623 0d2e 880F      	1:	lsl r24
 2624 0d30 991F      		rol r25
 2625 0d32 AA1F      		rol r26
 2626 0d34 BB1F      		rol r27
 2627 0d36 2A95      	2:	dec r18
 2628 0d38 02F4      		brpl 1b
 2629 0d3a 00C0      		rjmp .L300
 2630               	.LVL157:
 2631               	.L276:
 2632               	.LM350:
 2633 0d3c 89E4      		ldi r24,lo8(73)
 2634 0d3e 40E0      		ldi r20,lo8(0)
 2635 0d40 50E0      		ldi r21,hi8(0)
 2636 0d42 60E0      		ldi r22,hlo8(0)
 2637 0d44 70E0      		ldi r23,hhi8(0)
 2638 0d46 0E94 0000 		call send_cmd
 2639               	.LVL158:
 2640 0d4a 8823      		tst r24
 2641 0d4c 01F0      		breq .+2
 2642 0d4e 00C0      		rjmp .L273
 2643 0d50 CE01      		movw r24,r28
 2644 0d52 0196      		adiw r24,1
 2645 0d54 60E1      		ldi r22,lo8(16)
 2646 0d56 70E0      		ldi r23,hi8(16)
 2647 0d58 0E94 0000 		call rcvr_datablock
 2648 0d5c 8823      		tst r24
 2649 0d5e 01F4      		brne .+2
 2650 0d60 00C0      		rjmp .L273
 2651 0d62 4B85      		ldd r20,Y+11
 2652 0d64 8C85      		ldd r24,Y+12
 2653               	.LM351:
 2654 0d66 F1FE      		sbrs r15,1
 2655 0d68 00C0      		rjmp .L280
 2656               	.LM352:
 2657 0d6a 881F      		rol r24
 2658 0d6c 8827      		clr r24
 2659 0d6e 881F      		rol r24
 2660 0d70 90E0      		ldi r25,lo8(0)
 2661 0d72 0196      		adiw r24,1
 2662 0d74 242F      		mov r18,r20
 2663 0d76 30E0      		ldi r19,lo8(0)
 2664 0d78 2F73      		andi r18,lo8(63)
 2665 0d7a 3070      		andi r19,hi8(63)
 2666 0d7c 220F      		lsl r18
 2667 0d7e 331F      		rol r19
 2668 0d80 820F      		add r24,r18
 2669 0d82 931F      		adc r25,r19
 2670 0d84 2E85      		ldd r18,Y+14
 2671 0d86 2295      		swap r18
 2672 0d88 2695      		lsr r18
 2673 0d8a 2695      		lsr r18
 2674 0d8c 2370      		andi r18,lo8(3)
 2675 0d8e 30E0      		ldi r19,lo8(0)
 2676 0d90 2150      		subi r18,lo8(-(-1))
 2677 0d92 3040      		sbci r19,hi8(-(-1))
 2678 0d94 00C0      		rjmp 2f
 2679 0d96 880F      	1:	lsl r24
 2680 0d98 991F      		rol r25
 2681 0d9a 2A95      	2:	dec r18
 2682 0d9c 02F4      		brpl 1b
 2683 0d9e 00C0      		rjmp .L302
 2684               	.L280:
 2685               	.LM353:
 2686 0da0 282F      		mov r18,r24
 2687 0da2 30E0      		ldi r19,lo8(0)
 2688 0da4 2370      		andi r18,lo8(3)
 2689 0da6 3070      		andi r19,hi8(3)
 2690 0da8 F3E0      		ldi r31,3
 2691 0daa 220F      	1:	lsl r18
 2692 0dac 331F      		rol r19
 2693 0dae FA95      		dec r31
 2694 0db0 01F4      		brne 1b
 2695 0db2 8295      		swap r24
 2696 0db4 8695      		lsr r24
 2697 0db6 8770      		andi r24,lo8(7)
 2698 0db8 280F      		add r18,r24
 2699 0dba 311D      		adc r19,__zero_reg__
 2700 0dbc 2F5F      		subi r18,lo8(-(1))
 2701 0dbe 3F4F      		sbci r19,hi8(-(1))
 2702 0dc0 842F      		mov r24,r20
 2703 0dc2 90E0      		ldi r25,lo8(0)
 2704 0dc4 8C77      		andi r24,lo8(124)
 2705 0dc6 9070      		andi r25,hi8(124)
 2706 0dc8 9595      		asr r25
 2707 0dca 8795      		ror r24
 2708 0dcc 9595      		asr r25
 2709 0dce 8795      		ror r24
 2710 0dd0 0196      		adiw r24,1
 2711 0dd2 AC01      		movw r20,r24
 2712 0dd4 249F      		mul r18,r20
 2713 0dd6 C001      		movw r24,r0
 2714 0dd8 259F      		mul r18,r21
 2715 0dda 900D      		add r25,r0
 2716 0ddc 349F      		mul r19,r20
 2717 0dde 900D      		add r25,r0
 2718 0de0 1124      		clr r1
 2719               	.L302:
 2720 0de2 A0E0      		ldi r26,lo8(0)
 2721 0de4 B0E0      		ldi r27,hi8(0)
 2722               	.LVL159:
 2723               	.L300:
 2724 0de6 F801      		movw r30,r16
 2725 0de8 8083      		st Z,r24
 2726 0dea 9183      		std Z+1,r25
 2727 0dec A283      		std Z+2,r26
 2728 0dee B383      		std Z+3,r27
 2729               	.LVL160:
 2730               	.L298:
 2731 0df0 90E0      		ldi r25,lo8(0)
 2732               	.LVL161:
 2733 0df2 00C0      		rjmp .L272
 2734               	.LVL162:
 2735               	.L266:
 2736               	.LM354:
 2737 0df4 8091 0000 		lds r24,CardType
 2738 0df8 FA01      		movw r30,r20
 2739 0dfa 8083      		st Z,r24
 2740 0dfc 00C0      		rjmp .L298
 2741               	.L267:
 2742               	.LM355:
 2743 0dfe 89E4      		ldi r24,lo8(73)
 2744 0e00 00C0      		rjmp .L304
 2745               	.L268:
 2746               	.LM356:
 2747 0e02 8AE4      		ldi r24,lo8(74)
 2748               	.L304:
 2749 0e04 40E0      		ldi r20,lo8(0)
 2750 0e06 50E0      		ldi r21,hi8(0)
 2751 0e08 60E0      		ldi r22,hlo8(0)
 2752 0e0a 70E0      		ldi r23,hhi8(0)
 2753 0e0c 0E94 0000 		call send_cmd
 2754               	.LVL163:
 2755 0e10 8823      		tst r24
 2756 0e12 01F4      		brne .L273
 2757 0e14 C801      		movw r24,r16
 2758 0e16 60E1      		ldi r22,lo8(16)
 2759 0e18 70E0      		ldi r23,hi8(16)
 2760 0e1a 00C0      		rjmp .L299
 2761               	.LVL164:
 2762               	.L269:
 2763               	.LM357:
 2764 0e1c 8AE7      		ldi r24,lo8(122)
 2765 0e1e 40E0      		ldi r20,lo8(0)
 2766 0e20 50E0      		ldi r21,hi8(0)
 2767 0e22 60E0      		ldi r22,hlo8(0)
 2768 0e24 70E0      		ldi r23,hhi8(0)
 2769 0e26 0E94 0000 		call send_cmd
 2770               	.LVL165:
 2771 0e2a 8823      		tst r24
 2772 0e2c 01F4      		brne .L273
 2773 0e2e F801      		movw r30,r16
 2774               	.LVL166:
 2775               	.LBB828:
 2776               	.LBB829:
 2777               	.LM358:
 2778 0e30 A0EC      		ldi r26,lo8(2496)
 2779 0e32 B9E0      		ldi r27,hi8(2496)
 2780 0e34 9FEF      		ldi r25,lo8(-1)
 2781               	.LBE829:
 2782               	.LBE828:
 2783               	.LM359:
 2784 0e36 9801      		movw r18,r16
 2785 0e38 2D5F      		subi r18,lo8(-(3))
 2786 0e3a 3F4F      		sbci r19,hi8(-(3))
 2787               	.L285:
 2788               	.LBB831:
 2789               	.LBB830:
 2790               	.LM360:
 2791 0e3c 1396      		adiw r26,3
 2792 0e3e 9C93      		st X,r25
 2793 0e40 1397      		sbiw r26,3
 2794               	.LVL167:
 2795               	.L283:
 2796               	.LM361:
 2797 0e42 8091 C209 		lds r24,2498
 2798 0e46 87FF      		sbrs r24,7
 2799 0e48 00C0      		rjmp .L283
 2800               	.LM362:
 2801 0e4a 8091 C309 		lds r24,2499
 2802               	.LBE830:
 2803               	.LBE831:
 2804               	.LM363:
 2805 0e4e 8083      		st Z,r24
 2806 0e50 E217      		cp r30,r18
 2807 0e52 F307      		cpc r31,r19
 2808 0e54 01F0      		breq .L298
 2809               	.LVL168:
 2810               	.L284:
 2811 0e56 3196      		adiw r30,1
 2812 0e58 00C0      		rjmp .L285
 2813               	.LVL169:
 2814               	.L270:
 2815               	.LM364:
 2816 0e5a 8DEC      		ldi r24,lo8(-51)
 2817 0e5c 40E0      		ldi r20,lo8(0)
 2818 0e5e 50E0      		ldi r21,hi8(0)
 2819 0e60 60E0      		ldi r22,hlo8(0)
 2820 0e62 70E0      		ldi r23,hhi8(0)
 2821 0e64 0E94 0000 		call send_cmd
 2822               	.LVL170:
 2823 0e68 8823      		tst r24
 2824 0e6a 01F4      		brne .L273
 2825               	.LBB832:
 2826               	.LBB833:
 2827               	.LM365:
 2828 0e6c 8FEF      		ldi r24,lo8(-1)
 2829 0e6e E0EC      		ldi r30,lo8(2496)
 2830 0e70 F9E0      		ldi r31,hi8(2496)
 2831 0e72 8383      		std Z+3,r24
 2832               	.L286:
 2833               	.LM366:
 2834 0e74 8091 C209 		lds r24,2498
 2835 0e78 87FF      		sbrs r24,7
 2836 0e7a 00C0      		rjmp .L286
 2837               	.LM367:
 2838 0e7c 8091 C309 		lds r24,2499
 2839               	.LBE833:
 2840               	.LBE832:
 2841               	.LM368:
 2842 0e80 C801      		movw r24,r16
 2843 0e82 60E4      		ldi r22,lo8(64)
 2844 0e84 70E0      		ldi r23,hi8(64)
 2845               	.L299:
 2846 0e86 0E94 0000 		call rcvr_datablock
 2847 0e8a 90E0      		ldi r25,lo8(0)
 2848               	.LVL171:
 2849 0e8c 8823      		tst r24
 2850 0e8e 01F4      		brne .L272
 2851               	.L273:
 2852 0e90 91E0      		ldi r25,lo8(1)
 2853               	.LVL172:
 2854               	.L272:
 2855               	.LBB834:
 2856               	.LBB835:
 2857               	.LM369:
 2858 0e92 80E1      		ldi r24,lo8(16)
 2859 0e94 E0E6      		ldi r30,lo8(1632)
 2860 0e96 F6E0      		ldi r31,hi8(1632)
 2861               	.LVL173:
 2862 0e98 8583      		std Z+5,r24
 2863               	.LBB836:
 2864               	.LBB837:
 2865               	.LM370:
 2866 0e9a 8FEF      		ldi r24,lo8(-1)
 2867 0e9c E0EC      		ldi r30,lo8(2496)
 2868 0e9e F9E0      		ldi r31,hi8(2496)
 2869 0ea0 8383      		std Z+3,r24
 2870               	.L288:
 2871               	.LM371:
 2872 0ea2 8091 C209 		lds r24,2498
 2873 0ea6 87FF      		sbrs r24,7
 2874 0ea8 00C0      		rjmp .L288
 2875               	.LM372:
 2876 0eaa 8091 C309 		lds r24,2499
 2877 0eae 00C0      		rjmp .L259
 2878               	.LVL174:
 2879               	.L253:
 2880 0eb0 94E0      		ldi r25,lo8(4)
 2881               	.LVL175:
 2882 0eb2 00C0      		rjmp .L259
 2883               	.LVL176:
 2884               	.L255:
 2885 0eb4 90E0      		ldi r25,lo8(0)
 2886               	.LVL177:
 2887               	.L259:
 2888               	.LBE837:
 2889               	.LBE836:
 2890               	.LBE835:
 2891               	.LBE834:
 2892               	.LM373:
 2893 0eb6 892F      		mov r24,r25
 2894               	.LVL178:
 2895               	/* epilogue start */
 2896 0eb8 6096      		adiw r28,16
 2897 0eba CDBF      		out __SP_L__,r28
 2898 0ebc DEBF      		out __SP_H__,r29
 2899 0ebe CF91      		pop r28
 2900 0ec0 DF91      		pop r29
 2901 0ec2 1F91      		pop r17
 2902 0ec4 0F91      		pop r16
 2903               	.LVL179:
 2904 0ec6 FF90      		pop r15
 2905 0ec8 0895      		ret
 2906               	.LFE54:
 2908               	.global	disk_timerproc
 2910               	disk_timerproc:
 2911               	.LFB55:
 2912               	.LM374:
 2913               	/* prologue: function */
 2914               	/* frame size = 0 */
 2915               	.LM375:
 2916 0eca 8091 0000 		lds r24,Timer1
 2917               	.LVL180:
 2918               	.LM376:
 2919 0ece 8823      		tst r24
 2920 0ed0 01F0      		breq .L308
 2921 0ed2 8150      		subi r24,lo8(-(-1))
 2922 0ed4 8093 0000 		sts Timer1,r24
 2923               	.L308:
 2924               	.LM377:
 2925 0ed8 8091 0000 		lds r24,Timer2
 2926               	.LVL181:
 2927               	.LM378:
 2928 0edc 8823      		tst r24
 2929 0ede 01F0      		breq .L309
 2930 0ee0 8150      		subi r24,lo8(-(-1))
 2931 0ee2 8093 0000 		sts Timer2,r24
 2932               	.L309:
 2933               	.LM379:
 2934 0ee6 8091 0000 		lds r24,Stat
 2935               	.LVL182:
 2936               	.LM380:
 2937 0eea 897F      		andi r24,lo8(-7)
 2938               	.LM381:
 2939 0eec 8093 0000 		sts Stat,r24
 2940               	/* epilogue start */
 2941               	.LM382:
 2942 0ef0 0895      		ret
 2943               	.LFE55:
 2945               	.global	get_fattime
 2947               	get_fattime:
 2948               	.LFB56:
 2949               	.LM383:
 2950               	/* prologue: function */
 2951               	/* frame size = 0 */
 2952               	.LM384:
 2953 0ef2 60E0      		ldi r22,lo8(0)
 2954 0ef4 70E0      		ldi r23,hi8(0)
 2955 0ef6 80E0      		ldi r24,hlo8(0)
 2956 0ef8 90E0      		ldi r25,hhi8(0)
 2957               	/* epilogue start */
 2958 0efa 0895      		ret
 2959               	.LFE56:
 2962               	move_window:
 2963               	.LFB61:
 2964               	.LM385:
 2965               	.LVL183:
 2966 0efc 6F92      		push r6
 2967 0efe 7F92      		push r7
 2968 0f00 8F92      		push r8
 2969 0f02 9F92      		push r9
 2970 0f04 AF92      		push r10
 2971 0f06 BF92      		push r11
 2972 0f08 CF92      		push r12
 2973 0f0a DF92      		push r13
 2974 0f0c EF92      		push r14
 2975 0f0e FF92      		push r15
 2976 0f10 0F93      		push r16
 2977 0f12 1F93      		push r17
 2978 0f14 CF93      		push r28
 2979 0f16 DF93      		push r29
 2980               	/* prologue: function */
 2981               	/* frame size = 0 */
 2982 0f18 EC01      		movw r28,r24
 2983 0f1a 4A01      		movw r8,r20
 2984 0f1c 5B01      		movw r10,r22
 2985               	.LM386:
 2986 0f1e CAA4      		ldd r12,Y+42
 2987 0f20 DBA4      		ldd r13,Y+43
 2988 0f22 ECA4      		ldd r14,Y+44
 2989 0f24 FDA4      		ldd r15,Y+45
 2990               	.LVL184:
 2991               	.LM387:
 2992 0f26 C416      		cp r12,r20
 2993 0f28 D506      		cpc r13,r21
 2994 0f2a E606      		cpc r14,r22
 2995 0f2c F706      		cpc r15,r23
 2996 0f2e 01F4      		brne .+2
 2997 0f30 00C0      		rjmp .L314
 2998               	.LVL185:
 2999               	.LM388:
 3000 0f32 8C81      		ldd r24,Y+4
 3001 0f34 8823      		tst r24
 3002 0f36 01F0      		breq .L315
 3003               	.LM389:
 3004 0f38 3EE2      		ldi r19,lo8(46)
 3005 0f3a 632E      		mov r6,r19
 3006 0f3c 712C      		mov r7,__zero_reg__
 3007 0f3e 6C0E      		add r6,r28
 3008 0f40 7D1E      		adc r7,r29
 3009 0f42 8981      		ldd r24,Y+1
 3010 0f44 B301      		movw r22,r6
 3011 0f46 A701      		movw r20,r14
 3012 0f48 9601      		movw r18,r12
 3013 0f4a 01E0      		ldi r16,lo8(1)
 3014 0f4c 0E94 0000 		call disk_write
 3015               	.LVL186:
 3016 0f50 8823      		tst r24
 3017 0f52 01F4      		brne .L316
 3018               	.LM390:
 3019 0f54 1C82      		std Y+4,__zero_reg__
 3020               	.LM391:
 3021 0f56 8E89      		ldd r24,Y+22
 3022 0f58 9F89      		ldd r25,Y+23
 3023 0f5a A88D      		ldd r26,Y+24
 3024 0f5c B98D      		ldd r27,Y+25
 3025 0f5e 2E8D      		ldd r18,Y+30
 3026 0f60 3F8D      		ldd r19,Y+31
 3027 0f62 48A1      		ldd r20,Y+32
 3028 0f64 59A1      		ldd r21,Y+33
 3029 0f66 820F      		add r24,r18
 3030 0f68 931F      		adc r25,r19
 3031 0f6a A41F      		adc r26,r20
 3032 0f6c B51F      		adc r27,r21
 3033 0f6e C816      		cp r12,r24
 3034 0f70 D906      		cpc r13,r25
 3035 0f72 EA06      		cpc r14,r26
 3036 0f74 FB06      		cpc r15,r27
 3037 0f76 00F4      		brsh .L315
 3038               	.LBB838:
 3039               	.LM392:
 3040 0f78 1B81      		ldd r17,Y+3
 3041               	.LVL187:
 3042 0f7a 00C0      		rjmp .L317
 3043               	.L318:
 3044               	.LM393:
 3045 0f7c 8E89      		ldd r24,Y+22
 3046 0f7e 9F89      		ldd r25,Y+23
 3047 0f80 A88D      		ldd r26,Y+24
 3048 0f82 B98D      		ldd r27,Y+25
 3049 0f84 C80E      		add r12,r24
 3050 0f86 D91E      		adc r13,r25
 3051 0f88 EA1E      		adc r14,r26
 3052 0f8a FB1E      		adc r15,r27
 3053               	.LM394:
 3054 0f8c 8981      		ldd r24,Y+1
 3055 0f8e B301      		movw r22,r6
 3056 0f90 A701      		movw r20,r14
 3057 0f92 9601      		movw r18,r12
 3058 0f94 01E0      		ldi r16,lo8(1)
 3059 0f96 0E94 0000 		call disk_write
 3060               	.LM395:
 3061 0f9a 1150      		subi r17,lo8(-(-1))
 3062               	.L317:
 3063 0f9c 1230      		cpi r17,lo8(2)
 3064 0f9e 00F4      		brsh .L318
 3065               	.LVL188:
 3066               	.L315:
 3067               	.LBE838:
 3068               	.LM396:
 3069 0fa0 8114      		cp r8,__zero_reg__
 3070 0fa2 9104      		cpc r9,__zero_reg__
 3071 0fa4 A104      		cpc r10,__zero_reg__
 3072 0fa6 B104      		cpc r11,__zero_reg__
 3073 0fa8 01F0      		breq .L314
 3074               	.LM397:
 3075 0faa BE01      		movw r22,r28
 3076 0fac 625D      		subi r22,lo8(-(46))
 3077 0fae 7F4F      		sbci r23,hi8(-(46))
 3078 0fb0 8981      		ldd r24,Y+1
 3079 0fb2 A501      		movw r20,r10
 3080 0fb4 9401      		movw r18,r8
 3081 0fb6 01E0      		ldi r16,lo8(1)
 3082 0fb8 0E94 0000 		call disk_read
 3083 0fbc 8823      		tst r24
 3084 0fbe 01F4      		brne .L316
 3085               	.LM398:
 3086 0fc0 8AA6      		std Y+42,r8
 3087 0fc2 9BA6      		std Y+43,r9
 3088 0fc4 ACA6      		std Y+44,r10
 3089 0fc6 BDA6      		std Y+45,r11
 3090 0fc8 00C0      		rjmp .L319
 3091               	.L316:
 3092 0fca 81E0      		ldi r24,lo8(1)
 3093 0fcc 00C0      		rjmp .L319
 3094               	.LVL189:
 3095               	.L314:
 3096 0fce 80E0      		ldi r24,lo8(0)
 3097               	.LVL190:
 3098               	.L319:
 3099               	/* epilogue start */
 3100               	.LM399:
 3101 0fd0 DF91      		pop r29
 3102 0fd2 CF91      		pop r28
 3103               	.LVL191:
 3104 0fd4 1F91      		pop r17
 3105               	.LVL192:
 3106 0fd6 0F91      		pop r16
 3107 0fd8 FF90      		pop r15
 3108 0fda EF90      		pop r14
 3109 0fdc DF90      		pop r13
 3110 0fde CF90      		pop r12
 3111               	.LVL193:
 3112 0fe0 BF90      		pop r11
 3113 0fe2 AF90      		pop r10
 3114 0fe4 9F90      		pop r9
 3115 0fe6 8F90      		pop r8
 3116               	.LVL194:
 3117 0fe8 7F90      		pop r7
 3118 0fea 6F90      		pop r6
 3119 0fec 0895      		ret
 3120               	.LFE61:
 3123               	sync:
 3124               	.LFB62:
 3125               	.LM400:
 3126               	.LVL195:
 3127 0fee 0F93      		push r16
 3128 0ff0 CF93      		push r28
 3129 0ff2 DF93      		push r29
 3130               	/* prologue: function */
 3131               	/* frame size = 0 */
 3132 0ff4 EC01      		movw r28,r24
 3133               	.LM401:
 3134 0ff6 40E0      		ldi r20,lo8(0)
 3135 0ff8 50E0      		ldi r21,hi8(0)
 3136 0ffa 60E0      		ldi r22,hlo8(0)
 3137 0ffc 70E0      		ldi r23,hhi8(0)
 3138 0ffe 0E94 0000 		call move_window
 3139               	.LVL196:
 3140               	.LM402:
 3141 1002 8823      		tst r24
 3142               	.LVL197:
 3143 1004 01F0      		breq .+2
 3144 1006 00C0      		rjmp .L322
 3145               	.LM403:
 3146 1008 8881      		ld r24,Y
 3147               	.LVL198:
 3148 100a 8330      		cpi r24,lo8(3)
 3149 100c 01F0      		breq .+2
 3150 100e 00C0      		rjmp .L323
 3151 1010 8D81      		ldd r24,Y+5
 3152 1012 8823      		tst r24
 3153 1014 01F4      		brne .+2
 3154 1016 00C0      		rjmp .L323
 3155               	.LM404:
 3156 1018 1AA6      		std Y+42,__zero_reg__
 3157 101a 1BA6      		std Y+43,__zero_reg__
 3158 101c 1CA6      		std Y+44,__zero_reg__
 3159 101e 1DA6      		std Y+45,__zero_reg__
 3160               	.LBB839:
 3161               	.LBB840:
 3162               	.LM405:
 3163 1020 BE01      		movw r22,r28
 3164               	.LVL199:
 3165 1022 625D      		subi r22,lo8(-(46))
 3166 1024 7F4F      		sbci r23,hi8(-(46))
 3167 1026 FB01      		movw r30,r22
 3168 1028 80E0      		ldi r24,lo8(512)
 3169 102a 92E0      		ldi r25,hi8(512)
 3170               	.LVL200:
 3171 102c 00C0      		rjmp .L324
 3172               	.LVL201:
 3173               	.L325:
 3174               	.LM406:
 3175 102e 1192      		st Z+,__zero_reg__
 3176               	.L324:
 3177 1030 0197      		sbiw r24,1
 3178 1032 2FEF      		ldi r18,hi8(-1)
 3179 1034 8F3F      		cpi r24,lo8(-1)
 3180 1036 9207      		cpc r25,r18
 3181 1038 01F4      		brne .L325
 3182               	.LBE840:
 3183               	.LBE839:
 3184               	.LM407:
 3185 103a C45D      		subi r28,lo8(-(556))
 3186 103c DD4F      		sbci r29,hi8(-(556))
 3187 103e 85E5      		ldi r24,lo8(85)
 3188               	.LVL202:
 3189 1040 8993      		st Y+,r24
 3190 1042 8AEA      		ldi r24,lo8(-86)
 3191 1044 8883      		st Y,r24
 3192 1046 CD52      		subi r28,lo8(-(-557))
 3193 1048 D240      		sbci r29,hi8(-(-557))
 3194               	.LM408:
 3195 104a 82E5      		ldi r24,lo8(82)
 3196 104c 8EA7      		std Y+46,r24
 3197 104e 8FA7      		std Y+47,r24
 3198 1050 21E6      		ldi r18,lo8(97)
 3199 1052 28AB      		std Y+48,r18
 3200 1054 91E4      		ldi r25,lo8(65)
 3201 1056 99AB      		std Y+49,r25
 3202               	.LM409:
 3203 1058 CE5E      		subi r28,lo8(-(530))
 3204 105a DD4F      		sbci r29,hi8(-(530))
 3205 105c 82E7      		ldi r24,lo8(114)
 3206 105e 8993      		st Y+,r24
 3207 1060 8993      		st Y+,r24
 3208 1062 9993      		st Y+,r25
 3209 1064 2883      		st Y,r18
 3210 1066 C551      		subi r28,lo8(-(-533))
 3211 1068 D240      		sbci r29,hi8(-(-533))
 3212               	.LM410:
 3213 106a 8E85      		ldd r24,Y+14
 3214 106c CA5E      		subi r28,lo8(-(534))
 3215 106e DD4F      		sbci r29,hi8(-(534))
 3216 1070 8883      		st Y,r24
 3217 1072 C651      		subi r28,lo8(-(-534))
 3218 1074 D240      		sbci r29,hi8(-(-534))
 3219 1076 8F85      		ldd r24,Y+15
 3220 1078 C95E      		subi r28,lo8(-(535))
 3221 107a DD4F      		sbci r29,hi8(-(535))
 3222 107c 8883      		st Y,r24
 3223 107e C751      		subi r28,lo8(-(-535))
 3224 1080 D240      		sbci r29,hi8(-(-535))
 3225 1082 8E85      		ldd r24,Y+14
 3226 1084 9F85      		ldd r25,Y+15
 3227 1086 A889      		ldd r26,Y+16
 3228 1088 B989      		ldd r27,Y+17
 3229 108a 9D01      		movw r18,r26
 3230 108c 4427      		clr r20
 3231 108e 5527      		clr r21
 3232 1090 C85E      		subi r28,lo8(-(536))
 3233 1092 DD4F      		sbci r29,hi8(-(536))
 3234 1094 2883      		st Y,r18
 3235 1096 2196      		adiw r28,1
 3236 1098 8B2F      		mov r24,r27
 3237 109a 9927      		clr r25
 3238 109c AA27      		clr r26
 3239 109e BB27      		clr r27
 3240               	.LVL203:
 3241 10a0 8883      		st Y,r24
 3242 10a2 C951      		subi r28,lo8(-(-537))
 3243 10a4 D240      		sbci r29,hi8(-(-537))
 3244               	.LM411:
 3245 10a6 8A85      		ldd r24,Y+10
 3246 10a8 C65E      		subi r28,lo8(-(538))
 3247 10aa DD4F      		sbci r29,hi8(-(538))
 3248 10ac 8883      		st Y,r24
 3249 10ae CA51      		subi r28,lo8(-(-538))
 3250 10b0 D240      		sbci r29,hi8(-(-538))
 3251 10b2 8B85      		ldd r24,Y+11
 3252 10b4 C55E      		subi r28,lo8(-(539))
 3253 10b6 DD4F      		sbci r29,hi8(-(539))
 3254 10b8 8883      		st Y,r24
 3255 10ba CB51      		subi r28,lo8(-(-539))
 3256 10bc D240      		sbci r29,hi8(-(-539))
 3257 10be 8A85      		ldd r24,Y+10
 3258 10c0 9B85      		ldd r25,Y+11
 3259 10c2 AC85      		ldd r26,Y+12
 3260 10c4 BD85      		ldd r27,Y+13
 3261 10c6 9D01      		movw r18,r26
 3262 10c8 4427      		clr r20
 3263 10ca 5527      		clr r21
 3264 10cc C45E      		subi r28,lo8(-(540))
 3265 10ce DD4F      		sbci r29,hi8(-(540))
 3266 10d0 2883      		st Y,r18
 3267 10d2 2196      		adiw r28,1
 3268 10d4 8B2F      		mov r24,r27
 3269 10d6 9927      		clr r25
 3270 10d8 AA27      		clr r26
 3271 10da BB27      		clr r27
 3272 10dc 8883      		st Y,r24
 3273 10de CD51      		subi r28,lo8(-(-541))
 3274 10e0 D240      		sbci r29,hi8(-(-541))
 3275               	.LM412:
 3276 10e2 2A89      		ldd r18,Y+18
 3277 10e4 3B89      		ldd r19,Y+19
 3278 10e6 4C89      		ldd r20,Y+20
 3279 10e8 5D89      		ldd r21,Y+21
 3280 10ea 8981      		ldd r24,Y+1
 3281 10ec 01E0      		ldi r16,lo8(1)
 3282 10ee 0E94 0000 		call disk_write
 3283               	.LVL204:
 3284               	.LM413:
 3285 10f2 1D82      		std Y+5,__zero_reg__
 3286               	.L323:
 3287               	.LM414:
 3288 10f4 8981      		ldd r24,Y+1
 3289 10f6 60E0      		ldi r22,lo8(0)
 3290 10f8 40E0      		ldi r20,lo8(0)
 3291 10fa 50E0      		ldi r21,hi8(0)
 3292 10fc 0E94 0000 		call disk_ioctl
 3293 1100 8111      		cpse r24,__zero_reg__
 3294 1102 81E0      		ldi r24,lo8(1)
 3295               	.LVL205:
 3296               	.L322:
 3297               	.LVL206:
 3298               	/* epilogue start */
 3299               	.LM415:
 3300 1104 DF91      		pop r29
 3301 1106 CF91      		pop r28
 3302               	.LVL207:
 3303 1108 0F91      		pop r16
 3304 110a 0895      		ret
 3305               	.LFE62:
 3307               	.global	get_fat
 3309               	get_fat:
 3310               	.LFB63:
 3311               	.LM416:
 3312               	.LVL208:
 3313 110c 7F92      		push r7
 3314 110e 8F92      		push r8
 3315 1110 9F92      		push r9
 3316 1112 AF92      		push r10
 3317 1114 BF92      		push r11
 3318 1116 CF92      		push r12
 3319 1118 DF92      		push r13
 3320 111a EF92      		push r14
 3321 111c FF92      		push r15
 3322 111e 0F93      		push r16
 3323 1120 1F93      		push r17
 3324 1122 CF93      		push r28
 3325 1124 DF93      		push r29
 3326               	/* prologue: function */
 3327               	/* frame size = 0 */
 3328 1126 4C01      		movw r8,r24
 3329 1128 7A01      		movw r14,r20
 3330 112a 8B01      		movw r16,r22
 3331               	.LM417:
 3332 112c 4230      		cpi r20,lo8(2)
 3333 112e 5105      		cpc r21,__zero_reg__
 3334 1130 6105      		cpc r22,__zero_reg__
 3335 1132 7105      		cpc r23,__zero_reg__
 3336               	.LVL209:
 3337 1134 00F4      		brsh .+2
 3338 1136 00C0      		rjmp .L329
 3339 1138 F401      		movw r30,r8
 3340 113a 828D      		ldd r24,Z+26
 3341 113c 938D      		ldd r25,Z+27
 3342 113e A48D      		ldd r26,Z+28
 3343 1140 B58D      		ldd r27,Z+29
 3344 1142 4817      		cp r20,r24
 3345 1144 5907      		cpc r21,r25
 3346 1146 6A07      		cpc r22,r26
 3347 1148 7B07      		cpc r23,r27
 3348 114a 00F0      		brlo .+2
 3349 114c 00C0      		rjmp .L329
 3350               	.LM418:
 3351 114e A68C      		ldd r10,Z+30
 3352 1150 B78C      		ldd r11,Z+31
 3353 1152 C0A0      		ldd r12,Z+32
 3354 1154 D1A0      		ldd r13,Z+33
 3355               	.LVL210:
 3356               	.LM419:
 3357 1156 8081      		ld r24,Z
 3358 1158 8230      		cpi r24,lo8(2)
 3359 115a 01F4      		brne .+2
 3360 115c 00C0      		rjmp .L332
 3361 115e 8330      		cpi r24,lo8(3)
 3362 1160 01F4      		brne .+2
 3363 1162 00C0      		rjmp .L333
 3364 1164 8130      		cpi r24,lo8(1)
 3365 1166 01F0      		breq .+2
 3366 1168 00C0      		rjmp .L330
 3367               	.LM420:
 3368 116a EA01      		movw r28,r20
 3369               	.LVL211:
 3370 116c D695      		lsr r29
 3371 116e C795      		ror r28
 3372               	.LVL212:
 3373 1170 C40F      		add r28,r20
 3374 1172 D51F      		adc r29,r21
 3375               	.LM421:
 3376 1174 AE01      		movw r20,r28
 3377               	.LVL213:
 3378 1176 452F      		mov r20,r21
 3379 1178 5527      		clr r21
 3380 117a 4695      		lsr r20
 3381 117c 60E0      		ldi r22,lo8(0)
 3382 117e 70E0      		ldi r23,hi8(0)
 3383 1180 4A0D      		add r20,r10
 3384 1182 5B1D      		adc r21,r11
 3385 1184 6C1D      		adc r22,r12
 3386 1186 7D1D      		adc r23,r13
 3387 1188 C401      		movw r24,r8
 3388 118a 0E94 0000 		call move_window
 3389 118e 8823      		tst r24
 3390 1190 01F0      		breq .+2
 3391 1192 00C0      		rjmp .L330
 3392               	.LM422:
 3393 1194 FE01      		movw r30,r28
 3394 1196 F170      		andi r31,hi8(511)
 3395 1198 E80D      		add r30,r8
 3396 119a F91D      		adc r31,r9
 3397 119c 76A4      		ldd r7,Z+46
 3398 119e 2196      		adiw r28,1
 3399               	.LVL214:
 3400               	.LM423:
 3401 11a0 AE01      		movw r20,r28
 3402 11a2 452F      		mov r20,r21
 3403 11a4 5527      		clr r21
 3404 11a6 4695      		lsr r20
 3405 11a8 60E0      		ldi r22,lo8(0)
 3406 11aa 70E0      		ldi r23,hi8(0)
 3407 11ac 4A0D      		add r20,r10
 3408 11ae 5B1D      		adc r21,r11
 3409 11b0 6C1D      		adc r22,r12
 3410 11b2 7D1D      		adc r23,r13
 3411 11b4 C401      		movw r24,r8
 3412 11b6 0E94 0000 		call move_window
 3413 11ba 8823      		tst r24
 3414 11bc 01F0      		breq .+2
 3415 11be 00C0      		rjmp .L330
 3416               	.LM424:
 3417 11c0 672D      		mov r22,r7
 3418               	.LVL215:
 3419 11c2 70E0      		ldi r23,lo8(0)
 3420               	.LVL216:
 3421               	.LM425:
 3422 11c4 D170      		andi r29,hi8(511)
 3423 11c6 C80D      		add r28,r8
 3424 11c8 D91D      		adc r29,r9
 3425 11ca 9EA5      		ldd r25,Y+46
 3426 11cc 80E0      		ldi r24,lo8(0)
 3427 11ce 682B      		or r22,r24
 3428 11d0 792B      		or r23,r25
 3429               	.LVL217:
 3430               	.LM426:
 3431 11d2 C701      		movw r24,r14
 3432               	.LVL218:
 3433 11d4 8170      		andi r24,lo8(1)
 3434 11d6 9070      		andi r25,hi8(1)
 3435 11d8 892B      		or r24,r25
 3436 11da 01F0      		breq .L334
 3437 11dc 44E0      		ldi r20,4
 3438 11de 7695      	1:	lsr r23
 3439 11e0 6795      		ror r22
 3440 11e2 4A95      		dec r20
 3441 11e4 01F4      		brne 1b
 3442 11e6 9B01      		movw r18,r22
 3443 11e8 00C0      		rjmp .L337
 3444               	.L334:
 3445 11ea 9B01      		movw r18,r22
 3446 11ec 40E0      		ldi r20,lo8(0)
 3447 11ee 50E0      		ldi r21,hi8(0)
 3448 11f0 3F70      		andi r19,hi8(4095)
 3449 11f2 4070      		andi r20,hlo8(4095)
 3450 11f4 5070      		andi r21,hhi8(4095)
 3451 11f6 00C0      		rjmp .L335
 3452               	.LVL219:
 3453               	.L332:
 3454               	.LM427:
 3455 11f8 452F      		mov r20,r21
 3456 11fa 562F      		mov r21,r22
 3457 11fc 672F      		mov r22,r23
 3458 11fe 7727      		clr r23
 3459               	.LVL220:
 3460 1200 4A0D      		add r20,r10
 3461 1202 5B1D      		adc r21,r11
 3462 1204 6C1D      		adc r22,r12
 3463 1206 7D1D      		adc r23,r13
 3464 1208 C401      		movw r24,r8
 3465 120a 0E94 0000 		call move_window
 3466 120e 8823      		tst r24
 3467 1210 01F0      		breq .+2
 3468 1212 00C0      		rjmp .L330
 3469               	.LM428:
 3470 1214 F701      		movw r30,r14
 3471               	.LVL221:
 3472 1216 EE0F      		lsl r30
 3473 1218 FF1F      		rol r31
 3474 121a F170      		andi r31,hi8(511)
 3475 121c E80D      		add r30,r8
 3476 121e F91D      		adc r31,r9
 3477 1220 97A5      		ldd r25,Z+47
 3478 1222 80E0      		ldi r24,lo8(0)
 3479 1224 26A5      		ldd r18,Z+46
 3480 1226 30E0      		ldi r19,lo8(0)
 3481 1228 822B      		or r24,r18
 3482 122a 932B      		or r25,r19
 3483 122c 9C01      		movw r18,r24
 3484               	.LVL222:
 3485               	.L337:
 3486 122e 40E0      		ldi r20,lo8(0)
 3487 1230 50E0      		ldi r21,hi8(0)
 3488 1232 00C0      		rjmp .L335
 3489               	.LVL223:
 3490               	.L333:
 3491               	.LM429:
 3492 1234 97E0      		ldi r25,7
 3493 1236 7695      	1:	lsr r23
 3494 1238 6795      		ror r22
 3495 123a 5795      		ror r21
 3496 123c 4795      		ror r20
 3497 123e 9A95      		dec r25
 3498 1240 01F4      		brne 1b
 3499               	.LVL224:
 3500 1242 4A0D      		add r20,r10
 3501 1244 5B1D      		adc r21,r11
 3502 1246 6C1D      		adc r22,r12
 3503 1248 7D1D      		adc r23,r13
 3504 124a C401      		movw r24,r8
 3505 124c 0E94 0000 		call move_window
 3506 1250 8823      		tst r24
 3507 1252 01F4      		brne .L330
 3508               	.LM430:
 3509 1254 F701      		movw r30,r14
 3510               	.LVL225:
 3511 1256 EE0F      		lsl r30
 3512 1258 FF1F      		rol r31
 3513 125a EE0F      		lsl r30
 3514 125c FF1F      		rol r31
 3515 125e F170      		andi r31,hi8(511)
 3516 1260 E80D      		add r30,r8
 3517 1262 F91D      		adc r31,r9
 3518 1264 81A9      		ldd r24,Z+49
 3519 1266 90E0      		ldi r25,lo8(0)
 3520 1268 A0E0      		ldi r26,lo8(0)
 3521 126a B0E0      		ldi r27,hi8(0)
 3522 126c 582F      		mov r21,r24
 3523 126e 4427      		clr r20
 3524 1270 3327      		clr r19
 3525 1272 2227      		clr r18
 3526 1274 80A9      		ldd r24,Z+48
 3527 1276 90E0      		ldi r25,lo8(0)
 3528 1278 A0E0      		ldi r26,lo8(0)
 3529 127a B0E0      		ldi r27,hi8(0)
 3530 127c DC01      		movw r26,r24
 3531 127e 9927      		clr r25
 3532 1280 8827      		clr r24
 3533 1282 282B      		or r18,r24
 3534 1284 392B      		or r19,r25
 3535 1286 4A2B      		or r20,r26
 3536 1288 5B2B      		or r21,r27
 3537 128a 86A5      		ldd r24,Z+46
 3538 128c 90E0      		ldi r25,lo8(0)
 3539 128e A0E0      		ldi r26,lo8(0)
 3540 1290 B0E0      		ldi r27,hi8(0)
 3541 1292 282B      		or r18,r24
 3542 1294 392B      		or r19,r25
 3543 1296 4A2B      		or r20,r26
 3544 1298 5B2B      		or r21,r27
 3545 129a 97A5      		ldd r25,Z+47
 3546 129c 80E0      		ldi r24,lo8(0)
 3547 129e A0E0      		ldi r26,lo8(0)
 3548 12a0 B0E0      		ldi r27,hi8(0)
 3549 12a2 282B      		or r18,r24
 3550 12a4 392B      		or r19,r25
 3551 12a6 4A2B      		or r20,r26
 3552 12a8 5B2B      		or r21,r27
 3553 12aa 5F70      		andi r21,hhi8(268435455)
 3554 12ac 00C0      		rjmp .L335
 3555               	.LVL226:
 3556               	.L329:
 3557 12ae 21E0      		ldi r18,lo8(1)
 3558 12b0 30E0      		ldi r19,hi8(1)
 3559 12b2 40E0      		ldi r20,hlo8(1)
 3560 12b4 50E0      		ldi r21,hhi8(1)
 3561 12b6 00C0      		rjmp .L335
 3562               	.LVL227:
 3563               	.L330:
 3564 12b8 2FEF      		ldi r18,lo8(-1)
 3565 12ba 3FEF      		ldi r19,hi8(-1)
 3566 12bc 4FEF      		ldi r20,hlo8(-1)
 3567 12be 5FEF      		ldi r21,hhi8(-1)
 3568               	.LVL228:
 3569               	.L335:
 3570               	.LM431:
 3571 12c0 B901      		movw r22,r18
 3572               	.LVL229:
 3573 12c2 CA01      		movw r24,r20
 3574               	/* epilogue start */
 3575 12c4 DF91      		pop r29
 3576 12c6 CF91      		pop r28
 3577               	.LVL230:
 3578 12c8 1F91      		pop r17
 3579 12ca 0F91      		pop r16
 3580 12cc FF90      		pop r15
 3581 12ce EF90      		pop r14
 3582               	.LVL231:
 3583 12d0 DF90      		pop r13
 3584 12d2 CF90      		pop r12
 3585 12d4 BF90      		pop r11
 3586 12d6 AF90      		pop r10
 3587               	.LVL232:
 3588 12d8 9F90      		pop r9
 3589 12da 8F90      		pop r8
 3590               	.LVL233:
 3591 12dc 7F90      		pop r7
 3592 12de 0895      		ret
 3593               	.LFE63:
 3595               	.global	put_fat
 3597               	put_fat:
 3598               	.LFB64:
 3599               	.LM432:
 3600               	.LVL234:
 3601 12e0 2F92      		push r2
 3602 12e2 3F92      		push r3
 3603 12e4 4F92      		push r4
 3604 12e6 5F92      		push r5
 3605 12e8 6F92      		push r6
 3606 12ea 7F92      		push r7
 3607 12ec 8F92      		push r8
 3608 12ee 9F92      		push r9
 3609 12f0 AF92      		push r10
 3610 12f2 BF92      		push r11
 3611 12f4 CF92      		push r12
 3612 12f6 DF92      		push r13
 3613 12f8 EF92      		push r14
 3614 12fa FF92      		push r15
 3615 12fc 0F93      		push r16
 3616               	.LVL235:
 3617 12fe 1F93      		push r17
 3618 1300 CF93      		push r28
 3619 1302 DF93      		push r29
 3620               	/* prologue: function */
 3621               	/* frame size = 0 */
 3622 1304 3C01      		movw r6,r24
 3623 1306 6A01      		movw r12,r20
 3624 1308 7B01      		movw r14,r22
 3625 130a 4801      		movw r8,r16
 3626 130c 5901      		movw r10,r18
 3627               	.LVL236:
 3628               	.LM433:
 3629 130e 4230      		cpi r20,lo8(2)
 3630 1310 5105      		cpc r21,__zero_reg__
 3631 1312 6105      		cpc r22,__zero_reg__
 3632 1314 7105      		cpc r23,__zero_reg__
 3633               	.LVL237:
 3634 1316 00F4      		brsh .+2
 3635 1318 00C0      		rjmp .L339
 3636               	.LVL238:
 3637 131a F301      		movw r30,r6
 3638 131c 828D      		ldd r24,Z+26
 3639 131e 938D      		ldd r25,Z+27
 3640 1320 A48D      		ldd r26,Z+28
 3641 1322 B58D      		ldd r27,Z+29
 3642 1324 4817      		cp r20,r24
 3643 1326 5907      		cpc r21,r25
 3644 1328 6A07      		cpc r22,r26
 3645 132a 7B07      		cpc r23,r27
 3646 132c 00F0      		brlo .+2
 3647 132e 00C0      		rjmp .L339
 3648               	.LM434:
 3649 1330 268C      		ldd r2,Z+30
 3650 1332 378C      		ldd r3,Z+31
 3651 1334 40A0      		ldd r4,Z+32
 3652 1336 51A0      		ldd r5,Z+33
 3653               	.LVL239:
 3654               	.LM435:
 3655 1338 8081      		ld r24,Z
 3656 133a 8230      		cpi r24,lo8(2)
 3657 133c 01F4      		brne .+2
 3658 133e 00C0      		rjmp .L342
 3659 1340 8330      		cpi r24,lo8(3)
 3660 1342 01F4      		brne .+2
 3661 1344 00C0      		rjmp .L343
 3662 1346 8130      		cpi r24,lo8(1)
 3663 1348 01F0      		breq .L341
 3664 134a 22E0      		ldi r18,lo8(2)
 3665               	.LVL240:
 3666 134c 00C0      		rjmp .L344
 3667               	.LVL241:
 3668               	.L341:
 3669               	.LM436:
 3670 134e EA01      		movw r28,r20
 3671               	.LVL242:
 3672 1350 D695      		lsr r29
 3673 1352 C795      		ror r28
 3674               	.LVL243:
 3675 1354 C40F      		add r28,r20
 3676 1356 D51F      		adc r29,r21
 3677               	.LM437:
 3678 1358 AE01      		movw r20,r28
 3679               	.LVL244:
 3680 135a 452F      		mov r20,r21
 3681 135c 5527      		clr r21
 3682 135e 4695      		lsr r20
 3683 1360 60E0      		ldi r22,lo8(0)
 3684 1362 70E0      		ldi r23,hi8(0)
 3685 1364 420D      		add r20,r2
 3686 1366 531D      		adc r21,r3
 3687 1368 641D      		adc r22,r4
 3688 136a 751D      		adc r23,r5
 3689 136c C301      		movw r24,r6
 3690 136e 0E94 0000 		call move_window
 3691 1372 282F      		mov r18,r24
 3692               	.LVL245:
 3693               	.LM438:
 3694 1374 8823      		tst r24
 3695 1376 01F0      		breq .+2
 3696 1378 00C0      		rjmp .L344
 3697               	.LVL246:
 3698               	.LM439:
 3699 137a DE01      		movw r26,r28
 3700 137c B170      		andi r27,hi8(511)
 3701               	.LM440:
 3702 137e 8601      		movw r16,r12
 3703               	.LVL247:
 3704 1380 0170      		andi r16,lo8(1)
 3705 1382 1070      		andi r17,hi8(1)
 3706 1384 0115      		cp r16,__zero_reg__
 3707 1386 1105      		cpc r17,__zero_reg__
 3708 1388 01F0      		breq .L345
 3709 138a F301      		movw r30,r6
 3710 138c EA0F      		add r30,r26
 3711 138e FB1F      		adc r31,r27
 3712 1390 86A5      		ldd r24,Z+46
 3713               	.LVL248:
 3714 1392 8F70      		andi r24,lo8(15)
 3715 1394 982D      		mov r25,r8
 3716               	.LVL249:
 3717 1396 9295      		swap r25
 3718 1398 907F      		andi r25,lo8(-16)
 3719 139a 982B      		or r25,r24
 3720 139c 00C0      		rjmp .L346
 3721               	.LVL250:
 3722               	.L345:
 3723 139e 982D      		mov r25,r8
 3724               	.LVL251:
 3725               	.L346:
 3726 13a0 A60D      		add r26,r6
 3727 13a2 B71D      		adc r27,r7
 3728 13a4 9E96      		adiw r26,46
 3729 13a6 9C93      		st X,r25
 3730               	.LM441:
 3731 13a8 2196      		adiw r28,1
 3732               	.LVL252:
 3733               	.LM442:
 3734 13aa 81E0      		ldi r24,lo8(1)
 3735 13ac F301      		movw r30,r6
 3736 13ae 8483      		std Z+4,r24
 3737               	.LM443:
 3738 13b0 AE01      		movw r20,r28
 3739 13b2 452F      		mov r20,r21
 3740 13b4 5527      		clr r21
 3741 13b6 4695      		lsr r20
 3742 13b8 60E0      		ldi r22,lo8(0)
 3743 13ba 70E0      		ldi r23,hi8(0)
 3744 13bc 420D      		add r20,r2
 3745 13be 531D      		adc r21,r3
 3746 13c0 641D      		adc r22,r4
 3747 13c2 751D      		adc r23,r5
 3748 13c4 C301      		movw r24,r6
 3749 13c6 0E94 0000 		call move_window
 3750               	.LVL253:
 3751 13ca 282F      		mov r18,r24
 3752               	.LVL254:
 3753               	.LM444:
 3754 13cc 8823      		tst r24
 3755 13ce 01F0      		breq .+2
 3756 13d0 00C0      		rjmp .L344
 3757               	.LVL255:
 3758               	.LM445:
 3759 13d2 D170      		andi r29,hi8(511)
 3760               	.LVL256:
 3761               	.LM446:
 3762 13d4 012B      		or r16,r17
 3763 13d6 01F0      		breq .L347
 3764 13d8 64E0      		ldi r22,4
 3765 13da B694      	1:	lsr r11
 3766 13dc A794      		ror r10
 3767 13de 9794      		ror r9
 3768 13e0 8794      		ror r8
 3769 13e2 6A95      		dec r22
 3770 13e4 01F4      		brne 1b
 3771 13e6 482D      		mov r20,r8
 3772 13e8 00C0      		rjmp .L348
 3773               	.L347:
 3774 13ea F301      		movw r30,r6
 3775 13ec EC0F      		add r30,r28
 3776 13ee FD1F      		adc r31,r29
 3777 13f0 46A5      		ldd r20,Z+46
 3778 13f2 407F      		andi r20,lo8(-16)
 3779 13f4 BB27      		clr r27
 3780 13f6 AB2D      		mov r26,r11
 3781 13f8 9A2D      		mov r25,r10
 3782 13fa 892D      		mov r24,r9
 3783               	.LVL257:
 3784 13fc 8F70      		andi r24,lo8(15)
 3785 13fe 482B      		or r20,r24
 3786               	.LVL258:
 3787               	.L348:
 3788 1400 C60D      		add r28,r6
 3789 1402 D71D      		adc r29,r7
 3790 1404 4EA7      		std Y+46,r20
 3791 1406 00C0      		rjmp .L344
 3792               	.LVL259:
 3793               	.L342:
 3794               	.LM447:
 3795 1408 7727      		clr r23
 3796 140a 6F2D      		mov r22,r15
 3797 140c 5E2D      		mov r21,r14
 3798 140e 4D2D      		mov r20,r13
 3799               	.LVL260:
 3800 1410 420D      		add r20,r2
 3801 1412 531D      		adc r21,r3
 3802 1414 641D      		adc r22,r4
 3803 1416 751D      		adc r23,r5
 3804 1418 C301      		movw r24,r6
 3805 141a 0E94 0000 		call move_window
 3806 141e 282F      		mov r18,r24
 3807               	.LVL261:
 3808               	.LM448:
 3809 1420 8823      		tst r24
 3810 1422 01F4      		brne .L344
 3811               	.LVL262:
 3812               	.LM449:
 3813 1424 F601      		movw r30,r12
 3814               	.LVL263:
 3815 1426 EE0F      		lsl r30
 3816 1428 FF1F      		rol r31
 3817 142a F170      		andi r31,hi8(511)
 3818 142c E60D      		add r30,r6
 3819 142e F71D      		adc r31,r7
 3820 1430 86A6      		std Z+46,r8
 3821 1432 892D      		mov r24,r9
 3822 1434 9927      		clr r25
 3823               	.LVL264:
 3824 1436 87A7      		std Z+47,r24
 3825 1438 00C0      		rjmp .L344
 3826               	.LVL265:
 3827               	.L343:
 3828               	.LM450:
 3829 143a 87E0      		ldi r24,7
 3830 143c 7695      	1:	lsr r23
 3831 143e 6795      		ror r22
 3832 1440 5795      		ror r21
 3833 1442 4795      		ror r20
 3834 1444 8A95      		dec r24
 3835 1446 01F4      		brne 1b
 3836               	.LVL266:
 3837 1448 420D      		add r20,r2
 3838 144a 531D      		adc r21,r3
 3839 144c 641D      		adc r22,r4
 3840 144e 751D      		adc r23,r5
 3841 1450 C301      		movw r24,r6
 3842 1452 0E94 0000 		call move_window
 3843 1456 282F      		mov r18,r24
 3844               	.LVL267:
 3845               	.LM451:
 3846 1458 8823      		tst r24
 3847 145a 01F4      		brne .L344
 3848               	.LVL268:
 3849               	.LM452:
 3850 145c F601      		movw r30,r12
 3851               	.LVL269:
 3852 145e EE0F      		lsl r30
 3853 1460 FF1F      		rol r31
 3854 1462 EE0F      		lsl r30
 3855 1464 FF1F      		rol r31
 3856 1466 F170      		andi r31,hi8(511)
 3857 1468 E60D      		add r30,r6
 3858 146a F71D      		adc r31,r7
 3859 146c 86A6      		std Z+46,r8
 3860 146e 892D      		mov r24,r9
 3861 1470 9927      		clr r25
 3862               	.LVL270:
 3863 1472 87A7      		std Z+47,r24
 3864 1474 C501      		movw r24,r10
 3865 1476 AA27      		clr r26
 3866 1478 BB27      		clr r27
 3867 147a 80AB      		std Z+48,r24
 3868 147c 8B2D      		mov r24,r11
 3869 147e 9927      		clr r25
 3870 1480 AA27      		clr r26
 3871 1482 BB27      		clr r27
 3872 1484 81AB      		std Z+49,r24
 3873               	.LVL271:
 3874               	.L344:
 3875               	.LM453:
 3876 1486 81E0      		ldi r24,lo8(1)
 3877 1488 F301      		movw r30,r6
 3878 148a 8483      		std Z+4,r24
 3879 148c 00C0      		rjmp .L349
 3880               	.LVL272:
 3881               	.L339:
 3882 148e 22E0      		ldi r18,lo8(2)
 3883               	.LVL273:
 3884               	.L349:
 3885               	.LM454:
 3886 1490 822F      		mov r24,r18
 3887               	/* epilogue start */
 3888 1492 DF91      		pop r29
 3889 1494 CF91      		pop r28
 3890               	.LVL274:
 3891 1496 1F91      		pop r17
 3892 1498 0F91      		pop r16
 3893 149a FF90      		pop r15
 3894 149c EF90      		pop r14
 3895 149e DF90      		pop r13
 3896 14a0 CF90      		pop r12
 3897 14a2 BF90      		pop r11
 3898 14a4 AF90      		pop r10
 3899 14a6 9F90      		pop r9
 3900 14a8 8F90      		pop r8
 3901               	.LVL275:
 3902 14aa 7F90      		pop r7
 3903 14ac 6F90      		pop r6
 3904               	.LVL276:
 3905 14ae 5F90      		pop r5
 3906 14b0 4F90      		pop r4
 3907 14b2 3F90      		pop r3
 3908 14b4 2F90      		pop r2
 3909               	.LVL277:
 3910 14b6 0895      		ret
 3911               	.LFE64:
 3914               	remove_chain:
 3915               	.LFB65:
 3916               	.LM455:
 3917               	.LVL278:
 3918 14b8 9F92      		push r9
 3919 14ba AF92      		push r10
 3920 14bc BF92      		push r11
 3921 14be CF92      		push r12
 3922 14c0 DF92      		push r13
 3923 14c2 EF92      		push r14
 3924 14c4 FF92      		push r15
 3925 14c6 0F93      		push r16
 3926 14c8 1F93      		push r17
 3927 14ca CF93      		push r28
 3928 14cc DF93      		push r29
 3929               	/* prologue: function */
 3930               	/* frame size = 0 */
 3931 14ce EC01      		movw r28,r24
 3932 14d0 7A01      		movw r14,r20
 3933 14d2 8B01      		movw r16,r22
 3934               	.LM456:
 3935 14d4 4230      		cpi r20,lo8(2)
 3936 14d6 5105      		cpc r21,__zero_reg__
 3937 14d8 6105      		cpc r22,__zero_reg__
 3938 14da 7105      		cpc r23,__zero_reg__
 3939 14dc 00F4      		brsh .+2
 3940 14de 00C0      		rjmp .L352
 3941               	.LVL279:
 3942 14e0 8A8D      		ldd r24,Y+26
 3943 14e2 9B8D      		ldd r25,Y+27
 3944 14e4 AC8D      		ldd r26,Y+28
 3945 14e6 BD8D      		ldd r27,Y+29
 3946 14e8 4817      		cp r20,r24
 3947 14ea 5907      		cpc r21,r25
 3948 14ec 6A07      		cpc r22,r26
 3949 14ee 7B07      		cpc r23,r27
 3950 14f0 00F4      		brsh .+2
 3951 14f2 00C0      		rjmp .L360
 3952 14f4 00C0      		rjmp .L352
 3953               	.LVL280:
 3954               	.L358:
 3955               	.LM457:
 3956 14f6 CE01      		movw r24,r28
 3957 14f8 B801      		movw r22,r16
 3958 14fa A701      		movw r20,r14
 3959 14fc 0E94 0000 		call get_fat
 3960 1500 5B01      		movw r10,r22
 3961 1502 6C01      		movw r12,r24
 3962               	.LM458:
 3963 1504 6115      		cp r22,__zero_reg__
 3964 1506 7105      		cpc r23,__zero_reg__
 3965 1508 8105      		cpc r24,__zero_reg__
 3966 150a 9105      		cpc r25,__zero_reg__
 3967 150c 01F4      		brne .+2
 3968 150e 00C0      		rjmp .L354
 3969               	.LVL281:
 3970               	.LM459:
 3971 1510 81E0      		ldi r24,lo8(1)
 3972 1512 A816      		cp r10,r24
 3973 1514 B104      		cpc r11,__zero_reg__
 3974 1516 C104      		cpc r12,__zero_reg__
 3975 1518 D104      		cpc r13,__zero_reg__
 3976 151a 01F0      		breq .L352
 3977               	.LVL282:
 3978               	.LM460:
 3979 151c 2FEF      		ldi r18,lo8(-1)
 3980 151e A216      		cp r10,r18
 3981 1520 2FEF      		ldi r18,hi8(-1)
 3982 1522 B206      		cpc r11,r18
 3983 1524 2FEF      		ldi r18,hlo8(-1)
 3984 1526 C206      		cpc r12,r18
 3985 1528 2FEF      		ldi r18,hhi8(-1)
 3986 152a D206      		cpc r13,r18
 3987 152c 01F4      		brne .L355
 3988 152e 81E0      		ldi r24,lo8(1)
 3989               	.LVL283:
 3990 1530 00C0      		rjmp .L356
 3991               	.LVL284:
 3992               	.L355:
 3993               	.LM461:
 3994 1532 CE01      		movw r24,r28
 3995 1534 B801      		movw r22,r16
 3996 1536 A701      		movw r20,r14
 3997 1538 00E0      		ldi r16,lo8(0)
 3998 153a 10E0      		ldi r17,hi8(0)
 3999 153c 20E0      		ldi r18,hlo8(0)
 4000 153e 30E0      		ldi r19,hhi8(0)
 4001 1540 0E94 0000 		call put_fat
 4002               	.LM462:
 4003 1544 8823      		tst r24
 4004               	.LVL285:
 4005 1546 01F4      		brne .L356
 4006               	.LM463:
 4007 1548 8E85      		ldd r24,Y+14
 4008 154a 9F85      		ldd r25,Y+15
 4009 154c A889      		ldd r26,Y+16
 4010 154e B989      		ldd r27,Y+17
 4011               	.LVL286:
 4012 1550 8F3F      		cpi r24,lo8(-1)
 4013 1552 2FEF      		ldi r18,hi8(-1)
 4014 1554 9207      		cpc r25,r18
 4015 1556 2FEF      		ldi r18,hlo8(-1)
 4016 1558 A207      		cpc r26,r18
 4017 155a 2FEF      		ldi r18,hhi8(-1)
 4018 155c B207      		cpc r27,r18
 4019 155e 01F0      		breq .L357
 4020               	.LM464:
 4021 1560 0196      		adiw r24,1
 4022 1562 A11D      		adc r26,__zero_reg__
 4023 1564 B11D      		adc r27,__zero_reg__
 4024 1566 8E87      		std Y+14,r24
 4025 1568 9F87      		std Y+15,r25
 4026 156a A88B      		std Y+16,r26
 4027 156c B98B      		std Y+17,r27
 4028               	.LM465:
 4029 156e 9D82      		std Y+5,r9
 4030               	.L357:
 4031 1570 8601      		movw r16,r12
 4032 1572 7501      		movw r14,r10
 4033 1574 00C0      		rjmp .L361
 4034               	.LVL287:
 4035               	.L360:
 4036 1576 9924      		clr r9
 4037 1578 9394      		inc r9
 4038               	.LVL288:
 4039               	.L361:
 4040               	.LM466:
 4041 157a 8A8D      		ldd r24,Y+26
 4042 157c 9B8D      		ldd r25,Y+27
 4043 157e AC8D      		ldd r26,Y+28
 4044 1580 BD8D      		ldd r27,Y+29
 4045 1582 E816      		cp r14,r24
 4046 1584 F906      		cpc r15,r25
 4047 1586 0A07      		cpc r16,r26
 4048 1588 1B07      		cpc r17,r27
 4049 158a 00F4      		brsh .+2
 4050 158c 00C0      		rjmp .L358
 4051 158e 00C0      		rjmp .L354
 4052               	.LVL289:
 4053               	.L352:
 4054 1590 82E0      		ldi r24,lo8(2)
 4055               	.LVL290:
 4056 1592 00C0      		rjmp .L356
 4057               	.LVL291:
 4058               	.L354:
 4059 1594 80E0      		ldi r24,lo8(0)
 4060               	.LVL292:
 4061               	.L356:
 4062               	.LVL293:
 4063               	/* epilogue start */
 4064               	.LM467:
 4065 1596 DF91      		pop r29
 4066 1598 CF91      		pop r28
 4067               	.LVL294:
 4068 159a 1F91      		pop r17
 4069 159c 0F91      		pop r16
 4070 159e FF90      		pop r15
 4071 15a0 EF90      		pop r14
 4072               	.LVL295:
 4073 15a2 DF90      		pop r13
 4074 15a4 CF90      		pop r12
 4075 15a6 BF90      		pop r11
 4076 15a8 AF90      		pop r10
 4077               	.LVL296:
 4078 15aa 9F90      		pop r9
 4079 15ac 0895      		ret
 4080               	.LFE65:
 4083               	create_chain:
 4084               	.LFB66:
 4085               	.LM468:
 4086               	.LVL297:
 4087 15ae 2F92      		push r2
 4088 15b0 3F92      		push r3
 4089 15b2 4F92      		push r4
 4090 15b4 5F92      		push r5
 4091 15b6 6F92      		push r6
 4092 15b8 7F92      		push r7
 4093 15ba 8F92      		push r8
 4094 15bc 9F92      		push r9
 4095 15be AF92      		push r10
 4096 15c0 BF92      		push r11
 4097 15c2 CF92      		push r12
 4098 15c4 DF92      		push r13
 4099 15c6 EF92      		push r14
 4100 15c8 FF92      		push r15
 4101 15ca 0F93      		push r16
 4102 15cc 1F93      		push r17
 4103 15ce DF93      		push r29
 4104 15d0 CF93      		push r28
 4105 15d2 00D0      		rcall .
 4106 15d4 0F92      		push __tmp_reg__
 4107 15d6 CDB7      		in r28,__SP_L__
 4108 15d8 DEB7      		in r29,__SP_H__
 4109               	/* prologue: function */
 4110               	/* frame size = 4 */
 4111 15da 1C01      		movw r2,r24
 4112 15dc 2A01      		movw r4,r20
 4113 15de 3B01      		movw r6,r22
 4114               	.LM469:
 4115 15e0 DC01      		movw r26,r24
 4116 15e2 5A96      		adiw r26,26
 4117 15e4 8D91      		ld r24,X+
 4118 15e6 9D91      		ld r25,X+
 4119 15e8 0D90      		ld __tmp_reg__,X+
 4120 15ea BC91      		ld r27,X
 4121 15ec A02D      		mov r26,__tmp_reg__
 4122               	.LVL298:
 4123 15ee 8983      		std Y+1,r24
 4124 15f0 9A83      		std Y+2,r25
 4125 15f2 AB83      		std Y+3,r26
 4126 15f4 BC83      		std Y+4,r27
 4127               	.LVL299:
 4128               	.LM470:
 4129 15f6 4115      		cp r20,__zero_reg__
 4130 15f8 5105      		cpc r21,__zero_reg__
 4131 15fa 6105      		cpc r22,__zero_reg__
 4132 15fc 7105      		cpc r23,__zero_reg__
 4133 15fe 01F4      		brne .L363
 4134               	.LM471:
 4135 1600 F101      		movw r30,r2
 4136 1602 8284      		ldd r8,Z+10
 4137 1604 9384      		ldd r9,Z+11
 4138 1606 A484      		ldd r10,Z+12
 4139 1608 B584      		ldd r11,Z+13
 4140               	.LVL300:
 4141               	.LM472:
 4142 160a 8114      		cp r8,__zero_reg__
 4143 160c 9104      		cpc r9,__zero_reg__
 4144 160e A104      		cpc r10,__zero_reg__
 4145 1610 B104      		cpc r11,__zero_reg__
 4146 1612 01F0      		breq .L364
 4147 1614 8816      		cp r8,r24
 4148 1616 9906      		cpc r9,r25
 4149 1618 AA06      		cpc r10,r26
 4150 161a BB06      		cpc r11,r27
 4151 161c 00F4      		brsh .L364
 4152 161e 00C0      		rjmp .L365
 4153               	.LVL301:
 4154               	.L363:
 4155               	.LM473:
 4156 1620 C101      		movw r24,r2
 4157 1622 0E94 0000 		call get_fat
 4158               	.LVL302:
 4159 1626 9B01      		movw r18,r22
 4160 1628 AC01      		movw r20,r24
 4161               	.LVL303:
 4162               	.LM474:
 4163 162a 6230      		cpi r22,lo8(2)
 4164 162c 7105      		cpc r23,__zero_reg__
 4165 162e 8105      		cpc r24,__zero_reg__
 4166 1630 9105      		cpc r25,__zero_reg__
 4167 1632 00F4      		brsh .L366
 4168               	.LVL304:
 4169 1634 21E0      		ldi r18,lo8(1)
 4170 1636 30E0      		ldi r19,hi8(1)
 4171 1638 40E0      		ldi r20,hlo8(1)
 4172 163a 50E0      		ldi r21,hhi8(1)
 4173               	.LVL305:
 4174 163c 00C0      		rjmp .L367
 4175               	.LVL306:
 4176               	.L366:
 4177               	.LM475:
 4178 163e 8981      		ldd r24,Y+1
 4179 1640 9A81      		ldd r25,Y+2
 4180 1642 AB81      		ldd r26,Y+3
 4181 1644 BC81      		ldd r27,Y+4
 4182 1646 2817      		cp r18,r24
 4183 1648 3907      		cpc r19,r25
 4184 164a 4A07      		cpc r20,r26
 4185 164c 5B07      		cpc r21,r27
 4186 164e 00F4      		brsh .+2
 4187 1650 00C0      		rjmp .L367
 4188               	.LVL307:
 4189 1652 5301      		movw r10,r6
 4190 1654 4201      		movw r8,r4
 4191               	.LVL308:
 4192 1656 00C0      		rjmp .L365
 4193               	.LVL309:
 4194               	.L364:
 4195 1658 B1E0      		ldi r27,lo8(1)
 4196 165a 8B2E      		mov r8,r27
 4197 165c 912C      		mov r9,__zero_reg__
 4198 165e A12C      		mov r10,__zero_reg__
 4199 1660 B12C      		mov r11,__zero_reg__
 4200               	.LVL310:
 4201               	.L365:
 4202 1662 7501      		movw r14,r10
 4203 1664 6401      		movw r12,r8
 4204               	.LVL311:
 4205               	.L371:
 4206               	.LM476:
 4207 1666 0894      		sec
 4208 1668 C11C      		adc r12,__zero_reg__
 4209 166a D11C      		adc r13,__zero_reg__
 4210 166c E11C      		adc r14,__zero_reg__
 4211 166e F11C      		adc r15,__zero_reg__
 4212               	.LM477:
 4213 1670 8981      		ldd r24,Y+1
 4214 1672 9A81      		ldd r25,Y+2
 4215 1674 AB81      		ldd r26,Y+3
 4216 1676 BC81      		ldd r27,Y+4
 4217 1678 C816      		cp r12,r24
 4218 167a D906      		cpc r13,r25
 4219 167c EA06      		cpc r14,r26
 4220 167e FB06      		cpc r15,r27
 4221 1680 00F0      		brlo .L368
 4222               	.LM478:
 4223 1682 92E0      		ldi r25,lo8(2)
 4224 1684 8916      		cp r8,r25
 4225 1686 9104      		cpc r9,__zero_reg__
 4226 1688 A104      		cpc r10,__zero_reg__
 4227 168a B104      		cpc r11,__zero_reg__
 4228 168c 00F4      		brsh .+2
 4229 168e 00C0      		rjmp .L369
 4230 1690 A2E0      		ldi r26,lo8(2)
 4231 1692 CA2E      		mov r12,r26
 4232 1694 D12C      		mov r13,__zero_reg__
 4233 1696 E12C      		mov r14,__zero_reg__
 4234 1698 F12C      		mov r15,__zero_reg__
 4235               	.L368:
 4236               	.LM479:
 4237 169a C101      		movw r24,r2
 4238 169c B701      		movw r22,r14
 4239 169e A601      		movw r20,r12
 4240 16a0 0E94 0000 		call get_fat
 4241               	.LVL312:
 4242 16a4 9B01      		movw r18,r22
 4243 16a6 AC01      		movw r20,r24
 4244               	.LVL313:
 4245               	.LM480:
 4246 16a8 6115      		cp r22,__zero_reg__
 4247 16aa 7105      		cpc r23,__zero_reg__
 4248 16ac 8105      		cpc r24,__zero_reg__
 4249 16ae 9105      		cpc r25,__zero_reg__
 4250 16b0 01F0      		breq .L370
 4251               	.LVL314:
 4252               	.LM481:
 4253 16b2 6F3F      		cpi r22,lo8(-1)
 4254 16b4 AFEF      		ldi r26,hi8(-1)
 4255 16b6 7A07      		cpc r23,r26
 4256 16b8 AFEF      		ldi r26,hlo8(-1)
 4257 16ba 8A07      		cpc r24,r26
 4258 16bc AFEF      		ldi r26,hhi8(-1)
 4259 16be 9A07      		cpc r25,r26
 4260 16c0 01F4      		brne .+2
 4261 16c2 00C0      		rjmp .L367
 4262 16c4 6130      		cpi r22,lo8(1)
 4263 16c6 7105      		cpc r23,__zero_reg__
 4264 16c8 8105      		cpc r24,__zero_reg__
 4265 16ca 9105      		cpc r25,__zero_reg__
 4266 16cc 01F4      		brne .+2
 4267 16ce 00C0      		rjmp .L367
 4268               	.LM482:
 4269 16d0 C814      		cp r12,r8
 4270 16d2 D904      		cpc r13,r9
 4271 16d4 EA04      		cpc r14,r10
 4272 16d6 FB04      		cpc r15,r11
 4273 16d8 01F4      		brne .L371
 4274 16da 00C0      		rjmp .L369
 4275               	.L370:
 4276 16dc BC2C      		mov r11,r12
 4277 16de AD2C      		mov r10,r13
 4278               	.LVL315:
 4279 16e0 9E2C      		mov r9,r14
 4280               	.LVL316:
 4281 16e2 8F2C      		mov r8,r15
 4282               	.LVL317:
 4283               	.LM483:
 4284 16e4 C101      		movw r24,r2
 4285 16e6 A601      		movw r20,r12
 4286               	.LVL318:
 4287 16e8 B701      		movw r22,r14
 4288               	.LVL319:
 4289 16ea 0FEF      		ldi r16,lo8(268435455)
 4290 16ec 1FEF      		ldi r17,hi8(268435455)
 4291 16ee 2FEF      		ldi r18,hlo8(268435455)
 4292 16f0 3FE0      		ldi r19,hhi8(268435455)
 4293 16f2 0E94 0000 		call put_fat
 4294               	.LVL320:
 4295 16f6 8823      		tst r24
 4296 16f8 01F4      		brne .L372
 4297               	.LVL321:
 4298               	.LM484:
 4299 16fa 4114      		cp r4,__zero_reg__
 4300 16fc 5104      		cpc r5,__zero_reg__
 4301 16fe 6104      		cpc r6,__zero_reg__
 4302 1700 7104      		cpc r7,__zero_reg__
 4303 1702 01F0      		breq .L373
 4304               	.LM485:
 4305 1704 C101      		movw r24,r2
 4306 1706 B301      		movw r22,r6
 4307 1708 A201      		movw r20,r4
 4308 170a 8601      		movw r16,r12
 4309 170c 9701      		movw r18,r14
 4310 170e 0E94 0000 		call put_fat
 4311 1712 8823      		tst r24
 4312 1714 01F4      		brne .L372
 4313               	.L373:
 4314               	.LM486:
 4315 1716 F101      		movw r30,r2
 4316 1718 B286      		std Z+10,r11
 4317 171a A386      		std Z+11,r10
 4318 171c 9486      		std Z+12,r9
 4319 171e 8586      		std Z+13,r8
 4320               	.LM487:
 4321 1720 8685      		ldd r24,Z+14
 4322 1722 9785      		ldd r25,Z+15
 4323 1724 A089      		ldd r26,Z+16
 4324 1726 B189      		ldd r27,Z+17
 4325 1728 8F3F      		cpi r24,lo8(-1)
 4326 172a FFEF      		ldi r31,hi8(-1)
 4327 172c 9F07      		cpc r25,r31
 4328 172e FFEF      		ldi r31,hlo8(-1)
 4329 1730 AF07      		cpc r26,r31
 4330 1732 FFEF      		ldi r31,hhi8(-1)
 4331 1734 BF07      		cpc r27,r31
 4332 1736 01F0      		breq .L376
 4333               	.L374:
 4334               	.LM488:
 4335 1738 0197      		sbiw r24,1
 4336 173a A109      		sbc r26,__zero_reg__
 4337 173c B109      		sbc r27,__zero_reg__
 4338 173e F101      		movw r30,r2
 4339 1740 8687      		std Z+14,r24
 4340 1742 9787      		std Z+15,r25
 4341 1744 A08B      		std Z+16,r26
 4342 1746 B18B      		std Z+17,r27
 4343               	.LM489:
 4344 1748 81E0      		ldi r24,lo8(1)
 4345 174a 8583      		std Z+5,r24
 4346               	.L376:
 4347 174c A701      		movw r20,r14
 4348 174e 9601      		movw r18,r12
 4349               	.LVL322:
 4350 1750 00C0      		rjmp .L367
 4351               	.LVL323:
 4352               	.L369:
 4353 1752 20E0      		ldi r18,lo8(0)
 4354 1754 30E0      		ldi r19,hi8(0)
 4355 1756 40E0      		ldi r20,hlo8(0)
 4356 1758 50E0      		ldi r21,hhi8(0)
 4357 175a 00C0      		rjmp .L367
 4358               	.LVL324:
 4359               	.L372:
 4360 175c 2FEF      		ldi r18,lo8(-1)
 4361 175e 3FEF      		ldi r19,hi8(-1)
 4362 1760 4FEF      		ldi r20,hlo8(-1)
 4363 1762 5FEF      		ldi r21,hhi8(-1)
 4364               	.LVL325:
 4365               	.L367:
 4366               	.LM490:
 4367 1764 B901      		movw r22,r18
 4368               	.LVL326:
 4369 1766 CA01      		movw r24,r20
 4370               	/* epilogue start */
 4371 1768 2496      		adiw r28,4
 4372 176a CDBF      		out __SP_L__,r28
 4373 176c DEBF      		out __SP_H__,r29
 4374 176e CF91      		pop r28
 4375 1770 DF91      		pop r29
 4376 1772 1F91      		pop r17
 4377 1774 0F91      		pop r16
 4378 1776 FF90      		pop r15
 4379 1778 EF90      		pop r14
 4380 177a DF90      		pop r13
 4381 177c CF90      		pop r12
 4382               	.LVL327:
 4383 177e BF90      		pop r11
 4384               	.LVL328:
 4385 1780 AF90      		pop r10
 4386               	.LVL329:
 4387 1782 9F90      		pop r9
 4388               	.LVL330:
 4389 1784 8F90      		pop r8
 4390               	.LVL331:
 4391 1786 7F90      		pop r7
 4392 1788 6F90      		pop r6
 4393 178a 5F90      		pop r5
 4394 178c 4F90      		pop r4
 4395               	.LVL332:
 4396 178e 3F90      		pop r3
 4397 1790 2F90      		pop r2
 4398               	.LVL333:
 4399 1792 0895      		ret
 4400               	.LFE66:
 4402               	.global	clust2sect
 4404               	clust2sect:
 4405               	.LFB67:
 4406               	.LM491:
 4407               	.LVL334:
 4408 1794 EF92      		push r14
 4409 1796 FF92      		push r15
 4410 1798 0F93      		push r16
 4411 179a 1F93      		push r17
 4412 179c CF93      		push r28
 4413 179e DF93      		push r29
 4414               	/* prologue: function */
 4415               	/* frame size = 0 */
 4416 17a0 EC01      		movw r28,r24
 4417 17a2 7A01      		movw r14,r20
 4418 17a4 8B01      		movw r16,r22
 4419               	.LM492:
 4420 17a6 8EEF      		ldi r24,lo8(-2)
 4421 17a8 9FEF      		ldi r25,hi8(-2)
 4422 17aa AFEF      		ldi r26,hlo8(-2)
 4423 17ac BFEF      		ldi r27,hhi8(-2)
 4424               	.LVL335:
 4425 17ae E80E      		add r14,r24
 4426 17b0 F91E      		adc r15,r25
 4427 17b2 0A1F      		adc r16,r26
 4428 17b4 1B1F      		adc r17,r27
 4429               	.LVL336:
 4430               	.LM493:
 4431 17b6 8A8D      		ldd r24,Y+26
 4432 17b8 9B8D      		ldd r25,Y+27
 4433 17ba AC8D      		ldd r26,Y+28
 4434 17bc BD8D      		ldd r27,Y+29
 4435 17be 0297      		sbiw r24,2
 4436 17c0 A109      		sbc r26,__zero_reg__
 4437 17c2 B109      		sbc r27,__zero_reg__
 4438 17c4 E816      		cp r14,r24
 4439 17c6 F906      		cpc r15,r25
 4440 17c8 0A07      		cpc r16,r26
 4441 17ca 1B07      		cpc r17,r27
 4442 17cc 00F0      		brlo .L378
 4443 17ce 20E0      		ldi r18,lo8(0)
 4444 17d0 30E0      		ldi r19,hi8(0)
 4445 17d2 40E0      		ldi r20,hlo8(0)
 4446 17d4 50E0      		ldi r21,hhi8(0)
 4447 17d6 00C0      		rjmp .L379
 4448               	.L378:
 4449               	.LM494:
 4450 17d8 2A81      		ldd r18,Y+2
 4451 17da 30E0      		ldi r19,lo8(0)
 4452 17dc 40E0      		ldi r20,lo8(0)
 4453 17de 50E0      		ldi r21,hi8(0)
 4454 17e0 C801      		movw r24,r16
 4455 17e2 B701      		movw r22,r14
 4456 17e4 0E94 0000 		call __mulsi3
 4457 17e8 9B01      		movw r18,r22
 4458 17ea AC01      		movw r20,r24
 4459 17ec 8EA1      		ldd r24,Y+38
 4460 17ee 9FA1      		ldd r25,Y+39
 4461 17f0 A8A5      		ldd r26,Y+40
 4462 17f2 B9A5      		ldd r27,Y+41
 4463 17f4 280F      		add r18,r24
 4464 17f6 391F      		adc r19,r25
 4465 17f8 4A1F      		adc r20,r26
 4466 17fa 5B1F      		adc r21,r27
 4467               	.L379:
 4468               	.LM495:
 4469 17fc B901      		movw r22,r18
 4470 17fe CA01      		movw r24,r20
 4471               	/* epilogue start */
 4472 1800 DF91      		pop r29
 4473 1802 CF91      		pop r28
 4474               	.LVL337:
 4475 1804 1F91      		pop r17
 4476 1806 0F91      		pop r16
 4477 1808 FF90      		pop r15
 4478 180a EF90      		pop r14
 4479               	.LVL338:
 4480 180c 0895      		ret
 4481               	.LFE67:
 4484               	dir_seek:
 4485               	.LFB68:
 4486               	.LM496:
 4487               	.LVL339:
 4488 180e AF92      		push r10
 4489 1810 BF92      		push r11
 4490 1812 CF92      		push r12
 4491 1814 DF92      		push r13
 4492 1816 EF92      		push r14
 4493 1818 FF92      		push r15
 4494 181a 0F93      		push r16
 4495 181c 1F93      		push r17
 4496 181e CF93      		push r28
 4497 1820 DF93      		push r29
 4498               	/* prologue: function */
 4499               	/* frame size = 0 */
 4500 1822 5C01      		movw r10,r24
 4501 1824 6B01      		movw r12,r22
 4502               	.LM497:
 4503 1826 DC01      		movw r26,r24
 4504 1828 1496      		adiw r26,4
 4505 182a 6D93      		st X+,r22
 4506 182c 7C93      		st X,r23
 4507 182e 1597      		sbiw r26,4+1
 4508               	.LM498:
 4509 1830 1696      		adiw r26,6
 4510 1832 4D91      		ld r20,X+
 4511 1834 5D91      		ld r21,X+
 4512 1836 6D91      		ld r22,X+
 4513 1838 7C91      		ld r23,X
 4514 183a 1997      		sbiw r26,6+3
 4515               	.LVL340:
 4516               	.LM499:
 4517 183c 4130      		cpi r20,lo8(1)
 4518 183e 5105      		cpc r21,__zero_reg__
 4519 1840 6105      		cpc r22,__zero_reg__
 4520 1842 7105      		cpc r23,__zero_reg__
 4521 1844 01F4      		brne .+2
 4522 1846 00C0      		rjmp .L382
 4523 1848 ED91      		ld r30,X+
 4524 184a FC91      		ld r31,X
 4525 184c 828D      		ldd r24,Z+26
 4526 184e 938D      		ldd r25,Z+27
 4527 1850 A48D      		ldd r26,Z+28
 4528 1852 B58D      		ldd r27,Z+29
 4529               	.LVL341:
 4530 1854 4817      		cp r20,r24
 4531 1856 5907      		cpc r21,r25
 4532 1858 6A07      		cpc r22,r26
 4533 185a 7B07      		cpc r23,r27
 4534 185c 00F0      		brlo .+2
 4535 185e 00C0      		rjmp .L382
 4536               	.LM500:
 4537 1860 4115      		cp r20,__zero_reg__
 4538 1862 5105      		cpc r21,__zero_reg__
 4539 1864 6105      		cpc r22,__zero_reg__
 4540 1866 7105      		cpc r23,__zero_reg__
 4541 1868 01F4      		brne .L383
 4542 186a 8081      		ld r24,Z
 4543 186c 8330      		cpi r24,lo8(3)
 4544 186e 01F4      		brne .L384
 4545               	.LM501:
 4546 1870 42A1      		ldd r20,Z+34
 4547 1872 53A1      		ldd r21,Z+35
 4548 1874 64A1      		ldd r22,Z+36
 4549 1876 75A1      		ldd r23,Z+37
 4550               	.LM502:
 4551 1878 4115      		cp r20,__zero_reg__
 4552 187a 5105      		cpc r21,__zero_reg__
 4553 187c 6105      		cpc r22,__zero_reg__
 4554 187e 7105      		cpc r23,__zero_reg__
 4555 1880 01F4      		brne .L383
 4556               	.L384:
 4557               	.LM503:
 4558 1882 F501      		movw r30,r10
 4559 1884 1286      		std Z+10,__zero_reg__
 4560 1886 1386      		std Z+11,__zero_reg__
 4561 1888 1486      		std Z+12,__zero_reg__
 4562 188a 1586      		std Z+13,__zero_reg__
 4563               	.LM504:
 4564 188c 0190      		ld __tmp_reg__,Z+
 4565 188e F081      		ld r31,Z
 4566 1890 E02D      		mov r30,__tmp_reg__
 4567 1892 8085      		ldd r24,Z+8
 4568 1894 9185      		ldd r25,Z+9
 4569 1896 C816      		cp r12,r24
 4570 1898 D906      		cpc r13,r25
 4571 189a 00F0      		brlo .+2
 4572 189c 00C0      		rjmp .L382
 4573               	.LVL342:
 4574               	.LM505:
 4575 189e C601      		movw r24,r12
 4576 18a0 24E0      		ldi r18,4
 4577 18a2 9695      	1:	lsr r25
 4578 18a4 8795      		ror r24
 4579 18a6 2A95      		dec r18
 4580 18a8 01F4      		brne 1b
 4581 18aa A0E0      		ldi r26,lo8(0)
 4582 18ac B0E0      		ldi r27,hi8(0)
 4583 18ae 22A1      		ldd r18,Z+34
 4584 18b0 33A1      		ldd r19,Z+35
 4585 18b2 44A1      		ldd r20,Z+36
 4586 18b4 55A1      		ldd r21,Z+37
 4587 18b6 820F      		add r24,r18
 4588 18b8 931F      		adc r25,r19
 4589 18ba A41F      		adc r26,r20
 4590 18bc B51F      		adc r27,r21
 4591 18be F501      		movw r30,r10
 4592 18c0 8687      		std Z+14,r24
 4593 18c2 9787      		std Z+15,r25
 4594 18c4 A08B      		std Z+16,r26
 4595 18c6 B18B      		std Z+17,r27
 4596 18c8 00C0      		rjmp .L385
 4597               	.LVL343:
 4598               	.L383:
 4599               	.LM506:
 4600 18ca 8281      		ldd r24,Z+2
 4601 18cc 082F      		mov r16,r24
 4602               	.LVL344:
 4603 18ce 10E0      		ldi r17,lo8(0)
 4604               	.LVL345:
 4605 18d0 94E0      		ldi r25,4
 4606 18d2 000F      	1:	lsl r16
 4607 18d4 111F      		rol r17
 4608 18d6 9A95      		dec r25
 4609 18d8 01F4      		brne 1b
 4610               	.LVL346:
 4611 18da 00C0      		rjmp .L386
 4612               	.LVL347:
 4613               	.L389:
 4614               	.LM507:
 4615 18dc CE01      		movw r24,r28
 4616 18de 0E94 0000 		call get_fat
 4617               	.LVL348:
 4618 18e2 AB01      		movw r20,r22
 4619 18e4 BC01      		movw r22,r24
 4620               	.LVL349:
 4621               	.LM508:
 4622 18e6 4F3F      		cpi r20,lo8(-1)
 4623 18e8 FFEF      		ldi r31,hi8(-1)
 4624 18ea 5F07      		cpc r21,r31
 4625 18ec FFEF      		ldi r31,hlo8(-1)
 4626 18ee 6F07      		cpc r22,r31
 4627 18f0 FFEF      		ldi r31,hhi8(-1)
 4628 18f2 7F07      		cpc r23,r31
 4629 18f4 01F4      		brne .L387
 4630 18f6 81E0      		ldi r24,lo8(1)
 4631 18f8 00C0      		rjmp .L388
 4632               	.L387:
 4633               	.LM509:
 4634 18fa 4230      		cpi r20,lo8(2)
 4635 18fc 5105      		cpc r21,__zero_reg__
 4636 18fe 6105      		cpc r22,__zero_reg__
 4637 1900 7105      		cpc r23,__zero_reg__
 4638 1902 00F4      		brsh .+2
 4639 1904 00C0      		rjmp .L382
 4640 1906 D501      		movw r26,r10
 4641 1908 ED91      		ld r30,X+
 4642 190a FC91      		ld r31,X
 4643 190c 828D      		ldd r24,Z+26
 4644 190e 938D      		ldd r25,Z+27
 4645 1910 A48D      		ldd r26,Z+28
 4646 1912 B58D      		ldd r27,Z+29
 4647 1914 4817      		cp r20,r24
 4648 1916 5907      		cpc r21,r25
 4649 1918 6A07      		cpc r22,r26
 4650 191a 7B07      		cpc r23,r27
 4651 191c 00F0      		brlo .+2
 4652 191e 00C0      		rjmp .L382
 4653               	.LM510:
 4654 1920 C01A      		sub r12,r16
 4655 1922 D10A      		sbc r13,r17
 4656               	.LVL350:
 4657               	.L386:
 4658 1924 F501      		movw r30,r10
 4659 1926 C081      		ld r28,Z
 4660 1928 D181      		ldd r29,Z+1
 4661               	.LM511:
 4662 192a C016      		cp r12,r16
 4663 192c D106      		cpc r13,r17
 4664 192e 00F4      		brsh .L389
 4665               	.LM512:
 4666 1930 D501      		movw r26,r10
 4667 1932 1A96      		adiw r26,10
 4668 1934 4D93      		st X+,r20
 4669 1936 5D93      		st X+,r21
 4670 1938 6D93      		st X+,r22
 4671 193a 7C93      		st X,r23
 4672 193c 1D97      		sbiw r26,10+3
 4673               	.LBB841:
 4674               	.LBB842:
 4675               	.LM513:
 4676 193e 8EEF      		ldi r24,lo8(-2)
 4677 1940 E82E      		mov r14,r24
 4678 1942 8FEF      		ldi r24,hi8(-2)
 4679 1944 F82E      		mov r15,r24
 4680 1946 8FEF      		ldi r24,hlo8(-2)
 4681 1948 082F      		mov r16,r24
 4682 194a 8FEF      		ldi r24,hhi8(-2)
 4683 194c 182F      		mov r17,r24
 4684               	.LVL351:
 4685 194e E40E      		add r14,r20
 4686 1950 F51E      		adc r15,r21
 4687 1952 061F      		adc r16,r22
 4688 1954 171F      		adc r17,r23
 4689               	.LM514:
 4690 1956 8A8D      		ldd r24,Y+26
 4691 1958 9B8D      		ldd r25,Y+27
 4692 195a AC8D      		ldd r26,Y+28
 4693 195c BD8D      		ldd r27,Y+29
 4694 195e 0297      		sbiw r24,2
 4695 1960 A109      		sbc r26,__zero_reg__
 4696 1962 B109      		sbc r27,__zero_reg__
 4697 1964 E816      		cp r14,r24
 4698 1966 F906      		cpc r15,r25
 4699 1968 0A07      		cpc r16,r26
 4700 196a 1B07      		cpc r17,r27
 4701 196c 00F0      		brlo .L390
 4702 196e 20E0      		ldi r18,lo8(0)
 4703 1970 30E0      		ldi r19,hi8(0)
 4704 1972 40E0      		ldi r20,hlo8(0)
 4705 1974 50E0      		ldi r21,hhi8(0)
 4706 1976 00C0      		rjmp .L391
 4707               	.L390:
 4708               	.LM515:
 4709 1978 2A81      		ldd r18,Y+2
 4710 197a 30E0      		ldi r19,lo8(0)
 4711 197c 40E0      		ldi r20,lo8(0)
 4712 197e 50E0      		ldi r21,hi8(0)
 4713               	.LVL352:
 4714 1980 C801      		movw r24,r16
 4715 1982 B701      		movw r22,r14
 4716 1984 0E94 0000 		call __mulsi3
 4717 1988 9B01      		movw r18,r22
 4718 198a AC01      		movw r20,r24
 4719 198c 8EA1      		ldd r24,Y+38
 4720 198e 9FA1      		ldd r25,Y+39
 4721 1990 A8A5      		ldd r26,Y+40
 4722 1992 B9A5      		ldd r27,Y+41
 4723 1994 280F      		add r18,r24
 4724 1996 391F      		adc r19,r25
 4725 1998 4A1F      		adc r20,r26
 4726 199a 5B1F      		adc r21,r27
 4727               	.LVL353:
 4728               	.L391:
 4729               	.LBE842:
 4730               	.LBE841:
 4731               	.LM516:
 4732 199c C601      		movw r24,r12
 4733 199e 04E0      		ldi r16,4
 4734 19a0 9695      	1:	lsr r25
 4735 19a2 8795      		ror r24
 4736 19a4 0A95      		dec r16
 4737 19a6 01F4      		brne 1b
 4738               	.LVL354:
 4739 19a8 A0E0      		ldi r26,lo8(0)
 4740 19aa B0E0      		ldi r27,hi8(0)
 4741 19ac 280F      		add r18,r24
 4742 19ae 391F      		adc r19,r25
 4743 19b0 4A1F      		adc r20,r26
 4744 19b2 5B1F      		adc r21,r27
 4745 19b4 F501      		movw r30,r10
 4746 19b6 2687      		std Z+14,r18
 4747 19b8 3787      		std Z+15,r19
 4748 19ba 408B      		std Z+16,r20
 4749 19bc 518B      		std Z+17,r21
 4750               	.L385:
 4751               	.LM517:
 4752 19be FFE0      		ldi r31,lo8(15)
 4753 19c0 CF22      		and r12,r31
 4754 19c2 DD24      		clr r13
 4755 19c4 15E0      		ldi r17,5
 4756 19c6 CC0C      	1:	lsl r12
 4757 19c8 DD1C      		rol r13
 4758 19ca 1A95      		dec r17
 4759 19cc 01F4      		brne 1b
 4760               	.LVL355:
 4761 19ce 8EE2      		ldi r24,lo8(46)
 4762 19d0 90E0      		ldi r25,hi8(46)
 4763 19d2 C80E      		add r12,r24
 4764 19d4 D91E      		adc r13,r25
 4765 19d6 D501      		movw r26,r10
 4766 19d8 8D91      		ld r24,X+
 4767 19da 9C91      		ld r25,X
 4768 19dc 1197      		sbiw r26,1
 4769 19de 8C0D      		add r24,r12
 4770 19e0 9D1D      		adc r25,r13
 4771 19e2 5296      		adiw r26,18
 4772 19e4 8D93      		st X+,r24
 4773 19e6 9C93      		st X,r25
 4774 19e8 5397      		sbiw r26,18+1
 4775 19ea 80E0      		ldi r24,lo8(0)
 4776 19ec 00C0      		rjmp .L388
 4777               	.LVL356:
 4778               	.L382:
 4779               	.LM518:
 4780 19ee 82E0      		ldi r24,lo8(2)
 4781               	.LVL357:
 4782               	.L388:
 4783               	/* epilogue start */
 4784               	.LM519:
 4785 19f0 DF91      		pop r29
 4786 19f2 CF91      		pop r28
 4787 19f4 1F91      		pop r17
 4788               	.LVL358:
 4789 19f6 0F91      		pop r16
 4790               	.LVL359:
 4791 19f8 FF90      		pop r15
 4792 19fa EF90      		pop r14
 4793               	.LVL360:
 4794 19fc DF90      		pop r13
 4795 19fe CF90      		pop r12
 4796               	.LVL361:
 4797 1a00 BF90      		pop r11
 4798 1a02 AF90      		pop r10
 4799               	.LVL362:
 4800 1a04 0895      		ret
 4801               	.LFE68:
 4804               	dir_next:
 4805               	.LFB69:
 4806               	.LM520:
 4807               	.LVL363:
 4808 1a06 4F92      		push r4
 4809 1a08 5F92      		push r5
 4810 1a0a 6F92      		push r6
 4811 1a0c 7F92      		push r7
 4812 1a0e 8F92      		push r8
 4813 1a10 9F92      		push r9
 4814 1a12 AF92      		push r10
 4815 1a14 BF92      		push r11
 4816 1a16 CF92      		push r12
 4817 1a18 DF92      		push r13
 4818 1a1a EF92      		push r14
 4819 1a1c FF92      		push r15
 4820 1a1e 0F93      		push r16
 4821 1a20 1F93      		push r17
 4822 1a22 CF93      		push r28
 4823 1a24 DF93      		push r29
 4824               	/* prologue: function */
 4825               	/* frame size = 0 */
 4826 1a26 EC01      		movw r28,r24
 4827 1a28 D62E      		mov r13,r22
 4828               	.LM521:
 4829 1a2a 6C80      		ldd r6,Y+4
 4830 1a2c 7D80      		ldd r7,Y+5
 4831               	.LVL364:
 4832 1a2e 0894      		sec
 4833 1a30 611C      		adc r6,__zero_reg__
 4834 1a32 711C      		adc r7,__zero_reg__
 4835               	.LM522:
 4836 1a34 6114      		cp r6,__zero_reg__
 4837 1a36 7104      		cpc r7,__zero_reg__
 4838 1a38 01F4      		brne .+2
 4839 1a3a 00C0      		rjmp .L394
 4840               	.LVL365:
 4841 1a3c 8E85      		ldd r24,Y+14
 4842 1a3e 9F85      		ldd r25,Y+15
 4843 1a40 A889      		ldd r26,Y+16
 4844 1a42 B989      		ldd r27,Y+17
 4845 1a44 0097      		sbiw r24,0
 4846 1a46 A105      		cpc r26,__zero_reg__
 4847 1a48 B105      		cpc r27,__zero_reg__
 4848 1a4a 01F4      		brne .+2
 4849 1a4c 00C0      		rjmp .L394
 4850               	.LM523:
 4851 1a4e 1FE0      		ldi r17,lo8(15)
 4852 1a50 412E      		mov r4,r17
 4853 1a52 512C      		mov r5,__zero_reg__
 4854 1a54 4620      		and r4,r6
 4855 1a56 5720      		and r5,r7
 4856 1a58 4114      		cp r4,__zero_reg__
 4857 1a5a 5104      		cpc r5,__zero_reg__
 4858 1a5c 01F0      		breq .+2
 4859 1a5e 00C0      		rjmp .L395
 4860               	.LM524:
 4861 1a60 0196      		adiw r24,1
 4862 1a62 A11D      		adc r26,__zero_reg__
 4863 1a64 B11D      		adc r27,__zero_reg__
 4864 1a66 8E87      		std Y+14,r24
 4865 1a68 9F87      		std Y+15,r25
 4866 1a6a A88B      		std Y+16,r26
 4867 1a6c B98B      		std Y+17,r27
 4868               	.LM525:
 4869 1a6e 4A85      		ldd r20,Y+10
 4870 1a70 5B85      		ldd r21,Y+11
 4871 1a72 6C85      		ldd r22,Y+12
 4872 1a74 7D85      		ldd r23,Y+13
 4873 1a76 E881      		ld r30,Y
 4874 1a78 F981      		ldd r31,Y+1
 4875 1a7a 4115      		cp r20,__zero_reg__
 4876 1a7c 5105      		cpc r21,__zero_reg__
 4877 1a7e 6105      		cpc r22,__zero_reg__
 4878 1a80 7105      		cpc r23,__zero_reg__
 4879 1a82 01F4      		brne .L396
 4880               	.LM526:
 4881 1a84 8085      		ldd r24,Z+8
 4882 1a86 9185      		ldd r25,Z+9
 4883 1a88 6816      		cp r6,r24
 4884 1a8a 7906      		cpc r7,r25
 4885 1a8c 00F4      		brsh .+2
 4886 1a8e 00C0      		rjmp .L395
 4887 1a90 00C0      		rjmp .L394
 4888               	.L396:
 4889               	.LM527:
 4890 1a92 8281      		ldd r24,Z+2
 4891 1a94 90E0      		ldi r25,lo8(0)
 4892 1a96 0197      		sbiw r24,1
 4893 1a98 9301      		movw r18,r6
 4894 1a9a A4E0      		ldi r26,4
 4895 1a9c 3695      	1:	lsr r19
 4896 1a9e 2795      		ror r18
 4897 1aa0 AA95      		dec r26
 4898 1aa2 01F4      		brne 1b
 4899 1aa4 8223      		and r24,r18
 4900 1aa6 9323      		and r25,r19
 4901 1aa8 892B      		or r24,r25
 4902 1aaa 01F0      		breq .+2
 4903 1aac 00C0      		rjmp .L395
 4904               	.LM528:
 4905 1aae CF01      		movw r24,r30
 4906 1ab0 0E94 0000 		call get_fat
 4907 1ab4 7B01      		movw r14,r22
 4908 1ab6 8C01      		movw r16,r24
 4909               	.LVL366:
 4910               	.LM529:
 4911 1ab8 6230      		cpi r22,lo8(2)
 4912 1aba 7105      		cpc r23,__zero_reg__
 4913 1abc 8105      		cpc r24,__zero_reg__
 4914 1abe 9105      		cpc r25,__zero_reg__
 4915 1ac0 00F4      		brsh .+2
 4916 1ac2 00C0      		rjmp .L397
 4917               	.LVL367:
 4918               	.LM530:
 4919 1ac4 8FEF      		ldi r24,lo8(-1)
 4920 1ac6 E816      		cp r14,r24
 4921 1ac8 8FEF      		ldi r24,hi8(-1)
 4922 1aca F806      		cpc r15,r24
 4923 1acc 8FEF      		ldi r24,hlo8(-1)
 4924 1ace 0807      		cpc r16,r24
 4925 1ad0 8FEF      		ldi r24,hhi8(-1)
 4926 1ad2 1807      		cpc r17,r24
 4927 1ad4 01F4      		brne .+2
 4928 1ad6 00C0      		rjmp .L398
 4929               	.LVL368:
 4930               	.LM531:
 4931 1ad8 E881      		ld r30,Y
 4932 1ada F981      		ldd r31,Y+1
 4933 1adc 828D      		ldd r24,Z+26
 4934 1ade 938D      		ldd r25,Z+27
 4935 1ae0 A48D      		ldd r26,Z+28
 4936 1ae2 B58D      		ldd r27,Z+29
 4937 1ae4 E816      		cp r14,r24
 4938 1ae6 F906      		cpc r15,r25
 4939 1ae8 0A07      		cpc r16,r26
 4940 1aea 1B07      		cpc r17,r27
 4941 1aec 00F4      		brsh .+2
 4942 1aee 00C0      		rjmp .L399
 4943               	.LBB843:
 4944               	.LM532:
 4945 1af0 DD20      		tst r13
 4946 1af2 01F4      		brne .+2
 4947 1af4 00C0      		rjmp .L394
 4948               	.LM533:
 4949 1af6 4A85      		ldd r20,Y+10
 4950 1af8 5B85      		ldd r21,Y+11
 4951 1afa 6C85      		ldd r22,Y+12
 4952 1afc 7D85      		ldd r23,Y+13
 4953 1afe CF01      		movw r24,r30
 4954 1b00 0E94 0000 		call create_chain
 4955 1b04 7B01      		movw r14,r22
 4956 1b06 8C01      		movw r16,r24
 4957               	.LM534:
 4958 1b08 6115      		cp r22,__zero_reg__
 4959 1b0a 7105      		cpc r23,__zero_reg__
 4960 1b0c 8105      		cpc r24,__zero_reg__
 4961 1b0e 9105      		cpc r25,__zero_reg__
 4962 1b10 01F4      		brne .L400
 4963               	.LVL369:
 4964 1b12 87E0      		ldi r24,lo8(7)
 4965 1b14 00C0      		rjmp .L401
 4966               	.L400:
 4967               	.LM535:
 4968 1b16 91E0      		ldi r25,lo8(1)
 4969 1b18 E916      		cp r14,r25
 4970 1b1a F104      		cpc r15,__zero_reg__
 4971 1b1c 0105      		cpc r16,__zero_reg__
 4972 1b1e 1105      		cpc r17,__zero_reg__
 4973 1b20 01F4      		brne .+2
 4974 1b22 00C0      		rjmp .L397
 4975               	.LVL370:
 4976               	.LM536:
 4977 1b24 AFEF      		ldi r26,lo8(-1)
 4978 1b26 EA16      		cp r14,r26
 4979 1b28 AFEF      		ldi r26,hi8(-1)
 4980 1b2a FA06      		cpc r15,r26
 4981 1b2c AFEF      		ldi r26,hlo8(-1)
 4982 1b2e 0A07      		cpc r16,r26
 4983 1b30 AFEF      		ldi r26,hhi8(-1)
 4984 1b32 1A07      		cpc r17,r26
 4985 1b34 01F4      		brne .+2
 4986 1b36 00C0      		rjmp .L398
 4987               	.LM537:
 4988 1b38 8881      		ld r24,Y
 4989 1b3a 9981      		ldd r25,Y+1
 4990 1b3c 40E0      		ldi r20,lo8(0)
 4991 1b3e 50E0      		ldi r21,hi8(0)
 4992 1b40 60E0      		ldi r22,hlo8(0)
 4993 1b42 70E0      		ldi r23,hhi8(0)
 4994 1b44 0E94 0000 		call move_window
 4995 1b48 8823      		tst r24
 4996 1b4a 01F0      		breq .+2
 4997 1b4c 00C0      		rjmp .L398
 4998               	.LBB844:
 4999               	.LBB845:
 5000               	.LM538:
 5001 1b4e E881      		ld r30,Y
 5002 1b50 F981      		ldd r31,Y+1
 5003               	.LVL371:
 5004 1b52 BE96      		adiw r30,46
 5005 1b54 80E0      		ldi r24,lo8(512)
 5006 1b56 92E0      		ldi r25,hi8(512)
 5007               	.LVL372:
 5008 1b58 00C0      		rjmp .L402
 5009               	.L403:
 5010               	.LM539:
 5011 1b5a 1192      		st Z+,__zero_reg__
 5012               	.L402:
 5013 1b5c 0197      		sbiw r24,1
 5014 1b5e BFEF      		ldi r27,hi8(-1)
 5015 1b60 8F3F      		cpi r24,lo8(-1)
 5016 1b62 9B07      		cpc r25,r27
 5017 1b64 01F4      		brne .L403
 5018               	.LBE845:
 5019               	.LBE844:
 5020               	.LM540:
 5021 1b66 8880      		ld r8,Y
 5022 1b68 9980      		ldd r9,Y+1
 5023               	.LBB846:
 5024               	.LBB847:
 5025               	.LM541:
 5026 1b6a 4EEF      		ldi r20,lo8(-2)
 5027 1b6c A42E      		mov r10,r20
 5028 1b6e 4FEF      		ldi r20,hi8(-2)
 5029 1b70 B42E      		mov r11,r20
 5030 1b72 4FEF      		ldi r20,hlo8(-2)
 5031 1b74 C42E      		mov r12,r20
 5032 1b76 4FEF      		ldi r20,hhi8(-2)
 5033 1b78 D42E      		mov r13,r20
 5034               	.LVL373:
 5035 1b7a AE0C      		add r10,r14
 5036 1b7c BF1C      		adc r11,r15
 5037 1b7e C01E      		adc r12,r16
 5038 1b80 D11E      		adc r13,r17
 5039               	.LM542:
 5040 1b82 F401      		movw r30,r8
 5041               	.LVL374:
 5042 1b84 828D      		ldd r24,Z+26
 5043 1b86 938D      		ldd r25,Z+27
 5044 1b88 A48D      		ldd r26,Z+28
 5045 1b8a B58D      		ldd r27,Z+29
 5046               	.LVL375:
 5047 1b8c 0297      		sbiw r24,2
 5048 1b8e A109      		sbc r26,__zero_reg__
 5049 1b90 B109      		sbc r27,__zero_reg__
 5050 1b92 A816      		cp r10,r24
 5051 1b94 B906      		cpc r11,r25
 5052 1b96 CA06      		cpc r12,r26
 5053 1b98 DB06      		cpc r13,r27
 5054 1b9a 00F0      		brlo .L404
 5055 1b9c 20E0      		ldi r18,lo8(0)
 5056 1b9e 30E0      		ldi r19,hi8(0)
 5057 1ba0 40E0      		ldi r20,hlo8(0)
 5058 1ba2 50E0      		ldi r21,hhi8(0)
 5059 1ba4 00C0      		rjmp .L405
 5060               	.L404:
 5061               	.LM543:
 5062 1ba6 D401      		movw r26,r8
 5063 1ba8 1296      		adiw r26,2
 5064 1baa 2C91      		ld r18,X
 5065 1bac 30E0      		ldi r19,lo8(0)
 5066 1bae 40E0      		ldi r20,lo8(0)
 5067 1bb0 50E0      		ldi r21,hi8(0)
 5068 1bb2 C601      		movw r24,r12
 5069 1bb4 B501      		movw r22,r10
 5070 1bb6 0E94 0000 		call __mulsi3
 5071 1bba 9B01      		movw r18,r22
 5072 1bbc AC01      		movw r20,r24
 5073 1bbe F401      		movw r30,r8
 5074 1bc0 86A1      		ldd r24,Z+38
 5075 1bc2 97A1      		ldd r25,Z+39
 5076 1bc4 A0A5      		ldd r26,Z+40
 5077 1bc6 B1A5      		ldd r27,Z+41
 5078 1bc8 280F      		add r18,r24
 5079 1bca 391F      		adc r19,r25
 5080 1bcc 4A1F      		adc r20,r26
 5081 1bce 5B1F      		adc r21,r27
 5082               	.L405:
 5083               	.LBE847:
 5084               	.LBE846:
 5085               	.LM544:
 5086 1bd0 D401      		movw r26,r8
 5087 1bd2 9A96      		adiw r26,42
 5088 1bd4 2D93      		st X+,r18
 5089 1bd6 3D93      		st X+,r19
 5090 1bd8 4D93      		st X+,r20
 5091 1bda 5C93      		st X,r21
 5092 1bdc 9D97      		sbiw r26,42+3
 5093 1bde DD24      		clr r13
 5094               	.LVL376:
 5095               	.LM545:
 5096 1be0 CC24      		clr r12
 5097 1be2 C394      		inc r12
 5098 1be4 00C0      		rjmp .L406
 5099               	.L407:
 5100 1be6 C482      		std Z+4,r12
 5101               	.LM546:
 5102 1be8 8881      		ld r24,Y
 5103 1bea 9981      		ldd r25,Y+1
 5104 1bec 40E0      		ldi r20,lo8(0)
 5105 1bee 50E0      		ldi r21,hi8(0)
 5106 1bf0 60E0      		ldi r22,hlo8(0)
 5107 1bf2 70E0      		ldi r23,hhi8(0)
 5108 1bf4 0E94 0000 		call move_window
 5109 1bf8 8823      		tst r24
 5110 1bfa 01F0      		breq .+2
 5111 1bfc 00C0      		rjmp .L398
 5112               	.LM547:
 5113 1bfe E881      		ld r30,Y
 5114 1c00 F981      		ldd r31,Y+1
 5115 1c02 82A5      		ldd r24,Z+42
 5116 1c04 93A5      		ldd r25,Z+43
 5117 1c06 A4A5      		ldd r26,Z+44
 5118 1c08 B5A5      		ldd r27,Z+45
 5119 1c0a 0196      		adiw r24,1
 5120 1c0c A11D      		adc r26,__zero_reg__
 5121 1c0e B11D      		adc r27,__zero_reg__
 5122 1c10 82A7      		std Z+42,r24
 5123 1c12 93A7      		std Z+43,r25
 5124 1c14 A4A7      		std Z+44,r26
 5125 1c16 B5A7      		std Z+45,r27
 5126               	.LM548:
 5127 1c18 D394      		inc r13
 5128               	.L406:
 5129 1c1a E881      		ld r30,Y
 5130 1c1c F981      		ldd r31,Y+1
 5131 1c1e 8281      		ldd r24,Z+2
 5132 1c20 D816      		cp r13,r24
 5133 1c22 00F0      		brlo .L407
 5134               	.LM549:
 5135 1c24 82A5      		ldd r24,Z+42
 5136 1c26 93A5      		ldd r25,Z+43
 5137 1c28 A4A5      		ldd r26,Z+44
 5138 1c2a B5A5      		ldd r27,Z+45
 5139 1c2c 8D19      		sub r24,r13
 5140 1c2e 9109      		sbc r25,__zero_reg__
 5141 1c30 A109      		sbc r26,__zero_reg__
 5142 1c32 B109      		sbc r27,__zero_reg__
 5143 1c34 82A7      		std Z+42,r24
 5144 1c36 93A7      		std Z+43,r25
 5145 1c38 A4A7      		std Z+44,r26
 5146 1c3a B5A7      		std Z+45,r27
 5147               	.LVL377:
 5148               	.L399:
 5149               	.LBE843:
 5150               	.LM550:
 5151 1c3c EA86      		std Y+10,r14
 5152 1c3e FB86      		std Y+11,r15
 5153 1c40 0C87      		std Y+12,r16
 5154 1c42 1D87      		std Y+13,r17
 5155               	.LM551:
 5156 1c44 C880      		ld r12,Y
 5157 1c46 D980      		ldd r13,Y+1
 5158               	.LBB848:
 5159               	.LBB849:
 5160               	.LM552:
 5161 1c48 8EEF      		ldi r24,lo8(-2)
 5162 1c4a 9FEF      		ldi r25,hi8(-2)
 5163 1c4c AFEF      		ldi r26,hlo8(-2)
 5164 1c4e BFEF      		ldi r27,hhi8(-2)
 5165 1c50 E80E      		add r14,r24
 5166 1c52 F91E      		adc r15,r25
 5167 1c54 0A1F      		adc r16,r26
 5168 1c56 1B1F      		adc r17,r27
 5169               	.LVL378:
 5170               	.LM553:
 5171 1c58 F601      		movw r30,r12
 5172 1c5a 828D      		ldd r24,Z+26
 5173 1c5c 938D      		ldd r25,Z+27
 5174 1c5e A48D      		ldd r26,Z+28
 5175 1c60 B58D      		ldd r27,Z+29
 5176 1c62 0297      		sbiw r24,2
 5177 1c64 A109      		sbc r26,__zero_reg__
 5178 1c66 B109      		sbc r27,__zero_reg__
 5179 1c68 E816      		cp r14,r24
 5180 1c6a F906      		cpc r15,r25
 5181 1c6c 0A07      		cpc r16,r26
 5182 1c6e 1B07      		cpc r17,r27
 5183 1c70 00F0      		brlo .L408
 5184 1c72 20E0      		ldi r18,lo8(0)
 5185 1c74 30E0      		ldi r19,hi8(0)
 5186 1c76 40E0      		ldi r20,hlo8(0)
 5187 1c78 50E0      		ldi r21,hhi8(0)
 5188 1c7a 00C0      		rjmp .L409
 5189               	.L408:
 5190               	.LM554:
 5191 1c7c D601      		movw r26,r12
 5192 1c7e 1296      		adiw r26,2
 5193 1c80 2C91      		ld r18,X
 5194 1c82 30E0      		ldi r19,lo8(0)
 5195 1c84 40E0      		ldi r20,lo8(0)
 5196 1c86 50E0      		ldi r21,hi8(0)
 5197 1c88 C801      		movw r24,r16
 5198 1c8a B701      		movw r22,r14
 5199               	.LVL379:
 5200 1c8c 0E94 0000 		call __mulsi3
 5201 1c90 9B01      		movw r18,r22
 5202 1c92 AC01      		movw r20,r24
 5203 1c94 F601      		movw r30,r12
 5204 1c96 86A1      		ldd r24,Z+38
 5205 1c98 97A1      		ldd r25,Z+39
 5206 1c9a A0A5      		ldd r26,Z+40
 5207 1c9c B1A5      		ldd r27,Z+41
 5208 1c9e 280F      		add r18,r24
 5209 1ca0 391F      		adc r19,r25
 5210 1ca2 4A1F      		adc r20,r26
 5211 1ca4 5B1F      		adc r21,r27
 5212               	.LVL380:
 5213               	.L409:
 5214               	.LBE849:
 5215               	.LBE848:
 5216               	.LM555:
 5217 1ca6 2E87      		std Y+14,r18
 5218 1ca8 3F87      		std Y+15,r19
 5219 1caa 488B      		std Y+16,r20
 5220 1cac 598B      		std Y+17,r21
 5221               	.LVL381:
 5222               	.L395:
 5223               	.LM556:
 5224 1cae 6C82      		std Y+4,r6
 5225 1cb0 7D82      		std Y+5,r7
 5226               	.LM557:
 5227 1cb2 35E0      		ldi r19,5
 5228 1cb4 440C      	1:	lsl r4
 5229 1cb6 551C      		rol r5
 5230 1cb8 3A95      		dec r19
 5231 1cba 01F4      		brne 1b
 5232 1cbc 8EE2      		ldi r24,lo8(46)
 5233 1cbe 90E0      		ldi r25,hi8(46)
 5234 1cc0 480E      		add r4,r24
 5235 1cc2 591E      		adc r5,r25
 5236 1cc4 8881      		ld r24,Y
 5237 1cc6 9981      		ldd r25,Y+1
 5238 1cc8 840D      		add r24,r4
 5239 1cca 951D      		adc r25,r5
 5240 1ccc 8A8B      		std Y+18,r24
 5241 1cce 9B8B      		std Y+19,r25
 5242 1cd0 80E0      		ldi r24,lo8(0)
 5243 1cd2 00C0      		rjmp .L401
 5244               	.LVL382:
 5245               	.L394:
 5246               	.LM558:
 5247 1cd4 84E0      		ldi r24,lo8(4)
 5248 1cd6 00C0      		rjmp .L401
 5249               	.LVL383:
 5250               	.L397:
 5251 1cd8 82E0      		ldi r24,lo8(2)
 5252 1cda 00C0      		rjmp .L401
 5253               	.LVL384:
 5254               	.L398:
 5255 1cdc 81E0      		ldi r24,lo8(1)
 5256               	.LVL385:
 5257               	.L401:
 5258               	/* epilogue start */
 5259               	.LM559:
 5260 1cde DF91      		pop r29
 5261 1ce0 CF91      		pop r28
 5262               	.LVL386:
 5263 1ce2 1F91      		pop r17
 5264 1ce4 0F91      		pop r16
 5265 1ce6 FF90      		pop r15
 5266 1ce8 EF90      		pop r14
 5267               	.LVL387:
 5268 1cea DF90      		pop r13
 5269               	.LVL388:
 5270 1cec CF90      		pop r12
 5271 1cee BF90      		pop r11
 5272 1cf0 AF90      		pop r10
 5273               	.LVL389:
 5274 1cf2 9F90      		pop r9
 5275 1cf4 8F90      		pop r8
 5276 1cf6 7F90      		pop r7
 5277 1cf8 6F90      		pop r6
 5278               	.LVL390:
 5279 1cfa 5F90      		pop r5
 5280 1cfc 4F90      		pop r4
 5281 1cfe 0895      		ret
 5282               	.LFE69:
 5285               	dir_read:
 5286               	.LFB71:
 5287               	.LM560:
 5288               	.LVL391:
 5289 1d00 CF93      		push r28
 5290 1d02 DF93      		push r29
 5291               	/* prologue: function */
 5292               	/* frame size = 0 */
 5293 1d04 EC01      		movw r28,r24
 5294               	.LM561:
 5295 1d06 94E0      		ldi r25,lo8(4)
 5296               	.LVL392:
 5297 1d08 00C0      		rjmp .L412
 5298               	.LVL393:
 5299               	.L417:
 5300               	.LM562:
 5301 1d0a 8881      		ld r24,Y
 5302 1d0c 9981      		ldd r25,Y+1
 5303 1d0e 0E94 0000 		call move_window
 5304               	.LVL394:
 5305 1d12 982F      		mov r25,r24
 5306               	.LVL395:
 5307               	.LM563:
 5308 1d14 8823      		tst r24
 5309 1d16 01F4      		brne .L413
 5310               	.LVL396:
 5311               	.LM564:
 5312 1d18 EA89      		ldd r30,Y+18
 5313 1d1a FB89      		ldd r31,Y+19
 5314               	.LVL397:
 5315               	.LM565:
 5316 1d1c 8081      		ld r24,Z
 5317               	.LVL398:
 5318               	.LM566:
 5319 1d1e 8823      		tst r24
 5320 1d20 01F0      		breq .L414
 5321               	.LM567:
 5322 1d22 853E      		cpi r24,lo8(-27)
 5323 1d24 01F0      		breq .L415
 5324 1d26 8E32      		cpi r24,lo8(46)
 5325 1d28 01F0      		breq .L415
 5326 1d2a 8385      		ldd r24,Z+11
 5327               	.LVL399:
 5328 1d2c 83FF      		sbrs r24,3
 5329 1d2e 00C0      		rjmp .L416
 5330               	.LVL400:
 5331               	.L415:
 5332               	.LM568:
 5333 1d30 CE01      		movw r24,r28
 5334               	.LVL401:
 5335 1d32 60E0      		ldi r22,lo8(0)
 5336 1d34 0E94 0000 		call dir_next
 5337               	.LVL402:
 5338 1d38 982F      		mov r25,r24
 5339               	.LVL403:
 5340               	.LM569:
 5341 1d3a 8823      		tst r24
 5342 1d3c 01F4      		brne .L413
 5343               	.LVL404:
 5344               	.L412:
 5345               	.LM570:
 5346 1d3e 4E85      		ldd r20,Y+14
 5347 1d40 5F85      		ldd r21,Y+15
 5348 1d42 6889      		ldd r22,Y+16
 5349 1d44 7989      		ldd r23,Y+17
 5350 1d46 4115      		cp r20,__zero_reg__
 5351 1d48 5105      		cpc r21,__zero_reg__
 5352 1d4a 6105      		cpc r22,__zero_reg__
 5353 1d4c 7105      		cpc r23,__zero_reg__
 5354 1d4e 01F4      		brne .L417
 5355               	.LM571:
 5356 1d50 9923      		tst r25
 5357 1d52 01F0      		breq .L416
 5358               	.LVL405:
 5359               	.L413:
 5360 1d54 1E86      		std Y+14,__zero_reg__
 5361 1d56 1F86      		std Y+15,__zero_reg__
 5362 1d58 188A      		std Y+16,__zero_reg__
 5363 1d5a 198A      		std Y+17,__zero_reg__
 5364               	.L416:
 5365               	.LM572:
 5366 1d5c 892F      		mov r24,r25
 5367               	.LVL406:
 5368               	/* epilogue start */
 5369 1d5e DF91      		pop r29
 5370 1d60 CF91      		pop r28
 5371               	.LVL407:
 5372 1d62 0895      		ret
 5373               	.LVL408:
 5374               	.L414:
 5375               	.LM573:
 5376 1d64 94E0      		ldi r25,lo8(4)
 5377 1d66 00C0      		rjmp .L413
 5378               	.LFE71:
 5381               	dir_register:
 5382               	.LFB72:
 5383               	.LM574:
 5384               	.LVL409:
 5385 1d68 0F93      		push r16
 5386 1d6a 1F93      		push r17
 5387 1d6c CF93      		push r28
 5388 1d6e DF93      		push r29
 5389               	/* prologue: function */
 5390               	/* frame size = 0 */
 5391 1d70 EC01      		movw r28,r24
 5392               	.LM575:
 5393 1d72 60E0      		ldi r22,lo8(0)
 5394 1d74 70E0      		ldi r23,hi8(0)
 5395 1d76 0E94 0000 		call dir_seek
 5396               	.LVL410:
 5397               	.L431:
 5398 1d7a 482F      		mov r20,r24
 5399               	.LVL411:
 5400               	.LM576:
 5401 1d7c 8823      		tst r24
 5402 1d7e 01F0      		breq .+2
 5403 1d80 00C0      		rjmp .L420
 5404               	.LVL412:
 5405               	.LM577:
 5406 1d82 4E85      		ldd r20,Y+14
 5407 1d84 5F85      		ldd r21,Y+15
 5408 1d86 6889      		ldd r22,Y+16
 5409 1d88 7989      		ldd r23,Y+17
 5410 1d8a 8881      		ld r24,Y
 5411 1d8c 9981      		ldd r25,Y+1
 5412               	.LVL413:
 5413 1d8e 0E94 0000 		call move_window
 5414 1d92 482F      		mov r20,r24
 5415               	.LVL414:
 5416               	.LM578:
 5417 1d94 8823      		tst r24
 5418 1d96 01F4      		brne .L420
 5419               	.LVL415:
 5420               	.LM579:
 5421 1d98 EA89      		ldd r30,Y+18
 5422 1d9a FB89      		ldd r31,Y+19
 5423 1d9c E081      		ld r30,Z
 5424               	.LVL416:
 5425               	.LM580:
 5426 1d9e E53E      		cpi r30,lo8(-27)
 5427 1da0 01F0      		breq .L421
 5428 1da2 EE23      		tst r30
 5429 1da4 01F0      		breq .L421
 5430               	.LM581:
 5431 1da6 CE01      		movw r24,r28
 5432               	.LVL417:
 5433 1da8 61E0      		ldi r22,lo8(1)
 5434 1daa 0E94 0000 		call dir_next
 5435               	.LVL418:
 5436 1dae 00C0      		rjmp .L431
 5437               	.LVL419:
 5438               	.L427:
 5439               	.LM582:
 5440 1db0 AA89      		ldd r26,Y+18
 5441 1db2 BB89      		ldd r27,Y+19
 5442               	.LVL420:
 5443 1db4 FD01      		movw r30,r26
 5444 1db6 80E2      		ldi r24,lo8(32)
 5445 1db8 90E0      		ldi r25,hi8(32)
 5446               	.LVL421:
 5447 1dba 00C0      		rjmp .L423
 5448               	.LVL422:
 5449               	.L424:
 5450               	.LBB850:
 5451               	.LBB851:
 5452               	.LM583:
 5453 1dbc 1192      		st Z+,__zero_reg__
 5454               	.L423:
 5455 1dbe 0197      		sbiw r24,1
 5456 1dc0 2FEF      		ldi r18,hi8(-1)
 5457 1dc2 8F3F      		cpi r24,lo8(-1)
 5458 1dc4 9207      		cpc r25,r18
 5459 1dc6 01F4      		brne .L424
 5460               	.LBE851:
 5461               	.LBE850:
 5462               	.LM584:
 5463 1dc8 BD01      		movw r22,r26
 5464 1dca 8C89      		ldd r24,Y+20
 5465               	.LVL423:
 5466 1dcc 9D89      		ldd r25,Y+21
 5467               	.LVL424:
 5468 1dce 9C01      		movw r18,r24
 5469               	.LVL425:
 5470 1dd0 8901      		movw r16,r18
 5471               	.LVL426:
 5472 1dd2 2BE0      		ldi r18,lo8(11)
 5473 1dd4 30E0      		ldi r19,hi8(11)
 5474               	.LVL427:
 5475 1dd6 00C0      		rjmp .L425
 5476               	.LVL428:
 5477               	.L426:
 5478               	.LBB852:
 5479               	.LBB853:
 5480               	.LM585:
 5481 1dd8 F801      		movw r30,r16
 5482 1dda 8191      		ld r24,Z+
 5483 1ddc 8F01      		movw r16,r30
 5484 1dde FB01      		movw r30,r22
 5485 1de0 8193      		st Z+,r24
 5486 1de2 BF01      		movw r22,r30
 5487               	.LVL429:
 5488               	.L425:
 5489 1de4 2150      		subi r18,lo8(-(-1))
 5490 1de6 3040      		sbci r19,hi8(-(-1))
 5491 1de8 FFEF      		ldi r31,hi8(-1)
 5492 1dea 2F3F      		cpi r18,lo8(-1)
 5493 1dec 3F07      		cpc r19,r31
 5494 1dee 01F4      		brne .L426
 5495               	.LBE853:
 5496               	.LBE852:
 5497               	.LM586:
 5498 1df0 EC89      		ldd r30,Y+20
 5499 1df2 FD89      		ldd r31,Y+21
 5500 1df4 8385      		ldd r24,Z+11
 5501 1df6 8871      		andi r24,lo8(24)
 5502 1df8 1C96      		adiw r26,12
 5503 1dfa 8C93      		st X,r24
 5504               	.LM587:
 5505 1dfc E881      		ld r30,Y
 5506 1dfe F981      		ldd r31,Y+1
 5507 1e00 81E0      		ldi r24,lo8(1)
 5508 1e02 8483      		std Z+4,r24
 5509               	.LVL430:
 5510               	.L420:
 5511               	.LM588:
 5512 1e04 842F      		mov r24,r20
 5513               	/* epilogue start */
 5514 1e06 DF91      		pop r29
 5515 1e08 CF91      		pop r28
 5516               	.LVL431:
 5517 1e0a 1F91      		pop r17
 5518 1e0c 0F91      		pop r16
 5519               	.LVL432:
 5520 1e0e 0895      		ret
 5521               	.LVL433:
 5522               	.L421:
 5523               	.LM589:
 5524 1e10 4E85      		ldd r20,Y+14
 5525 1e12 5F85      		ldd r21,Y+15
 5526 1e14 6889      		ldd r22,Y+16
 5527 1e16 7989      		ldd r23,Y+17
 5528 1e18 8881      		ld r24,Y
 5529 1e1a 9981      		ldd r25,Y+1
 5530               	.LVL434:
 5531 1e1c 0E94 0000 		call move_window
 5532               	.LVL435:
 5533 1e20 482F      		mov r20,r24
 5534               	.LVL436:
 5535               	.LM590:
 5536 1e22 8823      		tst r24
 5537 1e24 01F0      		breq .L427
 5538               	.LVL437:
 5539 1e26 00C0      		rjmp .L420
 5540               	.LFE72:
 5543               	dir_remove:
 5544               	.LFB73:
 5545               	.LM591:
 5546               	.LVL438:
 5547 1e28 CF93      		push r28
 5548 1e2a DF93      		push r29
 5549               	/* prologue: function */
 5550               	/* frame size = 0 */
 5551 1e2c EC01      		movw r28,r24
 5552               	.LM592:
 5553 1e2e 6C81      		ldd r22,Y+4
 5554 1e30 7D81      		ldd r23,Y+5
 5555 1e32 0E94 0000 		call dir_seek
 5556               	.LVL439:
 5557 1e36 982F      		mov r25,r24
 5558               	.LVL440:
 5559               	.LM593:
 5560 1e38 8823      		tst r24
 5561 1e3a 01F4      		brne .L433
 5562               	.LVL441:
 5563               	.LM594:
 5564 1e3c 4E85      		ldd r20,Y+14
 5565 1e3e 5F85      		ldd r21,Y+15
 5566 1e40 6889      		ldd r22,Y+16
 5567 1e42 7989      		ldd r23,Y+17
 5568 1e44 8881      		ld r24,Y
 5569 1e46 9981      		ldd r25,Y+1
 5570               	.LVL442:
 5571 1e48 0E94 0000 		call move_window
 5572               	.LVL443:
 5573 1e4c 982F      		mov r25,r24
 5574               	.LVL444:
 5575               	.LM595:
 5576 1e4e 8823      		tst r24
 5577 1e50 01F4      		brne .L433
 5578               	.LVL445:
 5579               	.LM596:
 5580 1e52 EA89      		ldd r30,Y+18
 5581 1e54 FB89      		ldd r31,Y+19
 5582 1e56 85EE      		ldi r24,lo8(-27)
 5583               	.LVL446:
 5584 1e58 8083      		st Z,r24
 5585               	.LM597:
 5586 1e5a E881      		ld r30,Y
 5587 1e5c F981      		ldd r31,Y+1
 5588 1e5e 81E0      		ldi r24,lo8(1)
 5589 1e60 8483      		std Z+4,r24
 5590               	.LVL447:
 5591               	.L433:
 5592               	.LM598:
 5593 1e62 892F      		mov r24,r25
 5594               	/* epilogue start */
 5595 1e64 DF91      		pop r29
 5596 1e66 CF91      		pop r28
 5597               	.LVL448:
 5598 1e68 0895      		ret
 5599               	.LFE73:
 5602               	get_fileinfo:
 5603               	.LFB75:
 5604               	.LM599:
 5605               	.LVL449:
 5606 1e6a EF92      		push r14
 5607 1e6c FF92      		push r15
 5608 1e6e 0F93      		push r16
 5609 1e70 1F93      		push r17
 5610 1e72 CF93      		push r28
 5611 1e74 DF93      		push r29
 5612               	/* prologue: function */
 5613               	/* frame size = 0 */
 5614 1e76 FC01      		movw r30,r24
 5615 1e78 7B01      		movw r14,r22
 5616               	.LM600:
 5617 1e7a EB01      		movw r28,r22
 5618               	.LVL450:
 5619 1e7c 2996      		adiw r28,9
 5620               	.LM601:
 5621 1e7e 8685      		ldd r24,Z+14
 5622 1e80 9785      		ldd r25,Z+15
 5623 1e82 A089      		ldd r26,Z+16
 5624 1e84 B189      		ldd r27,Z+17
 5625               	.LVL451:
 5626 1e86 0097      		sbiw r24,0
 5627 1e88 A105      		cpc r26,__zero_reg__
 5628 1e8a B105      		cpc r27,__zero_reg__
 5629 1e8c 01F4      		brne .+2
 5630 1e8e 00C0      		rjmp .L436
 5631               	.LM602:
 5632 1e90 6289      		ldd r22,Z+18
 5633 1e92 7389      		ldd r23,Z+19
 5634               	.LVL452:
 5635 1e94 80E0      		ldi r24,lo8(0)
 5636 1e96 90E0      		ldi r25,hi8(0)
 5637               	.LVL453:
 5638               	.L439:
 5639               	.LM603:
 5640 1e98 FB01      		movw r30,r22
 5641               	.LVL454:
 5642 1e9a E80F      		add r30,r24
 5643 1e9c F91F      		adc r31,r25
 5644 1e9e E081      		ld r30,Z
 5645               	.LVL455:
 5646               	.LM604:
 5647 1ea0 E032      		cpi r30,lo8(32)
 5648 1ea2 01F0      		breq .L437
 5649               	.LM605:
 5650 1ea4 E530      		cpi r30,lo8(5)
 5651 1ea6 01F4      		brne .L438
 5652 1ea8 E5EE      		ldi r30,lo8(-27)
 5653               	.L438:
 5654               	.LM606:
 5655 1eaa E993      		st Y+,r30
 5656               	.LM607:
 5657 1eac 0196      		adiw r24,1
 5658 1eae 8830      		cpi r24,8
 5659 1eb0 9105      		cpc r25,__zero_reg__
 5660 1eb2 01F4      		brne .L439
 5661               	.L437:
 5662               	.LM608:
 5663 1eb4 DB01      		movw r26,r22
 5664 1eb6 1896      		adiw r26,8
 5665 1eb8 8C91      		ld r24,X
 5666               	.LVL456:
 5667 1eba 8032      		cpi r24,lo8(32)
 5668 1ebc 01F4      		brne .L440
 5669 1ebe 8E01      		movw r16,r28
 5670 1ec0 00C0      		rjmp .L441
 5671               	.LVL457:
 5672               	.L440:
 5673               	.LM609:
 5674 1ec2 8EE2      		ldi r24,lo8(46)
 5675 1ec4 FE01      		movw r30,r28
 5676               	.LVL458:
 5677 1ec6 8193      		st Z+,r24
 5678 1ec8 8F01      		movw r16,r30
 5679               	.LVL459:
 5680 1eca FB01      		movw r30,r22
 5681               	.LM610:
 5682 1ecc 9E01      		movw r18,r28
 5683 1ece 2C5F      		subi r18,lo8(-(4))
 5684 1ed0 3F4F      		sbci r19,hi8(-(4))
 5685               	.LVL460:
 5686               	.L442:
 5687               	.LM611:
 5688 1ed2 8085      		ldd r24,Z+8
 5689               	.LM612:
 5690 1ed4 8032      		cpi r24,lo8(32)
 5691 1ed6 01F0      		breq .L441
 5692               	.LM613:
 5693 1ed8 D801      		movw r26,r16
 5694 1eda 8D93      		st X+,r24
 5695 1edc 8D01      		movw r16,r26
 5696 1ede 3196      		adiw r30,1
 5697               	.LM614:
 5698 1ee0 A217      		cp r26,r18
 5699 1ee2 B307      		cpc r27,r19
 5700 1ee4 01F4      		brne .L442
 5701               	.LVL461:
 5702               	.L441:
 5703               	.LM615:
 5704 1ee6 FB01      		movw r30,r22
 5705 1ee8 8385      		ldd r24,Z+11
 5706               	.LVL462:
 5707 1eea D701      		movw r26,r14
 5708 1eec 1896      		adiw r26,8
 5709 1eee 8C93      		st X,r24
 5710               	.LM616:
 5711 1ef0 278D      		ldd r18,Z+31
 5712 1ef2 30E0      		ldi r19,lo8(0)
 5713 1ef4 40E0      		ldi r20,lo8(0)
 5714 1ef6 50E0      		ldi r21,hi8(0)
 5715 1ef8 522F      		mov r21,r18
 5716 1efa 4427      		clr r20
 5717 1efc 3327      		clr r19
 5718 1efe 2227      		clr r18
 5719 1f00 868D      		ldd r24,Z+30
 5720 1f02 90E0      		ldi r25,lo8(0)
 5721 1f04 A0E0      		ldi r26,lo8(0)
 5722 1f06 B0E0      		ldi r27,hi8(0)
 5723 1f08 DC01      		movw r26,r24
 5724 1f0a 9927      		clr r25
 5725 1f0c 8827      		clr r24
 5726 1f0e 282B      		or r18,r24
 5727 1f10 392B      		or r19,r25
 5728 1f12 4A2B      		or r20,r26
 5729 1f14 5B2B      		or r21,r27
 5730 1f16 848D      		ldd r24,Z+28
 5731 1f18 90E0      		ldi r25,lo8(0)
 5732 1f1a A0E0      		ldi r26,lo8(0)
 5733 1f1c B0E0      		ldi r27,hi8(0)
 5734 1f1e 282B      		or r18,r24
 5735 1f20 392B      		or r19,r25
 5736 1f22 4A2B      		or r20,r26
 5737 1f24 5B2B      		or r21,r27
 5738 1f26 958D      		ldd r25,Z+29
 5739 1f28 80E0      		ldi r24,lo8(0)
 5740 1f2a A0E0      		ldi r26,lo8(0)
 5741 1f2c B0E0      		ldi r27,hi8(0)
 5742 1f2e 282B      		or r18,r24
 5743 1f30 392B      		or r19,r25
 5744 1f32 4A2B      		or r20,r26
 5745 1f34 5B2B      		or r21,r27
 5746 1f36 F701      		movw r30,r14
 5747 1f38 2083      		st Z,r18
 5748 1f3a 3183      		std Z+1,r19
 5749 1f3c 4283      		std Z+2,r20
 5750 1f3e 5383      		std Z+3,r21
 5751               	.LM617:
 5752 1f40 DB01      		movw r26,r22
 5753 1f42 5996      		adiw r26,25
 5754 1f44 9C91      		ld r25,X
 5755 1f46 5997      		sbiw r26,25
 5756 1f48 80E0      		ldi r24,lo8(0)
 5757 1f4a 5896      		adiw r26,24
 5758 1f4c 2C91      		ld r18,X
 5759 1f4e 5897      		sbiw r26,24
 5760 1f50 30E0      		ldi r19,lo8(0)
 5761 1f52 822B      		or r24,r18
 5762 1f54 932B      		or r25,r19
 5763 1f56 8483      		std Z+4,r24
 5764 1f58 9583      		std Z+5,r25
 5765               	.LM618:
 5766 1f5a 5796      		adiw r26,23
 5767 1f5c 9C91      		ld r25,X
 5768 1f5e 5797      		sbiw r26,23
 5769 1f60 80E0      		ldi r24,lo8(0)
 5770 1f62 5696      		adiw r26,22
 5771 1f64 2C91      		ld r18,X
 5772 1f66 30E0      		ldi r19,lo8(0)
 5773 1f68 822B      		or r24,r18
 5774 1f6a 932B      		or r25,r19
 5775 1f6c 8683      		std Z+6,r24
 5776 1f6e 9783      		std Z+7,r25
 5777 1f70 E801      		movw r28,r16
 5778               	.LVL463:
 5779               	.L436:
 5780               	.LM619:
 5781 1f72 1882      		st Y,__zero_reg__
 5782               	/* epilogue start */
 5783               	.LM620:
 5784 1f74 DF91      		pop r29
 5785 1f76 CF91      		pop r28
 5786               	.LVL464:
 5787 1f78 1F91      		pop r17
 5788 1f7a 0F91      		pop r16
 5789               	.LVL465:
 5790 1f7c FF90      		pop r15
 5791 1f7e EF90      		pop r14
 5792               	.LVL466:
 5793 1f80 0895      		ret
 5794               	.LFE75:
 5796               		.data
 5797               	.LC0:
 5798 0000 2022 2A2B 		.string	" \"*+,[=]|\177"
 5798      2C5B 3D5D 
 5798      7C7F 00
 5799               		.text
 5801               	follow_path:
 5802               	.LFB76:
 5803               	.LM621:
 5804               	.LVL467:
 5805 1f82 5F92      		push r5
 5806 1f84 6F92      		push r6
 5807 1f86 7F92      		push r7
 5808 1f88 8F92      		push r8
 5809 1f8a 9F92      		push r9
 5810 1f8c AF92      		push r10
 5811 1f8e BF92      		push r11
 5812 1f90 CF92      		push r12
 5813 1f92 DF92      		push r13
 5814 1f94 EF92      		push r14
 5815 1f96 FF92      		push r15
 5816 1f98 0F93      		push r16
 5817 1f9a 1F93      		push r17
 5818 1f9c CF93      		push r28
 5819 1f9e DF93      		push r29
 5820               	/* prologue: function */
 5821               	/* frame size = 0 */
 5822 1fa0 EC01      		movw r28,r24
 5823 1fa2 7B01      		movw r14,r22
 5824 1fa4 00C0      		rjmp .L447
 5825               	.LVL468:
 5826               	.L448:
 5827               	.LM622:
 5828 1fa6 0894      		sec
 5829 1fa8 E11C      		adc r14,__zero_reg__
 5830 1faa F11C      		adc r15,__zero_reg__
 5831               	.LVL469:
 5832               	.L447:
 5833 1fac F701      		movw r30,r14
 5834 1fae 8081      		ld r24,Z
 5835 1fb0 8032      		cpi r24,lo8(32)
 5836 1fb2 01F0      		breq .L448
 5837               	.LM623:
 5838 1fb4 8F32      		cpi r24,lo8(47)
 5839 1fb6 01F0      		breq .L449
 5840 1fb8 8C35      		cpi r24,lo8(92)
 5841 1fba 01F4      		brne .L450
 5842               	.L449:
 5843               	.LM624:
 5844 1fbc 0894      		sec
 5845 1fbe E11C      		adc r14,__zero_reg__
 5846 1fc0 F11C      		adc r15,__zero_reg__
 5847               	.LVL470:
 5848               	.L450:
 5849               	.LM625:
 5850 1fc2 1E82      		std Y+6,__zero_reg__
 5851 1fc4 1F82      		std Y+7,__zero_reg__
 5852 1fc6 1886      		std Y+8,__zero_reg__
 5853 1fc8 1986      		std Y+9,__zero_reg__
 5854               	.LM626:
 5855 1fca F701      		movw r30,r14
 5856 1fcc 8081      		ld r24,Z
 5857 1fce 8032      		cpi r24,lo8(32)
 5858 1fd0 00F4      		brsh .L451
 5859               	.LM627:
 5860 1fd2 CE01      		movw r24,r28
 5861 1fd4 60E0      		ldi r22,lo8(0)
 5862 1fd6 70E0      		ldi r23,hi8(0)
 5863 1fd8 0E94 0000 		call dir_seek
 5864               	.LM628:
 5865 1fdc 1A8A      		std Y+18,__zero_reg__
 5866 1fde 1B8A      		std Y+19,__zero_reg__
 5867 1fe0 00C0      		rjmp .L452
 5868               	.LVL471:
 5869               	.L451:
 5870               	.LBB854:
 5871               	.LBB855:
 5872               	.LBB859:
 5873               	.LBB860:
 5874               	.LM629:
 5875 1fe2 00E2      		ldi r16,lo8(32)
 5876               	.LBE860:
 5877               	.LBE859:
 5878               	.LM630:
 5879 1fe4 45E0      		ldi r20,lo8(5)
 5880 1fe6 542E      		mov r5,r20
 5881               	.LVL472:
 5882               	.L487:
 5883               	.LM631:
 5884 1fe8 AC89      		ldd r26,Y+20
 5885 1fea BD89      		ldd r27,Y+21
 5886               	.LVL473:
 5887 1fec FD01      		movw r30,r26
 5888               	.LVL474:
 5889 1fee 8BE0      		ldi r24,lo8(11)
 5890 1ff0 90E0      		ldi r25,hi8(11)
 5891               	.LVL475:
 5892 1ff2 00C0      		rjmp .L453
 5893               	.LVL476:
 5894               	.L454:
 5895               	.LBB858:
 5896               	.LBB861:
 5897               	.LM632:
 5898 1ff4 0193      		st Z+,r16
 5899               	.L453:
 5900 1ff6 0197      		sbiw r24,1
 5901 1ff8 2FEF      		ldi r18,hi8(-1)
 5902 1ffa 8F3F      		cpi r24,lo8(-1)
 5903 1ffc 9207      		cpc r25,r18
 5904 1ffe 01F4      		brne .L454
 5905 2000 40E0      		ldi r20,lo8(0)
 5906 2002 50E0      		ldi r21,hi8(0)
 5907               	.LVL477:
 5908 2004 CC24      		clr r12
 5909 2006 DD24      		clr r13
 5910 2008 38E0      		ldi r19,lo8(8)
 5911 200a A32E      		mov r10,r19
 5912 200c B12C      		mov r11,__zero_reg__
 5913 200e 10E0      		ldi r17,lo8(0)
 5914               	.LVL478:
 5915               	.L486:
 5916               	.LBE861:
 5917               	.LBE858:
 5918               	.LM633:
 5919 2010 F701      		movw r30,r14
 5920 2012 EC0D      		add r30,r12
 5921 2014 FD1D      		adc r31,r13
 5922 2016 2081      		ld r18,Z
 5923 2018 0894      		sec
 5924 201a C11C      		adc r12,__zero_reg__
 5925 201c D11C      		adc r13,__zero_reg__
 5926               	.LM634:
 5927 201e 2132      		cpi r18,lo8(33)
 5928 2020 00F4      		brsh .+2
 5929 2022 00C0      		rjmp .L455
 5930 2024 2F32      		cpi r18,lo8(47)
 5931 2026 01F4      		brne .+2
 5932 2028 00C0      		rjmp .L456
 5933 202a 2C35      		cpi r18,lo8(92)
 5934 202c 01F4      		brne .+2
 5935 202e 00C0      		rjmp .L456
 5936               	.LM635:
 5937 2030 2E32      		cpi r18,lo8(46)
 5938 2032 01F0      		breq .L457
 5939 2034 4A15      		cp r20,r10
 5940 2036 5B05      		cpc r21,r11
 5941 2038 04F0      		brlt .L458
 5942               	.L457:
 5943               	.LM636:
 5944 203a 88E0      		ldi r24,lo8(8)
 5945 203c A816      		cp r10,r24
 5946 203e B104      		cpc r11,__zero_reg__
 5947               	.LVL479:
 5948 2040 01F0      		breq .+2
 5949 2042 00C0      		rjmp .L459
 5950 2044 2E32      		cpi r18,lo8(46)
 5951 2046 01F0      		breq .+2
 5952 2048 00C0      		rjmp .L459
 5953               	.LM637:
 5954 204a 110F      		lsl r17
 5955 204c 110F      		lsl r17
 5956 204e 48E0      		ldi r20,lo8(8)
 5957 2050 50E0      		ldi r21,hi8(8)
 5958 2052 2BE0      		ldi r18,lo8(11)
 5959 2054 A22E      		mov r10,r18
 5960 2056 B12C      		mov r11,__zero_reg__
 5961               	.LVL480:
 5962 2058 00C0      		rjmp .L486
 5963               	.LVL481:
 5964               	.L458:
 5965               	.LM638:
 5966 205a 27FD      		sbrc r18,7
 5967               	.LM639:
 5968 205c 1360      		ori r17,lo8(3)
 5969               	.L461:
 5970               	.LM640:
 5971 205e 822F      		mov r24,r18
 5972               	.LVL482:
 5973 2060 8158      		subi r24,lo8(-(127))
 5974 2062 8F31      		cpi r24,lo8(31)
 5975 2064 00F0      		brlo .L462
 5976 2066 8F55      		subi r24,lo8(-(-95))
 5977 2068 8D31      		cpi r24,lo8(29)
 5978 206a 00F4      		brsh .L463
 5979               	.L462:
 5980               	.LM641:
 5981 206c F701      		movw r30,r14
 5982 206e EC0D      		add r30,r12
 5983 2070 FD1D      		adc r31,r13
 5984 2072 3081      		ld r19,Z
 5985               	.LM642:
 5986 2074 832F      		mov r24,r19
 5987 2076 8054      		subi r24,lo8(-(-64))
 5988 2078 8F33      		cpi r24,lo8(63)
 5989 207a 00F0      		brlo .L464
 5990 207c 8054      		subi r24,lo8(-(-64))
 5991 207e 8D37      		cpi r24,lo8(125)
 5992 2080 00F0      		brlo .+2
 5993 2082 00C0      		rjmp .L459
 5994               	.L464:
 5995 2084 C501      		movw r24,r10
 5996 2086 0197      		sbiw r24,1
 5997 2088 4817      		cp r20,r24
 5998 208a 5907      		cpc r21,r25
 5999 208c 04F0      		brlt .+2
 6000 208e 00C0      		rjmp .L459
 6001               	.LM643:
 6002 2090 0894      		sec
 6003 2092 C11C      		adc r12,__zero_reg__
 6004 2094 D11C      		adc r13,__zero_reg__
 6005               	.LM644:
 6006 2096 FD01      		movw r30,r26
 6007 2098 E40F      		add r30,r20
 6008 209a F51F      		adc r31,r21
 6009 209c 2083      		st Z,r18
 6010 209e CA01      		movw r24,r20
 6011 20a0 0196      		adiw r24,1
 6012               	.LVL483:
 6013               	.LM645:
 6014 20a2 FD01      		movw r30,r26
 6015 20a4 E80F      		add r30,r24
 6016 20a6 F91F      		adc r31,r25
 6017 20a8 3083      		st Z,r19
 6018 20aa AC01      		movw r20,r24
 6019 20ac 00C0      		rjmp .L488
 6020               	.LVL484:
 6021               	.L463:
 6022               	.LM646:
 6023 20ae 622F      		mov r22,r18
 6024 20b0 70E0      		ldi r23,lo8(0)
 6025 20b2 E0E0      		ldi r30,lo8(.LC0)
 6026 20b4 F0E0      		ldi r31,hi8(.LC0)
 6027               	.LVL485:
 6028 20b6 00C0      		rjmp .L465
 6029               	.L467:
 6030               	.LBB856:
 6031               	.LBB857:
 6032               	.LM647:
 6033 20b8 3196      		adiw r30,1
 6034               	.L465:
 6035 20ba 8081      		ld r24,Z
 6036 20bc 8823      		tst r24
 6037 20be 01F0      		breq .L466
 6038 20c0 90E0      		ldi r25,lo8(0)
 6039 20c2 8617      		cp r24,r22
 6040 20c4 9707      		cpc r25,r23
 6041 20c6 01F4      		brne .L467
 6042 20c8 00C0      		rjmp .L459
 6043               	.L466:
 6044               	.LBE857:
 6045               	.LBE856:
 6046               	.LM648:
 6047 20ca 822F      		mov r24,r18
 6048 20cc 8154      		subi r24,lo8(-(-65))
 6049 20ce 8A31      		cpi r24,lo8(26)
 6050 20d0 00F4      		brsh .L468
 6051               	.LM649:
 6052 20d2 1260      		ori r17,lo8(2)
 6053 20d4 00C0      		rjmp .L469
 6054               	.L468:
 6055               	.LM650:
 6056 20d6 822F      		mov r24,r18
 6057 20d8 8156      		subi r24,lo8(-(-97))
 6058 20da 8A31      		cpi r24,lo8(26)
 6059 20dc 00F4      		brsh .L469
 6060               	.LM651:
 6061 20de 1160      		ori r17,lo8(1)
 6062 20e0 2052      		subi r18,lo8(-(-32))
 6063               	.L469:
 6064               	.LM652:
 6065 20e2 FD01      		movw r30,r26
 6066               	.LVL486:
 6067 20e4 E40F      		add r30,r20
 6068 20e6 F51F      		adc r31,r21
 6069 20e8 2083      		st Z,r18
 6070               	.LVL487:
 6071               	.L488:
 6072 20ea 4F5F      		subi r20,lo8(-(1))
 6073 20ec 5F4F      		sbci r21,hi8(-(1))
 6074 20ee 00C0      		rjmp .L486
 6075               	.LVL488:
 6076               	.L455:
 6077 20f0 912F      		mov r25,r17
 6078 20f2 64E0      		ldi r22,lo8(4)
 6079               	.LVL489:
 6080               	.L482:
 6081               	.LM653:
 6082 20f4 452B      		or r20,r21
 6083 20f6 01F4      		brne .+2
 6084 20f8 00C0      		rjmp .L459
 6085               	.LM654:
 6086 20fa 8C91      		ld r24,X
 6087               	.LVL490:
 6088 20fc 853E      		cpi r24,lo8(-27)
 6089 20fe 01F4      		brne .L470
 6090 2100 5C92      		st X,r5
 6091               	.L470:
 6092               	.LM655:
 6093 2102 E8E0      		ldi r30,lo8(8)
 6094 2104 AE16      		cp r10,r30
 6095 2106 B104      		cpc r11,__zero_reg__
 6096 2108 01F4      		brne .L471
 6097 210a 912F      		mov r25,r17
 6098 210c 990F      		lsl r25
 6099 210e 990F      		lsl r25
 6100               	.LVL491:
 6101               	.L471:
 6102               	.LM656:
 6103 2110 292F      		mov r18,r25
 6104 2112 30E0      		ldi r19,lo8(0)
 6105               	.LVL492:
 6106 2114 C901      		movw r24,r18
 6107 2116 8370      		andi r24,lo8(3)
 6108 2118 9070      		andi r25,hi8(3)
 6109 211a 0197      		sbiw r24,1
 6110 211c 01F4      		brne .L472
 6111 211e 6061      		ori r22,lo8(16)
 6112               	.L472:
 6113               	.LM657:
 6114 2120 2C70      		andi r18,lo8(12)
 6115 2122 3070      		andi r19,hi8(12)
 6116 2124 2430      		cpi r18,4
 6117 2126 3105      		cpc r19,__zero_reg__
 6118 2128 01F4      		brne .L473
 6119 212a 6860      		ori r22,lo8(8)
 6120               	.L473:
 6121               	.LM658:
 6122 212c 1B96      		adiw r26,11
 6123 212e 6C93      		st X,r22
 6124               	.LBE855:
 6125               	.LBE854:
 6126               	.LBB863:
 6127               	.LM659:
 6128 2130 CE01      		movw r24,r28
 6129 2132 60E0      		ldi r22,lo8(0)
 6130 2134 70E0      		ldi r23,hi8(0)
 6131               	.LVL493:
 6132 2136 0E94 0000 		call dir_seek
 6133               	.LVL494:
 6134               	.L489:
 6135 213a 482F      		mov r20,r24
 6136               	.LVL495:
 6137               	.LBB864:
 6138               	.LM660:
 6139 213c 8823      		tst r24
 6140 213e 01F4      		brne .L474
 6141               	.LVL496:
 6142               	.LBE864:
 6143               	.LM661:
 6144 2140 4E85      		ldd r20,Y+14
 6145 2142 5F85      		ldd r21,Y+15
 6146 2144 6889      		ldd r22,Y+16
 6147 2146 7989      		ldd r23,Y+17
 6148 2148 8881      		ld r24,Y
 6149 214a 9981      		ldd r25,Y+1
 6150               	.LVL497:
 6151 214c 0E94 0000 		call move_window
 6152 2150 482F      		mov r20,r24
 6153               	.LVL498:
 6154               	.LBB867:
 6155               	.LM662:
 6156 2152 8823      		tst r24
 6157 2154 01F4      		brne .L474
 6158               	.LVL499:
 6159               	.LM663:
 6160 2156 EA89      		ldd r30,Y+18
 6161 2158 FB89      		ldd r31,Y+19
 6162               	.LVL500:
 6163               	.LM664:
 6164 215a 8081      		ld r24,Z
 6165               	.LVL501:
 6166 215c 8823      		tst r24
 6167 215e 01F4      		brne .L475
 6168 2160 44E0      		ldi r20,lo8(4)
 6169 2162 00C0      		rjmp .L474
 6170               	.L475:
 6171               	.LM665:
 6172 2164 8385      		ldd r24,Z+11
 6173 2166 83FD      		sbrc r24,3
 6174 2168 00C0      		rjmp .L476
 6175 216a DF01      		movw r26,r30
 6176               	.LVL502:
 6177 216c 8C89      		ldd r24,Y+20
 6178               	.LVL503:
 6179 216e 9D89      		ldd r25,Y+21
 6180               	.LVL504:
 6181 2170 9C01      		movw r18,r24
 6182               	.LVL505:
 6183 2172 F901      		movw r30,r18
 6184               	.LVL506:
 6185 2174 2BE0      		ldi r18,lo8(11)
 6186 2176 30E0      		ldi r19,hi8(11)
 6187               	.LVL507:
 6188               	.L477:
 6189               	.LBB865:
 6190               	.LBB866:
 6191               	.LM666:
 6192 2178 2150      		subi r18,lo8(-(-1))
 6193 217a 3040      		sbci r19,hi8(-(-1))
 6194 217c 8FEF      		ldi r24,hi8(-1)
 6195 217e 2F3F      		cpi r18,lo8(-1)
 6196 2180 3807      		cpc r19,r24
 6197 2182 01F0      		breq .L474
 6198 2184 9C91      		ld r25,X
 6199               	.LVL508:
 6200 2186 8081      		ld r24,Z
 6201 2188 9817      		cp r25,r24
 6202 218a 01F4      		brne .L476
 6203 218c 1196      		adiw r26,1
 6204 218e 3196      		adiw r30,1
 6205 2190 00C0      		rjmp .L477
 6206               	.LVL509:
 6207               	.L476:
 6208               	.LBE866:
 6209               	.LBE865:
 6210               	.LBE867:
 6211               	.LM667:
 6212 2192 CE01      		movw r24,r28
 6213 2194 60E0      		ldi r22,lo8(0)
 6214 2196 0E94 0000 		call dir_next
 6215               	.LVL510:
 6216 219a 00C0      		rjmp .L489
 6217               	.LVL511:
 6218               	.L474:
 6219               	.LBE863:
 6220               	.LM668:
 6221 219c EC89      		ldd r30,Y+20
 6222 219e FD89      		ldd r31,Y+21
 6223               	.LVL512:
 6224 21a0 9385      		ldd r25,Z+11
 6225               	.LVL513:
 6226 21a2 9470      		andi r25,lo8(4)
 6227               	.LM669:
 6228 21a4 4423      		tst r20
 6229 21a6 01F0      		breq .L479
 6230 21a8 842F      		mov r24,r20
 6231               	.LM670:
 6232 21aa 4430      		cpi r20,lo8(4)
 6233 21ac 01F4      		brne .L480
 6234 21ae 9923      		tst r25
 6235 21b0 01F0      		breq .L481
 6236 21b2 00C0      		rjmp .L452
 6237               	.L479:
 6238               	.LM671:
 6239 21b4 9923      		tst r25
 6240 21b6 01F4      		brne .L480
 6241               	.LM672:
 6242 21b8 EA89      		ldd r30,Y+18
 6243 21ba FB89      		ldd r31,Y+19
 6244               	.LVL514:
 6245               	.LM673:
 6246 21bc 8385      		ldd r24,Z+11
 6247 21be 84FF      		sbrs r24,4
 6248 21c0 00C0      		rjmp .L481
 6249               	.LBB868:
 6250               	.LBB862:
 6251               	.LM674:
 6252 21c2 EC0C      		add r14,r12
 6253 21c4 FD1C      		adc r15,r13
 6254               	.LBE862:
 6255               	.LBE868:
 6256               	.LM675:
 6257 21c6 7588      		ldd r7,Z+21
 6258 21c8 6624      		clr r6
 6259 21ca 2489      		ldd r18,Z+20
 6260               	.LVL515:
 6261 21cc 30E0      		ldi r19,lo8(0)
 6262 21ce 2629      		or r18,r6
 6263 21d0 3729      		or r19,r7
 6264 21d2 40E0      		ldi r20,lo8(0)
 6265 21d4 50E0      		ldi r21,hi8(0)
 6266               	.LVL516:
 6267 21d6 A901      		movw r20,r18
 6268 21d8 3327      		clr r19
 6269 21da 2227      		clr r18
 6270               	.LVL517:
 6271 21dc 938C      		ldd r9,Z+27
 6272 21de 8824      		clr r8
 6273 21e0 828D      		ldd r24,Z+26
 6274 21e2 90E0      		ldi r25,lo8(0)
 6275 21e4 8829      		or r24,r8
 6276 21e6 9929      		or r25,r9
 6277 21e8 A0E0      		ldi r26,lo8(0)
 6278 21ea B0E0      		ldi r27,hi8(0)
 6279               	.LVL518:
 6280 21ec 282B      		or r18,r24
 6281 21ee 392B      		or r19,r25
 6282 21f0 4A2B      		or r20,r26
 6283 21f2 5B2B      		or r21,r27
 6284 21f4 2E83      		std Y+6,r18
 6285 21f6 3F83      		std Y+7,r19
 6286 21f8 4887      		std Y+8,r20
 6287 21fa 5987      		std Y+9,r21
 6288 21fc 00C0      		rjmp .L487
 6289               	.LVL519:
 6290               	.L459:
 6291               	.LM676:
 6292 21fe 86E0      		ldi r24,lo8(6)
 6293               	.LVL520:
 6294 2200 00C0      		rjmp .L452
 6295               	.LVL521:
 6296               	.L480:
 6297 2202 842F      		mov r24,r20
 6298 2204 00C0      		rjmp .L452
 6299               	.LVL522:
 6300               	.L481:
 6301 2206 85E0      		ldi r24,lo8(5)
 6302               	.LVL523:
 6303               	.L452:
 6304               	.LVL524:
 6305               	/* epilogue start */
 6306               	.LM677:
 6307 2208 DF91      		pop r29
 6308 220a CF91      		pop r28
 6309               	.LVL525:
 6310 220c 1F91      		pop r17
 6311               	.LVL526:
 6312 220e 0F91      		pop r16
 6313 2210 FF90      		pop r15
 6314 2212 EF90      		pop r14
 6315               	.LVL527:
 6316 2214 DF90      		pop r13
 6317 2216 CF90      		pop r12
 6318               	.LVL528:
 6319 2218 BF90      		pop r11
 6320 221a AF90      		pop r10
 6321               	.LVL529:
 6322 221c 9F90      		pop r9
 6323 221e 8F90      		pop r8
 6324 2220 7F90      		pop r7
 6325 2222 6F90      		pop r6
 6326 2224 5F90      		pop r5
 6327 2226 0895      		ret
 6328               	.LVL530:
 6329               	.L456:
 6330               	.LM678:
 6331 2228 912F      		mov r25,r17
 6332 222a 60E0      		ldi r22,lo8(0)
 6333               	.LVL531:
 6334 222c 00C0      		rjmp .L482
 6335               	.LFE76:
 6338               	check_fs:
 6339               	.LFB77:
 6340               	.LM679:
 6341               	.LVL532:
 6342 222e 0F93      		push r16
 6343 2230 CF93      		push r28
 6344 2232 DF93      		push r29
 6345               	/* prologue: function */
 6346               	/* frame size = 0 */
 6347 2234 EC01      		movw r28,r24
 6348 2236 9A01      		movw r18,r20
 6349 2238 AB01      		movw r20,r22
 6350               	.LM680:
 6351 223a BC01      		movw r22,r24
 6352 223c 625D      		subi r22,lo8(-(46))
 6353 223e 7F4F      		sbci r23,hi8(-(46))
 6354 2240 8981      		ldd r24,Y+1
 6355               	.LVL533:
 6356 2242 01E0      		ldi r16,lo8(1)
 6357 2244 0E94 0000 		call disk_read
 6358               	.LVL534:
 6359 2248 8823      		tst r24
 6360 224a 01F0      		breq .L491
 6361 224c 63E0      		ldi r22,lo8(3)
 6362 224e 00C0      		rjmp .L492
 6363               	.L491:
 6364               	.LM681:
 6365 2250 C35D      		subi r28,lo8(-(557))
 6366 2252 DD4F      		sbci r29,hi8(-(557))
 6367 2254 9881      		ld r25,Y
 6368 2256 80E0      		ldi r24,lo8(0)
 6369 2258 2A91      		ld r18,-Y
 6370 225a CC52      		subi r28,lo8(-(-556))
 6371 225c D240      		sbci r29,hi8(-(-556))
 6372 225e 30E0      		ldi r19,lo8(0)
 6373 2260 822B      		or r24,r18
 6374 2262 932B      		or r25,r19
 6375 2264 8555      		subi r24,lo8(-21931)
 6376 2266 9A4A      		sbci r25,hi8(-21931)
 6377 2268 01F0      		breq .L493
 6378 226a 62E0      		ldi r22,lo8(2)
 6379 226c 00C0      		rjmp .L492
 6380               	.L493:
 6381               	.LM682:
 6382 226e C959      		subi r28,lo8(-(103))
 6383 2270 DF4F      		sbci r29,hi8(-(103))
 6384 2272 2881      		ld r18,Y
 6385 2274 30E0      		ldi r19,lo8(0)
 6386 2276 40E0      		ldi r20,lo8(0)
 6387 2278 50E0      		ldi r21,hi8(0)
 6388 227a 522F      		mov r21,r18
 6389 227c 4427      		clr r20
 6390 227e 3327      		clr r19
 6391 2280 2227      		clr r18
 6392 2282 8A91      		ld r24,-Y
 6393 2284 90E0      		ldi r25,lo8(0)
 6394 2286 A0E0      		ldi r26,lo8(0)
 6395 2288 B0E0      		ldi r27,hi8(0)
 6396 228a DC01      		movw r26,r24
 6397 228c 9927      		clr r25
 6398 228e 8827      		clr r24
 6399 2290 282B      		or r18,r24
 6400 2292 392B      		or r19,r25
 6401 2294 4A2B      		or r20,r26
 6402 2296 5B2B      		or r21,r27
 6403 2298 2297      		sbiw r28,2
 6404 229a 8991      		ld r24,Y+
 6405 229c 90E0      		ldi r25,lo8(0)
 6406 229e A0E0      		ldi r26,lo8(0)
 6407 22a0 B0E0      		ldi r27,hi8(0)
 6408 22a2 282B      		or r18,r24
 6409 22a4 392B      		or r19,r25
 6410 22a6 4A2B      		or r20,r26
 6411 22a8 5B2B      		or r21,r27
 6412 22aa 9881      		ld r25,Y
 6413 22ac C556      		subi r28,lo8(-(-101))
 6414 22ae D040      		sbci r29,hi8(-(-101))
 6415 22b0 80E0      		ldi r24,lo8(0)
 6416 22b2 A0E0      		ldi r26,lo8(0)
 6417 22b4 B0E0      		ldi r27,hi8(0)
 6418 22b6 282B      		or r18,r24
 6419 22b8 392B      		or r19,r25
 6420 22ba 4A2B      		or r20,r26
 6421 22bc 5B2B      		or r21,r27
 6422 22be 5070      		andi r21,hhi8(16777215)
 6423 22c0 2654      		subi r18,lo8(5521734)
 6424 22c2 3144      		sbci r19,hi8(5521734)
 6425 22c4 4445      		sbci r20,hlo8(5521734)
 6426 22c6 5040      		sbci r21,hhi8(5521734)
 6427 22c8 01F4      		brne .L494
 6428 22ca 60E0      		ldi r22,lo8(0)
 6429 22cc 00C0      		rjmp .L492
 6430               	.L494:
 6431 22ce 60E0      		ldi r22,lo8(0)
 6432 22d0 CD57      		subi r28,lo8(-(131))
 6433 22d2 DF4F      		sbci r29,hi8(-(131))
 6434 22d4 2881      		ld r18,Y
 6435 22d6 30E0      		ldi r19,lo8(0)
 6436 22d8 40E0      		ldi r20,lo8(0)
 6437 22da 50E0      		ldi r21,hi8(0)
 6438 22dc 522F      		mov r21,r18
 6439 22de 4427      		clr r20
 6440 22e0 3327      		clr r19
 6441 22e2 2227      		clr r18
 6442 22e4 8A91      		ld r24,-Y
 6443 22e6 90E0      		ldi r25,lo8(0)
 6444 22e8 A0E0      		ldi r26,lo8(0)
 6445 22ea B0E0      		ldi r27,hi8(0)
 6446 22ec DC01      		movw r26,r24
 6447 22ee 9927      		clr r25
 6448 22f0 8827      		clr r24
 6449 22f2 282B      		or r18,r24
 6450 22f4 392B      		or r19,r25
 6451 22f6 4A2B      		or r20,r26
 6452 22f8 5B2B      		or r21,r27
 6453 22fa 2297      		sbiw r28,2
 6454 22fc 8991      		ld r24,Y+
 6455 22fe 90E0      		ldi r25,lo8(0)
 6456 2300 A0E0      		ldi r26,lo8(0)
 6457 2302 B0E0      		ldi r27,hi8(0)
 6458 2304 282B      		or r18,r24
 6459 2306 392B      		or r19,r25
 6460 2308 4A2B      		or r20,r26
 6461 230a 5B2B      		or r21,r27
 6462 230c 9881      		ld r25,Y
 6463               	.LVL535:
 6464 230e 80E0      		ldi r24,lo8(0)
 6465 2310 A0E0      		ldi r26,lo8(0)
 6466 2312 B0E0      		ldi r27,hi8(0)
 6467 2314 282B      		or r18,r24
 6468 2316 392B      		or r19,r25
 6469 2318 4A2B      		or r20,r26
 6470 231a 5B2B      		or r21,r27
 6471 231c 5070      		andi r21,hhi8(16777215)
 6472 231e 2654      		subi r18,lo8(5521734)
 6473 2320 3144      		sbci r19,hi8(5521734)
 6474 2322 4445      		sbci r20,hlo8(5521734)
 6475 2324 5040      		sbci r21,hhi8(5521734)
 6476 2326 01F0      		breq .L492
 6477 2328 61E0      		ldi r22,lo8(1)
 6478               	.LVL536:
 6479               	.L492:
 6480               	.LM683:
 6481 232a 862F      		mov r24,r22
 6482               	/* epilogue start */
 6483 232c DF91      		pop r29
 6484 232e CF91      		pop r28
 6485               	.LVL537:
 6486 2330 0F91      		pop r16
 6487 2332 0895      		ret
 6488               	.LFE77:
 6490               	.global	chk_mounted
 6492               	chk_mounted:
 6493               	.LFB78:
 6494               	.LM684:
 6495               	.LVL538:
 6496 2334 6F92      		push r6
 6497 2336 7F92      		push r7
 6498 2338 8F92      		push r8
 6499 233a 9F92      		push r9
 6500 233c AF92      		push r10
 6501 233e BF92      		push r11
 6502 2340 CF92      		push r12
 6503 2342 DF92      		push r13
 6504 2344 EF92      		push r14
 6505 2346 FF92      		push r15
 6506 2348 0F93      		push r16
 6507 234a 1F93      		push r17
 6508 234c CF93      		push r28
 6509 234e DF93      		push r29
 6510               	/* prologue: function */
 6511               	/* frame size = 0 */
 6512 2350 DC01      		movw r26,r24
 6513 2352 142F      		mov r17,r20
 6514               	.LM685:
 6515 2354 ED91      		ld r30,X+
 6516 2356 FC91      		ld r31,X
 6517 2358 1197      		sbiw r26,1
 6518               	.LVL539:
 6519               	.LM686:
 6520 235a 8081      		ld r24,Z
 6521               	.LVL540:
 6522 235c 282F      		mov r18,r24
 6523               	.LVL541:
 6524 235e 30E0      		ldi r19,lo8(0)
 6525               	.LVL542:
 6526 2360 2053      		subi r18,lo8(-(-48))
 6527 2362 3040      		sbci r19,hi8(-(-48))
 6528               	.LVL543:
 6529               	.LM687:
 6530 2364 2A30      		cpi r18,10
 6531 2366 3105      		cpc r19,__zero_reg__
 6532 2368 00F4      		brsh .L498
 6533               	.LVL544:
 6534 236a 8181      		ldd r24,Z+1
 6535 236c 8A33      		cpi r24,lo8(58)
 6536 236e 01F4      		brne .L498
 6537               	.LM688:
 6538 2370 3296      		adiw r30,2
 6539 2372 ED93      		st X+,r30
 6540 2374 FC93      		st X,r31
 6541               	.LM689:
 6542 2376 232B      		or r18,r19
 6543 2378 01F0      		breq .L498
 6544 237a 8BE0      		ldi r24,lo8(11)
 6545 237c 00C0      		rjmp .L499
 6546               	.L498:
 6547               	.LM690:
 6548 237e C091 0000 		lds r28,FatFs
 6549 2382 D091 0000 		lds r29,(FatFs)+1
 6550               	.LVL545:
 6551 2386 FB01      		movw r30,r22
 6552               	.LVL546:
 6553 2388 C083      		st Z,r28
 6554 238a D183      		std Z+1,r29
 6555               	.LM691:
 6556 238c 2097      		sbiw r28,0
 6557 238e 01F4      		brne .L500
 6558 2390 8CE0      		ldi r24,lo8(12)
 6559 2392 00C0      		rjmp .L499
 6560               	.L500:
 6561               	.LM692:
 6562 2394 8881      		ld r24,Y
 6563 2396 8823      		tst r24
 6564 2398 01F0      		breq .L501
 6565               	.LBB869:
 6566               	.LBB870:
 6567               	.LM693:
 6568 239a 8981      		ldd r24,Y+1
 6569 239c 8823      		tst r24
 6570 239e 01F0      		breq .L502
 6571 23a0 81E0      		ldi r24,lo8(1)
 6572               	.LVL547:
 6573 23a2 00C0      		rjmp .L503
 6574               	.LVL548:
 6575               	.L502:
 6576               	.LM694:
 6577 23a4 8091 0000 		lds r24,Stat
 6578               	.LVL549:
 6579               	.L503:
 6580               	.LBE870:
 6581               	.LBE869:
 6582               	.LM695:
 6583 23a8 80FD      		sbrc r24,0
 6584 23aa 00C0      		rjmp .L501
 6585               	.LVL550:
 6586               	.LM696:
 6587 23ac 1123      		tst r17
 6588 23ae 01F4      		brne .+2
 6589 23b0 00C0      		rjmp .L504
 6590 23b2 82FD      		sbrc r24,2
 6591 23b4 00C0      		rjmp .L505
 6592 23b6 00C0      		rjmp .L504
 6593               	.L501:
 6594               	.LM697:
 6595 23b8 1882      		st Y,__zero_reg__
 6596               	.LM698:
 6597 23ba 1982      		std Y+1,__zero_reg__
 6598               	.LM699:
 6599 23bc 80E0      		ldi r24,lo8(0)
 6600 23be 0E94 0000 		call disk_initialize
 6601               	.LVL551:
 6602               	.LM700:
 6603 23c2 80FF      		sbrs r24,0
 6604 23c4 00C0      		rjmp .L506
 6605 23c6 83E0      		ldi r24,lo8(3)
 6606 23c8 00C0      		rjmp .L499
 6607               	.L506:
 6608               	.LM701:
 6609 23ca 1123      		tst r17
 6610 23cc 01F0      		breq .L507
 6611 23ce 82FD      		sbrc r24,2
 6612 23d0 00C0      		rjmp .L505
 6613               	.L507:
 6614               	.LM702:
 6615 23d2 CE01      		movw r24,r28
 6616 23d4 40E0      		ldi r20,lo8(0)
 6617 23d6 50E0      		ldi r21,hi8(0)
 6618 23d8 60E0      		ldi r22,hlo8(0)
 6619 23da 70E0      		ldi r23,hhi8(0)
 6620 23dc 0E94 0000 		call check_fs
 6621               	.LM703:
 6622 23e0 8130      		cpi r24,lo8(1)
 6623               	.LVL552:
 6624 23e2 01F0      		breq .L508
 6625 23e4 AA24      		clr r10
 6626 23e6 BB24      		clr r11
 6627 23e8 6501      		movw r12,r10
 6628               	.LVL553:
 6629 23ea 00C0      		rjmp .L509
 6630               	.LVL554:
 6631               	.L508:
 6632               	.LM704:
 6633 23ec FE01      		movw r30,r28
 6634               	.LVL555:
 6635 23ee E451      		subi r30,lo8(-(492))
 6636 23f0 FE4F      		sbci r31,hi8(-(492))
 6637               	.LM705:
 6638 23f2 8481      		ldd r24,Z+4
 6639               	.LVL556:
 6640 23f4 8823      		tst r24
 6641 23f6 01F4      		brne .+2
 6642 23f8 00C0      		rjmp .L510
 6643               	.LM706:
 6644 23fa 8385      		ldd r24,Z+11
 6645 23fc 90E0      		ldi r25,lo8(0)
 6646 23fe A0E0      		ldi r26,lo8(0)
 6647 2400 B0E0      		ldi r27,hi8(0)
 6648 2402 D82E      		mov r13,r24
 6649 2404 CC24      		clr r12
 6650 2406 BB24      		clr r11
 6651 2408 AA24      		clr r10
 6652               	.LVL557:
 6653 240a 8285      		ldd r24,Z+10
 6654 240c 90E0      		ldi r25,lo8(0)
 6655 240e A0E0      		ldi r26,lo8(0)
 6656 2410 B0E0      		ldi r27,hi8(0)
 6657 2412 DC01      		movw r26,r24
 6658 2414 9927      		clr r25
 6659 2416 8827      		clr r24
 6660 2418 A82A      		or r10,r24
 6661 241a B92A      		or r11,r25
 6662 241c CA2A      		or r12,r26
 6663 241e DB2A      		or r13,r27
 6664 2420 8085      		ldd r24,Z+8
 6665 2422 90E0      		ldi r25,lo8(0)
 6666 2424 A0E0      		ldi r26,lo8(0)
 6667 2426 B0E0      		ldi r27,hi8(0)
 6668 2428 A82A      		or r10,r24
 6669 242a B92A      		or r11,r25
 6670 242c CA2A      		or r12,r26
 6671 242e DB2A      		or r13,r27
 6672 2430 9185      		ldd r25,Z+9
 6673 2432 80E0      		ldi r24,lo8(0)
 6674 2434 A0E0      		ldi r26,lo8(0)
 6675 2436 B0E0      		ldi r27,hi8(0)
 6676 2438 A82A      		or r10,r24
 6677 243a B92A      		or r11,r25
 6678 243c CA2A      		or r12,r26
 6679 243e DB2A      		or r13,r27
 6680               	.LM707:
 6681 2440 CE01      		movw r24,r28
 6682 2442 B601      		movw r22,r12
 6683 2444 A501      		movw r20,r10
 6684 2446 0E94 0000 		call check_fs
 6685               	.LVL558:
 6686               	.L509:
 6687               	.LM708:
 6688 244a 8330      		cpi r24,lo8(3)
 6689 244c 01F4      		brne .L511
 6690 244e 81E0      		ldi r24,lo8(1)
 6691               	.LVL559:
 6692 2450 00C0      		rjmp .L499
 6693               	.LVL560:
 6694               	.L511:
 6695               	.LM709:
 6696 2452 8823      		tst r24
 6697 2454 01F0      		breq .+2
 6698 2456 00C0      		rjmp .L510
 6699 2458 9AAD      		ldd r25,Y+58
 6700 245a 80E0      		ldi r24,lo8(0)
 6701               	.LVL561:
 6702 245c 29AD      		ldd r18,Y+57
 6703 245e 30E0      		ldi r19,lo8(0)
 6704 2460 822B      		or r24,r18
 6705 2462 932B      		or r25,r19
 6706 2464 8050      		subi r24,lo8(512)
 6707 2466 9240      		sbci r25,hi8(512)
 6708 2468 01F0      		breq .+2
 6709 246a 00C0      		rjmp .L510
 6710               	.LM710:
 6711 246c CB5B      		subi r28,lo8(-(69))
 6712 246e DF4F      		sbci r29,hi8(-(69))
 6713 2470 9881      		ld r25,Y
 6714 2472 80E0      		ldi r24,lo8(0)
 6715 2474 2A91      		ld r18,-Y
 6716 2476 C454      		subi r28,lo8(-(-68))
 6717 2478 D040      		sbci r29,hi8(-(-68))
 6718 247a 30E0      		ldi r19,lo8(0)
 6719 247c 822B      		or r24,r18
 6720 247e 932B      		or r25,r19
 6721 2480 7C01      		movw r14,r24
 6722               	.LVL562:
 6723 2482 00E0      		ldi r16,lo8(0)
 6724 2484 10E0      		ldi r17,hi8(0)
 6725               	.LVL563:
 6726               	.LM711:
 6727 2486 E114      		cp r14,__zero_reg__
 6728 2488 F104      		cpc r15,__zero_reg__
 6729 248a 0105      		cpc r16,__zero_reg__
 6730 248c 1105      		cpc r17,__zero_reg__
 6731 248e 01F4      		brne .L512
 6732 2490 CB5A      		subi r28,lo8(-(85))
 6733 2492 DF4F      		sbci r29,hi8(-(85))
 6734 2494 8881      		ld r24,Y
 6735 2496 90E0      		ldi r25,lo8(0)
 6736 2498 A0E0      		ldi r26,lo8(0)
 6737 249a B0E0      		ldi r27,hi8(0)
 6738 249c 182F      		mov r17,r24
 6739 249e 0027      		clr r16
 6740 24a0 FF24      		clr r15
 6741 24a2 EE24      		clr r14
 6742               	.LVL564:
 6743 24a4 8A91      		ld r24,-Y
 6744 24a6 90E0      		ldi r25,lo8(0)
 6745 24a8 A0E0      		ldi r26,lo8(0)
 6746 24aa B0E0      		ldi r27,hi8(0)
 6747 24ac DC01      		movw r26,r24
 6748 24ae 9927      		clr r25
 6749 24b0 8827      		clr r24
 6750 24b2 E82A      		or r14,r24
 6751 24b4 F92A      		or r15,r25
 6752 24b6 0A2B      		or r16,r26
 6753 24b8 1B2B      		or r17,r27
 6754 24ba 2297      		sbiw r28,2
 6755 24bc 8991      		ld r24,Y+
 6756 24be 90E0      		ldi r25,lo8(0)
 6757 24c0 A0E0      		ldi r26,lo8(0)
 6758 24c2 B0E0      		ldi r27,hi8(0)
 6759 24c4 E82A      		or r14,r24
 6760 24c6 F92A      		or r15,r25
 6761 24c8 0A2B      		or r16,r26
 6762 24ca 1B2B      		or r17,r27
 6763 24cc 9881      		ld r25,Y
 6764 24ce C355      		subi r28,lo8(-(-83))
 6765 24d0 D040      		sbci r29,hi8(-(-83))
 6766 24d2 80E0      		ldi r24,lo8(0)
 6767 24d4 A0E0      		ldi r26,lo8(0)
 6768 24d6 B0E0      		ldi r27,hi8(0)
 6769 24d8 E82A      		or r14,r24
 6770 24da F92A      		or r15,r25
 6771 24dc 0A2B      		or r16,r26
 6772 24de 1B2B      		or r17,r27
 6773               	.L512:
 6774               	.LM712:
 6775 24e0 EE8A      		std Y+22,r14
 6776 24e2 FF8A      		std Y+23,r15
 6777 24e4 088F      		std Y+24,r16
 6778 24e6 198F      		std Y+25,r17
 6779               	.LM713:
 6780 24e8 2EAD      		ldd r18,Y+62
 6781 24ea 2B83      		std Y+3,r18
 6782               	.LM714:
 6783 24ec 30E0      		ldi r19,lo8(0)
 6784 24ee 40E0      		ldi r20,lo8(0)
 6785 24f0 50E0      		ldi r21,hi8(0)
 6786 24f2 C801      		movw r24,r16
 6787 24f4 B701      		movw r22,r14
 6788 24f6 0E94 0000 		call __mulsi3
 6789 24fa 3B01      		movw r6,r22
 6790 24fc 4C01      		movw r8,r24
 6791               	.LVL565:
 6792               	.LM715:
 6793 24fe 9DAD      		ldd r25,Y+61
 6794 2500 80E0      		ldi r24,lo8(0)
 6795 2502 2CAD      		ldd r18,Y+60
 6796 2504 30E0      		ldi r19,lo8(0)
 6797 2506 822B      		or r24,r18
 6798 2508 932B      		or r25,r19
 6799 250a A0E0      		ldi r26,lo8(0)
 6800 250c B0E0      		ldi r27,hi8(0)
 6801 250e 8A0D      		add r24,r10
 6802 2510 9B1D      		adc r25,r11
 6803 2512 AC1D      		adc r26,r12
 6804 2514 BD1D      		adc r27,r13
 6805 2516 8E8F      		std Y+30,r24
 6806 2518 9F8F      		std Y+31,r25
 6807 251a A8A3      		std Y+32,r26
 6808 251c B9A3      		std Y+33,r27
 6809               	.LM716:
 6810 251e 8BAD      		ldd r24,Y+59
 6811 2520 8A83      		std Y+2,r24
 6812               	.LM717:
 6813 2522 C05C      		subi r28,lo8(-(64))
 6814 2524 DF4F      		sbci r29,hi8(-(64))
 6815 2526 9881      		ld r25,Y
 6816 2528 C054      		subi r28,lo8(-(-64))
 6817 252a D040      		sbci r29,hi8(-(-64))
 6818 252c 80E0      		ldi r24,lo8(0)
 6819 252e 2FAD      		ldd r18,Y+63
 6820 2530 422F      		mov r20,r18
 6821 2532 50E0      		ldi r21,lo8(0)
 6822 2534 482B      		or r20,r24
 6823 2536 592B      		or r21,r25
 6824 2538 4887      		std Y+8,r20
 6825 253a 5987      		std Y+9,r21
 6826               	.LM718:
 6827 253c CE5B      		subi r28,lo8(-(66))
 6828 253e DF4F      		sbci r29,hi8(-(66))
 6829 2540 9881      		ld r25,Y
 6830 2542 80E0      		ldi r24,lo8(0)
 6831 2544 2A91      		ld r18,-Y
 6832 2546 C154      		subi r28,lo8(-(-65))
 6833 2548 D040      		sbci r29,hi8(-(-65))
 6834 254a 30E0      		ldi r19,lo8(0)
 6835 254c 822B      		or r24,r18
 6836 254e 932B      		or r25,r19
 6837 2550 7C01      		movw r14,r24
 6838               	.LVL566:
 6839 2552 00E0      		ldi r16,lo8(0)
 6840 2554 10E0      		ldi r17,hi8(0)
 6841               	.LVL567:
 6842               	.LM719:
 6843 2556 E114      		cp r14,__zero_reg__
 6844 2558 F104      		cpc r15,__zero_reg__
 6845 255a 0105      		cpc r16,__zero_reg__
 6846 255c 1105      		cpc r17,__zero_reg__
 6847 255e 01F4      		brne .L513
 6848 2560 CF5A      		subi r28,lo8(-(81))
 6849 2562 DF4F      		sbci r29,hi8(-(81))
 6850 2564 8881      		ld r24,Y
 6851 2566 90E0      		ldi r25,lo8(0)
 6852 2568 A0E0      		ldi r26,lo8(0)
 6853 256a B0E0      		ldi r27,hi8(0)
 6854 256c 182F      		mov r17,r24
 6855 256e 0027      		clr r16
 6856 2570 FF24      		clr r15
 6857 2572 EE24      		clr r14
 6858               	.LVL568:
 6859 2574 8A91      		ld r24,-Y
 6860 2576 90E0      		ldi r25,lo8(0)
 6861 2578 A0E0      		ldi r26,lo8(0)
 6862 257a B0E0      		ldi r27,hi8(0)
 6863 257c DC01      		movw r26,r24
 6864 257e 9927      		clr r25
 6865 2580 8827      		clr r24
 6866 2582 E82A      		or r14,r24
 6867 2584 F92A      		or r15,r25
 6868 2586 0A2B      		or r16,r26
 6869 2588 1B2B      		or r17,r27
 6870 258a 2297      		sbiw r28,2
 6871 258c 8991      		ld r24,Y+
 6872 258e 90E0      		ldi r25,lo8(0)
 6873 2590 A0E0      		ldi r26,lo8(0)
 6874 2592 B0E0      		ldi r27,hi8(0)
 6875 2594 E82A      		or r14,r24
 6876 2596 F92A      		or r15,r25
 6877 2598 0A2B      		or r16,r26
 6878 259a 1B2B      		or r17,r27
 6879 259c 9881      		ld r25,Y
 6880 259e CF54      		subi r28,lo8(-(-79))
 6881 25a0 D040      		sbci r29,hi8(-(-79))
 6882 25a2 80E0      		ldi r24,lo8(0)
 6883 25a4 A0E0      		ldi r26,lo8(0)
 6884 25a6 B0E0      		ldi r27,hi8(0)
 6885 25a8 E82A      		or r14,r24
 6886 25aa F92A      		or r15,r25
 6887 25ac 0A2B      		or r16,r26
 6888 25ae 1B2B      		or r17,r27
 6889               	.L513:
 6890               	.LM720:
 6891 25b0 9DAD      		ldd r25,Y+61
 6892 25b2 80E0      		ldi r24,lo8(0)
 6893 25b4 2CAD      		ldd r18,Y+60
 6894 25b6 30E0      		ldi r19,lo8(0)
 6895 25b8 822B      		or r24,r18
 6896 25ba 932B      		or r25,r19
 6897 25bc A0E0      		ldi r26,lo8(0)
 6898 25be B0E0      		ldi r27,hi8(0)
 6899 25c0 E81A      		sub r14,r24
 6900 25c2 F90A      		sbc r15,r25
 6901 25c4 0A0B      		sbc r16,r26
 6902 25c6 1B0B      		sbc r17,r27
 6903               	.LVL569:
 6904 25c8 E618      		sub r14,r6
 6905 25ca F708      		sbc r15,r7
 6906 25cc 0809      		sbc r16,r8
 6907 25ce 1909      		sbc r17,r9
 6908 25d0 F4E0      		ldi r31,4
 6909 25d2 5695      	1:	lsr r21
 6910 25d4 4795      		ror r20
 6911 25d6 FA95      		dec r31
 6912 25d8 01F4      		brne 1b
 6913 25da CA01      		movw r24,r20
 6914 25dc A0E0      		ldi r26,lo8(0)
 6915 25de B0E0      		ldi r27,hi8(0)
 6916 25e0 E81A      		sub r14,r24
 6917 25e2 F90A      		sbc r15,r25
 6918 25e4 0A0B      		sbc r16,r26
 6919 25e6 1B0B      		sbc r17,r27
 6920 25e8 2A81      		ldd r18,Y+2
 6921 25ea 30E0      		ldi r19,lo8(0)
 6922 25ec 40E0      		ldi r20,lo8(0)
 6923 25ee 50E0      		ldi r21,hi8(0)
 6924 25f0 C801      		movw r24,r16
 6925 25f2 B701      		movw r22,r14
 6926 25f4 0E94 0000 		call __udivmodsi4
 6927 25f8 2E5F      		subi r18,lo8(-(2))
 6928 25fa 3F4F      		sbci r19,hi8(-(2))
 6929 25fc 4F4F      		sbci r20,hlo8(-(2))
 6930 25fe 5F4F      		sbci r21,hhi8(-(2))
 6931               	.LVL570:
 6932 2600 2A8F      		std Y+26,r18
 6933 2602 3B8F      		std Y+27,r19
 6934 2604 4C8F      		std Y+28,r20
 6935 2606 5D8F      		std Y+29,r21
 6936               	.LM721:
 6937 2608 273F      		cpi r18,lo8(4087)
 6938 260a 8FE0      		ldi r24,hi8(4087)
 6939 260c 3807      		cpc r19,r24
 6940 260e 80E0      		ldi r24,hlo8(4087)
 6941 2610 4807      		cpc r20,r24
 6942 2612 80E0      		ldi r24,hhi8(4087)
 6943 2614 5807      		cpc r21,r24
 6944 2616 00F4      		brsh .L514
 6945 2618 11E0      		ldi r17,lo8(1)
 6946               	.LVL571:
 6947 261a 00C0      		rjmp .L515
 6948               	.LVL572:
 6949               	.L514:
 6950               	.LM722:
 6951 261c 275F      		subi r18,lo8(65527)
 6952 261e 3F4F      		sbci r19,hi8(65527)
 6953 2620 4040      		sbci r20,hlo8(65527)
 6954 2622 5040      		sbci r21,hhi8(65527)
 6955 2624 00F0      		brlo .+2
 6956 2626 00C0      		rjmp .L516
 6957 2628 12E0      		ldi r17,lo8(2)
 6958               	.LVL573:
 6959               	.L515:
 6960               	.LM723:
 6961 262a 8E8D      		ldd r24,Y+30
 6962 262c 9F8D      		ldd r25,Y+31
 6963 262e A8A1      		ldd r26,Y+32
 6964 2630 B9A1      		ldd r27,Y+33
 6965 2632 860D      		add r24,r6
 6966 2634 971D      		adc r25,r7
 6967 2636 A81D      		adc r26,r8
 6968 2638 B91D      		adc r27,r9
 6969 263a 8AA3      		std Y+34,r24
 6970 263c 9BA3      		std Y+35,r25
 6971 263e ACA3      		std Y+36,r26
 6972 2640 BDA3      		std Y+37,r27
 6973               	.L518:
 6974               	.LM724:
 6975 2642 8885      		ldd r24,Y+8
 6976 2644 9985      		ldd r25,Y+9
 6977 2646 E4E0      		ldi r30,4
 6978 2648 9695      	1:	lsr r25
 6979 264a 8795      		ror r24
 6980 264c EA95      		dec r30
 6981 264e 01F4      		brne 1b
 6982 2650 A0E0      		ldi r26,lo8(0)
 6983 2652 B0E0      		ldi r27,hi8(0)
 6984 2654 2E8D      		ldd r18,Y+30
 6985 2656 3F8D      		ldd r19,Y+31
 6986 2658 48A1      		ldd r20,Y+32
 6987 265a 59A1      		ldd r21,Y+33
 6988               	.LVL574:
 6989 265c 820F      		add r24,r18
 6990 265e 931F      		adc r25,r19
 6991 2660 A41F      		adc r26,r20
 6992 2662 B51F      		adc r27,r21
 6993 2664 860D      		add r24,r6
 6994 2666 971D      		adc r25,r7
 6995 2668 A81D      		adc r26,r8
 6996 266a B91D      		adc r27,r9
 6997 266c 8EA3      		std Y+38,r24
 6998 266e 9FA3      		std Y+39,r25
 6999 2670 A8A7      		std Y+40,r26
 7000 2672 B9A7      		std Y+41,r27
 7001               	.LM725:
 7002 2674 8FEF      		ldi r24,lo8(-1)
 7003 2676 9FEF      		ldi r25,hi8(-1)
 7004 2678 AFEF      		ldi r26,hlo8(-1)
 7005 267a BFEF      		ldi r27,hhi8(-1)
 7006 267c 8E87      		std Y+14,r24
 7007 267e 9F87      		std Y+15,r25
 7008 2680 A88B      		std Y+16,r26
 7009 2682 B98B      		std Y+17,r27
 7010               	.LM726:
 7011 2684 1C82      		std Y+4,__zero_reg__
 7012               	.LM727:
 7013 2686 1330      		cpi r17,lo8(3)
 7014 2688 01F0      		breq .+2
 7015 268a 00C0      		rjmp .L517
 7016               	.LM728:
 7017 268c 1D82      		std Y+5,__zero_reg__
 7018               	.LM729:
 7019 268e C15A      		subi r28,lo8(-(95))
 7020 2690 DF4F      		sbci r29,hi8(-(95))
 7021 2692 3881      		ld r19,Y
 7022 2694 20E0      		ldi r18,lo8(0)
 7023 2696 8A91      		ld r24,-Y
 7024 2698 CE55      		subi r28,lo8(-(-94))
 7025 269a D040      		sbci r29,hi8(-(-94))
 7026 269c 90E0      		ldi r25,lo8(0)
 7027 269e 282B      		or r18,r24
 7028 26a0 392B      		or r19,r25
 7029 26a2 40E0      		ldi r20,lo8(0)
 7030 26a4 50E0      		ldi r21,hi8(0)
 7031 26a6 2A0D      		add r18,r10
 7032 26a8 3B1D      		adc r19,r11
 7033 26aa 4C1D      		adc r20,r12
 7034 26ac 5D1D      		adc r21,r13
 7035 26ae 2A8B      		std Y+18,r18
 7036 26b0 3B8B      		std Y+19,r19
 7037 26b2 4C8B      		std Y+20,r20
 7038 26b4 5D8B      		std Y+21,r21
 7039               	.LM730:
 7040 26b6 BE01      		movw r22,r28
 7041 26b8 625D      		subi r22,lo8(-(46))
 7042 26ba 7F4F      		sbci r23,hi8(-(46))
 7043 26bc 8981      		ldd r24,Y+1
 7044 26be 01E0      		ldi r16,lo8(1)
 7045               	.LVL575:
 7046 26c0 0E94 0000 		call disk_read
 7047 26c4 8823      		tst r24
 7048 26c6 01F0      		breq .+2
 7049 26c8 00C0      		rjmp .L517
 7050 26ca C35D      		subi r28,lo8(-(557))
 7051 26cc DD4F      		sbci r29,hi8(-(557))
 7052 26ce 9881      		ld r25,Y
 7053 26d0 80E0      		ldi r24,lo8(0)
 7054 26d2 2A91      		ld r18,-Y
 7055 26d4 CC52      		subi r28,lo8(-(-556))
 7056 26d6 D240      		sbci r29,hi8(-(-556))
 7057 26d8 30E0      		ldi r19,lo8(0)
 7058 26da 822B      		or r24,r18
 7059 26dc 932B      		or r25,r19
 7060 26de 8555      		subi r24,lo8(-21931)
 7061 26e0 9A4A      		sbci r25,hi8(-21931)
 7062 26e2 01F0      		breq .+2
 7063 26e4 00C0      		rjmp .L517
 7064 26e6 29A9      		ldd r18,Y+49
 7065 26e8 30E0      		ldi r19,lo8(0)
 7066 26ea 40E0      		ldi r20,lo8(0)
 7067 26ec 50E0      		ldi r21,hi8(0)
 7068 26ee 522F      		mov r21,r18
 7069 26f0 4427      		clr r20
 7070 26f2 3327      		clr r19
 7071 26f4 2227      		clr r18
 7072 26f6 88A9      		ldd r24,Y+48
 7073 26f8 90E0      		ldi r25,lo8(0)
 7074 26fa A0E0      		ldi r26,lo8(0)
 7075 26fc B0E0      		ldi r27,hi8(0)
 7076 26fe DC01      		movw r26,r24
 7077 2700 9927      		clr r25
 7078 2702 8827      		clr r24
 7079 2704 282B      		or r18,r24
 7080 2706 392B      		or r19,r25
 7081 2708 4A2B      		or r20,r26
 7082 270a 5B2B      		or r21,r27
 7083 270c 8EA5      		ldd r24,Y+46
 7084 270e 90E0      		ldi r25,lo8(0)
 7085 2710 A0E0      		ldi r26,lo8(0)
 7086 2712 B0E0      		ldi r27,hi8(0)
 7087 2714 282B      		or r18,r24
 7088 2716 392B      		or r19,r25
 7089 2718 4A2B      		or r20,r26
 7090 271a 5B2B      		or r21,r27
 7091 271c 9FA5      		ldd r25,Y+47
 7092 271e 80E0      		ldi r24,lo8(0)
 7093 2720 A0E0      		ldi r26,lo8(0)
 7094 2722 B0E0      		ldi r27,hi8(0)
 7095 2724 282B      		or r18,r24
 7096 2726 392B      		or r19,r25
 7097 2728 4A2B      		or r20,r26
 7098 272a 5B2B      		or r21,r27
 7099 272c 2255      		subi r18,lo8(1096897106)
 7100 272e 3245      		sbci r19,hi8(1096897106)
 7101 2730 4146      		sbci r20,hlo8(1096897106)
 7102 2732 5144      		sbci r21,hhi8(1096897106)
 7103 2734 01F0      		breq .+2
 7104 2736 00C0      		rjmp .L517
 7105 2738 CB5E      		subi r28,lo8(-(533))
 7106 273a DD4F      		sbci r29,hi8(-(533))
 7107 273c 2881      		ld r18,Y
 7108 273e 30E0      		ldi r19,lo8(0)
 7109 2740 40E0      		ldi r20,lo8(0)
 7110 2742 50E0      		ldi r21,hi8(0)
 7111 2744 522F      		mov r21,r18
 7112 2746 4427      		clr r20
 7113 2748 3327      		clr r19
 7114 274a 2227      		clr r18
 7115 274c 8A91      		ld r24,-Y
 7116 274e 90E0      		ldi r25,lo8(0)
 7117 2750 A0E0      		ldi r26,lo8(0)
 7118 2752 B0E0      		ldi r27,hi8(0)
 7119 2754 DC01      		movw r26,r24
 7120 2756 9927      		clr r25
 7121 2758 8827      		clr r24
 7122 275a 282B      		or r18,r24
 7123 275c 392B      		or r19,r25
 7124 275e 4A2B      		or r20,r26
 7125 2760 5B2B      		or r21,r27
 7126 2762 2297      		sbiw r28,2
 7127 2764 8991      		ld r24,Y+
 7128 2766 90E0      		ldi r25,lo8(0)
 7129 2768 A0E0      		ldi r26,lo8(0)
 7130 276a B0E0      		ldi r27,hi8(0)
 7131 276c 282B      		or r18,r24
 7132 276e 392B      		or r19,r25
 7133 2770 4A2B      		or r20,r26
 7134 2772 5B2B      		or r21,r27
 7135 2774 9881      		ld r25,Y
 7136 2776 C351      		subi r28,lo8(-(-531))
 7137 2778 D240      		sbci r29,hi8(-(-531))
 7138 277a 80E0      		ldi r24,lo8(0)
 7139 277c A0E0      		ldi r26,lo8(0)
 7140 277e B0E0      		ldi r27,hi8(0)
 7141 2780 282B      		or r18,r24
 7142 2782 392B      		or r19,r25
 7143 2784 4A2B      		or r20,r26
 7144 2786 5B2B      		or r21,r27
 7145 2788 2257      		subi r18,lo8(1631679090)
 7146 278a 3247      		sbci r19,hi8(1631679090)
 7147 278c 4144      		sbci r20,hlo8(1631679090)
 7148 278e 5146      		sbci r21,hhi8(1631679090)
 7149 2790 01F0      		breq .+2
 7150 2792 00C0      		rjmp .L517
 7151               	.LM731:
 7152 2794 C35E      		subi r28,lo8(-(541))
 7153 2796 DD4F      		sbci r29,hi8(-(541))
 7154 2798 2881      		ld r18,Y
 7155 279a 30E0      		ldi r19,lo8(0)
 7156 279c 40E0      		ldi r20,lo8(0)
 7157 279e 50E0      		ldi r21,hi8(0)
 7158 27a0 522F      		mov r21,r18
 7159 27a2 4427      		clr r20
 7160 27a4 3327      		clr r19
 7161 27a6 2227      		clr r18
 7162 27a8 8A91      		ld r24,-Y
 7163 27aa 90E0      		ldi r25,lo8(0)
 7164 27ac A0E0      		ldi r26,lo8(0)
 7165 27ae B0E0      		ldi r27,hi8(0)
 7166 27b0 DC01      		movw r26,r24
 7167 27b2 9927      		clr r25
 7168 27b4 8827      		clr r24
 7169 27b6 282B      		or r18,r24
 7170 27b8 392B      		or r19,r25
 7171 27ba 4A2B      		or r20,r26
 7172 27bc 5B2B      		or r21,r27
 7173 27be 2297      		sbiw r28,2
 7174 27c0 8991      		ld r24,Y+
 7175 27c2 90E0      		ldi r25,lo8(0)
 7176 27c4 A0E0      		ldi r26,lo8(0)
 7177 27c6 B0E0      		ldi r27,hi8(0)
 7178 27c8 282B      		or r18,r24
 7179 27ca 392B      		or r19,r25
 7180 27cc 4A2B      		or r20,r26
 7181 27ce 5B2B      		or r21,r27
 7182 27d0 9881      		ld r25,Y
 7183 27d2 CB51      		subi r28,lo8(-(-539))
 7184 27d4 D240      		sbci r29,hi8(-(-539))
 7185 27d6 80E0      		ldi r24,lo8(0)
 7186 27d8 A0E0      		ldi r26,lo8(0)
 7187 27da B0E0      		ldi r27,hi8(0)
 7188 27dc 282B      		or r18,r24
 7189 27de 392B      		or r19,r25
 7190 27e0 4A2B      		or r20,r26
 7191 27e2 5B2B      		or r21,r27
 7192 27e4 2A87      		std Y+10,r18
 7193 27e6 3B87      		std Y+11,r19
 7194 27e8 4C87      		std Y+12,r20
 7195 27ea 5D87      		std Y+13,r21
 7196               	.LM732:
 7197 27ec C75E      		subi r28,lo8(-(537))
 7198 27ee DD4F      		sbci r29,hi8(-(537))
 7199 27f0 2881      		ld r18,Y
 7200 27f2 30E0      		ldi r19,lo8(0)
 7201 27f4 40E0      		ldi r20,lo8(0)
 7202 27f6 50E0      		ldi r21,hi8(0)
 7203 27f8 522F      		mov r21,r18
 7204 27fa 4427      		clr r20
 7205 27fc 3327      		clr r19
 7206 27fe 2227      		clr r18
 7207 2800 8A91      		ld r24,-Y
 7208 2802 90E0      		ldi r25,lo8(0)
 7209 2804 A0E0      		ldi r26,lo8(0)
 7210 2806 B0E0      		ldi r27,hi8(0)
 7211 2808 DC01      		movw r26,r24
 7212 280a 9927      		clr r25
 7213 280c 8827      		clr r24
 7214 280e 282B      		or r18,r24
 7215 2810 392B      		or r19,r25
 7216 2812 4A2B      		or r20,r26
 7217 2814 5B2B      		or r21,r27
 7218 2816 2297      		sbiw r28,2
 7219 2818 8991      		ld r24,Y+
 7220 281a 90E0      		ldi r25,lo8(0)
 7221 281c A0E0      		ldi r26,lo8(0)
 7222 281e B0E0      		ldi r27,hi8(0)
 7223 2820 282B      		or r18,r24
 7224 2822 392B      		or r19,r25
 7225 2824 4A2B      		or r20,r26
 7226 2826 5B2B      		or r21,r27
 7227 2828 9881      		ld r25,Y
 7228 282a C751      		subi r28,lo8(-(-535))
 7229 282c D240      		sbci r29,hi8(-(-535))
 7230 282e 80E0      		ldi r24,lo8(0)
 7231 2830 A0E0      		ldi r26,lo8(0)
 7232 2832 B0E0      		ldi r27,hi8(0)
 7233 2834 282B      		or r18,r24
 7234 2836 392B      		or r19,r25
 7235 2838 4A2B      		or r20,r26
 7236 283a 5B2B      		or r21,r27
 7237 283c 2E87      		std Y+14,r18
 7238 283e 3F87      		std Y+15,r19
 7239 2840 488B      		std Y+16,r20
 7240 2842 598B      		std Y+17,r21
 7241               	.LVL576:
 7242               	.L517:
 7243               	.LM733:
 7244 2844 1883      		st Y,r17
 7245               	.LM734:
 7246 2846 1AA6      		std Y+42,__zero_reg__
 7247 2848 1BA6      		std Y+43,__zero_reg__
 7248 284a 1CA6      		std Y+44,__zero_reg__
 7249 284c 1DA6      		std Y+45,__zero_reg__
 7250               	.LM735:
 7251 284e 8091 0000 		lds r24,Fsid
 7252 2852 9091 0000 		lds r25,(Fsid)+1
 7253 2856 0196      		adiw r24,1
 7254 2858 8093 0000 		sts Fsid,r24
 7255 285c 9093 0000 		sts (Fsid)+1,r25
 7256 2860 8E83      		std Y+6,r24
 7257 2862 9F83      		std Y+7,r25
 7258 2864 00C0      		rjmp .L504
 7259               	.LVL577:
 7260               	.L505:
 7261               	.LM736:
 7262 2866 8AE0      		ldi r24,lo8(10)
 7263 2868 00C0      		rjmp .L499
 7264               	.LVL578:
 7265               	.L504:
 7266 286a 80E0      		ldi r24,lo8(0)
 7267 286c 00C0      		rjmp .L499
 7268               	.LVL579:
 7269               	.L510:
 7270 286e 8DE0      		ldi r24,lo8(13)
 7271               	.LVL580:
 7272               	.L499:
 7273               	/* epilogue start */
 7274               	.LM737:
 7275 2870 DF91      		pop r29
 7276 2872 CF91      		pop r28
 7277               	.LVL581:
 7278 2874 1F91      		pop r17
 7279               	.LVL582:
 7280 2876 0F91      		pop r16
 7281               	.LVL583:
 7282 2878 FF90      		pop r15
 7283 287a EF90      		pop r14
 7284               	.LVL584:
 7285 287c DF90      		pop r13
 7286 287e CF90      		pop r12
 7287 2880 BF90      		pop r11
 7288 2882 AF90      		pop r10
 7289               	.LVL585:
 7290 2884 9F90      		pop r9
 7291 2886 8F90      		pop r8
 7292 2888 7F90      		pop r7
 7293 288a 6F90      		pop r6
 7294               	.LVL586:
 7295 288c 0895      		ret
 7296               	.LVL587:
 7297               	.L516:
 7298               	.LM738:
 7299 288e C35A      		subi r28,lo8(-(93))
 7300 2890 DF4F      		sbci r29,hi8(-(93))
 7301 2892 2881      		ld r18,Y
 7302               	.LVL588:
 7303 2894 30E0      		ldi r19,lo8(0)
 7304 2896 40E0      		ldi r20,lo8(0)
 7305 2898 50E0      		ldi r21,hi8(0)
 7306 289a 522F      		mov r21,r18
 7307 289c 4427      		clr r20
 7308 289e 3327      		clr r19
 7309 28a0 2227      		clr r18
 7310               	.LVL589:
 7311 28a2 8A91      		ld r24,-Y
 7312 28a4 90E0      		ldi r25,lo8(0)
 7313 28a6 A0E0      		ldi r26,lo8(0)
 7314 28a8 B0E0      		ldi r27,hi8(0)
 7315 28aa DC01      		movw r26,r24
 7316 28ac 9927      		clr r25
 7317 28ae 8827      		clr r24
 7318               	.LVL590:
 7319 28b0 282B      		or r18,r24
 7320 28b2 392B      		or r19,r25
 7321 28b4 4A2B      		or r20,r26
 7322 28b6 5B2B      		or r21,r27
 7323 28b8 2297      		sbiw r28,2
 7324 28ba 8991      		ld r24,Y+
 7325 28bc 90E0      		ldi r25,lo8(0)
 7326 28be A0E0      		ldi r26,lo8(0)
 7327 28c0 B0E0      		ldi r27,hi8(0)
 7328 28c2 282B      		or r18,r24
 7329 28c4 392B      		or r19,r25
 7330 28c6 4A2B      		or r20,r26
 7331 28c8 5B2B      		or r21,r27
 7332 28ca 9881      		ld r25,Y
 7333 28cc CB55      		subi r28,lo8(-(-91))
 7334 28ce D040      		sbci r29,hi8(-(-91))
 7335 28d0 80E0      		ldi r24,lo8(0)
 7336 28d2 A0E0      		ldi r26,lo8(0)
 7337 28d4 B0E0      		ldi r27,hi8(0)
 7338 28d6 282B      		or r18,r24
 7339 28d8 392B      		or r19,r25
 7340 28da 4A2B      		or r20,r26
 7341 28dc 5B2B      		or r21,r27
 7342 28de 2AA3      		std Y+34,r18
 7343 28e0 3BA3      		std Y+35,r19
 7344 28e2 4CA3      		std Y+36,r20
 7345 28e4 5DA3      		std Y+37,r21
 7346 28e6 13E0      		ldi r17,lo8(3)
 7347               	.LVL591:
 7348 28e8 00C0      		rjmp .L518
 7349               	.LFE78:
 7352               	validate:
 7353               	.LFB79:
 7354               	.LM739:
 7355               	.LVL592:
 7356               	/* prologue: function */
 7357               	/* frame size = 0 */
 7358 28ea FC01      		movw r30,r24
 7359               	.LM740:
 7360 28ec 0097      		sbiw r24,0
 7361 28ee 01F0      		breq .L521
 7362 28f0 8081      		ld r24,Z
 7363               	.LVL593:
 7364 28f2 8823      		tst r24
 7365 28f4 01F0      		breq .L521
 7366 28f6 8681      		ldd r24,Z+6
 7367 28f8 9781      		ldd r25,Z+7
 7368 28fa 8617      		cp r24,r22
 7369 28fc 9707      		cpc r25,r23
 7370 28fe 01F4      		brne .L521
 7371               	.LBB871:
 7372               	.LBB872:
 7373               	.LM741:
 7374 2900 8181      		ldd r24,Z+1
 7375 2902 8823      		tst r24
 7376 2904 01F0      		breq .L522
 7377 2906 81E0      		ldi r24,lo8(1)
 7378 2908 00C0      		rjmp .L523
 7379               	.L522:
 7380               	.LM742:
 7381 290a 8091 0000 		lds r24,Stat
 7382               	.L523:
 7383               	.LBE872:
 7384               	.LBE871:
 7385               	.LM743:
 7386 290e 80FD      		sbrc r24,0
 7387 2910 00C0      		rjmp .L524
 7388 2912 80E0      		ldi r24,lo8(0)
 7389 2914 0895      		ret
 7390               	.L524:
 7391 2916 83E0      		ldi r24,lo8(3)
 7392 2918 0895      		ret
 7393               	.LVL594:
 7394               	.L521:
 7395 291a 89E0      		ldi r24,lo8(9)
 7396               	.LM744:
 7397 291c 0895      		ret
 7398               	.LFE79:
 7400               	.global	f_mount
 7402               	f_mount:
 7403               	.LFB80:
 7404               	.LM745:
 7405               	.LVL595:
 7406               	/* prologue: function */
 7407               	/* frame size = 0 */
 7408 291e DB01      		movw r26,r22
 7409               	.LM746:
 7410 2920 8823      		tst r24
 7411 2922 01F0      		breq .L528
 7412               	.LVL596:
 7413 2924 8BE0      		ldi r24,lo8(11)
 7414               	.LVL597:
 7415 2926 0895      		ret
 7416               	.LVL598:
 7417               	.L528:
 7418               	.LM747:
 7419 2928 E091 0000 		lds r30,FatFs
 7420 292c F091 0000 		lds r31,(FatFs)+1
 7421               	.LVL599:
 7422               	.LM748:
 7423 2930 3097      		sbiw r30,0
 7424 2932 01F0      		breq .L530
 7425               	.LM749:
 7426 2934 1082      		st Z,__zero_reg__
 7427               	.L530:
 7428               	.LM750:
 7429 2936 1097      		sbiw r26,0
 7430 2938 01F0      		breq .L531
 7431               	.LM751:
 7432 293a 1C92      		st X,__zero_reg__
 7433               	.L531:
 7434               	.LM752:
 7435 293c A093 0000 		sts FatFs,r26
 7436 2940 B093 0000 		sts (FatFs)+1,r27
 7437 2944 80E0      		ldi r24,lo8(0)
 7438               	.LVL600:
 7439               	.LM753:
 7440 2946 0895      		ret
 7441               	.LFE80:
 7443               	.global	f_open
 7445               	f_open:
 7446               	.LFB81:
 7447               	.LM754:
 7448               	.LVL601:
 7449 2948 5F92      		push r5
 7450 294a 6F92      		push r6
 7451 294c 7F92      		push r7
 7452 294e 8F92      		push r8
 7453 2950 9F92      		push r9
 7454 2952 AF92      		push r10
 7455 2954 BF92      		push r11
 7456 2956 CF92      		push r12
 7457 2958 DF92      		push r13
 7458 295a EF92      		push r14
 7459 295c FF92      		push r15
 7460 295e 0F93      		push r16
 7461 2960 1F93      		push r17
 7462 2962 DF93      		push r29
 7463 2964 CF93      		push r28
 7464 2966 CDB7      		in r28,__SP_L__
 7465 2968 DEB7      		in r29,__SP_H__
 7466 296a A497      		sbiw r28,36
 7467 296c CDBF      		out __SP_L__,r28
 7468 296e DEBF      		out __SP_H__,r29
 7469               	/* prologue: function */
 7470               	/* frame size = 36 */
 7471 2970 3C01      		movw r6,r24
 7472 2972 6BA3      		std Y+35,r22
 7473 2974 7CA3      		std Y+36,r23
 7474               	.LM755:
 7475 2976 DC01      		movw r26,r24
 7476 2978 1D92      		st X+,__zero_reg__
 7477 297a 1C92      		st X,__zero_reg__
 7478               	.LM756:
 7479 297c 3FE1      		ldi r19,lo8(31)
 7480 297e 532E      		mov r5,r19
 7481               	.LVL602:
 7482 2980 5422      		and r5,r20
 7483               	.LM757:
 7484 2982 8E01      		movw r16,r28
 7485 2984 035F      		subi r16,lo8(-(13))
 7486 2986 1F4F      		sbci r17,hi8(-(13))
 7487 2988 4E71      		andi r20,lo8(30)
 7488               	.LVL603:
 7489 298a CE01      		movw r24,r28
 7490               	.LVL604:
 7491 298c 8396      		adiw r24,35
 7492 298e B801      		movw r22,r16
 7493               	.LVL605:
 7494 2990 0E94 0000 		call chk_mounted
 7495               	.LVL606:
 7496               	.LM758:
 7497 2994 8823      		tst r24
 7498               	.LVL607:
 7499 2996 01F0      		breq .L534
 7500 2998 282F      		mov r18,r24
 7501 299a 00C0      		rjmp .L535
 7502               	.LVL608:
 7503               	.L534:
 7504               	.LM759:
 7505 299c CE01      		movw r24,r28
 7506               	.LVL609:
 7507 299e 0196      		adiw r24,1
 7508 29a0 89A3      		std Y+33,r24
 7509 29a2 9AA3      		std Y+34,r25
 7510               	.LM760:
 7511 29a4 6BA1      		ldd r22,Y+35
 7512 29a6 7CA1      		ldd r23,Y+36
 7513 29a8 C801      		movw r24,r16
 7514 29aa 0E94 0000 		call follow_path
 7515 29ae 282F      		mov r18,r24
 7516               	.LVL610:
 7517               	.LM761:
 7518 29b0 452D      		mov r20,r5
 7519               	.LVL611:
 7520 29b2 50E0      		ldi r21,lo8(0)
 7521 29b4 CA01      		movw r24,r20
 7522 29b6 8C71      		andi r24,lo8(28)
 7523 29b8 9070      		andi r25,hi8(28)
 7524 29ba 892B      		or r24,r25
 7525 29bc 01F4      		brne .+2
 7526 29be 00C0      		rjmp .L536
 7527               	.LBB873:
 7528               	.LM762:
 7529 29c0 2223      		tst r18
 7530 29c2 01F0      		breq .L537
 7531               	.LM763:
 7532 29c4 2430      		cpi r18,lo8(4)
 7533 29c6 01F0      		breq .+2
 7534 29c8 00C0      		rjmp .L535
 7535               	.LM764:
 7536 29ca C801      		movw r24,r16
 7537 29cc 0E94 0000 		call dir_register
 7538               	.LVL612:
 7539 29d0 282F      		mov r18,r24
 7540               	.LVL613:
 7541               	.LM765:
 7542 29d2 8823      		tst r24
 7543 29d4 01F0      		breq .+2
 7544 29d6 00C0      		rjmp .L535
 7545               	.LVL614:
 7546               	.LM766:
 7547 29d8 B8E0      		ldi r27,lo8(8)
 7548 29da 5B2A      		or r5,r27
 7549               	.LM767:
 7550 29dc 0F8D      		ldd r16,Y+31
 7551 29de 18A1      		ldd r17,Y+32
 7552               	.LVL615:
 7553 29e0 00C0      		rjmp .L538
 7554               	.LVL616:
 7555               	.L537:
 7556               	.LM768:
 7557 29e2 52FE      		sbrs r5,2
 7558 29e4 00C0      		rjmp .L539
 7559               	.LVL617:
 7560 29e6 28E0      		ldi r18,lo8(8)
 7561 29e8 00C0      		rjmp .L535
 7562               	.L539:
 7563               	.LM769:
 7564 29ea 0F8D      		ldd r16,Y+31
 7565 29ec 18A1      		ldd r17,Y+32
 7566               	.LVL618:
 7567               	.LM770:
 7568 29ee 0115      		cp r16,__zero_reg__
 7569 29f0 1105      		cpc r17,__zero_reg__
 7570 29f2 01F4      		brne .+2
 7571 29f4 00C0      		rjmp .L540
 7572 29f6 F801      		movw r30,r16
 7573 29f8 8385      		ldd r24,Z+11
 7574 29fa 8171      		andi r24,lo8(17)
 7575 29fc 01F0      		breq .+2
 7576 29fe 00C0      		rjmp .L540
 7577               	.LM771:
 7578 2a00 53FE      		sbrs r5,3
 7579 2a02 00C0      		rjmp .L538
 7580               	.LM772:
 7581 2a04 9589      		ldd r25,Z+21
 7582 2a06 80E0      		ldi r24,lo8(0)
 7583 2a08 2489      		ldd r18,Z+20
 7584               	.LVL619:
 7585 2a0a 30E0      		ldi r19,lo8(0)
 7586 2a0c 822B      		or r24,r18
 7587 2a0e 932B      		or r25,r19
 7588 2a10 A0E0      		ldi r26,lo8(0)
 7589 2a12 B0E0      		ldi r27,hi8(0)
 7590 2a14 7C01      		movw r14,r24
 7591 2a16 DD24      		clr r13
 7592 2a18 CC24      		clr r12
 7593               	.LVL620:
 7594 2a1a 938D      		ldd r25,Z+27
 7595 2a1c 80E0      		ldi r24,lo8(0)
 7596 2a1e 228D      		ldd r18,Z+26
 7597 2a20 30E0      		ldi r19,lo8(0)
 7598 2a22 822B      		or r24,r18
 7599 2a24 932B      		or r25,r19
 7600 2a26 A0E0      		ldi r26,lo8(0)
 7601 2a28 B0E0      		ldi r27,hi8(0)
 7602 2a2a C82A      		or r12,r24
 7603 2a2c D92A      		or r13,r25
 7604 2a2e EA2A      		or r14,r26
 7605 2a30 FB2A      		or r15,r27
 7606               	.LM773:
 7607 2a32 148A      		std Z+20,__zero_reg__
 7608 2a34 158A      		std Z+21,__zero_reg__
 7609               	.LM774:
 7610 2a36 128E      		std Z+26,__zero_reg__
 7611 2a38 138E      		std Z+27,__zero_reg__
 7612               	.LM775:
 7613 2a3a 148E      		std Z+28,__zero_reg__
 7614 2a3c 158E      		std Z+29,__zero_reg__
 7615 2a3e 168E      		std Z+30,__zero_reg__
 7616 2a40 178E      		std Z+31,__zero_reg__
 7617               	.LM776:
 7618 2a42 ED85      		ldd r30,Y+13
 7619 2a44 FE85      		ldd r31,Y+14
 7620 2a46 81E0      		ldi r24,lo8(1)
 7621 2a48 8483      		std Z+4,r24
 7622               	.LM777:
 7623 2a4a 82A4      		ldd r8,Z+42
 7624 2a4c 93A4      		ldd r9,Z+43
 7625 2a4e A4A4      		ldd r10,Z+44
 7626 2a50 B5A4      		ldd r11,Z+45
 7627               	.LVL621:
 7628               	.LM778:
 7629 2a52 C114      		cp r12,__zero_reg__
 7630 2a54 D104      		cpc r13,__zero_reg__
 7631 2a56 E104      		cpc r14,__zero_reg__
 7632 2a58 F104      		cpc r15,__zero_reg__
 7633 2a5a 01F0      		breq .L541
 7634               	.LM779:
 7635 2a5c CF01      		movw r24,r30
 7636 2a5e B701      		movw r22,r14
 7637 2a60 A601      		movw r20,r12
 7638 2a62 0E94 0000 		call remove_chain
 7639 2a66 282F      		mov r18,r24
 7640               	.LVL622:
 7641               	.LM780:
 7642 2a68 8823      		tst r24
 7643 2a6a 01F0      		breq .+2
 7644 2a6c 00C0      		rjmp .L535
 7645               	.LVL623:
 7646               	.LM781:
 7647 2a6e ED85      		ldd r30,Y+13
 7648 2a70 FE85      		ldd r31,Y+14
 7649 2a72 0894      		sec
 7650 2a74 C108      		sbc r12,__zero_reg__
 7651 2a76 D108      		sbc r13,__zero_reg__
 7652 2a78 E108      		sbc r14,__zero_reg__
 7653 2a7a F108      		sbc r15,__zero_reg__
 7654 2a7c C286      		std Z+10,r12
 7655 2a7e D386      		std Z+11,r13
 7656 2a80 E486      		std Z+12,r14
 7657 2a82 F586      		std Z+13,r15
 7658               	.L541:
 7659               	.LM782:
 7660 2a84 8D85      		ldd r24,Y+13
 7661 2a86 9E85      		ldd r25,Y+14
 7662               	.LVL624:
 7663 2a88 B501      		movw r22,r10
 7664 2a8a A401      		movw r20,r8
 7665 2a8c 0E94 0000 		call move_window
 7666               	.LVL625:
 7667 2a90 282F      		mov r18,r24
 7668               	.LVL626:
 7669               	.LM783:
 7670 2a92 8823      		tst r24
 7671 2a94 01F0      		breq .+2
 7672 2a96 00C0      		rjmp .L535
 7673               	.LVL627:
 7674               	.L538:
 7675               	.LM784:
 7676 2a98 53FE      		sbrs r5,3
 7677 2a9a 00C0      		rjmp .L542
 7678               	.LM785:
 7679 2a9c D801      		movw r26,r16
 7680 2a9e 1B96      		adiw r26,11
 7681 2aa0 1C92      		st X,__zero_reg__
 7682 2aa2 1B97      		sbiw r26,11
 7683               	.LM786:
 7684 2aa4 1E96      		adiw r26,14
 7685 2aa6 1C92      		st X,__zero_reg__
 7686 2aa8 1E97      		sbiw r26,14
 7687 2aaa 1F96      		adiw r26,15
 7688 2aac 1C92      		st X,__zero_reg__
 7689 2aae 1F97      		sbiw r26,15
 7690 2ab0 5096      		adiw r26,16
 7691 2ab2 1C92      		st X,__zero_reg__
 7692 2ab4 5097      		sbiw r26,16
 7693 2ab6 5196      		adiw r26,17
 7694 2ab8 1C92      		st X,__zero_reg__
 7695               	.LM787:
 7696 2aba ED85      		ldd r30,Y+13
 7697 2abc FE85      		ldd r31,Y+14
 7698 2abe 81E0      		ldi r24,lo8(1)
 7699 2ac0 8483      		std Z+4,r24
 7700               	.LM788:
 7701 2ac2 B0E2      		ldi r27,lo8(32)
 7702 2ac4 5B2A      		or r5,r27
 7703 2ac6 00C0      		rjmp .L542
 7704               	.LVL628:
 7705               	.L536:
 7706               	.LBE873:
 7707               	.LM789:
 7708 2ac8 2223      		tst r18
 7709 2aca 01F0      		breq .+2
 7710 2acc 00C0      		rjmp .L535
 7711               	.LM790:
 7712 2ace 0F8D      		ldd r16,Y+31
 7713 2ad0 18A1      		ldd r17,Y+32
 7714               	.LVL629:
 7715               	.LM791:
 7716 2ad2 0115      		cp r16,__zero_reg__
 7717 2ad4 1105      		cpc r17,__zero_reg__
 7718 2ad6 01F4      		brne .+2
 7719 2ad8 00C0      		rjmp .L543
 7720 2ada F801      		movw r30,r16
 7721 2adc 8385      		ldd r24,Z+11
 7722 2ade 84FD      		sbrc r24,4
 7723 2ae0 00C0      		rjmp .L543
 7724               	.LM792:
 7725 2ae2 51FE      		sbrs r5,1
 7726 2ae4 00C0      		rjmp .L542
 7727               	.LVL630:
 7728 2ae6 80FD      		sbrc r24,0
 7729 2ae8 00C0      		rjmp .L540
 7730               	.LVL631:
 7731               	.L542:
 7732               	.LM793:
 7733 2aea ED85      		ldd r30,Y+13
 7734 2aec FE85      		ldd r31,Y+14
 7735 2aee 22A5      		ldd r18,Z+42
 7736 2af0 33A5      		ldd r19,Z+43
 7737 2af2 44A5      		ldd r20,Z+44
 7738 2af4 55A5      		ldd r21,Z+45
 7739               	.LVL632:
 7740 2af6 D301      		movw r26,r6
 7741 2af8 5A96      		adiw r26,26
 7742 2afa 2D93      		st X+,r18
 7743 2afc 3D93      		st X+,r19
 7744 2afe 4D93      		st X+,r20
 7745 2b00 5C93      		st X,r21
 7746 2b02 5D97      		sbiw r26,26+3
 7747               	.LM794:
 7748 2b04 8F8D      		ldd r24,Y+31
 7749 2b06 98A1      		ldd r25,Y+32
 7750               	.LVL633:
 7751 2b08 5E96      		adiw r26,30
 7752 2b0a 8D93      		st X+,r24
 7753 2b0c 9C93      		st X,r25
 7754 2b0e 5F97      		sbiw r26,30+1
 7755               	.LM795:
 7756 2b10 1496      		adiw r26,4
 7757 2b12 5C92      		st X,r5
 7758               	.LM796:
 7759 2b14 D801      		movw r26,r16
 7760 2b16 5596      		adiw r26,21
 7761 2b18 3C91      		ld r19,X
 7762 2b1a 5597      		sbiw r26,21
 7763 2b1c 20E0      		ldi r18,lo8(0)
 7764 2b1e 5496      		adiw r26,20
 7765 2b20 8C91      		ld r24,X
 7766 2b22 5497      		sbiw r26,20
 7767 2b24 90E0      		ldi r25,lo8(0)
 7768 2b26 282B      		or r18,r24
 7769 2b28 392B      		or r19,r25
 7770 2b2a 40E0      		ldi r20,lo8(0)
 7771 2b2c 50E0      		ldi r21,hi8(0)
 7772 2b2e A901      		movw r20,r18
 7773 2b30 3327      		clr r19
 7774 2b32 2227      		clr r18
 7775 2b34 5B96      		adiw r26,27
 7776 2b36 9C91      		ld r25,X
 7777 2b38 5B97      		sbiw r26,27
 7778 2b3a 80E0      		ldi r24,lo8(0)
 7779 2b3c 5A96      		adiw r26,26
 7780 2b3e 6C91      		ld r22,X
 7781 2b40 70E0      		ldi r23,lo8(0)
 7782 2b42 862B      		or r24,r22
 7783 2b44 972B      		or r25,r23
 7784 2b46 A0E0      		ldi r26,lo8(0)
 7785 2b48 B0E0      		ldi r27,hi8(0)
 7786 2b4a 282B      		or r18,r24
 7787 2b4c 392B      		or r19,r25
 7788 2b4e 4A2B      		or r20,r26
 7789 2b50 5B2B      		or r21,r27
 7790 2b52 D301      		movw r26,r6
 7791 2b54 1E96      		adiw r26,14
 7792 2b56 2D93      		st X+,r18
 7793 2b58 3D93      		st X+,r19
 7794 2b5a 4D93      		st X+,r20
 7795 2b5c 5C93      		st X,r21
 7796 2b5e 5197      		sbiw r26,14+3
 7797               	.LM797:
 7798 2b60 D801      		movw r26,r16
 7799 2b62 5F96      		adiw r26,31
 7800 2b64 2C91      		ld r18,X
 7801 2b66 5F97      		sbiw r26,31
 7802 2b68 30E0      		ldi r19,lo8(0)
 7803 2b6a 40E0      		ldi r20,lo8(0)
 7804 2b6c 50E0      		ldi r21,hi8(0)
 7805 2b6e 522F      		mov r21,r18
 7806 2b70 4427      		clr r20
 7807 2b72 3327      		clr r19
 7808 2b74 2227      		clr r18
 7809 2b76 5E96      		adiw r26,30
 7810 2b78 8C91      		ld r24,X
 7811 2b7a 90E0      		ldi r25,lo8(0)
 7812 2b7c A0E0      		ldi r26,lo8(0)
 7813 2b7e B0E0      		ldi r27,hi8(0)
 7814 2b80 DC01      		movw r26,r24
 7815 2b82 9927      		clr r25
 7816 2b84 8827      		clr r24
 7817 2b86 282B      		or r18,r24
 7818 2b88 392B      		or r19,r25
 7819 2b8a 4A2B      		or r20,r26
 7820 2b8c 5B2B      		or r21,r27
 7821 2b8e D801      		movw r26,r16
 7822 2b90 5C96      		adiw r26,28
 7823 2b92 8C91      		ld r24,X
 7824 2b94 90E0      		ldi r25,lo8(0)
 7825 2b96 A0E0      		ldi r26,lo8(0)
 7826 2b98 B0E0      		ldi r27,hi8(0)
 7827 2b9a 282B      		or r18,r24
 7828 2b9c 392B      		or r19,r25
 7829 2b9e 4A2B      		or r20,r26
 7830 2ba0 5B2B      		or r21,r27
 7831 2ba2 D801      		movw r26,r16
 7832 2ba4 5D96      		adiw r26,29
 7833 2ba6 9C91      		ld r25,X
 7834 2ba8 80E0      		ldi r24,lo8(0)
 7835 2baa A0E0      		ldi r26,lo8(0)
 7836 2bac B0E0      		ldi r27,hi8(0)
 7837 2bae 282B      		or r18,r24
 7838 2bb0 392B      		or r19,r25
 7839 2bb2 4A2B      		or r20,r26
 7840 2bb4 5B2B      		or r21,r27
 7841 2bb6 D301      		movw r26,r6
 7842 2bb8 1A96      		adiw r26,10
 7843 2bba 2D93      		st X+,r18
 7844 2bbc 3D93      		st X+,r19
 7845 2bbe 4D93      		st X+,r20
 7846 2bc0 5C93      		st X,r21
 7847 2bc2 1D97      		sbiw r26,10+3
 7848               	.LM798:
 7849 2bc4 1696      		adiw r26,6
 7850 2bc6 1D92      		st X+,__zero_reg__
 7851 2bc8 1D92      		st X+,__zero_reg__
 7852 2bca 1D92      		st X+,__zero_reg__
 7853 2bcc 1C92      		st X,__zero_reg__
 7854 2bce 1997      		sbiw r26,6+3
 7855 2bd0 8FEF      		ldi r24,lo8(-1)
 7856 2bd2 1596      		adiw r26,5
 7857 2bd4 8C93      		st X,r24
 7858 2bd6 1597      		sbiw r26,5
 7859               	.LM799:
 7860 2bd8 5696      		adiw r26,22
 7861 2bda 1D92      		st X+,__zero_reg__
 7862 2bdc 1D92      		st X+,__zero_reg__
 7863 2bde 1D92      		st X+,__zero_reg__
 7864 2be0 1C92      		st X,__zero_reg__
 7865 2be2 5997      		sbiw r26,22+3
 7866               	.LM800:
 7867 2be4 ED93      		st X+,r30
 7868 2be6 FC93      		st X,r31
 7869 2be8 1197      		sbiw r26,1
 7870 2bea 8681      		ldd r24,Z+6
 7871 2bec 9781      		ldd r25,Z+7
 7872 2bee 1296      		adiw r26,2
 7873 2bf0 8D93      		st X+,r24
 7874 2bf2 9C93      		st X,r25
 7875 2bf4 1397      		sbiw r26,2+1
 7876 2bf6 20E0      		ldi r18,lo8(0)
 7877               	.LVL634:
 7878 2bf8 00C0      		rjmp .L535
 7879               	.LVL635:
 7880               	.L540:
 7881               	.LM801:
 7882 2bfa 27E0      		ldi r18,lo8(7)
 7883 2bfc 00C0      		rjmp .L535
 7884               	.LVL636:
 7885               	.L543:
 7886 2bfe 24E0      		ldi r18,lo8(4)
 7887               	.LVL637:
 7888               	.L535:
 7889               	.LM802:
 7890 2c00 822F      		mov r24,r18
 7891               	/* epilogue start */
 7892 2c02 A496      		adiw r28,36
 7893 2c04 CDBF      		out __SP_L__,r28
 7894 2c06 DEBF      		out __SP_H__,r29
 7895 2c08 CF91      		pop r28
 7896 2c0a DF91      		pop r29
 7897 2c0c 1F91      		pop r17
 7898 2c0e 0F91      		pop r16
 7899               	.LVL638:
 7900 2c10 FF90      		pop r15
 7901 2c12 EF90      		pop r14
 7902 2c14 DF90      		pop r13
 7903 2c16 CF90      		pop r12
 7904               	.LVL639:
 7905 2c18 BF90      		pop r11
 7906 2c1a AF90      		pop r10
 7907 2c1c 9F90      		pop r9
 7908 2c1e 8F90      		pop r8
 7909               	.LVL640:
 7910 2c20 7F90      		pop r7
 7911 2c22 6F90      		pop r6
 7912               	.LVL641:
 7913 2c24 5F90      		pop r5
 7914               	.LVL642:
 7915 2c26 0895      		ret
 7916               	.LFE81:
 7918               	.global	f_read
 7920               	f_read:
 7921               	.LFB82:
 7922               	.LM803:
 7923               	.LVL643:
 7924 2c28 2F92      		push r2
 7925 2c2a 3F92      		push r3
 7926 2c2c 4F92      		push r4
 7927 2c2e 5F92      		push r5
 7928 2c30 6F92      		push r6
 7929 2c32 7F92      		push r7
 7930 2c34 8F92      		push r8
 7931 2c36 9F92      		push r9
 7932 2c38 AF92      		push r10
 7933 2c3a BF92      		push r11
 7934 2c3c CF92      		push r12
 7935 2c3e DF92      		push r13
 7936 2c40 EF92      		push r14
 7937 2c42 FF92      		push r15
 7938 2c44 0F93      		push r16
 7939 2c46 1F93      		push r17
 7940 2c48 DF93      		push r29
 7941 2c4a CF93      		push r28
 7942 2c4c 00D0      		rcall .
 7943 2c4e 0F92      		push __tmp_reg__
 7944 2c50 CDB7      		in r28,__SP_L__
 7945 2c52 DEB7      		in r29,__SP_H__
 7946               	/* prologue: function */
 7947               	/* frame size = 4 */
 7948 2c54 8B83      		std Y+3,r24
 7949 2c56 9C83      		std Y+4,r25
 7950 2c58 162F      		mov r17,r22
 7951 2c5a 072F      		mov r16,r23
 7952               	.LVL644:
 7953 2c5c 4A01      		movw r8,r20
 7954 2c5e 2983      		std Y+1,r18
 7955 2c60 3A83      		std Y+2,r19
 7956               	.LM804:
 7957 2c62 D901      		movw r26,r18
 7958 2c64 1D92      		st X+,__zero_reg__
 7959 2c66 1C92      		st X,__zero_reg__
 7960               	.LM805:
 7961 2c68 FC01      		movw r30,r24
 7962 2c6a 6281      		ldd r22,Z+2
 7963 2c6c 7381      		ldd r23,Z+3
 7964               	.LVL645:
 7965 2c6e 8081      		ld r24,Z
 7966 2c70 9181      		ldd r25,Z+1
 7967               	.LVL646:
 7968 2c72 0E94 0000 		call validate
 7969               	.LVL647:
 7970 2c76 782E      		mov r7,r24
 7971               	.LVL648:
 7972               	.LM806:
 7973 2c78 8823      		tst r24
 7974 2c7a 01F0      		breq .+2
 7975 2c7c 00C0      		rjmp .L546
 7976               	.LVL649:
 7977               	.LM807:
 7978 2c7e AB81      		ldd r26,Y+3
 7979 2c80 BC81      		ldd r27,Y+4
 7980 2c82 1496      		adiw r26,4
 7981 2c84 8C91      		ld r24,X
 7982               	.LVL650:
 7983 2c86 87FD      		sbrc r24,7
 7984 2c88 00C0      		rjmp .L574
 7985               	.L547:
 7986               	.LM808:
 7987 2c8a 80FD      		sbrc r24,0
 7988 2c8c 00C0      		rjmp .L548
 7989 2c8e A7E0      		ldi r26,lo8(7)
 7990 2c90 7A2E      		mov r7,r26
 7991 2c92 00C0      		rjmp .L546
 7992               	.L548:
 7993               	.LM809:
 7994 2c94 EB81      		ldd r30,Y+3
 7995 2c96 FC81      		ldd r31,Y+4
 7996 2c98 2285      		ldd r18,Z+10
 7997 2c9a 3385      		ldd r19,Z+11
 7998 2c9c 4485      		ldd r20,Z+12
 7999 2c9e 5585      		ldd r21,Z+13
 8000               	.LVL651:
 8001 2ca0 8681      		ldd r24,Z+6
 8002 2ca2 9781      		ldd r25,Z+7
 8003 2ca4 A085      		ldd r26,Z+8
 8004 2ca6 B185      		ldd r27,Z+9
 8005 2ca8 281B      		sub r18,r24
 8006 2caa 390B      		sbc r19,r25
 8007 2cac 4A0B      		sbc r20,r26
 8008 2cae 5B0B      		sbc r21,r27
 8009               	.LM810:
 8010 2cb0 C401      		movw r24,r8
 8011 2cb2 A0E0      		ldi r26,lo8(0)
 8012 2cb4 B0E0      		ldi r27,hi8(0)
 8013               	.LVL652:
 8014 2cb6 2817      		cp r18,r24
 8015 2cb8 3907      		cpc r19,r25
 8016 2cba 4A07      		cpc r20,r26
 8017 2cbc 5B07      		cpc r21,r27
 8018 2cbe 00F4      		brsh .L549
 8019               	.LVL653:
 8020 2cc0 4901      		movw r8,r18
 8021               	.LVL654:
 8022               	.L549:
 8023               	.LM811:
 8024 2cc2 812F      		mov r24,r17
 8025               	.LVL655:
 8026 2cc4 902F      		mov r25,r16
 8027               	.LVL656:
 8028 2cc6 9C01      		movw r18,r24
 8029               	.LVL657:
 8030 2cc8 2901      		movw r4,r18
 8031               	.LVL658:
 8032               	.LBB874:
 8033               	.LBB875:
 8034               	.LM812:
 8035 2cca F0E2      		ldi r31,lo8(32)
 8036 2ccc 2F2E      		mov r2,r31
 8037 2cce 312C      		mov r3,__zero_reg__
 8038               	.LVL659:
 8039 2cd0 6B81      		ldd r22,Y+3
 8040 2cd2 7C81      		ldd r23,Y+4
 8041 2cd4 260E      		add r2,r22
 8042 2cd6 371E      		adc r3,r23
 8043 2cd8 00C0      		rjmp .L550
 8044               	.LVL660:
 8045               	.L572:
 8046               	.LBE875:
 8047               	.LBE874:
 8048               	.LM813:
 8049 2cda AB81      		ldd r26,Y+3
 8050 2cdc BC81      		ldd r27,Y+4
 8051               	.LVL661:
 8052 2cde 1696      		adiw r26,6
 8053 2ce0 2D91      		ld r18,X+
 8054 2ce2 3D91      		ld r19,X+
 8055 2ce4 4D91      		ld r20,X+
 8056 2ce6 5C91      		ld r21,X
 8057 2ce8 1997      		sbiw r26,6+3
 8058 2cea DA01      		movw r26,r20
 8059 2cec C901      		movw r24,r18
 8060 2cee 9170      		andi r25,hi8(511)
 8061 2cf0 A070      		andi r26,hlo8(511)
 8062 2cf2 B070      		andi r27,hhi8(511)
 8063 2cf4 0097      		sbiw r24,0
 8064 2cf6 A105      		cpc r26,__zero_reg__
 8065 2cf8 B105      		cpc r27,__zero_reg__
 8066 2cfa 01F0      		breq .+2
 8067 2cfc 00C0      		rjmp .L551
 8068               	.LM814:
 8069 2cfe AB81      		ldd r26,Y+3
 8070 2d00 BC81      		ldd r27,Y+4
 8071 2d02 ED91      		ld r30,X+
 8072 2d04 FC91      		ld r31,X
 8073 2d06 1197      		sbiw r26,1
 8074 2d08 1596      		adiw r26,5
 8075 2d0a 9C91      		ld r25,X
 8076 2d0c 1597      		sbiw r26,5
 8077               	.LVL662:
 8078 2d0e 8281      		ldd r24,Z+2
 8079 2d10 9817      		cp r25,r24
 8080 2d12 00F0      		brlo .L552
 8081               	.LM815:
 8082 2d14 2115      		cp r18,__zero_reg__
 8083 2d16 3105      		cpc r19,__zero_reg__
 8084 2d18 4105      		cpc r20,__zero_reg__
 8085 2d1a 5105      		cpc r21,__zero_reg__
 8086 2d1c 01F4      		brne .L553
 8087 2d1e 1E96      		adiw r26,14
 8088 2d20 6D91      		ld r22,X+
 8089 2d22 7D91      		ld r23,X+
 8090 2d24 8D91      		ld r24,X+
 8091 2d26 9C91      		ld r25,X
 8092 2d28 5197      		sbiw r26,14+3
 8093               	.LVL663:
 8094 2d2a 00C0      		rjmp .L554
 8095               	.LVL664:
 8096               	.L553:
 8097 2d2c AB81      		ldd r26,Y+3
 8098 2d2e BC81      		ldd r27,Y+4
 8099 2d30 5296      		adiw r26,18
 8100 2d32 4D91      		ld r20,X+
 8101 2d34 5D91      		ld r21,X+
 8102 2d36 6D91      		ld r22,X+
 8103 2d38 7C91      		ld r23,X
 8104 2d3a 5597      		sbiw r26,18+3
 8105 2d3c CF01      		movw r24,r30
 8106 2d3e 0E94 0000 		call get_fat
 8107               	.LVL665:
 8108               	.L554:
 8109               	.LM816:
 8110 2d42 6230      		cpi r22,lo8(2)
 8111 2d44 7105      		cpc r23,__zero_reg__
 8112 2d46 8105      		cpc r24,__zero_reg__
 8113 2d48 9105      		cpc r25,__zero_reg__
 8114 2d4a 00F4      		brsh .L555
 8115 2d4c EB81      		ldd r30,Y+3
 8116 2d4e FC81      		ldd r31,Y+4
 8117 2d50 8481      		ldd r24,Z+4
 8118 2d52 8068      		ori r24,lo8(-128)
 8119 2d54 8483      		std Z+4,r24
 8120               	.LVL666:
 8121               	.L574:
 8122 2d56 E2E0      		ldi r30,lo8(2)
 8123 2d58 7E2E      		mov r7,r30
 8124 2d5a 00C0      		rjmp .L546
 8125               	.LVL667:
 8126               	.L555:
 8127               	.LM817:
 8128 2d5c 6F3F      		cpi r22,lo8(-1)
 8129 2d5e FFEF      		ldi r31,hi8(-1)
 8130 2d60 7F07      		cpc r23,r31
 8131 2d62 FFEF      		ldi r31,hlo8(-1)
 8132 2d64 8F07      		cpc r24,r31
 8133 2d66 FFEF      		ldi r31,hhi8(-1)
 8134 2d68 9F07      		cpc r25,r31
 8135 2d6a 01F4      		brne .+2
 8136 2d6c 00C0      		rjmp .L575
 8137               	.L556:
 8138               	.LM818:
 8139 2d6e EB81      		ldd r30,Y+3
 8140 2d70 FC81      		ldd r31,Y+4
 8141 2d72 628B      		std Z+18,r22
 8142 2d74 738B      		std Z+19,r23
 8143 2d76 848B      		std Z+20,r24
 8144 2d78 958B      		std Z+21,r25
 8145               	.LM819:
 8146 2d7a 1582      		std Z+5,__zero_reg__
 8147               	.LVL668:
 8148               	.L552:
 8149               	.LM820:
 8150 2d7c AB81      		ldd r26,Y+3
 8151 2d7e BC81      		ldd r27,Y+4
 8152 2d80 0D91      		ld r16,X+
 8153 2d82 1C91      		ld r17,X
 8154 2d84 1197      		sbiw r26,1
 8155               	.LVL669:
 8156               	.LBB877:
 8157               	.LBB878:
 8158               	.LM821:
 8159 2d86 5296      		adiw r26,18
 8160 2d88 2D91      		ld r18,X+
 8161 2d8a 3D91      		ld r19,X+
 8162 2d8c 4D91      		ld r20,X+
 8163 2d8e 5C91      		ld r21,X
 8164 2d90 5597      		sbiw r26,18+3
 8165               	.LVL670:
 8166 2d92 2250      		subi r18,lo8(-(-2))
 8167 2d94 3040      		sbci r19,hi8(-(-2))
 8168 2d96 4040      		sbci r20,hlo8(-(-2))
 8169 2d98 5040      		sbci r21,hhi8(-(-2))
 8170               	.LM822:
 8171 2d9a F801      		movw r30,r16
 8172 2d9c 828D      		ldd r24,Z+26
 8173 2d9e 938D      		ldd r25,Z+27
 8174 2da0 A48D      		ldd r26,Z+28
 8175 2da2 B58D      		ldd r27,Z+29
 8176 2da4 0297      		sbiw r24,2
 8177 2da6 A109      		sbc r26,__zero_reg__
 8178 2da8 B109      		sbc r27,__zero_reg__
 8179 2daa 2817      		cp r18,r24
 8180 2dac 3907      		cpc r19,r25
 8181 2dae 4A07      		cpc r20,r26
 8182 2db0 5B07      		cpc r21,r27
 8183 2db2 00F4      		brsh .L557
 8184               	.LM823:
 8185 2db4 6280      		ldd r6,Z+2
 8186 2db6 662D      		mov r22,r6
 8187               	.LVL671:
 8188 2db8 70E0      		ldi r23,lo8(0)
 8189 2dba 80E0      		ldi r24,lo8(0)
 8190 2dbc 90E0      		ldi r25,hi8(0)
 8191 2dbe 0E94 0000 		call __mulsi3
 8192               	.LVL672:
 8193 2dc2 9B01      		movw r18,r22
 8194 2dc4 AC01      		movw r20,r24
 8195               	.LVL673:
 8196 2dc6 F801      		movw r30,r16
 8197 2dc8 86A1      		ldd r24,Z+38
 8198 2dca 97A1      		ldd r25,Z+39
 8199 2dcc A0A5      		ldd r26,Z+40
 8200 2dce B1A5      		ldd r27,Z+41
 8201 2dd0 280F      		add r18,r24
 8202 2dd2 391F      		adc r19,r25
 8203 2dd4 4A1F      		adc r20,r26
 8204 2dd6 5B1F      		adc r21,r27
 8205               	.LBE878:
 8206               	.LBE877:
 8207               	.LM824:
 8208 2dd8 2115      		cp r18,__zero_reg__
 8209 2dda 3105      		cpc r19,__zero_reg__
 8210 2ddc 4105      		cpc r20,__zero_reg__
 8211 2dde 5105      		cpc r21,__zero_reg__
 8212 2de0 01F4      		brne .L558
 8213               	.LVL674:
 8214               	.L557:
 8215 2de2 AB81      		ldd r26,Y+3
 8216 2de4 BC81      		ldd r27,Y+4
 8217 2de6 1496      		adiw r26,4
 8218 2de8 8C91      		ld r24,X
 8219 2dea 1497      		sbiw r26,4
 8220 2dec 8068      		ori r24,lo8(-128)
 8221 2dee 1496      		adiw r26,4
 8222 2df0 8C93      		st X,r24
 8223 2df2 00C0      		rjmp .L574
 8224               	.LVL675:
 8225               	.L558:
 8226               	.LM825:
 8227 2df4 EB81      		ldd r30,Y+3
 8228 2df6 FC81      		ldd r31,Y+4
 8229 2df8 8581      		ldd r24,Z+5
 8230 2dfa 5901      		movw r10,r18
 8231 2dfc 6A01      		movw r12,r20
 8232 2dfe A80E      		add r10,r24
 8233 2e00 B11C      		adc r11,__zero_reg__
 8234 2e02 C11C      		adc r12,__zero_reg__
 8235 2e04 D11C      		adc r13,__zero_reg__
 8236               	.LVL676:
 8237               	.LM826:
 8238 2e06 7401      		movw r14,r8
 8239 2e08 EF2C      		mov r14,r15
 8240 2e0a FF24      		clr r15
 8241 2e0c E694      		lsr r14
 8242               	.LM827:
 8243 2e0e E114      		cp r14,__zero_reg__
 8244 2e10 F104      		cpc r15,__zero_reg__
 8245 2e12 01F4      		brne .+2
 8246 2e14 00C0      		rjmp .L559
 8247               	.LM828:
 8248 2e16 282F      		mov r18,r24
 8249 2e18 30E0      		ldi r19,lo8(0)
 8250 2e1a C701      		movw r24,r14
 8251 2e1c 820F      		add r24,r18
 8252 2e1e 931F      		adc r25,r19
 8253 2e20 662D      		mov r22,r6
 8254 2e22 70E0      		ldi r23,lo8(0)
 8255 2e24 6817      		cp r22,r24
 8256 2e26 7907      		cpc r23,r25
 8257 2e28 00F4      		brsh .L560
 8258               	.LM829:
 8259 2e2a 7B01      		movw r14,r22
 8260 2e2c E21A      		sub r14,r18
 8261 2e2e F30A      		sbc r15,r19
 8262               	.L560:
 8263               	.LM830:
 8264 2e30 D801      		movw r26,r16
 8265 2e32 1196      		adiw r26,1
 8266 2e34 8C91      		ld r24,X
 8267 2e36 B201      		movw r22,r4
 8268 2e38 A601      		movw r20,r12
 8269 2e3a 9501      		movw r18,r10
 8270 2e3c 0E2D      		mov r16,r14
 8271 2e3e 0E94 0000 		call disk_read
 8272 2e42 EB81      		ldd r30,Y+3
 8273 2e44 FC81      		ldd r31,Y+4
 8274 2e46 9481      		ldd r25,Z+4
 8275 2e48 8823      		tst r24
 8276 2e4a 01F0      		breq .L561
 8277               	.LM831:
 8278 2e4c 9068      		ori r25,lo8(-128)
 8279 2e4e 9483      		std Z+4,r25
 8280 2e50 00C0      		rjmp .L576
 8281               	.L561:
 8282               	.LM832:
 8283 2e52 96FF      		sbrs r25,6
 8284 2e54 00C0      		rjmp .L562
 8285 2e56 AB81      		ldd r26,Y+3
 8286 2e58 BC81      		ldd r27,Y+4
 8287 2e5a 5696      		adiw r26,22
 8288 2e5c 2D91      		ld r18,X+
 8289 2e5e 3D91      		ld r19,X+
 8290 2e60 4D91      		ld r20,X+
 8291 2e62 5C91      		ld r21,X
 8292 2e64 5997      		sbiw r26,22+3
 8293 2e66 2A19      		sub r18,r10
 8294 2e68 3B09      		sbc r19,r11
 8295 2e6a 4C09      		sbc r20,r12
 8296 2e6c 5D09      		sbc r21,r13
 8297 2e6e C701      		movw r24,r14
 8298 2e70 A0E0      		ldi r26,lo8(0)
 8299 2e72 B0E0      		ldi r27,hi8(0)
 8300               	.LVL677:
 8301 2e74 2817      		cp r18,r24
 8302 2e76 3907      		cpc r19,r25
 8303 2e78 4A07      		cpc r20,r26
 8304 2e7a 5B07      		cpc r21,r27
 8305 2e7c 00F4      		brsh .L562
 8306               	.LVL678:
 8307               	.LBB879:
 8308               	.LBB876:
 8309               	.LM833:
 8310 2e7e 69E0      		ldi r22,9
 8311 2e80 220F      	1:	lsl r18
 8312 2e82 331F      		rol r19
 8313 2e84 441F      		rol r20
 8314 2e86 551F      		rol r21
 8315 2e88 6A95      		dec r22
 8316 2e8a 01F4      		brne 1b
 8317 2e8c F201      		movw r30,r4
 8318               	.LVL679:
 8319 2e8e E20F      		add r30,r18
 8320 2e90 F31F      		adc r31,r19
 8321 2e92 D101      		movw r26,r2
 8322               	.LVL680:
 8323               	.LM834:
 8324 2e94 9F01      		movw r18,r30
 8325 2e96 2050      		subi r18,lo8(-(512))
 8326 2e98 3E4F      		sbci r19,hi8(-(512))
 8327 2e9a 00C0      		rjmp .L563
 8328               	.LVL681:
 8329               	.L564:
 8330 2e9c 8D91      		ld r24,X+
 8331               	.LVL682:
 8332 2e9e 8193      		st Z+,r24
 8333               	.LVL683:
 8334               	.L563:
 8335 2ea0 E217      		cp r30,r18
 8336 2ea2 F307      		cpc r31,r19
 8337 2ea4 01F4      		brne .L564
 8338               	.LVL684:
 8339               	.L562:
 8340               	.LBE876:
 8341               	.LBE879:
 8342               	.LM835:
 8343 2ea6 EB81      		ldd r30,Y+3
 8344 2ea8 FC81      		ldd r31,Y+4
 8345               	.LVL685:
 8346 2eaa 8581      		ldd r24,Z+5
 8347 2eac 8E0D      		add r24,r14
 8348 2eae 8583      		std Z+5,r24
 8349               	.LM836:
 8350 2eb0 B701      		movw r22,r14
 8351               	.LVL686:
 8352 2eb2 762F      		mov r23,r22
 8353 2eb4 6627      		clr r22
 8354 2eb6 770F      		lsl r23
 8355 2eb8 00C0      		rjmp .L565
 8356               	.LVL687:
 8357               	.L559:
 8358               	.LM837:
 8359 2eba AB81      		ldd r26,Y+3
 8360 2ebc BC81      		ldd r27,Y+4
 8361 2ebe 1496      		adiw r26,4
 8362 2ec0 8C91      		ld r24,X
 8363 2ec2 1497      		sbiw r26,4
 8364 2ec4 86FF      		sbrs r24,6
 8365 2ec6 00C0      		rjmp .L566
 8366               	.LM838:
 8367 2ec8 5696      		adiw r26,22
 8368 2eca 2D91      		ld r18,X+
 8369 2ecc 3D91      		ld r19,X+
 8370 2ece 4D91      		ld r20,X+
 8371 2ed0 5C91      		ld r21,X
 8372 2ed2 5997      		sbiw r26,22+3
 8373 2ed4 F801      		movw r30,r16
 8374 2ed6 8181      		ldd r24,Z+1
 8375 2ed8 B101      		movw r22,r2
 8376 2eda 01E0      		ldi r16,lo8(1)
 8377 2edc 0E94 0000 		call disk_write
 8378 2ee0 AB81      		ldd r26,Y+3
 8379 2ee2 BC81      		ldd r27,Y+4
 8380 2ee4 1496      		adiw r26,4
 8381 2ee6 9C91      		ld r25,X
 8382 2ee8 1497      		sbiw r26,4
 8383 2eea 8823      		tst r24
 8384 2eec 01F0      		breq .L567
 8385               	.LM839:
 8386 2eee 9068      		ori r25,lo8(-128)
 8387 2ef0 1496      		adiw r26,4
 8388 2ef2 9C93      		st X,r25
 8389 2ef4 00C0      		rjmp .L576
 8390               	.L567:
 8391               	.LM840:
 8392 2ef6 9F7B      		andi r25,lo8(-65)
 8393 2ef8 EB81      		ldd r30,Y+3
 8394 2efa FC81      		ldd r31,Y+4
 8395 2efc 9483      		std Z+4,r25
 8396               	.L566:
 8397               	.LM841:
 8398 2efe EB81      		ldd r30,Y+3
 8399 2f00 FC81      		ldd r31,Y+4
 8400 2f02 8689      		ldd r24,Z+22
 8401 2f04 9789      		ldd r25,Z+23
 8402 2f06 A08D      		ldd r26,Z+24
 8403 2f08 B18D      		ldd r27,Z+25
 8404 2f0a 8A15      		cp r24,r10
 8405 2f0c 9B05      		cpc r25,r11
 8406 2f0e AC05      		cpc r26,r12
 8407 2f10 BD05      		cpc r27,r13
 8408 2f12 01F0      		breq .L568
 8409               	.LM842:
 8410 2f14 0190      		ld __tmp_reg__,Z+
 8411 2f16 F081      		ld r31,Z
 8412 2f18 E02D      		mov r30,__tmp_reg__
 8413 2f1a 8181      		ldd r24,Z+1
 8414 2f1c B101      		movw r22,r2
 8415 2f1e A601      		movw r20,r12
 8416 2f20 9501      		movw r18,r10
 8417 2f22 01E0      		ldi r16,lo8(1)
 8418 2f24 0E94 0000 		call disk_read
 8419 2f28 8823      		tst r24
 8420 2f2a 01F0      		breq .L568
 8421               	.LVL688:
 8422               	.L575:
 8423               	.LM843:
 8424 2f2c AB81      		ldd r26,Y+3
 8425 2f2e BC81      		ldd r27,Y+4
 8426 2f30 1496      		adiw r26,4
 8427 2f32 8C91      		ld r24,X
 8428 2f34 1497      		sbiw r26,4
 8429 2f36 8068      		ori r24,lo8(-128)
 8430 2f38 1496      		adiw r26,4
 8431 2f3a 8C93      		st X,r24
 8432               	.L576:
 8433 2f3c 7724      		clr r7
 8434 2f3e 7394      		inc r7
 8435 2f40 00C0      		rjmp .L546
 8436               	.LVL689:
 8437               	.L568:
 8438               	.LM844:
 8439 2f42 EB81      		ldd r30,Y+3
 8440 2f44 FC81      		ldd r31,Y+4
 8441 2f46 A68A      		std Z+22,r10
 8442 2f48 B78A      		std Z+23,r11
 8443 2f4a C08E      		std Z+24,r12
 8444 2f4c D18E      		std Z+25,r13
 8445               	.LM845:
 8446 2f4e 8581      		ldd r24,Z+5
 8447 2f50 8F5F      		subi r24,lo8(-(1))
 8448 2f52 8583      		std Z+5,r24
 8449               	.LVL690:
 8450               	.L551:
 8451               	.LM846:
 8452 2f54 AB81      		ldd r26,Y+3
 8453 2f56 BC81      		ldd r27,Y+4
 8454 2f58 1696      		adiw r26,6
 8455 2f5a 2D91      		ld r18,X+
 8456 2f5c 3D91      		ld r19,X+
 8457 2f5e 4D91      		ld r20,X+
 8458 2f60 5C91      		ld r21,X
 8459 2f62 1997      		sbiw r26,6+3
 8460 2f64 C901      		movw r24,r18
 8461 2f66 9170      		andi r25,hi8(511)
 8462 2f68 E0E0      		ldi r30,lo8(512)
 8463 2f6a F2E0      		ldi r31,hi8(512)
 8464 2f6c E81B      		sub r30,r24
 8465 2f6e F90B      		sbc r31,r25
 8466 2f70 B401      		movw r22,r8
 8467 2f72 E815      		cp r30,r8
 8468 2f74 F905      		cpc r31,r9
 8469 2f76 00F4      		brsh .L569
 8470               	.LVL691:
 8471 2f78 BF01      		movw r22,r30
 8472               	.L569:
 8473               	.LM847:
 8474 2f7a 8B01      		movw r16,r22
 8475               	.LVL692:
 8476               	.LBB880:
 8477               	.LBB881:
 8478               	.LM848:
 8479 2f7c F901      		movw r30,r18
 8480               	.LVL693:
 8481 2f7e F170      		andi r31,hi8(511)
 8482 2f80 B096      		adiw r30,32
 8483 2f82 8B81      		ldd r24,Y+3
 8484 2f84 9C81      		ldd r25,Y+4
 8485 2f86 E80F      		add r30,r24
 8486 2f88 F91F      		adc r31,r25
 8487 2f8a 9201      		movw r18,r4
 8488 2f8c 00C0      		rjmp .L570
 8489               	.LVL694:
 8490               	.L571:
 8491               	.LM849:
 8492 2f8e 8191      		ld r24,Z+
 8493 2f90 D901      		movw r26,r18
 8494 2f92 8D93      		st X+,r24
 8495 2f94 9D01      		movw r18,r26
 8496               	.LVL695:
 8497               	.L570:
 8498 2f96 0150      		subi r16,lo8(-(-1))
 8499 2f98 1040      		sbci r17,hi8(-(-1))
 8500 2f9a BFEF      		ldi r27,hi8(-1)
 8501 2f9c 0F3F      		cpi r16,lo8(-1)
 8502 2f9e 1B07      		cpc r17,r27
 8503 2fa0 01F4      		brne .L571
 8504               	.LVL696:
 8505               	.L565:
 8506               	.LBE881:
 8507               	.LBE880:
 8508               	.LM850:
 8509 2fa2 460E      		add r4,r22
 8510 2fa4 571E      		adc r5,r23
 8511 2fa6 CB01      		movw r24,r22
 8512 2fa8 A0E0      		ldi r26,lo8(0)
 8513 2faa B0E0      		ldi r27,hi8(0)
 8514               	.LVL697:
 8515 2fac EB81      		ldd r30,Y+3
 8516 2fae FC81      		ldd r31,Y+4
 8517               	.LVL698:
 8518 2fb0 2681      		ldd r18,Z+6
 8519 2fb2 3781      		ldd r19,Z+7
 8520 2fb4 4085      		ldd r20,Z+8
 8521 2fb6 5185      		ldd r21,Z+9
 8522 2fb8 280F      		add r18,r24
 8523 2fba 391F      		adc r19,r25
 8524 2fbc 4A1F      		adc r20,r26
 8525 2fbe 5B1F      		adc r21,r27
 8526 2fc0 2683      		std Z+6,r18
 8527 2fc2 3783      		std Z+7,r19
 8528 2fc4 4087      		std Z+8,r20
 8529 2fc6 5187      		std Z+9,r21
 8530 2fc8 E981      		ldd r30,Y+1
 8531 2fca FA81      		ldd r31,Y+2
 8532 2fcc 8081      		ld r24,Z
 8533 2fce 9181      		ldd r25,Z+1
 8534 2fd0 860F      		add r24,r22
 8535 2fd2 971F      		adc r25,r23
 8536 2fd4 8083      		st Z,r24
 8537 2fd6 9183      		std Z+1,r25
 8538 2fd8 861A      		sub r8,r22
 8539 2fda 970A      		sbc r9,r23
 8540               	.LVL699:
 8541               	.L550:
 8542               	.LM851:
 8543 2fdc 8114      		cp r8,__zero_reg__
 8544 2fde 9104      		cpc r9,__zero_reg__
 8545 2fe0 01F0      		breq .+2
 8546 2fe2 00C0      		rjmp .L572
 8547               	.LVL700:
 8548               	.L546:
 8549               	.LM852:
 8550 2fe4 872D      		mov r24,r7
 8551               	/* epilogue start */
 8552 2fe6 2496      		adiw r28,4
 8553 2fe8 CDBF      		out __SP_L__,r28
 8554 2fea DEBF      		out __SP_H__,r29
 8555 2fec CF91      		pop r28
 8556 2fee DF91      		pop r29
 8557 2ff0 1F91      		pop r17
 8558               	.LVL701:
 8559 2ff2 0F91      		pop r16
 8560               	.LVL702:
 8561 2ff4 FF90      		pop r15
 8562 2ff6 EF90      		pop r14
 8563               	.LVL703:
 8564 2ff8 DF90      		pop r13
 8565 2ffa CF90      		pop r12
 8566 2ffc BF90      		pop r11
 8567 2ffe AF90      		pop r10
 8568               	.LVL704:
 8569 3000 9F90      		pop r9
 8570 3002 8F90      		pop r8
 8571               	.LVL705:
 8572 3004 7F90      		pop r7
 8573               	.LVL706:
 8574 3006 6F90      		pop r6
 8575 3008 5F90      		pop r5
 8576 300a 4F90      		pop r4
 8577               	.LVL707:
 8578 300c 3F90      		pop r3
 8579 300e 2F90      		pop r2
 8580               	.LVL708:
 8581 3010 0895      		ret
 8582               	.LFE82:
 8584               	.global	f_write
 8586               	f_write:
 8587               	.LFB83:
 8588               	.LM853:
 8589               	.LVL709:
 8590 3012 2F92      		push r2
 8591 3014 3F92      		push r3
 8592 3016 4F92      		push r4
 8593 3018 5F92      		push r5
 8594 301a 6F92      		push r6
 8595 301c 7F92      		push r7
 8596 301e 8F92      		push r8
 8597 3020 9F92      		push r9
 8598 3022 AF92      		push r10
 8599 3024 BF92      		push r11
 8600 3026 CF92      		push r12
 8601 3028 DF92      		push r13
 8602 302a EF92      		push r14
 8603 302c FF92      		push r15
 8604 302e 0F93      		push r16
 8605 3030 1F93      		push r17
 8606 3032 DF93      		push r29
 8607 3034 CF93      		push r28
 8608 3036 00D0      		rcall .
 8609 3038 0F92      		push __tmp_reg__
 8610 303a CDB7      		in r28,__SP_L__
 8611 303c DEB7      		in r29,__SP_H__
 8612               	/* prologue: function */
 8613               	/* frame size = 4 */
 8614 303e 8B83      		std Y+3,r24
 8615 3040 9C83      		std Y+4,r25
 8616 3042 162F      		mov r17,r22
 8617 3044 072F      		mov r16,r23
 8618               	.LVL710:
 8619 3046 4A01      		movw r8,r20
 8620 3048 2983      		std Y+1,r18
 8621 304a 3A83      		std Y+2,r19
 8622               	.LM854:
 8623 304c D901      		movw r26,r18
 8624 304e 1D92      		st X+,__zero_reg__
 8625 3050 1C92      		st X,__zero_reg__
 8626               	.LM855:
 8627 3052 FC01      		movw r30,r24
 8628 3054 6281      		ldd r22,Z+2
 8629 3056 7381      		ldd r23,Z+3
 8630               	.LVL711:
 8631 3058 8081      		ld r24,Z
 8632 305a 9181      		ldd r25,Z+1
 8633               	.LVL712:
 8634 305c 0E94 0000 		call validate
 8635               	.LVL713:
 8636 3060 682E      		mov r6,r24
 8637               	.LVL714:
 8638               	.LM856:
 8639 3062 8823      		tst r24
 8640 3064 01F0      		breq .+2
 8641 3066 00C0      		rjmp .L578
 8642               	.LVL715:
 8643               	.LM857:
 8644 3068 AB81      		ldd r26,Y+3
 8645 306a BC81      		ldd r27,Y+4
 8646 306c 1496      		adiw r26,4
 8647 306e 8C91      		ld r24,X
 8648               	.LVL716:
 8649 3070 87FD      		sbrc r24,7
 8650 3072 00C0      		rjmp .L609
 8651               	.L579:
 8652               	.LM858:
 8653 3074 81FD      		sbrc r24,1
 8654 3076 00C0      		rjmp .L580
 8655 3078 47E0      		ldi r20,lo8(7)
 8656 307a 642E      		mov r6,r20
 8657 307c 00C0      		rjmp .L578
 8658               	.L580:
 8659               	.LM859:
 8660 307e EB81      		ldd r30,Y+3
 8661 3080 FC81      		ldd r31,Y+4
 8662 3082 2285      		ldd r18,Z+10
 8663 3084 3385      		ldd r19,Z+11
 8664 3086 4485      		ldd r20,Z+12
 8665 3088 5585      		ldd r21,Z+13
 8666 308a C401      		movw r24,r8
 8667 308c A0E0      		ldi r26,lo8(0)
 8668 308e B0E0      		ldi r27,hi8(0)
 8669               	.LVL717:
 8670 3090 820F      		add r24,r18
 8671 3092 931F      		adc r25,r19
 8672 3094 A41F      		adc r26,r20
 8673 3096 B51F      		adc r27,r21
 8674               	.LVL718:
 8675 3098 8217      		cp r24,r18
 8676 309a 9307      		cpc r25,r19
 8677 309c A407      		cpc r26,r20
 8678 309e B507      		cpc r27,r21
 8679 30a0 00F4      		brsh .L581
 8680 30a2 8824      		clr r8
 8681 30a4 9924      		clr r9
 8682               	.LVL719:
 8683               	.L581:
 8684               	.LM860:
 8685 30a6 812F      		mov r24,r17
 8686               	.LVL720:
 8687 30a8 902F      		mov r25,r16
 8688               	.LVL721:
 8689 30aa 9C01      		movw r18,r24
 8690               	.LVL722:
 8691 30ac 2901      		movw r4,r18
 8692               	.LVL723:
 8693               	.LM861:
 8694 30ae 30E2      		ldi r19,lo8(32)
 8695 30b0 232E      		mov r2,r19
 8696 30b2 312C      		mov r3,__zero_reg__
 8697               	.LVL724:
 8698 30b4 6B81      		ldd r22,Y+3
 8699 30b6 7C81      		ldd r23,Y+4
 8700 30b8 260E      		add r2,r22
 8701 30ba 371E      		adc r3,r23
 8702 30bc 00C0      		rjmp .L582
 8703               	.LVL725:
 8704               	.L606:
 8705               	.LM862:
 8706 30be AB81      		ldd r26,Y+3
 8707 30c0 BC81      		ldd r27,Y+4
 8708               	.LVL726:
 8709 30c2 1696      		adiw r26,6
 8710 30c4 2D91      		ld r18,X+
 8711 30c6 3D91      		ld r19,X+
 8712 30c8 4D91      		ld r20,X+
 8713 30ca 5C91      		ld r21,X
 8714 30cc 1997      		sbiw r26,6+3
 8715 30ce DA01      		movw r26,r20
 8716 30d0 C901      		movw r24,r18
 8717 30d2 9170      		andi r25,hi8(511)
 8718 30d4 A070      		andi r26,hlo8(511)
 8719 30d6 B070      		andi r27,hhi8(511)
 8720 30d8 0097      		sbiw r24,0
 8721 30da A105      		cpc r26,__zero_reg__
 8722 30dc B105      		cpc r27,__zero_reg__
 8723 30de 01F0      		breq .+2
 8724 30e0 00C0      		rjmp .L583
 8725               	.LM863:
 8726 30e2 AB81      		ldd r26,Y+3
 8727 30e4 BC81      		ldd r27,Y+4
 8728 30e6 ED91      		ld r30,X+
 8729 30e8 FC91      		ld r31,X
 8730 30ea 1197      		sbiw r26,1
 8731 30ec 1596      		adiw r26,5
 8732 30ee 9C91      		ld r25,X
 8733 30f0 1597      		sbiw r26,5
 8734               	.LVL727:
 8735 30f2 8281      		ldd r24,Z+2
 8736 30f4 9817      		cp r25,r24
 8737 30f6 00F4      		brsh .+2
 8738 30f8 00C0      		rjmp .L584
 8739               	.LM864:
 8740 30fa 2115      		cp r18,__zero_reg__
 8741 30fc 3105      		cpc r19,__zero_reg__
 8742 30fe 4105      		cpc r20,__zero_reg__
 8743 3100 5105      		cpc r21,__zero_reg__
 8744 3102 01F4      		brne .L585
 8745               	.LM865:
 8746 3104 1E96      		adiw r26,14
 8747 3106 6D91      		ld r22,X+
 8748 3108 7D91      		ld r23,X+
 8749 310a 8D91      		ld r24,X+
 8750 310c 9C91      		ld r25,X
 8751 310e 5197      		sbiw r26,14+3
 8752               	.LVL728:
 8753               	.LM866:
 8754 3110 6115      		cp r22,__zero_reg__
 8755 3112 7105      		cpc r23,__zero_reg__
 8756 3114 8105      		cpc r24,__zero_reg__
 8757 3116 9105      		cpc r25,__zero_reg__
 8758 3118 01F4      		brne .L586
 8759               	.LM867:
 8760 311a CF01      		movw r24,r30
 8761 311c 40E0      		ldi r20,lo8(0)
 8762 311e 50E0      		ldi r21,hi8(0)
 8763 3120 60E0      		ldi r22,hlo8(0)
 8764 3122 70E0      		ldi r23,hhi8(0)
 8765 3124 0E94 0000 		call create_chain
 8766               	.LVL729:
 8767 3128 EB81      		ldd r30,Y+3
 8768 312a FC81      		ldd r31,Y+4
 8769 312c 6687      		std Z+14,r22
 8770 312e 7787      		std Z+15,r23
 8771 3130 808B      		std Z+16,r24
 8772 3132 918B      		std Z+17,r25
 8773               	.LVL730:
 8774 3134 00C0      		rjmp .L587
 8775               	.LVL731:
 8776               	.L585:
 8777               	.LM868:
 8778 3136 AB81      		ldd r26,Y+3
 8779 3138 BC81      		ldd r27,Y+4
 8780 313a 5296      		adiw r26,18
 8781 313c 4D91      		ld r20,X+
 8782 313e 5D91      		ld r21,X+
 8783 3140 6D91      		ld r22,X+
 8784 3142 7C91      		ld r23,X
 8785 3144 5597      		sbiw r26,18+3
 8786 3146 CF01      		movw r24,r30
 8787 3148 0E94 0000 		call create_chain
 8788               	.LVL732:
 8789               	.L587:
 8790               	.LM869:
 8791 314c 6115      		cp r22,__zero_reg__
 8792 314e 7105      		cpc r23,__zero_reg__
 8793 3150 8105      		cpc r24,__zero_reg__
 8794 3152 9105      		cpc r25,__zero_reg__
 8795 3154 01F4      		brne .+2
 8796 3156 00C0      		rjmp .L588
 8797               	.L586:
 8798               	.LM870:
 8799 3158 6130      		cpi r22,lo8(1)
 8800 315a 7105      		cpc r23,__zero_reg__
 8801 315c 8105      		cpc r24,__zero_reg__
 8802 315e 9105      		cpc r25,__zero_reg__
 8803 3160 01F4      		brne .L589
 8804 3162 EB81      		ldd r30,Y+3
 8805 3164 FC81      		ldd r31,Y+4
 8806 3166 8481      		ldd r24,Z+4
 8807 3168 8068      		ori r24,lo8(-128)
 8808 316a 8483      		std Z+4,r24
 8809               	.LVL733:
 8810               	.L609:
 8811 316c 22E0      		ldi r18,lo8(2)
 8812 316e 622E      		mov r6,r18
 8813               	.LVL734:
 8814 3170 00C0      		rjmp .L578
 8815               	.LVL735:
 8816               	.L589:
 8817               	.LM871:
 8818 3172 6F3F      		cpi r22,lo8(-1)
 8819 3174 FFEF      		ldi r31,hi8(-1)
 8820 3176 7F07      		cpc r23,r31
 8821 3178 FFEF      		ldi r31,hlo8(-1)
 8822 317a 8F07      		cpc r24,r31
 8823 317c FFEF      		ldi r31,hhi8(-1)
 8824 317e 9F07      		cpc r25,r31
 8825 3180 01F4      		brne .L590
 8826 3182 AB81      		ldd r26,Y+3
 8827 3184 BC81      		ldd r27,Y+4
 8828 3186 1496      		adiw r26,4
 8829 3188 8C91      		ld r24,X
 8830 318a 1497      		sbiw r26,4
 8831 318c 8068      		ori r24,lo8(-128)
 8832 318e 1496      		adiw r26,4
 8833 3190 8C93      		st X,r24
 8834 3192 00C0      		rjmp .L610
 8835               	.L590:
 8836               	.LM872:
 8837 3194 EB81      		ldd r30,Y+3
 8838 3196 FC81      		ldd r31,Y+4
 8839 3198 628B      		std Z+18,r22
 8840 319a 738B      		std Z+19,r23
 8841 319c 848B      		std Z+20,r24
 8842 319e 958B      		std Z+21,r25
 8843               	.LM873:
 8844 31a0 1582      		std Z+5,__zero_reg__
 8845               	.LVL736:
 8846               	.L584:
 8847               	.LM874:
 8848 31a2 AB81      		ldd r26,Y+3
 8849 31a4 BC81      		ldd r27,Y+4
 8850 31a6 1496      		adiw r26,4
 8851 31a8 8C91      		ld r24,X
 8852 31aa 1497      		sbiw r26,4
 8853 31ac 86FF      		sbrs r24,6
 8854 31ae 00C0      		rjmp .L591
 8855               	.LM875:
 8856 31b0 ED91      		ld r30,X+
 8857 31b2 FC91      		ld r31,X
 8858 31b4 1197      		sbiw r26,1
 8859 31b6 5696      		adiw r26,22
 8860 31b8 2D91      		ld r18,X+
 8861 31ba 3D91      		ld r19,X+
 8862 31bc 4D91      		ld r20,X+
 8863 31be 5C91      		ld r21,X
 8864 31c0 5997      		sbiw r26,22+3
 8865 31c2 8181      		ldd r24,Z+1
 8866 31c4 B101      		movw r22,r2
 8867               	.LVL737:
 8868 31c6 01E0      		ldi r16,lo8(1)
 8869               	.LVL738:
 8870 31c8 0E94 0000 		call disk_write
 8871 31cc EB81      		ldd r30,Y+3
 8872 31ce FC81      		ldd r31,Y+4
 8873 31d0 9481      		ldd r25,Z+4
 8874 31d2 8823      		tst r24
 8875 31d4 01F0      		breq .L592
 8876               	.LM876:
 8877 31d6 9068      		ori r25,lo8(-128)
 8878 31d8 9483      		std Z+4,r25
 8879 31da 00C0      		rjmp .L610
 8880               	.L592:
 8881               	.LM877:
 8882 31dc 9F7B      		andi r25,lo8(-65)
 8883 31de AB81      		ldd r26,Y+3
 8884 31e0 BC81      		ldd r27,Y+4
 8885 31e2 1496      		adiw r26,4
 8886 31e4 9C93      		st X,r25
 8887               	.LVL739:
 8888               	.L591:
 8889               	.LM878:
 8890 31e6 EB81      		ldd r30,Y+3
 8891 31e8 FC81      		ldd r31,Y+4
 8892 31ea 0081      		ld r16,Z
 8893 31ec 1181      		ldd r17,Z+1
 8894               	.LVL740:
 8895               	.LBB882:
 8896               	.LBB883:
 8897               	.LM879:
 8898 31ee 2289      		ldd r18,Z+18
 8899 31f0 3389      		ldd r19,Z+19
 8900 31f2 4489      		ldd r20,Z+20
 8901 31f4 5589      		ldd r21,Z+21
 8902               	.LVL741:
 8903 31f6 2250      		subi r18,lo8(-(-2))
 8904 31f8 3040      		sbci r19,hi8(-(-2))
 8905 31fa 4040      		sbci r20,hlo8(-(-2))
 8906 31fc 5040      		sbci r21,hhi8(-(-2))
 8907               	.LM880:
 8908 31fe F801      		movw r30,r16
 8909 3200 828D      		ldd r24,Z+26
 8910 3202 938D      		ldd r25,Z+27
 8911 3204 A48D      		ldd r26,Z+28
 8912 3206 B58D      		ldd r27,Z+29
 8913 3208 0297      		sbiw r24,2
 8914 320a A109      		sbc r26,__zero_reg__
 8915 320c B109      		sbc r27,__zero_reg__
 8916 320e 2817      		cp r18,r24
 8917 3210 3907      		cpc r19,r25
 8918 3212 4A07      		cpc r20,r26
 8919 3214 5B07      		cpc r21,r27
 8920 3216 00F4      		brsh .L593
 8921               	.LM881:
 8922 3218 7280      		ldd r7,Z+2
 8923 321a 672D      		mov r22,r7
 8924               	.LVL742:
 8925 321c 70E0      		ldi r23,lo8(0)
 8926 321e 80E0      		ldi r24,lo8(0)
 8927 3220 90E0      		ldi r25,hi8(0)
 8928 3222 0E94 0000 		call __mulsi3
 8929               	.LVL743:
 8930 3226 9B01      		movw r18,r22
 8931 3228 AC01      		movw r20,r24
 8932               	.LVL744:
 8933 322a F801      		movw r30,r16
 8934 322c 86A1      		ldd r24,Z+38
 8935 322e 97A1      		ldd r25,Z+39
 8936 3230 A0A5      		ldd r26,Z+40
 8937 3232 B1A5      		ldd r27,Z+41
 8938 3234 280F      		add r18,r24
 8939 3236 391F      		adc r19,r25
 8940 3238 4A1F      		adc r20,r26
 8941 323a 5B1F      		adc r21,r27
 8942               	.LBE883:
 8943               	.LBE882:
 8944               	.LM882:
 8945 323c 2115      		cp r18,__zero_reg__
 8946 323e 3105      		cpc r19,__zero_reg__
 8947 3240 4105      		cpc r20,__zero_reg__
 8948 3242 5105      		cpc r21,__zero_reg__
 8949 3244 01F4      		brne .L594
 8950               	.LVL745:
 8951               	.L593:
 8952 3246 AB81      		ldd r26,Y+3
 8953 3248 BC81      		ldd r27,Y+4
 8954 324a 1496      		adiw r26,4
 8955 324c 8C91      		ld r24,X
 8956 324e 1497      		sbiw r26,4
 8957 3250 8068      		ori r24,lo8(-128)
 8958 3252 1496      		adiw r26,4
 8959 3254 8C93      		st X,r24
 8960 3256 00C0      		rjmp .L609
 8961               	.LVL746:
 8962               	.L594:
 8963               	.LM883:
 8964 3258 EB81      		ldd r30,Y+3
 8965 325a FC81      		ldd r31,Y+4
 8966 325c 8581      		ldd r24,Z+5
 8967 325e 6901      		movw r12,r18
 8968 3260 7A01      		movw r14,r20
 8969 3262 C80E      		add r12,r24
 8970 3264 D11C      		adc r13,__zero_reg__
 8971 3266 E11C      		adc r14,__zero_reg__
 8972 3268 F11C      		adc r15,__zero_reg__
 8973               	.LVL747:
 8974               	.LM884:
 8975 326a 5401      		movw r10,r8
 8976 326c AB2C      		mov r10,r11
 8977 326e BB24      		clr r11
 8978 3270 A694      		lsr r10
 8979               	.LM885:
 8980 3272 A114      		cp r10,__zero_reg__
 8981 3274 B104      		cpc r11,__zero_reg__
 8982 3276 01F4      		brne .+2
 8983 3278 00C0      		rjmp .L595
 8984               	.LM886:
 8985 327a 282F      		mov r18,r24
 8986 327c 30E0      		ldi r19,lo8(0)
 8987 327e C501      		movw r24,r10
 8988 3280 820F      		add r24,r18
 8989 3282 931F      		adc r25,r19
 8990 3284 672D      		mov r22,r7
 8991 3286 70E0      		ldi r23,lo8(0)
 8992 3288 6817      		cp r22,r24
 8993 328a 7907      		cpc r23,r25
 8994 328c 00F4      		brsh .L596
 8995               	.LM887:
 8996 328e 5B01      		movw r10,r22
 8997 3290 A21A      		sub r10,r18
 8998 3292 B30A      		sbc r11,r19
 8999               	.L596:
 9000               	.LM888:
 9001 3294 D801      		movw r26,r16
 9002 3296 1196      		adiw r26,1
 9003 3298 8C91      		ld r24,X
 9004 329a B201      		movw r22,r4
 9005 329c A701      		movw r20,r14
 9006 329e 9601      		movw r18,r12
 9007 32a0 0A2D      		mov r16,r10
 9008 32a2 0E94 0000 		call disk_write
 9009 32a6 8823      		tst r24
 9010 32a8 01F0      		breq .+2
 9011 32aa 00C0      		rjmp .L611
 9012               	.L597:
 9013               	.LM889:
 9014 32ac AB81      		ldd r26,Y+3
 9015 32ae BC81      		ldd r27,Y+4
 9016 32b0 5696      		adiw r26,22
 9017 32b2 2D91      		ld r18,X+
 9018 32b4 3D91      		ld r19,X+
 9019 32b6 4D91      		ld r20,X+
 9020 32b8 5C91      		ld r21,X
 9021 32ba 5997      		sbiw r26,22+3
 9022 32bc 2C19      		sub r18,r12
 9023 32be 3D09      		sbc r19,r13
 9024 32c0 4E09      		sbc r20,r14
 9025 32c2 5F09      		sbc r21,r15
 9026 32c4 C501      		movw r24,r10
 9027 32c6 A0E0      		ldi r26,lo8(0)
 9028 32c8 B0E0      		ldi r27,hi8(0)
 9029               	.LVL748:
 9030 32ca 2817      		cp r18,r24
 9031 32cc 3907      		cpc r19,r25
 9032 32ce 4A07      		cpc r20,r26
 9033 32d0 5B07      		cpc r21,r27
 9034 32d2 00F4      		brsh .L598
 9035               	.LVL749:
 9036               	.LBB884:
 9037               	.LBB885:
 9038               	.LM890:
 9039 32d4 19E0      		ldi r17,9
 9040 32d6 220F      	1:	lsl r18
 9041 32d8 331F      		rol r19
 9042 32da 441F      		rol r20
 9043 32dc 551F      		rol r21
 9044 32de 1A95      		dec r17
 9045 32e0 01F4      		brne 1b
 9046               	.LVL750:
 9047 32e2 C201      		movw r24,r4
 9048               	.LVL751:
 9049 32e4 820F      		add r24,r18
 9050 32e6 931F      		adc r25,r19
 9051 32e8 D101      		movw r26,r2
 9052               	.LVL752:
 9053 32ea FC01      		movw r30,r24
 9054               	.LM891:
 9055 32ec 9C01      		movw r18,r24
 9056 32ee 2050      		subi r18,lo8(-(512))
 9057 32f0 3E4F      		sbci r19,hi8(-(512))
 9058 32f2 00C0      		rjmp .L599
 9059               	.LVL753:
 9060               	.L600:
 9061 32f4 8191      		ld r24,Z+
 9062 32f6 8D93      		st X+,r24
 9063               	.LVL754:
 9064               	.L599:
 9065 32f8 E217      		cp r30,r18
 9066 32fa F307      		cpc r31,r19
 9067 32fc 01F4      		brne .L600
 9068               	.LBE885:
 9069               	.LBE884:
 9070               	.LM892:
 9071 32fe EB81      		ldd r30,Y+3
 9072 3300 FC81      		ldd r31,Y+4
 9073               	.LVL755:
 9074 3302 8481      		ldd r24,Z+4
 9075               	.LVL756:
 9076 3304 8F7B      		andi r24,lo8(-65)
 9077 3306 8483      		std Z+4,r24
 9078               	.LVL757:
 9079               	.L598:
 9080               	.LM893:
 9081 3308 AB81      		ldd r26,Y+3
 9082 330a BC81      		ldd r27,Y+4
 9083               	.LVL758:
 9084 330c 1596      		adiw r26,5
 9085 330e 8C91      		ld r24,X
 9086 3310 1597      		sbiw r26,5
 9087 3312 8A0D      		add r24,r10
 9088 3314 1596      		adiw r26,5
 9089 3316 8C93      		st X,r24
 9090               	.LM894:
 9091 3318 B501      		movw r22,r10
 9092               	.LVL759:
 9093 331a 762F      		mov r23,r22
 9094 331c 6627      		clr r22
 9095 331e 770F      		lsl r23
 9096 3320 00C0      		rjmp .L601
 9097               	.LVL760:
 9098               	.L595:
 9099               	.LM895:
 9100 3322 EB81      		ldd r30,Y+3
 9101 3324 FC81      		ldd r31,Y+4
 9102 3326 8689      		ldd r24,Z+22
 9103 3328 9789      		ldd r25,Z+23
 9104 332a A08D      		ldd r26,Z+24
 9105 332c B18D      		ldd r27,Z+25
 9106 332e 8C15      		cp r24,r12
 9107 3330 9D05      		cpc r25,r13
 9108 3332 AE05      		cpc r26,r14
 9109 3334 BF05      		cpc r27,r15
 9110 3336 01F0      		breq .L602
 9111               	.LM896:
 9112 3338 2681      		ldd r18,Z+6
 9113 333a 3781      		ldd r19,Z+7
 9114 333c 4085      		ldd r20,Z+8
 9115 333e 5185      		ldd r21,Z+9
 9116 3340 8285      		ldd r24,Z+10
 9117 3342 9385      		ldd r25,Z+11
 9118 3344 A485      		ldd r26,Z+12
 9119 3346 B585      		ldd r27,Z+13
 9120 3348 2817      		cp r18,r24
 9121 334a 3907      		cpc r19,r25
 9122 334c 4A07      		cpc r20,r26
 9123 334e 5B07      		cpc r21,r27
 9124 3350 00F4      		brsh .L602
 9125 3352 D801      		movw r26,r16
 9126 3354 1196      		adiw r26,1
 9127 3356 8C91      		ld r24,X
 9128 3358 B101      		movw r22,r2
 9129 335a A701      		movw r20,r14
 9130 335c 9601      		movw r18,r12
 9131 335e 01E0      		ldi r16,lo8(1)
 9132 3360 0E94 0000 		call disk_read
 9133 3364 8823      		tst r24
 9134 3366 01F0      		breq .L602
 9135               	.L611:
 9136               	.LM897:
 9137 3368 EB81      		ldd r30,Y+3
 9138 336a FC81      		ldd r31,Y+4
 9139 336c 8481      		ldd r24,Z+4
 9140 336e 8068      		ori r24,lo8(-128)
 9141 3370 8483      		std Z+4,r24
 9142               	.LVL761:
 9143               	.L610:
 9144 3372 6624      		clr r6
 9145 3374 6394      		inc r6
 9146 3376 00C0      		rjmp .L578
 9147               	.LVL762:
 9148               	.L602:
 9149               	.LM898:
 9150 3378 AB81      		ldd r26,Y+3
 9151 337a BC81      		ldd r27,Y+4
 9152 337c 5696      		adiw r26,22
 9153 337e CD92      		st X+,r12
 9154 3380 DD92      		st X+,r13
 9155 3382 ED92      		st X+,r14
 9156 3384 FC92      		st X,r15
 9157 3386 5997      		sbiw r26,22+3
 9158               	.LM899:
 9159 3388 1596      		adiw r26,5
 9160 338a 8C91      		ld r24,X
 9161 338c 1597      		sbiw r26,5
 9162 338e 8F5F      		subi r24,lo8(-(1))
 9163 3390 1596      		adiw r26,5
 9164 3392 8C93      		st X,r24
 9165               	.LVL763:
 9166               	.L583:
 9167               	.LM900:
 9168 3394 EB81      		ldd r30,Y+3
 9169 3396 FC81      		ldd r31,Y+4
 9170 3398 2681      		ldd r18,Z+6
 9171 339a 3781      		ldd r19,Z+7
 9172 339c 4085      		ldd r20,Z+8
 9173 339e 5185      		ldd r21,Z+9
 9174 33a0 C901      		movw r24,r18
 9175 33a2 9170      		andi r25,hi8(511)
 9176 33a4 60E0      		ldi r22,lo8(512)
 9177 33a6 72E0      		ldi r23,hi8(512)
 9178               	.LVL764:
 9179 33a8 681B      		sub r22,r24
 9180 33aa 790B      		sbc r23,r25
 9181 33ac CB01      		movw r24,r22
 9182               	.LVL765:
 9183 33ae B401      		movw r22,r8
 9184               	.LVL766:
 9185 33b0 8815      		cp r24,r8
 9186 33b2 9905      		cpc r25,r9
 9187 33b4 00F4      		brsh .L603
 9188               	.LVL767:
 9189 33b6 BC01      		movw r22,r24
 9190               	.L603:
 9191               	.LM901:
 9192 33b8 8B01      		movw r16,r22
 9193               	.LVL768:
 9194               	.LBB886:
 9195               	.LBB887:
 9196               	.LM902:
 9197 33ba F901      		movw r30,r18
 9198               	.LVL769:
 9199 33bc F170      		andi r31,hi8(511)
 9200 33be B096      		adiw r30,32
 9201 33c0 8B81      		ldd r24,Y+3
 9202 33c2 9C81      		ldd r25,Y+4
 9203               	.LVL770:
 9204 33c4 E80F      		add r30,r24
 9205 33c6 F91F      		adc r31,r25
 9206 33c8 9201      		movw r18,r4
 9207 33ca 00C0      		rjmp .L604
 9208               	.LVL771:
 9209               	.L605:
 9210               	.LM903:
 9211 33cc D901      		movw r26,r18
 9212 33ce 8D91      		ld r24,X+
 9213 33d0 9D01      		movw r18,r26
 9214 33d2 8193      		st Z+,r24
 9215               	.LVL772:
 9216               	.L604:
 9217 33d4 0150      		subi r16,lo8(-(-1))
 9218 33d6 1040      		sbci r17,hi8(-(-1))
 9219 33d8 BFEF      		ldi r27,hi8(-1)
 9220 33da 0F3F      		cpi r16,lo8(-1)
 9221 33dc 1B07      		cpc r17,r27
 9222 33de 01F4      		brne .L605
 9223               	.LBE887:
 9224               	.LBE886:
 9225               	.LM904:
 9226 33e0 EB81      		ldd r30,Y+3
 9227 33e2 FC81      		ldd r31,Y+4
 9228               	.LVL773:
 9229 33e4 8481      		ldd r24,Z+4
 9230 33e6 8064      		ori r24,lo8(64)
 9231 33e8 8483      		std Z+4,r24
 9232               	.LVL774:
 9233               	.L601:
 9234               	.LM905:
 9235 33ea 460E      		add r4,r22
 9236 33ec 571E      		adc r5,r23
 9237 33ee CB01      		movw r24,r22
 9238 33f0 A0E0      		ldi r26,lo8(0)
 9239 33f2 B0E0      		ldi r27,hi8(0)
 9240               	.LVL775:
 9241 33f4 EB81      		ldd r30,Y+3
 9242 33f6 FC81      		ldd r31,Y+4
 9243 33f8 2681      		ldd r18,Z+6
 9244 33fa 3781      		ldd r19,Z+7
 9245 33fc 4085      		ldd r20,Z+8
 9246 33fe 5185      		ldd r21,Z+9
 9247 3400 280F      		add r18,r24
 9248 3402 391F      		adc r19,r25
 9249 3404 4A1F      		adc r20,r26
 9250 3406 5B1F      		adc r21,r27
 9251 3408 2683      		std Z+6,r18
 9252 340a 3783      		std Z+7,r19
 9253 340c 4087      		std Z+8,r20
 9254 340e 5187      		std Z+9,r21
 9255 3410 E981      		ldd r30,Y+1
 9256 3412 FA81      		ldd r31,Y+2
 9257 3414 8081      		ld r24,Z
 9258 3416 9181      		ldd r25,Z+1
 9259 3418 860F      		add r24,r22
 9260 341a 971F      		adc r25,r23
 9261 341c 8083      		st Z,r24
 9262 341e 9183      		std Z+1,r25
 9263 3420 861A      		sub r8,r22
 9264 3422 970A      		sbc r9,r23
 9265               	.LVL776:
 9266               	.L582:
 9267               	.LM906:
 9268 3424 8114      		cp r8,__zero_reg__
 9269 3426 9104      		cpc r9,__zero_reg__
 9270 3428 01F0      		breq .+2
 9271 342a 00C0      		rjmp .L606
 9272               	.LVL777:
 9273               	.L588:
 9274               	.LM907:
 9275 342c AB81      		ldd r26,Y+3
 9276 342e BC81      		ldd r27,Y+4
 9277               	.LVL778:
 9278 3430 1696      		adiw r26,6
 9279 3432 2D91      		ld r18,X+
 9280 3434 3D91      		ld r19,X+
 9281 3436 4D91      		ld r20,X+
 9282 3438 5C91      		ld r21,X
 9283 343a 1997      		sbiw r26,6+3
 9284 343c 1A96      		adiw r26,10
 9285 343e 8D91      		ld r24,X+
 9286 3440 9D91      		ld r25,X+
 9287 3442 0D90      		ld __tmp_reg__,X+
 9288 3444 BC91      		ld r27,X
 9289 3446 A02D      		mov r26,__tmp_reg__
 9290 3448 8217      		cp r24,r18
 9291 344a 9307      		cpc r25,r19
 9292 344c A407      		cpc r26,r20
 9293 344e B507      		cpc r27,r21
 9294 3450 00F4      		brsh .L607
 9295 3452 EB81      		ldd r30,Y+3
 9296 3454 FC81      		ldd r31,Y+4
 9297 3456 2287      		std Z+10,r18
 9298 3458 3387      		std Z+11,r19
 9299 345a 4487      		std Z+12,r20
 9300 345c 5587      		std Z+13,r21
 9301               	.L607:
 9302               	.LM908:
 9303 345e AB81      		ldd r26,Y+3
 9304 3460 BC81      		ldd r27,Y+4
 9305 3462 1496      		adiw r26,4
 9306 3464 8C91      		ld r24,X
 9307 3466 1497      		sbiw r26,4
 9308 3468 8062      		ori r24,lo8(32)
 9309 346a 1496      		adiw r26,4
 9310 346c 8C93      		st X,r24
 9311               	.LVL779:
 9312               	.L578:
 9313               	.LM909:
 9314 346e 862D      		mov r24,r6
 9315               	/* epilogue start */
 9316 3470 2496      		adiw r28,4
 9317 3472 CDBF      		out __SP_L__,r28
 9318 3474 DEBF      		out __SP_H__,r29
 9319 3476 CF91      		pop r28
 9320 3478 DF91      		pop r29
 9321 347a 1F91      		pop r17
 9322               	.LVL780:
 9323 347c 0F91      		pop r16
 9324               	.LVL781:
 9325 347e FF90      		pop r15
 9326 3480 EF90      		pop r14
 9327 3482 DF90      		pop r13
 9328 3484 CF90      		pop r12
 9329               	.LVL782:
 9330 3486 BF90      		pop r11
 9331 3488 AF90      		pop r10
 9332               	.LVL783:
 9333 348a 9F90      		pop r9
 9334 348c 8F90      		pop r8
 9335               	.LVL784:
 9336 348e 7F90      		pop r7
 9337 3490 6F90      		pop r6
 9338               	.LVL785:
 9339 3492 5F90      		pop r5
 9340 3494 4F90      		pop r4
 9341               	.LVL786:
 9342 3496 3F90      		pop r3
 9343 3498 2F90      		pop r2
 9344               	.LVL787:
 9345 349a 0895      		ret
 9346               	.LFE83:
 9348               	.global	f_sync
 9350               	f_sync:
 9351               	.LFB84:
 9352               	.LM910:
 9353               	.LVL788:
 9354 349c 0F93      		push r16
 9355 349e CF93      		push r28
 9356 34a0 DF93      		push r29
 9357               	/* prologue: function */
 9358               	/* frame size = 0 */
 9359 34a2 EC01      		movw r28,r24
 9360               	.LM911:
 9361 34a4 6A81      		ldd r22,Y+2
 9362 34a6 7B81      		ldd r23,Y+3
 9363 34a8 8881      		ld r24,Y
 9364 34aa 9981      		ldd r25,Y+1
 9365               	.LVL789:
 9366 34ac 0E94 0000 		call validate
 9367 34b0 982F      		mov r25,r24
 9368               	.LVL790:
 9369               	.LM912:
 9370 34b2 8823      		tst r24
 9371 34b4 01F0      		breq .+2
 9372 34b6 00C0      		rjmp .L613
 9373               	.LVL791:
 9374               	.LM913:
 9375 34b8 8C81      		ldd r24,Y+4
 9376               	.LVL792:
 9377 34ba 85FF      		sbrs r24,5
 9378 34bc 00C0      		rjmp .L613
 9379               	.LM914:
 9380 34be 86FF      		sbrs r24,6
 9381 34c0 00C0      		rjmp .L614
 9382               	.LM915:
 9383 34c2 E881      		ld r30,Y
 9384 34c4 F981      		ldd r31,Y+1
 9385 34c6 BE01      		movw r22,r28
 9386 34c8 605E      		subi r22,lo8(-(32))
 9387 34ca 7F4F      		sbci r23,hi8(-(32))
 9388 34cc 2E89      		ldd r18,Y+22
 9389 34ce 3F89      		ldd r19,Y+23
 9390 34d0 488D      		ldd r20,Y+24
 9391 34d2 598D      		ldd r21,Y+25
 9392 34d4 8181      		ldd r24,Z+1
 9393 34d6 01E0      		ldi r16,lo8(1)
 9394 34d8 0E94 0000 		call disk_write
 9395               	.LVL793:
 9396 34dc 8823      		tst r24
 9397 34de 01F0      		breq .L615
 9398 34e0 91E0      		ldi r25,lo8(1)
 9399               	.LVL794:
 9400 34e2 00C0      		rjmp .L613
 9401               	.LVL795:
 9402               	.L615:
 9403               	.LM916:
 9404 34e4 8C81      		ldd r24,Y+4
 9405 34e6 8F7B      		andi r24,lo8(-65)
 9406 34e8 8C83      		std Y+4,r24
 9407               	.LVL796:
 9408               	.L614:
 9409               	.LM917:
 9410 34ea 4A8D      		ldd r20,Y+26
 9411 34ec 5B8D      		ldd r21,Y+27
 9412 34ee 6C8D      		ldd r22,Y+28
 9413 34f0 7D8D      		ldd r23,Y+29
 9414 34f2 8881      		ld r24,Y
 9415 34f4 9981      		ldd r25,Y+1
 9416 34f6 0E94 0000 		call move_window
 9417               	.LVL797:
 9418 34fa 982F      		mov r25,r24
 9419               	.LVL798:
 9420               	.LM918:
 9421 34fc 8823      		tst r24
 9422 34fe 01F0      		breq .+2
 9423 3500 00C0      		rjmp .L613
 9424               	.LVL799:
 9425               	.LM919:
 9426 3502 EE8D      		ldd r30,Y+30
 9427 3504 FF8D      		ldd r31,Y+31
 9428               	.LVL800:
 9429               	.LM920:
 9430 3506 8385      		ldd r24,Z+11
 9431               	.LVL801:
 9432 3508 8062      		ori r24,lo8(32)
 9433 350a 8387      		std Z+11,r24
 9434               	.LM921:
 9435 350c 8A85      		ldd r24,Y+10
 9436 350e 848F      		std Z+28,r24
 9437 3510 8B85      		ldd r24,Y+11
 9438 3512 858F      		std Z+29,r24
 9439 3514 8A85      		ldd r24,Y+10
 9440 3516 9B85      		ldd r25,Y+11
 9441 3518 AC85      		ldd r26,Y+12
 9442 351a BD85      		ldd r27,Y+13
 9443 351c CD01      		movw r24,r26
 9444 351e AA27      		clr r26
 9445 3520 BB27      		clr r27
 9446 3522 868F      		std Z+30,r24
 9447 3524 8A85      		ldd r24,Y+10
 9448 3526 9B85      		ldd r25,Y+11
 9449 3528 AC85      		ldd r26,Y+12
 9450 352a BD85      		ldd r27,Y+13
 9451 352c 8B2F      		mov r24,r27
 9452 352e 9927      		clr r25
 9453 3530 AA27      		clr r26
 9454 3532 BB27      		clr r27
 9455 3534 878F      		std Z+31,r24
 9456               	.LM922:
 9457 3536 8E85      		ldd r24,Y+14
 9458 3538 828F      		std Z+26,r24
 9459 353a 8F85      		ldd r24,Y+15
 9460 353c 838F      		std Z+27,r24
 9461               	.LM923:
 9462 353e 8E85      		ldd r24,Y+14
 9463 3540 9F85      		ldd r25,Y+15
 9464 3542 A889      		ldd r26,Y+16
 9465 3544 B989      		ldd r27,Y+17
 9466 3546 CD01      		movw r24,r26
 9467 3548 AA27      		clr r26
 9468 354a BB27      		clr r27
 9469 354c 848B      		std Z+20,r24
 9470 354e 8E85      		ldd r24,Y+14
 9471 3550 9F85      		ldd r25,Y+15
 9472 3552 A889      		ldd r26,Y+16
 9473 3554 B989      		ldd r27,Y+17
 9474 3556 CD01      		movw r24,r26
 9475 3558 AA27      		clr r26
 9476 355a BB27      		clr r27
 9477 355c 892F      		mov r24,r25
 9478 355e 9927      		clr r25
 9479 3560 858B      		std Z+21,r24
 9480               	.LM924:
 9481 3562 168A      		std Z+22,__zero_reg__
 9482 3564 178A      		std Z+23,__zero_reg__
 9483 3566 108E      		std Z+24,__zero_reg__
 9484 3568 118E      		std Z+25,__zero_reg__
 9485               	.LM925:
 9486 356a 8C81      		ldd r24,Y+4
 9487 356c 8F7D      		andi r24,lo8(-33)
 9488 356e 8C83      		std Y+4,r24
 9489               	.LM926:
 9490 3570 E881      		ld r30,Y
 9491 3572 F981      		ldd r31,Y+1
 9492               	.LVL802:
 9493 3574 81E0      		ldi r24,lo8(1)
 9494 3576 8483      		std Z+4,r24
 9495               	.LM927:
 9496 3578 8881      		ld r24,Y
 9497 357a 9981      		ldd r25,Y+1
 9498 357c 0E94 0000 		call sync
 9499               	.LVL803:
 9500 3580 982F      		mov r25,r24
 9501               	.LVL804:
 9502               	.L613:
 9503               	.LM928:
 9504 3582 892F      		mov r24,r25
 9505               	/* epilogue start */
 9506 3584 DF91      		pop r29
 9507 3586 CF91      		pop r28
 9508               	.LVL805:
 9509 3588 0F91      		pop r16
 9510 358a 0895      		ret
 9511               	.LFE84:
 9513               	.global	f_close
 9515               	f_close:
 9516               	.LFB85:
 9517               	.LM929:
 9518               	.LVL806:
 9519 358c CF93      		push r28
 9520 358e DF93      		push r29
 9521               	/* prologue: function */
 9522               	/* frame size = 0 */
 9523 3590 EC01      		movw r28,r24
 9524               	.LM930:
 9525 3592 0E94 0000 		call f_sync
 9526               	.LVL807:
 9527               	.LM931:
 9528 3596 8823      		tst r24
 9529               	.LVL808:
 9530 3598 01F4      		brne .L618
 9531 359a 1882      		st Y,__zero_reg__
 9532 359c 1982      		std Y+1,__zero_reg__
 9533               	.L618:
 9534               	.LVL809:
 9535               	/* epilogue start */
 9536               	.LM932:
 9537 359e DF91      		pop r29
 9538 35a0 CF91      		pop r28
 9539               	.LVL810:
 9540 35a2 0895      		ret
 9541               	.LFE85:
 9543               	.global	f_lseek
 9545               	f_lseek:
 9546               	.LFB86:
 9547               	.LM933:
 9548               	.LVL811:
 9549 35a4 2F92      		push r2
 9550 35a6 3F92      		push r3
 9551 35a8 4F92      		push r4
 9552 35aa 5F92      		push r5
 9553 35ac 6F92      		push r6
 9554 35ae 7F92      		push r7
 9555 35b0 8F92      		push r8
 9556 35b2 9F92      		push r9
 9557 35b4 AF92      		push r10
 9558 35b6 BF92      		push r11
 9559 35b8 CF92      		push r12
 9560 35ba DF92      		push r13
 9561 35bc 0F93      		push r16
 9562 35be 1F93      		push r17
 9563 35c0 DF93      		push r29
 9564 35c2 CF93      		push r28
 9565 35c4 CDB7      		in r28,__SP_L__
 9566 35c6 DEB7      		in r29,__SP_H__
 9567 35c8 2897      		sbiw r28,8
 9568 35ca CDBF      		out __SP_L__,r28
 9569 35cc DEBF      		out __SP_H__,r29
 9570               	/* prologue: function */
 9571               	/* frame size = 8 */
 9572 35ce 8F83      		std Y+7,r24
 9573 35d0 9887      		std Y+8,r25
 9574 35d2 3A01      		movw r6,r20
 9575 35d4 4B01      		movw r8,r22
 9576               	.LM934:
 9577 35d6 DC01      		movw r26,r24
 9578 35d8 1296      		adiw r26,2
 9579 35da 6D91      		ld r22,X+
 9580 35dc 7C91      		ld r23,X
 9581 35de 1397      		sbiw r26,2+1
 9582 35e0 8D91      		ld r24,X+
 9583 35e2 9C91      		ld r25,X
 9584               	.LVL812:
 9585 35e4 0E94 0000 		call validate
 9586               	.LVL813:
 9587 35e8 182F      		mov r17,r24
 9588               	.LVL814:
 9589               	.LM935:
 9590 35ea 8823      		tst r24
 9591 35ec 01F0      		breq .+2
 9592 35ee 00C0      		rjmp .L621
 9593               	.LVL815:
 9594               	.LM936:
 9595 35f0 EF81      		ldd r30,Y+7
 9596 35f2 F885      		ldd r31,Y+8
 9597 35f4 8481      		ldd r24,Z+4
 9598               	.LVL816:
 9599 35f6 87FD      		sbrc r24,7
 9600 35f8 00C0      		rjmp .L648
 9601               	.L622:
 9602               	.LM937:
 9603 35fa AF81      		ldd r26,Y+7
 9604 35fc B885      		ldd r27,Y+8
 9605 35fe 1A96      		adiw r26,10
 9606 3600 AD90      		ld r10,X+
 9607 3602 BD90      		ld r11,X+
 9608 3604 CD90      		ld r12,X+
 9609 3606 DC90      		ld r13,X
 9610 3608 1D97      		sbiw r26,10+3
 9611               	.LVL817:
 9612 360a A614      		cp r10,r6
 9613 360c B704      		cpc r11,r7
 9614 360e C804      		cpc r12,r8
 9615 3610 D904      		cpc r13,r9
 9616 3612 00F4      		brsh .L623
 9617 3614 81FF      		sbrs r24,1
 9618 3616 00C0      		rjmp .L624
 9619               	.L623:
 9620 3618 6401      		movw r12,r8
 9621 361a 5301      		movw r10,r6
 9622               	.L624:
 9623               	.LM938:
 9624 361c EF81      		ldd r30,Y+7
 9625 361e F885      		ldd r31,Y+8
 9626 3620 2681      		ldd r18,Z+6
 9627 3622 3781      		ldd r19,Z+7
 9628 3624 4085      		ldd r20,Z+8
 9629 3626 5185      		ldd r21,Z+9
 9630               	.LVL818:
 9631               	.LM939:
 9632 3628 1682      		std Z+6,__zero_reg__
 9633 362a 1782      		std Z+7,__zero_reg__
 9634 362c 1086      		std Z+8,__zero_reg__
 9635 362e 1186      		std Z+9,__zero_reg__
 9636 3630 8FEF      		ldi r24,lo8(-1)
 9637 3632 8583      		std Z+5,r24
 9638               	.LM940:
 9639 3634 A114      		cp r10,__zero_reg__
 9640 3636 B104      		cpc r11,__zero_reg__
 9641 3638 C104      		cpc r12,__zero_reg__
 9642 363a D104      		cpc r13,__zero_reg__
 9643 363c 01F4      		brne .+2
 9644 363e 00C0      		rjmp .L625
 9645               	.LM941:
 9646 3640 0190      		ld __tmp_reg__,Z+
 9647 3642 F081      		ld r31,Z
 9648 3644 E02D      		mov r30,__tmp_reg__
 9649 3646 E983      		std Y+1,r30
 9650 3648 FA83      		std Y+2,r31
 9651 364a 8281      		ldd r24,Z+2
 9652 364c 682E      		mov r6,r24
 9653               	.LVL819:
 9654 364e 7724      		clr r7
 9655               	.LVL820:
 9656 3650 8824      		clr r8
 9657 3652 9924      		clr r9
 9658               	.LVL821:
 9659 3654 89E0      		ldi r24,9
 9660 3656 660C      	1:	lsl r6
 9661 3658 771C      		rol r7
 9662 365a 881C      		rol r8
 9663 365c 991C      		rol r9
 9664 365e 8A95      		dec r24
 9665 3660 01F4      		brne 1b
 9666               	.LVL822:
 9667               	.LM942:
 9668 3662 2115      		cp r18,__zero_reg__
 9669 3664 3105      		cpc r19,__zero_reg__
 9670 3666 4105      		cpc r20,__zero_reg__
 9671 3668 5105      		cpc r21,__zero_reg__
 9672 366a 01F0      		breq .L626
 9673 366c 1901      		movw r2,r18
 9674 366e 2A01      		movw r4,r20
 9675 3670 0894      		sec
 9676 3672 2108      		sbc r2,__zero_reg__
 9677 3674 3108      		sbc r3,__zero_reg__
 9678 3676 4108      		sbc r4,__zero_reg__
 9679 3678 5108      		sbc r5,__zero_reg__
 9680 367a C601      		movw r24,r12
 9681 367c B501      		movw r22,r10
 9682 367e 6150      		subi r22,lo8(-(-1))
 9683 3680 7040      		sbci r23,hi8(-(-1))
 9684 3682 8040      		sbci r24,hlo8(-(-1))
 9685 3684 9040      		sbci r25,hhi8(-(-1))
 9686 3686 A401      		movw r20,r8
 9687 3688 9301      		movw r18,r6
 9688               	.LVL823:
 9689 368a 0E94 0000 		call __udivmodsi4
 9690 368e 2B83      		std Y+3,r18
 9691 3690 3C83      		std Y+4,r19
 9692 3692 4D83      		std Y+5,r20
 9693 3694 5E83      		std Y+6,r21
 9694 3696 C201      		movw r24,r4
 9695 3698 B101      		movw r22,r2
 9696 369a A401      		movw r20,r8
 9697 369c 9301      		movw r18,r6
 9698 369e 0E94 0000 		call __udivmodsi4
 9699 36a2 8B81      		ldd r24,Y+3
 9700 36a4 9C81      		ldd r25,Y+4
 9701 36a6 AD81      		ldd r26,Y+5
 9702 36a8 BE81      		ldd r27,Y+6
 9703 36aa 8217      		cp r24,r18
 9704 36ac 9307      		cpc r25,r19
 9705 36ae A407      		cpc r26,r20
 9706 36b0 B507      		cpc r27,r21
 9707 36b2 00F0      		brlo .L626
 9708               	.LM943:
 9709 36b4 8827      		clr r24
 9710 36b6 9927      		clr r25
 9711 36b8 DC01      		movw r26,r24
 9712 36ba 8619      		sub r24,r6
 9713 36bc 9709      		sbc r25,r7
 9714 36be A809      		sbc r26,r8
 9715 36c0 B909      		sbc r27,r9
 9716 36c2 8221      		and r24,r2
 9717 36c4 9321      		and r25,r3
 9718 36c6 A421      		and r26,r4
 9719 36c8 B521      		and r27,r5
 9720 36ca EF81      		ldd r30,Y+7
 9721 36cc F885      		ldd r31,Y+8
 9722 36ce 8683      		std Z+6,r24
 9723 36d0 9783      		std Z+7,r25
 9724 36d2 A087      		std Z+8,r26
 9725 36d4 B187      		std Z+9,r27
 9726               	.LM944:
 9727 36d6 A81A      		sub r10,r24
 9728 36d8 B90A      		sbc r11,r25
 9729 36da CA0A      		sbc r12,r26
 9730 36dc DB0A      		sbc r13,r27
 9731               	.LM945:
 9732 36de 4289      		ldd r20,Z+18
 9733 36e0 5389      		ldd r21,Z+19
 9734 36e2 6489      		ldd r22,Z+20
 9735 36e4 7589      		ldd r23,Z+21
 9736               	.LVL824:
 9737 36e6 00C0      		rjmp .L627
 9738               	.LVL825:
 9739               	.L626:
 9740               	.LM946:
 9741 36e8 AF81      		ldd r26,Y+7
 9742 36ea B885      		ldd r27,Y+8
 9743 36ec 1E96      		adiw r26,14
 9744 36ee 4D91      		ld r20,X+
 9745 36f0 5D91      		ld r21,X+
 9746 36f2 6D91      		ld r22,X+
 9747 36f4 7C91      		ld r23,X
 9748 36f6 5197      		sbiw r26,14+3
 9749               	.LVL826:
 9750               	.LM947:
 9751 36f8 4115      		cp r20,__zero_reg__
 9752 36fa 5105      		cpc r21,__zero_reg__
 9753 36fc 6105      		cpc r22,__zero_reg__
 9754 36fe 7105      		cpc r23,__zero_reg__
 9755 3700 01F4      		brne .L628
 9756               	.LM948:
 9757 3702 8981      		ldd r24,Y+1
 9758 3704 9A81      		ldd r25,Y+2
 9759 3706 40E0      		ldi r20,lo8(0)
 9760 3708 50E0      		ldi r21,hi8(0)
 9761 370a 60E0      		ldi r22,hlo8(0)
 9762 370c 70E0      		ldi r23,hhi8(0)
 9763               	.LVL827:
 9764 370e 0E94 0000 		call create_chain
 9765               	.LVL828:
 9766 3712 AB01      		movw r20,r22
 9767 3714 BC01      		movw r22,r24
 9768               	.LVL829:
 9769               	.LM949:
 9770 3716 4130      		cpi r20,lo8(1)
 9771 3718 5105      		cpc r21,__zero_reg__
 9772 371a 6105      		cpc r22,__zero_reg__
 9773 371c 7105      		cpc r23,__zero_reg__
 9774 371e 01F4      		brne .L629
 9775               	.L650:
 9776 3720 EF81      		ldd r30,Y+7
 9777 3722 F885      		ldd r31,Y+8
 9778 3724 8481      		ldd r24,Z+4
 9779 3726 8068      		ori r24,lo8(-128)
 9780 3728 8483      		std Z+4,r24
 9781               	.LVL830:
 9782               	.L648:
 9783 372a 12E0      		ldi r17,lo8(2)
 9784 372c 00C0      		rjmp .L621
 9785               	.LVL831:
 9786               	.L629:
 9787               	.LM950:
 9788 372e 4F3F      		cpi r20,lo8(-1)
 9789 3730 FFEF      		ldi r31,hi8(-1)
 9790 3732 5F07      		cpc r21,r31
 9791 3734 FFEF      		ldi r31,hlo8(-1)
 9792 3736 6F07      		cpc r22,r31
 9793 3738 FFEF      		ldi r31,hhi8(-1)
 9794 373a 7F07      		cpc r23,r31
 9795 373c 01F0      		breq .L651
 9796               	.L630:
 9797               	.LM951:
 9798 373e EF81      		ldd r30,Y+7
 9799 3740 F885      		ldd r31,Y+8
 9800 3742 4687      		std Z+14,r20
 9801 3744 5787      		std Z+15,r21
 9802 3746 608B      		std Z+16,r22
 9803 3748 718B      		std Z+17,r23
 9804               	.LVL832:
 9805               	.L628:
 9806               	.LM952:
 9807 374a AF81      		ldd r26,Y+7
 9808 374c B885      		ldd r27,Y+8
 9809 374e 5296      		adiw r26,18
 9810 3750 4D93      		st X+,r20
 9811 3752 5D93      		st X+,r21
 9812 3754 6D93      		st X+,r22
 9813 3756 7C93      		st X,r23
 9814 3758 5597      		sbiw r26,18+3
 9815               	.L627:
 9816               	.LM953:
 9817 375a 4115      		cp r20,__zero_reg__
 9818 375c 5105      		cpc r21,__zero_reg__
 9819 375e 6105      		cpc r22,__zero_reg__
 9820 3760 7105      		cpc r23,__zero_reg__
 9821 3762 01F0      		breq .+2
 9822 3764 00C0      		rjmp .L647
 9823 3766 00C0      		rjmp .L625
 9824               	.L638:
 9825               	.LM954:
 9826 3768 EF81      		ldd r30,Y+7
 9827 376a F885      		ldd r31,Y+8
 9828 376c 8481      		ldd r24,Z+4
 9829 376e 2081      		ld r18,Z
 9830 3770 3181      		ldd r19,Z+1
 9831               	.LVL833:
 9832 3772 81FF      		sbrs r24,1
 9833 3774 00C0      		rjmp .L632
 9834               	.LM955:
 9835 3776 C901      		movw r24,r18
 9836 3778 0E94 0000 		call create_chain
 9837               	.LVL834:
 9838 377c AB01      		movw r20,r22
 9839 377e BC01      		movw r22,r24
 9840               	.LVL835:
 9841               	.LM956:
 9842 3780 4115      		cp r20,__zero_reg__
 9843 3782 5105      		cpc r21,__zero_reg__
 9844 3784 6105      		cpc r22,__zero_reg__
 9845 3786 7105      		cpc r23,__zero_reg__
 9846 3788 01F4      		brne .L633
 9847 378a 6401      		movw r12,r8
 9848 378c 5301      		movw r10,r6
 9849 378e 00C0      		rjmp .L634
 9850               	.L632:
 9851               	.LM957:
 9852 3790 C901      		movw r24,r18
 9853 3792 0E94 0000 		call get_fat
 9854               	.LVL836:
 9855 3796 AB01      		movw r20,r22
 9856 3798 BC01      		movw r22,r24
 9857               	.LVL837:
 9858               	.L633:
 9859               	.LM958:
 9860 379a 4F3F      		cpi r20,lo8(-1)
 9861 379c FFEF      		ldi r31,hi8(-1)
 9862 379e 5F07      		cpc r21,r31
 9863 37a0 FFEF      		ldi r31,hlo8(-1)
 9864 37a2 6F07      		cpc r22,r31
 9865 37a4 FFEF      		ldi r31,hhi8(-1)
 9866 37a6 7F07      		cpc r23,r31
 9867 37a8 01F4      		brne .L635
 9868               	.L651:
 9869 37aa AF81      		ldd r26,Y+7
 9870 37ac B885      		ldd r27,Y+8
 9871 37ae 1496      		adiw r26,4
 9872 37b0 8C91      		ld r24,X
 9873 37b2 1497      		sbiw r26,4
 9874 37b4 8068      		ori r24,lo8(-128)
 9875 37b6 1496      		adiw r26,4
 9876 37b8 8C93      		st X,r24
 9877 37ba 00C0      		rjmp .L649
 9878               	.L635:
 9879               	.LM959:
 9880 37bc 4230      		cpi r20,lo8(2)
 9881 37be 5105      		cpc r21,__zero_reg__
 9882 37c0 6105      		cpc r22,__zero_reg__
 9883 37c2 7105      		cpc r23,__zero_reg__
 9884 37c4 00F4      		brsh .+2
 9885 37c6 00C0      		rjmp .L650
 9886 37c8 AF81      		ldd r26,Y+7
 9887 37ca B885      		ldd r27,Y+8
 9888 37cc ED91      		ld r30,X+
 9889 37ce FC91      		ld r31,X
 9890 37d0 828D      		ldd r24,Z+26
 9891 37d2 938D      		ldd r25,Z+27
 9892 37d4 A48D      		ldd r26,Z+28
 9893 37d6 B58D      		ldd r27,Z+29
 9894 37d8 4817      		cp r20,r24
 9895 37da 5907      		cpc r21,r25
 9896 37dc 6A07      		cpc r22,r26
 9897 37de 7B07      		cpc r23,r27
 9898 37e0 00F0      		brlo .+2
 9899 37e2 00C0      		rjmp .L650
 9900               	.L637:
 9901               	.LM960:
 9902 37e4 AF81      		ldd r26,Y+7
 9903 37e6 B885      		ldd r27,Y+8
 9904 37e8 5296      		adiw r26,18
 9905 37ea 4D93      		st X+,r20
 9906 37ec 5D93      		st X+,r21
 9907 37ee 6D93      		st X+,r22
 9908 37f0 7C93      		st X,r23
 9909 37f2 5597      		sbiw r26,18+3
 9910               	.LM961:
 9911 37f4 FD01      		movw r30,r26
 9912 37f6 8681      		ldd r24,Z+6
 9913 37f8 9781      		ldd r25,Z+7
 9914 37fa A085      		ldd r26,Z+8
 9915 37fc B185      		ldd r27,Z+9
 9916 37fe 860D      		add r24,r6
 9917 3800 971D      		adc r25,r7
 9918 3802 A81D      		adc r26,r8
 9919 3804 B91D      		adc r27,r9
 9920 3806 8683      		std Z+6,r24
 9921 3808 9783      		std Z+7,r25
 9922 380a A087      		std Z+8,r26
 9923 380c B187      		std Z+9,r27
 9924               	.LM962:
 9925 380e A618      		sub r10,r6
 9926 3810 B708      		sbc r11,r7
 9927 3812 C808      		sbc r12,r8
 9928 3814 D908      		sbc r13,r9
 9929               	.LVL838:
 9930               	.L647:
 9931               	.LM963:
 9932 3816 6A14      		cp r6,r10
 9933 3818 7B04      		cpc r7,r11
 9934 381a 8C04      		cpc r8,r12
 9935 381c 9D04      		cpc r9,r13
 9936 381e 00F4      		brsh .+2
 9937 3820 00C0      		rjmp .L638
 9938               	.L634:
 9939               	.LM964:
 9940 3822 EF81      		ldd r30,Y+7
 9941 3824 F885      		ldd r31,Y+8
 9942 3826 8681      		ldd r24,Z+6
 9943 3828 9781      		ldd r25,Z+7
 9944 382a A085      		ldd r26,Z+8
 9945 382c B185      		ldd r27,Z+9
 9946 382e 8A0D      		add r24,r10
 9947 3830 9B1D      		adc r25,r11
 9948 3832 AC1D      		adc r26,r12
 9949 3834 BD1D      		adc r27,r13
 9950 3836 8683      		std Z+6,r24
 9951 3838 9783      		std Z+7,r25
 9952 383a A087      		std Z+8,r26
 9953 383c B187      		std Z+9,r27
 9954               	.LM965:
 9955 383e D601      		movw r26,r12
 9956 3840 C501      		movw r24,r10
 9957 3842 09E0      		ldi r16,9
 9958 3844 B695      	1:	lsr r27
 9959 3846 A795      		ror r26
 9960 3848 9795      		ror r25
 9961 384a 8795      		ror r24
 9962 384c 0A95      		dec r16
 9963 384e 01F4      		brne 1b
 9964 3850 082F      		mov r16,r24
 9965 3852 8583      		std Z+5,r24
 9966               	.LM966:
 9967 3854 8FEF      		ldi r24,lo8(511)
 9968 3856 91E0      		ldi r25,hi8(511)
 9969 3858 A0E0      		ldi r26,hlo8(511)
 9970 385a B0E0      		ldi r27,hhi8(511)
 9971 385c A822      		and r10,r24
 9972 385e B922      		and r11,r25
 9973 3860 CA22      		and r12,r26
 9974 3862 DB22      		and r13,r27
 9975 3864 A114      		cp r10,__zero_reg__
 9976 3866 B104      		cpc r11,__zero_reg__
 9977 3868 C104      		cpc r12,__zero_reg__
 9978 386a D104      		cpc r13,__zero_reg__
 9979 386c 01F4      		brne .+2
 9980 386e 00C0      		rjmp .L625
 9981               	.LM967:
 9982 3870 8080      		ld r8,Z
 9983 3872 9180      		ldd r9,Z+1
 9984               	.LVL839:
 9985               	.LBB888:
 9986               	.LBB889:
 9987               	.LM968:
 9988 3874 3EEF      		ldi r19,lo8(-2)
 9989 3876 A32E      		mov r10,r19
 9990 3878 3FEF      		ldi r19,hi8(-2)
 9991 387a B32E      		mov r11,r19
 9992 387c 3FEF      		ldi r19,hlo8(-2)
 9993 387e C32E      		mov r12,r19
 9994 3880 3FEF      		ldi r19,hhi8(-2)
 9995 3882 D32E      		mov r13,r19
 9996               	.LVL840:
 9997 3884 A40E      		add r10,r20
 9998 3886 B51E      		adc r11,r21
 9999 3888 C61E      		adc r12,r22
 10000 388a D71E      		adc r13,r23
 10001               	.LM969:
 10002 388c F401      		movw r30,r8
 10003 388e 828D      		ldd r24,Z+26
 10004 3890 938D      		ldd r25,Z+27
 10005 3892 A48D      		ldd r26,Z+28
 10006 3894 B58D      		ldd r27,Z+29
 10007 3896 0297      		sbiw r24,2
 10008 3898 A109      		sbc r26,__zero_reg__
 10009 389a B109      		sbc r27,__zero_reg__
 10010 389c A816      		cp r10,r24
 10011 389e B906      		cpc r11,r25
 10012 38a0 CA06      		cpc r12,r26
 10013 38a2 DB06      		cpc r13,r27
 10014 38a4 00F4      		brsh .L639
 10015               	.LM970:
 10016 38a6 2281      		ldd r18,Z+2
 10017               	.LVL841:
 10018 38a8 30E0      		ldi r19,lo8(0)
 10019 38aa 40E0      		ldi r20,lo8(0)
 10020 38ac 50E0      		ldi r21,hi8(0)
 10021               	.LVL842:
 10022 38ae C601      		movw r24,r12
 10023 38b0 B501      		movw r22,r10
 10024 38b2 0E94 0000 		call __mulsi3
 10025 38b6 9B01      		movw r18,r22
 10026 38b8 AC01      		movw r20,r24
 10027               	.LVL843:
 10028 38ba F401      		movw r30,r8
 10029 38bc 86A1      		ldd r24,Z+38
 10030 38be 97A1      		ldd r25,Z+39
 10031 38c0 A0A5      		ldd r26,Z+40
 10032 38c2 B1A5      		ldd r27,Z+41
 10033 38c4 280F      		add r18,r24
 10034 38c6 391F      		adc r19,r25
 10035 38c8 4A1F      		adc r20,r26
 10036 38ca 5B1F      		adc r21,r27
 10037               	.LBE889:
 10038               	.LBE888:
 10039               	.LM971:
 10040 38cc 2115      		cp r18,__zero_reg__
 10041 38ce 3105      		cpc r19,__zero_reg__
 10042 38d0 4105      		cpc r20,__zero_reg__
 10043 38d2 5105      		cpc r21,__zero_reg__
 10044 38d4 01F4      		brne .L640
 10045               	.LVL844:
 10046               	.L639:
 10047 38d6 AF81      		ldd r26,Y+7
 10048 38d8 B885      		ldd r27,Y+8
 10049 38da 1496      		adiw r26,4
 10050 38dc 8C91      		ld r24,X
 10051 38de 1497      		sbiw r26,4
 10052 38e0 8068      		ori r24,lo8(-128)
 10053 38e2 1496      		adiw r26,4
 10054 38e4 8C93      		st X,r24
 10055 38e6 00C0      		rjmp .L648
 10056               	.LVL845:
 10057               	.L640:
 10058               	.LM972:
 10059 38e8 5901      		movw r10,r18
 10060 38ea 6A01      		movw r12,r20
 10061               	.LVL846:
 10062 38ec A00E      		add r10,r16
 10063 38ee B11C      		adc r11,__zero_reg__
 10064 38f0 C11C      		adc r12,__zero_reg__
 10065 38f2 D11C      		adc r13,__zero_reg__
 10066               	.LVL847:
 10067               	.LM973:
 10068 38f4 0F5F      		subi r16,lo8(-(1))
 10069 38f6 EF81      		ldd r30,Y+7
 10070 38f8 F885      		ldd r31,Y+8
 10071 38fa 0583      		std Z+5,r16
 10072 38fc 00C0      		rjmp .L641
 10073               	.LVL848:
 10074               	.L625:
 10075 38fe AA24      		clr r10
 10076 3900 BB24      		clr r11
 10077 3902 6501      		movw r12,r10
 10078               	.LVL849:
 10079               	.L641:
 10080               	.LM974:
 10081 3904 EF81      		ldd r30,Y+7
 10082 3906 F885      		ldd r31,Y+8
 10083 3908 8681      		ldd r24,Z+6
 10084 390a 9781      		ldd r25,Z+7
 10085 390c A085      		ldd r26,Z+8
 10086 390e B185      		ldd r27,Z+9
 10087 3910 9170      		andi r25,hi8(511)
 10088 3912 A070      		andi r26,hlo8(511)
 10089 3914 B070      		andi r27,hhi8(511)
 10090 3916 0097      		sbiw r24,0
 10091 3918 A105      		cpc r26,__zero_reg__
 10092 391a B105      		cpc r27,__zero_reg__
 10093 391c 01F4      		brne .+2
 10094 391e 00C0      		rjmp .L642
 10095 3920 2689      		ldd r18,Z+22
 10096 3922 3789      		ldd r19,Z+23
 10097 3924 408D      		ldd r20,Z+24
 10098 3926 518D      		ldd r21,Z+25
 10099               	.LVL850:
 10100 3928 A216      		cp r10,r18
 10101 392a B306      		cpc r11,r19
 10102 392c C406      		cpc r12,r20
 10103 392e D506      		cpc r13,r21
 10104 3930 01F0      		breq .L642
 10105               	.LM975:
 10106 3932 8481      		ldd r24,Z+4
 10107 3934 86FF      		sbrs r24,6
 10108 3936 00C0      		rjmp .L643
 10109               	.LM976:
 10110 3938 0190      		ld __tmp_reg__,Z+
 10111 393a F081      		ld r31,Z
 10112 393c E02D      		mov r30,__tmp_reg__
 10113 393e 6F81      		ldd r22,Y+7
 10114 3940 7885      		ldd r23,Y+8
 10115 3942 605E      		subi r22,lo8(-(32))
 10116 3944 7F4F      		sbci r23,hi8(-(32))
 10117 3946 8181      		ldd r24,Z+1
 10118 3948 01E0      		ldi r16,lo8(1)
 10119 394a 0E94 0000 		call disk_write
 10120               	.LVL851:
 10121 394e AF81      		ldd r26,Y+7
 10122 3950 B885      		ldd r27,Y+8
 10123 3952 1496      		adiw r26,4
 10124 3954 9C91      		ld r25,X
 10125 3956 1497      		sbiw r26,4
 10126 3958 8823      		tst r24
 10127 395a 01F0      		breq .L644
 10128               	.LM977:
 10129 395c 9068      		ori r25,lo8(-128)
 10130 395e 1496      		adiw r26,4
 10131 3960 9C93      		st X,r25
 10132 3962 00C0      		rjmp .L649
 10133               	.L644:
 10134               	.LM978:
 10135 3964 9F7B      		andi r25,lo8(-65)
 10136 3966 EF81      		ldd r30,Y+7
 10137 3968 F885      		ldd r31,Y+8
 10138 396a 9483      		std Z+4,r25
 10139               	.LVL852:
 10140               	.L643:
 10141               	.LM979:
 10142 396c AF81      		ldd r26,Y+7
 10143 396e B885      		ldd r27,Y+8
 10144 3970 ED91      		ld r30,X+
 10145 3972 FC91      		ld r31,X
 10146 3974 1197      		sbiw r26,1
 10147 3976 BD01      		movw r22,r26
 10148 3978 605E      		subi r22,lo8(-(32))
 10149 397a 7F4F      		sbci r23,hi8(-(32))
 10150 397c 8181      		ldd r24,Z+1
 10151 397e A601      		movw r20,r12
 10152 3980 9501      		movw r18,r10
 10153 3982 01E0      		ldi r16,lo8(1)
 10154 3984 0E94 0000 		call disk_read
 10155               	.LVL853:
 10156 3988 8823      		tst r24
 10157 398a 01F0      		breq .L645
 10158               	.LM980:
 10159 398c EF81      		ldd r30,Y+7
 10160 398e F885      		ldd r31,Y+8
 10161 3990 8481      		ldd r24,Z+4
 10162 3992 8068      		ori r24,lo8(-128)
 10163 3994 8483      		std Z+4,r24
 10164               	.LVL854:
 10165               	.L649:
 10166 3996 11E0      		ldi r17,lo8(1)
 10167 3998 00C0      		rjmp .L621
 10168               	.LVL855:
 10169               	.L645:
 10170               	.LM981:
 10171 399a AF81      		ldd r26,Y+7
 10172 399c B885      		ldd r27,Y+8
 10173 399e 5696      		adiw r26,22
 10174 39a0 AD92      		st X+,r10
 10175 39a2 BD92      		st X+,r11
 10176 39a4 CD92      		st X+,r12
 10177 39a6 DC92      		st X,r13
 10178 39a8 5997      		sbiw r26,22+3
 10179               	.LVL856:
 10180               	.L642:
 10181               	.LM982:
 10182 39aa EF81      		ldd r30,Y+7
 10183 39ac F885      		ldd r31,Y+8
 10184 39ae 2681      		ldd r18,Z+6
 10185 39b0 3781      		ldd r19,Z+7
 10186 39b2 4085      		ldd r20,Z+8
 10187 39b4 5185      		ldd r21,Z+9
 10188               	.LVL857:
 10189 39b6 8285      		ldd r24,Z+10
 10190 39b8 9385      		ldd r25,Z+11
 10191 39ba A485      		ldd r26,Z+12
 10192 39bc B585      		ldd r27,Z+13
 10193 39be 8217      		cp r24,r18
 10194 39c0 9307      		cpc r25,r19
 10195 39c2 A407      		cpc r26,r20
 10196 39c4 B507      		cpc r27,r21
 10197 39c6 00F4      		brsh .L621
 10198               	.LM983:
 10199 39c8 2287      		std Z+10,r18
 10200 39ca 3387      		std Z+11,r19
 10201 39cc 4487      		std Z+12,r20
 10202 39ce 5587      		std Z+13,r21
 10203               	.LM984:
 10204 39d0 8481      		ldd r24,Z+4
 10205 39d2 8062      		ori r24,lo8(32)
 10206 39d4 8483      		std Z+4,r24
 10207               	.LVL858:
 10208               	.L621:
 10209               	.LM985:
 10210 39d6 812F      		mov r24,r17
 10211               	/* epilogue start */
 10212 39d8 2896      		adiw r28,8
 10213 39da CDBF      		out __SP_L__,r28
 10214 39dc DEBF      		out __SP_H__,r29
 10215 39de CF91      		pop r28
 10216 39e0 DF91      		pop r29
 10217 39e2 1F91      		pop r17
 10218               	.LVL859:
 10219 39e4 0F91      		pop r16
 10220 39e6 DF90      		pop r13
 10221 39e8 CF90      		pop r12
 10222 39ea BF90      		pop r11
 10223 39ec AF90      		pop r10
 10224               	.LVL860:
 10225 39ee 9F90      		pop r9
 10226 39f0 8F90      		pop r8
 10227               	.LVL861:
 10228 39f2 7F90      		pop r7
 10229               	.LVL862:
 10230 39f4 6F90      		pop r6
 10231               	.LVL863:
 10232 39f6 5F90      		pop r5
 10233 39f8 4F90      		pop r4
 10234 39fa 3F90      		pop r3
 10235 39fc 2F90      		pop r2
 10236 39fe 0895      		ret
 10237               	.LFE86:
 10239               	.global	f_opendir
 10241               	f_opendir:
 10242               	.LFB87:
 10243               	.LM986:
 10244               	.LVL864:
 10245 3a00 0F93      		push r16
 10246 3a02 1F93      		push r17
 10247 3a04 DF93      		push r29
 10248 3a06 CF93      		push r28
 10249 3a08 CDB7      		in r28,__SP_L__
 10250 3a0a DEB7      		in r29,__SP_H__
 10251 3a0c 2E97      		sbiw r28,14
 10252 3a0e CDBF      		out __SP_L__,r28
 10253 3a10 DEBF      		out __SP_H__,r29
 10254               	/* prologue: function */
 10255               	/* frame size = 14 */
 10256 3a12 8C01      		movw r16,r24
 10257 3a14 6D87      		std Y+13,r22
 10258 3a16 7E87      		std Y+14,r23
 10259               	.LM987:
 10260 3a18 CE01      		movw r24,r28
 10261               	.LVL865:
 10262 3a1a 0D96      		adiw r24,13
 10263 3a1c B801      		movw r22,r16
 10264               	.LVL866:
 10265 3a1e 40E0      		ldi r20,lo8(0)
 10266 3a20 0E94 0000 		call chk_mounted
 10267               	.LM988:
 10268 3a24 8823      		tst r24
 10269               	.LVL867:
 10270 3a26 01F0      		breq .+2
 10271 3a28 00C0      		rjmp .L653
 10272               	.LM989:
 10273 3a2a CE01      		movw r24,r28
 10274               	.LVL868:
 10275 3a2c 0196      		adiw r24,1
 10276 3a2e D801      		movw r26,r16
 10277 3a30 5496      		adiw r26,20
 10278 3a32 8D93      		st X+,r24
 10279 3a34 9C93      		st X,r25
 10280 3a36 5597      		sbiw r26,20+1
 10281               	.LM990:
 10282 3a38 6D85      		ldd r22,Y+13
 10283 3a3a 7E85      		ldd r23,Y+14
 10284 3a3c C801      		movw r24,r16
 10285 3a3e 0E94 0000 		call follow_path
 10286               	.LM991:
 10287 3a42 8823      		tst r24
 10288               	.LVL869:
 10289 3a44 01F4      		brne .L654
 10290               	.LM992:
 10291 3a46 D801      		movw r26,r16
 10292 3a48 5296      		adiw r26,18
 10293 3a4a ED91      		ld r30,X+
 10294 3a4c FC91      		ld r31,X
 10295 3a4e 5397      		sbiw r26,18+1
 10296               	.LVL870:
 10297               	.LM993:
 10298 3a50 3097      		sbiw r30,0
 10299 3a52 01F0      		breq .L655
 10300               	.LM994:
 10301 3a54 8385      		ldd r24,Z+11
 10302               	.LVL871:
 10303 3a56 84FF      		sbrs r24,4
 10304 3a58 00C0      		rjmp .L658
 10305               	.L656:
 10306               	.LM995:
 10307 3a5a 3589      		ldd r19,Z+21
 10308 3a5c 20E0      		ldi r18,lo8(0)
 10309 3a5e 8489      		ldd r24,Z+20
 10310 3a60 90E0      		ldi r25,lo8(0)
 10311 3a62 282B      		or r18,r24
 10312 3a64 392B      		or r19,r25
 10313 3a66 40E0      		ldi r20,lo8(0)
 10314 3a68 50E0      		ldi r21,hi8(0)
 10315 3a6a A901      		movw r20,r18
 10316 3a6c 3327      		clr r19
 10317 3a6e 2227      		clr r18
 10318 3a70 938D      		ldd r25,Z+27
 10319 3a72 80E0      		ldi r24,lo8(0)
 10320 3a74 628D      		ldd r22,Z+26
 10321 3a76 70E0      		ldi r23,lo8(0)
 10322 3a78 862B      		or r24,r22
 10323 3a7a 972B      		or r25,r23
 10324 3a7c A0E0      		ldi r26,lo8(0)
 10325 3a7e B0E0      		ldi r27,hi8(0)
 10326 3a80 282B      		or r18,r24
 10327 3a82 392B      		or r19,r25
 10328 3a84 4A2B      		or r20,r26
 10329 3a86 5B2B      		or r21,r27
 10330 3a88 F801      		movw r30,r16
 10331               	.LVL872:
 10332 3a8a 2683      		std Z+6,r18
 10333 3a8c 3783      		std Z+7,r19
 10334 3a8e 4087      		std Z+8,r20
 10335 3a90 5187      		std Z+9,r21
 10336               	.LVL873:
 10337               	.L655:
 10338               	.LM996:
 10339 3a92 D801      		movw r26,r16
 10340 3a94 ED91      		ld r30,X+
 10341 3a96 FC91      		ld r31,X
 10342 3a98 1197      		sbiw r26,1
 10343               	.LVL874:
 10344 3a9a 8681      		ldd r24,Z+6
 10345 3a9c 9781      		ldd r25,Z+7
 10346               	.LVL875:
 10347 3a9e 1296      		adiw r26,2
 10348 3aa0 8D93      		st X+,r24
 10349 3aa2 9C93      		st X,r25
 10350 3aa4 1397      		sbiw r26,2+1
 10351               	.LM997:
 10352 3aa6 C801      		movw r24,r16
 10353 3aa8 60E0      		ldi r22,lo8(0)
 10354 3aaa 70E0      		ldi r23,hi8(0)
 10355 3aac 0E94 0000 		call dir_seek
 10356               	.LVL876:
 10357               	.L654:
 10358               	.LM998:
 10359 3ab0 8430      		cpi r24,lo8(4)
 10360 3ab2 01F4      		brne .L653
 10361               	.LVL877:
 10362               	.L658:
 10363 3ab4 85E0      		ldi r24,lo8(5)
 10364               	.L653:
 10365               	.LVL878:
 10366               	/* epilogue start */
 10367               	.LM999:
 10368 3ab6 2E96      		adiw r28,14
 10369 3ab8 CDBF      		out __SP_L__,r28
 10370 3aba DEBF      		out __SP_H__,r29
 10371 3abc CF91      		pop r28
 10372 3abe DF91      		pop r29
 10373 3ac0 1F91      		pop r17
 10374 3ac2 0F91      		pop r16
 10375               	.LVL879:
 10376 3ac4 0895      		ret
 10377               	.LFE87:
 10379               	.global	f_readdir
 10381               	f_readdir:
 10382               	.LFB88:
 10383               	.LM1000:
 10384               	.LVL880:
 10385 3ac6 EF92      		push r14
 10386 3ac8 FF92      		push r15
 10387 3aca 0F93      		push r16
 10388 3acc 1F93      		push r17
 10389 3ace DF93      		push r29
 10390 3ad0 CF93      		push r28
 10391 3ad2 CDB7      		in r28,__SP_L__
 10392 3ad4 DEB7      		in r29,__SP_H__
 10393 3ad6 2C97      		sbiw r28,12
 10394 3ad8 CDBF      		out __SP_L__,r28
 10395 3ada DEBF      		out __SP_H__,r29
 10396               	/* prologue: function */
 10397               	/* frame size = 12 */
 10398 3adc 8C01      		movw r16,r24
 10399 3ade 7B01      		movw r14,r22
 10400               	.LM1001:
 10401 3ae0 FC01      		movw r30,r24
 10402 3ae2 6281      		ldd r22,Z+2
 10403 3ae4 7381      		ldd r23,Z+3
 10404               	.LVL881:
 10405 3ae6 8081      		ld r24,Z
 10406 3ae8 9181      		ldd r25,Z+1
 10407               	.LVL882:
 10408 3aea 0E94 0000 		call validate
 10409               	.LM1002:
 10410 3aee 8823      		tst r24
 10411               	.LVL883:
 10412 3af0 01F4      		brne .L661
 10413               	.LM1003:
 10414 3af2 CE01      		movw r24,r28
 10415               	.LVL884:
 10416 3af4 0196      		adiw r24,1
 10417 3af6 F801      		movw r30,r16
 10418 3af8 848B      		std Z+20,r24
 10419 3afa 958B      		std Z+21,r25
 10420               	.LM1004:
 10421 3afc E114      		cp r14,__zero_reg__
 10422 3afe F104      		cpc r15,__zero_reg__
 10423 3b00 01F4      		brne .L662
 10424               	.LM1005:
 10425 3b02 C801      		movw r24,r16
 10426 3b04 60E0      		ldi r22,lo8(0)
 10427 3b06 70E0      		ldi r23,hi8(0)
 10428 3b08 0E94 0000 		call dir_seek
 10429 3b0c 00C0      		rjmp .L661
 10430               	.L662:
 10431               	.LM1006:
 10432 3b0e C801      		movw r24,r16
 10433 3b10 0E94 0000 		call dir_read
 10434               	.LM1007:
 10435 3b14 8430      		cpi r24,lo8(4)
 10436               	.LVL885:
 10437 3b16 01F4      		brne .L663
 10438               	.LM1008:
 10439 3b18 F801      		movw r30,r16
 10440 3b1a 1686      		std Z+14,__zero_reg__
 10441 3b1c 1786      		std Z+15,__zero_reg__
 10442 3b1e 108A      		std Z+16,__zero_reg__
 10443 3b20 118A      		std Z+17,__zero_reg__
 10444 3b22 00C0      		rjmp .L664
 10445               	.L663:
 10446               	.LM1009:
 10447 3b24 8823      		tst r24
 10448 3b26 01F4      		brne .L661
 10449               	.L664:
 10450               	.LM1010:
 10451 3b28 C801      		movw r24,r16
 10452               	.LVL886:
 10453 3b2a B701      		movw r22,r14
 10454 3b2c 0E94 0000 		call get_fileinfo
 10455               	.LM1011:
 10456 3b30 C801      		movw r24,r16
 10457 3b32 60E0      		ldi r22,lo8(0)
 10458 3b34 0E94 0000 		call dir_next
 10459               	.LM1012:
 10460 3b38 8430      		cpi r24,lo8(4)
 10461               	.LVL887:
 10462 3b3a 01F4      		brne .L661
 10463               	.LM1013:
 10464 3b3c F801      		movw r30,r16
 10465 3b3e 1686      		std Z+14,__zero_reg__
 10466 3b40 1786      		std Z+15,__zero_reg__
 10467 3b42 108A      		std Z+16,__zero_reg__
 10468 3b44 118A      		std Z+17,__zero_reg__
 10469 3b46 80E0      		ldi r24,lo8(0)
 10470               	.L661:
 10471               	.LVL888:
 10472               	/* epilogue start */
 10473               	.LM1014:
 10474 3b48 2C96      		adiw r28,12
 10475 3b4a CDBF      		out __SP_L__,r28
 10476 3b4c DEBF      		out __SP_H__,r29
 10477 3b4e CF91      		pop r28
 10478 3b50 DF91      		pop r29
 10479 3b52 1F91      		pop r17
 10480 3b54 0F91      		pop r16
 10481               	.LVL889:
 10482 3b56 FF90      		pop r15
 10483 3b58 EF90      		pop r14
 10484               	.LVL890:
 10485 3b5a 0895      		ret
 10486               	.LFE88:
 10488               	.global	f_stat
 10490               	f_stat:
 10491               	.LFB89:
 10492               	.LM1015:
 10493               	.LVL891:
 10494 3b5c CF92      		push r12
 10495 3b5e DF92      		push r13
 10496 3b60 EF92      		push r14
 10497 3b62 FF92      		push r15
 10498 3b64 1F93      		push r17
 10499 3b66 DF93      		push r29
 10500 3b68 CF93      		push r28
 10501 3b6a CDB7      		in r28,__SP_L__
 10502 3b6c DEB7      		in r29,__SP_H__
 10503 3b6e A497      		sbiw r28,36
 10504 3b70 CDBF      		out __SP_L__,r28
 10505 3b72 DEBF      		out __SP_H__,r29
 10506               	/* prologue: function */
 10507               	/* frame size = 36 */
 10508 3b74 8BA3      		std Y+35,r24
 10509 3b76 9CA3      		std Y+36,r25
 10510 3b78 6B01      		movw r12,r22
 10511               	.LM1016:
 10512 3b7a 2DE0      		ldi r18,lo8(13)
 10513 3b7c E22E      		mov r14,r18
 10514 3b7e F12C      		mov r15,__zero_reg__
 10515 3b80 EC0E      		add r14,r28
 10516 3b82 FD1E      		adc r15,r29
 10517 3b84 CE01      		movw r24,r28
 10518               	.LVL892:
 10519 3b86 8396      		adiw r24,35
 10520 3b88 B701      		movw r22,r14
 10521               	.LVL893:
 10522 3b8a 40E0      		ldi r20,lo8(0)
 10523 3b8c 0E94 0000 		call chk_mounted
 10524 3b90 182F      		mov r17,r24
 10525               	.LVL894:
 10526               	.LM1017:
 10527 3b92 8823      		tst r24
 10528 3b94 01F4      		brne .L667
 10529               	.LVL895:
 10530               	.LM1018:
 10531 3b96 CE01      		movw r24,r28
 10532               	.LVL896:
 10533 3b98 0196      		adiw r24,1
 10534 3b9a 89A3      		std Y+33,r24
 10535 3b9c 9AA3      		std Y+34,r25
 10536               	.LM1019:
 10537 3b9e 6BA1      		ldd r22,Y+35
 10538 3ba0 7CA1      		ldd r23,Y+36
 10539 3ba2 C701      		movw r24,r14
 10540 3ba4 0E94 0000 		call follow_path
 10541 3ba8 182F      		mov r17,r24
 10542               	.LM1020:
 10543 3baa 8823      		tst r24
 10544 3bac 01F4      		brne .L667
 10545               	.LVL897:
 10546               	.LM1021:
 10547 3bae 8F8D      		ldd r24,Y+31
 10548 3bb0 98A1      		ldd r25,Y+32
 10549               	.LVL898:
 10550 3bb2 892B      		or r24,r25
 10551 3bb4 01F4      		brne .L668
 10552 3bb6 16E0      		ldi r17,lo8(6)
 10553 3bb8 00C0      		rjmp .L667
 10554               	.L668:
 10555               	.LM1022:
 10556 3bba C701      		movw r24,r14
 10557 3bbc B601      		movw r22,r12
 10558 3bbe 0E94 0000 		call get_fileinfo
 10559               	.LVL899:
 10560               	.L667:
 10561               	.LM1023:
 10562 3bc2 812F      		mov r24,r17
 10563               	/* epilogue start */
 10564 3bc4 A496      		adiw r28,36
 10565 3bc6 CDBF      		out __SP_L__,r28
 10566 3bc8 DEBF      		out __SP_H__,r29
 10567 3bca CF91      		pop r28
 10568 3bcc DF91      		pop r29
 10569 3bce 1F91      		pop r17
 10570               	.LVL900:
 10571 3bd0 FF90      		pop r15
 10572 3bd2 EF90      		pop r14
 10573 3bd4 DF90      		pop r13
 10574 3bd6 CF90      		pop r12
 10575               	.LVL901:
 10576 3bd8 0895      		ret
 10577               	.LFE89:
 10579               	.global	f_getfree
 10581               	f_getfree:
 10582               	.LFB90:
 10583               	.LM1024:
 10584               	.LVL902:
 10585 3bda 2F92      		push r2
 10586 3bdc 3F92      		push r3
 10587 3bde 4F92      		push r4
 10588 3be0 5F92      		push r5
 10589 3be2 6F92      		push r6
 10590 3be4 7F92      		push r7
 10591 3be6 8F92      		push r8
 10592 3be8 9F92      		push r9
 10593 3bea AF92      		push r10
 10594 3bec BF92      		push r11
 10595 3bee CF92      		push r12
 10596 3bf0 DF92      		push r13
 10597 3bf2 EF92      		push r14
 10598 3bf4 FF92      		push r15
 10599 3bf6 0F93      		push r16
 10600 3bf8 1F93      		push r17
 10601 3bfa DF93      		push r29
 10602 3bfc CF93      		push r28
 10603 3bfe CDB7      		in r28,__SP_L__
 10604 3c00 DEB7      		in r29,__SP_H__
 10605 3c02 2997      		sbiw r28,9
 10606 3c04 CDBF      		out __SP_L__,r28
 10607 3c06 DEBF      		out __SP_H__,r29
 10608               	/* prologue: function */
 10609               	/* frame size = 9 */
 10610 3c08 8983      		std Y+1,r24
 10611 3c0a 9A83      		std Y+2,r25
 10612 3c0c 6C83      		std Y+4,r22
 10613 3c0e 7D83      		std Y+5,r23
 10614 3c10 2A01      		movw r4,r20
 10615               	.LM1025:
 10616 3c12 CE01      		movw r24,r28
 10617               	.LVL903:
 10618 3c14 0196      		adiw r24,1
 10619 3c16 BA01      		movw r22,r20
 10620               	.LVL904:
 10621 3c18 40E0      		ldi r20,lo8(0)
 10622               	.LVL905:
 10623 3c1a 0E94 0000 		call chk_mounted
 10624               	.LM1026:
 10625 3c1e 8823      		tst r24
 10626               	.LVL906:
 10627 3c20 01F0      		breq .+2
 10628 3c22 00C0      		rjmp .L672
 10629               	.LM1027:
 10630 3c24 D201      		movw r26,r4
 10631 3c26 ED91      		ld r30,X+
 10632 3c28 FC91      		ld r31,X
 10633 3c2a 2685      		ldd r18,Z+14
 10634 3c2c 3785      		ldd r19,Z+15
 10635 3c2e 4089      		ldd r20,Z+16
 10636 3c30 5189      		ldd r21,Z+17
 10637 3c32 E28C      		ldd r14,Z+26
 10638 3c34 F38C      		ldd r15,Z+27
 10639 3c36 048D      		ldd r16,Z+28
 10640 3c38 158D      		ldd r17,Z+29
 10641               	.LVL907:
 10642 3c3a D801      		movw r26,r16
 10643 3c3c C701      		movw r24,r14
 10644               	.LVL908:
 10645 3c3e 0297      		sbiw r24,2
 10646 3c40 A109      		sbc r26,__zero_reg__
 10647 3c42 B109      		sbc r27,__zero_reg__
 10648 3c44 8217      		cp r24,r18
 10649 3c46 9307      		cpc r25,r19
 10650 3c48 A407      		cpc r26,r20
 10651 3c4a B507      		cpc r27,r21
 10652 3c4c 00F0      		brlo .L673
 10653               	.LM1028:
 10654 3c4e EC81      		ldd r30,Y+4
 10655 3c50 FD81      		ldd r31,Y+5
 10656 3c52 2083      		st Z,r18
 10657 3c54 3183      		std Z+1,r19
 10658 3c56 4283      		std Z+2,r20
 10659 3c58 5383      		std Z+3,r21
 10660 3c5a 00C0      		rjmp .L690
 10661               	.L673:
 10662               	.LM1029:
 10663 3c5c 3080      		ld r3,Z
 10664 3c5e 3B82      		std Y+3,r3
 10665               	.LVL909:
 10666               	.LM1030:
 10667 3c60 232D      		mov r18,r3
 10668 3c62 2130      		cpi r18,lo8(1)
 10669 3c64 01F4      		brne .L674
 10670 3c66 AA24      		clr r10
 10671 3c68 BB24      		clr r11
 10672 3c6a 6501      		movw r12,r10
 10673               	.LVL910:
 10674 3c6c 92E0      		ldi r25,lo8(2)
 10675 3c6e E92E      		mov r14,r25
 10676 3c70 F12C      		mov r15,__zero_reg__
 10677 3c72 012D      		mov r16,__zero_reg__
 10678 3c74 112D      		mov r17,__zero_reg__
 10679               	.LVL911:
 10680               	.L678:
 10681               	.LM1031:
 10682 3c76 D201      		movw r26,r4
 10683 3c78 8D91      		ld r24,X+
 10684 3c7a 9C91      		ld r25,X
 10685 3c7c B801      		movw r22,r16
 10686 3c7e A701      		movw r20,r14
 10687 3c80 0E94 0000 		call get_fat
 10688               	.LVL912:
 10689               	.LM1032:
 10690 3c84 6F3F      		cpi r22,lo8(-1)
 10691 3c86 BFEF      		ldi r27,hi8(-1)
 10692 3c88 7B07      		cpc r23,r27
 10693 3c8a BFEF      		ldi r27,hlo8(-1)
 10694 3c8c 8B07      		cpc r24,r27
 10695 3c8e BFEF      		ldi r27,hhi8(-1)
 10696 3c90 9B07      		cpc r25,r27
 10697               	.LVL913:
 10698 3c92 01F4      		brne .L675
 10699 3c94 81E0      		ldi r24,lo8(1)
 10700               	.LVL914:
 10701 3c96 00C0      		rjmp .L672
 10702               	.LVL915:
 10703               	.L675:
 10704               	.LM1033:
 10705 3c98 6130      		cpi r22,lo8(1)
 10706 3c9a 7105      		cpc r23,__zero_reg__
 10707 3c9c 8105      		cpc r24,__zero_reg__
 10708 3c9e 9105      		cpc r25,__zero_reg__
 10709 3ca0 01F4      		brne .L676
 10710 3ca2 82E0      		ldi r24,lo8(2)
 10711               	.LVL916:
 10712 3ca4 00C0      		rjmp .L672
 10713               	.LVL917:
 10714               	.L676:
 10715               	.LM1034:
 10716 3ca6 6115      		cp r22,__zero_reg__
 10717 3ca8 7105      		cpc r23,__zero_reg__
 10718 3caa 8105      		cpc r24,__zero_reg__
 10719 3cac 9105      		cpc r25,__zero_reg__
 10720 3cae 01F4      		brne .L677
 10721 3cb0 0894      		sec
 10722 3cb2 A11C      		adc r10,__zero_reg__
 10723 3cb4 B11C      		adc r11,__zero_reg__
 10724 3cb6 C11C      		adc r12,__zero_reg__
 10725 3cb8 D11C      		adc r13,__zero_reg__
 10726               	.L677:
 10727               	.LM1035:
 10728 3cba 0894      		sec
 10729 3cbc E11C      		adc r14,__zero_reg__
 10730 3cbe F11C      		adc r15,__zero_reg__
 10731 3cc0 011D      		adc r16,__zero_reg__
 10732 3cc2 111D      		adc r17,__zero_reg__
 10733 3cc4 D201      		movw r26,r4
 10734 3cc6 ED91      		ld r30,X+
 10735 3cc8 FC91      		ld r31,X
 10736 3cca 828D      		ldd r24,Z+26
 10737 3ccc 938D      		ldd r25,Z+27
 10738 3cce A48D      		ldd r26,Z+28
 10739 3cd0 B58D      		ldd r27,Z+29
 10740 3cd2 E816      		cp r14,r24
 10741 3cd4 F906      		cpc r15,r25
 10742 3cd6 0A07      		cpc r16,r26
 10743 3cd8 1B07      		cpc r17,r27
 10744 3cda 00F0      		brlo .L678
 10745 3cdc 00C0      		rjmp .L679
 10746               	.LVL918:
 10747               	.L674:
 10748               	.LM1036:
 10749 3cde 668C      		ldd r6,Z+30
 10750 3ce0 778C      		ldd r7,Z+31
 10751 3ce2 80A0      		ldd r8,Z+32
 10752 3ce4 91A0      		ldd r9,Z+33
 10753               	.LVL919:
 10754 3ce6 AA24      		clr r10
 10755 3ce8 BB24      		clr r11
 10756 3cea 6501      		movw r12,r10
 10757               	.LVL920:
 10758 3cec 60E0      		ldi r22,lo8(0)
 10759 3cee 70E0      		ldi r23,hi8(0)
 10760               	.LVL921:
 10761 3cf0 E0E0      		ldi r30,lo8(0)
 10762 3cf2 F0E0      		ldi r31,hi8(0)
 10763               	.LVL922:
 10764               	.L685:
 10765               	.LM1037:
 10766 3cf4 6115      		cp r22,__zero_reg__
 10767 3cf6 7105      		cpc r23,__zero_reg__
 10768 3cf8 01F4      		brne .L680
 10769               	.LM1038:
 10770 3cfa F201      		movw r30,r4
 10771               	.LVL923:
 10772 3cfc 8081      		ld r24,Z
 10773 3cfe 9181      		ldd r25,Z+1
 10774 3d00 B401      		movw r22,r8
 10775 3d02 A301      		movw r20,r6
 10776 3d04 0E94 0000 		call move_window
 10777               	.LVL924:
 10778               	.LM1039:
 10779 3d08 8823      		tst r24
 10780               	.LVL925:
 10781 3d0a 01F0      		breq .+2
 10782 3d0c 00C0      		rjmp .L672
 10783               	.LM1040:
 10784 3d0e 0894      		sec
 10785 3d10 611C      		adc r6,__zero_reg__
 10786 3d12 711C      		adc r7,__zero_reg__
 10787 3d14 811C      		adc r8,__zero_reg__
 10788 3d16 911C      		adc r9,__zero_reg__
 10789               	.LM1041:
 10790 3d18 D201      		movw r26,r4
 10791 3d1a ED91      		ld r30,X+
 10792 3d1c FC91      		ld r31,X
 10793               	.LVL926:
 10794 3d1e BE96      		adiw r30,46
 10795 3d20 60E0      		ldi r22,lo8(512)
 10796 3d22 72E0      		ldi r23,hi8(512)
 10797               	.LVL927:
 10798               	.L680:
 10799 3d24 B181      		ldd r27,Z+1
 10800 3d26 B887      		std Y+8,r27
 10801 3d28 2081      		ld r18,Z
 10802 3d2a 2987      		std Y+9,r18
 10803               	.LM1042:
 10804 3d2c 3B81      		ldd r19,Y+3
 10805 3d2e 3230      		cpi r19,lo8(2)
 10806 3d30 01F4      		brne .L681
 10807               	.LM1043:
 10808 3d32 BF83      		std Y+7,r27
 10809 3d34 1E82      		std Y+6,__zero_reg__
 10810 3d36 822F      		mov r24,r18
 10811               	.LVL928:
 10812 3d38 90E0      		ldi r25,lo8(0)
 10813 3d3a AE81      		ldd r26,Y+6
 10814 3d3c BF81      		ldd r27,Y+7
 10815 3d3e 8A2B      		or r24,r26
 10816 3d40 9B2B      		or r25,r27
 10817 3d42 892B      		or r24,r25
 10818 3d44 01F4      		brne .L682
 10819 3d46 0894      		sec
 10820 3d48 A11C      		adc r10,__zero_reg__
 10821 3d4a B11C      		adc r11,__zero_reg__
 10822 3d4c C11C      		adc r12,__zero_reg__
 10823 3d4e D11C      		adc r13,__zero_reg__
 10824               	.L682:
 10825               	.LM1044:
 10826 3d50 3296      		adiw r30,2
 10827 3d52 6250      		subi r22,lo8(-(-2))
 10828 3d54 7040      		sbci r23,hi8(-(-2))
 10829 3d56 00C0      		rjmp .L683
 10830               	.LVL929:
 10831               	.L681:
 10832               	.LM1045:
 10833 3d58 2381      		ldd r18,Z+3
 10834 3d5a 30E0      		ldi r19,lo8(0)
 10835 3d5c 40E0      		ldi r20,lo8(0)
 10836 3d5e 50E0      		ldi r21,hi8(0)
 10837 3d60 522F      		mov r21,r18
 10838 3d62 4427      		clr r20
 10839 3d64 3327      		clr r19
 10840 3d66 2227      		clr r18
 10841               	.LVL930:
 10842 3d68 8281      		ldd r24,Z+2
 10843 3d6a 90E0      		ldi r25,lo8(0)
 10844 3d6c A0E0      		ldi r26,lo8(0)
 10845 3d6e B0E0      		ldi r27,hi8(0)
 10846 3d70 DC01      		movw r26,r24
 10847 3d72 9927      		clr r25
 10848 3d74 8827      		clr r24
 10849 3d76 282B      		or r18,r24
 10850 3d78 392B      		or r19,r25
 10851 3d7a 4A2B      		or r20,r26
 10852 3d7c 5B2B      		or r21,r27
 10853 3d7e 3984      		ldd r3,Y+9
 10854 3d80 832D      		mov r24,r3
 10855 3d82 90E0      		ldi r25,lo8(0)
 10856 3d84 A0E0      		ldi r26,lo8(0)
 10857 3d86 B0E0      		ldi r27,hi8(0)
 10858 3d88 282B      		or r18,r24
 10859 3d8a 392B      		or r19,r25
 10860 3d8c 4A2B      		or r20,r26
 10861 3d8e 5B2B      		or r21,r27
 10862 3d90 3884      		ldd r3,Y+8
 10863 3d92 2224      		clr r2
 10864 3d94 C101      		movw r24,r2
 10865 3d96 A0E0      		ldi r26,lo8(0)
 10866 3d98 B0E0      		ldi r27,hi8(0)
 10867 3d9a 282B      		or r18,r24
 10868 3d9c 392B      		or r19,r25
 10869 3d9e 4A2B      		or r20,r26
 10870 3da0 5B2B      		or r21,r27
 10871 3da2 5F70      		andi r21,hhi8(268435455)
 10872 3da4 2115      		cp r18,__zero_reg__
 10873 3da6 3105      		cpc r19,__zero_reg__
 10874 3da8 4105      		cpc r20,__zero_reg__
 10875 3daa 5105      		cpc r21,__zero_reg__
 10876 3dac 01F4      		brne .L684
 10877 3dae 0894      		sec
 10878 3db0 A11C      		adc r10,__zero_reg__
 10879 3db2 B11C      		adc r11,__zero_reg__
 10880 3db4 C11C      		adc r12,__zero_reg__
 10881 3db6 D11C      		adc r13,__zero_reg__
 10882               	.L684:
 10883               	.LM1046:
 10884 3db8 3496      		adiw r30,4
 10885 3dba 6450      		subi r22,lo8(-(-4))
 10886 3dbc 7040      		sbci r23,hi8(-(-4))
 10887               	.L683:
 10888               	.LM1047:
 10889 3dbe 0894      		sec
 10890 3dc0 E108      		sbc r14,__zero_reg__
 10891 3dc2 F108      		sbc r15,__zero_reg__
 10892 3dc4 0109      		sbc r16,__zero_reg__
 10893 3dc6 1109      		sbc r17,__zero_reg__
 10894 3dc8 E114      		cp r14,__zero_reg__
 10895 3dca F104      		cpc r15,__zero_reg__
 10896 3dcc 0105      		cpc r16,__zero_reg__
 10897 3dce 1105      		cpc r17,__zero_reg__
 10898 3dd0 01F0      		breq .+2
 10899 3dd2 00C0      		rjmp .L685
 10900               	.LVL931:
 10901               	.L679:
 10902               	.LM1048:
 10903 3dd4 D201      		movw r26,r4
 10904 3dd6 ED91      		ld r30,X+
 10905 3dd8 FC91      		ld r31,X
 10906               	.LVL932:
 10907 3dda A686      		std Z+14,r10
 10908 3ddc B786      		std Z+15,r11
 10909 3dde C08A      		std Z+16,r12
 10910 3de0 D18A      		std Z+17,r13
 10911               	.LM1049:
 10912 3de2 BB81      		ldd r27,Y+3
 10913 3de4 B330      		cpi r27,lo8(3)
 10914 3de6 01F4      		brne .L686
 10915 3de8 81E0      		ldi r24,lo8(1)
 10916 3dea 8583      		std Z+5,r24
 10917               	.L686:
 10918               	.LM1050:
 10919 3dec EC81      		ldd r30,Y+4
 10920 3dee FD81      		ldd r31,Y+5
 10921 3df0 A082      		st Z,r10
 10922 3df2 B182      		std Z+1,r11
 10923 3df4 C282      		std Z+2,r12
 10924 3df6 D382      		std Z+3,r13
 10925               	.L690:
 10926 3df8 80E0      		ldi r24,lo8(0)
 10927               	.LVL933:
 10928               	.L672:
 10929               	.LVL934:
 10930               	/* epilogue start */
 10931               	.LM1051:
 10932 3dfa 2996      		adiw r28,9
 10933 3dfc CDBF      		out __SP_L__,r28
 10934 3dfe DEBF      		out __SP_H__,r29
 10935 3e00 CF91      		pop r28
 10936 3e02 DF91      		pop r29
 10937 3e04 1F91      		pop r17
 10938 3e06 0F91      		pop r16
 10939 3e08 FF90      		pop r15
 10940 3e0a EF90      		pop r14
 10941               	.LVL935:
 10942 3e0c DF90      		pop r13
 10943 3e0e CF90      		pop r12
 10944 3e10 BF90      		pop r11
 10945 3e12 AF90      		pop r10
 10946               	.LVL936:
 10947 3e14 9F90      		pop r9
 10948 3e16 8F90      		pop r8
 10949 3e18 7F90      		pop r7
 10950 3e1a 6F90      		pop r6
 10951               	.LVL937:
 10952 3e1c 5F90      		pop r5
 10953 3e1e 4F90      		pop r4
 10954               	.LVL938:
 10955 3e20 3F90      		pop r3
 10956 3e22 2F90      		pop r2
 10957 3e24 0895      		ret
 10958               	.LFE90:
 10960               	.global	f_truncate
 10962               	f_truncate:
 10963               	.LFB91:
 10964               	.LM1052:
 10965               	.LVL939:
 10966 3e26 CF92      		push r12
 10967 3e28 DF92      		push r13
 10968 3e2a EF92      		push r14
 10969 3e2c FF92      		push r15
 10970 3e2e 0F93      		push r16
 10971 3e30 1F93      		push r17
 10972 3e32 CF93      		push r28
 10973 3e34 DF93      		push r29
 10974               	/* prologue: function */
 10975               	/* frame size = 0 */
 10976 3e36 EC01      		movw r28,r24
 10977               	.LM1053:
 10978 3e38 6A81      		ldd r22,Y+2
 10979 3e3a 7B81      		ldd r23,Y+3
 10980 3e3c 8881      		ld r24,Y
 10981 3e3e 9981      		ldd r25,Y+1
 10982               	.LVL940:
 10983 3e40 0E94 0000 		call validate
 10984 3e44 182F      		mov r17,r24
 10985               	.LVL941:
 10986               	.LM1054:
 10987 3e46 8823      		tst r24
 10988 3e48 01F0      		breq .+2
 10989 3e4a 00C0      		rjmp .L692
 10990               	.LVL942:
 10991               	.LM1055:
 10992 3e4c 6C81      		ldd r22,Y+4
 10993 3e4e 67FF      		sbrs r22,7
 10994 3e50 00C0      		rjmp .L693
 10995 3e52 12E0      		ldi r17,lo8(2)
 10996               	.LVL943:
 10997 3e54 00C0      		rjmp .L692
 10998               	.LVL944:
 10999               	.L693:
 11000               	.LM1056:
 11001 3e56 61FD      		sbrc r22,1
 11002 3e58 00C0      		rjmp .L694
 11003 3e5a 17E0      		ldi r17,lo8(7)
 11004               	.LVL945:
 11005 3e5c 00C0      		rjmp .L692
 11006               	.LVL946:
 11007               	.L694:
 11008               	.LM1057:
 11009 3e5e 2E81      		ldd r18,Y+6
 11010 3e60 3F81      		ldd r19,Y+7
 11011 3e62 4885      		ldd r20,Y+8
 11012 3e64 5985      		ldd r21,Y+9
 11013 3e66 8A85      		ldd r24,Y+10
 11014 3e68 9B85      		ldd r25,Y+11
 11015 3e6a AC85      		ldd r26,Y+12
 11016 3e6c BD85      		ldd r27,Y+13
 11017               	.LVL947:
 11018 3e6e 2817      		cp r18,r24
 11019 3e70 3907      		cpc r19,r25
 11020 3e72 4A07      		cpc r20,r26
 11021 3e74 5B07      		cpc r21,r27
 11022 3e76 00F0      		brlo .+2
 11023 3e78 00C0      		rjmp .L692
 11024               	.LM1058:
 11025 3e7a 2A87      		std Y+10,r18
 11026 3e7c 3B87      		std Y+11,r19
 11027 3e7e 4C87      		std Y+12,r20
 11028 3e80 5D87      		std Y+13,r21
 11029               	.LM1059:
 11030 3e82 6062      		ori r22,lo8(32)
 11031 3e84 6C83      		std Y+4,r22
 11032 3e86 8881      		ld r24,Y
 11033 3e88 9981      		ldd r25,Y+1
 11034               	.LM1060:
 11035 3e8a 2115      		cp r18,__zero_reg__
 11036 3e8c 3105      		cpc r19,__zero_reg__
 11037 3e8e 4105      		cpc r20,__zero_reg__
 11038 3e90 5105      		cpc r21,__zero_reg__
 11039 3e92 01F4      		brne .L695
 11040               	.LM1061:
 11041 3e94 4E85      		ldd r20,Y+14
 11042 3e96 5F85      		ldd r21,Y+15
 11043 3e98 6889      		ldd r22,Y+16
 11044 3e9a 7989      		ldd r23,Y+17
 11045 3e9c 0E94 0000 		call remove_chain
 11046 3ea0 182F      		mov r17,r24
 11047               	.LM1062:
 11048 3ea2 1E86      		std Y+14,__zero_reg__
 11049 3ea4 1F86      		std Y+15,__zero_reg__
 11050 3ea6 188A      		std Y+16,__zero_reg__
 11051 3ea8 198A      		std Y+17,__zero_reg__
 11052 3eaa 00C0      		rjmp .L696
 11053               	.L695:
 11054               	.LM1063:
 11055 3eac 4A89      		ldd r20,Y+18
 11056 3eae 5B89      		ldd r21,Y+19
 11057 3eb0 6C89      		ldd r22,Y+20
 11058 3eb2 7D89      		ldd r23,Y+21
 11059 3eb4 0E94 0000 		call get_fat
 11060 3eb8 6B01      		movw r12,r22
 11061 3eba 7C01      		movw r14,r24
 11062               	.LVL948:
 11063               	.LM1064:
 11064 3ebc 8FEF      		ldi r24,lo8(-1)
 11065 3ebe C816      		cp r12,r24
 11066 3ec0 8FEF      		ldi r24,hi8(-1)
 11067 3ec2 D806      		cpc r13,r24
 11068 3ec4 8FEF      		ldi r24,hlo8(-1)
 11069 3ec6 E806      		cpc r14,r24
 11070 3ec8 8FEF      		ldi r24,hhi8(-1)
 11071 3eca F806      		cpc r15,r24
 11072 3ecc 01F0      		breq .L697
 11073               	.LM1065:
 11074 3ece 81E0      		ldi r24,lo8(1)
 11075 3ed0 C816      		cp r12,r24
 11076 3ed2 D104      		cpc r13,__zero_reg__
 11077 3ed4 E104      		cpc r14,__zero_reg__
 11078 3ed6 F104      		cpc r15,__zero_reg__
 11079 3ed8 01F4      		brne .L698
 11080 3eda 12E0      		ldi r17,lo8(2)
 11081 3edc 00C0      		rjmp .L699
 11082               	.L698:
 11083               	.LM1066:
 11084 3ede E881      		ld r30,Y
 11085 3ee0 F981      		ldd r31,Y+1
 11086 3ee2 828D      		ldd r24,Z+26
 11087 3ee4 938D      		ldd r25,Z+27
 11088 3ee6 A48D      		ldd r26,Z+28
 11089 3ee8 B58D      		ldd r27,Z+29
 11090 3eea C816      		cp r12,r24
 11091 3eec D906      		cpc r13,r25
 11092 3eee EA06      		cpc r14,r26
 11093 3ef0 FB06      		cpc r15,r27
 11094 3ef2 00F4      		brsh .L692
 11095               	.LM1067:
 11096 3ef4 4A89      		ldd r20,Y+18
 11097 3ef6 5B89      		ldd r21,Y+19
 11098 3ef8 6C89      		ldd r22,Y+20
 11099 3efa 7D89      		ldd r23,Y+21
 11100 3efc CF01      		movw r24,r30
 11101 3efe 0FEF      		ldi r16,lo8(268435455)
 11102 3f00 1FEF      		ldi r17,hi8(268435455)
 11103 3f02 2FEF      		ldi r18,hlo8(268435455)
 11104 3f04 3FE0      		ldi r19,hhi8(268435455)
 11105 3f06 0E94 0000 		call put_fat
 11106 3f0a 182F      		mov r17,r24
 11107               	.LM1068:
 11108 3f0c 8823      		tst r24
 11109 3f0e 01F4      		brne .L699
 11110               	.LVL949:
 11111 3f10 8881      		ld r24,Y
 11112 3f12 9981      		ldd r25,Y+1
 11113               	.LVL950:
 11114 3f14 B701      		movw r22,r14
 11115 3f16 A601      		movw r20,r12
 11116 3f18 0E94 0000 		call remove_chain
 11117 3f1c 182F      		mov r17,r24
 11118               	.L696:
 11119               	.LM1069:
 11120 3f1e 1123      		tst r17
 11121 3f20 01F0      		breq .L692
 11122               	.LVL951:
 11123               	.L699:
 11124 3f22 8C81      		ldd r24,Y+4
 11125 3f24 8068      		ori r24,lo8(-128)
 11126 3f26 8C83      		std Y+4,r24
 11127               	.LVL952:
 11128               	.L692:
 11129               	.LM1070:
 11130 3f28 812F      		mov r24,r17
 11131               	/* epilogue start */
 11132 3f2a DF91      		pop r29
 11133 3f2c CF91      		pop r28
 11134               	.LVL953:
 11135 3f2e 1F91      		pop r17
 11136               	.LVL954:
 11137 3f30 0F91      		pop r16
 11138 3f32 FF90      		pop r15
 11139 3f34 EF90      		pop r14
 11140 3f36 DF90      		pop r13
 11141 3f38 CF90      		pop r12
 11142               	.LVL955:
 11143 3f3a 0895      		ret
 11144               	.LVL956:
 11145               	.L697:
 11146               	.LM1071:
 11147 3f3c 11E0      		ldi r17,lo8(1)
 11148 3f3e 00C0      		rjmp .L699
 11149               	.LFE91:
 11151               	.global	f_unlink
 11153               	f_unlink:
 11154               	.LFB92:
 11155               	.LM1072:
 11156               	.LVL957:
 11157 3f40 CF92      		push r12
 11158 3f42 DF92      		push r13
 11159 3f44 EF92      		push r14
 11160 3f46 FF92      		push r15
 11161 3f48 0F93      		push r16
 11162 3f4a 1F93      		push r17
 11163 3f4c DF93      		push r29
 11164 3f4e CF93      		push r28
 11165 3f50 CDB7      		in r28,__SP_L__
 11166 3f52 DEB7      		in r29,__SP_H__
 11167 3f54 EA97      		sbiw r28,58
 11168 3f56 CDBF      		out __SP_L__,r28
 11169 3f58 DEBF      		out __SP_H__,r29
 11170               	/* prologue: function */
 11171               	/* frame size = 58 */
 11172 3f5a 89AF      		std Y+57,r24
 11173 3f5c 9AAF      		std Y+58,r25
 11174               	.LM1073:
 11175 3f5e 4DE0      		ldi r20,lo8(13)
 11176 3f60 C42E      		mov r12,r20
 11177 3f62 D12C      		mov r13,__zero_reg__
 11178 3f64 CC0E      		add r12,r28
 11179 3f66 DD1E      		adc r13,r29
 11180 3f68 CE01      		movw r24,r28
 11181               	.LVL958:
 11182 3f6a C996      		adiw r24,57
 11183 3f6c B601      		movw r22,r12
 11184 3f6e 41E0      		ldi r20,lo8(1)
 11185 3f70 0E94 0000 		call chk_mounted
 11186               	.LM1074:
 11187 3f74 8823      		tst r24
 11188               	.LVL959:
 11189 3f76 01F0      		breq .+2
 11190 3f78 00C0      		rjmp .L702
 11191               	.LM1075:
 11192 3f7a CE01      		movw r24,r28
 11193               	.LVL960:
 11194 3f7c 0196      		adiw r24,1
 11195 3f7e 89A3      		std Y+33,r24
 11196 3f80 9AA3      		std Y+34,r25
 11197               	.LM1076:
 11198 3f82 69AD      		ldd r22,Y+57
 11199 3f84 7AAD      		ldd r23,Y+58
 11200 3f86 C601      		movw r24,r12
 11201 3f88 0E94 0000 		call follow_path
 11202               	.LM1077:
 11203 3f8c 8823      		tst r24
 11204               	.LVL961:
 11205 3f8e 01F0      		breq .+2
 11206 3f90 00C0      		rjmp .L702
 11207               	.LM1078:
 11208 3f92 EF8D      		ldd r30,Y+31
 11209 3f94 F8A1      		ldd r31,Y+32
 11210               	.LVL962:
 11211               	.LM1079:
 11212 3f96 3097      		sbiw r30,0
 11213 3f98 01F4      		brne .L703
 11214 3f9a 86E0      		ldi r24,lo8(6)
 11215 3f9c 00C0      		rjmp .L702
 11216               	.L703:
 11217               	.LM1080:
 11218 3f9e 8385      		ldd r24,Z+11
 11219               	.LVL963:
 11220 3fa0 482F      		mov r20,r24
 11221 3fa2 80FD      		sbrc r24,0
 11222 3fa4 00C0      		rjmp .L704
 11223               	.LM1081:
 11224 3fa6 9589      		ldd r25,Z+21
 11225 3fa8 80E0      		ldi r24,lo8(0)
 11226 3faa 2489      		ldd r18,Z+20
 11227 3fac 30E0      		ldi r19,lo8(0)
 11228 3fae 822B      		or r24,r18
 11229 3fb0 932B      		or r25,r19
 11230 3fb2 A0E0      		ldi r26,lo8(0)
 11231 3fb4 B0E0      		ldi r27,hi8(0)
 11232 3fb6 8C01      		movw r16,r24
 11233 3fb8 FF24      		clr r15
 11234 3fba EE24      		clr r14
 11235               	.LVL964:
 11236 3fbc 938D      		ldd r25,Z+27
 11237 3fbe 80E0      		ldi r24,lo8(0)
 11238 3fc0 228D      		ldd r18,Z+26
 11239 3fc2 30E0      		ldi r19,lo8(0)
 11240 3fc4 822B      		or r24,r18
 11241 3fc6 932B      		or r25,r19
 11242 3fc8 A0E0      		ldi r26,lo8(0)
 11243 3fca B0E0      		ldi r27,hi8(0)
 11244 3fcc E82A      		or r14,r24
 11245 3fce F92A      		or r15,r25
 11246 3fd0 0A2B      		or r16,r26
 11247 3fd2 1B2B      		or r17,r27
 11248               	.LM1082:
 11249 3fd4 44FF      		sbrs r20,4
 11250 3fd6 00C0      		rjmp .L705
 11251               	.LM1083:
 11252 3fd8 82E0      		ldi r24,lo8(2)
 11253 3fda E816      		cp r14,r24
 11254 3fdc F104      		cpc r15,__zero_reg__
 11255 3fde 0105      		cpc r16,__zero_reg__
 11256 3fe0 1105      		cpc r17,__zero_reg__
 11257 3fe2 00F4      		brsh .L706
 11258 3fe4 82E0      		ldi r24,lo8(2)
 11259               	.LVL965:
 11260 3fe6 00C0      		rjmp .L702
 11261               	.LVL966:
 11262               	.L706:
 11263               	.LBB890:
 11264               	.LBB891:
 11265               	.LM1084:
 11266 3fe8 DE01      		movw r26,r28
 11267               	.LVL967:
 11268 3fea 9396      		adiw r26,35
 11269               	.LM1085:
 11270 3fec F601      		movw r30,r12
 11271               	.LVL968:
 11272               	.LM1086:
 11273 3fee 9D01      		movw r18,r26
 11274 3ff0 00C0      		rjmp .L707
 11275               	.L708:
 11276 3ff2 8191      		ld r24,Z+
 11277 3ff4 8D93      		st X+,r24
 11278               	.L707:
 11279 3ff6 E217      		cp r30,r18
 11280 3ff8 F307      		cpc r31,r19
 11281 3ffa 01F4      		brne .L708
 11282               	.LBE891:
 11283               	.LBE890:
 11284               	.LM1087:
 11285 3ffc E9A6      		std Y+41,r14
 11286 3ffe FAA6      		std Y+42,r15
 11287 4000 0BA7      		std Y+43,r16
 11288 4002 1CA7      		std Y+44,r17
 11289               	.LM1088:
 11290 4004 23E2      		ldi r18,lo8(35)
 11291 4006 C22E      		mov r12,r18
 11292 4008 D12C      		mov r13,__zero_reg__
 11293 400a CC0E      		add r12,r28
 11294 400c DD1E      		adc r13,r29
 11295 400e C601      		movw r24,r12
 11296 4010 62E0      		ldi r22,lo8(2)
 11297 4012 70E0      		ldi r23,hi8(2)
 11298 4014 0E94 0000 		call dir_seek
 11299               	.LVL969:
 11300               	.LM1089:
 11301 4018 8823      		tst r24
 11302               	.LVL970:
 11303 401a 01F4      		brne .L702
 11304               	.LM1090:
 11305 401c C601      		movw r24,r12
 11306               	.LVL971:
 11307 401e 0E94 0000 		call dir_read
 11308               	.LM1091:
 11309 4022 8823      		tst r24
 11310               	.LVL972:
 11311 4024 01F0      		breq .L704
 11312               	.LM1092:
 11313 4026 8430      		cpi r24,lo8(4)
 11314 4028 01F4      		brne .L702
 11315               	.LVL973:
 11316               	.L705:
 11317               	.LM1093:
 11318 402a CE01      		movw r24,r28
 11319               	.LVL974:
 11320 402c 0D96      		adiw r24,13
 11321 402e 0E94 0000 		call dir_remove
 11322               	.LVL975:
 11323               	.LM1094:
 11324 4032 8823      		tst r24
 11325               	.LVL976:
 11326 4034 01F4      		brne .L702
 11327               	.LM1095:
 11328 4036 E114      		cp r14,__zero_reg__
 11329 4038 F104      		cpc r15,__zero_reg__
 11330 403a 0105      		cpc r16,__zero_reg__
 11331 403c 1105      		cpc r17,__zero_reg__
 11332 403e 01F0      		breq .L709
 11333               	.LM1096:
 11334 4040 8D85      		ldd r24,Y+13
 11335 4042 9E85      		ldd r25,Y+14
 11336               	.LVL977:
 11337 4044 B801      		movw r22,r16
 11338 4046 A701      		movw r20,r14
 11339 4048 0E94 0000 		call remove_chain
 11340               	.LM1097:
 11341 404c 8823      		tst r24
 11342               	.LVL978:
 11343 404e 01F4      		brne .L702
 11344               	.L709:
 11345 4050 8D85      		ldd r24,Y+13
 11346 4052 9E85      		ldd r25,Y+14
 11347               	.LVL979:
 11348 4054 0E94 0000 		call sync
 11349 4058 00C0      		rjmp .L702
 11350               	.LVL980:
 11351               	.L704:
 11352 405a 87E0      		ldi r24,lo8(7)
 11353               	.L702:
 11354               	.LVL981:
 11355               	/* epilogue start */
 11356               	.LM1098:
 11357 405c EA96      		adiw r28,58
 11358 405e CDBF      		out __SP_L__,r28
 11359 4060 DEBF      		out __SP_H__,r29
 11360 4062 CF91      		pop r28
 11361 4064 DF91      		pop r29
 11362 4066 1F91      		pop r17
 11363 4068 0F91      		pop r16
 11364 406a FF90      		pop r15
 11365 406c EF90      		pop r14
 11366               	.LVL982:
 11367 406e DF90      		pop r13
 11368 4070 CF90      		pop r12
 11369 4072 0895      		ret
 11370               	.LFE92:
 11372               	.global	f_mkdir
 11374               	f_mkdir:
 11375               	.LFB93:
 11376               	.LM1099:
 11377               	.LVL983:
 11378 4074 2F92      		push r2
 11379 4076 3F92      		push r3
 11380 4078 4F92      		push r4
 11381 407a 5F92      		push r5
 11382 407c 6F92      		push r6
 11383 407e 7F92      		push r7
 11384 4080 8F92      		push r8
 11385 4082 9F92      		push r9
 11386 4084 AF92      		push r10
 11387 4086 BF92      		push r11
 11388 4088 CF92      		push r12
 11389 408a DF92      		push r13
 11390 408c EF92      		push r14
 11391 408e FF92      		push r15
 11392 4090 0F93      		push r16
 11393 4092 1F93      		push r17
 11394 4094 DF93      		push r29
 11395 4096 CF93      		push r28
 11396 4098 CDB7      		in r28,__SP_L__
 11397 409a DEB7      		in r29,__SP_H__
 11398 409c A897      		sbiw r28,40
 11399 409e CDBF      		out __SP_L__,r28
 11400 40a0 DEBF      		out __SP_H__,r29
 11401               	/* prologue: function */
 11402               	/* frame size = 40 */
 11403 40a2 8BA3      		std Y+35,r24
 11404 40a4 9CA3      		std Y+36,r25
 11405               	.LM1100:
 11406 40a6 3DE0      		ldi r19,lo8(13)
 11407 40a8 E32E      		mov r14,r19
 11408 40aa F12C      		mov r15,__zero_reg__
 11409 40ac EC0E      		add r14,r28
 11410 40ae FD1E      		adc r15,r29
 11411 40b0 CE01      		movw r24,r28
 11412               	.LVL984:
 11413 40b2 8396      		adiw r24,35
 11414 40b4 B701      		movw r22,r14
 11415 40b6 41E0      		ldi r20,lo8(1)
 11416 40b8 0E94 0000 		call chk_mounted
 11417 40bc 182F      		mov r17,r24
 11418               	.LVL985:
 11419               	.LM1101:
 11420 40be 8823      		tst r24
 11421 40c0 01F0      		breq .+2
 11422 40c2 00C0      		rjmp .L712
 11423               	.LVL986:
 11424               	.LM1102:
 11425 40c4 CE01      		movw r24,r28
 11426               	.LVL987:
 11427 40c6 0196      		adiw r24,1
 11428 40c8 89A3      		std Y+33,r24
 11429 40ca 9AA3      		std Y+34,r25
 11430               	.LM1103:
 11431 40cc 6BA1      		ldd r22,Y+35
 11432 40ce 7CA1      		ldd r23,Y+36
 11433 40d0 C701      		movw r24,r14
 11434 40d2 0E94 0000 		call follow_path
 11435 40d6 182F      		mov r17,r24
 11436               	.LM1104:
 11437 40d8 8823      		tst r24
 11438 40da 01F4      		brne .L713
 11439               	.LVL988:
 11440 40dc 18E0      		ldi r17,lo8(8)
 11441               	.LVL989:
 11442 40de 00C0      		rjmp .L712
 11443               	.LVL990:
 11444               	.L713:
 11445               	.LM1105:
 11446 40e0 8430      		cpi r24,lo8(4)
 11447 40e2 01F0      		breq .+2
 11448 40e4 00C0      		rjmp .L712
 11449               	.LM1106:
 11450 40e6 8D85      		ldd r24,Y+13
 11451 40e8 9E85      		ldd r25,Y+14
 11452               	.LVL991:
 11453 40ea 40E0      		ldi r20,lo8(0)
 11454 40ec 50E0      		ldi r21,hi8(0)
 11455 40ee 60E0      		ldi r22,hlo8(0)
 11456 40f0 70E0      		ldi r23,hhi8(0)
 11457 40f2 0E94 0000 		call create_chain
 11458 40f6 4B01      		movw r8,r22
 11459 40f8 5C01      		movw r10,r24
 11460               	.LVL992:
 11461               	.LM1107:
 11462 40fa 6115      		cp r22,__zero_reg__
 11463 40fc 7105      		cpc r23,__zero_reg__
 11464 40fe 8105      		cpc r24,__zero_reg__
 11465 4100 9105      		cpc r25,__zero_reg__
 11466 4102 01F4      		brne .L714
 11467               	.LVL993:
 11468 4104 17E0      		ldi r17,lo8(7)
 11469 4106 00C0      		rjmp .L712
 11470               	.L714:
 11471               	.LM1108:
 11472 4108 6130      		cpi r22,lo8(1)
 11473 410a 7105      		cpc r23,__zero_reg__
 11474 410c 8105      		cpc r24,__zero_reg__
 11475 410e 9105      		cpc r25,__zero_reg__
 11476 4110 01F4      		brne .L715
 11477 4112 12E0      		ldi r17,lo8(2)
 11478 4114 00C0      		rjmp .L712
 11479               	.L715:
 11480               	.LM1109:
 11481 4116 6F3F      		cpi r22,lo8(-1)
 11482 4118 3FEF      		ldi r19,hi8(-1)
 11483 411a 7307      		cpc r23,r19
 11484 411c 3FEF      		ldi r19,hlo8(-1)
 11485 411e 8307      		cpc r24,r19
 11486 4120 3FEF      		ldi r19,hhi8(-1)
 11487 4122 9307      		cpc r25,r19
 11488 4124 01F4      		brne .+2
 11489 4126 00C0      		rjmp .L716
 11490               	.LM1110:
 11491 4128 8D85      		ldd r24,Y+13
 11492 412a 9E85      		ldd r25,Y+14
 11493 412c 40E0      		ldi r20,lo8(0)
 11494 412e 50E0      		ldi r21,hi8(0)
 11495 4130 60E0      		ldi r22,hlo8(0)
 11496 4132 70E0      		ldi r23,hhi8(0)
 11497 4134 0E94 0000 		call move_window
 11498               	.LVL994:
 11499 4138 182F      		mov r17,r24
 11500               	.LM1111:
 11501 413a 8823      		tst r24
 11502 413c 01F0      		breq .+2
 11503 413e 00C0      		rjmp .L712
 11504               	.LVL995:
 11505               	.LM1112:
 11506 4140 0D85      		ldd r16,Y+13
 11507 4142 1E85      		ldd r17,Y+14
 11508               	.LBB892:
 11509               	.LBB893:
 11510               	.LM1113:
 11511 4144 2EEF      		ldi r18,lo8(-2)
 11512 4146 C22E      		mov r12,r18
 11513 4148 2FEF      		ldi r18,hi8(-2)
 11514 414a D22E      		mov r13,r18
 11515 414c 2FEF      		ldi r18,hlo8(-2)
 11516 414e E22E      		mov r14,r18
 11517 4150 2FEF      		ldi r18,hhi8(-2)
 11518 4152 F22E      		mov r15,r18
 11519               	.LVL996:
 11520 4154 C80C      		add r12,r8
 11521 4156 D91C      		adc r13,r9
 11522 4158 EA1C      		adc r14,r10
 11523 415a FB1C      		adc r15,r11
 11524               	.LM1114:
 11525 415c F801      		movw r30,r16
 11526 415e 828D      		ldd r24,Z+26
 11527 4160 938D      		ldd r25,Z+27
 11528 4162 A48D      		ldd r26,Z+28
 11529 4164 B58D      		ldd r27,Z+29
 11530               	.LVL997:
 11531 4166 0297      		sbiw r24,2
 11532 4168 A109      		sbc r26,__zero_reg__
 11533 416a B109      		sbc r27,__zero_reg__
 11534 416c C816      		cp r12,r24
 11535 416e D906      		cpc r13,r25
 11536 4170 EA06      		cpc r14,r26
 11537 4172 FB06      		cpc r15,r27
 11538 4174 00F0      		brlo .L717
 11539 4176 4424      		clr r4
 11540 4178 5524      		clr r5
 11541 417a 3201      		movw r6,r4
 11542               	.LVL998:
 11543 417c 00C0      		rjmp .L718
 11544               	.LVL999:
 11545               	.L717:
 11546               	.LM1115:
 11547 417e F801      		movw r30,r16
 11548 4180 2281      		ldd r18,Z+2
 11549 4182 30E0      		ldi r19,lo8(0)
 11550 4184 40E0      		ldi r20,lo8(0)
 11551 4186 50E0      		ldi r21,hi8(0)
 11552 4188 C701      		movw r24,r14
 11553 418a B601      		movw r22,r12
 11554 418c 0E94 0000 		call __mulsi3
 11555 4190 2B01      		movw r4,r22
 11556 4192 3C01      		movw r6,r24
 11557               	.LVL1000:
 11558 4194 F801      		movw r30,r16
 11559 4196 86A1      		ldd r24,Z+38
 11560 4198 97A1      		ldd r25,Z+39
 11561 419a A0A5      		ldd r26,Z+40
 11562 419c B1A5      		ldd r27,Z+41
 11563 419e 480E      		add r4,r24
 11564 41a0 591E      		adc r5,r25
 11565 41a2 6A1E      		adc r6,r26
 11566 41a4 7B1E      		adc r7,r27
 11567               	.L718:
 11568               	.LBE893:
 11569               	.LBE892:
 11570               	.LM1116:
 11571 41a6 9EE2      		ldi r25,lo8(46)
 11572 41a8 292E      		mov r2,r25
 11573 41aa 312C      		mov r3,__zero_reg__
 11574               	.LVL1001:
 11575 41ac 200E      		add r2,r16
 11576 41ae 311E      		adc r3,r17
 11577 41b0 F101      		movw r30,r2
 11578 41b2 80E0      		ldi r24,lo8(512)
 11579 41b4 92E0      		ldi r25,hi8(512)
 11580               	.LVL1002:
 11581 41b6 00C0      		rjmp .L719
 11582               	.LVL1003:
 11583               	.L720:
 11584               	.LBB894:
 11585               	.LBB895:
 11586               	.LM1117:
 11587 41b8 1192      		st Z+,__zero_reg__
 11588               	.L719:
 11589 41ba 0197      		sbiw r24,1
 11590 41bc 2FEF      		ldi r18,hi8(-1)
 11591 41be 8F3F      		cpi r24,lo8(-1)
 11592 41c0 9207      		cpc r25,r18
 11593 41c2 01F4      		brne .L720
 11594 41c4 F101      		movw r30,r2
 11595 41c6 8BE0      		ldi r24,lo8(11)
 11596 41c8 90E0      		ldi r25,hi8(11)
 11597               	.LVL1004:
 11598               	.LBE895:
 11599               	.LBE894:
 11600               	.LBB896:
 11601               	.LBB897:
 11602 41ca 20E2      		ldi r18,lo8(32)
 11603 41cc 00C0      		rjmp .L721
 11604               	.L722:
 11605 41ce 2193      		st Z+,r18
 11606               	.L721:
 11607 41d0 0197      		sbiw r24,1
 11608 41d2 3FEF      		ldi r19,hi8(-1)
 11609 41d4 8F3F      		cpi r24,lo8(-1)
 11610 41d6 9307      		cpc r25,r19
 11611 41d8 01F4      		brne .L722
 11612               	.LBE897:
 11613               	.LBE896:
 11614               	.LM1118:
 11615 41da 8EE2      		ldi r24,lo8(46)
 11616               	.LVL1005:
 11617 41dc F801      		movw r30,r16
 11618               	.LVL1006:
 11619 41de 86A7      		std Z+46,r24
 11620               	.LM1119:
 11621 41e0 80E1      		ldi r24,lo8(16)
 11622 41e2 81AF      		std Z+57,r24
 11623               	.LM1120:
 11624 41e4 0C5B      		subi r16,lo8(-(68))
 11625 41e6 1F4F      		sbci r17,hi8(-(68))
 11626 41e8 F801      		movw r30,r16
 11627 41ea 1192      		st Z+,__zero_reg__
 11628 41ec 1192      		st Z+,__zero_reg__
 11629 41ee 1192      		st Z+,__zero_reg__
 11630 41f0 1192      		st Z+,__zero_reg__
 11631               	.LM1121:
 11632 41f2 88A6      		std Y+40,r8
 11633 41f4 8192      		st Z+,r8
 11634 41f6 8F01      		movw r16,r30
 11635 41f8 892D      		mov r24,r9
 11636 41fa 9927      		clr r25
 11637 41fc 8FA3      		std Y+39,r24
 11638 41fe 8083      		st Z,r24
 11639               	.LM1122:
 11640 4200 C501      		movw r24,r10
 11641 4202 AA27      		clr r26
 11642 4204 BB27      		clr r27
 11643 4206 8EA3      		std Y+38,r24
 11644 4208 0750      		subi r16,lo8(-(-7))
 11645 420a 1040      		sbci r17,hi8(-(-7))
 11646 420c F801      		movw r30,r16
 11647 420e 8193      		st Z+,r24
 11648 4210 8F01      		movw r16,r30
 11649 4212 892F      		mov r24,r25
 11650 4214 9927      		clr r25
 11651 4216 8DA3      		std Y+37,r24
 11652 4218 8083      		st Z,r24
 11653 421a 0354      		subi r16,lo8(-(-67))
 11654 421c 1040      		sbci r17,hi8(-(-67))
 11655 421e F101      		movw r30,r2
 11656               	.LVL1007:
 11657 4220 20E2      		ldi r18,lo8(32)
 11658 4222 30E0      		ldi r19,hi8(32)
 11659               	.LVL1008:
 11660 4224 00C0      		rjmp .L723
 11661               	.L724:
 11662               	.LBB898:
 11663               	.LBB899:
 11664               	.LM1123:
 11665 4226 8081      		ld r24,Z
 11666 4228 80A3      		std Z+32,r24
 11667 422a 3196      		adiw r30,1
 11668               	.L723:
 11669 422c 2150      		subi r18,lo8(-(-1))
 11670 422e 3040      		sbci r19,hi8(-(-1))
 11671 4230 8FEF      		ldi r24,hi8(-1)
 11672 4232 2F3F      		cpi r18,lo8(-1)
 11673 4234 3807      		cpc r19,r24
 11674 4236 01F4      		brne .L724
 11675               	.LBE899:
 11676               	.LBE898:
 11677               	.LM1124:
 11678 4238 015B      		subi r16,lo8(-(79))
 11679 423a 1F4F      		sbci r17,hi8(-(79))
 11680 423c 8EE2      		ldi r24,lo8(46)
 11681 423e F801      		movw r30,r16
 11682               	.LVL1009:
 11683 4240 8083      		st Z,r24
 11684 4242 0F54      		subi r16,lo8(-(-79))
 11685 4244 1040      		sbci r17,hi8(-(-79))
 11686               	.LM1125:
 11687 4246 2B89      		ldd r18,Y+19
 11688 4248 3C89      		ldd r19,Y+20
 11689 424a 4D89      		ldd r20,Y+21
 11690 424c 5E89      		ldd r21,Y+22
 11691               	.LVL1010:
 11692               	.LM1126:
 11693 424e ED85      		ldd r30,Y+13
 11694 4250 FE85      		ldd r31,Y+14
 11695 4252 8081      		ld r24,Z
 11696 4254 8330      		cpi r24,lo8(3)
 11697 4256 01F4      		brne .L725
 11698 4258 82A1      		ldd r24,Z+34
 11699 425a 93A1      		ldd r25,Z+35
 11700 425c A4A1      		ldd r26,Z+36
 11701 425e B5A1      		ldd r27,Z+37
 11702 4260 2817      		cp r18,r24
 11703 4262 3907      		cpc r19,r25
 11704 4264 4A07      		cpc r20,r26
 11705 4266 5B07      		cpc r21,r27
 11706 4268 01F4      		brne .L725
 11707 426a 20E0      		ldi r18,lo8(0)
 11708 426c 30E0      		ldi r19,hi8(0)
 11709 426e 40E0      		ldi r20,hlo8(0)
 11710 4270 50E0      		ldi r21,hhi8(0)
 11711               	.L725:
 11712               	.LM1127:
 11713 4272 0859      		subi r16,lo8(-(104))
 11714 4274 1F4F      		sbci r17,hi8(-(104))
 11715 4276 F801      		movw r30,r16
 11716 4278 2193      		st Z+,r18
 11717 427a 8F01      		movw r16,r30
 11718 427c 832F      		mov r24,r19
 11719 427e 9927      		clr r25
 11720 4280 8083      		st Z,r24
 11721               	.LM1128:
 11722 4282 CA01      		movw r24,r20
 11723 4284 AA27      		clr r26
 11724 4286 BB27      		clr r27
 11725 4288 0750      		subi r16,lo8(-(-7))
 11726 428a 1040      		sbci r17,hi8(-(-7))
 11727 428c F801      		movw r30,r16
 11728 428e 8193      		st Z+,r24
 11729 4290 892F      		mov r24,r25
 11730 4292 9927      		clr r25
 11731 4294 8083      		st Z,r24
 11732 4296 7301      		movw r14,r6
 11733 4298 6201      		movw r12,r4
 11734               	.LVL1011:
 11735               	.LM1129:
 11736 429a 01E0      		ldi r16,lo8(1)
 11737 429c 00C0      		rjmp .L726
 11738               	.LVL1012:
 11739               	.L729:
 11740               	.LM1130:
 11741 429e C2A6      		std Z+42,r12
 11742 42a0 D3A6      		std Z+43,r13
 11743 42a2 E4A6      		std Z+44,r14
 11744 42a4 F5A6      		std Z+45,r15
 11745               	.LM1131:
 11746 42a6 0483      		std Z+4,r16
 11747               	.LM1132:
 11748 42a8 CF01      		movw r24,r30
 11749 42aa 40E0      		ldi r20,lo8(0)
 11750 42ac 50E0      		ldi r21,hi8(0)
 11751 42ae 60E0      		ldi r22,hlo8(0)
 11752 42b0 70E0      		ldi r23,hhi8(0)
 11753 42b2 0E94 0000 		call move_window
 11754               	.LVL1013:
 11755 42b6 182F      		mov r17,r24
 11756               	.LM1133:
 11757 42b8 8823      		tst r24
 11758 42ba 01F4      		brne .L712
 11759               	.LVL1014:
 11760 42bc F101      		movw r30,r2
 11761 42be 80E0      		ldi r24,lo8(512)
 11762 42c0 92E0      		ldi r25,hi8(512)
 11763               	.LVL1015:
 11764 42c2 00C0      		rjmp .L727
 11765               	.LVL1016:
 11766               	.L728:
 11767               	.LBB900:
 11768               	.LBB901:
 11769               	.LM1134:
 11770 42c4 1192      		st Z+,__zero_reg__
 11771               	.L727:
 11772 42c6 0197      		sbiw r24,1
 11773 42c8 2FEF      		ldi r18,hi8(-1)
 11774 42ca 8F3F      		cpi r24,lo8(-1)
 11775 42cc 9207      		cpc r25,r18
 11776 42ce 01F4      		brne .L728
 11777               	.LBE901:
 11778               	.LBE900:
 11779               	.LM1135:
 11780 42d0 0894      		sec
 11781 42d2 C11C      		adc r12,__zero_reg__
 11782 42d4 D11C      		adc r13,__zero_reg__
 11783 42d6 E11C      		adc r14,__zero_reg__
 11784 42d8 F11C      		adc r15,__zero_reg__
 11785               	.LVL1017:
 11786               	.L726:
 11787               	.LM1136:
 11788 42da ED85      		ldd r30,Y+13
 11789 42dc FE85      		ldd r31,Y+14
 11790 42de 9C2D      		mov r25,r12
 11791               	.LVL1018:
 11792 42e0 9419      		sub r25,r4
 11793 42e2 8281      		ldd r24,Z+2
 11794               	.LVL1019:
 11795 42e4 9817      		cp r25,r24
 11796 42e6 00F0      		brlo .L729
 11797               	.LM1137:
 11798 42e8 CE01      		movw r24,r28
 11799 42ea 0D96      		adiw r24,13
 11800 42ec 0E94 0000 		call dir_register
 11801               	.LVL1020:
 11802 42f0 182F      		mov r17,r24
 11803               	.LM1138:
 11804 42f2 8823      		tst r24
 11805 42f4 01F0      		breq .L730
 11806               	.LVL1021:
 11807               	.LM1139:
 11808 42f6 8D85      		ldd r24,Y+13
 11809 42f8 9E85      		ldd r25,Y+14
 11810               	.LVL1022:
 11811 42fa B501      		movw r22,r10
 11812 42fc A401      		movw r20,r8
 11813 42fe 0E94 0000 		call remove_chain
 11814 4302 00C0      		rjmp .L712
 11815               	.LVL1023:
 11816               	.L730:
 11817               	.LM1140:
 11818 4304 EF8D      		ldd r30,Y+31
 11819 4306 F8A1      		ldd r31,Y+32
 11820               	.LVL1024:
 11821               	.LM1141:
 11822 4308 80E1      		ldi r24,lo8(16)
 11823               	.LVL1025:
 11824 430a 8387      		std Z+11,r24
 11825               	.LM1142:
 11826 430c 168A      		std Z+22,__zero_reg__
 11827 430e 178A      		std Z+23,__zero_reg__
 11828 4310 108E      		std Z+24,__zero_reg__
 11829 4312 118E      		std Z+25,__zero_reg__
 11830               	.LM1143:
 11831 4314 38A5      		ldd r19,Y+40
 11832 4316 328F      		std Z+26,r19
 11833 4318 8FA1      		ldd r24,Y+39
 11834 431a 838F      		std Z+27,r24
 11835               	.LM1144:
 11836 431c 2EA1      		ldd r18,Y+38
 11837 431e 248B      		std Z+20,r18
 11838 4320 3DA1      		ldd r19,Y+37
 11839 4322 358B      		std Z+21,r19
 11840               	.LM1145:
 11841 4324 ED85      		ldd r30,Y+13
 11842 4326 FE85      		ldd r31,Y+14
 11843               	.LVL1026:
 11844 4328 81E0      		ldi r24,lo8(1)
 11845 432a 8483      		std Z+4,r24
 11846               	.LM1146:
 11847 432c CF01      		movw r24,r30
 11848 432e 0E94 0000 		call sync
 11849 4332 182F      		mov r17,r24
 11850               	.LVL1027:
 11851               	.L712:
 11852               	.LM1147:
 11853 4334 812F      		mov r24,r17
 11854               	/* epilogue start */
 11855 4336 A896      		adiw r28,40
 11856 4338 CDBF      		out __SP_L__,r28
 11857 433a DEBF      		out __SP_H__,r29
 11858 433c CF91      		pop r28
 11859 433e DF91      		pop r29
 11860 4340 1F91      		pop r17
 11861               	.LVL1028:
 11862 4342 0F91      		pop r16
 11863 4344 FF90      		pop r15
 11864 4346 EF90      		pop r14
 11865 4348 DF90      		pop r13
 11866 434a CF90      		pop r12
 11867 434c BF90      		pop r11
 11868 434e AF90      		pop r10
 11869 4350 9F90      		pop r9
 11870 4352 8F90      		pop r8
 11871               	.LVL1029:
 11872 4354 7F90      		pop r7
 11873 4356 6F90      		pop r6
 11874 4358 5F90      		pop r5
 11875 435a 4F90      		pop r4
 11876               	.LVL1030:
 11877 435c 3F90      		pop r3
 11878 435e 2F90      		pop r2
 11879               	.LVL1031:
 11880 4360 0895      		ret
 11881               	.LVL1032:
 11882               	.L716:
 11883               	.LM1148:
 11884 4362 11E0      		ldi r17,lo8(1)
 11885 4364 00C0      		rjmp .L712
 11886               	.LFE93:
 11888               	.global	f_chmod
 11890               	f_chmod:
 11891               	.LFB94:
 11892               	.LM1149:
 11893               	.LVL1033:
 11894 4366 EF92      		push r14
 11895 4368 FF92      		push r15
 11896 436a 0F93      		push r16
 11897 436c 1F93      		push r17
 11898 436e DF93      		push r29
 11899 4370 CF93      		push r28
 11900 4372 CDB7      		in r28,__SP_L__
 11901 4374 DEB7      		in r29,__SP_H__
 11902 4376 A497      		sbiw r28,36
 11903 4378 CDBF      		out __SP_L__,r28
 11904 437a DEBF      		out __SP_H__,r29
 11905               	/* prologue: function */
 11906               	/* frame size = 36 */
 11907 437c 8BA3      		std Y+35,r24
 11908 437e 9CA3      		std Y+36,r25
 11909 4380 E62E      		mov r14,r22
 11910 4382 F42E      		mov r15,r20
 11911               	.LM1150:
 11912 4384 8E01      		movw r16,r28
 11913 4386 035F      		subi r16,lo8(-(13))
 11914 4388 1F4F      		sbci r17,hi8(-(13))
 11915 438a CE01      		movw r24,r28
 11916               	.LVL1034:
 11917 438c 8396      		adiw r24,35
 11918 438e B801      		movw r22,r16
 11919               	.LVL1035:
 11920 4390 41E0      		ldi r20,lo8(1)
 11921               	.LVL1036:
 11922 4392 0E94 0000 		call chk_mounted
 11923               	.LM1151:
 11924 4396 8823      		tst r24
 11925               	.LVL1037:
 11926 4398 01F4      		brne .L733
 11927               	.LM1152:
 11928 439a CE01      		movw r24,r28
 11929               	.LVL1038:
 11930 439c 0196      		adiw r24,1
 11931 439e 89A3      		std Y+33,r24
 11932 43a0 9AA3      		std Y+34,r25
 11933               	.LM1153:
 11934 43a2 6BA1      		ldd r22,Y+35
 11935 43a4 7CA1      		ldd r23,Y+36
 11936 43a6 C801      		movw r24,r16
 11937 43a8 0E94 0000 		call follow_path
 11938               	.LM1154:
 11939 43ac 8823      		tst r24
 11940               	.LVL1039:
 11941 43ae 01F4      		brne .L733
 11942               	.LM1155:
 11943 43b0 EF8D      		ldd r30,Y+31
 11944 43b2 F8A1      		ldd r31,Y+32
 11945               	.LVL1040:
 11946               	.LM1156:
 11947 43b4 3097      		sbiw r30,0
 11948 43b6 01F4      		brne .L734
 11949 43b8 86E0      		ldi r24,lo8(6)
 11950 43ba 00C0      		rjmp .L733
 11951               	.L734:
 11952               	.LM1157:
 11953 43bc 9F2D      		mov r25,r15
 11954 43be 9772      		andi r25,lo8(39)
 11955               	.LVL1041:
 11956               	.LM1158:
 11957 43c0 892F      		mov r24,r25
 11958               	.LVL1042:
 11959 43c2 8095      		com r24
 11960 43c4 2385      		ldd r18,Z+11
 11961 43c6 8223      		and r24,r18
 11962 43c8 9E21      		and r25,r14
 11963 43ca 892B      		or r24,r25
 11964 43cc 8387      		std Z+11,r24
 11965               	.LM1159:
 11966 43ce ED85      		ldd r30,Y+13
 11967 43d0 FE85      		ldd r31,Y+14
 11968               	.LVL1043:
 11969 43d2 81E0      		ldi r24,lo8(1)
 11970 43d4 8483      		std Z+4,r24
 11971               	.LM1160:
 11972 43d6 CF01      		movw r24,r30
 11973 43d8 0E94 0000 		call sync
 11974               	.LVL1044:
 11975               	.L733:
 11976               	.LVL1045:
 11977               	/* epilogue start */
 11978               	.LM1161:
 11979 43dc A496      		adiw r28,36
 11980 43de CDBF      		out __SP_L__,r28
 11981 43e0 DEBF      		out __SP_H__,r29
 11982 43e2 CF91      		pop r28
 11983 43e4 DF91      		pop r29
 11984 43e6 1F91      		pop r17
 11985 43e8 0F91      		pop r16
 11986 43ea FF90      		pop r15
 11987               	.LVL1046:
 11988 43ec EF90      		pop r14
 11989               	.LVL1047:
 11990 43ee 0895      		ret
 11991               	.LFE94:
 11993               	.global	f_utime
 11995               	f_utime:
 11996               	.LFB95:
 11997               	.LM1162:
 11998               	.LVL1048:
 11999 43f0 EF92      		push r14
 12000 43f2 FF92      		push r15
 12001 43f4 0F93      		push r16
 12002 43f6 1F93      		push r17
 12003 43f8 DF93      		push r29
 12004 43fa CF93      		push r28
 12005 43fc CDB7      		in r28,__SP_L__
 12006 43fe DEB7      		in r29,__SP_H__
 12007 4400 A497      		sbiw r28,36
 12008 4402 CDBF      		out __SP_L__,r28
 12009 4404 DEBF      		out __SP_H__,r29
 12010               	/* prologue: function */
 12011               	/* frame size = 36 */
 12012 4406 8BA3      		std Y+35,r24
 12013 4408 9CA3      		std Y+36,r25
 12014 440a 8B01      		movw r16,r22
 12015               	.LM1163:
 12016 440c 4DE0      		ldi r20,lo8(13)
 12017 440e E42E      		mov r14,r20
 12018 4410 F12C      		mov r15,__zero_reg__
 12019 4412 EC0E      		add r14,r28
 12020 4414 FD1E      		adc r15,r29
 12021 4416 CE01      		movw r24,r28
 12022               	.LVL1049:
 12023 4418 8396      		adiw r24,35
 12024 441a B701      		movw r22,r14
 12025               	.LVL1050:
 12026 441c 41E0      		ldi r20,lo8(1)
 12027 441e 0E94 0000 		call chk_mounted
 12028               	.LM1164:
 12029 4422 8823      		tst r24
 12030               	.LVL1051:
 12031 4424 01F4      		brne .L737
 12032               	.LM1165:
 12033 4426 CE01      		movw r24,r28
 12034               	.LVL1052:
 12035 4428 0196      		adiw r24,1
 12036 442a 89A3      		std Y+33,r24
 12037 442c 9AA3      		std Y+34,r25
 12038               	.LM1166:
 12039 442e 6BA1      		ldd r22,Y+35
 12040 4430 7CA1      		ldd r23,Y+36
 12041 4432 C701      		movw r24,r14
 12042 4434 0E94 0000 		call follow_path
 12043               	.LM1167:
 12044 4438 8823      		tst r24
 12045               	.LVL1053:
 12046 443a 01F4      		brne .L737
 12047               	.LM1168:
 12048 443c EF8D      		ldd r30,Y+31
 12049 443e F8A1      		ldd r31,Y+32
 12050               	.LVL1054:
 12051               	.LM1169:
 12052 4440 3097      		sbiw r30,0
 12053 4442 01F4      		brne .L738
 12054 4444 86E0      		ldi r24,lo8(6)
 12055 4446 00C0      		rjmp .L737
 12056               	.L738:
 12057               	.LM1170:
 12058 4448 D801      		movw r26,r16
 12059 444a 1696      		adiw r26,6
 12060 444c 8C91      		ld r24,X
 12061 444e 1697      		sbiw r26,6
 12062               	.LVL1055:
 12063 4450 868B      		std Z+22,r24
 12064 4452 1796      		adiw r26,7
 12065 4454 8C91      		ld r24,X
 12066 4456 1797      		sbiw r26,7
 12067 4458 878B      		std Z+23,r24
 12068               	.LM1171:
 12069 445a 1496      		adiw r26,4
 12070 445c 8C91      		ld r24,X
 12071 445e 1497      		sbiw r26,4
 12072 4460 808F      		std Z+24,r24
 12073 4462 1596      		adiw r26,5
 12074 4464 8C91      		ld r24,X
 12075 4466 818F      		std Z+25,r24
 12076               	.LM1172:
 12077 4468 ED85      		ldd r30,Y+13
 12078 446a FE85      		ldd r31,Y+14
 12079               	.LVL1056:
 12080 446c 81E0      		ldi r24,lo8(1)
 12081 446e 8483      		std Z+4,r24
 12082               	.LM1173:
 12083 4470 CF01      		movw r24,r30
 12084 4472 0E94 0000 		call sync
 12085               	.LVL1057:
 12086               	.L737:
 12087               	.LVL1058:
 12088               	/* epilogue start */
 12089               	.LM1174:
 12090 4476 A496      		adiw r28,36
 12091 4478 CDBF      		out __SP_L__,r28
 12092 447a DEBF      		out __SP_H__,r29
 12093 447c CF91      		pop r28
 12094 447e DF91      		pop r29
 12095 4480 1F91      		pop r17
 12096 4482 0F91      		pop r16
 12097               	.LVL1059:
 12098 4484 FF90      		pop r15
 12099 4486 EF90      		pop r14
 12100 4488 0895      		ret
 12101               	.LFE95:
 12103               	.global	f_rename
 12105               	f_rename:
 12106               	.LFB96:
 12107               	.LM1175:
 12108               	.LVL1060:
 12109 448a CF92      		push r12
 12110 448c DF92      		push r13
 12111 448e EF92      		push r14
 12112 4490 FF92      		push r15
 12113 4492 0F93      		push r16
 12114 4494 1F93      		push r17
 12115 4496 DF93      		push r29
 12116 4498 CF93      		push r28
 12117 449a CDB7      		in r28,__SP_L__
 12118 449c DEB7      		in r29,__SP_H__
 12119 449e CF54      		subi r28,lo8(-(-79))
 12120 44a0 D040      		sbci r29,hi8(-(-79))
 12121 44a2 CDBF      		out __SP_L__,r28
 12122 44a4 DEBF      		out __SP_H__,r29
 12123               	/* prologue: function */
 12124               	/* frame size = 79 */
 12125 44a6 8E01      		movw r16,r28
 12126 44a8 025B      		subi r16,lo8(-(78))
 12127 44aa 1F4F      		sbci r17,hi8(-(78))
 12128 44ac D801      		movw r26,r16
 12129 44ae 8D93      		st X+,r24
 12130 44b0 9C93      		st X,r25
 12131 44b2 6B01      		movw r12,r22
 12132               	.LM1176:
 12133 44b4 CE01      		movw r24,r28
 12134               	.LVL1061:
 12135 44b6 0196      		adiw r24,1
 12136 44b8 8EAB      		std Y+54,r24
 12137 44ba 9FAB      		std Y+55,r25
 12138               	.LM1177:
 12139 44bc A2E2      		ldi r26,lo8(34)
 12140 44be EA2E      		mov r14,r26
 12141 44c0 F12C      		mov r15,__zero_reg__
 12142 44c2 EC0E      		add r14,r28
 12143 44c4 FD1E      		adc r15,r29
 12144 44c6 C801      		movw r24,r16
 12145 44c8 B701      		movw r22,r14
 12146               	.LVL1062:
 12147 44ca 41E0      		ldi r20,lo8(1)
 12148 44cc 0E94 0000 		call chk_mounted
 12149               	.LM1178:
 12150 44d0 8823      		tst r24
 12151               	.LVL1063:
 12152 44d2 01F0      		breq .+2
 12153 44d4 00C0      		rjmp .L741
 12154               	.LM1179:
 12155 44d6 8AA1      		ldd r24,Y+34
 12156 44d8 9BA1      		ldd r25,Y+35
 12157               	.LVL1064:
 12158 44da 88AF      		std Y+56,r24
 12159 44dc 99AF      		std Y+57,r25
 12160               	.LM1180:
 12161 44de F801      		movw r30,r16
 12162 44e0 6081      		ld r22,Z
 12163 44e2 7181      		ldd r23,Z+1
 12164 44e4 C701      		movw r24,r14
 12165 44e6 0E94 0000 		call follow_path
 12166               	.LM1181:
 12167 44ea 8823      		tst r24
 12168               	.LVL1065:
 12169 44ec 01F0      		breq .+2
 12170 44ee 00C0      		rjmp .L741
 12171               	.LVL1066:
 12172               	.LM1182:
 12173 44f0 8CA9      		ldd r24,Y+52
 12174 44f2 9DA9      		ldd r25,Y+53
 12175               	.LVL1067:
 12176 44f4 0097      		sbiw r24,0
 12177 44f6 01F4      		brne .L742
 12178 44f8 84E0      		ldi r24,lo8(4)
 12179               	.LVL1068:
 12180 44fa 00C0      		rjmp .L741
 12181               	.LVL1069:
 12182               	.L742:
 12183 44fc DC01      		movw r26,r24
 12184 44fe FE01      		movw r30,r28
 12185               	.LVL1070:
 12186 4500 3D96      		adiw r30,13
 12187 4502 00C0      		rjmp .L743
 12188               	.L744:
 12189               	.LBB902:
 12190               	.LBB903:
 12191               	.LM1183:
 12192 4504 1A96      		adiw r26,10
 12193 4506 8C91      		ld r24,X
 12194 4508 1A97      		sbiw r26,10
 12195 450a 8193      		st Z+,r24
 12196               	.L743:
 12197 450c 1196      		adiw r26,1
 12198 450e EE15      		cp r30,r14
 12199 4510 FF05      		cpc r31,r15
 12200 4512 01F4      		brne .L744
 12201               	.LBE903:
 12202               	.LBE902:
 12203               	.LBB904:
 12204               	.LBB905:
 12205               	.LM1184:
 12206 4514 DE01      		movw r26,r28
 12207               	.LVL1071:
 12208 4516 D896      		adiw r26,56
 12209               	.LM1185:
 12210 4518 F701      		movw r30,r14
 12211               	.LVL1072:
 12212               	.LM1186:
 12213 451a 9D01      		movw r18,r26
 12214 451c 00C0      		rjmp .L745
 12215               	.L746:
 12216 451e 8191      		ld r24,Z+
 12217 4520 8D93      		st X+,r24
 12218               	.L745:
 12219 4522 E217      		cp r30,r18
 12220 4524 F307      		cpc r31,r19
 12221 4526 01F4      		brne .L746
 12222               	.LBE905:
 12223               	.LBE904:
 12224               	.LM1187:
 12225 4528 8E01      		movw r16,r28
 12226 452a 085C      		subi r16,lo8(-(56))
 12227 452c 1F4F      		sbci r17,hi8(-(56))
 12228 452e C801      		movw r24,r16
 12229 4530 B601      		movw r22,r12
 12230 4532 0E94 0000 		call follow_path
 12231               	.LVL1073:
 12232               	.LM1188:
 12233 4536 8823      		tst r24
 12234               	.LVL1074:
 12235 4538 01F4      		brne .L747
 12236 453a 88E0      		ldi r24,lo8(8)
 12237 453c 00C0      		rjmp .L741
 12238               	.L747:
 12239               	.LM1189:
 12240 453e 8430      		cpi r24,lo8(4)
 12241 4540 01F0      		breq .+2
 12242 4542 00C0      		rjmp .L741
 12243               	.LM1190:
 12244 4544 C801      		movw r24,r16
 12245               	.LVL1075:
 12246 4546 0E94 0000 		call dir_register
 12247               	.LM1191:
 12248 454a 8823      		tst r24
 12249               	.LVL1076:
 12250 454c 01F0      		breq .+2
 12251 454e 00C0      		rjmp .L741
 12252               	.LM1192:
 12253 4550 FE01      		movw r30,r28
 12254 4552 E65B      		subi r30,lo8(-(74))
 12255 4554 FF4F      		sbci r31,hi8(-(74))
 12256 4556 4081      		ld r20,Z
 12257 4558 5181      		ldd r21,Z+1
 12258               	.LVL1077:
 12259 455a DA01      		movw r26,r20
 12260 455c FE01      		movw r30,r28
 12261               	.LVL1078:
 12262 455e 3F96      		adiw r30,15
 12263 4560 00C0      		rjmp .L748
 12264               	.L749:
 12265               	.LBB906:
 12266               	.LBB907:
 12267               	.LM1193:
 12268 4562 8191      		ld r24,Z+
 12269               	.LVL1079:
 12270 4564 1C96      		adiw r26,12
 12271 4566 8C93      		st X,r24
 12272 4568 1C97      		sbiw r26,12
 12273               	.LVL1080:
 12274               	.L748:
 12275 456a 1196      		adiw r26,1
 12276 456c EE15      		cp r30,r14
 12277 456e FF05      		cpc r31,r15
 12278 4570 01F4      		brne .L749
 12279               	.LBE907:
 12280               	.LBE906:
 12281               	.LM1194:
 12282 4572 8D85      		ldd r24,Y+13
 12283               	.LVL1081:
 12284 4574 8062      		ori r24,lo8(32)
 12285 4576 DA01      		movw r26,r20
 12286 4578 1B96      		adiw r26,11
 12287 457a 8C93      		st X,r24
 12288 457c 1B97      		sbiw r26,11
 12289               	.LM1195:
 12290 457e EAA1      		ldd r30,Y+34
 12291 4580 FBA1      		ldd r31,Y+35
 12292               	.LVL1082:
 12293 4582 81E0      		ldi r24,lo8(1)
 12294 4584 8483      		std Z+4,r24
 12295               	.LM1196:
 12296 4586 1B96      		adiw r26,11
 12297 4588 8C91      		ld r24,X
 12298 458a 1B97      		sbiw r26,11
 12299 458c 84FF      		sbrs r24,4
 12300 458e 00C0      		rjmp .L750
 12301               	.LM1197:
 12302 4590 C8AC      		ldd r12,Y+56
 12303 4592 D9AC      		ldd r13,Y+57
 12304               	.LVL1083:
 12305               	.LBB908:
 12306               	.LBB909:
 12307               	.LM1198:
 12308 4594 5A96      		adiw r26,26
 12309 4596 2C91      		ld r18,X
 12310 4598 5A97      		sbiw r26,26
 12311 459a 30E0      		ldi r19,lo8(0)
 12312 459c 5496      		adiw r26,20
 12313 459e 8C91      		ld r24,X
 12314 45a0 5497      		sbiw r26,20
 12315 45a2 90E0      		ldi r25,lo8(0)
 12316 45a4 282B      		or r18,r24
 12317 45a6 392B      		or r19,r25
 12318 45a8 5596      		adiw r26,21
 12319 45aa 9C91      		ld r25,X
 12320 45ac 5597      		sbiw r26,21
 12321 45ae 80E0      		ldi r24,lo8(0)
 12322 45b0 282B      		or r18,r24
 12323 45b2 392B      		or r19,r25
 12324 45b4 5B96      		adiw r26,27
 12325 45b6 9C91      		ld r25,X
 12326 45b8 80E0      		ldi r24,lo8(0)
 12327 45ba 282B      		or r18,r24
 12328 45bc 392B      		or r19,r25
 12329 45be 7901      		movw r14,r18
 12330               	.LVL1084:
 12331 45c0 00E0      		ldi r16,lo8(0)
 12332 45c2 10E0      		ldi r17,hi8(0)
 12333               	.LVL1085:
 12334 45c4 8EEF      		ldi r24,lo8(-2)
 12335 45c6 9FEF      		ldi r25,hi8(-2)
 12336 45c8 AFEF      		ldi r26,hlo8(-2)
 12337 45ca BFEF      		ldi r27,hhi8(-2)
 12338 45cc E80E      		add r14,r24
 12339 45ce F91E      		adc r15,r25
 12340 45d0 0A1F      		adc r16,r26
 12341 45d2 1B1F      		adc r17,r27
 12342               	.LVL1086:
 12343               	.LM1199:
 12344 45d4 F601      		movw r30,r12
 12345 45d6 828D      		ldd r24,Z+26
 12346 45d8 938D      		ldd r25,Z+27
 12347 45da A48D      		ldd r26,Z+28
 12348 45dc B58D      		ldd r27,Z+29
 12349 45de 0297      		sbiw r24,2
 12350 45e0 A109      		sbc r26,__zero_reg__
 12351 45e2 B109      		sbc r27,__zero_reg__
 12352 45e4 E816      		cp r14,r24
 12353 45e6 F906      		cpc r15,r25
 12354 45e8 0A07      		cpc r16,r26
 12355 45ea 1B07      		cpc r17,r27
 12356 45ec 00F0      		brlo .+2
 12357 45ee 00C0      		rjmp .L751
 12358               	.LM1200:
 12359 45f0 2281      		ldd r18,Z+2
 12360 45f2 30E0      		ldi r19,lo8(0)
 12361 45f4 40E0      		ldi r20,lo8(0)
 12362 45f6 50E0      		ldi r21,hi8(0)
 12363               	.LVL1087:
 12364 45f8 C801      		movw r24,r16
 12365 45fa B701      		movw r22,r14
 12366 45fc 0E94 0000 		call __mulsi3
 12367 4600 AB01      		movw r20,r22
 12368 4602 BC01      		movw r22,r24
 12369               	.LVL1088:
 12370 4604 F601      		movw r30,r12
 12371 4606 86A1      		ldd r24,Z+38
 12372 4608 97A1      		ldd r25,Z+39
 12373 460a A0A5      		ldd r26,Z+40
 12374 460c B1A5      		ldd r27,Z+41
 12375 460e 480F      		add r20,r24
 12376 4610 591F      		adc r21,r25
 12377 4612 6A1F      		adc r22,r26
 12378 4614 7B1F      		adc r23,r27
 12379               	.LBE909:
 12380               	.LBE908:
 12381               	.LM1201:
 12382 4616 4115      		cp r20,__zero_reg__
 12383 4618 5105      		cpc r21,__zero_reg__
 12384 461a 6105      		cpc r22,__zero_reg__
 12385 461c 7105      		cpc r23,__zero_reg__
 12386 461e 01F4      		brne .+2
 12387 4620 00C0      		rjmp .L751
 12388               	.LM1202:
 12389 4622 C601      		movw r24,r12
 12390 4624 0E94 0000 		call move_window
 12391               	.LVL1089:
 12392               	.LM1203:
 12393 4628 A8AD      		ldd r26,Y+56
 12394 462a B9AD      		ldd r27,Y+57
 12395               	.LM1204:
 12396 462c 8823      		tst r24
 12397               	.LVL1090:
 12398 462e 01F0      		breq .+2
 12399 4630 00C0      		rjmp .L741
 12400               	.LM1205:
 12401 4632 BD01      		movw r22,r26
 12402               	.LVL1091:
 12403 4634 625B      		subi r22,lo8(-(78))
 12404 4636 7F4F      		sbci r23,hi8(-(78))
 12405               	.LM1206:
 12406 4638 FB01      		movw r30,r22
 12407 463a 8181      		ldd r24,Z+1
 12408               	.LVL1092:
 12409 463c 8E32      		cpi r24,lo8(46)
 12410 463e 01F4      		brne .L750
 12411               	.LM1207:
 12412 4640 8C91      		ld r24,X
 12413 4642 8330      		cpi r24,lo8(3)
 12414 4644 01F4      		brne .L752
 12415 4646 FE01      		movw r30,r28
 12416 4648 FE96      		adiw r30,62
 12417 464a 2081      		ld r18,Z
 12418 464c 3181      		ldd r19,Z+1
 12419 464e 4281      		ldd r20,Z+2
 12420 4650 5381      		ldd r21,Z+3
 12421 4652 9296      		adiw r26,34
 12422 4654 8D91      		ld r24,X+
 12423 4656 9D91      		ld r25,X+
 12424 4658 0D90      		ld __tmp_reg__,X+
 12425 465a BC91      		ld r27,X
 12426 465c A02D      		mov r26,__tmp_reg__
 12427 465e 2817      		cp r18,r24
 12428 4660 3907      		cpc r19,r25
 12429 4662 4A07      		cpc r20,r26
 12430 4664 5B07      		cpc r21,r27
 12431 4666 01F4      		brne .L752
 12432 4668 20E0      		ldi r18,lo8(0)
 12433 466a 30E0      		ldi r19,hi8(0)
 12434 466c 40E0      		ldi r20,hlo8(0)
 12435 466e 50E0      		ldi r21,hhi8(0)
 12436               	.LVL1093:
 12437 4670 00C0      		rjmp .L753
 12438               	.LVL1094:
 12439               	.L752:
 12440 4672 FE01      		movw r30,r28
 12441 4674 FE96      		adiw r30,62
 12442 4676 2081      		ld r18,Z
 12443 4678 3181      		ldd r19,Z+1
 12444 467a 4281      		ldd r20,Z+2
 12445 467c 5381      		ldd r21,Z+3
 12446               	.LVL1095:
 12447               	.L753:
 12448               	.LM1208:
 12449 467e DB01      		movw r26,r22
 12450 4680 5A96      		adiw r26,26
 12451 4682 2C93      		st X,r18
 12452 4684 5A97      		sbiw r26,26
 12453 4686 832F      		mov r24,r19
 12454 4688 9927      		clr r25
 12455 468a 5B96      		adiw r26,27
 12456 468c 8C93      		st X,r24
 12457               	.LM1209:
 12458 468e CA01      		movw r24,r20
 12459 4690 AA27      		clr r26
 12460 4692 BB27      		clr r27
 12461 4694 FB01      		movw r30,r22
 12462 4696 848B      		std Z+20,r24
 12463 4698 892F      		mov r24,r25
 12464 469a 9927      		clr r25
 12465 469c 858B      		std Z+21,r24
 12466               	.LM1210:
 12467 469e E8AD      		ldd r30,Y+56
 12468 46a0 F9AD      		ldd r31,Y+57
 12469 46a2 81E0      		ldi r24,lo8(1)
 12470 46a4 8483      		std Z+4,r24
 12471               	.LVL1096:
 12472               	.L750:
 12473               	.LM1211:
 12474 46a6 CE01      		movw r24,r28
 12475 46a8 8296      		adiw r24,34
 12476 46aa 0E94 0000 		call dir_remove
 12477               	.LVL1097:
 12478               	.LM1212:
 12479 46ae 8823      		tst r24
 12480               	.LVL1098:
 12481 46b0 01F4      		brne .L741
 12482               	.LM1213:
 12483 46b2 8AA1      		ldd r24,Y+34
 12484 46b4 9BA1      		ldd r25,Y+35
 12485               	.LVL1099:
 12486 46b6 0E94 0000 		call sync
 12487 46ba 00C0      		rjmp .L741
 12488               	.LVL1100:
 12489               	.L751:
 12490 46bc 82E0      		ldi r24,lo8(2)
 12491               	.LVL1101:
 12492               	.L741:
 12493               	.LVL1102:
 12494               	/* epilogue start */
 12495               	.LM1214:
 12496 46be C15B      		subi r28,lo8(-(79))
 12497 46c0 DF4F      		sbci r29,hi8(-(79))
 12498 46c2 CDBF      		out __SP_L__,r28
 12499 46c4 DEBF      		out __SP_H__,r29
 12500 46c6 CF91      		pop r28
 12501 46c8 DF91      		pop r29
 12502 46ca 1F91      		pop r17
 12503 46cc 0F91      		pop r16
 12504               	.LVL1103:
 12505 46ce FF90      		pop r15
 12506 46d0 EF90      		pop r14
 12507               	.LVL1104:
 12508 46d2 DF90      		pop r13
 12509 46d4 CF90      		pop r12
 12510               	.LVL1105:
 12511 46d6 0895      		ret
 12512               	.LFE96:
 12514               	.global	f_gets
 12516               	f_gets:
 12517               	.LFB97:
 12518               	.LM1215:
 12519               	.LVL1106:
 12520 46d8 6F92      		push r6
 12521 46da 7F92      		push r7
 12522 46dc 8F92      		push r8
 12523 46de 9F92      		push r9
 12524 46e0 AF92      		push r10
 12525 46e2 BF92      		push r11
 12526 46e4 CF92      		push r12
 12527 46e6 DF92      		push r13
 12528 46e8 EF92      		push r14
 12529 46ea FF92      		push r15
 12530 46ec 0F93      		push r16
 12531 46ee 1F93      		push r17
 12532 46f0 DF93      		push r29
 12533 46f2 CF93      		push r28
 12534 46f4 0F92      		push __tmp_reg__
 12535 46f6 0F92      		push __tmp_reg__
 12536 46f8 CDB7      		in r28,__SP_L__
 12537 46fa DEB7      		in r29,__SP_H__
 12538               	/* prologue: function */
 12539               	/* frame size = 2 */
 12540 46fc 5C01      		movw r10,r24
 12541 46fe 6B01      		movw r12,r22
 12542 4700 4A01      		movw r8,r20
 12543               	.LM1216:
 12544 4702 8C01      		movw r16,r24
 12545               	.LVL1107:
 12546 4704 EE24      		clr r14
 12547 4706 FF24      		clr r15
 12548               	.LVL1108:
 12549               	.LM1217:
 12550 4708 0894      		sec
 12551 470a C108      		sbc r12,__zero_reg__
 12552 470c D108      		sbc r13,__zero_reg__
 12553               	.LM1218:
 12554 470e 3E01      		movw r6,r28
 12555 4710 0894      		sec
 12556 4712 611C      		adc r6,__zero_reg__
 12557 4714 711C      		adc r7,__zero_reg__
 12558 4716 00C0      		rjmp .L756
 12559               	.LVL1109:
 12560               	.L758:
 12561 4718 C401      		movw r24,r8
 12562 471a B801      		movw r22,r16
 12563               	.LVL1110:
 12564 471c 41E0      		ldi r20,lo8(1)
 12565 471e 50E0      		ldi r21,hi8(1)
 12566 4720 9301      		movw r18,r6
 12567 4722 0E94 0000 		call f_read
 12568               	.LM1219:
 12569 4726 8981      		ldd r24,Y+1
 12570 4728 9A81      		ldd r25,Y+2
 12571 472a 0197      		sbiw r24,1
 12572 472c 01F4      		brne .L757
 12573               	.LVL1111:
 12574               	.LM1220:
 12575 472e 0894      		sec
 12576 4730 E11C      		adc r14,__zero_reg__
 12577 4732 F11C      		adc r15,__zero_reg__
 12578               	.LM1221:
 12579 4734 F801      		movw r30,r16
 12580 4736 8191      		ld r24,Z+
 12581               	.LVL1112:
 12582 4738 8F01      		movw r16,r30
 12583 473a 8A30      		cpi r24,lo8(10)
 12584 473c 01F0      		breq .L757
 12585               	.LVL1113:
 12586               	.L756:
 12587               	.LM1222:
 12588 473e EC14      		cp r14,r12
 12589 4740 FD04      		cpc r15,r13
 12590 4742 04F0      		brlt .L758
 12591               	.LVL1114:
 12592               	.L757:
 12593               	.LM1223:
 12594 4744 F801      		movw r30,r16
 12595 4746 1082      		st Z,__zero_reg__
 12596               	.LM1224:
 12597 4748 EF28      		or r14,r15
 12598 474a 01F4      		brne .L759
 12599 474c AA24      		clr r10
 12600 474e BB24      		clr r11
 12601               	.LVL1115:
 12602               	.L759:
 12603               	.LM1225:
 12604 4750 C501      		movw r24,r10
 12605               	.LVL1116:
 12606               	/* epilogue start */
 12607 4752 0F90      		pop __tmp_reg__
 12608 4754 0F90      		pop __tmp_reg__
 12609 4756 CF91      		pop r28
 12610 4758 DF91      		pop r29
 12611 475a 1F91      		pop r17
 12612 475c 0F91      		pop r16
 12613               	.LVL1117:
 12614 475e FF90      		pop r15
 12615 4760 EF90      		pop r14
 12616               	.LVL1118:
 12617 4762 DF90      		pop r13
 12618 4764 CF90      		pop r12
 12619 4766 BF90      		pop r11
 12620 4768 AF90      		pop r10
 12621 476a 9F90      		pop r9
 12622 476c 8F90      		pop r8
 12623               	.LVL1119:
 12624 476e 7F90      		pop r7
 12625 4770 6F90      		pop r6
 12626 4772 0895      		ret
 12627               	.LFE97:
 12629               	.global	f_putc
 12631               	f_putc:
 12632               	.LFB98:
 12633               	.LM1226:
 12634               	.LVL1120:
 12635 4774 0F93      		push r16
 12636 4776 1F93      		push r17
 12637 4778 DF93      		push r29
 12638 477a CF93      		push r28
 12639 477c 00D0      		rcall .
 12640 477e CDB7      		in r28,__SP_L__
 12641 4780 DEB7      		in r29,__SP_H__
 12642               	/* prologue: function */
 12643               	/* frame size = 3 */
 12644 4782 8C01      		movw r16,r24
 12645               	.LM1227:
 12646 4784 6115      		cp r22,__zero_reg__
 12647 4786 7105      		cpc r23,__zero_reg__
 12648 4788 01F0      		breq .L762
 12649               	.LVL1121:
 12650               	.LM1228:
 12651 478a 8983      		std Y+1,r24
 12652               	.LVL1122:
 12653               	.LM1229:
 12654 478c CB01      		movw r24,r22
 12655 478e BE01      		movw r22,r28
 12656               	.LVL1123:
 12657 4790 6F5F      		subi r22,lo8(-(1))
 12658 4792 7F4F      		sbci r23,hi8(-(1))
 12659 4794 41E0      		ldi r20,lo8(1)
 12660 4796 50E0      		ldi r21,hi8(1)
 12661 4798 9E01      		movw r18,r28
 12662 479a 2E5F      		subi r18,lo8(-(2))
 12663 479c 3F4F      		sbci r19,hi8(-(2))
 12664 479e 0E94 0000 		call f_write
 12665               	.LM1230:
 12666 47a2 8A81      		ldd r24,Y+2
 12667 47a4 9B81      		ldd r25,Y+3
 12668               	.LVL1124:
 12669 47a6 892B      		or r24,r25
 12670 47a8 01F4      		brne .L762
 12671               	.LVL1125:
 12672 47aa 0FEF      		ldi r16,lo8(-1)
 12673 47ac 1FEF      		ldi r17,hi8(-1)
 12674               	.LVL1126:
 12675               	.L762:
 12676               	.LM1231:
 12677 47ae C801      		movw r24,r16
 12678               	.LVL1127:
 12679               	/* epilogue start */
 12680 47b0 2396      		adiw r28,3
 12681 47b2 CDBF      		out __SP_L__,r28
 12682 47b4 DEBF      		out __SP_H__,r29
 12683 47b6 CF91      		pop r28
 12684 47b8 DF91      		pop r29
 12685 47ba 1F91      		pop r17
 12686 47bc 0F91      		pop r16
 12687 47be 0895      		ret
 12688               	.LFE98:
 12690               	.global	f_puts
 12692               	f_puts:
 12693               	.LFB99:
 12694               	.LM1232:
 12695               	.LVL1128:
 12696 47c0 EF92      		push r14
 12697 47c2 FF92      		push r15
 12698 47c4 0F93      		push r16
 12699 47c6 1F93      		push r17
 12700 47c8 CF93      		push r28
 12701 47ca DF93      		push r29
 12702               	/* prologue: function */
 12703               	/* frame size = 0 */
 12704 47cc 8C01      		movw r16,r24
 12705 47ce 7B01      		movw r14,r22
 12706               	.LM1233:
 12707 47d0 C0E0      		ldi r28,lo8(0)
 12708 47d2 D0E0      		ldi r29,hi8(0)
 12709               	.LVL1129:
 12710 47d4 00C0      		rjmp .L765
 12711               	.LVL1130:
 12712               	.L768:
 12713               	.LM1234:
 12714 47d6 90E0      		ldi r25,lo8(0)
 12715 47d8 B701      		movw r22,r14
 12716 47da 0E94 0000 		call f_putc
 12717 47de 8F5F      		subi r24,lo8(-1)
 12718 47e0 9F4F      		sbci r25,hi8(-1)
 12719 47e2 01F4      		brne .L766
 12720 47e4 CFEF      		ldi r28,lo8(-1)
 12721 47e6 DFEF      		ldi r29,hi8(-1)
 12722 47e8 00C0      		rjmp .L767
 12723               	.L766:
 12724               	.LM1235:
 12725 47ea 0F5F      		subi r16,lo8(-(1))
 12726 47ec 1F4F      		sbci r17,hi8(-(1))
 12727 47ee 2196      		adiw r28,1
 12728               	.LVL1131:
 12729               	.L765:
 12730 47f0 F801      		movw r30,r16
 12731 47f2 8081      		ld r24,Z
 12732 47f4 8823      		tst r24
 12733 47f6 01F4      		brne .L768
 12734               	.L767:
 12735               	.LM1236:
 12736 47f8 CE01      		movw r24,r28
 12737               	.LVL1132:
 12738               	/* epilogue start */
 12739 47fa DF91      		pop r29
 12740 47fc CF91      		pop r28
 12741 47fe 1F91      		pop r17
 12742 4800 0F91      		pop r16
 12743               	.LVL1133:
 12744 4802 FF90      		pop r15
 12745 4804 EF90      		pop r14
 12746               	.LVL1134:
 12747 4806 0895      		ret
 12748               	.LFE99:
 12750               	.global	SD_Inserted
 12752               	SD_Inserted:
 12753               	.LFB104:
 12754               	.LM1237:
 12755               	/* prologue: function */
 12756               	/* frame size = 0 */
 12757               	.LM1238:
 12758 4808 8091 A806 		lds r24,1704
 12759 480c 90E0      		ldi r25,lo8(0)
 12760 480e 80FF      		sbrs r24,0
 12761 4810 91E0      		ldi r25,lo8(1)
 12762               	.L771:
 12763               	.LM1239:
 12764 4812 892F      		mov r24,r25
 12765               	/* epilogue start */
 12766 4814 0895      		ret
 12767               	.LFE104:
 12769               	.global	SD2_Inserted
 12771               	SD2_Inserted:
 12772               	.LFB105:
 12773               	.LM1240:
 12774               	/* prologue: function */
 12775               	/* frame size = 0 */
 12776               	.LM1241:
 12777 4816 E0EA      		ldi r30,lo8(1696)
 12778 4818 F6E0      		ldi r31,hi8(1696)
 12779 481a 8085      		ldd r24,Z+8
 12780 481c 8695      		lsr r24
 12781 481e 8095      		com r24
 12782               	.LM1242:
 12783 4820 8170      		andi r24,lo8(1)
 12784               	/* epilogue start */
 12785 4822 0895      		ret
 12786               	.LFE105:
 12788               	.global	SD_WriteBuffer
 12790               	SD_WriteBuffer:
 12791               	.LFB110:
 12792               	.LM1243:
 12793               	.LVL1135:
 12794 4824 6F92      		push r6
 12795 4826 7F92      		push r7
 12796 4828 8F92      		push r8
 12797 482a 9F92      		push r9
 12798 482c BF92      		push r11
 12799 482e CF92      		push r12
 12800 4830 DF92      		push r13
 12801 4832 EF92      		push r14
 12802 4834 FF92      		push r15
 12803 4836 0F93      		push r16
 12804 4838 1F93      		push r17
 12805 483a DF93      		push r29
 12806 483c CF93      		push r28
 12807 483e 0F92      		push __tmp_reg__
 12808 4840 0F92      		push __tmp_reg__
 12809 4842 CDB7      		in r28,__SP_L__
 12810 4844 DEB7      		in r29,__SP_H__
 12811               	/* prologue: function */
 12812               	/* frame size = 2 */
 12813 4846 3C01      		movw r6,r24
 12814 4848 4B01      		movw r8,r22
 12815               	.LM1244:
 12816 484a 80E0      		ldi r24,lo8(Log_File)
 12817 484c 90E0      		ldi r25,hi8(Log_File)
 12818               	.LVL1136:
 12819 484e B301      		movw r22,r6
 12820               	.LVL1137:
 12821 4850 A401      		movw r20,r8
 12822 4852 9E01      		movw r18,r28
 12823 4854 2F5F      		subi r18,lo8(-(1))
 12824 4856 3F4F      		sbci r19,hi8(-(1))
 12825 4858 0E94 0000 		call f_write
 12826 485c CC24      		clr r12
 12827 485e DD24      		clr r13
 12828               	.LVL1138:
 12829 4860 00C0      		rjmp .L776
 12830               	.LVL1139:
 12831               	.L778:
 12832               	.LBB910:
 12833               	.LM1245:
 12834 4862 2091 0000 		lds r18,CRC
 12835 4866 3091 0000 		lds r19,(CRC)+1
 12836 486a 4091 0000 		lds r20,(CRC)+2
 12837 486e 5091 0000 		lds r21,(CRC)+3
 12838 4872 F301      		movw r30,r6
 12839 4874 EC0D      		add r30,r12
 12840 4876 FD1D      		adc r31,r13
 12841 4878 8081      		ld r24,Z
 12842 487a 90E0      		ldi r25,lo8(0)
 12843 487c A0E0      		ldi r26,lo8(0)
 12844 487e B0E0      		ldi r27,hi8(0)
 12845 4880 8227      		eor r24,r18
 12846 4882 9327      		eor r25,r19
 12847 4884 A427      		eor r26,r20
 12848 4886 B527      		eor r27,r21
 12849 4888 8093 0000 		sts CRC,r24
 12850 488c 9093 0000 		sts (CRC)+1,r25
 12851 4890 A093 0000 		sts (CRC)+2,r26
 12852 4894 B093 0000 		sts (CRC)+3,r27
 12853 4898 BB24      		clr r11
 12854               	.L777:
 12855               	.LBB911:
 12856               	.LM1246:
 12857 489a E090 0000 		lds r14,CRC
 12858 489e F090 0000 		lds r15,(CRC)+1
 12859 48a2 0091 0000 		lds r16,(CRC)+2
 12860 48a6 1091 0000 		lds r17,(CRC)+3
 12861 48aa 6091 0000 		lds r22,CRC
 12862 48ae 7091 0000 		lds r23,(CRC)+1
 12863 48b2 8091 0000 		lds r24,(CRC)+2
 12864 48b6 9091 0000 		lds r25,(CRC)+3
 12865 48ba 6170      		andi r22,lo8(1)
 12866 48bc 7070      		andi r23,hi8(1)
 12867 48be 8070      		andi r24,hlo8(1)
 12868 48c0 9070      		andi r25,hhi8(1)
 12869 48c2 20E2      		ldi r18,lo8(-306674912)
 12870 48c4 33E8      		ldi r19,hi8(-306674912)
 12871 48c6 48EB      		ldi r20,hlo8(-306674912)
 12872 48c8 5DEE      		ldi r21,hhi8(-306674912)
 12873 48ca 0E94 0000 		call __mulsi3
 12874 48ce 1695      		lsr r17
 12875 48d0 0795      		ror r16
 12876 48d2 F794      		ror r15
 12877 48d4 E794      		ror r14
 12878 48d6 E626      		eor r14,r22
 12879 48d8 F726      		eor r15,r23
 12880 48da 0827      		eor r16,r24
 12881 48dc 1927      		eor r17,r25
 12882 48de E092 0000 		sts CRC,r14
 12883 48e2 F092 0000 		sts (CRC)+1,r15
 12884 48e6 0093 0000 		sts (CRC)+2,r16
 12885 48ea 1093 0000 		sts (CRC)+3,r17
 12886               	.LM1247:
 12887 48ee B394      		inc r11
 12888 48f0 88E0      		ldi r24,lo8(8)
 12889 48f2 B816      		cp r11,r24
 12890 48f4 01F4      		brne .L777
 12891               	.LBE911:
 12892               	.LM1248:
 12893 48f6 0894      		sec
 12894 48f8 C11C      		adc r12,__zero_reg__
 12895 48fa D11C      		adc r13,__zero_reg__
 12896               	.L776:
 12897 48fc C814      		cp r12,r8
 12898 48fe D904      		cpc r13,r9
 12899 4900 00F4      		brsh .+2
 12900 4902 00C0      		rjmp .L778
 12901               	/* epilogue start */
 12902               	.LBE910:
 12903               	.LM1249:
 12904 4904 0F90      		pop __tmp_reg__
 12905 4906 0F90      		pop __tmp_reg__
 12906 4908 CF91      		pop r28
 12907 490a DF91      		pop r29
 12908 490c 1F91      		pop r17
 12909 490e 0F91      		pop r16
 12910 4910 FF90      		pop r15
 12911 4912 EF90      		pop r14
 12912 4914 DF90      		pop r13
 12913 4916 CF90      		pop r12
 12914               	.LVL1140:
 12915 4918 BF90      		pop r11
 12916               	.LVL1141:
 12917 491a 9F90      		pop r9
 12918 491c 8F90      		pop r8
 12919               	.LVL1142:
 12920 491e 7F90      		pop r7
 12921 4920 6F90      		pop r6
 12922               	.LVL1143:
 12923 4922 0895      		ret
 12924               	.LFE110:
 12926               	.global	SD_Write32
 12928               	SD_Write32:
 12929               	.LFB108:
 12930               	.LM1250:
 12931               	.LVL1144:
 12932               	/* prologue: function */
 12933               	/* frame size = 0 */
 12934               	.LM1251:
 12935 4924 6093 0000 		sts tmp32,r22
 12936               	.LM1252:
 12937 4928 272F      		mov r18,r23
 12938 492a 382F      		mov r19,r24
 12939 492c 492F      		mov r20,r25
 12940 492e 5527      		clr r21
 12941 4930 2093 0000 		sts tmp32+1,r18
 12942               	.LM1253:
 12943 4934 9C01      		movw r18,r24
 12944 4936 4427      		clr r20
 12945 4938 5527      		clr r21
 12946 493a 2093 0000 		sts tmp32+2,r18
 12947               	.LM1254:
 12948 493e 692F      		mov r22,r25
 12949 4940 7727      		clr r23
 12950 4942 8827      		clr r24
 12951 4944 9927      		clr r25
 12952               	.LVL1145:
 12953 4946 6093 0000 		sts tmp32+3,r22
 12954               	.LM1255:
 12955 494a 80E0      		ldi r24,lo8(tmp32)
 12956 494c 90E0      		ldi r25,hi8(tmp32)
 12957 494e 64E0      		ldi r22,lo8(4)
 12958 4950 70E0      		ldi r23,hi8(4)
 12959 4952 0E94 0000 		call SD_WriteBuffer
 12960               	/* epilogue start */
 12961               	.LM1256:
 12962 4956 0895      		ret
 12963               	.LFE108:
 12965               	.global	SD_Write16
 12967               	SD_Write16:
 12968               	.LFB107:
 12969               	.LM1257:
 12970               	.LVL1146:
 12971               	/* prologue: function */
 12972               	/* frame size = 0 */
 12973               	.LM1258:
 12974 4958 8093 0000 		sts tmp16,r24
 12975               	.LM1259:
 12976 495c 9093 0000 		sts tmp16+1,r25
 12977               	.LVL1147:
 12978               	.LM1260:
 12979 4960 80E0      		ldi r24,lo8(tmp16)
 12980 4962 90E0      		ldi r25,hi8(tmp16)
 12981               	.LVL1148:
 12982 4964 62E0      		ldi r22,lo8(2)
 12983 4966 70E0      		ldi r23,hi8(2)
 12984 4968 0E94 0000 		call SD_WriteBuffer
 12985               	.LVL1149:
 12986               	/* epilogue start */
 12987               	.LM1261:
 12988 496c 0895      		ret
 12989               	.LFE107:
 12991               	.global	SD_Write8
 12993               	SD_Write8:
 12994               	.LFB106:
 12995               	.LM1262:
 12996               	.LVL1150:
 12997               	/* prologue: function */
 12998               	/* frame size = 0 */
 12999               	.LM1263:
 13000 496e 8093 0000 		sts tmp8,r24
 13001               	.LM1264:
 13002 4972 80E0      		ldi r24,lo8(tmp8)
 13003 4974 90E0      		ldi r25,hi8(tmp8)
 13004               	.LVL1151:
 13005 4976 61E0      		ldi r22,lo8(1)
 13006 4978 70E0      		ldi r23,hi8(1)
 13007 497a 0E94 0000 		call SD_WriteBuffer
 13008               	/* epilogue start */
 13009               	.LM1265:
 13010 497e 0895      		ret
 13011               	.LFE106:
 13013               	.global	SD_ClearCRC
 13015               	SD_ClearCRC:
 13016               	.LFB111:
 13017               	.LM1266:
 13018               	/* prologue: function */
 13019               	/* frame size = 0 */
 13020               	.LM1267:
 13021 4980 8FEF      		ldi r24,lo8(-1)
 13022 4982 9FEF      		ldi r25,hi8(-1)
 13023 4984 AFEF      		ldi r26,hlo8(-1)
 13024 4986 BFEF      		ldi r27,hhi8(-1)
 13025 4988 8093 0000 		sts CRC,r24
 13026 498c 9093 0000 		sts (CRC)+1,r25
 13027 4990 A093 0000 		sts (CRC)+2,r26
 13028 4994 B093 0000 		sts (CRC)+3,r27
 13029               	/* epilogue start */
 13030               	.LM1268:
 13031 4998 0895      		ret
 13032               	.LFE111:
 13034               	.global	SD_WriteCRC
 13036               	SD_WriteCRC:
 13037               	.LFB112:
 13038               	.LM1269:
 13039               	/* prologue: function */
 13040               	/* frame size = 0 */
 13041               	.LM1270:
 13042 499a 6091 0000 		lds r22,CRC
 13043 499e 7091 0000 		lds r23,(CRC)+1
 13044 49a2 8091 0000 		lds r24,(CRC)+2
 13045 49a6 9091 0000 		lds r25,(CRC)+3
 13046 49aa 6095      		com r22
 13047 49ac 7095      		com r23
 13048 49ae 8095      		com r24
 13049 49b0 9095      		com r25
 13050 49b2 0E94 0000 		call SD_Write32
 13051               	/* epilogue start */
 13052               	.LM1271:
 13053 49b6 0895      		ret
 13054               	.LFE112:
 13056               	.global	SD_Timer_Init
 13058               	SD_Timer_Init:
 13059               	.LFB115:
 13060               	.LM1272:
 13061               	/* prologue: function */
 13062               	/* frame size = 0 */
 13063               	.LM1273:
 13064 49b8 E0E0      		ldi r30,lo8(2560)
 13065 49ba FAE0      		ldi r31,hi8(2560)
 13066 49bc 80E4      		ldi r24,lo8(576)
 13067 49be 92E0      		ldi r25,hi8(576)
 13068 49c0 86A3      		std Z+38,r24
 13069 49c2 97A3      		std Z+39,r25
 13070               	.LM1274:
 13071 49c4 8081      		ld r24,Z
 13072 49c6 807F      		andi r24,lo8(-16)
 13073 49c8 8660      		ori r24,lo8(6)
 13074 49ca 8083      		st Z,r24
 13075               	.LM1275:
 13076 49cc 8681      		ldd r24,Z+6
 13077 49ce 8C7F      		andi r24,lo8(-4)
 13078 49d0 8260      		ori r24,lo8(2)
 13079 49d2 8683      		std Z+6,r24
 13080               	/* epilogue start */
 13081               	.LM1276:
 13082 49d4 0895      		ret
 13083               	.LFE115:
 13085               	.global	SD_Init
 13087               	SD_Init:
 13088               	.LFB101:
 13089               	.LM1277:
 13090               	/* prologue: function */
 13091               	/* frame size = 0 */
 13092               	.LM1278:
 13093 49d6 E0EA      		ldi r30,lo8(1696)
 13094 49d8 F6E0      		ldi r31,hi8(1696)
 13095 49da 88E1      		ldi r24,lo8(24)
 13096 49dc 808B      		std Z+16,r24
 13097               	.LM1279:
 13098 49de 818B      		std Z+17,r24
 13099               	.LM1280:
 13100 49e0 0E94 0000 		call SD_Timer_Init
 13101               	.LM1281:
 13102 49e4 80E0      		ldi r24,lo8(0)
 13103 49e6 0E94 0000 		call disk_initialize
 13104               	.LM1282:
 13105 49ea 80E0      		ldi r24,lo8(0)
 13106 49ec 60E0      		ldi r22,lo8(file_system_object)
 13107 49ee 70E0      		ldi r23,hi8(file_system_object)
 13108 49f0 0E94 0000 		call f_mount
 13109               	/* epilogue start */
 13110               	.LM1283:
 13111 49f4 0895      		ret
 13112               	.LFE101:
 13114               	.global	__vector_47
 13116               	__vector_47:
 13117               	.LFB116:
 13118               	.LM1284:
 13119 49f6 1F92      		push __zero_reg__
 13120 49f8 0F92      		push r0
 13121 49fa 0FB6      		in r0,__SREG__
 13122 49fc 0F92      		push r0
 13123 49fe 0BB6      		in r0,59-0
 13124 4a00 0F92      		push r0
 13125 4a02 1124      		clr __zero_reg__
 13126 4a04 2F93      		push r18
 13127 4a06 3F93      		push r19
 13128 4a08 4F93      		push r20
 13129 4a0a 5F93      		push r21
 13130 4a0c 6F93      		push r22
 13131 4a0e 7F93      		push r23
 13132 4a10 8F93      		push r24
 13133 4a12 9F93      		push r25
 13134 4a14 AF93      		push r26
 13135 4a16 BF93      		push r27
 13136 4a18 EF93      		push r30
 13137 4a1a FF93      		push r31
 13138               	/* prologue: Signal */
 13139               	/* frame size = 0 */
 13140               	.LM1285:
 13141 4a1c 0E94 0000 		call disk_timerproc
 13142               	.LM1286:
 13143 4a20 8091 0000 		lds r24,okToCharge
 13144 4a24 8823      		tst r24
 13145 4a26 01F0      		breq .L797
 13146               	.LM1287:
 13147 4a28 8091 0000 		lds r24,chargeCounter
 13148 4a2c 9091 0000 		lds r25,(chargeCounter)+1
 13149 4a30 0196      		adiw r24,1
 13150 4a32 8093 0000 		sts chargeCounter,r24
 13151 4a36 9093 0000 		sts (chargeCounter)+1,r25
 13152               	.LM1288:
 13153 4a3a 8854      		subi r24,lo8(16200)
 13154 4a3c 9F43      		sbci r25,hi8(16200)
 13155 4a3e 00F0      		brlo .L797
 13156               	.LM1289:
 13157 4a40 1092 0000 		sts chargeCounter,__zero_reg__
 13158 4a44 1092 0000 		sts (chargeCounter)+1,__zero_reg__
 13159               	.LM1290:
 13160 4a48 8091 0000 		lds r24,chargePercent
 13161 4a4c 8F5F      		subi r24,lo8(-(1))
 13162 4a4e 8093 0000 		sts chargePercent,r24
 13163               	.L797:
 13164               	/* epilogue start */
 13165               	.LM1291:
 13166 4a52 FF91      		pop r31
 13167 4a54 EF91      		pop r30
 13168 4a56 BF91      		pop r27
 13169 4a58 AF91      		pop r26
 13170 4a5a 9F91      		pop r25
 13171 4a5c 8F91      		pop r24
 13172 4a5e 7F91      		pop r23
 13173 4a60 6F91      		pop r22
 13174 4a62 5F91      		pop r21
 13175 4a64 4F91      		pop r20
 13176 4a66 3F91      		pop r19
 13177 4a68 2F91      		pop r18
 13178 4a6a 0F90      		pop r0
 13179 4a6c 0BBE      		out 59-0,r0
 13180 4a6e 0F90      		pop r0
 13181 4a70 0FBE      		out __SREG__,r0
 13182 4a72 0F90      		pop r0
 13183 4a74 1F90      		pop __zero_reg__
 13184 4a76 1895      		reti
 13185               	.LFE116:
 13187               	.global	CCPWrite
 13189               	CCPWrite:
 13190               	.LFB117:
 13191               	.LM1292:
 13192               	.LVL1152:
 13193 4a78 0F93      		push r16
 13194 4a7a DF93      		push r29
 13195 4a7c CF93      		push r28
 13196 4a7e 0F92      		push __tmp_reg__
 13197 4a80 CDB7      		in r28,__SP_L__
 13198 4a82 DEB7      		in r29,__SP_H__
 13199               	/* prologue: function */
 13200               	/* frame size = 1 */
 13201               	.LM1293:
 13202 4a84 2FB7      		in r18,__SREG__
 13203               	.LVL1153:
 13204 4a86 2983      		std Y+1,r18
 13205               	.LM1294:
 13206               	/* #APP */
 13207               	 ;  240 "sd.c" 1
 13208 4a88 F894      		cli
 13209               	 ;  0 "" 2
 13210               	.LM1295:
 13211               	/* #NOAPP */
 13212 4a8a 1BBE      		out 59-0,__zero_reg__
 13213               	.LM1296:
 13214               	/* #APP */
 13215               	 ;  262 "sd.c" 1
 13216 4a8c FC01      		movw r30,  r24
 13217 4a8e 08ED      		ldi  r16,  216
 13218 4a90 04BF      		out   52, r16
 13219 4a92 6083      		st     Z,  r22
 13220               		
 13221               	 ;  0 "" 2
 13222               	.LM1297:
 13223               	/* #NOAPP */
 13224 4a94 8981      		ldd r24,Y+1
 13225               	.LVL1154:
 13226 4a96 8FBF      		out __SREG__,r24
 13227               	/* epilogue start */
 13228               	.LM1298:
 13229 4a98 0F90      		pop __tmp_reg__
 13230 4a9a CF91      		pop r28
 13231 4a9c DF91      		pop r29
 13232 4a9e 0F91      		pop r16
 13233 4aa0 0895      		ret
 13234               	.LFE117:
 13236               	.global	display_sendCommand
 13238               	display_sendCommand:
 13239               	.LFB119:
 13240               	.LM1299:
 13241               	.LVL1155:
 13242               	/* prologue: function */
 13243               	/* frame size = 0 */
 13244               	.LM1300:
 13245 4aa2 94E0      		ldi r25,lo8(4)
 13246 4aa4 E0E2      		ldi r30,lo8(1568)
 13247 4aa6 F6E0      		ldi r31,hi8(1568)
 13248 4aa8 9683      		std Z+6,r25
 13249               	.LM1301:
 13250 4aaa E0EC      		ldi r30,lo8(2240)
 13251 4aac F8E0      		ldi r31,hi8(2240)
 13252 4aae 8383      		std Z+3,r24
 13253               	.L801:
 13254               	.LM1302:
 13255 4ab0 8091 C208 		lds r24,2242
 13256               	.LVL1156:
 13257 4ab4 87FF      		sbrs r24,7
 13258 4ab6 00C0      		rjmp .L801
 13259               	/* epilogue start */
 13260               	.LM1303:
 13261 4ab8 0895      		ret
 13262               	.LFE119:
 13264               	.global	display_sendData
 13266               	display_sendData:
 13267               	.LFB120:
 13268               	.LM1304:
 13269               	.LVL1157:
 13270               	/* prologue: function */
 13271               	/* frame size = 0 */
 13272               	.LM1305:
 13273 4aba 94E0      		ldi r25,lo8(4)
 13274 4abc E0E2      		ldi r30,lo8(1568)
 13275 4abe F6E0      		ldi r31,hi8(1568)
 13276 4ac0 9583      		std Z+5,r25
 13277               	.LM1306:
 13278 4ac2 E0EC      		ldi r30,lo8(2240)
 13279 4ac4 F8E0      		ldi r31,hi8(2240)
 13280 4ac6 8383      		std Z+3,r24
 13281               	.L805:
 13282               	.LM1307:
 13283 4ac8 8091 C208 		lds r24,2242
 13284               	.LVL1158:
 13285 4acc 87FF      		sbrs r24,7
 13286 4ace 00C0      		rjmp .L805
 13287               	/* epilogue start */
 13288               	.LM1308:
 13289 4ad0 0895      		ret
 13290               	.LFE120:
 13292               	.global	display_setCursor
 13294               	display_setCursor:
 13295               	.LFB121:
 13296               	.LM1309:
 13297               	.LVL1159:
 13298               	/* prologue: function */
 13299               	/* frame size = 0 */
 13300               	.LM1310:
 13301 4ad2 806B      		ori r24,lo8(-80)
 13302               	.LVL1160:
 13303               	.LBB912:
 13304               	.LBB913:
 13305               	.LM1311:
 13306 4ad4 94E0      		ldi r25,lo8(4)
 13307 4ad6 E0E2      		ldi r30,lo8(1568)
 13308 4ad8 F6E0      		ldi r31,hi8(1568)
 13309 4ada 9683      		std Z+6,r25
 13310               	.LM1312:
 13311 4adc E0EC      		ldi r30,lo8(2240)
 13312 4ade F8E0      		ldi r31,hi8(2240)
 13313 4ae0 8383      		std Z+3,r24
 13314               	.L809:
 13315               	.LM1313:
 13316 4ae2 8091 C208 		lds r24,2242
 13317 4ae6 87FF      		sbrs r24,7
 13318 4ae8 00C0      		rjmp .L809
 13319               	.LBE913:
 13320               	.LBE912:
 13321               	.LM1314:
 13322 4aea 962F      		mov r25,r22
 13323 4aec 9F70      		andi r25,lo8(15)
 13324               	.LBB914:
 13325               	.LBB915:
 13326               	.LM1315:
 13327 4aee 84E0      		ldi r24,lo8(4)
 13328 4af0 E0E2      		ldi r30,lo8(1568)
 13329 4af2 F6E0      		ldi r31,hi8(1568)
 13330 4af4 8683      		std Z+6,r24
 13331               	.LM1316:
 13332 4af6 E0EC      		ldi r30,lo8(2240)
 13333 4af8 F8E0      		ldi r31,hi8(2240)
 13334 4afa 9383      		std Z+3,r25
 13335               	.L810:
 13336               	.LM1317:
 13337 4afc 8091 C208 		lds r24,2242
 13338 4b00 87FF      		sbrs r24,7
 13339 4b02 00C0      		rjmp .L810
 13340               	.LBE915:
 13341               	.LBE914:
 13342               	.LM1318:
 13343 4b04 6295      		swap r22
 13344               	.LVL1161:
 13345 4b06 6F70      		andi r22,lo8(15)
 13346 4b08 6061      		ori r22,lo8(16)
 13347               	.LBB916:
 13348               	.LBB917:
 13349               	.LM1319:
 13350 4b0a 84E0      		ldi r24,lo8(4)
 13351 4b0c E0E2      		ldi r30,lo8(1568)
 13352 4b0e F6E0      		ldi r31,hi8(1568)
 13353 4b10 8683      		std Z+6,r24
 13354               	.LM1320:
 13355 4b12 E0EC      		ldi r30,lo8(2240)
 13356 4b14 F8E0      		ldi r31,hi8(2240)
 13357 4b16 6383      		std Z+3,r22
 13358               	.L811:
 13359               	.LM1321:
 13360 4b18 8091 C208 		lds r24,2242
 13361 4b1c 87FF      		sbrs r24,7
 13362 4b1e 00C0      		rjmp .L811
 13363               	/* epilogue start */
 13364               	.LBE917:
 13365               	.LBE916:
 13366               	.LM1322:
 13367 4b20 0895      		ret
 13368               	.LFE121:
 13370               	.global	display_writeBufferToScreen
 13372               	display_writeBufferToScreen:
 13373               	.LFB122:
 13374               	.LM1323:
 13375 4b22 BF92      		push r11
 13376 4b24 CF92      		push r12
 13377 4b26 DF92      		push r13
 13378 4b28 EF92      		push r14
 13379 4b2a FF92      		push r15
 13380 4b2c 0F93      		push r16
 13381 4b2e 1F93      		push r17
 13382 4b30 CF93      		push r28
 13383 4b32 DF93      		push r29
 13384               	/* prologue: function */
 13385               	/* frame size = 0 */
 13386               	.LM1324:
 13387 4b34 C0E0      		ldi r28,lo8(0)
 13388 4b36 D0E0      		ldi r29,hi8(0)
 13389               	.LM1325:
 13390 4b38 76E6      		ldi r23,lo8(102)
 13391 4b3a C72E      		mov r12,r23
 13392 4b3c D12C      		mov r13,__zero_reg__
 13393               	.LBB918:
 13394               	.LBB919:
 13395               	.LM1326:
 13396 4b3e 60E2      		ldi r22,lo8(1568)
 13397 4b40 E62E      		mov r14,r22
 13398 4b42 66E0      		ldi r22,hi8(1568)
 13399 4b44 F62E      		mov r15,r22
 13400 4b46 54E0      		ldi r21,lo8(4)
 13401 4b48 B52E      		mov r11,r21
 13402               	.LM1327:
 13403 4b4a 00EC      		ldi r16,lo8(2240)
 13404 4b4c 18E0      		ldi r17,hi8(2240)
 13405               	.L819:
 13406               	.LBE919:
 13407               	.LBE918:
 13408               	.LM1328:
 13409 4b4e 8C2F      		mov r24,r28
 13410 4b50 60E0      		ldi r22,lo8(0)
 13411 4b52 0E94 0000 		call display_setCursor
 13412 4b56 20E0      		ldi r18,lo8(0)
 13413 4b58 30E0      		ldi r19,hi8(0)
 13414               	.LM1329:
 13415 4b5a CC9D      		mul r28,r12
 13416 4b5c A001      		movw r20,r0
 13417 4b5e CD9D      		mul r28,r13
 13418 4b60 500D      		add r21,r0
 13419 4b62 DC9D      		mul r29,r12
 13420 4b64 500D      		add r21,r0
 13421 4b66 1124      		clr r1
 13422               	.L818:
 13423 4b68 FA01      		movw r30,r20
 13424 4b6a E20F      		add r30,r18
 13425 4b6c F31F      		adc r31,r19
 13426 4b6e E050      		subi r30,lo8(-(displayBuffer))
 13427 4b70 F040      		sbci r31,hi8(-(displayBuffer))
 13428 4b72 8081      		ld r24,Z
 13429               	.LBB921:
 13430               	.LBB920:
 13431               	.LM1330:
 13432 4b74 F701      		movw r30,r14
 13433 4b76 B582      		std Z+5,r11
 13434               	.LM1331:
 13435 4b78 F801      		movw r30,r16
 13436 4b7a 8383      		std Z+3,r24
 13437               	.L817:
 13438               	.LM1332:
 13439 4b7c 8091 C208 		lds r24,2242
 13440 4b80 87FF      		sbrs r24,7
 13441 4b82 00C0      		rjmp .L817
 13442 4b84 2F5F      		subi r18,lo8(-(1))
 13443 4b86 3F4F      		sbci r19,hi8(-(1))
 13444               	.LBE920:
 13445               	.LBE921:
 13446               	.LM1333:
 13447 4b88 2636      		cpi r18,102
 13448 4b8a 3105      		cpc r19,__zero_reg__
 13449 4b8c 01F4      		brne .L818
 13450 4b8e 2196      		adiw r28,1
 13451               	.LM1334:
 13452 4b90 C830      		cpi r28,8
 13453 4b92 D105      		cpc r29,__zero_reg__
 13454 4b94 01F4      		brne .L819
 13455               	/* epilogue start */
 13456               	.LM1335:
 13457 4b96 DF91      		pop r29
 13458 4b98 CF91      		pop r28
 13459 4b9a 1F91      		pop r17
 13460 4b9c 0F91      		pop r16
 13461 4b9e FF90      		pop r15
 13462 4ba0 EF90      		pop r14
 13463 4ba2 DF90      		pop r13
 13464 4ba4 CF90      		pop r12
 13465 4ba6 BF90      		pop r11
 13466 4ba8 0895      		ret
 13467               	.LFE122:
 13469               	.global	display_clearPage
 13471               	display_clearPage:
 13472               	.LFB123:
 13473               	.LM1336:
 13474               	.LVL1162:
 13475               	/* prologue: function */
 13476               	/* frame size = 0 */
 13477               	.LM1337:
 13478 4baa 40E0      		ldi r20,lo8(0)
 13479 4bac 50E0      		ldi r21,hi8(0)
 13480               	.LM1338:
 13481 4bae 90E0      		ldi r25,lo8(0)
 13482 4bb0 26E6      		ldi r18,lo8(102)
 13483 4bb2 30E0      		ldi r19,hi8(102)
 13484 4bb4 829F      		mul r24,r18
 13485 4bb6 B001      		movw r22,r0
 13486 4bb8 839F      		mul r24,r19
 13487 4bba 700D      		add r23,r0
 13488 4bbc 929F      		mul r25,r18
 13489 4bbe 700D      		add r23,r0
 13490 4bc0 1124      		clr r1
 13491               	.LVL1163:
 13492 4bc2 8AE0      		ldi r24,lo8(10)
 13493               	.L825:
 13494 4bc4 FB01      		movw r30,r22
 13495 4bc6 E40F      		add r30,r20
 13496 4bc8 F51F      		adc r31,r21
 13497 4bca E050      		subi r30,lo8(-(displayBuffer))
 13498 4bcc F040      		sbci r31,hi8(-(displayBuffer))
 13499 4bce 8083      		st Z,r24
 13500 4bd0 4F5F      		subi r20,lo8(-(1))
 13501 4bd2 5F4F      		sbci r21,hi8(-(1))
 13502 4bd4 4636      		cpi r20,102
 13503 4bd6 5105      		cpc r21,__zero_reg__
 13504 4bd8 01F4      		brne .L825
 13505               	/* epilogue start */
 13506               	.LM1339:
 13507 4bda 0895      		ret
 13508               	.LFE123:
 13510               	.global	display_clearBuffer
 13512               	display_clearBuffer:
 13513               	.LFB124:
 13514               	.LM1340:
 13515               	/* prologue: function */
 13516               	/* frame size = 0 */
 13517               	.LM1341:
 13518 4bdc 20E0      		ldi r18,lo8(0)
 13519 4bde 30E0      		ldi r19,hi8(0)
 13520               	.LM1342:
 13521 4be0 66E6      		ldi r22,lo8(102)
 13522 4be2 70E0      		ldi r23,hi8(102)
 13523 4be4 00C0      		rjmp .L829
 13524               	.L830:
 13525 4be6 FA01      		movw r30,r20
 13526 4be8 E80F      		add r30,r24
 13527 4bea F91F      		adc r31,r25
 13528 4bec E050      		subi r30,lo8(-(displayBuffer))
 13529 4bee F040      		sbci r31,hi8(-(displayBuffer))
 13530 4bf0 1082      		st Z,__zero_reg__
 13531 4bf2 0196      		adiw r24,1
 13532               	.LM1343:
 13533 4bf4 8636      		cpi r24,102
 13534 4bf6 9105      		cpc r25,__zero_reg__
 13535 4bf8 01F4      		brne .L830
 13536 4bfa 2F5F      		subi r18,lo8(-(1))
 13537 4bfc 3F4F      		sbci r19,hi8(-(1))
 13538               	.LM1344:
 13539 4bfe 2830      		cpi r18,8
 13540 4c00 3105      		cpc r19,__zero_reg__
 13541 4c02 01F0      		breq .L832
 13542               	.L829:
 13543 4c04 80E0      		ldi r24,lo8(0)
 13544 4c06 90E0      		ldi r25,hi8(0)
 13545               	.LM1345:
 13546 4c08 269F      		mul r18,r22
 13547 4c0a A001      		movw r20,r0
 13548 4c0c 279F      		mul r18,r23
 13549 4c0e 500D      		add r21,r0
 13550 4c10 369F      		mul r19,r22
 13551 4c12 500D      		add r21,r0
 13552 4c14 1124      		clr r1
 13553 4c16 00C0      		rjmp .L830
 13554               	.L832:
 13555 4c18 0895      		ret
 13556               	.LFE124:
 13558               	.global	display_init
 13560               	display_init:
 13561               	.LFB118:
 13562               	.LM1346:
 13563 4c1a CF93      		push r28
 13564 4c1c DF93      		push r29
 13565               	/* prologue: function */
 13566               	/* frame size = 0 */
 13567               	.LM1347:
 13568 4c1e A0E4      		ldi r26,lo8(1600)
 13569 4c20 B6E0      		ldi r27,hi8(1600)
 13570 4c22 88E3      		ldi r24,lo8(56)
 13571 4c24 5496      		adiw r26,20
 13572 4c26 8C93      		st X,r24
 13573 4c28 5497      		sbiw r26,20
 13574               	.LM1348:
 13575 4c2a 40E2      		ldi r20,lo8(1568)
 13576 4c2c 56E0      		ldi r21,hi8(1568)
 13577 4c2e FA01      		movw r30,r20
 13578 4c30 838B      		std Z+19,r24
 13579               	.LM1349:
 13580 4c32 30E1      		ldi r19,lo8(16)
 13581 4c34 1596      		adiw r26,5
 13582 4c36 3C93      		st X,r19
 13583 4c38 1597      		sbiw r26,5
 13584               	.LM1350:
 13585 4c3a E0E6      		ldi r30,lo8(1632)
 13586 4c3c F6E0      		ldi r31,hi8(1632)
 13587 4c3e 21E0      		ldi r18,lo8(1)
 13588 4c40 2183      		std Z+1,r18
 13589               	.LM1351:
 13590 4c42 2583      		std Z+5,r18
 13591               	.LBB922:
 13592               	.LBB923:
 13593               	.LBB924:
 13594               	.LBB925:
 13595               	.LM1352:
 13596 4c44 80E0      		ldi r24,lo8(-28672)
 13597 4c46 90E9      		ldi r25,hi8(-28672)
 13598 4c48 EC01      		movw r28,r24
 13599               	.LVL1164:
 13600               	/* #APP */
 13601               	 ;  105 "/usr/local/CrossPack-AVR-20100115/lib/gcc/avr/4.3.3/../../../../avr/include/util/delay_bas
 13602 4c4a 2197      		1: sbiw r28,1
 13603 4c4c 01F4      		brne 1b
 13604               	 ;  0 "" 2
 13605               	/* #NOAPP */
 13606               	.LBE925:
 13607               	.LBE924:
 13608               	.LBE923:
 13609               	.LBE922:
 13610               	.LM1353:
 13611 4c4e 2683      		std Z+6,r18
 13612               	.LBB926:
 13613               	.LBB927:
 13614               	.LBB928:
 13615               	.LBB929:
 13616               	.LM1354:
 13617 4c50 EC01      		movw r28,r24
 13618               	.LVL1165:
 13619               	/* #APP */
 13620               	 ;  105 "/usr/local/CrossPack-AVR-20100115/lib/gcc/avr/4.3.3/../../../../avr/include/util/delay_bas
 13621 4c52 2197      		1: sbiw r28,1
 13622 4c54 01F4      		brne 1b
 13623               	 ;  0 "" 2
 13624               	/* #NOAPP */
 13625               	.LBE929:
 13626               	.LBE928:
 13627               	.LBE927:
 13628               	.LBE926:
 13629               	.LM1355:
 13630 4c56 2583      		std Z+5,r18
 13631               	.LBB930:
 13632               	.LBB931:
 13633               	.LBB932:
 13634               	.LBB933:
 13635               	.LM1356:
 13636               	/* #APP */
 13637               	 ;  105 "/usr/local/CrossPack-AVR-20100115/lib/gcc/avr/4.3.3/../../../../avr/include/util/delay_bas
 13638 4c58 0197      		1: sbiw r24,1
 13639 4c5a 01F4      		brne 1b
 13640               	 ;  0 "" 2
 13641               	.LVL1166:
 13642               	/* #NOAPP */
 13643               	.LBE933:
 13644               	.LBE932:
 13645               	.LBE931:
 13646               	.LBE930:
 13647               	.LM1357:
 13648 4c5c 8DED      		ldi r24,lo8(-35)
 13649               	.LVL1167:
 13650 4c5e 8093 C008 		sts 2240,r24
 13651               	.LM1358:
 13652 4c62 80EB      		ldi r24,lo8(-80)
 13653 4c64 1196      		adiw r26,1
 13654 4c66 8C93      		st X,r24
 13655 4c68 1197      		sbiw r26,1
 13656               	.LM1359:
 13657 4c6a 84E0      		ldi r24,lo8(4)
 13658 4c6c FA01      		movw r30,r20
 13659 4c6e 8183      		std Z+1,r24
 13660               	.LM1360:
 13661 4c70 1696      		adiw r26,6
 13662 4c72 3C93      		st X,r19
 13663               	.LBB934:
 13664               	.LBB935:
 13665               	.LM1361:
 13666 4c74 8683      		std Z+6,r24
 13667               	.LM1362:
 13668 4c76 80E4      		ldi r24,lo8(64)
 13669 4c78 E0EC      		ldi r30,lo8(2240)
 13670 4c7a F8E0      		ldi r31,hi8(2240)
 13671 4c7c 8383      		std Z+3,r24
 13672               	.L835:
 13673               	.LM1363:
 13674 4c7e 8091 C208 		lds r24,2242
 13675 4c82 87FF      		sbrs r24,7
 13676 4c84 00C0      		rjmp .L835
 13677               	.LBE935:
 13678               	.LBE934:
 13679               	.LBB936:
 13680               	.LBB937:
 13681               	.LM1364:
 13682 4c86 84E0      		ldi r24,lo8(4)
 13683 4c88 E0E2      		ldi r30,lo8(1568)
 13684 4c8a F6E0      		ldi r31,hi8(1568)
 13685 4c8c 8683      		std Z+6,r24
 13686               	.LM1365:
 13687 4c8e 81EA      		ldi r24,lo8(-95)
 13688 4c90 E0EC      		ldi r30,lo8(2240)
 13689 4c92 F8E0      		ldi r31,hi8(2240)
 13690 4c94 8383      		std Z+3,r24
 13691               	.L836:
 13692               	.LM1366:
 13693 4c96 8091 C208 		lds r24,2242
 13694 4c9a 87FF      		sbrs r24,7
 13695 4c9c 00C0      		rjmp .L836
 13696               	.LBE937:
 13697               	.LBE936:
 13698               	.LBB938:
 13699               	.LBB939:
 13700               	.LM1367:
 13701 4c9e 84E0      		ldi r24,lo8(4)
 13702 4ca0 E0E2      		ldi r30,lo8(1568)
 13703 4ca2 F6E0      		ldi r31,hi8(1568)
 13704 4ca4 8683      		std Z+6,r24
 13705               	.LM1368:
 13706 4ca6 80EC      		ldi r24,lo8(-64)
 13707 4ca8 E0EC      		ldi r30,lo8(2240)
 13708 4caa F8E0      		ldi r31,hi8(2240)
 13709 4cac 8383      		std Z+3,r24
 13710               	.L837:
 13711               	.LM1369:
 13712 4cae 8091 C208 		lds r24,2242
 13713 4cb2 87FF      		sbrs r24,7
 13714 4cb4 00C0      		rjmp .L837
 13715               	.LBE939:
 13716               	.LBE938:
 13717               	.LBB940:
 13718               	.LBB941:
 13719               	.LM1370:
 13720 4cb6 84E0      		ldi r24,lo8(4)
 13721 4cb8 E0E2      		ldi r30,lo8(1568)
 13722 4cba F6E0      		ldi r31,hi8(1568)
 13723 4cbc 8683      		std Z+6,r24
 13724               	.LM1371:
 13725 4cbe 84EA      		ldi r24,lo8(-92)
 13726 4cc0 E0EC      		ldi r30,lo8(2240)
 13727 4cc2 F8E0      		ldi r31,hi8(2240)
 13728 4cc4 8383      		std Z+3,r24
 13729               	.L838:
 13730               	.LM1372:
 13731 4cc6 8091 C208 		lds r24,2242
 13732 4cca 87FF      		sbrs r24,7
 13733 4ccc 00C0      		rjmp .L838
 13734               	.LBE941:
 13735               	.LBE940:
 13736               	.LBB942:
 13737               	.LBB943:
 13738               	.LM1373:
 13739 4cce 84E0      		ldi r24,lo8(4)
 13740 4cd0 E0E2      		ldi r30,lo8(1568)
 13741 4cd2 F6E0      		ldi r31,hi8(1568)
 13742 4cd4 8683      		std Z+6,r24
 13743               	.LM1374:
 13744 4cd6 86EA      		ldi r24,lo8(-90)
 13745 4cd8 E0EC      		ldi r30,lo8(2240)
 13746 4cda F8E0      		ldi r31,hi8(2240)
 13747 4cdc 8383      		std Z+3,r24
 13748               	.L839:
 13749               	.LM1375:
 13750 4cde 8091 C208 		lds r24,2242
 13751 4ce2 87FF      		sbrs r24,7
 13752 4ce4 00C0      		rjmp .L839
 13753               	.LBE943:
 13754               	.LBE942:
 13755               	.LBB944:
 13756               	.LBB945:
 13757               	.LM1376:
 13758 4ce6 84E0      		ldi r24,lo8(4)
 13759 4ce8 E0E2      		ldi r30,lo8(1568)
 13760 4cea F6E0      		ldi r31,hi8(1568)
 13761 4cec 8683      		std Z+6,r24
 13762               	.LM1377:
 13763 4cee 8FE2      		ldi r24,lo8(47)
 13764 4cf0 E0EC      		ldi r30,lo8(2240)
 13765 4cf2 F8E0      		ldi r31,hi8(2240)
 13766 4cf4 8383      		std Z+3,r24
 13767               	.L840:
 13768               	.LM1378:
 13769 4cf6 8091 C208 		lds r24,2242
 13770 4cfa 87FF      		sbrs r24,7
 13771 4cfc 00C0      		rjmp .L840
 13772               	.LBE945:
 13773               	.LBE944:
 13774               	.LBB946:
 13775               	.LBB947:
 13776               	.LM1379:
 13777 4cfe 84E0      		ldi r24,lo8(4)
 13778 4d00 E0E2      		ldi r30,lo8(1568)
 13779 4d02 F6E0      		ldi r31,hi8(1568)
 13780 4d04 8683      		std Z+6,r24
 13781               	.LM1380:
 13782 4d06 87E2      		ldi r24,lo8(39)
 13783 4d08 E0EC      		ldi r30,lo8(2240)
 13784 4d0a F8E0      		ldi r31,hi8(2240)
 13785 4d0c 8383      		std Z+3,r24
 13786               	.L841:
 13787               	.LM1381:
 13788 4d0e 8091 C208 		lds r24,2242
 13789 4d12 87FF      		sbrs r24,7
 13790 4d14 00C0      		rjmp .L841
 13791               	.LBE947:
 13792               	.LBE946:
 13793               	.LBB948:
 13794               	.LBB949:
 13795               	.LM1382:
 13796 4d16 84E0      		ldi r24,lo8(4)
 13797 4d18 E0E2      		ldi r30,lo8(1568)
 13798 4d1a F6E0      		ldi r31,hi8(1568)
 13799 4d1c 8683      		std Z+6,r24
 13800               	.LM1383:
 13801 4d1e 8AEF      		ldi r24,lo8(-6)
 13802 4d20 E0EC      		ldi r30,lo8(2240)
 13803 4d22 F8E0      		ldi r31,hi8(2240)
 13804 4d24 8383      		std Z+3,r24
 13805               	.L842:
 13806               	.LM1384:
 13807 4d26 8091 C208 		lds r24,2242
 13808 4d2a 87FF      		sbrs r24,7
 13809 4d2c 00C0      		rjmp .L842
 13810               	.LBE949:
 13811               	.LBE948:
 13812               	.LBB950:
 13813               	.LBB951:
 13814               	.LM1385:
 13815 4d2e 84E0      		ldi r24,lo8(4)
 13816 4d30 E0E2      		ldi r30,lo8(1568)
 13817 4d32 F6E0      		ldi r31,hi8(1568)
 13818 4d34 8683      		std Z+6,r24
 13819               	.LM1386:
 13820 4d36 80E9      		ldi r24,lo8(-112)
 13821 4d38 E0EC      		ldi r30,lo8(2240)
 13822 4d3a F8E0      		ldi r31,hi8(2240)
 13823 4d3c 8383      		std Z+3,r24
 13824               	.L843:
 13825               	.LM1387:
 13826 4d3e 8091 C208 		lds r24,2242
 13827 4d42 87FF      		sbrs r24,7
 13828 4d44 00C0      		rjmp .L843
 13829               	.LBE951:
 13830               	.LBE950:
 13831               	.LBB952:
 13832               	.LBB953:
 13833               	.LM1388:
 13834 4d46 84E0      		ldi r24,lo8(4)
 13835 4d48 E0E2      		ldi r30,lo8(1568)
 13836 4d4a F6E0      		ldi r31,hi8(1568)
 13837 4d4c 8683      		std Z+6,r24
 13838               	.LM1389:
 13839 4d4e 80E4      		ldi r24,lo8(64)
 13840 4d50 E0EC      		ldi r30,lo8(2240)
 13841 4d52 F8E0      		ldi r31,hi8(2240)
 13842 4d54 8383      		std Z+3,r24
 13843               	.L844:
 13844               	.LM1390:
 13845 4d56 8091 C208 		lds r24,2242
 13846 4d5a 87FF      		sbrs r24,7
 13847 4d5c 00C0      		rjmp .L844
 13848 4d5e 8CED      		ldi r24,lo8(1500)
 13849 4d60 95E0      		ldi r25,hi8(1500)
 13850               	.LVL1168:
 13851               	.LBE953:
 13852               	.LBE952:
 13853               	.LBB954:
 13854               	.LBB955:
 13855               	.LBB956:
 13856               	.LBB957:
 13857               	.LM1391:
 13858 4d62 20E7      		ldi r18,lo8(368)
 13859 4d64 31E0      		ldi r19,hi8(368)
 13860               	.L845:
 13861 4d66 F901      		movw r30,r18
 13862               	.LVL1169:
 13863               	/* #APP */
 13864               	 ;  105 "/usr/local/CrossPack-AVR-20100115/lib/gcc/avr/4.3.3/../../../../avr/include/util/delay_bas
 13865 4d68 3197      		1: sbiw r30,1
 13866 4d6a 01F4      		brne 1b
 13867               	 ;  0 "" 2
 13868               	/* #NOAPP */
 13869               	.LBE957:
 13870               	.LBE956:
 13871               	.LM1392:
 13872 4d6c 0197      		sbiw r24,1
 13873               	.LM1393:
 13874 4d6e 01F4      		brne .L845
 13875               	.LBE955:
 13876               	.LBE954:
 13877               	.LBB958:
 13878               	.LBB959:
 13879               	.LM1394:
 13880 4d70 84E0      		ldi r24,lo8(4)
 13881               	.LVL1170:
 13882 4d72 E0E2      		ldi r30,lo8(1568)
 13883 4d74 F6E0      		ldi r31,hi8(1568)
 13884               	.LVL1171:
 13885 4d76 8683      		std Z+6,r24
 13886               	.LM1395:
 13887 4d78 82EA      		ldi r24,lo8(-94)
 13888 4d7a E0EC      		ldi r30,lo8(2240)
 13889 4d7c F8E0      		ldi r31,hi8(2240)
 13890 4d7e 8383      		std Z+3,r24
 13891               	.L846:
 13892               	.LM1396:
 13893 4d80 8091 C208 		lds r24,2242
 13894 4d84 87FF      		sbrs r24,7
 13895 4d86 00C0      		rjmp .L846
 13896               	.LBE959:
 13897               	.LBE958:
 13898               	.LBB960:
 13899               	.LBB961:
 13900               	.LM1397:
 13901 4d88 84E0      		ldi r24,lo8(4)
 13902 4d8a E0E2      		ldi r30,lo8(1568)
 13903 4d8c F6E0      		ldi r31,hi8(1568)
 13904 4d8e 8683      		std Z+6,r24
 13905               	.LM1398:
 13906 4d90 81E8      		ldi r24,lo8(-127)
 13907 4d92 E0EC      		ldi r30,lo8(2240)
 13908 4d94 F8E0      		ldi r31,hi8(2240)
 13909 4d96 8383      		std Z+3,r24
 13910               	.L847:
 13911               	.LM1399:
 13912 4d98 8091 C208 		lds r24,2242
 13913 4d9c 87FF      		sbrs r24,7
 13914 4d9e 00C0      		rjmp .L847
 13915               	.LBE961:
 13916               	.LBE960:
 13917               	.LBB962:
 13918               	.LBB963:
 13919               	.LM1400:
 13920 4da0 84E0      		ldi r24,lo8(4)
 13921 4da2 E0E2      		ldi r30,lo8(1568)
 13922 4da4 F6E0      		ldi r31,hi8(1568)
 13923 4da6 8683      		std Z+6,r24
 13924               	.LM1401:
 13925 4da8 88E0      		ldi r24,lo8(8)
 13926 4daa E0EC      		ldi r30,lo8(2240)
 13927 4dac F8E0      		ldi r31,hi8(2240)
 13928 4dae 8383      		std Z+3,r24
 13929               	.L848:
 13930               	.LM1402:
 13931 4db0 8091 C208 		lds r24,2242
 13932 4db4 87FF      		sbrs r24,7
 13933 4db6 00C0      		rjmp .L848
 13934               	.LBE963:
 13935               	.LBE962:
 13936               	.LBB964:
 13937               	.LBB965:
 13938               	.LM1403:
 13939 4db8 84E0      		ldi r24,lo8(4)
 13940 4dba E0E2      		ldi r30,lo8(1568)
 13941 4dbc F6E0      		ldi r31,hi8(1568)
 13942 4dbe 8683      		std Z+6,r24
 13943               	.LM1404:
 13944 4dc0 8FEA      		ldi r24,lo8(-81)
 13945 4dc2 E0EC      		ldi r30,lo8(2240)
 13946 4dc4 F8E0      		ldi r31,hi8(2240)
 13947 4dc6 8383      		std Z+3,r24
 13948               	.L849:
 13949               	.LM1405:
 13950 4dc8 8091 C208 		lds r24,2242
 13951 4dcc 87FF      		sbrs r24,7
 13952 4dce 00C0      		rjmp .L849
 13953               	.LBE965:
 13954               	.LBE964:
 13955               	.LM1406:
 13956 4dd0 0E94 0000 		call display_clearBuffer
 13957               	.LM1407:
 13958 4dd4 0E94 0000 		call display_writeBufferToScreen
 13959               	/* epilogue start */
 13960               	.LM1408:
 13961 4dd8 DF91      		pop r29
 13962 4dda CF91      		pop r28
 13963               	.LVL1172:
 13964 4ddc 0895      		ret
 13965               	.LFE118:
 13967               	.global	display_putString
 13969               	display_putString:
 13970               	.LFB125:
 13971               	.LM1409:
 13972               	.LVL1173:
 13973 4dde 2F92      		push r2
 13974 4de0 3F92      		push r3
 13975 4de2 4F92      		push r4
 13976 4de4 5F92      		push r5
 13977 4de6 6F92      		push r6
 13978 4de8 7F92      		push r7
 13979 4dea 8F92      		push r8
 13980 4dec 9F92      		push r9
 13981 4dee AF92      		push r10
 13982 4df0 BF92      		push r11
 13983 4df2 CF92      		push r12
 13984 4df4 DF92      		push r13
 13985 4df6 EF92      		push r14
 13986 4df8 FF92      		push r15
 13987 4dfa 0F93      		push r16
 13988 4dfc 1F93      		push r17
 13989 4dfe DF93      		push r29
 13990 4e00 CF93      		push r28
 13991 4e02 CDB7      		in r28,__SP_L__
 13992 4e04 DEB7      		in r29,__SP_H__
 13993 4e06 2897      		sbiw r28,8
 13994 4e08 CDBF      		out __SP_L__,r28
 13995 4e0a DEBF      		out __SP_H__,r29
 13996               	/* prologue: function */
 13997               	/* frame size = 8 */
 13998 4e0c 1C01      		movw r2,r24
 13999 4e0e 4C83      		std Y+4,r20
 14000 4e10 2F83      		std Y+7,r18
 14001 4e12 3887      		std Y+8,r19
 14002               	.LM1410:
 14003 4e14 D901      		movw r26,r18
 14004 4e16 1396      		adiw r26,3
 14005 4e18 BC91      		ld r27,X
 14006 4e1a BB83      		std Y+3,r27
 14007               	.LVL1174:
 14008               	.LM1411:
 14009 4e1c F901      		movw r30,r18
 14010 4e1e F481      		ldd r31,Z+4
 14011 4e20 FA83      		std Y+2,r31
 14012               	.LVL1175:
 14013               	.LM1412:
 14014 4e22 D901      		movw r26,r18
 14015 4e24 1596      		adiw r26,5
 14016 4e26 2C91      		ld r18,X
 14017               	.LVL1176:
 14018               	.LM1413:
 14019 4e28 BB81      		ldd r27,Y+3
 14020 4e2a 0B2F      		mov r16,r27
 14021 4e2c 10E0      		ldi r17,lo8(0)
 14022 4e2e C801      		movw r24,r16
 14023               	.LVL1177:
 14024 4e30 0796      		adiw r24,7
 14025 4e32 A3E0      		ldi r26,3
 14026 4e34 9595      	1:	asr r25
 14027 4e36 8795      		ror r24
 14028 4e38 AA95      		dec r26
 14029 4e3a 01F4      		brne 1b
 14030 4e3c 8983      		std Y+1,r24
 14031               	.LVL1178:
 14032 4e3e CC24      		clr r12
 14033               	.LVL1179:
 14034               	.LM1414:
 14035 4e40 E22E      		mov r14,r18
 14036 4e42 FF24      		clr r15
 14037 4e44 E6E0      		ldi r30,lo8(6)
 14038 4e46 F0E0      		ldi r31,hi8(6)
 14039 4e48 EE0E      		add r14,r30
 14040 4e4a FF1E      		adc r15,r31
 14041               	.LM1415:
 14042 4e4c 462E      		mov r4,r22
 14043 4e4e 5524      		clr r5
 14044               	.LVL1180:
 14045 4e50 00C0      		rjmp .L867
 14046               	.LVL1181:
 14047               	.L876:
 14048               	.LM1416:
 14049 4e52 7E2F      		mov r23,r30
 14050               	.LVL1182:
 14051 4e54 FA81      		ldd r31,Y+2
 14052 4e56 7F1B      		sub r23,r31
 14053               	.LM1417:
 14054 4e58 AF81      		ldd r26,Y+7
 14055 4e5a B885      		ldd r27,Y+8
 14056 4e5c 8C91      		ld r24,X
 14057 4e5e 8823      		tst r24
 14058 4e60 01F4      		brne .L868
 14059               	.LM1418:
 14060 4e62 1296      		adiw r26,2
 14061 4e64 2C91      		ld r18,X
 14062               	.LVL1183:
 14063               	.LM1419:
 14064 4e66 729F      		mul r23,r18
 14065 4e68 F001      		movw r30,r0
 14066 4e6a 1124      		clr r1
 14067               	.LVL1184:
 14068 4e6c 3696      		adiw r30,6
 14069 4e6e 00C0      		rjmp .L869
 14070               	.LVL1185:
 14071               	.L868:
 14072               	.LM1420:
 14073 4e70 EF81      		ldd r30,Y+7
 14074 4e72 F885      		ldd r31,Y+8
 14075 4e74 E70F      		add r30,r23
 14076 4e76 F11D      		adc r31,__zero_reg__
 14077 4e78 2681      		ldd r18,Z+6
 14078               	.LVL1186:
 14079 4e7a EF81      		ldd r30,Y+7
 14080 4e7c F885      		ldd r31,Y+8
 14081 4e7e ED83      		std Y+5,r30
 14082 4e80 FE83      		std Y+6,r31
 14083 4e82 A0E0      		ldi r26,lo8(0)
 14084 4e84 B0E0      		ldi r27,hi8(0)
 14085               	.LVL1187:
 14086 4e86 30E0      		ldi r19,lo8(0)
 14087               	.LVL1188:
 14088 4e88 00C0      		rjmp .L870
 14089               	.L871:
 14090               	.LM1421:
 14091 4e8a ED81      		ldd r30,Y+5
 14092 4e8c FE81      		ldd r31,Y+6
 14093 4e8e 8581      		ldd r24,Z+5
 14094 4e90 F981      		ldd r31,Y+1
 14095 4e92 F89F      		mul r31,r24
 14096 4e94 C001      		movw r24,r0
 14097 4e96 1124      		clr r1
 14098 4e98 A80F      		add r26,r24
 14099 4e9a B91F      		adc r27,r25
 14100               	.LM1422:
 14101 4e9c 3F5F      		subi r19,lo8(-(1))
 14102               	.L870:
 14103 4e9e 8D81      		ldd r24,Y+5
 14104 4ea0 9E81      		ldd r25,Y+6
 14105 4ea2 0196      		adiw r24,1
 14106 4ea4 8D83      		std Y+5,r24
 14107 4ea6 9E83      		std Y+6,r25
 14108 4ea8 3717      		cp r19,r23
 14109 4eaa 00F0      		brlo .L871
 14110               	.LM1423:
 14111 4eac 822F      		mov r24,r18
 14112 4eae 90E0      		ldi r25,lo8(0)
 14113               	.LVL1189:
 14114 4eb0 849F      		mul r24,r20
 14115 4eb2 F001      		movw r30,r0
 14116 4eb4 859F      		mul r24,r21
 14117 4eb6 F00D      		add r31,r0
 14118 4eb8 949F      		mul r25,r20
 14119 4eba F00D      		add r31,r0
 14120 4ebc 1124      		clr r1
 14121               	.LVL1190:
 14122 4ebe EE0D      		add r30,r14
 14123 4ec0 FF1D      		adc r31,r15
 14124 4ec2 EA0F      		add r30,r26
 14125 4ec4 FB1F      		adc r31,r27
 14126               	.LVL1191:
 14127               	.L869:
 14128 4ec6 AF81      		ldd r26,Y+7
 14129 4ec8 B885      		ldd r27,Y+8
 14130 4eca AE0F      		add r26,r30
 14131 4ecc BF1F      		adc r27,r31
 14132 4ece 30E0      		ldi r19,lo8(0)
 14133               	.LVL1192:
 14134 4ed0 00C0      		rjmp .L872
 14135               	.LVL1193:
 14136               	.L874:
 14137               	.LM1424:
 14138 4ed2 8C91      		ld r24,X
 14139               	.LM1425:
 14140 4ed4 9B81      		ldd r25,Y+3
 14141               	.LVL1194:
 14142 4ed6 9930      		cpi r25,lo8(9)
 14143 4ed8 00F0      		brlo .L873
 14144 4eda 0815      		cp r16,r8
 14145 4edc 1905      		cpc r17,r9
 14146 4ede 04F4      		brge .L873
 14147               	.LM1426:
 14148 4ee0 90E0      		ldi r25,lo8(0)
 14149               	.LVL1195:
 14150 4ee2 062C      		mov r0,r6
 14151 4ee4 00C0      		rjmp 2f
 14152 4ee6 9595      	1:	asr r25
 14153 4ee8 8795      		ror r24
 14154 4eea 0A94      	2:	dec r0
 14155 4eec 02F4      		brpl 1b
 14156               	.LVL1196:
 14157               	.L873:
 14158               	.LM1427:
 14159 4eee F501      		movw r30,r10
 14160               	.LVL1197:
 14161 4ef0 E70F      		add r30,r23
 14162 4ef2 F11D      		adc r31,__zero_reg__
 14163 4ef4 E050      		subi r30,lo8(-(displayBuffer))
 14164 4ef6 F040      		sbci r31,hi8(-(displayBuffer))
 14165 4ef8 8083      		st Z,r24
 14166               	.LM1428:
 14167 4efa 3F5F      		subi r19,lo8(-(1))
 14168 4efc 1196      		adiw r26,1
 14169               	.LVL1198:
 14170               	.L872:
 14171 4efe 732F      		mov r23,r19
 14172               	.LVL1199:
 14173 4f00 760F      		add r23,r22
 14174 4f02 3217      		cp r19,r18
 14175 4f04 00F0      		brlo .L874
 14176 4f06 822F      		mov r24,r18
 14177               	.LVL1200:
 14178 4f08 860F      		add r24,r22
 14179               	.LM1429:
 14180 4f0a 8536      		cpi r24,lo8(101)
 14181 4f0c 01F0      		breq .L875
 14182               	.LM1430:
 14183 4f0e F501      		movw r30,r10
 14184               	.LVL1201:
 14185 4f10 E80F      		add r30,r24
 14186 4f12 F11D      		adc r31,__zero_reg__
 14187 4f14 E050      		subi r30,lo8(-(displayBuffer+1))
 14188 4f16 F040      		sbci r31,hi8(-(displayBuffer+1))
 14189 4f18 1082      		st Z,__zero_reg__
 14190               	.LVL1202:
 14191               	.L875:
 14192               	.LM1431:
 14193 4f1a 682F      		mov r22,r24
 14194 4f1c 6F5F      		subi r22,lo8(-(1))
 14195               	.LVL1203:
 14196               	.LM1432:
 14197 4f1e D394      		inc r13
 14198               	.LVL1204:
 14199               	.L878:
 14200               	.LM1433:
 14201 4f20 F101      		movw r30,r2
 14202               	.LVL1205:
 14203 4f22 ED0D      		add r30,r13
 14204 4f24 F11D      		adc r31,__zero_reg__
 14205 4f26 E081      		ld r30,Z
 14206 4f28 EE23      		tst r30
 14207 4f2a 01F0      		breq .+2
 14208 4f2c 00C0      		rjmp .L876
 14209               	.LM1434:
 14210 4f2e C394      		inc r12
 14211               	.LVL1206:
 14212               	.L867:
 14213               	.LM1435:
 14214 4f30 4C2D      		mov r20,r12
 14215 4f32 50E0      		ldi r21,lo8(0)
 14216 4f34 CA01      		movw r24,r20
 14217 4f36 F3E0      		ldi r31,3
 14218 4f38 880F      	1:	lsl r24
 14219 4f3a 991F      		rol r25
 14220 4f3c FA95      		dec r31
 14221 4f3e 01F4      		brne 1b
 14222 4f40 8017      		cp r24,r16
 14223 4f42 9107      		cpc r25,r17
 14224 4f44 04F4      		brge .L879
 14225               	.LM1436:
 14226 4f46 4F5F      		subi r20,lo8(-(1))
 14227 4f48 5F4F      		sbci r21,hi8(-(1))
 14228 4f4a 4A01      		movw r8,r20
 14229 4f4c E3E0      		ldi r30,3
 14230 4f4e 880C      	1:	lsl r8
 14231 4f50 991C      		rol r9
 14232 4f52 EA95      		dec r30
 14233 4f54 01F4      		brne 1b
 14234 4f56 4150      		subi r20,lo8(-(-1))
 14235 4f58 5040      		sbci r21,hi8(-(-1))
 14236               	.LM1437:
 14237 4f5a 3401      		movw r6,r8
 14238 4f5c 601A      		sub r6,r16
 14239 4f5e 710A      		sbc r7,r17
 14240 4f60 6C81      		ldd r22,Y+4
 14241 4f62 DD24      		clr r13
 14242               	.LM1438:
 14243 4f64 CA01      		movw r24,r20
 14244 4f66 840D      		add r24,r4
 14245 4f68 951D      		adc r25,r5
 14246 4f6a A6E6      		ldi r26,lo8(102)
 14247 4f6c B0E0      		ldi r27,hi8(102)
 14248 4f6e 8A9F      		mul r24,r26
 14249 4f70 5001      		movw r10,r0
 14250 4f72 8B9F      		mul r24,r27
 14251 4f74 B00C      		add r11,r0
 14252 4f76 9A9F      		mul r25,r26
 14253 4f78 B00C      		add r11,r0
 14254 4f7a 1124      		clr r1
 14255 4f7c 00C0      		rjmp .L878
 14256               	.LVL1207:
 14257               	.L879:
 14258               	/* epilogue start */
 14259               	.LM1439:
 14260 4f7e 2896      		adiw r28,8
 14261 4f80 CDBF      		out __SP_L__,r28
 14262 4f82 DEBF      		out __SP_H__,r29
 14263 4f84 CF91      		pop r28
 14264 4f86 DF91      		pop r29
 14265 4f88 1F91      		pop r17
 14266 4f8a 0F91      		pop r16
 14267 4f8c FF90      		pop r15
 14268 4f8e EF90      		pop r14
 14269 4f90 DF90      		pop r13
 14270               	.LVL1208:
 14271 4f92 CF90      		pop r12
 14272               	.LVL1209:
 14273 4f94 BF90      		pop r11
 14274 4f96 AF90      		pop r10
 14275 4f98 9F90      		pop r9
 14276 4f9a 8F90      		pop r8
 14277 4f9c 7F90      		pop r7
 14278 4f9e 6F90      		pop r6
 14279 4fa0 5F90      		pop r5
 14280               	.LVL1210:
 14281 4fa2 4F90      		pop r4
 14282               	.LVL1211:
 14283 4fa4 3F90      		pop r3
 14284 4fa6 2F90      		pop r2
 14285               	.LVL1212:
 14286 4fa8 0895      		ret
 14287               	.LFE125:
 14289               	.global	display_drawPixel
 14291               	display_drawPixel:
 14292               	.LFB126:
 14293               	.LM1440:
 14294               	.LVL1213:
 14295               	/* prologue: function */
 14296               	/* frame size = 0 */
 14297 4faa 282F      		mov r18,r24
 14298 4fac 2695      		lsr r18
 14299 4fae 2695      		lsr r18
 14300 4fb0 2695      		lsr r18
 14301 4fb2 70E0      		ldi r23,lo8(0)
 14302 4fb4 A82F      		mov r26,r24
 14303 4fb6 B0E0      		ldi r27,lo8(0)
 14304               	.LVL1214:
 14305               	.LM1441:
 14306 4fb8 4423      		tst r20
 14307 4fba 01F0      		breq .L881
 14308               	.LVL1215:
 14309 4fbc 30E0      		ldi r19,lo8(0)
 14310 4fbe 86E6      		ldi r24,lo8(102)
 14311 4fc0 90E0      		ldi r25,hi8(102)
 14312 4fc2 289F      		mul r18,r24
 14313 4fc4 F001      		movw r30,r0
 14314 4fc6 299F      		mul r18,r25
 14315 4fc8 F00D      		add r31,r0
 14316 4fca 389F      		mul r19,r24
 14317 4fcc F00D      		add r31,r0
 14318 4fce 1124      		clr r1
 14319 4fd0 E60F      		add r30,r22
 14320 4fd2 F71F      		adc r31,r23
 14321               	.LVL1216:
 14322 4fd4 E050      		subi r30,lo8(-(displayBuffer))
 14323 4fd6 F040      		sbci r31,hi8(-(displayBuffer))
 14324 4fd8 2081      		ld r18,Z
 14325 4fda A770      		andi r26,lo8(7)
 14326 4fdc B070      		andi r27,hi8(7)
 14327               	.LVL1217:
 14328 4fde 81E0      		ldi r24,lo8(1)
 14329 4fe0 90E0      		ldi r25,hi8(1)
 14330 4fe2 00C0      		rjmp 2f
 14331 4fe4 880F      	1:	lsl r24
 14332 4fe6 991F      		rol r25
 14333 4fe8 AA95      	2:	dec r26
 14334 4fea 02F4      		brpl 1b
 14335 4fec 282B      		or r18,r24
 14336 4fee 2083      		st Z,r18
 14337 4ff0 0895      		ret
 14338               	.LVL1218:
 14339               	.L881:
 14340               	.LM1442:
 14341 4ff2 30E0      		ldi r19,lo8(0)
 14342 4ff4 86E6      		ldi r24,lo8(102)
 14343 4ff6 90E0      		ldi r25,hi8(102)
 14344 4ff8 289F      		mul r18,r24
 14345 4ffa F001      		movw r30,r0
 14346 4ffc 299F      		mul r18,r25
 14347 4ffe F00D      		add r31,r0
 14348 5000 389F      		mul r19,r24
 14349 5002 F00D      		add r31,r0
 14350 5004 1124      		clr r1
 14351 5006 E60F      		add r30,r22
 14352 5008 F71F      		adc r31,r23
 14353               	.LVL1219:
 14354 500a E050      		subi r30,lo8(-(displayBuffer))
 14355 500c F040      		sbci r31,hi8(-(displayBuffer))
 14356 500e 2081      		ld r18,Z
 14357 5010 A770      		andi r26,lo8(7)
 14358 5012 B070      		andi r27,hi8(7)
 14359               	.LVL1220:
 14360 5014 81E0      		ldi r24,lo8(1)
 14361 5016 90E0      		ldi r25,hi8(1)
 14362 5018 00C0      		rjmp 2f
 14363 501a 880F      	1:	lsl r24
 14364 501c 991F      		rol r25
 14365 501e AA95      	2:	dec r26
 14366 5020 02F4      		brpl 1b
 14367 5022 8095      		com r24
 14368 5024 8223      		and r24,r18
 14369 5026 8083      		st Z,r24
 14370 5028 0895      		ret
 14371               	.LFE126:
 14373               	.global	swap
 14375               	swap:
 14376               	.LFB127:
 14377               	.LM1443:
 14378               	.LVL1221:
 14379               	/* prologue: function */
 14380               	/* frame size = 0 */
 14381 502a DC01      		movw r26,r24
 14382 502c FB01      		movw r30,r22
 14383               	.LM1444:
 14384 502e 9081      		ld r25,Z
 14385               	.LVL1222:
 14386               	.LM1445:
 14387 5030 8C91      		ld r24,X
 14388               	.LVL1223:
 14389 5032 8083      		st Z,r24
 14390               	.LM1446:
 14391 5034 9C93      		st X,r25
 14392               	/* epilogue start */
 14393               	.LM1447:
 14394 5036 0895      		ret
 14395               	.LFE127:
 14397               	.global	display_drawLine
 14399               	display_drawLine:
 14400               	.LFB128:
 14401               	.LM1448:
 14402               	.LVL1224:
 14403 5038 DF92      		push r13
 14404 503a EF92      		push r14
 14405 503c FF92      		push r15
 14406 503e 0F93      		push r16
 14407               	.LVL1225:
 14408 5040 1F93      		push r17
 14409 5042 CF93      		push r28
 14410 5044 DF93      		push r29
 14411               	/* prologue: function */
 14412               	/* frame size = 0 */
 14413 5046 F82E      		mov r15,r24
 14414 5048 E62E      		mov r14,r22
 14415               	.LM1449:
 14416 504a 8417      		cp r24,r20
 14417 504c 01F4      		brne .L887
 14418               	.LVL1226:
 14419               	.LM1450:
 14420 504e 2617      		cp r18,r22
 14421 5050 00F4      		brsh .L888
 14422               	.LVL1227:
 14423 5052 DD24      		clr r13
 14424 5054 DA94      		dec r13
 14425               	.LVL1228:
 14426 5056 00C0      		rjmp .L889
 14427               	.LVL1229:
 14428               	.L888:
 14429 5058 DD24      		clr r13
 14430 505a D394      		inc r13
 14431               	.LVL1230:
 14432               	.L889:
 14433               	.LM1451:
 14434 505c 1E2D      		mov r17,r14
 14435               	.LVL1231:
 14436               	.LM1452:
 14437 505e C22F      		mov r28,r18
 14438 5060 D0E0      		ldi r29,lo8(0)
 14439               	.LVL1232:
 14440 5062 00C0      		rjmp .L890
 14441               	.LVL1233:
 14442               	.L891:
 14443               	.LM1453:
 14444 5064 8F2D      		mov r24,r15
 14445               	.LVL1234:
 14446 5066 612F      		mov r22,r17
 14447               	.LVL1235:
 14448 5068 402F      		mov r20,r16
 14449               	.LVL1236:
 14450 506a 0E94 0000 		call display_drawPixel
 14451 506e 1D0D      		add r17,r13
 14452               	.LVL1237:
 14453               	.L890:
 14454               	.LM1454:
 14455 5070 812F      		mov r24,r17
 14456 5072 9927      		clr r25
 14457 5074 87FD      		sbrc r24,7
 14458 5076 9095      		com r25
 14459               	.LVL1238:
 14460 5078 8C17      		cp r24,r28
 14461 507a 9D07      		cpc r25,r29
 14462 507c 01F4      		brne .L891
 14463               	.LM1455:
 14464 507e 8F2D      		mov r24,r15
 14465               	.LVL1239:
 14466 5080 612F      		mov r22,r17
 14467               	.LVL1240:
 14468 5082 00C0      		rjmp .L898
 14469               	.LVL1241:
 14470               	.L887:
 14471               	.LM1456:
 14472 5084 6217      		cp r22,r18
 14473 5086 01F4      		brne .L897
 14474               	.LVL1242:
 14475               	.LM1457:
 14476 5088 4817      		cp r20,r24
 14477 508a 00F4      		brsh .L893
 14478 508c DD24      		clr r13
 14479 508e DA94      		dec r13
 14480               	.LVL1243:
 14481 5090 00C0      		rjmp .L894
 14482               	.LVL1244:
 14483               	.L893:
 14484 5092 DD24      		clr r13
 14485 5094 D394      		inc r13
 14486               	.LVL1245:
 14487               	.L894:
 14488               	.LM1458:
 14489 5096 1F2D      		mov r17,r15
 14490               	.LVL1246:
 14491               	.LM1459:
 14492 5098 C42F      		mov r28,r20
 14493 509a D0E0      		ldi r29,lo8(0)
 14494               	.LVL1247:
 14495 509c 00C0      		rjmp .L895
 14496               	.LVL1248:
 14497               	.L896:
 14498               	.LM1460:
 14499 509e 812F      		mov r24,r17
 14500               	.LVL1249:
 14501 50a0 6E2D      		mov r22,r14
 14502 50a2 402F      		mov r20,r16
 14503 50a4 0E94 0000 		call display_drawPixel
 14504               	.LVL1250:
 14505 50a8 1D0D      		add r17,r13
 14506               	.LVL1251:
 14507               	.L895:
 14508               	.LM1461:
 14509 50aa 812F      		mov r24,r17
 14510 50ac 9927      		clr r25
 14511 50ae 87FD      		sbrc r24,7
 14512 50b0 9095      		com r25
 14513               	.LVL1252:
 14514 50b2 8C17      		cp r24,r28
 14515 50b4 9D07      		cpc r25,r29
 14516 50b6 01F4      		brne .L896
 14517               	.LM1462:
 14518 50b8 812F      		mov r24,r17
 14519               	.LVL1253:
 14520 50ba 6E2D      		mov r22,r14
 14521               	.LVL1254:
 14522               	.L898:
 14523 50bc 402F      		mov r20,r16
 14524               	.LVL1255:
 14525 50be 0E94 0000 		call display_drawPixel
 14526               	.LVL1256:
 14527               	.L897:
 14528               	/* epilogue start */
 14529               	.LM1463:
 14530 50c2 DF91      		pop r29
 14531               	.LVL1257:
 14532 50c4 CF91      		pop r28
 14533               	.LVL1258:
 14534 50c6 1F91      		pop r17
 14535               	.LVL1259:
 14536 50c8 0F91      		pop r16
 14537               	.LVL1260:
 14538 50ca FF90      		pop r15
 14539               	.LVL1261:
 14540 50cc EF90      		pop r14
 14541               	.LVL1262:
 14542 50ce DF90      		pop r13
 14543               	.LVL1263:
 14544 50d0 0895      		ret
 14545               	.LFE128:
 14547               	.global	display_drawRectangle
 14549               	display_drawRectangle:
 14550               	.LFB129:
 14551               	.LM1464:
 14552               	.LVL1264:
 14553 50d2 6F92      		push r6
 14554 50d4 7F92      		push r7
 14555 50d6 8F92      		push r8
 14556 50d8 9F92      		push r9
 14557 50da BF92      		push r11
 14558 50dc CF92      		push r12
 14559               	.LVL1265:
 14560 50de DF92      		push r13
 14561 50e0 EF92      		push r14
 14562               	.LVL1266:
 14563 50e2 FF92      		push r15
 14564 50e4 0F93      		push r16
 14565               	.LVL1267:
 14566 50e6 1F93      		push r17
 14567 50e8 CF93      		push r28
 14568 50ea DF93      		push r29
 14569               	/* prologue: function */
 14570               	/* frame size = 0 */
 14571 50ec 182F      		mov r17,r24
 14572 50ee B62E      		mov r11,r22
 14573 50f0 D22E      		mov r13,r18
 14574               	.LVL1268:
 14575 50f2 D60E      		add r13,r22
 14576 50f4 F42E      		mov r15,r20
 14577               	.LVL1269:
 14578 50f6 F80E      		add r15,r24
 14579               	.LM1465:
 14580 50f8 0023      		tst r16
 14581               	.LVL1270:
 14582 50fa 01F4      		brne .L900
 14583               	.LM1466:
 14584 50fc 412F      		mov r20,r17
 14585               	.LVL1271:
 14586 50fe 2D2D      		mov r18,r13
 14587               	.LVL1272:
 14588 5100 0C2D      		mov r16,r12
 14589               	.LVL1273:
 14590 5102 0E94 0000 		call display_drawLine
 14591               	.LVL1274:
 14592               	.LM1467:
 14593 5106 8F2D      		mov r24,r15
 14594 5108 6B2D      		mov r22,r11
 14595 510a 4F2D      		mov r20,r15
 14596 510c 2D2D      		mov r18,r13
 14597 510e 0E94 0000 		call display_drawLine
 14598               	.LM1468:
 14599 5112 812F      		mov r24,r17
 14600 5114 6B2D      		mov r22,r11
 14601 5116 4F2D      		mov r20,r15
 14602 5118 2B2D      		mov r18,r11
 14603 511a 0E94 0000 		call display_drawLine
 14604               	.LM1469:
 14605 511e 812F      		mov r24,r17
 14606 5120 6D2D      		mov r22,r13
 14607 5122 4F2D      		mov r20,r15
 14608 5124 2D2D      		mov r18,r13
 14609 5126 0E94 0000 		call display_drawLine
 14610 512a 00C0      		rjmp .L910
 14611               	.LVL1275:
 14612               	.L900:
 14613               	.LM1470:
 14614 512c 582F      		mov r21,r24
 14615               	.LVL1276:
 14616               	.LM1471:
 14617 512e 082F      		mov r16,r24
 14618               	.LVL1277:
 14619 5130 10E0      		ldi r17,lo8(0)
 14620 5132 040F      		add r16,r20
 14621 5134 111D      		adc r17,__zero_reg__
 14622               	.LM1472:
 14623 5136 CF2D      		mov r28,r15
 14624 5138 D0E0      		ldi r29,lo8(0)
 14625               	.LM1473:
 14626 513a A7E0      		ldi r26,lo8(7)
 14627 513c B0E0      		ldi r27,hi8(7)
 14628 513e AC1B      		sub r26,r28
 14629 5140 BD0B      		sbc r27,r29
 14630 5142 3FEF      		ldi r19,lo8(255)
 14631 5144 832E      		mov r8,r19
 14632 5146 912C      		mov r9,__zero_reg__
 14633               	.LM1474:
 14634 5148 26E6      		ldi r18,lo8(102)
 14635 514a 622E      		mov r6,r18
 14636 514c 712C      		mov r7,__zero_reg__
 14637               	.LVL1278:
 14638               	.LM1475:
 14639 514e 98E0      		ldi r25,lo8(8)
 14640 5150 C92E      		mov r12,r25
 14641 5152 00C0      		rjmp .L902
 14642               	.LVL1279:
 14643               	.L909:
 14644               	.LM1476:
 14645 5154 87E0      		ldi r24,lo8(7)
 14646 5156 F82E      		mov r15,r24
 14647               	.LVL1280:
 14648 5158 F522      		and r15,r21
 14649               	.LM1477:
 14650 515a 6F2D      		mov r22,r15
 14651 515c 70E0      		ldi r23,lo8(0)
 14652 515e C901      		movw r24,r18
 14653 5160 0796      		adiw r24,7
 14654 5162 861B      		sub r24,r22
 14655 5164 970B      		sbc r25,r23
 14656 5166 C817      		cp r28,r24
 14657 5168 D907      		cpc r29,r25
 14658 516a 04F0      		brlt .L903
 14659               	.LM1478:
 14660 516c C401      		movw r24,r8
 14661 516e 0F2C      		mov r0,r15
 14662 5170 00C0      		rjmp 2f
 14663 5172 880F      	1:	lsl r24
 14664 5174 991F      		rol r25
 14665 5176 0A94      	2:	dec r0
 14666 5178 02F4      		brpl 1b
 14667               	.LVL1281:
 14668 517a 00C0      		rjmp .L911
 14669               	.LVL1282:
 14670               	.L903:
 14671               	.LM1479:
 14672 517c 2A0F      		add r18,r26
 14673 517e 3B1F      		adc r19,r27
 14674 5180 C401      		movw r24,r8
 14675 5182 00C0      		rjmp 2f
 14676 5184 9595      	1:	asr r25
 14677 5186 8795      		ror r24
 14678 5188 2A95      	2:	dec r18
 14679 518a 02F4      		brpl 1b
 14680               	.L911:
 14681 518c 282F      		mov r18,r24
 14682               	.LVL1283:
 14683               	.LM1480:
 14684 518e 852F      		mov r24,r21
 14685               	.LVL1284:
 14686 5190 8695      		lsr r24
 14687 5192 8695      		lsr r24
 14688 5194 8695      		lsr r24
 14689 5196 3B2D      		mov r19,r11
 14690               	.LVL1285:
 14691 5198 90E0      		ldi r25,lo8(0)
 14692               	.LM1481:
 14693 519a 869D      		mul r24,r6
 14694 519c B001      		movw r22,r0
 14695 519e 879D      		mul r24,r7
 14696 51a0 700D      		add r23,r0
 14697 51a2 969D      		mul r25,r6
 14698 51a4 700D      		add r23,r0
 14699 51a6 1124      		clr r1
 14700               	.LVL1286:
 14701               	.LM1482:
 14702 51a8 422F      		mov r20,r18
 14703               	.LVL1287:
 14704 51aa 4095      		com r20
 14705 51ac 00C0      		rjmp .L905
 14706               	.L908:
 14707 51ae E32F      		mov r30,r19
 14708 51b0 F0E0      		ldi r31,lo8(0)
 14709               	.LM1483:
 14710 51b2 EE20      		tst r14
 14711 51b4 01F0      		breq .L906
 14712               	.LM1484:
 14713 51b6 E60F      		add r30,r22
 14714 51b8 F71F      		adc r31,r23
 14715 51ba E050      		subi r30,lo8(-(displayBuffer))
 14716 51bc F040      		sbci r31,hi8(-(displayBuffer))
 14717 51be 8081      		ld r24,Z
 14718 51c0 9081      		ld r25,Z
 14719 51c2 8223      		and r24,r18
 14720 51c4 8095      		com r24
 14721 51c6 8223      		and r24,r18
 14722 51c8 9423      		and r25,r20
 14723 51ca 892B      		or r24,r25
 14724 51cc 8083      		st Z,r24
 14725 51ce 00C0      		rjmp .L907
 14726               	.L906:
 14727               	.LM1485:
 14728 51d0 E60F      		add r30,r22
 14729 51d2 F71F      		adc r31,r23
 14730 51d4 E050      		subi r30,lo8(-(displayBuffer))
 14731 51d6 F040      		sbci r31,hi8(-(displayBuffer))
 14732 51d8 2083      		st Z,r18
 14733               	.L907:
 14734               	.LM1486:
 14735 51da 3F5F      		subi r19,lo8(-(1))
 14736               	.L905:
 14737 51dc D316      		cp r13,r19
 14738 51de 00F4      		brsh .L908
 14739               	.LM1487:
 14740 51e0 8C2D      		mov r24,r12
 14741 51e2 8F19      		sub r24,r15
 14742 51e4 580F      		add r21,r24
 14743               	.LVL1288:
 14744               	.L902:
 14745               	.LM1488:
 14746 51e6 252F      		mov r18,r21
 14747               	.LVL1289:
 14748 51e8 30E0      		ldi r19,lo8(0)
 14749               	.LVL1290:
 14750 51ea 0217      		cp r16,r18
 14751 51ec 1307      		cpc r17,r19
 14752 51ee 04F0      		brlt .+2
 14753 51f0 00C0      		rjmp .L909
 14754               	.LVL1291:
 14755               	.L910:
 14756               	/* epilogue start */
 14757               	.LM1489:
 14758 51f2 DF91      		pop r29
 14759 51f4 CF91      		pop r28
 14760 51f6 1F91      		pop r17
 14761 51f8 0F91      		pop r16
 14762 51fa FF90      		pop r15
 14763               	.LVL1292:
 14764 51fc EF90      		pop r14
 14765               	.LVL1293:
 14766 51fe DF90      		pop r13
 14767               	.LVL1294:
 14768 5200 CF90      		pop r12
 14769               	.LVL1295:
 14770 5202 BF90      		pop r11
 14771               	.LVL1296:
 14772 5204 9F90      		pop r9
 14773 5206 8F90      		pop r8
 14774 5208 7F90      		pop r7
 14775 520a 6F90      		pop r6
 14776 520c 0895      		ret
 14777               	.LFE129:
 14779               	.global	Time_Init
 14781               	Time_Init:
 14782               	.LFB130:
 14783               	.LM1490:
 14784               	/* prologue: function */
 14785               	/* frame size = 0 */
 14786               	.LM1491:
 14787 520e E0E0      		ldi r30,lo8(2304)
 14788 5210 F9E0      		ldi r31,hi8(2304)
 14789 5212 80E4      		ldi r24,lo8(14400)
 14790 5214 98E3      		ldi r25,hi8(14400)
 14791 5216 86A3      		std Z+38,r24
 14792 5218 97A3      		std Z+39,r25
 14793               	.LM1492:
 14794 521a 8081      		ld r24,Z
 14795 521c 807F      		andi r24,lo8(-16)
 14796 521e 8760      		ori r24,lo8(7)
 14797 5220 8083      		st Z,r24
 14798               	.LM1493:
 14799 5222 8681      		ldd r24,Z+6
 14800 5224 8C7F      		andi r24,lo8(-4)
 14801 5226 8260      		ori r24,lo8(2)
 14802 5228 8683      		std Z+6,r24
 14803               	.LM1494:
 14804 522a 88E0      		ldi r24,lo8(8)
 14805 522c 8093 4008 		sts 2112,r24
 14806               	.LM1495:
 14807 5230 80EC      		ldi r24,lo8(-64)
 14808 5232 8093 8001 		sts 384,r24
 14809               	.LM1496:
 14810 5236 E0E0      		ldi r30,lo8(2048)
 14811 5238 F8E0      		ldi r31,hi8(2048)
 14812 523a 8FEF      		ldi r24,lo8(-1)
 14813 523c 9FEF      		ldi r25,hi8(-1)
 14814 523e 86A3      		std Z+38,r24
 14815 5240 97A3      		std Z+39,r25
 14816               	.LM1497:
 14817 5242 8081      		ld r24,Z
 14818 5244 807F      		andi r24,lo8(-16)
 14819 5246 8460      		ori r24,lo8(4)
 14820 5248 8083      		st Z,r24
 14821               	/* epilogue start */
 14822               	.LM1498:
 14823 524a 0895      		ret
 14824               	.LFE130:
 14826               	.global	Time_Set
 14828               	Time_Set:
 14829               	.LFB131:
 14830               	.LM1499:
 14831               	.LVL1297:
 14832               	/* prologue: function */
 14833               	/* frame size = 0 */
 14834               	.LM1500:
 14835               	/* #APP */
 14836               	 ;  51 "time.c" 1
 14837 524c F894      		cli
 14838               	 ;  0 "" 2
 14839               	.LM1501:
 14840               	/* #NOAPP */
 14841 524e 6093 0000 		sts UNIX_time,r22
 14842 5252 7093 0000 		sts (UNIX_time)+1,r23
 14843 5256 8093 0000 		sts (UNIX_time)+2,r24
 14844 525a 9093 0000 		sts (UNIX_time)+3,r25
 14845               	.LM1502:
 14846               	/* #APP */
 14847               	 ;  53 "time.c" 1
 14848 525e 7894      		sei
 14849               	 ;  0 "" 2
 14850               	/* epilogue start */
 14851               	.LM1503:
 14852               	/* #NOAPP */
 14853 5260 0895      		ret
 14854               	.LFE131:
 14856               	.global	Time_Get32BitTimer
 14858               	Time_Get32BitTimer:
 14859               	.LFB132:
 14860               	.LM1504:
 14861               	/* prologue: function */
 14862               	/* frame size = 0 */
 14863               	.LM1505:
 14864               	/* #APP */
 14865               	 ;  57 "time.c" 1
 14866 5262 F894      		cli
 14867               	 ;  0 "" 2
 14868               	.LM1506:
 14869               	/* #NOAPP */
 14870 5264 2091 6008 		lds r18,2144
 14871 5268 3091 6108 		lds r19,(2144)+1
 14872               	.LVL1298:
 14873               	.LM1507:
 14874 526c 6091 2008 		lds r22,2080
 14875 5270 7091 2108 		lds r23,(2080)+1
 14876               	.LVL1299:
 14877               	.LM1508:
 14878 5274 8091 6008 		lds r24,2144
 14879 5278 9091 6108 		lds r25,(2144)+1
 14880 527c 2817      		cp r18,r24
 14881 527e 3907      		cpc r19,r25
 14882 5280 01F0      		breq .L917
 14883               	.LM1509:
 14884 5282 2091 6008 		lds r18,2144
 14885 5286 3091 6108 		lds r19,(2144)+1
 14886               	.LM1510:
 14887 528a 6091 2008 		lds r22,2080
 14888 528e 7091 2108 		lds r23,(2080)+1
 14889               	.L917:
 14890               	.LM1511:
 14891               	/* #APP */
 14892               	 ;  67 "time.c" 1
 14893 5292 7894      		sei
 14894               	 ;  0 "" 2
 14895               	/* #NOAPP */
 14896 5294 40E0      		ldi r20,lo8(0)
 14897 5296 50E0      		ldi r21,hi8(0)
 14898               	.LVL1300:
 14899 5298 A901      		movw r20,r18
 14900 529a 3327      		clr r19
 14901 529c 2227      		clr r18
 14902               	.LVL1301:
 14903 529e CB01      		movw r24,r22
 14904 52a0 A0E0      		ldi r26,lo8(0)
 14905 52a2 B0E0      		ldi r27,hi8(0)
 14906               	.LVL1302:
 14907 52a4 280F      		add r18,r24
 14908 52a6 391F      		adc r19,r25
 14909 52a8 4A1F      		adc r20,r26
 14910 52aa 5B1F      		adc r21,r27
 14911               	.LM1512:
 14912 52ac B901      		movw r22,r18
 14913               	.LVL1303:
 14914 52ae CA01      		movw r24,r20
 14915               	.LVL1304:
 14916               	/* epilogue start */
 14917 52b0 0895      		ret
 14918               	.LFE132:
 14920               	.global	__vector_77
 14922               	__vector_77:
 14923               	.LFB133:
 14924               	.LM1513:
 14925 52b2 1F92      		push __zero_reg__
 14926 52b4 0F92      		push r0
 14927 52b6 0FB6      		in r0,__SREG__
 14928 52b8 0F92      		push r0
 14929 52ba 1124      		clr __zero_reg__
 14930 52bc 8F93      		push r24
 14931 52be 9F93      		push r25
 14932 52c0 AF93      		push r26
 14933 52c2 BF93      		push r27
 14934               	/* prologue: Signal */
 14935               	/* frame size = 0 */
 14936               	.LM1514:
 14937 52c4 8091 0000 		lds r24,UNIX_time
 14938 52c8 9091 0000 		lds r25,(UNIX_time)+1
 14939 52cc A091 0000 		lds r26,(UNIX_time)+2
 14940 52d0 B091 0000 		lds r27,(UNIX_time)+3
 14941 52d4 0196      		adiw r24,1
 14942 52d6 A11D      		adc r26,__zero_reg__
 14943 52d8 B11D      		adc r27,__zero_reg__
 14944 52da 8093 0000 		sts UNIX_time,r24
 14945 52de 9093 0000 		sts (UNIX_time)+1,r25
 14946 52e2 A093 0000 		sts (UNIX_time)+2,r26
 14947 52e6 B093 0000 		sts (UNIX_time)+3,r27
 14948               	/* epilogue start */
 14949               	.LM1515:
 14950 52ea BF91      		pop r27
 14951 52ec AF91      		pop r26
 14952 52ee 9F91      		pop r25
 14953 52f0 8F91      		pop r24
 14954 52f2 0F90      		pop r0
 14955 52f4 0FBE      		out __SREG__,r0
 14956 52f6 0F90      		pop r0
 14957 52f8 1F90      		pop __zero_reg__
 14958 52fa 1895      		reti
 14959               	.LFE133:
 14961               	.global	Sensors_Init
 14963               	Sensors_Init:
 14964               	.LFB134:
 14965               	.LM1516:
 14966               	/* prologue: function */
 14967               	/* frame size = 0 */
 14968               	.LM1517:
 14969 52fc E0E0      		ldi r30,lo8(512)
 14970 52fe F2E0      		ldi r31,hi8(512)
 14971 5300 92E0      		ldi r25,lo8(2)
 14972 5302 90A3      		std Z+32,r25
 14973               	.LM1518:
 14974 5304 8AE2      		ldi r24,lo8(42)
 14975 5306 81A3      		std Z+33,r24
 14976               	.LM1519:
 14977 5308 90A7      		std Z+40,r25
 14978               	.LM1520:
 14979 530a 83E2      		ldi r24,lo8(35)
 14980 530c 81A7      		std Z+41,r24
 14981               	.LM1521:
 14982 530e 90AF      		std Z+56,r25
 14983               	.LM1522:
 14984 5310 88E3      		ldi r24,lo8(56)
 14985 5312 81AF      		std Z+57,r24
 14986               	.LM1523:
 14987 5314 90AB      		std Z+48,r25
 14988               	.LM1524:
 14989 5316 81E3      		ldi r24,lo8(49)
 14990 5318 81AB      		std Z+49,r24
 14991               	.LM1525:
 14992 531a 8481      		ldd r24,Z+4
 14993 531c 887F      		andi r24,lo8(-8)
 14994 531e 8460      		ori r24,lo8(4)
 14995 5320 8483      		std Z+4,r24
 14996               	.LM1526:
 14997 5322 80E1      		ldi r24,lo8(16)
 14998 5324 8283      		std Z+2,r24
 14999               	.LM1527:
 15000 5326 8381      		ldd r24,Z+3
 15001 5328 806C      		ori r24,lo8(-64)
 15002 532a 8383      		std Z+3,r24
 15003               	.LM1528:
 15004 532c 8181      		ldd r24,Z+1
 15005 532e 8861      		ori r24,lo8(24)
 15006 5330 8183      		std Z+1,r24
 15007               	.LM1529:
 15008 5332 80A1      		ldd r24,Z+32
 15009 5334 8068      		ori r24,lo8(-128)
 15010 5336 80A3      		std Z+32,r24
 15011               	.LM1530:
 15012 5338 80A5      		ldd r24,Z+40
 15013 533a 8068      		ori r24,lo8(-128)
 15014 533c 80A7      		std Z+40,r24
 15015               	.LM1531:
 15016 533e 80AD      		ldd r24,Z+56
 15017 5340 8068      		ori r24,lo8(-128)
 15018 5342 80AF      		std Z+56,r24
 15019               	.LM1532:
 15020 5344 80A9      		ldd r24,Z+48
 15021 5346 8068      		ori r24,lo8(-128)
 15022 5348 80AB      		std Z+48,r24
 15023               	.LM1533:
 15024 534a 81E0      		ldi r24,lo8(1)
 15025 534c 8083      		st Z,r24
 15026               	.LM1534:
 15027 534e E0E4      		ldi r30,lo8(2368)
 15028 5350 F9E0      		ldi r31,hi8(2368)
 15029 5352 80E4      		ldi r24,lo8(14400)
 15030 5354 98E3      		ldi r25,hi8(14400)
 15031 5356 86A3      		std Z+38,r24
 15032 5358 97A3      		std Z+39,r25
 15033               	.LM1535:
 15034 535a 8081      		ld r24,Z
 15035 535c 807F      		andi r24,lo8(-16)
 15036 535e 8760      		ori r24,lo8(7)
 15037 5360 8083      		st Z,r24
 15038               	.LM1536:
 15039 5362 8681      		ldd r24,Z+6
 15040 5364 8360      		ori r24,lo8(3)
 15041 5366 8683      		std Z+6,r24
 15042               	.LM1537:
 15043 5368 E0E0      		ldi r30,lo8(2816)
 15044 536a FBE0      		ldi r31,hi8(2816)
 15045 536c 80E0      		ldi r24,lo8(256)
 15046 536e 91E0      		ldi r25,hi8(256)
 15047 5370 86A3      		std Z+38,r24
 15048 5372 97A3      		std Z+39,r25
 15049               	.LM1538:
 15050 5374 8081      		ld r24,Z
 15051 5376 807F      		andi r24,lo8(-16)
 15052 5378 8460      		ori r24,lo8(4)
 15053 537a 8083      		st Z,r24
 15054               	.LM1539:
 15055 537c 8681      		ldd r24,Z+6
 15056 537e 8360      		ori r24,lo8(3)
 15057 5380 8683      		std Z+6,r24
 15058               	/* epilogue start */
 15059               	.LM1540:
 15060 5382 0895      		ret
 15061               	.LFE134:
 15063               	.global	Sensors_ReadTemperature
 15065               	Sensors_ReadTemperature:
 15066               	.LFB135:
 15067               	.LM1541:
 15068               	/* prologue: function */
 15069               	/* frame size = 0 */
 15070               	.LM1542:
 15071 5384 E0E0      		ldi r30,lo8(512)
 15072 5386 F2E0      		ldi r31,hi8(512)
 15073 5388 6089      		ldd r22,Z+16
 15074 538a 7189      		ldd r23,Z+17
 15075 538c 80E0      		ldi r24,lo8(0)
 15076 538e 90E0      		ldi r25,hi8(0)
 15077               	.LVL1305:
 15078               	.LM1543:
 15079 5390 2AEA      		ldi r18,lo8(206250)
 15080 5392 35E2      		ldi r19,hi8(206250)
 15081 5394 43E0      		ldi r20,hlo8(206250)
 15082 5396 50E0      		ldi r21,hhi8(206250)
 15083 5398 0E94 0000 		call __mulsi3
 15084 539c 675F      		subi r22,lo8(-(-31984375))
 15085 539e 7A40      		sbci r23,hi8(-(-31984375))
 15086 53a0 884E      		sbci r24,hlo8(-(-31984375))
 15087 53a2 9140      		sbci r25,hhi8(-(-31984375))
 15088               	.LVL1306:
 15089 53a4 21E5      		ldi r18,lo8(358225)
 15090 53a6 37E7      		ldi r19,hi8(358225)
 15091 53a8 45E0      		ldi r20,hlo8(358225)
 15092 53aa 50E0      		ldi r21,hhi8(358225)
 15093 53ac 0E94 0000 		call __udivmodsi4
 15094               	.LVL1307:
 15095 53b0 C901      		movw r24,r18
 15096               	.LVL1308:
 15097               	/* epilogue start */
 15098               	.LM1544:
 15099 53b2 0895      		ret
 15100               	.LFE135:
 15102               	.global	Sensors_ReadHumidity
 15104               	Sensors_ReadHumidity:
 15105               	.LFB136:
 15106               	.LM1545:
 15107               	/* prologue: function */
 15108               	/* frame size = 0 */
 15109               	.LM1546:
 15110 53b4 E0E0      		ldi r30,lo8(512)
 15111 53b6 F2E0      		ldi r31,hi8(512)
 15112 53b8 6289      		ldd r22,Z+18
 15113 53ba 7389      		ldd r23,Z+19
 15114 53bc 80E0      		ldi r24,lo8(0)
 15115 53be 90E0      		ldi r25,hi8(0)
 15116               	.LVL1309:
 15117               	.LM1547:
 15118 53c0 27EC      		ldi r18,lo8(7623)
 15119 53c2 3DE1      		ldi r19,hi8(7623)
 15120 53c4 40E0      		ldi r20,hlo8(7623)
 15121 53c6 50E0      		ldi r21,hhi8(7623)
 15122 53c8 0E94 0000 		call __mulsi3
 15123 53cc 6C59      		subi r22,lo8(-(-1776796))
 15124 53ce 7C41      		sbci r23,hi8(-(-1776796))
 15125 53d0 8B41      		sbci r24,hlo8(-(-1776796))
 15126 53d2 9040      		sbci r25,hhi8(-(-1776796))
 15127               	.LVL1310:
 15128 53d4 28ED      		ldi r18,lo8(81880)
 15129 53d6 3FE3      		ldi r19,hi8(81880)
 15130 53d8 41E0      		ldi r20,hlo8(81880)
 15131 53da 50E0      		ldi r21,hhi8(81880)
 15132 53dc 0E94 0000 		call __udivmodsi4
 15133               	.LVL1311:
 15134 53e0 822F      		mov r24,r18
 15135               	.LVL1312:
 15136               	/* epilogue start */
 15137               	.LM1548:
 15138 53e2 0895      		ret
 15139               	.LFE136:
 15141               	.global	Sensors_ReadMicrophone
 15143               	Sensors_ReadMicrophone:
 15144               	.LFB137:
 15145               	.LM1549:
 15146               	/* prologue: function */
 15147               	/* frame size = 0 */
 15148               	.LM1550:
 15149 53e4 E0E0      		ldi r30,lo8(512)
 15150 53e6 F2E0      		ldi r31,hi8(512)
 15151 53e8 8689      		ldd r24,Z+22
 15152 53ea 9789      		ldd r25,Z+23
 15153 53ec F4E0      		ldi r31,4
 15154 53ee 9695      	1:	lsr r25
 15155 53f0 8795      		ror r24
 15156 53f2 FA95      		dec r31
 15157 53f4 01F4      		brne 1b
 15158               	/* epilogue start */
 15159               	.LM1551:
 15160 53f6 0895      		ret
 15161               	.LFE137:
 15163               	.global	Sensors_ReadPressure
 15165               	Sensors_ReadPressure:
 15166               	.LFB138:
 15167               	.LM1552:
 15168               	/* prologue: function */
 15169               	/* frame size = 0 */
 15170               	.LM1553:
 15171 53f8 E0E0      		ldi r30,lo8(512)
 15172 53fa F2E0      		ldi r31,hi8(512)
 15173 53fc 6489      		ldd r22,Z+20
 15174 53fe 7589      		ldd r23,Z+21
 15175 5400 80E0      		ldi r24,lo8(0)
 15176 5402 90E0      		ldi r25,hi8(0)
 15177               	.LVL1313:
 15178               	.LM1554:
 15179 5404 22E2      		ldi r18,lo8(41250)
 15180 5406 31EA      		ldi r19,hi8(41250)
 15181 5408 40E0      		ldi r20,hlo8(41250)
 15182 540a 50E0      		ldi r21,hhi8(41250)
 15183 540c 0E94 0000 		call __mulsi3
 15184 5410 6F53      		subi r22,lo8(-(6417345))
 15185 5412 7441      		sbci r23,hi8(-(6417345))
 15186 5414 8E49      		sbci r24,hlo8(-(6417345))
 15187 5416 9F4F      		sbci r25,hhi8(-(6417345))
 15188               	.LVL1314:
 15189 5418 27ED      		ldi r18,lo8(607959)
 15190 541a 36E4      		ldi r19,hi8(607959)
 15191 541c 49E0      		ldi r20,hlo8(607959)
 15192 541e 50E0      		ldi r21,hhi8(607959)
 15193 5420 0E94 0000 		call __udivmodsi4
 15194               	.LVL1315:
 15195 5424 822F      		mov r24,r18
 15196               	.LVL1316:
 15197               	/* epilogue start */
 15198               	.LM1555:
 15199 5426 0895      		ret
 15200               	.LFE138:
 15202               	.global	Sensors_ResetTemperatureBuffers
 15204               	Sensors_ResetTemperatureBuffers:
 15205               	.LFB139:
 15206               	.LM1556:
 15207               	/* prologue: function */
 15208               	/* frame size = 0 */
 15209               	.LM1557:
 15210 5428 1092 0000 		sts temperatureBufferCounter,__zero_reg__
 15211               	.LM1558:
 15212 542c 81E0      		ldi r24,lo8(1)
 15213 542e 8093 0000 		sts temperatureBufferToWriteTo,r24
 15214               	.LM1559:
 15215 5432 1092 0000 		sts okToSendTemperatureBuffer1,__zero_reg__
 15216               	.LM1560:
 15217 5436 1092 0000 		sts okToSendTemperatureBuffer2,__zero_reg__
 15218               	/* epilogue start */
 15219               	.LM1561:
 15220 543a 0895      		ret
 15221               	.LFE139:
 15223               	.global	Sensors_ResetPressureBuffers
 15225               	Sensors_ResetPressureBuffers:
 15226               	.LFB140:
 15227               	.LM1562:
 15228               	/* prologue: function */
 15229               	/* frame size = 0 */
 15230               	.LM1563:
 15231 543c 1092 0000 		sts pressureBufferCounter,__zero_reg__
 15232               	.LM1564:
 15233 5440 81E0      		ldi r24,lo8(1)
 15234 5442 8093 0000 		sts pressureBufferToWriteTo,r24
 15235               	.LM1565:
 15236 5446 1092 0000 		sts okToSendPressureBuffer1,__zero_reg__
 15237               	.LM1566:
 15238 544a 1092 0000 		sts okToSendPressureBuffer2,__zero_reg__
 15239               	/* epilogue start */
 15240               	.LM1567:
 15241 544e 0895      		ret
 15242               	.LFE140:
 15244               	.global	Sensors_ResetHumidityBuffers
 15246               	Sensors_ResetHumidityBuffers:
 15247               	.LFB141:
 15248               	.LM1568:
 15249               	/* prologue: function */
 15250               	/* frame size = 0 */
 15251               	.LM1569:
 15252 5450 1092 0000 		sts humidityBufferCounter,__zero_reg__
 15253               	.LM1570:
 15254 5454 81E0      		ldi r24,lo8(1)
 15255 5456 8093 0000 		sts humidityBufferToWriteTo,r24
 15256               	.LM1571:
 15257 545a 1092 0000 		sts okToSendHumidityBuffer1,__zero_reg__
 15258               	.LM1572:
 15259 545e 1092 0000 		sts okToSendHumidityBuffer2,__zero_reg__
 15260               	/* epilogue start */
 15261               	.LM1573:
 15262 5462 0895      		ret
 15263               	.LFE141:
 15265               	.global	Sensors_ResetMicrophoneBuffers
 15267               	Sensors_ResetMicrophoneBuffers:
 15268               	.LFB142:
 15269               	.LM1574:
 15270               	/* prologue: function */
 15271               	/* frame size = 0 */
 15272               	.LM1575:
 15273 5464 1092 0000 		sts microphoneBufferCounter,__zero_reg__
 15274 5468 1092 0000 		sts (microphoneBufferCounter)+1,__zero_reg__
 15275               	.LM1576:
 15276 546c 81E0      		ldi r24,lo8(1)
 15277 546e 8093 0000 		sts microphoneBufferToWriteTo,r24
 15278               	.LM1577:
 15279 5472 1092 0000 		sts okToSendMicrophoneBuffer1,__zero_reg__
 15280               	.LM1578:
 15281 5476 1092 0000 		sts okToSendMicrophoneBuffer2,__zero_reg__
 15282               	/* epilogue start */
 15283               	.LM1579:
 15284 547a 0895      		ret
 15285               	.LFE142:
 15287               	.global	Sensors_ResetLightBuffers
 15289               	Sensors_ResetLightBuffers:
 15290               	.LFB143:
 15291               	.LM1580:
 15292               	/* prologue: function */
 15293               	/* frame size = 0 */
 15294               	.LM1581:
 15295 547c 1092 0000 		sts lightBufferCounter,__zero_reg__
 15296               	.LM1582:
 15297 5480 81E0      		ldi r24,lo8(1)
 15298 5482 8093 0000 		sts lightBufferToWriteTo,r24
 15299               	.LM1583:
 15300 5486 1092 0000 		sts okToSendLightBuffer1,__zero_reg__
 15301               	.LM1584:
 15302 548a 1092 0000 		sts okToSendLightBuffer2,__zero_reg__
 15303               	/* epilogue start */
 15304               	.LM1585:
 15305 548e 0895      		ret
 15306               	.LFE143:
 15308               	.global	__vector_108
 15310               	__vector_108:
 15311               	.LFB145:
 15312               	.LM1586:
 15313 5490 1F92      		push __zero_reg__
 15314 5492 0F92      		push r0
 15315 5494 0FB6      		in r0,__SREG__
 15316 5496 0F92      		push r0
 15317 5498 0BB6      		in r0,59-0
 15318 549a 0F92      		push r0
 15319 549c 1124      		clr __zero_reg__
 15320 549e 0F93      		push r16
 15321 54a0 1F93      		push r17
 15322 54a2 2F93      		push r18
 15323 54a4 3F93      		push r19
 15324 54a6 4F93      		push r20
 15325 54a8 5F93      		push r21
 15326 54aa 6F93      		push r22
 15327 54ac 7F93      		push r23
 15328 54ae 8F93      		push r24
 15329 54b0 9F93      		push r25
 15330 54b2 AF93      		push r26
 15331 54b4 BF93      		push r27
 15332 54b6 EF93      		push r30
 15333 54b8 FF93      		push r31
 15334               	/* prologue: Signal */
 15335               	/* frame size = 0 */
 15336               	.LM1587:
 15337 54ba 8091 0000 		lds r24,recording
 15338 54be 8823      		tst r24
 15339 54c0 01F4      		brne .+2
 15340 54c2 00C0      		rjmp .L942
 15341 54c4 8091 0000 		lds r24,wantToRecordMicrophone
 15342 54c8 8823      		tst r24
 15343 54ca 01F4      		brne .+2
 15344 54cc 00C0      		rjmp .L942
 15345               	.LM1588:
 15346 54ce 8091 0000 		lds r24,microphoneBufferToWriteTo
 15347 54d2 8130      		cpi r24,lo8(1)
 15348 54d4 01F0      		breq .+2
 15349 54d6 00C0      		rjmp .L943
 15350               	.LM1589:
 15351 54d8 8091 0000 		lds r24,microphoneBufferCounter
 15352 54dc 9091 0000 		lds r25,(microphoneBufferCounter)+1
 15353 54e0 892B      		or r24,r25
 15354 54e2 01F4      		brne .L944
 15355               	.LM1590:
 15356 54e4 0E94 0000 		call Time_Get32BitTimer
 15357 54e8 6093 0000 		sts microphoneSampleStartTime1,r22
 15358 54ec 7093 0000 		sts (microphoneSampleStartTime1)+1,r23
 15359 54f0 8093 0000 		sts (microphoneSampleStartTime1)+2,r24
 15360 54f4 9093 0000 		sts (microphoneSampleStartTime1)+3,r25
 15361               	.L944:
 15362               	.LM1591:
 15363 54f8 0091 0000 		lds r16,microphoneBufferCounter
 15364 54fc 1091 0000 		lds r17,(microphoneBufferCounter)+1
 15365 5500 0E94 0000 		call Sensors_ReadMicrophone
 15366 5504 0050      		subi r16,lo8(-(microphoneBuffer1))
 15367 5506 1040      		sbci r17,hi8(-(microphoneBuffer1))
 15368 5508 F801      		movw r30,r16
 15369 550a 8083      		st Z,r24
 15370               	.LM1592:
 15371 550c 8091 0000 		lds r24,micSampleCounter
 15372 5510 8823      		tst r24
 15373 5512 01F4      		brne .L945
 15374               	.LM1593:
 15375 5514 E091 0000 		lds r30,microphoneBufferCounter
 15376 5518 F091 0000 		lds r31,(microphoneBufferCounter)+1
 15377 551c E050      		subi r30,lo8(-(microphoneBuffer1))
 15378 551e F040      		sbci r31,hi8(-(microphoneBuffer1))
 15379 5520 8081      		ld r24,Z
 15380 5522 8093 0000 		sts quickMic,r24
 15381               	.L945:
 15382               	.LM1594:
 15383 5526 8091 0000 		lds r24,microphoneBufferCounter
 15384 552a 9091 0000 		lds r25,(microphoneBufferCounter)+1
 15385 552e 0196      		adiw r24,1
 15386 5530 8093 0000 		sts microphoneBufferCounter,r24
 15387 5534 9093 0000 		sts (microphoneBufferCounter)+1,r25
 15388               	.LM1595:
 15389 5538 885E      		subi r24,lo8(1000)
 15390 553a 9340      		sbci r25,hi8(1000)
 15391 553c 01F0      		breq .+2
 15392 553e 00C0      		rjmp .L946
 15393               	.LM1596:
 15394 5540 8091 0000 		lds r24,microphoneBuffer1
 15395 5544 8093 0000 		sts quickMic,r24
 15396               	.LM1597:
 15397 5548 1092 0000 		sts microphoneBufferCounter,__zero_reg__
 15398 554c 1092 0000 		sts (microphoneBufferCounter)+1,__zero_reg__
 15399               	.LM1598:
 15400 5550 82E0      		ldi r24,lo8(2)
 15401 5552 8093 0000 		sts microphoneBufferToWriteTo,r24
 15402               	.LM1599:
 15403 5556 81E0      		ldi r24,lo8(1)
 15404 5558 8093 0000 		sts okToSendMicrophoneBuffer1,r24
 15405 555c 00C0      		rjmp .L946
 15406               	.L943:
 15407               	.LM1600:
 15408 555e 8230      		cpi r24,lo8(2)
 15409 5560 01F0      		breq .+2
 15410 5562 00C0      		rjmp .L946
 15411               	.LM1601:
 15412 5564 8091 0000 		lds r24,microphoneBufferCounter
 15413 5568 9091 0000 		lds r25,(microphoneBufferCounter)+1
 15414 556c 892B      		or r24,r25
 15415 556e 01F4      		brne .L947
 15416               	.LM1602:
 15417 5570 0E94 0000 		call Time_Get32BitTimer
 15418 5574 6093 0000 		sts microphoneSampleStartTime2,r22
 15419 5578 7093 0000 		sts (microphoneSampleStartTime2)+1,r23
 15420 557c 8093 0000 		sts (microphoneSampleStartTime2)+2,r24
 15421 5580 9093 0000 		sts (microphoneSampleStartTime2)+3,r25
 15422               	.L947:
 15423               	.LM1603:
 15424 5584 0091 0000 		lds r16,microphoneBufferCounter
 15425 5588 1091 0000 		lds r17,(microphoneBufferCounter)+1
 15426 558c 0E94 0000 		call Sensors_ReadMicrophone
 15427 5590 0050      		subi r16,lo8(-(microphoneBuffer2))
 15428 5592 1040      		sbci r17,hi8(-(microphoneBuffer2))
 15429 5594 F801      		movw r30,r16
 15430 5596 8083      		st Z,r24
 15431               	.LM1604:
 15432 5598 8091 0000 		lds r24,micSampleCounter
 15433 559c 8823      		tst r24
 15434 559e 01F4      		brne .L948
 15435               	.LM1605:
 15436 55a0 E091 0000 		lds r30,microphoneBufferCounter
 15437 55a4 F091 0000 		lds r31,(microphoneBufferCounter)+1
 15438 55a8 E050      		subi r30,lo8(-(microphoneBuffer2))
 15439 55aa F040      		sbci r31,hi8(-(microphoneBuffer2))
 15440 55ac 8081      		ld r24,Z
 15441 55ae 8093 0000 		sts quickMic,r24
 15442               	.L948:
 15443               	.LM1606:
 15444 55b2 8091 0000 		lds r24,microphoneBufferCounter
 15445 55b6 9091 0000 		lds r25,(microphoneBufferCounter)+1
 15446 55ba 0196      		adiw r24,1
 15447 55bc 8093 0000 		sts microphoneBufferCounter,r24
 15448 55c0 9093 0000 		sts (microphoneBufferCounter)+1,r25
 15449               	.LM1607:
 15450 55c4 885E      		subi r24,lo8(1000)
 15451 55c6 9340      		sbci r25,hi8(1000)
 15452 55c8 01F4      		brne .L946
 15453               	.LM1608:
 15454 55ca 8091 0000 		lds r24,microphoneBuffer2
 15455 55ce 8093 0000 		sts quickMic,r24
 15456               	.LM1609:
 15457 55d2 1092 0000 		sts microphoneBufferCounter,__zero_reg__
 15458 55d6 1092 0000 		sts (microphoneBufferCounter)+1,__zero_reg__
 15459               	.LM1610:
 15460 55da 81E0      		ldi r24,lo8(1)
 15461 55dc 8093 0000 		sts microphoneBufferToWriteTo,r24
 15462               	.LM1611:
 15463 55e0 8093 0000 		sts okToSendMicrophoneBuffer2,r24
 15464 55e4 00C0      		rjmp .L946
 15465               	.L942:
 15466               	.LM1612:
 15467 55e6 8091 0000 		lds r24,micSampleCounter
 15468 55ea 8823      		tst r24
 15469 55ec 01F4      		brne .L946
 15470               	.LM1613:
 15471 55ee 0E94 0000 		call Sensors_ReadMicrophone
 15472 55f2 8093 0000 		sts quickMic,r24
 15473               	.L946:
 15474               	.LM1614:
 15475 55f6 8091 0000 		lds r24,micSampleCounter
 15476 55fa 8F5F      		subi r24,lo8(-(1))
 15477 55fc 8093 0000 		sts micSampleCounter,r24
 15478               	/* epilogue start */
 15479               	.LM1615:
 15480 5600 FF91      		pop r31
 15481 5602 EF91      		pop r30
 15482 5604 BF91      		pop r27
 15483 5606 AF91      		pop r26
 15484 5608 9F91      		pop r25
 15485 560a 8F91      		pop r24
 15486 560c 7F91      		pop r23
 15487 560e 6F91      		pop r22
 15488 5610 5F91      		pop r21
 15489 5612 4F91      		pop r20
 15490 5614 3F91      		pop r19
 15491 5616 2F91      		pop r18
 15492 5618 1F91      		pop r17
 15493 561a 0F91      		pop r16
 15494 561c 0F90      		pop r0
 15495 561e 0BBE      		out 59-0,r0
 15496 5620 0F90      		pop r0
 15497 5622 0FBE      		out __SREG__,r0
 15498 5624 0F90      		pop r0
 15499 5626 1F90      		pop __zero_reg__
 15500 5628 1895      		reti
 15501               	.LFE145:
 15503               	.global	Light_readByte
 15505               	Light_readByte:
 15506               	.LFB147:
 15507               	.LM1616:
 15508               	.LVL1317:
 15509               	/* prologue: function */
 15510               	/* frame size = 0 */
 15511               	.LM1617:
 15512 562a 3091 0000 		lds r19,deviceAddress
 15513 562e 932F      		mov r25,r19
 15514 5630 9E7F      		andi r25,lo8(-2)
 15515               	.LM1618:
 15516 5632 282F      		mov r18,r24
 15517 5634 2068      		ori r18,lo8(-128)
 15518 5636 2093 0000 		sts commandCode,r18
 15519               	.LM1619:
 15520 563a E0E8      		ldi r30,lo8(1152)
 15521 563c F4E0      		ldi r31,hi8(1152)
 15522 563e 9683      		std Z+6,r25
 15523               	.L951:
 15524               	.LM1620:
 15525 5640 8091 8404 		lds r24,1156
 15526               	.LVL1318:
 15527 5644 86FF      		sbrs r24,6
 15528 5646 00C0      		rjmp .L951
 15529               	.LM1621:
 15530 5648 E0E8      		ldi r30,lo8(1152)
 15531 564a F4E0      		ldi r31,hi8(1152)
 15532 564c 2783      		std Z+7,r18
 15533               	.L952:
 15534               	.LM1622:
 15535 564e 8091 8404 		lds r24,1156
 15536 5652 86FF      		sbrs r24,6
 15537 5654 00C0      		rjmp .L952
 15538               	.LM1623:
 15539 5656 832F      		mov r24,r19
 15540 5658 8160      		ori r24,lo8(1)
 15541 565a 8093 0000 		sts writeAddress,r24
 15542               	.LM1624:
 15543 565e E0E8      		ldi r30,lo8(1152)
 15544 5660 F4E0      		ldi r31,hi8(1152)
 15545 5662 8683      		std Z+6,r24
 15546               	.L953:
 15547               	.LM1625:
 15548 5664 8091 8404 		lds r24,1156
 15549 5668 87FF      		sbrs r24,7
 15550 566a 00C0      		rjmp .L953
 15551               	.LM1626:
 15552 566c 8091 8704 		lds r24,1159
 15553               	.LVL1319:
 15554               	.LM1627:
 15555 5670 97E0      		ldi r25,lo8(7)
 15556 5672 E0E8      		ldi r30,lo8(1152)
 15557 5674 F4E0      		ldi r31,hi8(1152)
 15558 5676 9383      		std Z+3,r25
 15559               	.LVL1320:
 15560               	/* epilogue start */
 15561               	.LM1628:
 15562 5678 0895      		ret
 15563               	.LFE147:
 15565               	.global	Light_readColors
 15567               	Light_readColors:
 15568               	.LFB148:
 15569               	.LM1629:
 15570               	/* prologue: function */
 15571               	/* frame size = 0 */
 15572               	.LM1630:
 15573 567a 80E0      		ldi r24,lo8(0)
 15574 567c 0E94 0000 		call Light_readByte
 15575               	.LM1631:
 15576 5680 2091 0000 		lds r18,deviceAddress
 15577 5684 922F      		mov r25,r18
 15578 5686 9E7F      		andi r25,lo8(-2)
 15579               	.LM1632:
 15580 5688 80E9      		ldi r24,lo8(-112)
 15581 568a 8093 0000 		sts commandCode,r24
 15582               	.LM1633:
 15583 568e E0E8      		ldi r30,lo8(1152)
 15584 5690 F4E0      		ldi r31,hi8(1152)
 15585 5692 9683      		std Z+6,r25
 15586               	.L959:
 15587               	.LM1634:
 15588 5694 8091 8404 		lds r24,1156
 15589 5698 86FF      		sbrs r24,6
 15590 569a 00C0      		rjmp .L959
 15591               	.LM1635:
 15592 569c 80E9      		ldi r24,lo8(-112)
 15593 569e E0E8      		ldi r30,lo8(1152)
 15594 56a0 F4E0      		ldi r31,hi8(1152)
 15595 56a2 8783      		std Z+7,r24
 15596               	.L960:
 15597               	.LM1636:
 15598 56a4 8091 8404 		lds r24,1156
 15599 56a8 86FF      		sbrs r24,6
 15600 56aa 00C0      		rjmp .L960
 15601               	.LM1637:
 15602 56ac 822F      		mov r24,r18
 15603 56ae 8160      		ori r24,lo8(1)
 15604 56b0 8093 0000 		sts writeAddress,r24
 15605               	.LM1638:
 15606 56b4 E0E8      		ldi r30,lo8(1152)
 15607 56b6 F4E0      		ldi r31,hi8(1152)
 15608 56b8 8683      		std Z+6,r24
 15609 56ba E0E0      		ldi r30,lo8(colors8)
 15610 56bc F0E0      		ldi r31,hi8(colors8)
 15611 56be 90E0      		ldi r25,lo8(0)
 15612               	.LVL1321:
 15613               	.LBB966:
 15614               	.LM1639:
 15615 56c0 A0E8      		ldi r26,lo8(1152)
 15616 56c2 B4E0      		ldi r27,hi8(1152)
 15617               	.LM1640:
 15618 56c4 22E0      		ldi r18,lo8(2)
 15619               	.L968:
 15620               	.LM1641:
 15621 56c6 8091 8404 		lds r24,1156
 15622 56ca 87FF      		sbrs r24,7
 15623 56cc 00C0      		rjmp .L968
 15624               	.LM1642:
 15625 56ce 8091 8704 		lds r24,1159
 15626 56d2 8083      		st Z,r24
 15627               	.LM1643:
 15628 56d4 9730      		cpi r25,lo8(7)
 15629 56d6 01F0      		breq .L962
 15630               	.LM1644:
 15631 56d8 1396      		adiw r26,3
 15632 56da 2C93      		st X,r18
 15633 56dc 1397      		sbiw r26,3
 15634               	.L962:
 15635               	.LM1645:
 15636 56de 9F5F      		subi r25,lo8(-(1))
 15637 56e0 3196      		adiw r30,1
 15638 56e2 9830      		cpi r25,lo8(8)
 15639 56e4 01F4      		brne .L968
 15640               	.LBE966:
 15641               	.LM1646:
 15642 56e6 87E0      		ldi r24,lo8(7)
 15643 56e8 E0E8      		ldi r30,lo8(1152)
 15644 56ea F4E0      		ldi r31,hi8(1152)
 15645 56ec 8383      		std Z+3,r24
 15646               	.LM1647:
 15647 56ee 9091 0000 		lds r25,colors8+1
 15648               	.LVL1322:
 15649 56f2 80E0      		ldi r24,lo8(0)
 15650 56f4 2091 0000 		lds r18,colors8
 15651 56f8 820F      		add r24,r18
 15652 56fa 911D      		adc r25,__zero_reg__
 15653 56fc 8093 0000 		sts colors,r24
 15654 5700 9093 0000 		sts (colors)+1,r25
 15655               	.LM1648:
 15656 5704 9091 0000 		lds r25,colors8+3
 15657 5708 80E0      		ldi r24,lo8(0)
 15658 570a 2091 0000 		lds r18,colors8+2
 15659 570e 820F      		add r24,r18
 15660 5710 911D      		adc r25,__zero_reg__
 15661 5712 8093 0000 		sts colors+2,r24
 15662 5716 9093 0000 		sts (colors+2)+1,r25
 15663               	.LM1649:
 15664 571a 9091 0000 		lds r25,colors8+5
 15665 571e 80E0      		ldi r24,lo8(0)
 15666 5720 2091 0000 		lds r18,colors8+4
 15667 5724 820F      		add r24,r18
 15668 5726 911D      		adc r25,__zero_reg__
 15669 5728 8093 0000 		sts colors+4,r24
 15670 572c 9093 0000 		sts (colors+4)+1,r25
 15671               	.LM1650:
 15672 5730 9091 0000 		lds r25,colors8+7
 15673 5734 80E0      		ldi r24,lo8(0)
 15674 5736 2091 0000 		lds r18,colors8+6
 15675 573a 820F      		add r24,r18
 15676 573c 911D      		adc r25,__zero_reg__
 15677 573e 8093 0000 		sts colors+6,r24
 15678 5742 9093 0000 		sts (colors+6)+1,r25
 15679               	/* epilogue start */
 15680               	.LM1651:
 15681 5746 0895      		ret
 15682               	.LFE148:
 15684               	.global	Light_returnColor
 15686               	Light_returnColor:
 15687               	.LFB149:
 15688               	.LM1652:
 15689               	.LVL1323:
 15690               	/* prologue: function */
 15691               	/* frame size = 0 */
 15692               	.LM1653:
 15693 5748 E82F      		mov r30,r24
 15694 574a F0E0      		ldi r31,lo8(0)
 15695 574c EE0F      		lsl r30
 15696 574e FF1F      		rol r31
 15697 5750 E050      		subi r30,lo8(-(colors))
 15698 5752 F040      		sbci r31,hi8(-(colors))
 15699               	.LM1654:
 15700 5754 8081      		ld r24,Z
 15701               	.LVL1324:
 15702 5756 9181      		ldd r25,Z+1
 15703               	/* epilogue start */
 15704 5758 0895      		ret
 15705               	.LFE149:
 15707               	.global	Light_writeByte
 15709               	Light_writeByte:
 15710               	.LFB150:
 15711               	.LM1655:
 15712               	.LVL1325:
 15713               	/* prologue: function */
 15714               	/* frame size = 0 */
 15715               	.LM1656:
 15716 575a 9091 0000 		lds r25,deviceAddress
 15717 575e 9E7F      		andi r25,lo8(-2)
 15718 5760 9093 0000 		sts writeAddress,r25
 15719               	.LM1657:
 15720 5764 282F      		mov r18,r24
 15721 5766 2068      		ori r18,lo8(-128)
 15722 5768 2093 0000 		sts commandCode,r18
 15723               	.LM1658:
 15724 576c E0E8      		ldi r30,lo8(1152)
 15725 576e F4E0      		ldi r31,hi8(1152)
 15726 5770 9683      		std Z+6,r25
 15727               	.L972:
 15728               	.LM1659:
 15729 5772 8091 8404 		lds r24,1156
 15730               	.LVL1326:
 15731 5776 86FF      		sbrs r24,6
 15732 5778 00C0      		rjmp .L972
 15733               	.LM1660:
 15734 577a E0E8      		ldi r30,lo8(1152)
 15735 577c F4E0      		ldi r31,hi8(1152)
 15736 577e 2783      		std Z+7,r18
 15737               	.L973:
 15738               	.LM1661:
 15739 5780 8091 8404 		lds r24,1156
 15740 5784 86FF      		sbrs r24,6
 15741 5786 00C0      		rjmp .L973
 15742               	.LM1662:
 15743 5788 E0E8      		ldi r30,lo8(1152)
 15744 578a F4E0      		ldi r31,hi8(1152)
 15745 578c 6783      		std Z+7,r22
 15746               	.L974:
 15747               	.LM1663:
 15748 578e 8091 8404 		lds r24,1156
 15749 5792 86FF      		sbrs r24,6
 15750 5794 00C0      		rjmp .L974
 15751               	.LM1664:
 15752 5796 87E0      		ldi r24,lo8(7)
 15753 5798 E0E8      		ldi r30,lo8(1152)
 15754 579a F4E0      		ldi r31,hi8(1152)
 15755 579c 8383      		std Z+3,r24
 15756               	/* epilogue start */
 15757               	.LM1665:
 15758 579e 0895      		ret
 15759               	.LFE150:
 15761               	.global	Light_setGain
 15763               	Light_setGain:
 15764               	.LFB151:
 15765               	.LM1666:
 15766               	/* prologue: function */
 15767               	/* frame size = 0 */
 15768               	.LM1667:
 15769 57a0 80E0      		ldi r24,lo8(0)
 15770 57a2 61E0      		ldi r22,lo8(1)
 15771 57a4 0E94 0000 		call Light_writeByte
 15772               	.LM1668:
 15773 57a8 8091 0000 		lds r24,gainSelector
 15774 57ac E0E0      		ldi r30,lo8(integrationTime)
 15775 57ae F0E0      		ldi r31,hi8(integrationTime)
 15776 57b0 E80F      		add r30,r24
 15777 57b2 F11D      		adc r31,__zero_reg__
 15778 57b4 81E0      		ldi r24,lo8(1)
 15779 57b6 6081      		ld r22,Z
 15780 57b8 0E94 0000 		call Light_writeByte
 15781               	.LM1669:
 15782 57bc 8091 0000 		lds r24,gainSelector
 15783 57c0 E0E0      		ldi r30,lo8(gainSetting)
 15784 57c2 F0E0      		ldi r31,hi8(gainSetting)
 15785 57c4 E80F      		add r30,r24
 15786 57c6 F11D      		adc r31,__zero_reg__
 15787 57c8 87E0      		ldi r24,lo8(7)
 15788 57ca 6081      		ld r22,Z
 15789 57cc 0E94 0000 		call Light_writeByte
 15790               	.LM1670:
 15791 57d0 80E0      		ldi r24,lo8(0)
 15792 57d2 63E0      		ldi r22,lo8(3)
 15793 57d4 0E94 0000 		call Light_writeByte
 15794               	/* epilogue start */
 15795               	.LM1671:
 15796 57d8 0895      		ret
 15797               	.LFE151:
 15799               	.global	Light_Init
 15801               	Light_Init:
 15802               	.LFB146:
 15803               	.LM1672:
 15804               	.LVL1327:
 15805               	/* prologue: function */
 15806               	/* frame size = 0 */
 15807               	.LM1673:
 15808 57da 8093 0000 		sts deviceAddress,r24
 15809               	.LM1674:
 15810 57de E0E8      		ldi r30,lo8(1152)
 15811 57e0 F4E0      		ldi r31,hi8(1152)
 15812 57e2 88E0      		ldi r24,lo8(8)
 15813               	.LVL1328:
 15814 57e4 8183      		std Z+1,r24
 15815               	.LM1675:
 15816 57e6 84E0      		ldi r24,lo8(4)
 15817 57e8 8383      		std Z+3,r24
 15818               	.LM1676:
 15819 57ea 8DE0      		ldi r24,lo8(13)
 15820 57ec 8583      		std Z+5,r24
 15821               	.LM1677:
 15822 57ee 81E0      		ldi r24,lo8(1)
 15823 57f0 8483      		std Z+4,r24
 15824               	.LM1678:
 15825 57f2 1092 0000 		sts gainSelector,__zero_reg__
 15826               	.LM1679:
 15827 57f6 0E94 0000 		call Light_setGain
 15828               	/* epilogue start */
 15829               	.LM1680:
 15830 57fa 0895      		ret
 15831               	.LFE146:
 15833               	.global	__vector_83
 15835               	__vector_83:
 15836               	.LFB144:
 15837               	.LM1681:
 15838 57fc 1F92      		push __zero_reg__
 15839 57fe 0F92      		push r0
 15840 5800 0FB6      		in r0,__SREG__
 15841 5802 0F92      		push r0
 15842 5804 0BB6      		in r0,59-0
 15843 5806 0F92      		push r0
 15844 5808 1124      		clr __zero_reg__
 15845 580a 6F92      		push r6
 15846 580c 7F92      		push r7
 15847 580e 8F92      		push r8
 15848 5810 9F92      		push r9
 15849 5812 AF92      		push r10
 15850 5814 BF92      		push r11
 15851 5816 CF92      		push r12
 15852 5818 DF92      		push r13
 15853 581a EF92      		push r14
 15854 581c FF92      		push r15
 15855 581e 0F93      		push r16
 15856 5820 1F93      		push r17
 15857 5822 2F93      		push r18
 15858 5824 3F93      		push r19
 15859 5826 4F93      		push r20
 15860 5828 5F93      		push r21
 15861 582a 6F93      		push r22
 15862 582c 7F93      		push r23
 15863 582e 8F93      		push r24
 15864 5830 9F93      		push r25
 15865 5832 AF93      		push r26
 15866 5834 BF93      		push r27
 15867 5836 CF93      		push r28
 15868 5838 DF93      		push r29
 15869 583a EF93      		push r30
 15870 583c FF93      		push r31
 15871               	/* prologue: Signal */
 15872               	/* frame size = 0 */
 15873               	.LM1682:
 15874 583e 8091 0000 		lds r24,recording
 15875 5842 8823      		tst r24
 15876 5844 01F4      		brne .+2
 15877 5846 00C0      		rjmp .L984
 15878               	.LM1683:
 15879 5848 8091 0000 		lds r24,rtcBlockCounter
 15880 584c 8F5F      		subi r24,lo8(-(1))
 15881 584e 8093 0000 		sts rtcBlockCounter,r24
 15882               	.LM1684:
 15883 5852 8823      		tst r24
 15884 5854 01F4      		brne .L985
 15885               	.LM1685:
 15886 5856 81E0      		ldi r24,lo8(1)
 15887 5858 8093 0000 		sts okToSendRTCBlock,r24
 15888               	.L985:
 15889               	.LM1686:
 15890 585c 8091 0000 		lds r24,wantToRecordTemperature
 15891 5860 8823      		tst r24
 15892 5862 01F4      		brne .+2
 15893 5864 00C0      		rjmp .L986
 15894               	.LM1687:
 15895 5866 8091 0000 		lds r24,temperatureBufferToWriteTo
 15896 586a 8130      		cpi r24,lo8(1)
 15897 586c 01F4      		brne .L987
 15898               	.LM1688:
 15899 586e 8091 0000 		lds r24,temperatureBufferCounter
 15900 5872 8823      		tst r24
 15901 5874 01F4      		brne .L988
 15902               	.LM1689:
 15903 5876 0E94 0000 		call Time_Get32BitTimer
 15904 587a 6093 0000 		sts temperatureSampleStartTime1,r22
 15905 587e 7093 0000 		sts (temperatureSampleStartTime1)+1,r23
 15906 5882 8093 0000 		sts (temperatureSampleStartTime1)+2,r24
 15907 5886 9093 0000 		sts (temperatureSampleStartTime1)+3,r25
 15908               	.L988:
 15909               	.LM1690:
 15910 588a 8091 0000 		lds r24,temperatureBufferCounter
 15911 588e C82F      		mov r28,r24
 15912 5890 D0E0      		ldi r29,lo8(0)
 15913 5892 0E94 0000 		call Sensors_ReadTemperature
 15914 5896 CC0F      		lsl r28
 15915 5898 DD1F      		rol r29
 15916 589a C050      		subi r28,lo8(-(temperatureBuffer1))
 15917 589c D040      		sbci r29,hi8(-(temperatureBuffer1))
 15918 589e 8883      		st Y,r24
 15919 58a0 9983      		std Y+1,r25
 15920               	.LM1691:
 15921 58a2 2091 0000 		lds r18,temperatureBufferCounter
 15922 58a6 E22F      		mov r30,r18
 15923 58a8 F0E0      		ldi r31,lo8(0)
 15924 58aa EE0F      		lsl r30
 15925 58ac FF1F      		rol r31
 15926 58ae E050      		subi r30,lo8(-(temperatureBuffer1))
 15927 58b0 F040      		sbci r31,hi8(-(temperatureBuffer1))
 15928 58b2 8081      		ld r24,Z
 15929 58b4 9181      		ldd r25,Z+1
 15930 58b6 6AE0      		ldi r22,lo8(10)
 15931 58b8 70E0      		ldi r23,hi8(10)
 15932 58ba 0E94 0000 		call __udivmodhi4
 15933 58be 6093 0000 		sts quickTemperature,r22
 15934               	.LM1692:
 15935 58c2 2F5F      		subi r18,lo8(-(1))
 15936 58c4 2093 0000 		sts temperatureBufferCounter,r18
 15937               	.LM1693:
 15938 58c8 2A30      		cpi r18,lo8(10)
 15939 58ca 01F0      		breq .+2
 15940 58cc 00C0      		rjmp .L986
 15941               	.LM1694:
 15942 58ce 1092 0000 		sts temperatureBufferCounter,__zero_reg__
 15943               	.LM1695:
 15944 58d2 82E0      		ldi r24,lo8(2)
 15945 58d4 8093 0000 		sts temperatureBufferToWriteTo,r24
 15946               	.LM1696:
 15947 58d8 81E0      		ldi r24,lo8(1)
 15948 58da 8093 0000 		sts okToSendTemperatureBuffer1,r24
 15949 58de 00C0      		rjmp .L986
 15950               	.L987:
 15951               	.LM1697:
 15952 58e0 8230      		cpi r24,lo8(2)
 15953 58e2 01F4      		brne .L986
 15954               	.LM1698:
 15955 58e4 8091 0000 		lds r24,temperatureBufferCounter
 15956 58e8 8823      		tst r24
 15957 58ea 01F4      		brne .L989
 15958               	.LM1699:
 15959 58ec 0E94 0000 		call Time_Get32BitTimer
 15960 58f0 6093 0000 		sts temperatureSampleStartTime2,r22
 15961 58f4 7093 0000 		sts (temperatureSampleStartTime2)+1,r23
 15962 58f8 8093 0000 		sts (temperatureSampleStartTime2)+2,r24
 15963 58fc 9093 0000 		sts (temperatureSampleStartTime2)+3,r25
 15964               	.L989:
 15965               	.LM1700:
 15966 5900 8091 0000 		lds r24,temperatureBufferCounter
 15967 5904 C82F      		mov r28,r24
 15968 5906 D0E0      		ldi r29,lo8(0)
 15969 5908 0E94 0000 		call Sensors_ReadTemperature
 15970 590c CC0F      		lsl r28
 15971 590e DD1F      		rol r29
 15972 5910 C050      		subi r28,lo8(-(temperatureBuffer2))
 15973 5912 D040      		sbci r29,hi8(-(temperatureBuffer2))
 15974 5914 8883      		st Y,r24
 15975 5916 9983      		std Y+1,r25
 15976               	.LM1701:
 15977 5918 2091 0000 		lds r18,temperatureBufferCounter
 15978 591c E22F      		mov r30,r18
 15979 591e F0E0      		ldi r31,lo8(0)
 15980 5920 EE0F      		lsl r30
 15981 5922 FF1F      		rol r31
 15982 5924 E050      		subi r30,lo8(-(temperatureBuffer2))
 15983 5926 F040      		sbci r31,hi8(-(temperatureBuffer2))
 15984 5928 8081      		ld r24,Z
 15985 592a 9181      		ldd r25,Z+1
 15986 592c 6AE0      		ldi r22,lo8(10)
 15987 592e 70E0      		ldi r23,hi8(10)
 15988 5930 0E94 0000 		call __udivmodhi4
 15989 5934 6093 0000 		sts quickTemperature,r22
 15990               	.LM1702:
 15991 5938 2F5F      		subi r18,lo8(-(1))
 15992 593a 2093 0000 		sts temperatureBufferCounter,r18
 15993               	.LM1703:
 15994 593e 2A30      		cpi r18,lo8(10)
 15995 5940 01F4      		brne .L986
 15996               	.LM1704:
 15997 5942 1092 0000 		sts temperatureBufferCounter,__zero_reg__
 15998               	.LM1705:
 15999 5946 81E0      		ldi r24,lo8(1)
 16000 5948 8093 0000 		sts temperatureBufferToWriteTo,r24
 16001               	.LM1706:
 16002 594c 8093 0000 		sts okToSendTemperatureBuffer2,r24
 16003               	.L986:
 16004               	.LM1707:
 16005 5950 8091 0000 		lds r24,wantToRecordHumidity
 16006 5954 8823      		tst r24
 16007 5956 01F4      		brne .+2
 16008 5958 00C0      		rjmp .L990
 16009               	.LM1708:
 16010 595a 8091 0000 		lds r24,humidityBufferToWriteTo
 16011 595e 8130      		cpi r24,lo8(1)
 16012 5960 01F4      		brne .L991
 16013               	.LM1709:
 16014 5962 8091 0000 		lds r24,humidityBufferCounter
 16015 5966 8823      		tst r24
 16016 5968 01F4      		brne .L992
 16017               	.LM1710:
 16018 596a 0E94 0000 		call Time_Get32BitTimer
 16019 596e 6093 0000 		sts humiditySampleStartTime1,r22
 16020 5972 7093 0000 		sts (humiditySampleStartTime1)+1,r23
 16021 5976 8093 0000 		sts (humiditySampleStartTime1)+2,r24
 16022 597a 9093 0000 		sts (humiditySampleStartTime1)+3,r25
 16023               	.L992:
 16024               	.LM1711:
 16025 597e 8091 0000 		lds r24,humidityBufferCounter
 16026 5982 C82F      		mov r28,r24
 16027 5984 D0E0      		ldi r29,lo8(0)
 16028 5986 0E94 0000 		call Sensors_ReadHumidity
 16029 598a C050      		subi r28,lo8(-(humidityBuffer1))
 16030 598c D040      		sbci r29,hi8(-(humidityBuffer1))
 16031 598e 8883      		st Y,r24
 16032               	.LM1712:
 16033 5990 9091 0000 		lds r25,humidityBufferCounter
 16034 5994 E92F      		mov r30,r25
 16035 5996 F0E0      		ldi r31,lo8(0)
 16036 5998 E050      		subi r30,lo8(-(humidityBuffer1))
 16037 599a F040      		sbci r31,hi8(-(humidityBuffer1))
 16038 599c 8081      		ld r24,Z
 16039 599e 8093 0000 		sts quickHumidity,r24
 16040               	.LM1713:
 16041 59a2 9F5F      		subi r25,lo8(-(1))
 16042 59a4 9093 0000 		sts humidityBufferCounter,r25
 16043               	.LM1714:
 16044 59a8 9A30      		cpi r25,lo8(10)
 16045 59aa 01F4      		brne .L990
 16046               	.LM1715:
 16047 59ac 1092 0000 		sts humidityBufferCounter,__zero_reg__
 16048               	.LM1716:
 16049 59b0 82E0      		ldi r24,lo8(2)
 16050 59b2 8093 0000 		sts humidityBufferToWriteTo,r24
 16051               	.LM1717:
 16052 59b6 81E0      		ldi r24,lo8(1)
 16053 59b8 8093 0000 		sts okToSendHumidityBuffer1,r24
 16054 59bc 00C0      		rjmp .L990
 16055               	.L991:
 16056               	.LM1718:
 16057 59be 8230      		cpi r24,lo8(2)
 16058 59c0 01F4      		brne .L990
 16059               	.LM1719:
 16060 59c2 8091 0000 		lds r24,humidityBufferCounter
 16061 59c6 8823      		tst r24
 16062 59c8 01F4      		brne .L993
 16063               	.LM1720:
 16064 59ca 0E94 0000 		call Time_Get32BitTimer
 16065 59ce 6093 0000 		sts humiditySampleStartTime2,r22
 16066 59d2 7093 0000 		sts (humiditySampleStartTime2)+1,r23
 16067 59d6 8093 0000 		sts (humiditySampleStartTime2)+2,r24
 16068 59da 9093 0000 		sts (humiditySampleStartTime2)+3,r25
 16069               	.L993:
 16070               	.LM1721:
 16071 59de 8091 0000 		lds r24,humidityBufferCounter
 16072 59e2 C82F      		mov r28,r24
 16073 59e4 D0E0      		ldi r29,lo8(0)
 16074 59e6 0E94 0000 		call Sensors_ReadHumidity
 16075 59ea C050      		subi r28,lo8(-(humidityBuffer2))
 16076 59ec D040      		sbci r29,hi8(-(humidityBuffer2))
 16077 59ee 8883      		st Y,r24
 16078               	.LM1722:
 16079 59f0 9091 0000 		lds r25,humidityBufferCounter
 16080 59f4 E92F      		mov r30,r25
 16081 59f6 F0E0      		ldi r31,lo8(0)
 16082 59f8 E050      		subi r30,lo8(-(humidityBuffer2))
 16083 59fa F040      		sbci r31,hi8(-(humidityBuffer2))
 16084 59fc 8081      		ld r24,Z
 16085 59fe 8093 0000 		sts quickHumidity,r24
 16086               	.LM1723:
 16087 5a02 9F5F      		subi r25,lo8(-(1))
 16088 5a04 9093 0000 		sts humidityBufferCounter,r25
 16089               	.LM1724:
 16090 5a08 9A30      		cpi r25,lo8(10)
 16091 5a0a 01F4      		brne .L990
 16092               	.LM1725:
 16093 5a0c 1092 0000 		sts humidityBufferCounter,__zero_reg__
 16094               	.LM1726:
 16095 5a10 81E0      		ldi r24,lo8(1)
 16096 5a12 8093 0000 		sts humidityBufferToWriteTo,r24
 16097               	.LM1727:
 16098 5a16 8093 0000 		sts okToSendHumidityBuffer2,r24
 16099               	.L990:
 16100               	.LM1728:
 16101 5a1a 8091 0000 		lds r24,wantToRecordPressure
 16102 5a1e 8823      		tst r24
 16103 5a20 01F4      		brne .+2
 16104 5a22 00C0      		rjmp .L994
 16105               	.LM1729:
 16106 5a24 8091 0000 		lds r24,pressureBufferToWriteTo
 16107 5a28 8130      		cpi r24,lo8(1)
 16108 5a2a 01F4      		brne .L995
 16109               	.LM1730:
 16110 5a2c 8091 0000 		lds r24,pressureBufferCounter
 16111 5a30 8823      		tst r24
 16112 5a32 01F4      		brne .L996
 16113               	.LM1731:
 16114 5a34 0E94 0000 		call Time_Get32BitTimer
 16115 5a38 6093 0000 		sts pressureSampleStartTime1,r22
 16116 5a3c 7093 0000 		sts (pressureSampleStartTime1)+1,r23
 16117 5a40 8093 0000 		sts (pressureSampleStartTime1)+2,r24
 16118 5a44 9093 0000 		sts (pressureSampleStartTime1)+3,r25
 16119               	.L996:
 16120               	.LM1732:
 16121 5a48 8091 0000 		lds r24,pressureBufferCounter
 16122 5a4c C82F      		mov r28,r24
 16123 5a4e D0E0      		ldi r29,lo8(0)
 16124 5a50 0E94 0000 		call Sensors_ReadPressure
 16125 5a54 C050      		subi r28,lo8(-(pressureBuffer1))
 16126 5a56 D040      		sbci r29,hi8(-(pressureBuffer1))
 16127 5a58 8883      		st Y,r24
 16128               	.LM1733:
 16129 5a5a 9091 0000 		lds r25,pressureBufferCounter
 16130 5a5e E92F      		mov r30,r25
 16131 5a60 F0E0      		ldi r31,lo8(0)
 16132 5a62 E050      		subi r30,lo8(-(pressureBuffer1))
 16133 5a64 F040      		sbci r31,hi8(-(pressureBuffer1))
 16134 5a66 8081      		ld r24,Z
 16135 5a68 8093 0000 		sts quickPressure,r24
 16136               	.LM1734:
 16137 5a6c 9F5F      		subi r25,lo8(-(1))
 16138 5a6e 9093 0000 		sts pressureBufferCounter,r25
 16139               	.LM1735:
 16140 5a72 9A30      		cpi r25,lo8(10)
 16141 5a74 01F4      		brne .L994
 16142               	.LM1736:
 16143 5a76 1092 0000 		sts pressureBufferCounter,__zero_reg__
 16144               	.LM1737:
 16145 5a7a 82E0      		ldi r24,lo8(2)
 16146 5a7c 8093 0000 		sts pressureBufferToWriteTo,r24
 16147               	.LM1738:
 16148 5a80 81E0      		ldi r24,lo8(1)
 16149 5a82 8093 0000 		sts okToSendPressureBuffer1,r24
 16150 5a86 00C0      		rjmp .L994
 16151               	.L995:
 16152               	.LM1739:
 16153 5a88 8230      		cpi r24,lo8(2)
 16154 5a8a 01F4      		brne .L994
 16155               	.LM1740:
 16156 5a8c 8091 0000 		lds r24,pressureBufferCounter
 16157 5a90 8823      		tst r24
 16158 5a92 01F4      		brne .L997
 16159               	.LM1741:
 16160 5a94 0E94 0000 		call Time_Get32BitTimer
 16161 5a98 6093 0000 		sts pressureSampleStartTime2,r22
 16162 5a9c 7093 0000 		sts (pressureSampleStartTime2)+1,r23
 16163 5aa0 8093 0000 		sts (pressureSampleStartTime2)+2,r24
 16164 5aa4 9093 0000 		sts (pressureSampleStartTime2)+3,r25
 16165               	.L997:
 16166               	.LM1742:
 16167 5aa8 8091 0000 		lds r24,pressureBufferCounter
 16168 5aac C82F      		mov r28,r24
 16169 5aae D0E0      		ldi r29,lo8(0)
 16170 5ab0 0E94 0000 		call Sensors_ReadPressure
 16171 5ab4 C050      		subi r28,lo8(-(pressureBuffer2))
 16172 5ab6 D040      		sbci r29,hi8(-(pressureBuffer2))
 16173 5ab8 8883      		st Y,r24
 16174               	.LM1743:
 16175 5aba 9091 0000 		lds r25,pressureBufferCounter
 16176 5abe E92F      		mov r30,r25
 16177 5ac0 F0E0      		ldi r31,lo8(0)
 16178 5ac2 E050      		subi r30,lo8(-(pressureBuffer2))
 16179 5ac4 F040      		sbci r31,hi8(-(pressureBuffer2))
 16180 5ac6 8081      		ld r24,Z
 16181 5ac8 8093 0000 		sts quickPressure,r24
 16182               	.LM1744:
 16183 5acc 9F5F      		subi r25,lo8(-(1))
 16184 5ace 9093 0000 		sts pressureBufferCounter,r25
 16185               	.LM1745:
 16186 5ad2 9A30      		cpi r25,lo8(10)
 16187 5ad4 01F4      		brne .L994
 16188               	.LM1746:
 16189 5ad6 1092 0000 		sts pressureBufferCounter,__zero_reg__
 16190               	.LM1747:
 16191 5ada 81E0      		ldi r24,lo8(1)
 16192 5adc 8093 0000 		sts pressureBufferToWriteTo,r24
 16193               	.LM1748:
 16194 5ae0 8093 0000 		sts okToSendPressureBuffer2,r24
 16195               	.L994:
 16196               	.LM1749:
 16197 5ae4 8091 0000 		lds r24,wantToRecordLight
 16198 5ae8 8823      		tst r24
 16199 5aea 01F4      		brne .+2
 16200 5aec 00C0      		rjmp .L1006
 16201               	.LM1750:
 16202 5aee 0E94 0000 		call Light_readColors
 16203               	.LM1751:
 16204 5af2 0E94 0000 		call Light_readColors
 16205               	.LM1752:
 16206 5af6 0E94 0000 		call Light_readColors
 16207               	.LM1753:
 16208 5afa 8091 0000 		lds r24,colors+6
 16209 5afe 9091 0000 		lds r25,(colors+6)+1
 16210 5b02 8093 0000 		sts quickLight,r24
 16211 5b06 9093 0000 		sts (quickLight)+1,r25
 16212               	.LBB967:
 16213               	.LBB968:
 16214               	.LM1754:
 16215 5b0a E091 0000 		lds r30,gainSelector
 16216 5b0e F0E0      		ldi r31,lo8(0)
 16217 5b10 EE0F      		lsl r30
 16218 5b12 FF1F      		rol r31
 16219 5b14 EE0F      		lsl r30
 16220 5b16 FF1F      		rol r31
 16221 5b18 E050      		subi r30,lo8(-(resultMultiplier))
 16222 5b1a F040      		sbci r31,hi8(-(resultMultiplier))
 16223 5b1c A080      		ld r10,Z
 16224 5b1e B180      		ldd r11,Z+1
 16225 5b20 C280      		ldd r12,Z+2
 16226 5b22 D380      		ldd r13,Z+3
 16227 5b24 E0E0      		ldi r30,lo8(result)
 16228 5b26 F0E0      		ldi r31,hi8(result)
 16229 5b28 C0E0      		ldi r28,lo8(colors)
 16230 5b2a D0E0      		ldi r29,hi8(colors)
 16231               	.L1000:
 16232               	.LBE968:
 16233               	.LM1755:
 16234 5b2c 1082      		st Z,__zero_reg__
 16235 5b2e 1182      		std Z+1,__zero_reg__
 16236 5b30 1282      		std Z+2,__zero_reg__
 16237 5b32 1382      		std Z+3,__zero_reg__
 16238               	.LBB969:
 16239               	.LM1756:
 16240 5b34 8881      		ld r24,Y
 16241 5b36 9981      		ldd r25,Y+1
 16242 5b38 3C01      		movw r6,r24
 16243 5b3a 8824      		clr r8
 16244 5b3c 9924      		clr r9
 16245 5b3e EE24      		clr r14
 16246 5b40 FF24      		clr r15
 16247 5b42 8701      		movw r16,r14
 16248 5b44 A601      		movw r20,r12
 16249 5b46 9501      		movw r18,r10
 16250               	.L999:
 16251 5b48 E60C      		add r14,r6
 16252 5b4a F71C      		adc r15,r7
 16253 5b4c 081D      		adc r16,r8
 16254 5b4e 191D      		adc r17,r9
 16255 5b50 2A0D      		add r18,r10
 16256 5b52 3B1D      		adc r19,r11
 16257 5b54 4C1D      		adc r20,r12
 16258 5b56 5D1D      		adc r21,r13
 16259               	.LM1757:
 16260 5b58 DA01      		movw r26,r20
 16261 5b5a C901      		movw r24,r18
 16262 5b5c 8A19      		sub r24,r10
 16263 5b5e 9B09      		sbc r25,r11
 16264 5b60 AC09      		sbc r26,r12
 16265 5b62 BD09      		sbc r27,r13
 16266 5b64 8050      		subi r24,lo8(76800)
 16267 5b66 9C42      		sbci r25,hi8(76800)
 16268 5b68 A140      		sbci r26,hlo8(76800)
 16269 5b6a B040      		sbci r27,hhi8(76800)
 16270 5b6c 00F0      		brlo .L999
 16271 5b6e E192      		st Z+,r14
 16272 5b70 F192      		st Z+,r15
 16273 5b72 0193      		st Z+,r16
 16274 5b74 1193      		st Z+,r17
 16275 5b76 2296      		adiw r28,2
 16276               	.LBE969:
 16277               	.LM1758:
 16278 5b78 80E0      		ldi r24,hi8(result+16)
 16279 5b7a E030      		cpi r30,lo8(result+16)
 16280 5b7c F807      		cpc r31,r24
 16281 5b7e 01F4      		brne .L1000
 16282               	.LBE967:
 16283               	.LM1759:
 16284 5b80 8091 0000 		lds r24,lightBufferToWriteTo
 16285 5b84 8130      		cpi r24,lo8(1)
 16286 5b86 01F0      		breq .+2
 16287 5b88 00C0      		rjmp .L1001
 16288               	.LM1760:
 16289 5b8a 8091 0000 		lds r24,lightBufferCounter
 16290 5b8e 8823      		tst r24
 16291 5b90 01F4      		brne .L1002
 16292               	.LM1761:
 16293 5b92 0E94 0000 		call Time_Get32BitTimer
 16294 5b96 6093 0000 		sts lightSampleStartTime1,r22
 16295 5b9a 7093 0000 		sts (lightSampleStartTime1)+1,r23
 16296 5b9e 8093 0000 		sts (lightSampleStartTime1)+2,r24
 16297 5ba2 9093 0000 		sts (lightSampleStartTime1)+3,r25
 16298               	.L1002:
 16299               	.LM1762:
 16300 5ba6 2091 0000 		lds r18,lightBufferCounter
 16301 5baa E22F      		mov r30,r18
 16302 5bac F0E0      		ldi r31,lo8(0)
 16303 5bae EE0F      		lsl r30
 16304 5bb0 FF1F      		rol r31
 16305 5bb2 EE0F      		lsl r30
 16306 5bb4 FF1F      		rol r31
 16307 5bb6 E050      		subi r30,lo8(-(lightBuffer1))
 16308 5bb8 F040      		sbci r31,hi8(-(lightBuffer1))
 16309 5bba 8091 0000 		lds r24,result
 16310 5bbe 9091 0000 		lds r25,(result)+1
 16311 5bc2 A091 0000 		lds r26,(result)+2
 16312 5bc6 B091 0000 		lds r27,(result)+3
 16313 5bca 8083      		st Z,r24
 16314 5bcc 9183      		std Z+1,r25
 16315 5bce A283      		std Z+2,r26
 16316 5bd0 B383      		std Z+3,r27
 16317               	.LM1763:
 16318 5bd2 2F5F      		subi r18,lo8(-(1))
 16319               	.LM1764:
 16320 5bd4 E22F      		mov r30,r18
 16321 5bd6 F0E0      		ldi r31,lo8(0)
 16322 5bd8 EE0F      		lsl r30
 16323 5bda FF1F      		rol r31
 16324 5bdc EE0F      		lsl r30
 16325 5bde FF1F      		rol r31
 16326 5be0 E050      		subi r30,lo8(-(lightBuffer1))
 16327 5be2 F040      		sbci r31,hi8(-(lightBuffer1))
 16328 5be4 8091 0000 		lds r24,result+4
 16329 5be8 9091 0000 		lds r25,(result+4)+1
 16330 5bec A091 0000 		lds r26,(result+4)+2
 16331 5bf0 B091 0000 		lds r27,(result+4)+3
 16332 5bf4 8083      		st Z,r24
 16333 5bf6 9183      		std Z+1,r25
 16334 5bf8 A283      		std Z+2,r26
 16335 5bfa B383      		std Z+3,r27
 16336               	.LM1765:
 16337 5bfc 2F5F      		subi r18,lo8(-(1))
 16338               	.LM1766:
 16339 5bfe E22F      		mov r30,r18
 16340 5c00 F0E0      		ldi r31,lo8(0)
 16341 5c02 EE0F      		lsl r30
 16342 5c04 FF1F      		rol r31
 16343 5c06 EE0F      		lsl r30
 16344 5c08 FF1F      		rol r31
 16345 5c0a E050      		subi r30,lo8(-(lightBuffer1))
 16346 5c0c F040      		sbci r31,hi8(-(lightBuffer1))
 16347 5c0e 8091 0000 		lds r24,result+8
 16348 5c12 9091 0000 		lds r25,(result+8)+1
 16349 5c16 A091 0000 		lds r26,(result+8)+2
 16350 5c1a B091 0000 		lds r27,(result+8)+3
 16351 5c1e 8083      		st Z,r24
 16352 5c20 9183      		std Z+1,r25
 16353 5c22 A283      		std Z+2,r26
 16354 5c24 B383      		std Z+3,r27
 16355               	.LM1767:
 16356 5c26 2F5F      		subi r18,lo8(-(1))
 16357               	.LM1768:
 16358 5c28 E22F      		mov r30,r18
 16359 5c2a F0E0      		ldi r31,lo8(0)
 16360 5c2c EE0F      		lsl r30
 16361 5c2e FF1F      		rol r31
 16362 5c30 EE0F      		lsl r30
 16363 5c32 FF1F      		rol r31
 16364 5c34 E050      		subi r30,lo8(-(lightBuffer1))
 16365 5c36 F040      		sbci r31,hi8(-(lightBuffer1))
 16366 5c38 8091 0000 		lds r24,result+12
 16367 5c3c 9091 0000 		lds r25,(result+12)+1
 16368 5c40 A091 0000 		lds r26,(result+12)+2
 16369 5c44 B091 0000 		lds r27,(result+12)+3
 16370 5c48 8083      		st Z,r24
 16371 5c4a 9183      		std Z+1,r25
 16372 5c4c A283      		std Z+2,r26
 16373 5c4e B383      		std Z+3,r27
 16374               	.LM1769:
 16375 5c50 2F5F      		subi r18,lo8(-(1))
 16376 5c52 2093 0000 		sts lightBufferCounter,r18
 16377               	.LM1770:
 16378 5c56 2832      		cpi r18,lo8(40)
 16379 5c58 01F0      		breq .+2
 16380 5c5a 00C0      		rjmp .L1003
 16381               	.LM1771:
 16382 5c5c 1092 0000 		sts lightBufferCounter,__zero_reg__
 16383               	.LM1772:
 16384 5c60 82E0      		ldi r24,lo8(2)
 16385 5c62 8093 0000 		sts lightBufferToWriteTo,r24
 16386               	.LM1773:
 16387 5c66 81E0      		ldi r24,lo8(1)
 16388 5c68 8093 0000 		sts okToSendLightBuffer1,r24
 16389 5c6c 00C0      		rjmp .L1003
 16390               	.L1001:
 16391               	.LM1774:
 16392 5c6e 8230      		cpi r24,lo8(2)
 16393 5c70 01F0      		breq .+2
 16394 5c72 00C0      		rjmp .L1003
 16395               	.LM1775:
 16396 5c74 8091 0000 		lds r24,lightBufferCounter
 16397 5c78 8823      		tst r24
 16398 5c7a 01F4      		brne .L1004
 16399               	.LM1776:
 16400 5c7c 0E94 0000 		call Time_Get32BitTimer
 16401 5c80 6093 0000 		sts lightSampleStartTime2,r22
 16402 5c84 7093 0000 		sts (lightSampleStartTime2)+1,r23
 16403 5c88 8093 0000 		sts (lightSampleStartTime2)+2,r24
 16404 5c8c 9093 0000 		sts (lightSampleStartTime2)+3,r25
 16405               	.L1004:
 16406               	.LM1777:
 16407 5c90 2091 0000 		lds r18,lightBufferCounter
 16408 5c94 E22F      		mov r30,r18
 16409 5c96 F0E0      		ldi r31,lo8(0)
 16410 5c98 EE0F      		lsl r30
 16411 5c9a FF1F      		rol r31
 16412 5c9c EE0F      		lsl r30
 16413 5c9e FF1F      		rol r31
 16414 5ca0 E050      		subi r30,lo8(-(lightBuffer2))
 16415 5ca2 F040      		sbci r31,hi8(-(lightBuffer2))
 16416 5ca4 8091 0000 		lds r24,result
 16417 5ca8 9091 0000 		lds r25,(result)+1
 16418 5cac A091 0000 		lds r26,(result)+2
 16419 5cb0 B091 0000 		lds r27,(result)+3
 16420 5cb4 8083      		st Z,r24
 16421 5cb6 9183      		std Z+1,r25
 16422 5cb8 A283      		std Z+2,r26
 16423 5cba B383      		std Z+3,r27
 16424               	.LM1778:
 16425 5cbc 2F5F      		subi r18,lo8(-(1))
 16426               	.LM1779:
 16427 5cbe E22F      		mov r30,r18
 16428 5cc0 F0E0      		ldi r31,lo8(0)
 16429 5cc2 EE0F      		lsl r30
 16430 5cc4 FF1F      		rol r31
 16431 5cc6 EE0F      		lsl r30
 16432 5cc8 FF1F      		rol r31
 16433 5cca E050      		subi r30,lo8(-(lightBuffer2))
 16434 5ccc F040      		sbci r31,hi8(-(lightBuffer2))
 16435 5cce 8091 0000 		lds r24,result+4
 16436 5cd2 9091 0000 		lds r25,(result+4)+1
 16437 5cd6 A091 0000 		lds r26,(result+4)+2
 16438 5cda B091 0000 		lds r27,(result+4)+3
 16439 5cde 8083      		st Z,r24
 16440 5ce0 9183      		std Z+1,r25
 16441 5ce2 A283      		std Z+2,r26
 16442 5ce4 B383      		std Z+3,r27
 16443               	.LM1780:
 16444 5ce6 2F5F      		subi r18,lo8(-(1))
 16445               	.LM1781:
 16446 5ce8 E22F      		mov r30,r18
 16447 5cea F0E0      		ldi r31,lo8(0)
 16448 5cec EE0F      		lsl r30
 16449 5cee FF1F      		rol r31
 16450 5cf0 EE0F      		lsl r30
 16451 5cf2 FF1F      		rol r31
 16452 5cf4 E050      		subi r30,lo8(-(lightBuffer2))
 16453 5cf6 F040      		sbci r31,hi8(-(lightBuffer2))
 16454 5cf8 8091 0000 		lds r24,result+8
 16455 5cfc 9091 0000 		lds r25,(result+8)+1
 16456 5d00 A091 0000 		lds r26,(result+8)+2
 16457 5d04 B091 0000 		lds r27,(result+8)+3
 16458 5d08 8083      		st Z,r24
 16459 5d0a 9183      		std Z+1,r25
 16460 5d0c A283      		std Z+2,r26
 16461 5d0e B383      		std Z+3,r27
 16462               	.LM1782:
 16463 5d10 2F5F      		subi r18,lo8(-(1))
 16464               	.LM1783:
 16465 5d12 E22F      		mov r30,r18
 16466 5d14 F0E0      		ldi r31,lo8(0)
 16467 5d16 EE0F      		lsl r30
 16468 5d18 FF1F      		rol r31
 16469 5d1a EE0F      		lsl r30
 16470 5d1c FF1F      		rol r31
 16471 5d1e E050      		subi r30,lo8(-(lightBuffer2))
 16472 5d20 F040      		sbci r31,hi8(-(lightBuffer2))
 16473 5d22 8091 0000 		lds r24,result+12
 16474 5d26 9091 0000 		lds r25,(result+12)+1
 16475 5d2a A091 0000 		lds r26,(result+12)+2
 16476 5d2e B091 0000 		lds r27,(result+12)+3
 16477 5d32 8083      		st Z,r24
 16478 5d34 9183      		std Z+1,r25
 16479 5d36 A283      		std Z+2,r26
 16480 5d38 B383      		std Z+3,r27
 16481               	.LM1784:
 16482 5d3a 2F5F      		subi r18,lo8(-(1))
 16483 5d3c 2093 0000 		sts lightBufferCounter,r18
 16484               	.LM1785:
 16485 5d40 2832      		cpi r18,lo8(40)
 16486 5d42 01F4      		brne .L1003
 16487               	.LM1786:
 16488 5d44 1092 0000 		sts lightBufferCounter,__zero_reg__
 16489               	.LM1787:
 16490 5d48 81E0      		ldi r24,lo8(1)
 16491 5d4a 8093 0000 		sts lightBufferToWriteTo,r24
 16492               	.LM1788:
 16493 5d4e 8093 0000 		sts okToSendLightBuffer2,r24
 16494               	.L1003:
 16495               	.LBB970:
 16496               	.LBB971:
 16497               	.LM1789:
 16498 5d52 2091 0000 		lds r18,colors+6
 16499 5d56 3091 0000 		lds r19,(colors+6)+1
 16500               	.LBE971:
 16501               	.LBE970:
 16502               	.LM1790:
 16503 5d5a 6FEB      		ldi r22,hi8(-16535)
 16504 5d5c 2936      		cpi r18,lo8(-16535)
 16505 5d5e 3607      		cpc r19,r22
 16506 5d60 00F0      		brlo .L1005
 16507 5d62 8091 0000 		lds r24,gainSelector
 16508 5d66 8823      		tst r24
 16509 5d68 01F0      		breq .L1005
 16510               	.LM1791:
 16511 5d6a 8150      		subi r24,lo8(-(-1))
 16512 5d6c 00C0      		rjmp .L1009
 16513               	.L1005:
 16514               	.LM1792:
 16515 5d6e 2058      		subi r18,lo8(16000)
 16516 5d70 3E43      		sbci r19,hi8(16000)
 16517 5d72 00F4      		brsh .L1006
 16518 5d74 8091 0000 		lds r24,gainSelector
 16519 5d78 8830      		cpi r24,lo8(8)
 16520 5d7a 01F0      		breq .L1006
 16521               	.LM1793:
 16522 5d7c 8F5F      		subi r24,lo8(-(1))
 16523               	.L1009:
 16524 5d7e 8093 0000 		sts gainSelector,r24
 16525               	.LM1794:
 16526 5d82 0E94 0000 		call Light_setGain
 16527 5d86 00C0      		rjmp .L1006
 16528               	.L984:
 16529               	.LM1795:
 16530 5d88 0E94 0000 		call Sensors_ReadTemperature
 16531 5d8c 6AE0      		ldi r22,lo8(10)
 16532 5d8e 70E0      		ldi r23,hi8(10)
 16533 5d90 0E94 0000 		call __udivmodhi4
 16534 5d94 6093 0000 		sts quickTemperature,r22
 16535               	.LM1796:
 16536 5d98 0E94 0000 		call Sensors_ReadHumidity
 16537 5d9c 8093 0000 		sts quickHumidity,r24
 16538               	.LM1797:
 16539 5da0 0E94 0000 		call Sensors_ReadPressure
 16540 5da4 8093 0000 		sts quickPressure,r24
 16541               	.LM1798:
 16542 5da8 0E94 0000 		call Light_readColors
 16543               	.LM1799:
 16544 5dac 8091 0000 		lds r24,colors+6
 16545 5db0 9091 0000 		lds r25,(colors+6)+1
 16546 5db4 8093 0000 		sts quickLight,r24
 16547 5db8 9093 0000 		sts (quickLight)+1,r25
 16548               	.L1006:
 16549               	/* epilogue start */
 16550               	.LM1800:
 16551 5dbc FF91      		pop r31
 16552 5dbe EF91      		pop r30
 16553 5dc0 DF91      		pop r29
 16554 5dc2 CF91      		pop r28
 16555 5dc4 BF91      		pop r27
 16556 5dc6 AF91      		pop r26
 16557 5dc8 9F91      		pop r25
 16558 5dca 8F91      		pop r24
 16559 5dcc 7F91      		pop r23
 16560 5dce 6F91      		pop r22
 16561 5dd0 5F91      		pop r21
 16562 5dd2 4F91      		pop r20
 16563 5dd4 3F91      		pop r19
 16564 5dd6 2F91      		pop r18
 16565 5dd8 1F91      		pop r17
 16566 5dda 0F91      		pop r16
 16567 5ddc FF90      		pop r15
 16568 5dde EF90      		pop r14
 16569 5de0 DF90      		pop r13
 16570 5de2 CF90      		pop r12
 16571 5de4 BF90      		pop r11
 16572 5de6 AF90      		pop r10
 16573 5de8 9F90      		pop r9
 16574 5dea 8F90      		pop r8
 16575 5dec 7F90      		pop r7
 16576 5dee 6F90      		pop r6
 16577 5df0 0F90      		pop r0
 16578 5df2 0BBE      		out 59-0,r0
 16579 5df4 0F90      		pop r0
 16580 5df6 0FBE      		out __SREG__,r0
 16581 5df8 0F90      		pop r0
 16582 5dfa 1F90      		pop __zero_reg__
 16583 5dfc 1895      		reti
 16584               	.LFE144:
 16586               	.global	RTC_UTCSecsToTime
 16588               	RTC_UTCSecsToTime:
 16589               	.LFB153:
 16590               	.LM1801:
 16591               	.LVL1329:
 16592 5dfe 8F92      		push r8
 16593 5e00 9F92      		push r9
 16594 5e02 AF92      		push r10
 16595 5e04 BF92      		push r11
 16596 5e06 CF92      		push r12
 16597 5e08 DF92      		push r13
 16598 5e0a EF92      		push r14
 16599 5e0c FF92      		push r15
 16600 5e0e 0F93      		push r16
 16601 5e10 1F93      		push r17
 16602 5e12 CF93      		push r28
 16603 5e14 DF93      		push r29
 16604               	/* prologue: function */
 16605               	/* frame size = 0 */
 16606 5e16 7B01      		movw r14,r22
 16607 5e18 8C01      		movw r16,r24
 16608 5e1a EA01      		movw r28,r20
 16609               	.LM1802:
 16610 5e1c 2CE3      		ldi r18,lo8(60)
 16611 5e1e 30E0      		ldi r19,hi8(60)
 16612 5e20 40E0      		ldi r20,hlo8(60)
 16613 5e22 50E0      		ldi r21,hhi8(60)
 16614 5e24 0E94 0000 		call __udivmodsi4
 16615               	.LVL1330:
 16616 5e28 6983      		std Y+1,r22
 16617               	.LM1803:
 16618 5e2a C801      		movw r24,r16
 16619 5e2c B701      		movw r22,r14
 16620 5e2e 2CE3      		ldi r18,lo8(60)
 16621 5e30 30E0      		ldi r19,hi8(60)
 16622 5e32 40E0      		ldi r20,hlo8(60)
 16623 5e34 50E0      		ldi r21,hhi8(60)
 16624 5e36 0E94 0000 		call __udivmodsi4
 16625 5e3a 122F      		mov r17,r18
 16626 5e3c 032F      		mov r16,r19
 16627 5e3e F42E      		mov r15,r20
 16628               	.LVL1331:
 16629 5e40 E52E      		mov r14,r21
 16630               	.LVL1332:
 16631               	.LM1804:
 16632 5e42 622F      		mov r22,r18
 16633 5e44 732F      		mov r23,r19
 16634 5e46 842F      		mov r24,r20
 16635 5e48 952F      		mov r25,r21
 16636 5e4a 2CE3      		ldi r18,lo8(60)
 16637 5e4c 30E0      		ldi r19,hi8(60)
 16638 5e4e 40E0      		ldi r20,hlo8(60)
 16639 5e50 50E0      		ldi r21,hhi8(60)
 16640 5e52 0E94 0000 		call __udivmodsi4
 16641 5e56 6A83      		std Y+2,r22
 16642               	.LM1805:
 16643 5e58 612F      		mov r22,r17
 16644 5e5a 702F      		mov r23,r16
 16645 5e5c 8F2D      		mov r24,r15
 16646 5e5e 9E2D      		mov r25,r14
 16647 5e60 2CE3      		ldi r18,lo8(60)
 16648 5e62 30E0      		ldi r19,hi8(60)
 16649 5e64 40E0      		ldi r20,hlo8(60)
 16650 5e66 50E0      		ldi r21,hhi8(60)
 16651 5e68 0E94 0000 		call __udivmodsi4
 16652 5e6c 122F      		mov r17,r18
 16653 5e6e 032F      		mov r16,r19
 16654 5e70 F42E      		mov r15,r20
 16655 5e72 E52E      		mov r14,r21
 16656               	.LM1806:
 16657 5e74 622F      		mov r22,r18
 16658 5e76 732F      		mov r23,r19
 16659 5e78 842F      		mov r24,r20
 16660 5e7a 952F      		mov r25,r21
 16661 5e7c 28E1      		ldi r18,lo8(24)
 16662 5e7e 30E0      		ldi r19,hi8(24)
 16663 5e80 40E0      		ldi r20,hlo8(24)
 16664 5e82 50E0      		ldi r21,hhi8(24)
 16665 5e84 0E94 0000 		call __udivmodsi4
 16666 5e88 6B83      		std Y+3,r22
 16667               	.LM1807:
 16668 5e8a 612F      		mov r22,r17
 16669 5e8c 702F      		mov r23,r16
 16670 5e8e 8F2D      		mov r24,r15
 16671 5e90 9E2D      		mov r25,r14
 16672 5e92 28E1      		ldi r18,lo8(24)
 16673 5e94 30E0      		ldi r19,hi8(24)
 16674 5e96 40E0      		ldi r20,hlo8(24)
 16675 5e98 50E0      		ldi r21,hhi8(24)
 16676 5e9a 0E94 0000 		call __udivmodsi4
 16677 5e9e 7901      		movw r14,r18
 16678 5ea0 8A01      		movw r16,r20
 16679               	.LM1808:
 16680 5ea2 C801      		movw r24,r16
 16681 5ea4 B701      		movw r22,r14
 16682               	.LVL1333:
 16683 5ea6 6C5F      		subi r22,lo8(-(4))
 16684 5ea8 7F4F      		sbci r23,hi8(-(4))
 16685 5eaa 8F4F      		sbci r24,hlo8(-(4))
 16686 5eac 9F4F      		sbci r25,hhi8(-(4))
 16687 5eae 27E0      		ldi r18,lo8(7)
 16688 5eb0 30E0      		ldi r19,hi8(7)
 16689 5eb2 40E0      		ldi r20,hlo8(7)
 16690 5eb4 50E0      		ldi r21,hhi8(7)
 16691 5eb6 0E94 0000 		call __udivmodsi4
 16692 5eba 6F5F      		subi r22,lo8(-(1))
 16693 5ebc 6C83      		std Y+4,r22
 16694 5ebe 20E0      		ldi r18,lo8(0)
 16695               	.LVL1334:
 16696 5ec0 AA24      		clr r10
 16697 5ec2 BB24      		clr r11
 16698 5ec4 6501      		movw r12,r10
 16699               	.LVL1335:
 16700 5ec6 00C0      		rjmp .L1011
 16701               	.LVL1336:
 16702               	.L1015:
 16703               	.LM1809:
 16704 5ec8 2F5F      		subi r18,lo8(-(1))
 16705               	.LVL1337:
 16706               	.L1011:
 16707               	.LM1810:
 16708 5eca 822E      		mov r8,r18
 16709 5ecc 9924      		clr r9
 16710 5ece F401      		movw r30,r8
 16711 5ed0 EE54      		subi r30,lo8(-(1970))
 16712 5ed2 F84F      		sbci r31,hi8(-(1970))
 16713 5ed4 CF01      		movw r24,r30
 16714 5ed6 8370      		andi r24,lo8(3)
 16715 5ed8 9070      		andi r25,hi8(3)
 16716 5eda 892B      		or r24,r25
 16717 5edc 01F4      		brne .L1012
 16718 5ede CF01      		movw r24,r30
 16719 5ee0 64E6      		ldi r22,lo8(100)
 16720 5ee2 70E0      		ldi r23,hi8(100)
 16721 5ee4 0E94 0000 		call __divmodhi4
 16722               	.LVL1338:
 16723 5ee8 892B      		or r24,r25
 16724 5eea 01F4      		brne .L1013
 16725 5eec CF01      		movw r24,r30
 16726 5eee 60E9      		ldi r22,lo8(400)
 16727 5ef0 71E0      		ldi r23,hi8(400)
 16728 5ef2 0E94 0000 		call __divmodhi4
 16729 5ef6 892B      		or r24,r25
 16730 5ef8 01F4      		brne .L1012
 16731               	.L1013:
 16732 5efa 8EE6      		ldi r24,lo8(366)
 16733 5efc 91E0      		ldi r25,hi8(366)
 16734 5efe A0E0      		ldi r26,hlo8(366)
 16735 5f00 B0E0      		ldi r27,hhi8(366)
 16736 5f02 00C0      		rjmp .L1014
 16737               	.LVL1339:
 16738               	.L1012:
 16739 5f04 8DE6      		ldi r24,lo8(365)
 16740 5f06 91E0      		ldi r25,hi8(365)
 16741 5f08 A0E0      		ldi r26,hlo8(365)
 16742 5f0a B0E0      		ldi r27,hhi8(365)
 16743               	.L1014:
 16744 5f0c A80E      		add r10,r24
 16745 5f0e B91E      		adc r11,r25
 16746 5f10 CA1E      		adc r12,r26
 16747 5f12 DB1E      		adc r13,r27
 16748 5f14 C501      		movw r24,r10
 16749 5f16 A0E0      		ldi r26,lo8(0)
 16750 5f18 B0E0      		ldi r27,hi8(0)
 16751 5f1a E816      		cp r14,r24
 16752 5f1c F906      		cpc r15,r25
 16753 5f1e 0A07      		cpc r16,r26
 16754 5f20 1B07      		cpc r17,r27
 16755 5f22 00F4      		brsh .L1015
 16756               	.LVL1340:
 16757               	.LM1811:
 16758 5f24 2F83      		std Y+7,r18
 16759               	.LM1812:
 16760 5f26 F401      		movw r30,r8
 16761 5f28 EE54      		subi r30,lo8(-(1970))
 16762 5f2a F84F      		sbci r31,hi8(-(1970))
 16763 5f2c 83E0      		ldi r24,lo8(3)
 16764 5f2e 882E      		mov r8,r24
 16765 5f30 912C      		mov r9,__zero_reg__
 16766               	.LVL1341:
 16767 5f32 8E22      		and r8,r30
 16768 5f34 9F22      		and r9,r31
 16769 5f36 8114      		cp r8,__zero_reg__
 16770 5f38 9104      		cpc r9,__zero_reg__
 16771 5f3a 01F4      		brne .L1016
 16772 5f3c CF01      		movw r24,r30
 16773 5f3e 64E6      		ldi r22,lo8(100)
 16774 5f40 70E0      		ldi r23,hi8(100)
 16775 5f42 0E94 0000 		call __divmodhi4
 16776               	.LVL1342:
 16777 5f46 892B      		or r24,r25
 16778 5f48 01F4      		brne .L1017
 16779 5f4a CF01      		movw r24,r30
 16780 5f4c 60E9      		ldi r22,lo8(400)
 16781 5f4e 71E0      		ldi r23,hi8(400)
 16782 5f50 0E94 0000 		call __divmodhi4
 16783 5f54 892B      		or r24,r25
 16784 5f56 01F4      		brne .L1016
 16785               	.L1017:
 16786 5f58 8EE6      		ldi r24,lo8(366)
 16787 5f5a 91E0      		ldi r25,hi8(366)
 16788 5f5c A0E0      		ldi r26,hlo8(366)
 16789 5f5e B0E0      		ldi r27,hhi8(366)
 16790 5f60 00C0      		rjmp .L1018
 16791               	.LVL1343:
 16792               	.L1016:
 16793 5f62 8DE6      		ldi r24,lo8(365)
 16794 5f64 91E0      		ldi r25,hi8(365)
 16795 5f66 A0E0      		ldi r26,hlo8(365)
 16796 5f68 B0E0      		ldi r27,hhi8(365)
 16797               	.L1018:
 16798               	.LM1813:
 16799 5f6a A81A      		sub r10,r24
 16800 5f6c B90A      		sbc r11,r25
 16801 5f6e CA0A      		sbc r12,r26
 16802 5f70 DB0A      		sbc r13,r27
 16803 5f72 9801      		movw r18,r16
 16804 5f74 8701      		movw r16,r14
 16805 5f76 0A19      		sub r16,r10
 16806 5f78 1B09      		sbc r17,r11
 16807 5f7a 2C09      		sbc r18,r12
 16808 5f7c 3D09      		sbc r19,r13
 16809               	.LVL1344:
 16810               	.LM1814:
 16811 5f7e CF01      		movw r24,r30
 16812 5f80 64E6      		ldi r22,lo8(100)
 16813 5f82 70E0      		ldi r23,hi8(100)
 16814 5f84 0E94 0000 		call __divmodhi4
 16815               	.LVL1345:
 16816 5f88 7C01      		movw r14,r24
 16817 5f8a CF01      		movw r24,r30
 16818 5f8c 60E9      		ldi r22,lo8(400)
 16819 5f8e 71E0      		ldi r23,hi8(400)
 16820 5f90 0E94 0000 		call __divmodhi4
 16821 5f94 AC01      		movw r20,r24
 16822 5f96 E0E0      		ldi r30,lo8(monthDays)
 16823 5f98 F0E0      		ldi r31,hi8(monthDays)
 16824 5f9a 60E0      		ldi r22,lo8(0)
 16825               	.LVL1346:
 16826               	.L1024:
 16827               	.LM1815:
 16828 5f9c 6130      		cpi r22,lo8(1)
 16829 5f9e 01F4      		brne .L1019
 16830               	.LM1816:
 16831 5fa0 8114      		cp r8,__zero_reg__
 16832 5fa2 9104      		cpc r9,__zero_reg__
 16833 5fa4 01F4      		brne .L1020
 16834 5fa6 E114      		cp r14,__zero_reg__
 16835 5fa8 F104      		cpc r15,__zero_reg__
 16836 5faa 01F4      		brne .L1021
 16837 5fac 4115      		cp r20,__zero_reg__
 16838 5fae 5105      		cpc r21,__zero_reg__
 16839 5fb0 01F0      		breq .L1021
 16840 5fb2 00C0      		rjmp .L1020
 16841               	.L1019:
 16842               	.LM1817:
 16843 5fb4 8081      		ld r24,Z
 16844               	.LVL1347:
 16845 5fb6 00C0      		rjmp .L1022
 16846               	.LVL1348:
 16847               	.L1020:
 16848 5fb8 8CE1      		ldi r24,lo8(28)
 16849               	.LVL1349:
 16850 5fba 00C0      		rjmp .L1022
 16851               	.LVL1350:
 16852               	.L1021:
 16853 5fbc 8DE1      		ldi r24,lo8(29)
 16854               	.LVL1351:
 16855               	.L1022:
 16856               	.LM1818:
 16857 5fbe 90E0      		ldi r25,lo8(0)
 16858 5fc0 A0E0      		ldi r26,lo8(0)
 16859 5fc2 B0E0      		ldi r27,hi8(0)
 16860 5fc4 0817      		cp r16,r24
 16861 5fc6 1907      		cpc r17,r25
 16862 5fc8 2A07      		cpc r18,r26
 16863 5fca 3B07      		cpc r19,r27
 16864               	.LVL1352:
 16865 5fcc 00F0      		brlo .L1023
 16866               	.LM1819:
 16867 5fce 081B      		sub r16,r24
 16868 5fd0 190B      		sbc r17,r25
 16869 5fd2 2A0B      		sbc r18,r26
 16870 5fd4 3B0B      		sbc r19,r27
 16871               	.LM1820:
 16872 5fd6 6F5F      		subi r22,lo8(-(1))
 16873 5fd8 3196      		adiw r30,1
 16874 5fda 6C30      		cpi r22,lo8(12)
 16875 5fdc 01F4      		brne .L1024
 16876               	.L1023:
 16877               	.LM1821:
 16878 5fde 6F5F      		subi r22,lo8(-(1))
 16879 5fe0 6E83      		std Y+6,r22
 16880               	.LM1822:
 16881 5fe2 802F      		mov r24,r16
 16882               	.LVL1353:
 16883 5fe4 8F5F      		subi r24,lo8(-(1))
 16884 5fe6 8D83      		std Y+5,r24
 16885               	.LM1823:
 16886 5fe8 CE01      		movw r24,r28
 16887               	.LVL1354:
 16888               	/* epilogue start */
 16889 5fea DF91      		pop r29
 16890 5fec CF91      		pop r28
 16891 5fee 1F91      		pop r17
 16892 5ff0 0F91      		pop r16
 16893 5ff2 FF90      		pop r15
 16894 5ff4 EF90      		pop r14
 16895 5ff6 DF90      		pop r13
 16896 5ff8 CF90      		pop r12
 16897 5ffa BF90      		pop r11
 16898 5ffc AF90      		pop r10
 16899               	.LVL1355:
 16900 5ffe 9F90      		pop r9
 16901 6000 8F90      		pop r8
 16902 6002 0895      		ret
 16903               	.LFE153:
 16905               	.global	RTC_TimeToUTCSecs
 16907               	RTC_TimeToUTCSecs:
 16908               	.LFB154:
 16909               	.LM1824:
 16910               	.LVL1356:
 16911 6004 4F92      		push r4
 16912 6006 5F92      		push r5
 16913 6008 6F92      		push r6
 16914 600a 7F92      		push r7
 16915 600c 8F92      		push r8
 16916 600e 9F92      		push r9
 16917 6010 AF92      		push r10
 16918 6012 BF92      		push r11
 16919 6014 CF92      		push r12
 16920 6016 DF92      		push r13
 16921 6018 EF92      		push r14
 16922 601a FF92      		push r15
 16923 601c 0F93      		push r16
 16924 601e 1F93      		push r17
 16925 6020 CF93      		push r28
 16926 6022 DF93      		push r29
 16927               	/* prologue: function */
 16928               	/* frame size = 0 */
 16929 6024 4C01      		movw r8,r24
 16930               	.LM1825:
 16931 6026 DC01      		movw r26,r24
 16932 6028 1796      		adiw r26,7
 16933 602a 1C91      		ld r17,X
 16934 602c 612F      		mov r22,r17
 16935 602e 70E0      		ldi r23,lo8(0)
 16936 6030 80E0      		ldi r24,lo8(0)
 16937 6032 90E0      		ldi r25,hi8(0)
 16938               	.LVL1357:
 16939 6034 20E8      		ldi r18,lo8(31536000)
 16940 6036 33E3      		ldi r19,hi8(31536000)
 16941 6038 41EE      		ldi r20,hlo8(31536000)
 16942 603a 51E0      		ldi r21,hhi8(31536000)
 16943 603c 0E94 0000 		call __mulsi3
 16944 6040 5B01      		movw r10,r22
 16945 6042 6C01      		movw r12,r24
 16946               	.LVL1358:
 16947 6044 22EB      		ldi r18,lo8(1970)
 16948 6046 37E0      		ldi r19,hi8(1970)
 16949               	.LM1826:
 16950 6048 E12F      		mov r30,r17
 16951 604a F0E0      		ldi r31,lo8(0)
 16952 604c EE54      		subi r30,lo8(-(1970))
 16953 604e F84F      		sbci r31,hi8(-(1970))
 16954 6050 00C0      		rjmp .L1028
 16955               	.L1031:
 16956               	.LM1827:
 16957 6052 C901      		movw r24,r18
 16958 6054 8370      		andi r24,lo8(3)
 16959 6056 9070      		andi r25,hi8(3)
 16960 6058 892B      		or r24,r25
 16961 605a 01F4      		brne .L1029
 16962 605c C901      		movw r24,r18
 16963 605e 64E6      		ldi r22,lo8(100)
 16964 6060 70E0      		ldi r23,hi8(100)
 16965 6062 0E94 0000 		call __divmodhi4
 16966 6066 892B      		or r24,r25
 16967 6068 01F4      		brne .L1030
 16968 606a C901      		movw r24,r18
 16969 606c 60E9      		ldi r22,lo8(400)
 16970 606e 71E0      		ldi r23,hi8(400)
 16971 6070 0E94 0000 		call __divmodhi4
 16972 6074 892B      		or r24,r25
 16973 6076 01F4      		brne .L1029
 16974               	.L1030:
 16975               	.LM1828:
 16976 6078 80E8      		ldi r24,lo8(86400)
 16977 607a 91E5      		ldi r25,hi8(86400)
 16978 607c A1E0      		ldi r26,hlo8(86400)
 16979 607e B0E0      		ldi r27,hhi8(86400)
 16980 6080 A80E      		add r10,r24
 16981 6082 B91E      		adc r11,r25
 16982 6084 CA1E      		adc r12,r26
 16983 6086 DB1E      		adc r13,r27
 16984               	.L1029:
 16985 6088 2F5F      		subi r18,lo8(-(1))
 16986 608a 3F4F      		sbci r19,hi8(-(1))
 16987               	.L1028:
 16988               	.LM1829:
 16989 608c 2E17      		cp r18,r30
 16990 608e 3F07      		cpc r19,r31
 16991 6090 01F4      		brne .L1031
 16992               	.LM1830:
 16993 6092 D401      		movw r26,r8
 16994 6094 1696      		adiw r26,6
 16995 6096 8C91      		ld r24,X
 16996 6098 482E      		mov r4,r24
 16997 609a 5524      		clr r5
 16998               	.LM1831:
 16999 609c C901      		movw r24,r18
 17000 609e 64E6      		ldi r22,lo8(100)
 17001 60a0 70E0      		ldi r23,hi8(100)
 17002 60a2 0E94 0000 		call __divmodhi4
 17003 60a6 7C01      		movw r14,r24
 17004 60a8 C901      		movw r24,r18
 17005 60aa 60E9      		ldi r22,lo8(400)
 17006 60ac 71E0      		ldi r23,hi8(400)
 17007 60ae 0E94 0000 		call __divmodhi4
 17008 60b2 8C01      		movw r16,r24
 17009 60b4 C1E0      		ldi r28,lo8(1)
 17010 60b6 D0E0      		ldi r29,hi8(1)
 17011               	.LVL1359:
 17012 60b8 93E0      		ldi r25,lo8(3)
 17013 60ba 692E      		mov r6,r25
 17014 60bc 712C      		mov r7,__zero_reg__
 17015 60be 6222      		and r6,r18
 17016 60c0 7322      		and r7,r19
 17017 60c2 00C0      		rjmp .L1032
 17018               	.L1036:
 17019 60c4 C230      		cpi r28,2
 17020 60c6 D105      		cpc r29,__zero_reg__
 17021 60c8 01F4      		brne .L1033
 17022 60ca 6114      		cp r6,__zero_reg__
 17023 60cc 7104      		cpc r7,__zero_reg__
 17024 60ce 01F4      		brne .L1033
 17025 60d0 E114      		cp r14,__zero_reg__
 17026 60d2 F104      		cpc r15,__zero_reg__
 17027 60d4 01F4      		brne .L1034
 17028 60d6 0115      		cp r16,__zero_reg__
 17029 60d8 1105      		cpc r17,__zero_reg__
 17030 60da 01F4      		brne .L1033
 17031               	.L1034:
 17032               	.LM1832:
 17033 60dc 80E8      		ldi r24,lo8(2505600)
 17034 60de 9BE3      		ldi r25,hi8(2505600)
 17035 60e0 A6E2      		ldi r26,hlo8(2505600)
 17036 60e2 B0E0      		ldi r27,hhi8(2505600)
 17037 60e4 A80E      		add r10,r24
 17038 60e6 B91E      		adc r11,r25
 17039 60e8 CA1E      		adc r12,r26
 17040 60ea DB1E      		adc r13,r27
 17041 60ec 00C0      		rjmp .L1035
 17042               	.L1033:
 17043               	.LM1833:
 17044 60ee FE01      		movw r30,r28
 17045 60f0 E050      		subi r30,lo8(-(monthDays-1))
 17046 60f2 F040      		sbci r31,hi8(-(monthDays-1))
 17047 60f4 6081      		ld r22,Z
 17048 60f6 70E0      		ldi r23,lo8(0)
 17049 60f8 80E0      		ldi r24,lo8(0)
 17050 60fa 90E0      		ldi r25,hi8(0)
 17051 60fc 20E8      		ldi r18,lo8(86400)
 17052 60fe 31E5      		ldi r19,hi8(86400)
 17053 6100 41E0      		ldi r20,hlo8(86400)
 17054 6102 50E0      		ldi r21,hhi8(86400)
 17055 6104 0E94 0000 		call __mulsi3
 17056 6108 A60E      		add r10,r22
 17057 610a B71E      		adc r11,r23
 17058 610c C81E      		adc r12,r24
 17059 610e D91E      		adc r13,r25
 17060               	.L1035:
 17061               	.LM1834:
 17062 6110 2196      		adiw r28,1
 17063               	.L1032:
 17064 6112 C415      		cp r28,r4
 17065 6114 D505      		cpc r29,r5
 17066 6116 04F0      		brlt .L1036
 17067               	.LM1835:
 17068 6118 D401      		movw r26,r8
 17069 611a 1396      		adiw r26,3
 17070 611c 6C91      		ld r22,X
 17071 611e 70E0      		ldi r23,lo8(0)
 17072 6120 80E0      		ldi r24,lo8(0)
 17073 6122 90E0      		ldi r25,hi8(0)
 17074 6124 20E1      		ldi r18,lo8(3600)
 17075 6126 3EE0      		ldi r19,hi8(3600)
 17076 6128 40E0      		ldi r20,hlo8(3600)
 17077 612a 50E0      		ldi r21,hhi8(3600)
 17078 612c 0E94 0000 		call __mulsi3
 17079 6130 7B01      		movw r14,r22
 17080 6132 8C01      		movw r16,r24
 17081 6134 F401      		movw r30,r8
 17082 6136 6281      		ldd r22,Z+2
 17083 6138 70E0      		ldi r23,lo8(0)
 17084 613a 80E0      		ldi r24,lo8(0)
 17085 613c 90E0      		ldi r25,hi8(0)
 17086 613e 2CE3      		ldi r18,lo8(60)
 17087 6140 30E0      		ldi r19,hi8(60)
 17088 6142 40E0      		ldi r20,hlo8(60)
 17089 6144 50E0      		ldi r21,hhi8(60)
 17090 6146 0E94 0000 		call __mulsi3
 17091 614a E60E      		add r14,r22
 17092 614c F71E      		adc r15,r23
 17093 614e 081F      		adc r16,r24
 17094 6150 191F      		adc r17,r25
 17095               	.LM1836:
 17096 6152 D401      		movw r26,r8
 17097 6154 1196      		adiw r26,1
 17098 6156 8C91      		ld r24,X
 17099 6158 1197      		sbiw r26,1
 17100 615a E80E      		add r14,r24
 17101 615c F11C      		adc r15,__zero_reg__
 17102 615e 011D      		adc r16,__zero_reg__
 17103 6160 111D      		adc r17,__zero_reg__
 17104               	.LM1837:
 17105 6162 1596      		adiw r26,5
 17106 6164 6C91      		ld r22,X
 17107 6166 70E0      		ldi r23,lo8(0)
 17108 6168 6150      		subi r22,lo8(-(-1))
 17109 616a 7040      		sbci r23,hi8(-(-1))
 17110 616c 8827      		clr r24
 17111 616e 77FD      		sbrc r23,7
 17112 6170 8095      		com r24
 17113 6172 982F      		mov r25,r24
 17114 6174 20E8      		ldi r18,lo8(86400)
 17115 6176 31E5      		ldi r19,hi8(86400)
 17116 6178 41E0      		ldi r20,hlo8(86400)
 17117 617a 50E0      		ldi r21,hhi8(86400)
 17118 617c 0E94 0000 		call __mulsi3
 17119 6180 E60E      		add r14,r22
 17120 6182 F71E      		adc r15,r23
 17121 6184 081F      		adc r16,r24
 17122 6186 191F      		adc r17,r25
 17123 6188 EA0C      		add r14,r10
 17124 618a FB1C      		adc r15,r11
 17125 618c 0C1D      		adc r16,r12
 17126 618e 1D1D      		adc r17,r13
 17127               	.LM1838:
 17128 6190 B701      		movw r22,r14
 17129 6192 C801      		movw r24,r16
 17130               	/* epilogue start */
 17131 6194 DF91      		pop r29
 17132 6196 CF91      		pop r28
 17133               	.LVL1360:
 17134 6198 1F91      		pop r17
 17135 619a 0F91      		pop r16
 17136 619c FF90      		pop r15
 17137 619e EF90      		pop r14
 17138 61a0 DF90      		pop r13
 17139 61a2 CF90      		pop r12
 17140 61a4 BF90      		pop r11
 17141 61a6 AF90      		pop r10
 17142               	.LVL1361:
 17143 61a8 9F90      		pop r9
 17144 61aa 8F90      		pop r8
 17145               	.LVL1362:
 17146 61ac 7F90      		pop r7
 17147 61ae 6F90      		pop r6
 17148 61b0 5F90      		pop r5
 17149 61b2 4F90      		pop r4
 17150 61b4 0895      		ret
 17151               	.LFE154:
 17153               	.global	RTC_sendBytes
 17155               	RTC_sendBytes:
 17156               	.LFB159:
 17157               	.LM1839:
 17158               	.LVL1363:
 17159               	/* prologue: function */
 17160               	/* frame size = 0 */
 17161 61b6 582F      		mov r21,r24
 17162               	.LM1840:
 17163 61b8 4E7F      		andi r20,lo8(-2)
 17164               	.LVL1364:
 17165               	.LM1841:
 17166 61ba E0EA      		ldi r30,lo8(1184)
 17167 61bc F4E0      		ldi r31,hi8(1184)
 17168 61be 4683      		std Z+6,r20
 17169 61c0 FB01      		movw r30,r22
 17170               	.LVL1365:
 17171 61c2 90E0      		ldi r25,lo8(0)
 17172               	.LVL1366:
 17173               	.LM1842:
 17174 61c4 A0EA      		ldi r26,lo8(1184)
 17175 61c6 B4E0      		ldi r27,hi8(1184)
 17176 61c8 00C0      		rjmp .L1039
 17177               	.LVL1367:
 17178               	.L1043:
 17179 61ca 8091 A404 		lds r24,1188
 17180 61ce 86FF      		sbrs r24,6
 17181 61d0 00C0      		rjmp .L1043
 17182               	.LM1843:
 17183 61d2 8091 A404 		lds r24,1188
 17184 61d6 84FD      		sbrc r24,4
 17185 61d8 00C0      		rjmp .L1042
 17186               	.LM1844:
 17187 61da 8191      		ld r24,Z+
 17188 61dc 1796      		adiw r26,7
 17189 61de 8C93      		st X,r24
 17190 61e0 1797      		sbiw r26,7
 17191               	.LM1845:
 17192 61e2 9F5F      		subi r25,lo8(-(1))
 17193               	.LVL1368:
 17194               	.L1039:
 17195               	.LM1846:
 17196 61e4 9517      		cp r25,r21
 17197 61e6 00F0      		brlo .L1043
 17198               	.L1042:
 17199 61e8 0895      		ret
 17200               	.LFE159:
 17202               	.global	RTC_setTime
 17204               	RTC_setTime:
 17205               	.LFB158:
 17206               	.LM1847:
 17207 61ea DF93      		push r29
 17208 61ec CF93      		push r28
 17209 61ee CDB7      		in r28,__SP_L__
 17210 61f0 DEB7      		in r29,__SP_H__
 17211 61f2 2997      		sbiw r28,9
 17212 61f4 CDBF      		out __SP_L__,r28
 17213 61f6 DEBF      		out __SP_H__,r29
 17214               	/* prologue: function */
 17215               	/* frame size = 9 */
 17216               	.LM1848:
 17217 61f8 5091 0000 		lds r21,time+7
 17218               	.LVL1369:
 17219 61fc 5E51      		subi r21,lo8(-(-30))
 17220               	.LM1849:
 17221 61fe 1982      		std Y+1,__zero_reg__
 17222               	.LM1850:
 17223 6200 4091 0000 		lds r20,time
 17224 6204 842F      		mov r24,r20
 17225 6206 6AE0      		ldi r22,lo8(10)
 17226 6208 0E94 0000 		call __udivmodqi4
 17227 620c 282F      		mov r18,r24
 17228 620e 30E0      		ldi r19,lo8(0)
 17229 6210 B4E0      		ldi r27,4
 17230 6212 220F      	1:	lsl r18
 17231 6214 331F      		rol r19
 17232 6216 BA95      		dec r27
 17233 6218 01F4      		brne 1b
 17234 621a 842F      		mov r24,r20
 17235 621c 0E94 0000 		call __udivmodqi4
 17236 6220 922B      		or r25,r18
 17237 6222 9A83      		std Y+2,r25
 17238               	.LM1851:
 17239 6224 4091 0000 		lds r20,time+1
 17240 6228 842F      		mov r24,r20
 17241 622a 0E94 0000 		call __udivmodqi4
 17242 622e 282F      		mov r18,r24
 17243 6230 30E0      		ldi r19,lo8(0)
 17244 6232 A4E0      		ldi r26,4
 17245 6234 220F      	1:	lsl r18
 17246 6236 331F      		rol r19
 17247 6238 AA95      		dec r26
 17248 623a 01F4      		brne 1b
 17249 623c 842F      		mov r24,r20
 17250 623e 0E94 0000 		call __udivmodqi4
 17251 6242 922B      		or r25,r18
 17252 6244 9B83      		std Y+3,r25
 17253               	.LM1852:
 17254 6246 4091 0000 		lds r20,time+2
 17255 624a 842F      		mov r24,r20
 17256 624c 0E94 0000 		call __udivmodqi4
 17257 6250 282F      		mov r18,r24
 17258 6252 30E0      		ldi r19,lo8(0)
 17259 6254 F4E0      		ldi r31,4
 17260 6256 220F      	1:	lsl r18
 17261 6258 331F      		rol r19
 17262 625a FA95      		dec r31
 17263 625c 01F4      		brne 1b
 17264 625e 842F      		mov r24,r20
 17265 6260 0E94 0000 		call __udivmodqi4
 17266 6264 922B      		or r25,r18
 17267 6266 9C83      		std Y+4,r25
 17268               	.LM1853:
 17269 6268 3091 0000 		lds r19,time+3
 17270 626c 832F      		mov r24,r19
 17271 626e 0E94 0000 		call __udivmodqi4
 17272 6272 292F      		mov r18,r25
 17273 6274 2068      		ori r18,lo8(-128)
 17274 6276 832F      		mov r24,r19
 17275 6278 0E94 0000 		call __udivmodqi4
 17276 627c 8295      		swap r24
 17277 627e 807F      		andi r24,lo8(-16)
 17278 6280 282B      		or r18,r24
 17279 6282 852F      		mov r24,r21
 17280 6284 64E6      		ldi r22,lo8(100)
 17281 6286 0E94 0000 		call __udivmodqi4
 17282 628a 8295      		swap r24
 17283 628c 880F      		lsl r24
 17284 628e 880F      		lsl r24
 17285 6290 807C      		andi r24,lo8(-64)
 17286 6292 282B      		or r18,r24
 17287 6294 2D83      		std Y+5,r18
 17288               	.LM1854:
 17289 6296 8091 0000 		lds r24,time+4
 17290 629a 8E83      		std Y+6,r24
 17291               	.LM1855:
 17292 629c 4091 0000 		lds r20,time+5
 17293 62a0 842F      		mov r24,r20
 17294 62a2 6AE0      		ldi r22,lo8(10)
 17295 62a4 0E94 0000 		call __udivmodqi4
 17296 62a8 282F      		mov r18,r24
 17297 62aa 30E0      		ldi r19,lo8(0)
 17298 62ac E4E0      		ldi r30,4
 17299 62ae 220F      	1:	lsl r18
 17300 62b0 331F      		rol r19
 17301 62b2 EA95      		dec r30
 17302 62b4 01F4      		brne 1b
 17303 62b6 842F      		mov r24,r20
 17304 62b8 0E94 0000 		call __udivmodqi4
 17305 62bc 922B      		or r25,r18
 17306 62be 9F83      		std Y+7,r25
 17307               	.LM1856:
 17308 62c0 4091 0000 		lds r20,time+6
 17309 62c4 842F      		mov r24,r20
 17310 62c6 0E94 0000 		call __udivmodqi4
 17311 62ca 282F      		mov r18,r24
 17312 62cc 30E0      		ldi r19,lo8(0)
 17313 62ce 74E0      		ldi r23,4
 17314 62d0 220F      	1:	lsl r18
 17315 62d2 331F      		rol r19
 17316 62d4 7A95      		dec r23
 17317 62d6 01F4      		brne 1b
 17318 62d8 842F      		mov r24,r20
 17319 62da 0E94 0000 		call __udivmodqi4
 17320 62de 922B      		or r25,r18
 17321 62e0 9887      		std Y+8,r25
 17322               	.LM1857:
 17323 62e2 852F      		mov r24,r21
 17324 62e4 0E94 0000 		call __udivmodqi4
 17325 62e8 282F      		mov r18,r24
 17326 62ea 30E0      		ldi r19,lo8(0)
 17327 62ec 44E0      		ldi r20,4
 17328 62ee 220F      	1:	lsl r18
 17329 62f0 331F      		rol r19
 17330 62f2 4A95      		dec r20
 17331 62f4 01F4      		brne 1b
 17332 62f6 852F      		mov r24,r21
 17333 62f8 0E94 0000 		call __udivmodqi4
 17334 62fc 922B      		or r25,r18
 17335 62fe 9987      		std Y+9,r25
 17336               	.LM1858:
 17337 6300 89E0      		ldi r24,lo8(9)
 17338 6302 BE01      		movw r22,r28
 17339 6304 6F5F      		subi r22,lo8(-(1))
 17340 6306 7F4F      		sbci r23,hi8(-(1))
 17341 6308 40ED      		ldi r20,lo8(-48)
 17342 630a 0E94 0000 		call RTC_sendBytes
 17343               	.LVL1370:
 17344               	/* epilogue start */
 17345               	.LM1859:
 17346 630e 2996      		adiw r28,9
 17347 6310 CDBF      		out __SP_L__,r28
 17348 6312 DEBF      		out __SP_H__,r29
 17349 6314 CF91      		pop r28
 17350 6316 DF91      		pop r29
 17351 6318 0895      		ret
 17352               	.LFE158:
 17354               	.global	RTC_setUTCSecs
 17356               	RTC_setUTCSecs:
 17357               	.LFB155:
 17358               	.LM1860:
 17359               	.LVL1371:
 17360               	/* prologue: function */
 17361               	/* frame size = 0 */
 17362               	.LM1861:
 17363 631a 40E0      		ldi r20,lo8(time)
 17364 631c 50E0      		ldi r21,hi8(time)
 17365 631e 0E94 0000 		call RTC_UTCSecsToTime
 17366               	.LVL1372:
 17367               	.LM1862:
 17368 6322 0E94 0000 		call RTC_setTime
 17369               	/* epilogue start */
 17370               	.LM1863:
 17371 6326 0895      		ret
 17372               	.LFE155:
 17374               	.global	RTC_init
 17376               	RTC_init:
 17377               	.LFB152:
 17378               	.LM1864:
 17379 6328 DF93      		push r29
 17380 632a CF93      		push r28
 17381 632c CDB7      		in r28,__SP_L__
 17382 632e DEB7      		in r29,__SP_H__
 17383 6330 E297      		sbiw r28,50
 17384 6332 CDBF      		out __SP_L__,r28
 17385 6334 DEBF      		out __SP_H__,r29
 17386               	/* prologue: function */
 17387               	/* frame size = 50 */
 17388               	.LM1865:
 17389 6336 E0EA      		ldi r30,lo8(1184)
 17390 6338 F4E0      		ldi r31,hi8(1184)
 17391 633a 88E0      		ldi r24,lo8(8)
 17392 633c 8183      		std Z+1,r24
 17393               	.LM1866:
 17394 633e 84E0      		ldi r24,lo8(4)
 17395 6340 8383      		std Z+3,r24
 17396               	.LM1867:
 17397 6342 8FE0      		ldi r24,lo8(15)
 17398 6344 8583      		std Z+5,r24
 17399               	.LM1868:
 17400 6346 81E0      		ldi r24,lo8(1)
 17401 6348 8483      		std Z+4,r24
 17402 634a FE01      		movw r30,r28
 17403 634c 3196      		adiw r30,1
 17404               	.LM1869:
 17405 634e CE01      		movw r24,r28
 17406 6350 4296      		adiw r24,18
 17407               	.L1050:
 17408               	.LM1870:
 17409 6352 1192      		st Z+,__zero_reg__
 17410               	.LM1871:
 17411 6354 E817      		cp r30,r24
 17412 6356 F907      		cpc r31,r25
 17413 6358 01F4      		brne .L1050
 17414               	.LM1872:
 17415 635a 81E1      		ldi r24,lo8(17)
 17416 635c BE01      		movw r22,r28
 17417 635e 6F5F      		subi r22,lo8(-(1))
 17418 6360 7F4F      		sbci r23,hi8(-(1))
 17419 6362 40ED      		ldi r20,lo8(-48)
 17420 6364 0E94 0000 		call RTC_sendBytes
 17421               	/* epilogue start */
 17422               	.LM1873:
 17423 6368 E296      		adiw r28,50
 17424 636a CDBF      		out __SP_L__,r28
 17425 636c DEBF      		out __SP_H__,r29
 17426 636e CF91      		pop r28
 17427 6370 DF91      		pop r29
 17428 6372 0895      		ret
 17429               	.LFE152:
 17431               	.global	RTC_receiveBytes
 17433               	RTC_receiveBytes:
 17434               	.LFB160:
 17435               	.LM1874:
 17436               	.LVL1373:
 17437               	/* prologue: function */
 17438               	/* frame size = 0 */
 17439 6374 582F      		mov r21,r24
 17440               	.LM1875:
 17441 6376 4160      		ori r20,lo8(1)
 17442               	.LVL1374:
 17443               	.LM1876:
 17444 6378 E0EA      		ldi r30,lo8(1184)
 17445 637a F4E0      		ldi r31,hi8(1184)
 17446 637c 4683      		std Z+6,r20
 17447 637e FB01      		movw r30,r22
 17448               	.LVL1375:
 17449 6380 90E0      		ldi r25,lo8(0)
 17450               	.LVL1376:
 17451               	.LM1877:
 17452 6382 A0EA      		ldi r26,lo8(1184)
 17453 6384 B4E0      		ldi r27,hi8(1184)
 17454               	.LM1878:
 17455 6386 22E0      		ldi r18,lo8(2)
 17456 6388 00C0      		rjmp .L1054
 17457               	.LVL1377:
 17458               	.L1057:
 17459               	.LM1879:
 17460 638a 8091 A404 		lds r24,1188
 17461 638e 87FF      		sbrs r24,7
 17462 6390 00C0      		rjmp .L1057
 17463               	.LM1880:
 17464 6392 8091 A704 		lds r24,1191
 17465 6396 8193      		st Z+,r24
 17466               	.LM1881:
 17467 6398 1396      		adiw r26,3
 17468 639a 2C93      		st X,r18
 17469 639c 1397      		sbiw r26,3
 17470               	.LM1882:
 17471 639e 9F5F      		subi r25,lo8(-(1))
 17472               	.LVL1378:
 17473               	.L1054:
 17474               	.LM1883:
 17475 63a0 9517      		cp r25,r21
 17476 63a2 00F0      		brlo .L1057
 17477               	.LM1884:
 17478 63a4 87E0      		ldi r24,lo8(7)
 17479 63a6 E0EA      		ldi r30,lo8(1184)
 17480 63a8 F4E0      		ldi r31,hi8(1184)
 17481 63aa 8383      		std Z+3,r24
 17482               	/* epilogue start */
 17483               	.LM1885:
 17484 63ac 0895      		ret
 17485               	.LFE160:
 17487               	.global	RTC_getTime
 17489               	RTC_getTime:
 17490               	.LFB157:
 17491               	.LM1886:
 17492 63ae 0F93      		push r16
 17493 63b0 1F93      		push r17
 17494 63b2 DF93      		push r29
 17495 63b4 CF93      		push r28
 17496 63b6 CDB7      		in r28,__SP_L__
 17497 63b8 DEB7      		in r29,__SP_H__
 17498 63ba 2897      		sbiw r28,8
 17499 63bc CDBF      		out __SP_L__,r28
 17500 63be DEBF      		out __SP_H__,r29
 17501               	/* prologue: function */
 17502               	/* frame size = 8 */
 17503               	.LM1887:
 17504 63c0 1982      		std Y+1,__zero_reg__
 17505               	.LM1888:
 17506 63c2 81E0      		ldi r24,lo8(1)
 17507 63c4 8E01      		movw r16,r28
 17508 63c6 0F5F      		subi r16,lo8(-(1))
 17509 63c8 1F4F      		sbci r17,hi8(-(1))
 17510 63ca B801      		movw r22,r16
 17511 63cc 40ED      		ldi r20,lo8(-48)
 17512 63ce 0E94 0000 		call RTC_sendBytes
 17513               	.LM1889:
 17514 63d2 88E0      		ldi r24,lo8(8)
 17515 63d4 B801      		movw r22,r16
 17516 63d6 40ED      		ldi r20,lo8(-48)
 17517 63d8 0E94 0000 		call RTC_receiveBytes
 17518               	.LM1890:
 17519 63dc 4981      		ldd r20,Y+1
 17520 63de 842F      		mov r24,r20
 17521 63e0 8295      		swap r24
 17522 63e2 8F70      		andi r24,lo8(15)
 17523 63e4 90E0      		ldi r25,lo8(0)
 17524 63e6 9C01      		movw r18,r24
 17525 63e8 63E0      		ldi r22,3
 17526 63ea 220F      	1:	lsl r18
 17527 63ec 331F      		rol r19
 17528 63ee 6A95      		dec r22
 17529 63f0 01F4      		brne 1b
 17530 63f2 880F      		lsl r24
 17531 63f4 991F      		rol r25
 17532 63f6 280F      		add r18,r24
 17533 63f8 391F      		adc r19,r25
 17534 63fa 4F70      		andi r20,lo8(15)
 17535 63fc 420F      		add r20,r18
 17536 63fe 4093 0000 		sts time,r20
 17537               	.LM1891:
 17538 6402 4A81      		ldd r20,Y+2
 17539 6404 842F      		mov r24,r20
 17540 6406 90E0      		ldi r25,lo8(0)
 17541 6408 8077      		andi r24,lo8(112)
 17542 640a 9070      		andi r25,hi8(112)
 17543 640c 24E0      		ldi r18,4
 17544 640e 9595      	1:	asr r25
 17545 6410 8795      		ror r24
 17546 6412 2A95      		dec r18
 17547 6414 01F4      		brne 1b
 17548 6416 9C01      		movw r18,r24
 17549 6418 03E0      		ldi r16,3
 17550 641a 220F      	1:	lsl r18
 17551 641c 331F      		rol r19
 17552 641e 0A95      		dec r16
 17553 6420 01F4      		brne 1b
 17554 6422 880F      		lsl r24
 17555 6424 991F      		rol r25
 17556 6426 280F      		add r18,r24
 17557 6428 391F      		adc r19,r25
 17558 642a 4F70      		andi r20,lo8(15)
 17559 642c 420F      		add r20,r18
 17560 642e 4093 0000 		sts time+1,r20
 17561               	.LM1892:
 17562 6432 4B81      		ldd r20,Y+3
 17563 6434 842F      		mov r24,r20
 17564 6436 90E0      		ldi r25,lo8(0)
 17565 6438 8077      		andi r24,lo8(112)
 17566 643a 9070      		andi r25,hi8(112)
 17567 643c B4E0      		ldi r27,4
 17568 643e 9595      	1:	asr r25
 17569 6440 8795      		ror r24
 17570 6442 BA95      		dec r27
 17571 6444 01F4      		brne 1b
 17572 6446 9C01      		movw r18,r24
 17573 6448 A3E0      		ldi r26,3
 17574 644a 220F      	1:	lsl r18
 17575 644c 331F      		rol r19
 17576 644e AA95      		dec r26
 17577 6450 01F4      		brne 1b
 17578 6452 880F      		lsl r24
 17579 6454 991F      		rol r25
 17580 6456 280F      		add r18,r24
 17581 6458 391F      		adc r19,r25
 17582 645a 4F70      		andi r20,lo8(15)
 17583 645c 420F      		add r20,r18
 17584 645e 4093 0000 		sts time+2,r20
 17585               	.LM1893:
 17586 6462 4C81      		ldd r20,Y+4
 17587 6464 642F      		mov r22,r20
 17588 6466 70E0      		ldi r23,lo8(0)
 17589 6468 CB01      		movw r24,r22
 17590 646a 8073      		andi r24,lo8(48)
 17591 646c 9070      		andi r25,hi8(48)
 17592 646e E4E0      		ldi r30,4
 17593 6470 9595      	1:	asr r25
 17594 6472 8795      		ror r24
 17595 6474 EA95      		dec r30
 17596 6476 01F4      		brne 1b
 17597 6478 9C01      		movw r18,r24
 17598 647a 53E0      		ldi r21,3
 17599 647c 220F      	1:	lsl r18
 17600 647e 331F      		rol r19
 17601 6480 5A95      		dec r21
 17602 6482 01F4      		brne 1b
 17603 6484 880F      		lsl r24
 17604 6486 991F      		rol r25
 17605 6488 280F      		add r18,r24
 17606 648a 391F      		adc r19,r25
 17607 648c 4F70      		andi r20,lo8(15)
 17608 648e 420F      		add r20,r18
 17609 6490 4093 0000 		sts time+3,r20
 17610               	.LM1894:
 17611 6494 8D81      		ldd r24,Y+5
 17612 6496 8093 0000 		sts time+4,r24
 17613               	.LM1895:
 17614 649a 4E81      		ldd r20,Y+6
 17615 649c 842F      		mov r24,r20
 17616 649e 90E0      		ldi r25,lo8(0)
 17617 64a0 8073      		andi r24,lo8(48)
 17618 64a2 9070      		andi r25,hi8(48)
 17619 64a4 14E0      		ldi r17,4
 17620 64a6 9595      	1:	asr r25
 17621 64a8 8795      		ror r24
 17622 64aa 1A95      		dec r17
 17623 64ac 01F4      		brne 1b
 17624 64ae 9C01      		movw r18,r24
 17625 64b0 B3E0      		ldi r27,3
 17626 64b2 220F      	1:	lsl r18
 17627 64b4 331F      		rol r19
 17628 64b6 BA95      		dec r27
 17629 64b8 01F4      		brne 1b
 17630 64ba 880F      		lsl r24
 17631 64bc 991F      		rol r25
 17632 64be 280F      		add r18,r24
 17633 64c0 391F      		adc r19,r25
 17634 64c2 4F70      		andi r20,lo8(15)
 17635 64c4 420F      		add r20,r18
 17636 64c6 4093 0000 		sts time+5,r20
 17637               	.LM1896:
 17638 64ca 4F81      		ldd r20,Y+7
 17639 64cc 842F      		mov r24,r20
 17640 64ce 90E0      		ldi r25,lo8(0)
 17641 64d0 8071      		andi r24,lo8(16)
 17642 64d2 9070      		andi r25,hi8(16)
 17643 64d4 F4E0      		ldi r31,4
 17644 64d6 9595      	1:	asr r25
 17645 64d8 8795      		ror r24
 17646 64da FA95      		dec r31
 17647 64dc 01F4      		brne 1b
 17648 64de 9C01      		movw r18,r24
 17649 64e0 E3E0      		ldi r30,3
 17650 64e2 220F      	1:	lsl r18
 17651 64e4 331F      		rol r19
 17652 64e6 EA95      		dec r30
 17653 64e8 01F4      		brne 1b
 17654 64ea 880F      		lsl r24
 17655 64ec 991F      		rol r25
 17656 64ee 280F      		add r18,r24
 17657 64f0 391F      		adc r19,r25
 17658 64f2 4F70      		andi r20,lo8(15)
 17659 64f4 420F      		add r20,r18
 17660 64f6 4093 0000 		sts time+6,r20
 17661               	.LM1897:
 17662 64fa 2885      		ldd r18,Y+8
 17663               	.LM1898:
 17664 64fc 422F      		mov r20,r18
 17665 64fe 4F70      		andi r20,lo8(15)
 17666 6500 425E      		subi r20,lo8(-(30))
 17667 6502 6075      		andi r22,lo8(80)
 17668 6504 7070      		andi r23,hi8(80)
 17669 6506 86E0      		ldi r24,6
 17670 6508 7595      	1:	asr r23
 17671 650a 6795      		ror r22
 17672 650c 8A95      		dec r24
 17673 650e 01F4      		brne 1b
 17674 6510 84E6      		ldi r24,lo8(100)
 17675 6512 90E0      		ldi r25,hi8(100)
 17676 6514 FC01      		movw r30,r24
 17677 6516 6E9F      		mul r22,r30
 17678 6518 C001      		movw r24,r0
 17679 651a 6F9F      		mul r22,r31
 17680 651c 900D      		add r25,r0
 17681 651e 7E9F      		mul r23,r30
 17682 6520 900D      		add r25,r0
 17683 6522 1124      		clr r1
 17684 6524 480F      		add r20,r24
 17685 6526 2295      		swap r18
 17686 6528 2F70      		andi r18,lo8(15)
 17687 652a 30E0      		ldi r19,lo8(0)
 17688 652c C901      		movw r24,r18
 17689 652e 03E0      		ldi r16,3
 17690 6530 880F      	1:	lsl r24
 17691 6532 991F      		rol r25
 17692 6534 0A95      		dec r16
 17693 6536 01F4      		brne 1b
 17694 6538 220F      		lsl r18
 17695 653a 331F      		rol r19
 17696 653c 820F      		add r24,r18
 17697 653e 931F      		adc r25,r19
 17698 6540 480F      		add r20,r24
 17699 6542 4093 0000 		sts time+7,r20
 17700               	/* epilogue start */
 17701               	.LM1899:
 17702 6546 2896      		adiw r28,8
 17703 6548 CDBF      		out __SP_L__,r28
 17704 654a DEBF      		out __SP_H__,r29
 17705 654c CF91      		pop r28
 17706 654e DF91      		pop r29
 17707 6550 1F91      		pop r17
 17708 6552 0F91      		pop r16
 17709 6554 0895      		ret
 17710               	.LFE157:
 17712               	.global	RTC_getUTCSecs
 17714               	RTC_getUTCSecs:
 17715               	.LFB156:
 17716               	.LM1900:
 17717               	/* prologue: function */
 17718               	/* frame size = 0 */
 17719               	.LM1901:
 17720 6556 0E94 0000 		call RTC_getTime
 17721               	.LM1902:
 17722 655a 80E0      		ldi r24,lo8(time)
 17723 655c 90E0      		ldi r25,hi8(time)
 17724 655e 0E94 0000 		call RTC_TimeToUTCSecs
 17725               	/* epilogue start */
 17726               	.LM1903:
 17727 6562 0895      		ret
 17728               	.LFE156:
 17730               	.global	Clock_Init
 17732               	Clock_Init:
 17733               	.LFB162:
 17734               	.LM1904:
 17735 6564 0F93      		push r16
 17736 6566 DF93      		push r29
 17737 6568 CF93      		push r28
 17738 656a 0F92      		push __tmp_reg__
 17739 656c CDB7      		in r28,__SP_L__
 17740 656e DEB7      		in r29,__SP_H__
 17741               	/* prologue: function */
 17742               	/* frame size = 1 */
 17743               	.LM1905:
 17744 6570 80EC      		ldi r24,lo8(-64)
 17745 6572 E0E5      		ldi r30,lo8(80)
 17746 6574 F0E0      		ldi r31,hi8(80)
 17747 6576 8283      		std Z+2,r24
 17748               	.LM1906:
 17749 6578 8091 5000 		lds r24,80
 17750 657c 8860      		ori r24,lo8(8)
 17751 657e 8093 5000 		sts 80,r24
 17752               	.L1064:
 17753               	.LM1907:
 17754 6582 8091 5100 		lds r24,81
 17755 6586 83FF      		sbrs r24,3
 17756 6588 00C0      		rjmp .L1064
 17757               	.LM1908:
 17758 658a 2091 4000 		lds r18,64
 17759               	.LBB972:
 17760               	.LBB973:
 17761               	.LM1909:
 17762 658e 8FB7      		in r24,__SREG__
 17763 6590 8983      		std Y+1,r24
 17764               	.LVL1379:
 17765               	.LM1910:
 17766               	/* #APP */
 17767               	 ;  240 "sd.c" 1
 17768 6592 F894      		cli
 17769               	 ;  0 "" 2
 17770               	.LM1911:
 17771               	/* #NOAPP */
 17772 6594 1BBE      		out 59-0,__zero_reg__
 17773               	.LM1912:
 17774 6596 287F      		andi r18,lo8(-8)
 17775 6598 2360      		ori r18,lo8(3)
 17776 659a 80E4      		ldi r24,lo8(64)
 17777 659c 90E0      		ldi r25,hi8(64)
 17778               	/* #APP */
 17779               	 ;  262 "sd.c" 1
 17780 659e FC01      		movw r30,  r24
 17781 65a0 08ED      		ldi  r16,  216
 17782 65a2 04BF      		out   52, r16
 17783 65a4 2083      		st     Z,  r18
 17784               		
 17785               	 ;  0 "" 2
 17786               	.LM1913:
 17787               	/* #NOAPP */
 17788 65a6 8981      		ldd r24,Y+1
 17789 65a8 8FBF      		out __SREG__,r24
 17790               	.LBE973:
 17791               	.LBE972:
 17792               	.LM1914:
 17793 65aa 8091 5000 		lds r24,80
 17794 65ae 8E7F      		andi r24,lo8(-2)
 17795 65b0 8093 5000 		sts 80,r24
 17796               	/* epilogue start */
 17797               	.LM1915:
 17798 65b4 0F90      		pop __tmp_reg__
 17799 65b6 CF91      		pop r28
 17800 65b8 DF91      		pop r29
 17801 65ba 0F91      		pop r16
 17802 65bc 0895      		ret
 17803               	.LFE162:
 17805               	.global	Disable_JTAG
 17807               	Disable_JTAG:
 17808               	.LFB163:
 17809               	.LM1916:
 17810 65be 0F93      		push r16
 17811 65c0 DF93      		push r29
 17812 65c2 CF93      		push r28
 17813 65c4 0F92      		push __tmp_reg__
 17814 65c6 CDB7      		in r28,__SP_L__
 17815 65c8 DEB7      		in r29,__SP_H__
 17816               	/* prologue: function */
 17817               	/* frame size = 1 */
 17818               	.LBB974:
 17819               	.LBB975:
 17820               	.LM1917:
 17821 65ca 8FB7      		in r24,__SREG__
 17822 65cc 8983      		std Y+1,r24
 17823               	.LVL1380:
 17824               	.LM1918:
 17825               	/* #APP */
 17826               	 ;  240 "sd.c" 1
 17827 65ce F894      		cli
 17828               	 ;  0 "" 2
 17829               	.LM1919:
 17830               	/* #NOAPP */
 17831 65d0 1BBE      		out 59-0,__zero_reg__
 17832               	.LM1920:
 17833 65d2 21E0      		ldi r18,lo8(1)
 17834 65d4 86E9      		ldi r24,lo8(150)
 17835 65d6 90E0      		ldi r25,hi8(150)
 17836               	/* #APP */
 17837               	 ;  262 "sd.c" 1
 17838 65d8 FC01      		movw r30,  r24
 17839 65da 08ED      		ldi  r16,  216
 17840 65dc 04BF      		out   52, r16
 17841 65de 2083      		st     Z,  r18
 17842               		
 17843               	 ;  0 "" 2
 17844               	.LM1921:
 17845               	/* #NOAPP */
 17846 65e0 8981      		ldd r24,Y+1
 17847 65e2 8FBF      		out __SREG__,r24
 17848               	/* epilogue start */
 17849               	.LBE975:
 17850               	.LBE974:
 17851               	.LM1922:
 17852 65e4 0F90      		pop __tmp_reg__
 17853 65e6 CF91      		pop r28
 17854 65e8 DF91      		pop r29
 17855 65ea 0F91      		pop r16
 17856 65ec 0895      		ret
 17857               	.LFE163:
 17859               	.global	DMA_Init
 17861               	DMA_Init:
 17862               	.LFB164:
 17863               	.LM1923:
 17864               	/* prologue: function */
 17865               	/* frame size = 0 */
 17866               	.LM1924:
 17867 65ee E0E0      		ldi r30,lo8(256)
 17868 65f0 F1E0      		ldi r31,hi8(256)
 17869 65f2 8081      		ld r24,Z
 17870 65f4 8068      		ori r24,lo8(-128)
 17871 65f6 8083      		st Z,r24
 17872               	.LM1925:
 17873 65f8 8289      		ldd r24,Z+18
 17874 65fa 8560      		ori r24,lo8(5)
 17875 65fc 828B      		std Z+18,r24
 17876               	.LM1926:
 17877 65fe 8BE8      		ldi r24,lo8(-117)
 17878 6600 838B      		std Z+19,r24
 17879               	.LM1927:
 17880 6602 80E0      		ldi r24,lo8(1024)
 17881 6604 94E0      		ldi r25,hi8(1024)
 17882 6606 848B      		std Z+20,r24
 17883 6608 958B      		std Z+21,r25
 17884               	.LM1928:
 17885 660a 168A      		std Z+22,__zero_reg__
 17886               	.LM1929:
 17887 660c 80EA      		ldi r24,lo8(-96)
 17888 660e 808F      		std Z+24,r24
 17889               	.LM1930:
 17890 6610 8AE0      		ldi r24,lo8(10)
 17891 6612 818F      		std Z+25,r24
 17892               	.LM1931:
 17893 6614 128E      		std Z+26,__zero_reg__
 17894               	.LM1932:
 17895 6616 80E0      		ldi r24,lo8(WifiBuffer)
 17896 6618 90E0      		ldi r25,hi8(WifiBuffer)
 17897 661a 848F      		std Z+28,r24
 17898               	.LM1933:
 17899 661c 958F      		std Z+29,r25
 17900               	.LM1934:
 17901 661e 168E      		std Z+30,__zero_reg__
 17902               	.LM1935:
 17903 6620 8089      		ldd r24,Z+16
 17904 6622 846A      		ori r24,lo8(-92)
 17905 6624 808B      		std Z+16,r24
 17906               	/* epilogue start */
 17907               	.LM1936:
 17908 6626 0895      		ret
 17909               	.LFE164:
 17911               	.global	Interrupt_Init
 17913               	Interrupt_Init:
 17914               	.LFB165:
 17915               	.LM1937:
 17916               	/* prologue: function */
 17917               	/* frame size = 0 */
 17918               	.LM1938:
 17919 6628 E0EA      		ldi r30,lo8(160)
 17920 662a F0E0      		ldi r31,hi8(160)
 17921 662c 8281      		ldd r24,Z+2
 17922 662e 8760      		ori r24,lo8(7)
 17923 6630 8283      		std Z+2,r24
 17924               	.LM1939:
 17925               	/* #APP */
 17926               	 ;  567 "main.c" 1
 17927 6632 7894      		sei
 17928               	 ;  0 "" 2
 17929               	/* epilogue start */
 17930               	.LM1940:
 17931               	/* #NOAPP */
 17932 6634 0895      		ret
 17933               	.LFE165:
 17935               	.global	SD_BackroundWriter_Init
 17937               	SD_BackroundWriter_Init:
 17938               	.LFB166:
 17939               	.LM1941:
 17940               	/* prologue: function */
 17941               	/* frame size = 0 */
 17942               	.LM1942:
 17943 6636 E0E4      		ldi r30,lo8(2624)
 17944 6638 FAE0      		ldi r31,hi8(2624)
 17945 663a 80E0      		ldi r24,lo8(2304)
 17946 663c 99E0      		ldi r25,hi8(2304)
 17947 663e 86A3      		std Z+38,r24
 17948 6640 97A3      		std Z+39,r25
 17949               	.LM1943:
 17950 6642 8081      		ld r24,Z
 17951 6644 807F      		andi r24,lo8(-16)
 17952 6646 8560      		ori r24,lo8(5)
 17953 6648 8083      		st Z,r24
 17954               	.LM1944:
 17955 664a 8681      		ldd r24,Z+6
 17956 664c 8C7F      		andi r24,lo8(-4)
 17957 664e 8160      		ori r24,lo8(1)
 17958 6650 8683      		std Z+6,r24
 17959               	/* epilogue start */
 17960               	.LM1945:
 17961 6652 0895      		ret
 17962               	.LFE166:
 17964               	.global	SD_WriteRTCBlock
 17966               	SD_WriteRTCBlock:
 17967               	.LFB168:
 17968               	.LM1946:
 17969               	.LVL1381:
 17970 6654 AF92      		push r10
 17971 6656 BF92      		push r11
 17972 6658 CF92      		push r12
 17973 665a DF92      		push r13
 17974 665c EF92      		push r14
 17975 665e FF92      		push r15
 17976 6660 0F93      		push r16
 17977 6662 1F93      		push r17
 17978               	/* prologue: function */
 17979               	/* frame size = 0 */
 17980 6664 7B01      		movw r14,r22
 17981 6666 8C01      		movw r16,r24
 17982 6668 5901      		movw r10,r18
 17983 666a 6A01      		movw r12,r20
 17984               	.LBB976:
 17985               	.LBB977:
 17986               	.LM1947:
 17987 666c 8FEF      		ldi r24,lo8(-1)
 17988 666e 9FEF      		ldi r25,hi8(-1)
 17989 6670 AFEF      		ldi r26,hlo8(-1)
 17990 6672 BFEF      		ldi r27,hhi8(-1)
 17991 6674 8093 0000 		sts CRC,r24
 17992 6678 9093 0000 		sts (CRC)+1,r25
 17993 667c A093 0000 		sts (CRC)+2,r26
 17994 6680 B093 0000 		sts (CRC)+3,r27
 17995               	.LBE977:
 17996               	.LBE976:
 17997               	.LM1948:
 17998 6684 6CE4      		ldi r22,lo8(-1327598516)
 17999 6686 74E7      		ldi r23,hi8(-1327598516)
 18000 6688 8EED      		ldi r24,hlo8(-1327598516)
 18001 668a 90EB      		ldi r25,hhi8(-1327598516)
 18002               	.LVL1382:
 18003 668c 0E94 0000 		call SD_Write32
 18004               	.LVL1383:
 18005               	.LM1949:
 18006 6690 6BE1      		ldi r22,lo8(27)
 18007 6692 70E0      		ldi r23,hi8(27)
 18008 6694 80E0      		ldi r24,hlo8(27)
 18009 6696 90E0      		ldi r25,hhi8(27)
 18010 6698 0E94 0000 		call SD_Write32
 18011               	.LM1950:
 18012 669c 82E0      		ldi r24,lo8(2)
 18013 669e 90E0      		ldi r25,hi8(2)
 18014 66a0 0E94 0000 		call SD_Write16
 18015               	.LM1951:
 18016 66a4 C801      		movw r24,r16
 18017 66a6 B701      		movw r22,r14
 18018 66a8 0E94 0000 		call SD_Write32
 18019               	.LM1952:
 18020 66ac C601      		movw r24,r12
 18021 66ae B501      		movw r22,r10
 18022 66b0 0E94 0000 		call SD_Write32
 18023               	.LM1953:
 18024 66b4 80E0      		ldi r24,lo8(0)
 18025 66b6 0E94 0000 		call SD_Write8
 18026               	.LM1954:
 18027 66ba 60E0      		ldi r22,lo8(0)
 18028 66bc 70E0      		ldi r23,hi8(0)
 18029 66be 80E0      		ldi r24,hlo8(0)
 18030 66c0 90E0      		ldi r25,hhi8(0)
 18031 66c2 0E94 0000 		call SD_Write32
 18032               	.LM1955:
 18033 66c6 0E94 0000 		call SD_WriteCRC
 18034               	.LM1956:
 18035 66ca 80E0      		ldi r24,lo8(Log_File)
 18036 66cc 90E0      		ldi r25,hi8(Log_File)
 18037 66ce 0E94 0000 		call f_sync
 18038               	/* epilogue start */
 18039               	.LM1957:
 18040 66d2 1F91      		pop r17
 18041 66d4 0F91      		pop r16
 18042 66d6 FF90      		pop r15
 18043 66d8 EF90      		pop r14
 18044               	.LVL1384:
 18045 66da DF90      		pop r13
 18046 66dc CF90      		pop r12
 18047 66de BF90      		pop r11
 18048 66e0 AF90      		pop r10
 18049               	.LVL1385:
 18050 66e2 0895      		ret
 18051               	.LFE168:
 18053               	.global	Rs232_To_Debug
 18055               	Rs232_To_Debug:
 18056               	.LFB177:
 18057               	.LM1958:
 18058               	/* prologue: function */
 18059               	/* frame size = 0 */
 18060               	.L1085:
 18061               	.LBB978:
 18062               	.LBB979:
 18063               	.LM1959:
 18064 66e4 2091 0000 		lds r18,Rs232_writeLocation
 18065 66e8 3091 0000 		lds r19,(Rs232_writeLocation)+1
 18066 66ec 8091 0000 		lds r24,Rs232_readLocation
 18067 66f0 9091 0000 		lds r25,(Rs232_readLocation)+1
 18068 66f4 2817      		cp r18,r24
 18069 66f6 3907      		cpc r19,r25
 18070 66f8 01F4      		brne .L1086
 18071 66fa 00C0      		rjmp .L1085
 18072               	.L1080:
 18073               	.LBE979:
 18074               	.LBE978:
 18075               	.LBB980:
 18076               	.LBB981:
 18077               	.LM1960:
 18078 66fc 8091 A108 		lds r24,2209
 18079 6700 85FF      		sbrs r24,5
 18080 6702 00C0      		rjmp .L1080
 18081               	.LM1961:
 18082 6704 9093 A008 		sts 2208,r25
 18083 6708 00C0      		rjmp .L1085
 18084               	.L1086:
 18085               	.LBE981:
 18086               	.LBE980:
 18087               	.LM1962:
 18088 670a 81E0      		ldi r24,lo8(1)
 18089 670c 0E94 0000 		call Rs232_GetByte
 18090 6710 982F      		mov r25,r24
 18091 6712 00C0      		rjmp .L1080
 18092               	.LFE177:
 18094               	.global	Debug_To_Wifi
 18096               	Debug_To_Wifi:
 18097               	.LFB178:
 18098               	.LM1963:
 18099               	/* prologue: function */
 18100               	/* frame size = 0 */
 18101               	.L1098:
 18102               	.LBB982:
 18103               	.LBB983:
 18104               	.LM1964:
 18105 6714 2091 0000 		lds r18,Debug_writeLocation
 18106 6718 3091 0000 		lds r19,(Debug_writeLocation)+1
 18107 671c 8091 0000 		lds r24,Debug_readLocation
 18108 6720 9091 0000 		lds r25,(Debug_readLocation)+1
 18109 6724 2817      		cp r18,r24
 18110 6726 3907      		cpc r19,r25
 18111 6728 01F4      		brne .L1099
 18112 672a 00C0      		rjmp .L1088
 18113               	.L1090:
 18114               	.LBE983:
 18115               	.LBE982:
 18116               	.LBB984:
 18117               	.LBB985:
 18118               	.LM1965:
 18119 672c 8091 A10A 		lds r24,2721
 18120 6730 85FF      		sbrs r24,5
 18121 6732 00C0      		rjmp .L1090
 18122               	.LM1966:
 18123 6734 9093 A00A 		sts 2720,r25
 18124               	.L1088:
 18125               	.LBE985:
 18126               	.LBE984:
 18127               	.LM1967:
 18128 6738 0E94 0000 		call Wifi_CharReadyToRead
 18129 673c 8823      		tst r24
 18130 673e 01F0      		breq .L1098
 18131               	.LM1968:
 18132 6740 81E0      		ldi r24,lo8(1)
 18133 6742 0E94 0000 		call Wifi_GetByte
 18134 6746 982F      		mov r25,r24
 18135               	.L1092:
 18136               	.LBB986:
 18137               	.LBB987:
 18138               	.LM1969:
 18139 6748 8091 A108 		lds r24,2209
 18140 674c 85FF      		sbrs r24,5
 18141 674e 00C0      		rjmp .L1092
 18142               	.LM1970:
 18143 6750 9093 A008 		sts 2208,r25
 18144 6754 00C0      		rjmp .L1098
 18145               	.L1099:
 18146               	.LBE987:
 18147               	.LBE986:
 18148               	.LM1971:
 18149 6756 81E0      		ldi r24,lo8(1)
 18150 6758 0E94 0000 		call Debug_GetByte
 18151 675c 982F      		mov r25,r24
 18152 675e 00C0      		rjmp .L1090
 18153               	.LFE178:
 18155               		.data
 18156               	.LC1:
 18157 000b 2E62 7400 		.string	".bt"
 18158               		.text
 18159               	.global	SD_MakeFileName
 18161               	SD_MakeFileName:
 18162               	.LFB113:
 18163               	.LM1972:
 18164               	.LVL1386:
 18165 6760 0F93      		push r16
 18166 6762 1F93      		push r17
 18167               	/* prologue: function */
 18168               	/* frame size = 0 */
 18169               	.LM1973:
 18170 6764 00E0      		ldi r16,lo8(fileName)
 18171 6766 10E0      		ldi r17,hi8(fileName)
 18172 6768 2FE2      		ldi r18,lo8(47)
 18173 676a 2093 0000 		sts fileName,r18
 18174               	.LM1974:
 18175 676e A801      		movw r20,r16
 18176 6770 4F5F      		subi r20,lo8(-(1))
 18177 6772 5F4F      		sbci r21,hi8(-(1))
 18178 6774 20E1      		ldi r18,lo8(16)
 18179 6776 30E0      		ldi r19,hi8(16)
 18180 6778 0E94 0000 		call ltoa
 18181               	.LVL1387:
 18182               	.LM1975:
 18183 677c C801      		movw r24,r16
 18184 677e 60E0      		ldi r22,lo8(.LC1)
 18185 6780 70E0      		ldi r23,hi8(.LC1)
 18186 6782 0E94 0000 		call strcat
 18187               	/* epilogue start */
 18188               	.LM1976:
 18189 6786 1F91      		pop r17
 18190 6788 0F91      		pop r16
 18191 678a 0895      		ret
 18192               	.LFE113:
 18194               	.global	SD_WriteString
 18196               	SD_WriteString:
 18197               	.LFB109:
 18198               	.LM1977:
 18199               	.LVL1388:
 18200 678c AF92      		push r10
 18201 678e BF92      		push r11
 18202 6790 CF92      		push r12
 18203 6792 DF92      		push r13
 18204 6794 EF92      		push r14
 18205 6796 FF92      		push r15
 18206 6798 0F93      		push r16
 18207 679a 1F93      		push r17
 18208 679c CF93      		push r28
 18209 679e DF93      		push r29
 18210               	/* prologue: function */
 18211               	/* frame size = 0 */
 18212 67a0 6C01      		movw r12,r24
 18213               	.LM1978:
 18214 67a2 60E0      		ldi r22,lo8(Log_File)
 18215 67a4 70E0      		ldi r23,hi8(Log_File)
 18216 67a6 0E94 0000 		call f_puts
 18217               	.LVL1389:
 18218 67aa AA24      		clr r10
 18219               	.LVL1390:
 18220 67ac 00C0      		rjmp .L1103
 18221               	.LVL1391:
 18222               	.L1105:
 18223               	.LBB988:
 18224               	.LM1979:
 18225 67ae 2091 0000 		lds r18,CRC
 18226 67b2 3091 0000 		lds r19,(CRC)+1
 18227 67b6 4091 0000 		lds r20,(CRC)+2
 18228 67ba 5091 0000 		lds r21,(CRC)+3
 18229 67be CC0D      		add r28,r12
 18230 67c0 DD1D      		adc r29,r13
 18231 67c2 8881      		ld r24,Y
 18232 67c4 90E0      		ldi r25,lo8(0)
 18233 67c6 A0E0      		ldi r26,lo8(0)
 18234 67c8 B0E0      		ldi r27,hi8(0)
 18235 67ca 8227      		eor r24,r18
 18236 67cc 9327      		eor r25,r19
 18237 67ce A427      		eor r26,r20
 18238 67d0 B527      		eor r27,r21
 18239 67d2 8093 0000 		sts CRC,r24
 18240 67d6 9093 0000 		sts (CRC)+1,r25
 18241 67da A093 0000 		sts (CRC)+2,r26
 18242 67de B093 0000 		sts (CRC)+3,r27
 18243 67e2 BB24      		clr r11
 18244               	.L1104:
 18245               	.LBB989:
 18246               	.LM1980:
 18247 67e4 E090 0000 		lds r14,CRC
 18248 67e8 F090 0000 		lds r15,(CRC)+1
 18249 67ec 0091 0000 		lds r16,(CRC)+2
 18250 67f0 1091 0000 		lds r17,(CRC)+3
 18251 67f4 6091 0000 		lds r22,CRC
 18252 67f8 7091 0000 		lds r23,(CRC)+1
 18253 67fc 8091 0000 		lds r24,(CRC)+2
 18254 6800 9091 0000 		lds r25,(CRC)+3
 18255 6804 6170      		andi r22,lo8(1)
 18256 6806 7070      		andi r23,hi8(1)
 18257 6808 8070      		andi r24,hlo8(1)
 18258 680a 9070      		andi r25,hhi8(1)
 18259 680c 20E2      		ldi r18,lo8(-306674912)
 18260 680e 33E8      		ldi r19,hi8(-306674912)
 18261 6810 48EB      		ldi r20,hlo8(-306674912)
 18262 6812 5DEE      		ldi r21,hhi8(-306674912)
 18263 6814 0E94 0000 		call __mulsi3
 18264 6818 1695      		lsr r17
 18265 681a 0795      		ror r16
 18266 681c F794      		ror r15
 18267 681e E794      		ror r14
 18268 6820 E626      		eor r14,r22
 18269 6822 F726      		eor r15,r23
 18270 6824 0827      		eor r16,r24
 18271 6826 1927      		eor r17,r25
 18272 6828 E092 0000 		sts CRC,r14
 18273 682c F092 0000 		sts (CRC)+1,r15
 18274 6830 0093 0000 		sts (CRC)+2,r16
 18275 6834 1093 0000 		sts (CRC)+3,r17
 18276               	.LM1981:
 18277 6838 B394      		inc r11
 18278 683a 88E0      		ldi r24,lo8(8)
 18279 683c B816      		cp r11,r24
 18280 683e 01F4      		brne .L1104
 18281               	.LBE989:
 18282               	.LM1982:
 18283 6840 A394      		inc r10
 18284               	.L1103:
 18285 6842 CA2D      		mov r28,r10
 18286 6844 D0E0      		ldi r29,lo8(0)
 18287 6846 F601      		movw r30,r12
 18288 6848 0190      		ld __tmp_reg__,Z+
 18289 684a 0020      		tst __tmp_reg__
 18290 684c 01F4      		brne .-6
 18291 684e 3197      		sbiw r30,1
 18292 6850 EC19      		sub r30,r12
 18293 6852 FD09      		sbc r31,r13
 18294 6854 CE17      		cp r28,r30
 18295 6856 DF07      		cpc r29,r31
 18296 6858 00F4      		brsh .+2
 18297 685a 00C0      		rjmp .L1105
 18298               	/* epilogue start */
 18299               	.LBE988:
 18300               	.LM1983:
 18301 685c DF91      		pop r29
 18302 685e CF91      		pop r28
 18303 6860 1F91      		pop r17
 18304 6862 0F91      		pop r16
 18305 6864 FF90      		pop r15
 18306 6866 EF90      		pop r14
 18307 6868 DF90      		pop r13
 18308 686a CF90      		pop r12
 18309               	.LVL1392:
 18310 686c BF90      		pop r11
 18311               	.LVL1393:
 18312 686e AF90      		pop r10
 18313               	.LVL1394:
 18314 6870 0895      		ret
 18315               	.LFE109:
 18317               		.data
 18318               	.LC2:
 18319 000f 4169 725F 		.string	"Air_Small"
 18319      536D 616C 
 18319      6C00 
 18320               	.LC3:
 18321 0019 3332 00   		.string	"32"
 18322               	.LC4:
 18323 001c 4169 725F 		.string	"Air_Large"
 18323      4C61 7267 
 18323      6500 
 18324               		.text
 18325               	.global	SD_WriteAirSample
 18327               	SD_WriteAirSample:
 18328               	.LFB174:
 18329               	.LM1984:
 18330 6872 0F93      		push r16
 18331 6874 1F93      		push r17
 18332               	/* prologue: function */
 18333               	/* frame size = 0 */
 18334               	.LBB990:
 18335               	.LBB991:
 18336               	.LM1985:
 18337 6876 8FEF      		ldi r24,lo8(-1)
 18338 6878 9FEF      		ldi r25,hi8(-1)
 18339 687a AFEF      		ldi r26,hlo8(-1)
 18340 687c BFEF      		ldi r27,hhi8(-1)
 18341 687e 8093 0000 		sts CRC,r24
 18342 6882 9093 0000 		sts (CRC)+1,r25
 18343 6886 A093 0000 		sts (CRC)+2,r26
 18344 688a B093 0000 		sts (CRC)+3,r27
 18345               	.LBE991:
 18346               	.LBE990:
 18347               	.LM1986:
 18348 688e 6CE4      		ldi r22,lo8(-1327598516)
 18349 6890 74E7      		ldi r23,hi8(-1327598516)
 18350 6892 8EED      		ldi r24,hlo8(-1327598516)
 18351 6894 90EB      		ldi r25,hhi8(-1327598516)
 18352 6896 0E94 0000 		call SD_Write32
 18353               	.LM1987:
 18354 689a 6DE3      		ldi r22,lo8(61)
 18355 689c 70E0      		ldi r23,hi8(61)
 18356 689e 80E0      		ldi r24,hlo8(61)
 18357 68a0 90E0      		ldi r25,hhi8(61)
 18358 68a2 0E94 0000 		call SD_Write32
 18359               	.LM1988:
 18360 68a6 83E0      		ldi r24,lo8(3)
 18361 68a8 90E0      		ldi r25,hi8(3)
 18362 68aa 0E94 0000 		call SD_Write16
 18363               	.LM1989:
 18364 68ae 6091 0000 		lds r22,airSampleTime
 18365 68b2 7091 0000 		lds r23,(airSampleTime)+1
 18366 68b6 8091 0000 		lds r24,(airSampleTime)+2
 18367 68ba 9091 0000 		lds r25,(airSampleTime)+3
 18368 68be 0E94 0000 		call SD_Write32
 18369               	.LM1990:
 18370 68c2 60E0      		ldi r22,lo8(110592000)
 18371 68c4 70E8      		ldi r23,hi8(110592000)
 18372 68c6 87E9      		ldi r24,hlo8(110592000)
 18373 68c8 96E0      		ldi r25,hhi8(110592000)
 18374 68ca 0E94 0000 		call SD_Write32
 18375               	.LM1991:
 18376 68ce 61E0      		ldi r22,lo8(1)
 18377 68d0 70E0      		ldi r23,hi8(1)
 18378 68d2 80E0      		ldi r24,hlo8(1)
 18379 68d4 90E0      		ldi r25,hhi8(1)
 18380 68d6 0E94 0000 		call SD_Write32
 18381               	.LM1992:
 18382 68da 80E0      		ldi r24,lo8(.LC2)
 18383 68dc 90E0      		ldi r25,hi8(.LC2)
 18384 68de 0E94 0000 		call SD_WriteString
 18385               	.LM1993:
 18386 68e2 89E0      		ldi r24,lo8(9)
 18387 68e4 0E94 0000 		call SD_Write8
 18388               	.LM1994:
 18389 68e8 00E0      		ldi r16,lo8(.LC3)
 18390 68ea 10E0      		ldi r17,hi8(.LC3)
 18391 68ec C801      		movw r24,r16
 18392 68ee 0E94 0000 		call SD_WriteString
 18393               	.LM1995:
 18394 68f2 8AE0      		ldi r24,lo8(10)
 18395 68f4 0E94 0000 		call SD_Write8
 18396               	.LM1996:
 18397 68f8 80E0      		ldi r24,lo8(.LC4)
 18398 68fa 90E0      		ldi r25,hi8(.LC4)
 18399 68fc 0E94 0000 		call SD_WriteString
 18400               	.LM1997:
 18401 6900 89E0      		ldi r24,lo8(9)
 18402 6902 0E94 0000 		call SD_Write8
 18403               	.LM1998:
 18404 6906 C801      		movw r24,r16
 18405 6908 0E94 0000 		call SD_WriteString
 18406               	.LM1999:
 18407 690c 8AE0      		ldi r24,lo8(10)
 18408 690e 0E94 0000 		call SD_Write8
 18409               	.LM2000:
 18410 6912 80E0      		ldi r24,lo8(0)
 18411 6914 0E94 0000 		call SD_Write8
 18412               	.LM2001:
 18413 6918 6091 0000 		lds r22,smallCount
 18414 691c 7091 0000 		lds r23,(smallCount)+1
 18415 6920 8091 0000 		lds r24,(smallCount)+2
 18416 6924 9091 0000 		lds r25,(smallCount)+3
 18417 6928 0E94 0000 		call SD_Write32
 18418               	.LM2002:
 18419 692c 6091 0000 		lds r22,largeCount
 18420 6930 7091 0000 		lds r23,(largeCount)+1
 18421 6934 8091 0000 		lds r24,(largeCount)+2
 18422 6938 9091 0000 		lds r25,(largeCount)+3
 18423 693c 0E94 0000 		call SD_Write32
 18424               	.LM2003:
 18425 6940 0E94 0000 		call SD_WriteCRC
 18426               	.LM2004:
 18427 6944 80E0      		ldi r24,lo8(Log_File)
 18428 6946 90E0      		ldi r25,hi8(Log_File)
 18429 6948 0E94 0000 		call f_sync
 18430               	/* epilogue start */
 18431               	.LM2005:
 18432 694c 1F91      		pop r17
 18433 694e 0F91      		pop r16
 18434 6950 0895      		ret
 18435               	.LFE174:
 18437               		.data
 18438               	.LC5:
 18439 0026 4C69 6768 		.string	"Light_Green"
 18439      745F 4772 
 18439      6565 6E00 
 18440               	.LC6:
 18441 0032 4C69 6768 		.string	"Light_Red"
 18441      745F 5265 
 18441      6400 
 18442               	.LC7:
 18443 003c 4C69 6768 		.string	"Light_Blue"
 18443      745F 426C 
 18443      7565 00
 18444               	.LC8:
 18445 0047 4C69 6768 		.string	"Light_Clear"
 18445      745F 436C 
 18445      6561 7200 
 18446               		.text
 18447               	.global	SD_WriteLightBuffer
 18449               	SD_WriteLightBuffer:
 18450               	.LFB173:
 18451               	.LM2006:
 18452               	.LVL1395:
 18453 6952 1F93      		push r17
 18454 6954 CF93      		push r28
 18455 6956 DF93      		push r29
 18456               	/* prologue: function */
 18457               	/* frame size = 0 */
 18458 6958 182F      		mov r17,r24
 18459               	.LBB992:
 18460               	.LBB993:
 18461               	.LM2007:
 18462 695a 8FEF      		ldi r24,lo8(-1)
 18463 695c 9FEF      		ldi r25,hi8(-1)
 18464 695e AFEF      		ldi r26,hlo8(-1)
 18465 6960 BFEF      		ldi r27,hhi8(-1)
 18466               	.LVL1396:
 18467 6962 8093 0000 		sts CRC,r24
 18468 6966 9093 0000 		sts (CRC)+1,r25
 18469 696a A093 0000 		sts (CRC)+2,r26
 18470 696e B093 0000 		sts (CRC)+3,r27
 18471               	.LBE993:
 18472               	.LBE992:
 18473               	.LM2008:
 18474 6972 6CE4      		ldi r22,lo8(-1327598516)
 18475 6974 74E7      		ldi r23,hi8(-1327598516)
 18476 6976 8EED      		ldi r24,hlo8(-1327598516)
 18477 6978 90EB      		ldi r25,hhi8(-1327598516)
 18478 697a 0E94 0000 		call SD_Write32
 18479               	.LM2009:
 18480 697e 64EF      		ldi r22,lo8(244)
 18481 6980 70E0      		ldi r23,hi8(244)
 18482 6982 80E0      		ldi r24,hlo8(244)
 18483 6984 90E0      		ldi r25,hhi8(244)
 18484 6986 0E94 0000 		call SD_Write32
 18485               	.LM2010:
 18486 698a 83E0      		ldi r24,lo8(3)
 18487 698c 90E0      		ldi r25,hi8(3)
 18488 698e 0E94 0000 		call SD_Write16
 18489               	.LM2011:
 18490 6992 1130      		cpi r17,lo8(1)
 18491 6994 01F4      		brne .L1111
 18492               	.LM2012:
 18493 6996 6091 0000 		lds r22,lightSampleStartTime1
 18494 699a 7091 0000 		lds r23,(lightSampleStartTime1)+1
 18495 699e 8091 0000 		lds r24,(lightSampleStartTime1)+2
 18496 69a2 9091 0000 		lds r25,(lightSampleStartTime1)+3
 18497 69a6 00C0      		rjmp .L1120
 18498               	.L1111:
 18499               	.LM2013:
 18500 69a8 6091 0000 		lds r22,lightSampleStartTime2
 18501 69ac 7091 0000 		lds r23,(lightSampleStartTime2)+1
 18502 69b0 8091 0000 		lds r24,(lightSampleStartTime2)+2
 18503 69b4 9091 0000 		lds r25,(lightSampleStartTime2)+3
 18504               	.L1120:
 18505 69b8 0E94 0000 		call SD_Write32
 18506               	.LM2014:
 18507 69bc 60E0      		ldi r22,lo8(1843200)
 18508 69be 70E2      		ldi r23,hi8(1843200)
 18509 69c0 8CE1      		ldi r24,hlo8(1843200)
 18510 69c2 90E0      		ldi r25,hhi8(1843200)
 18511 69c4 0E94 0000 		call SD_Write32
 18512               	.LM2015:
 18513 69c8 6AE0      		ldi r22,lo8(10)
 18514 69ca 70E0      		ldi r23,hi8(10)
 18515 69cc 80E0      		ldi r24,hlo8(10)
 18516 69ce 90E0      		ldi r25,hhi8(10)
 18517 69d0 0E94 0000 		call SD_Write32
 18518               	.LM2016:
 18519 69d4 80E0      		ldi r24,lo8(.LC5)
 18520 69d6 90E0      		ldi r25,hi8(.LC5)
 18521 69d8 0E94 0000 		call SD_WriteString
 18522               	.LM2017:
 18523 69dc 89E0      		ldi r24,lo8(9)
 18524 69de 0E94 0000 		call SD_Write8
 18525               	.LM2018:
 18526 69e2 80E0      		ldi r24,lo8(.LC3)
 18527 69e4 90E0      		ldi r25,hi8(.LC3)
 18528 69e6 0E94 0000 		call SD_WriteString
 18529               	.LM2019:
 18530 69ea 8AE0      		ldi r24,lo8(10)
 18531 69ec 0E94 0000 		call SD_Write8
 18532               	.LM2020:
 18533 69f0 80E0      		ldi r24,lo8(.LC6)
 18534 69f2 90E0      		ldi r25,hi8(.LC6)
 18535 69f4 0E94 0000 		call SD_WriteString
 18536               	.LM2021:
 18537 69f8 89E0      		ldi r24,lo8(9)
 18538 69fa 0E94 0000 		call SD_Write8
 18539               	.LM2022:
 18540 69fe 80E0      		ldi r24,lo8(.LC3)
 18541 6a00 90E0      		ldi r25,hi8(.LC3)
 18542 6a02 0E94 0000 		call SD_WriteString
 18543               	.LM2023:
 18544 6a06 8AE0      		ldi r24,lo8(10)
 18545 6a08 0E94 0000 		call SD_Write8
 18546               	.LM2024:
 18547 6a0c 80E0      		ldi r24,lo8(.LC7)
 18548 6a0e 90E0      		ldi r25,hi8(.LC7)
 18549 6a10 0E94 0000 		call SD_WriteString
 18550               	.LM2025:
 18551 6a14 89E0      		ldi r24,lo8(9)
 18552 6a16 0E94 0000 		call SD_Write8
 18553               	.LM2026:
 18554 6a1a 80E0      		ldi r24,lo8(.LC3)
 18555 6a1c 90E0      		ldi r25,hi8(.LC3)
 18556 6a1e 0E94 0000 		call SD_WriteString
 18557               	.LM2027:
 18558 6a22 8AE0      		ldi r24,lo8(10)
 18559 6a24 0E94 0000 		call SD_Write8
 18560               	.LM2028:
 18561 6a28 80E0      		ldi r24,lo8(.LC8)
 18562 6a2a 90E0      		ldi r25,hi8(.LC8)
 18563 6a2c 0E94 0000 		call SD_WriteString
 18564               	.LM2029:
 18565 6a30 89E0      		ldi r24,lo8(9)
 18566 6a32 0E94 0000 		call SD_Write8
 18567               	.LM2030:
 18568 6a36 80E0      		ldi r24,lo8(.LC3)
 18569 6a38 90E0      		ldi r25,hi8(.LC3)
 18570 6a3a 0E94 0000 		call SD_WriteString
 18571               	.LM2031:
 18572 6a3e 8AE0      		ldi r24,lo8(10)
 18573 6a40 0E94 0000 		call SD_Write8
 18574               	.LM2032:
 18575 6a44 80E0      		ldi r24,lo8(0)
 18576 6a46 0E94 0000 		call SD_Write8
 18577               	.LM2033:
 18578 6a4a 1130      		cpi r17,lo8(1)
 18579 6a4c 01F4      		brne .L1113
 18580 6a4e C0E0      		ldi r28,lo8(lightBuffer1)
 18581 6a50 D0E0      		ldi r29,hi8(lightBuffer1)
 18582               	.L1114:
 18583               	.LBB994:
 18584               	.LM2034:
 18585 6a52 6991      		ld r22,Y+
 18586 6a54 7991      		ld r23,Y+
 18587 6a56 8991      		ld r24,Y+
 18588 6a58 9991      		ld r25,Y+
 18589 6a5a 0E94 0000 		call SD_Write32
 18590               	.LM2035:
 18591 6a5e 80E0      		ldi r24,hi8(lightBuffer1+160)
 18592 6a60 C030      		cpi r28,lo8(lightBuffer1+160)
 18593 6a62 D807      		cpc r29,r24
 18594 6a64 01F4      		brne .L1114
 18595 6a66 00C0      		rjmp .L1115
 18596               	.L1113:
 18597 6a68 C0E0      		ldi r28,lo8(lightBuffer2)
 18598 6a6a D0E0      		ldi r29,hi8(lightBuffer2)
 18599               	.L1116:
 18600               	.LBE994:
 18601               	.LBB995:
 18602               	.LM2036:
 18603 6a6c 6991      		ld r22,Y+
 18604 6a6e 7991      		ld r23,Y+
 18605 6a70 8991      		ld r24,Y+
 18606 6a72 9991      		ld r25,Y+
 18607 6a74 0E94 0000 		call SD_Write32
 18608               	.LM2037:
 18609 6a78 80E0      		ldi r24,hi8(lightBuffer2+160)
 18610 6a7a C030      		cpi r28,lo8(lightBuffer2+160)
 18611 6a7c D807      		cpc r29,r24
 18612 6a7e 01F4      		brne .L1116
 18613               	.L1115:
 18614               	.LBE995:
 18615               	.LM2038:
 18616 6a80 0E94 0000 		call SD_WriteCRC
 18617               	.LM2039:
 18618 6a84 80E0      		ldi r24,lo8(Log_File)
 18619 6a86 90E0      		ldi r25,hi8(Log_File)
 18620 6a88 0E94 0000 		call f_sync
 18621               	/* epilogue start */
 18622               	.LM2040:
 18623 6a8c DF91      		pop r29
 18624 6a8e CF91      		pop r28
 18625 6a90 1F91      		pop r17
 18626               	.LVL1397:
 18627 6a92 0895      		ret
 18628               	.LFE173:
 18630               		.data
 18631               	.LC9:
 18632 0053 4D69 6372 		.string	"Microphone"
 18632      6F70 686F 
 18632      6E65 00
 18633               	.LC10:
 18634 005e 3800      		.string	"8"
 18635               		.text
 18636               	.global	SD_WriteMicrophoneBuffer
 18638               	SD_WriteMicrophoneBuffer:
 18639               	.LFB172:
 18640               	.LM2041:
 18641               	.LVL1398:
 18642 6a94 1F93      		push r17
 18643               	/* prologue: function */
 18644               	/* frame size = 0 */
 18645 6a96 182F      		mov r17,r24
 18646               	.LBB996:
 18647               	.LBB997:
 18648               	.LM2042:
 18649 6a98 8FEF      		ldi r24,lo8(-1)
 18650 6a9a 9FEF      		ldi r25,hi8(-1)
 18651 6a9c AFEF      		ldi r26,hlo8(-1)
 18652 6a9e BFEF      		ldi r27,hhi8(-1)
 18653               	.LVL1399:
 18654 6aa0 8093 0000 		sts CRC,r24
 18655 6aa4 9093 0000 		sts (CRC)+1,r25
 18656 6aa8 A093 0000 		sts (CRC)+2,r26
 18657 6aac B093 0000 		sts (CRC)+3,r27
 18658               	.LBE997:
 18659               	.LBE996:
 18660               	.LM2043:
 18661 6ab0 6CE4      		ldi r22,lo8(-1327598516)
 18662 6ab2 74E7      		ldi r23,hi8(-1327598516)
 18663 6ab4 8EED      		ldi r24,hlo8(-1327598516)
 18664 6ab6 90EB      		ldi r25,hhi8(-1327598516)
 18665 6ab8 0E94 0000 		call SD_Write32
 18666               	.LM2044:
 18667 6abc 60E1      		ldi r22,lo8(1040)
 18668 6abe 74E0      		ldi r23,hi8(1040)
 18669 6ac0 80E0      		ldi r24,hlo8(1040)
 18670 6ac2 90E0      		ldi r25,hhi8(1040)
 18671 6ac4 0E94 0000 		call SD_Write32
 18672               	.LM2045:
 18673 6ac8 83E0      		ldi r24,lo8(3)
 18674 6aca 90E0      		ldi r25,hi8(3)
 18675 6acc 0E94 0000 		call SD_Write16
 18676               	.LM2046:
 18677 6ad0 1130      		cpi r17,lo8(1)
 18678 6ad2 01F4      		brne .L1122
 18679               	.LM2047:
 18680 6ad4 6091 0000 		lds r22,microphoneSampleStartTime1
 18681 6ad8 7091 0000 		lds r23,(microphoneSampleStartTime1)+1
 18682 6adc 8091 0000 		lds r24,(microphoneSampleStartTime1)+2
 18683 6ae0 9091 0000 		lds r25,(microphoneSampleStartTime1)+3
 18684 6ae4 00C0      		rjmp .L1127
 18685               	.L1122:
 18686               	.LM2048:
 18687 6ae6 6091 0000 		lds r22,microphoneSampleStartTime2
 18688 6aea 7091 0000 		lds r23,(microphoneSampleStartTime2)+1
 18689 6aee 8091 0000 		lds r24,(microphoneSampleStartTime2)+2
 18690 6af2 9091 0000 		lds r25,(microphoneSampleStartTime2)+3
 18691               	.L1127:
 18692 6af6 0E94 0000 		call SD_Write32
 18693               	.LM2049:
 18694 6afa 60E0      		ldi r22,lo8(256)
 18695 6afc 71E0      		ldi r23,hi8(256)
 18696 6afe 80E0      		ldi r24,hlo8(256)
 18697 6b00 90E0      		ldi r25,hhi8(256)
 18698 6b02 0E94 0000 		call SD_Write32
 18699               	.LM2050:
 18700 6b06 68EE      		ldi r22,lo8(1000)
 18701 6b08 73E0      		ldi r23,hi8(1000)
 18702 6b0a 80E0      		ldi r24,hlo8(1000)
 18703 6b0c 90E0      		ldi r25,hhi8(1000)
 18704 6b0e 0E94 0000 		call SD_Write32
 18705               	.LM2051:
 18706 6b12 80E0      		ldi r24,lo8(.LC9)
 18707 6b14 90E0      		ldi r25,hi8(.LC9)
 18708 6b16 0E94 0000 		call SD_WriteString
 18709               	.LM2052:
 18710 6b1a 89E0      		ldi r24,lo8(9)
 18711 6b1c 0E94 0000 		call SD_Write8
 18712               	.LM2053:
 18713 6b20 80E0      		ldi r24,lo8(.LC10)
 18714 6b22 90E0      		ldi r25,hi8(.LC10)
 18715 6b24 0E94 0000 		call SD_WriteString
 18716               	.LM2054:
 18717 6b28 8AE0      		ldi r24,lo8(10)
 18718 6b2a 0E94 0000 		call SD_Write8
 18719               	.LM2055:
 18720 6b2e 80E0      		ldi r24,lo8(0)
 18721 6b30 0E94 0000 		call SD_Write8
 18722               	.LM2056:
 18723 6b34 1130      		cpi r17,lo8(1)
 18724 6b36 01F4      		brne .L1124
 18725               	.LM2057:
 18726 6b38 80E0      		ldi r24,lo8(microphoneBuffer1)
 18727 6b3a 90E0      		ldi r25,hi8(microphoneBuffer1)
 18728 6b3c 00C0      		rjmp .L1128
 18729               	.L1124:
 18730               	.LM2058:
 18731 6b3e 80E0      		ldi r24,lo8(microphoneBuffer2)
 18732 6b40 90E0      		ldi r25,hi8(microphoneBuffer2)
 18733               	.L1128:
 18734 6b42 68EE      		ldi r22,lo8(1000)
 18735 6b44 73E0      		ldi r23,hi8(1000)
 18736 6b46 0E94 0000 		call SD_WriteBuffer
 18737               	.LM2059:
 18738 6b4a 0E94 0000 		call SD_WriteCRC
 18739               	.LM2060:
 18740 6b4e 80E0      		ldi r24,lo8(Log_File)
 18741 6b50 90E0      		ldi r25,hi8(Log_File)
 18742 6b52 0E94 0000 		call f_sync
 18743               	/* epilogue start */
 18744               	.LM2061:
 18745 6b56 1F91      		pop r17
 18746               	.LVL1400:
 18747 6b58 0895      		ret
 18748               	.LFE172:
 18750               		.data
 18751               	.LC11:
 18752 0060 5072 6573 		.string	"Pressure"
 18752      7375 7265 
 18752      00
 18753               		.text
 18754               	.global	SD_WritePressureBuffer
 18756               	SD_WritePressureBuffer:
 18757               	.LFB171:
 18758               	.LM2062:
 18759               	.LVL1401:
 18760 6b5a 1F93      		push r17
 18761 6b5c CF93      		push r28
 18762 6b5e DF93      		push r29
 18763               	/* prologue: function */
 18764               	/* frame size = 0 */
 18765 6b60 182F      		mov r17,r24
 18766               	.LBB998:
 18767               	.LBB999:
 18768               	.LM2063:
 18769 6b62 8FEF      		ldi r24,lo8(-1)
 18770 6b64 9FEF      		ldi r25,hi8(-1)
 18771 6b66 AFEF      		ldi r26,hlo8(-1)
 18772 6b68 BFEF      		ldi r27,hhi8(-1)
 18773               	.LVL1402:
 18774 6b6a 8093 0000 		sts CRC,r24
 18775 6b6e 9093 0000 		sts (CRC)+1,r25
 18776 6b72 A093 0000 		sts (CRC)+2,r26
 18777 6b76 B093 0000 		sts (CRC)+3,r27
 18778               	.LBE999:
 18779               	.LBE998:
 18780               	.LM2064:
 18781 6b7a 6CE4      		ldi r22,lo8(-1327598516)
 18782 6b7c 74E7      		ldi r23,hi8(-1327598516)
 18783 6b7e 8EED      		ldi r24,hlo8(-1327598516)
 18784 6b80 90EB      		ldi r25,hhi8(-1327598516)
 18785 6b82 0E94 0000 		call SD_Write32
 18786               	.LM2065:
 18787 6b86 60E3      		ldi r22,lo8(48)
 18788 6b88 70E0      		ldi r23,hi8(48)
 18789 6b8a 80E0      		ldi r24,hlo8(48)
 18790 6b8c 90E0      		ldi r25,hhi8(48)
 18791 6b8e 0E94 0000 		call SD_Write32
 18792               	.LM2066:
 18793 6b92 83E0      		ldi r24,lo8(3)
 18794 6b94 90E0      		ldi r25,hi8(3)
 18795 6b96 0E94 0000 		call SD_Write16
 18796               	.LM2067:
 18797 6b9a 1130      		cpi r17,lo8(1)
 18798 6b9c 01F4      		brne .L1130
 18799               	.LM2068:
 18800 6b9e 6091 0000 		lds r22,pressureSampleStartTime1
 18801 6ba2 7091 0000 		lds r23,(pressureSampleStartTime1)+1
 18802 6ba6 8091 0000 		lds r24,(pressureSampleStartTime1)+2
 18803 6baa 9091 0000 		lds r25,(pressureSampleStartTime1)+3
 18804 6bae 00C0      		rjmp .L1139
 18805               	.L1130:
 18806               	.LM2069:
 18807 6bb0 6091 0000 		lds r22,pressureSampleStartTime2
 18808 6bb4 7091 0000 		lds r23,(pressureSampleStartTime2)+1
 18809 6bb8 8091 0000 		lds r24,(pressureSampleStartTime2)+2
 18810 6bbc 9091 0000 		lds r25,(pressureSampleStartTime2)+3
 18811               	.L1139:
 18812 6bc0 0E94 0000 		call SD_Write32
 18813               	.LM2070:
 18814 6bc4 60E0      		ldi r22,lo8(1843200)
 18815 6bc6 70E2      		ldi r23,hi8(1843200)
 18816 6bc8 8CE1      		ldi r24,hlo8(1843200)
 18817 6bca 90E0      		ldi r25,hhi8(1843200)
 18818 6bcc 0E94 0000 		call SD_Write32
 18819               	.LM2071:
 18820 6bd0 6AE0      		ldi r22,lo8(10)
 18821 6bd2 70E0      		ldi r23,hi8(10)
 18822 6bd4 80E0      		ldi r24,hlo8(10)
 18823 6bd6 90E0      		ldi r25,hhi8(10)
 18824 6bd8 0E94 0000 		call SD_Write32
 18825               	.LM2072:
 18826 6bdc 80E0      		ldi r24,lo8(.LC11)
 18827 6bde 90E0      		ldi r25,hi8(.LC11)
 18828 6be0 0E94 0000 		call SD_WriteString
 18829               	.LM2073:
 18830 6be4 89E0      		ldi r24,lo8(9)
 18831 6be6 0E94 0000 		call SD_Write8
 18832               	.LM2074:
 18833 6bea 80E0      		ldi r24,lo8(.LC10)
 18834 6bec 90E0      		ldi r25,hi8(.LC10)
 18835 6bee 0E94 0000 		call SD_WriteString
 18836               	.LM2075:
 18837 6bf2 8AE0      		ldi r24,lo8(10)
 18838 6bf4 0E94 0000 		call SD_Write8
 18839               	.LM2076:
 18840 6bf8 80E0      		ldi r24,lo8(0)
 18841 6bfa 0E94 0000 		call SD_Write8
 18842               	.LM2077:
 18843 6bfe 1130      		cpi r17,lo8(1)
 18844 6c00 01F4      		brne .L1132
 18845 6c02 C0E0      		ldi r28,lo8(pressureBuffer1)
 18846 6c04 D0E0      		ldi r29,hi8(pressureBuffer1)
 18847               	.L1133:
 18848               	.LBB1000:
 18849               	.LM2078:
 18850 6c06 8991      		ld r24,Y+
 18851 6c08 0E94 0000 		call SD_Write8
 18852               	.LM2079:
 18853 6c0c 80E0      		ldi r24,hi8(pressureBuffer1+10)
 18854 6c0e C030      		cpi r28,lo8(pressureBuffer1+10)
 18855 6c10 D807      		cpc r29,r24
 18856 6c12 01F4      		brne .L1133
 18857 6c14 00C0      		rjmp .L1134
 18858               	.L1132:
 18859 6c16 C0E0      		ldi r28,lo8(pressureBuffer2)
 18860 6c18 D0E0      		ldi r29,hi8(pressureBuffer2)
 18861               	.L1135:
 18862               	.LBE1000:
 18863               	.LBB1001:
 18864               	.LM2080:
 18865 6c1a 8991      		ld r24,Y+
 18866 6c1c 0E94 0000 		call SD_Write8
 18867               	.LM2081:
 18868 6c20 80E0      		ldi r24,hi8(pressureBuffer2+10)
 18869 6c22 C030      		cpi r28,lo8(pressureBuffer2+10)
 18870 6c24 D807      		cpc r29,r24
 18871 6c26 01F4      		brne .L1135
 18872               	.L1134:
 18873               	.LBE1001:
 18874               	.LM2082:
 18875 6c28 0E94 0000 		call SD_WriteCRC
 18876               	.LM2083:
 18877 6c2c 80E0      		ldi r24,lo8(Log_File)
 18878 6c2e 90E0      		ldi r25,hi8(Log_File)
 18879 6c30 0E94 0000 		call f_sync
 18880               	/* epilogue start */
 18881               	.LM2084:
 18882 6c34 DF91      		pop r29
 18883 6c36 CF91      		pop r28
 18884 6c38 1F91      		pop r17
 18885               	.LVL1403:
 18886 6c3a 0895      		ret
 18887               	.LFE171:
 18889               		.data
 18890               	.LC12:
 18891 0069 4875 6D69 		.string	"Humidity"
 18891      6469 7479 
 18891      00
 18892               		.text
 18893               	.global	SD_WriteHumidityBuffer
 18895               	SD_WriteHumidityBuffer:
 18896               	.LFB170:
 18897               	.LM2085:
 18898               	.LVL1404:
 18899 6c3c 1F93      		push r17
 18900 6c3e CF93      		push r28
 18901 6c40 DF93      		push r29
 18902               	/* prologue: function */
 18903               	/* frame size = 0 */
 18904 6c42 182F      		mov r17,r24
 18905               	.LBB1002:
 18906               	.LBB1003:
 18907               	.LM2086:
 18908 6c44 8FEF      		ldi r24,lo8(-1)
 18909 6c46 9FEF      		ldi r25,hi8(-1)
 18910 6c48 AFEF      		ldi r26,hlo8(-1)
 18911 6c4a BFEF      		ldi r27,hhi8(-1)
 18912               	.LVL1405:
 18913 6c4c 8093 0000 		sts CRC,r24
 18914 6c50 9093 0000 		sts (CRC)+1,r25
 18915 6c54 A093 0000 		sts (CRC)+2,r26
 18916 6c58 B093 0000 		sts (CRC)+3,r27
 18917               	.LBE1003:
 18918               	.LBE1002:
 18919               	.LM2087:
 18920 6c5c 6CE4      		ldi r22,lo8(-1327598516)
 18921 6c5e 74E7      		ldi r23,hi8(-1327598516)
 18922 6c60 8EED      		ldi r24,hlo8(-1327598516)
 18923 6c62 90EB      		ldi r25,hhi8(-1327598516)
 18924 6c64 0E94 0000 		call SD_Write32
 18925               	.LM2088:
 18926 6c68 60E3      		ldi r22,lo8(48)
 18927 6c6a 70E0      		ldi r23,hi8(48)
 18928 6c6c 80E0      		ldi r24,hlo8(48)
 18929 6c6e 90E0      		ldi r25,hhi8(48)
 18930 6c70 0E94 0000 		call SD_Write32
 18931               	.LM2089:
 18932 6c74 83E0      		ldi r24,lo8(3)
 18933 6c76 90E0      		ldi r25,hi8(3)
 18934 6c78 0E94 0000 		call SD_Write16
 18935               	.LM2090:
 18936 6c7c 1130      		cpi r17,lo8(1)
 18937 6c7e 01F4      		brne .L1141
 18938               	.LM2091:
 18939 6c80 6091 0000 		lds r22,humiditySampleStartTime1
 18940 6c84 7091 0000 		lds r23,(humiditySampleStartTime1)+1
 18941 6c88 8091 0000 		lds r24,(humiditySampleStartTime1)+2
 18942 6c8c 9091 0000 		lds r25,(humiditySampleStartTime1)+3
 18943 6c90 00C0      		rjmp .L1150
 18944               	.L1141:
 18945               	.LM2092:
 18946 6c92 6091 0000 		lds r22,humiditySampleStartTime2
 18947 6c96 7091 0000 		lds r23,(humiditySampleStartTime2)+1
 18948 6c9a 8091 0000 		lds r24,(humiditySampleStartTime2)+2
 18949 6c9e 9091 0000 		lds r25,(humiditySampleStartTime2)+3
 18950               	.L1150:
 18951 6ca2 0E94 0000 		call SD_Write32
 18952               	.LM2093:
 18953 6ca6 60E0      		ldi r22,lo8(1843200)
 18954 6ca8 70E2      		ldi r23,hi8(1843200)
 18955 6caa 8CE1      		ldi r24,hlo8(1843200)
 18956 6cac 90E0      		ldi r25,hhi8(1843200)
 18957 6cae 0E94 0000 		call SD_Write32
 18958               	.LM2094:
 18959 6cb2 6AE0      		ldi r22,lo8(10)
 18960 6cb4 70E0      		ldi r23,hi8(10)
 18961 6cb6 80E0      		ldi r24,hlo8(10)
 18962 6cb8 90E0      		ldi r25,hhi8(10)
 18963 6cba 0E94 0000 		call SD_Write32
 18964               	.LM2095:
 18965 6cbe 80E0      		ldi r24,lo8(.LC12)
 18966 6cc0 90E0      		ldi r25,hi8(.LC12)
 18967 6cc2 0E94 0000 		call SD_WriteString
 18968               	.LM2096:
 18969 6cc6 89E0      		ldi r24,lo8(9)
 18970 6cc8 0E94 0000 		call SD_Write8
 18971               	.LM2097:
 18972 6ccc 80E0      		ldi r24,lo8(.LC10)
 18973 6cce 90E0      		ldi r25,hi8(.LC10)
 18974 6cd0 0E94 0000 		call SD_WriteString
 18975               	.LM2098:
 18976 6cd4 8AE0      		ldi r24,lo8(10)
 18977 6cd6 0E94 0000 		call SD_Write8
 18978               	.LM2099:
 18979 6cda 80E0      		ldi r24,lo8(0)
 18980 6cdc 0E94 0000 		call SD_Write8
 18981               	.LM2100:
 18982 6ce0 1130      		cpi r17,lo8(1)
 18983 6ce2 01F4      		brne .L1143
 18984 6ce4 C0E0      		ldi r28,lo8(humidityBuffer1)
 18985 6ce6 D0E0      		ldi r29,hi8(humidityBuffer1)
 18986               	.L1144:
 18987               	.LBB1004:
 18988               	.LM2101:
 18989 6ce8 8991      		ld r24,Y+
 18990 6cea 0E94 0000 		call SD_Write8
 18991               	.LM2102:
 18992 6cee 80E0      		ldi r24,hi8(humidityBuffer1+10)
 18993 6cf0 C030      		cpi r28,lo8(humidityBuffer1+10)
 18994 6cf2 D807      		cpc r29,r24
 18995 6cf4 01F4      		brne .L1144
 18996 6cf6 00C0      		rjmp .L1145
 18997               	.L1143:
 18998 6cf8 C0E0      		ldi r28,lo8(humidityBuffer2)
 18999 6cfa D0E0      		ldi r29,hi8(humidityBuffer2)
 19000               	.L1146:
 19001               	.LBE1004:
 19002               	.LBB1005:
 19003               	.LM2103:
 19004 6cfc 8991      		ld r24,Y+
 19005 6cfe 0E94 0000 		call SD_Write8
 19006               	.LM2104:
 19007 6d02 80E0      		ldi r24,hi8(humidityBuffer2+10)
 19008 6d04 C030      		cpi r28,lo8(humidityBuffer2+10)
 19009 6d06 D807      		cpc r29,r24
 19010 6d08 01F4      		brne .L1146
 19011               	.L1145:
 19012               	.LBE1005:
 19013               	.LM2105:
 19014 6d0a 0E94 0000 		call SD_WriteCRC
 19015               	.LM2106:
 19016 6d0e 80E0      		ldi r24,lo8(Log_File)
 19017 6d10 90E0      		ldi r25,hi8(Log_File)
 19018 6d12 0E94 0000 		call f_sync
 19019               	/* epilogue start */
 19020               	.LM2107:
 19021 6d16 DF91      		pop r29
 19022 6d18 CF91      		pop r28
 19023 6d1a 1F91      		pop r17
 19024               	.LVL1406:
 19025 6d1c 0895      		ret
 19026               	.LFE170:
 19028               		.data
 19029               	.LC13:
 19030 0072 5465 6D70 		.string	"Temperature"
 19030      6572 6174 
 19030      7572 6500 
 19031               	.LC14:
 19032 007e 3136 00   		.string	"16"
 19033               		.text
 19034               	.global	SD_WriteTemperatureBuffer
 19036               	SD_WriteTemperatureBuffer:
 19037               	.LFB169:
 19038               	.LM2108:
 19039               	.LVL1407:
 19040 6d1e 1F93      		push r17
 19041 6d20 CF93      		push r28
 19042 6d22 DF93      		push r29
 19043               	/* prologue: function */
 19044               	/* frame size = 0 */
 19045 6d24 182F      		mov r17,r24
 19046               	.LBB1006:
 19047               	.LBB1007:
 19048               	.LM2109:
 19049 6d26 8FEF      		ldi r24,lo8(-1)
 19050 6d28 9FEF      		ldi r25,hi8(-1)
 19051 6d2a AFEF      		ldi r26,hlo8(-1)
 19052 6d2c BFEF      		ldi r27,hhi8(-1)
 19053               	.LVL1408:
 19054 6d2e 8093 0000 		sts CRC,r24
 19055 6d32 9093 0000 		sts (CRC)+1,r25
 19056 6d36 A093 0000 		sts (CRC)+2,r26
 19057 6d3a B093 0000 		sts (CRC)+3,r27
 19058               	.LBE1007:
 19059               	.LBE1006:
 19060               	.LM2110:
 19061 6d3e 6CE4      		ldi r22,lo8(-1327598516)
 19062 6d40 74E7      		ldi r23,hi8(-1327598516)
 19063 6d42 8EED      		ldi r24,hlo8(-1327598516)
 19064 6d44 90EB      		ldi r25,hhi8(-1327598516)
 19065 6d46 0E94 0000 		call SD_Write32
 19066               	.LM2111:
 19067 6d4a 6EE3      		ldi r22,lo8(62)
 19068 6d4c 70E0      		ldi r23,hi8(62)
 19069 6d4e 80E0      		ldi r24,hlo8(62)
 19070 6d50 90E0      		ldi r25,hhi8(62)
 19071 6d52 0E94 0000 		call SD_Write32
 19072               	.LM2112:
 19073 6d56 83E0      		ldi r24,lo8(3)
 19074 6d58 90E0      		ldi r25,hi8(3)
 19075 6d5a 0E94 0000 		call SD_Write16
 19076               	.LM2113:
 19077 6d5e 1130      		cpi r17,lo8(1)
 19078 6d60 01F4      		brne .L1152
 19079               	.LM2114:
 19080 6d62 6091 0000 		lds r22,temperatureSampleStartTime1
 19081 6d66 7091 0000 		lds r23,(temperatureSampleStartTime1)+1
 19082 6d6a 8091 0000 		lds r24,(temperatureSampleStartTime1)+2
 19083 6d6e 9091 0000 		lds r25,(temperatureSampleStartTime1)+3
 19084 6d72 00C0      		rjmp .L1161
 19085               	.L1152:
 19086               	.LM2115:
 19087 6d74 6091 0000 		lds r22,temperatureSampleStartTime2
 19088 6d78 7091 0000 		lds r23,(temperatureSampleStartTime2)+1
 19089 6d7c 8091 0000 		lds r24,(temperatureSampleStartTime2)+2
 19090 6d80 9091 0000 		lds r25,(temperatureSampleStartTime2)+3
 19091               	.L1161:
 19092 6d84 0E94 0000 		call SD_Write32
 19093               	.LM2116:
 19094 6d88 60E0      		ldi r22,lo8(1843200)
 19095 6d8a 70E2      		ldi r23,hi8(1843200)
 19096 6d8c 8CE1      		ldi r24,hlo8(1843200)
 19097 6d8e 90E0      		ldi r25,hhi8(1843200)
 19098 6d90 0E94 0000 		call SD_Write32
 19099               	.LM2117:
 19100 6d94 6AE0      		ldi r22,lo8(10)
 19101 6d96 70E0      		ldi r23,hi8(10)
 19102 6d98 80E0      		ldi r24,hlo8(10)
 19103 6d9a 90E0      		ldi r25,hhi8(10)
 19104 6d9c 0E94 0000 		call SD_Write32
 19105               	.LM2118:
 19106 6da0 80E0      		ldi r24,lo8(.LC13)
 19107 6da2 90E0      		ldi r25,hi8(.LC13)
 19108 6da4 0E94 0000 		call SD_WriteString
 19109               	.LM2119:
 19110 6da8 89E0      		ldi r24,lo8(9)
 19111 6daa 0E94 0000 		call SD_Write8
 19112               	.LM2120:
 19113 6dae 80E0      		ldi r24,lo8(.LC14)
 19114 6db0 90E0      		ldi r25,hi8(.LC14)
 19115 6db2 0E94 0000 		call SD_WriteString
 19116               	.LM2121:
 19117 6db6 8AE0      		ldi r24,lo8(10)
 19118 6db8 0E94 0000 		call SD_Write8
 19119               	.LM2122:
 19120 6dbc 80E0      		ldi r24,lo8(0)
 19121 6dbe 0E94 0000 		call SD_Write8
 19122               	.LM2123:
 19123 6dc2 1130      		cpi r17,lo8(1)
 19124 6dc4 01F4      		brne .L1154
 19125 6dc6 C0E0      		ldi r28,lo8(temperatureBuffer1)
 19126 6dc8 D0E0      		ldi r29,hi8(temperatureBuffer1)
 19127               	.L1155:
 19128               	.LBB1008:
 19129               	.LM2124:
 19130 6dca 8991      		ld r24,Y+
 19131 6dcc 9991      		ld r25,Y+
 19132 6dce 0E94 0000 		call SD_Write16
 19133               	.LM2125:
 19134 6dd2 80E0      		ldi r24,hi8(temperatureBuffer1+20)
 19135 6dd4 C030      		cpi r28,lo8(temperatureBuffer1+20)
 19136 6dd6 D807      		cpc r29,r24
 19137 6dd8 01F4      		brne .L1155
 19138 6dda 00C0      		rjmp .L1156
 19139               	.L1154:
 19140 6ddc C0E0      		ldi r28,lo8(temperatureBuffer2)
 19141 6dde D0E0      		ldi r29,hi8(temperatureBuffer2)
 19142               	.L1157:
 19143               	.LBE1008:
 19144               	.LBB1009:
 19145               	.LM2126:
 19146 6de0 8991      		ld r24,Y+
 19147 6de2 9991      		ld r25,Y+
 19148 6de4 0E94 0000 		call SD_Write16
 19149               	.LM2127:
 19150 6de8 80E0      		ldi r24,hi8(temperatureBuffer2+20)
 19151 6dea C030      		cpi r28,lo8(temperatureBuffer2+20)
 19152 6dec D807      		cpc r29,r24
 19153 6dee 01F4      		brne .L1157
 19154               	.L1156:
 19155               	.LBE1009:
 19156               	.LM2128:
 19157 6df0 0E94 0000 		call SD_WriteCRC
 19158               	.LM2129:
 19159 6df4 80E0      		ldi r24,lo8(Log_File)
 19160 6df6 90E0      		ldi r25,hi8(Log_File)
 19161 6df8 0E94 0000 		call f_sync
 19162               	/* epilogue start */
 19163               	.LM2130:
 19164 6dfc DF91      		pop r29
 19165 6dfe CF91      		pop r28
 19166 6e00 1F91      		pop r17
 19167               	.LVL1409:
 19168 6e02 0895      		ret
 19169               	.LFE169:
 19171               	.global	Rs232_SendString
 19173               	Rs232_SendString:
 19174               	.LFB38:
 19175               	.LM2131:
 19176               	.LVL1410:
 19177               	/* prologue: function */
 19178               	/* frame size = 0 */
 19179 6e04 9C01      		movw r18,r24
 19180               	.LBB1010:
 19181               	.LM2132:
 19182 6e06 DC01      		movw r26,r24
 19183 6e08 0D90      		ld __tmp_reg__,X+
 19184 6e0a 0020      		tst __tmp_reg__
 19185 6e0c 01F4      		brne .-6
 19186 6e0e 1197      		sbiw r26,1
 19187 6e10 A81B      		sub r26,r24
 19188 6e12 B90B      		sbc r27,r25
 19189 6e14 90E0      		ldi r25,lo8(0)
 19190               	.LVL1411:
 19191 6e16 00C0      		rjmp .L1163
 19192               	.L1165:
 19193               	.LM2133:
 19194 6e18 E20F      		add r30,r18
 19195 6e1a F31F      		adc r31,r19
 19196 6e1c 4081      		ld r20,Z
 19197               	.LVL1412:
 19198               	.L1164:
 19199               	.LBB1011:
 19200               	.LBB1012:
 19201               	.LM2134:
 19202 6e1e 8091 A109 		lds r24,2465
 19203 6e22 85FF      		sbrs r24,5
 19204 6e24 00C0      		rjmp .L1164
 19205               	.LM2135:
 19206 6e26 4093 A009 		sts 2464,r20
 19207               	.LBE1012:
 19208               	.LBE1011:
 19209               	.LM2136:
 19210 6e2a 9F5F      		subi r25,lo8(-(1))
 19211               	.LVL1413:
 19212               	.L1163:
 19213 6e2c E92F      		mov r30,r25
 19214 6e2e F0E0      		ldi r31,lo8(0)
 19215 6e30 EA17      		cp r30,r26
 19216 6e32 FB07      		cpc r31,r27
 19217 6e34 00F0      		brlo .L1165
 19218               	.LVL1414:
 19219               	.LBE1010:
 19220               	.LM2137:
 19221 6e36 6623      		tst r22
 19222 6e38 01F0      		breq .L1169
 19223               	.L1170:
 19224               	.LBB1013:
 19225               	.LBB1014:
 19226               	.LM2138:
 19227 6e3a 8091 A109 		lds r24,2465
 19228               	.LVL1415:
 19229 6e3e 85FF      		sbrs r24,5
 19230 6e40 00C0      		rjmp .L1170
 19231               	.LM2139:
 19232 6e42 8DE0      		ldi r24,lo8(13)
 19233 6e44 8093 A009 		sts 2464,r24
 19234               	.L1168:
 19235               	.LBE1014:
 19236               	.LBE1013:
 19237               	.LBB1015:
 19238               	.LBB1016:
 19239               	.LM2140:
 19240 6e48 8091 A109 		lds r24,2465
 19241 6e4c 85FF      		sbrs r24,5
 19242 6e4e 00C0      		rjmp .L1168
 19243               	.LM2141:
 19244 6e50 8AE0      		ldi r24,lo8(10)
 19245 6e52 8093 A009 		sts 2464,r24
 19246               	.LVL1416:
 19247               	.L1169:
 19248 6e56 0895      		ret
 19249               	.LBE1016:
 19250               	.LBE1015:
 19251               	.LFE38:
 19253               	.global	Wifi_SendString
 19255               	Wifi_SendString:
 19256               	.LFB18:
 19257               	.LM2142:
 19258               	.LVL1417:
 19259               	/* prologue: function */
 19260               	/* frame size = 0 */
 19261 6e58 9C01      		movw r18,r24
 19262               	.LBB1017:
 19263               	.LM2143:
 19264 6e5a DC01      		movw r26,r24
 19265 6e5c 0D90      		ld __tmp_reg__,X+
 19266 6e5e 0020      		tst __tmp_reg__
 19267 6e60 01F4      		brne .-6
 19268 6e62 1197      		sbiw r26,1
 19269 6e64 A81B      		sub r26,r24
 19270 6e66 B90B      		sbc r27,r25
 19271 6e68 90E0      		ldi r25,lo8(0)
 19272               	.LVL1418:
 19273 6e6a 00C0      		rjmp .L1175
 19274               	.L1177:
 19275               	.LM2144:
 19276 6e6c E20F      		add r30,r18
 19277 6e6e F31F      		adc r31,r19
 19278 6e70 4081      		ld r20,Z
 19279               	.LVL1419:
 19280               	.L1176:
 19281               	.LBB1018:
 19282               	.LBB1019:
 19283               	.LM2145:
 19284 6e72 8091 A10A 		lds r24,2721
 19285 6e76 85FF      		sbrs r24,5
 19286 6e78 00C0      		rjmp .L1176
 19287               	.LM2146:
 19288 6e7a 4093 A00A 		sts 2720,r20
 19289               	.LBE1019:
 19290               	.LBE1018:
 19291               	.LM2147:
 19292 6e7e 9F5F      		subi r25,lo8(-(1))
 19293               	.LVL1420:
 19294               	.L1175:
 19295 6e80 E92F      		mov r30,r25
 19296 6e82 F0E0      		ldi r31,lo8(0)
 19297 6e84 EA17      		cp r30,r26
 19298 6e86 FB07      		cpc r31,r27
 19299 6e88 00F0      		brlo .L1177
 19300               	.LVL1421:
 19301               	.LBE1017:
 19302               	.LM2148:
 19303 6e8a 6623      		tst r22
 19304 6e8c 01F0      		breq .L1181
 19305               	.L1182:
 19306               	.LBB1020:
 19307               	.LBB1021:
 19308               	.LM2149:
 19309 6e8e 8091 A10A 		lds r24,2721
 19310               	.LVL1422:
 19311 6e92 85FF      		sbrs r24,5
 19312 6e94 00C0      		rjmp .L1182
 19313               	.LM2150:
 19314 6e96 8DE0      		ldi r24,lo8(13)
 19315 6e98 8093 A00A 		sts 2720,r24
 19316               	.L1180:
 19317               	.LBE1021:
 19318               	.LBE1020:
 19319               	.LBB1022:
 19320               	.LBB1023:
 19321               	.LM2151:
 19322 6e9c 8091 A10A 		lds r24,2721
 19323 6ea0 85FF      		sbrs r24,5
 19324 6ea2 00C0      		rjmp .L1180
 19325               	.LM2152:
 19326 6ea4 8AE0      		ldi r24,lo8(10)
 19327 6ea6 8093 A00A 		sts 2720,r24
 19328               	.LVL1423:
 19329               	.L1181:
 19330 6eaa 0895      		ret
 19331               	.LBE1023:
 19332               	.LBE1022:
 19333               	.LFE18:
 19335               		.data
 19336               	.LC16:
 19337 0081 2424 2400 		.string	"$$$"
 19338               	.LC15:
 19339 0085 434D 4400 		.string	"CMD"
 19340               		.text
 19341               	.global	Wifi_EnterCMDMode
 19343               	Wifi_EnterCMDMode:
 19344               	.LFB19:
 19345               	.LM2153:
 19346               	.LVL1424:
 19347 6eac 8F92      		push r8
 19348 6eae 9F92      		push r9
 19349 6eb0 AF92      		push r10
 19350 6eb2 BF92      		push r11
 19351 6eb4 CF92      		push r12
 19352 6eb6 DF92      		push r13
 19353 6eb8 FF92      		push r15
 19354 6eba 0F93      		push r16
 19355 6ebc 1F93      		push r17
 19356 6ebe DF93      		push r29
 19357 6ec0 CF93      		push r28
 19358 6ec2 00D0      		rcall .
 19359 6ec4 00D0      		rcall .
 19360 6ec6 CDB7      		in r28,__SP_L__
 19361 6ec8 DEB7      		in r29,__SP_H__
 19362               	/* prologue: function */
 19363               	/* frame size = 6 */
 19364 6eca 6C01      		movw r12,r24
 19365               	.LM2154:
 19366 6ecc DE01      		movw r26,r28
 19367 6ece 1496      		adiw r26,4
 19368 6ed0 E0E0      		ldi r30,lo8(.LC15)
 19369 6ed2 F0E0      		ldi r31,hi8(.LC15)
 19370 6ed4 83E0      		ldi r24,lo8(3)
 19371               	.LVL1425:
 19372               	.L1187:
 19373 6ed6 0190      		ld r0,Z+
 19374 6ed8 0D92      		st X+,r0
 19375 6eda 8150      		subi r24,lo8(-(-1))
 19376 6edc 01F4      		brne .L1187
 19377               	.LM2155:
 19378 6ede 0E94 0000 		call Wifi_ClearBuffer
 19379               	.LM2156:
 19380 6ee2 80E0      		ldi r24,lo8(.LC16)
 19381 6ee4 90E0      		ldi r25,hi8(.LC16)
 19382 6ee6 60E0      		ldi r22,lo8(0)
 19383 6ee8 0E94 0000 		call Wifi_SendString
 19384 6eec FF24      		clr r15
 19385               	.LVL1426:
 19386 6eee 00E0      		ldi r16,lo8(0)
 19387 6ef0 10E0      		ldi r17,hi8(0)
 19388               	.LVL1427:
 19389               	.LBB1024:
 19390               	.LM2157:
 19391 6ef2 4E01      		movw r8,r28
 19392 6ef4 0894      		sec
 19393 6ef6 811C      		adc r8,__zero_reg__
 19394 6ef8 911C      		adc r9,__zero_reg__
 19395               	.LBB1025:
 19396               	.LBB1026:
 19397               	.LBB1027:
 19398               	.LBB1028:
 19399               	.LM2158:
 19400 6efa F6E6      		ldi r31,lo8(3686)
 19401 6efc AF2E      		mov r10,r31
 19402 6efe FEE0      		ldi r31,hi8(3686)
 19403 6f00 BF2E      		mov r11,r31
 19404 6f02 00C0      		rjmp .L1188
 19405               	.LVL1428:
 19406               	.L1193:
 19407               	.LBE1028:
 19408               	.LBE1027:
 19409               	.LBE1026:
 19410               	.LBE1025:
 19411               	.LM2159:
 19412 6f04 0E94 0000 		call Wifi_CharReadyToRead
 19413               	.LVL1429:
 19414 6f08 8823      		tst r24
 19415 6f0a 01F0      		breq .L1189
 19416               	.LM2160:
 19417 6f0c 80E0      		ldi r24,lo8(0)
 19418 6f0e 0E94 0000 		call Wifi_GetByte
 19419 6f12 F401      		movw r30,r8
 19420 6f14 EF0D      		add r30,r15
 19421 6f16 F11D      		adc r31,__zero_reg__
 19422 6f18 8083      		st Z,r24
 19423               	.LM2161:
 19424 6f1a F394      		inc r15
 19425               	.LM2162:
 19426 6f1c 82E0      		ldi r24,lo8(2)
 19427 6f1e 8F15      		cp r24,r15
 19428 6f20 00F4      		brsh .L1189
 19429               	.LBB1032:
 19430               	.LM2163:
 19431 6f22 9981      		ldd r25,Y+1
 19432 6f24 8C81      		ldd r24,Y+4
 19433 6f26 9817      		cp r25,r24
 19434 6f28 01F4      		brne .L1190
 19435 6f2a 9A81      		ldd r25,Y+2
 19436 6f2c 8D81      		ldd r24,Y+5
 19437 6f2e 9817      		cp r25,r24
 19438 6f30 01F4      		brne .L1190
 19439 6f32 20E0      		ldi r18,lo8(0)
 19440 6f34 9B81      		ldd r25,Y+3
 19441 6f36 8E81      		ldd r24,Y+6
 19442 6f38 9817      		cp r25,r24
 19443 6f3a 01F4      		brne .L1192
 19444 6f3c 21E0      		ldi r18,lo8(1)
 19445 6f3e 00C0      		rjmp .L1192
 19446               	.L1189:
 19447               	.LBE1032:
 19448               	.LBB1033:
 19449               	.LBB1031:
 19450               	.LBB1030:
 19451               	.LBB1029:
 19452               	.LM2164:
 19453 6f40 C501      		movw r24,r10
 19454               	.LVL1430:
 19455               	/* #APP */
 19456               	 ;  105 "/usr/local/CrossPack-AVR-20100115/lib/gcc/avr/4.3.3/../../../../avr/include/util/delay_bas
 19457 6f42 0197      		1: sbiw r24,1
 19458 6f44 01F4      		brne 1b
 19459               	 ;  0 "" 2
 19460               	/* #NOAPP */
 19461               	.LBE1029:
 19462               	.LBE1030:
 19463               	.LBE1031:
 19464               	.LBE1033:
 19465               	.LM2165:
 19466 6f46 0F5F      		subi r16,lo8(-(1))
 19467 6f48 1F4F      		sbci r17,hi8(-(1))
 19468               	.L1188:
 19469 6f4a 0C15      		cp r16,r12
 19470 6f4c 1D05      		cpc r17,r13
 19471 6f4e 00F0      		brlo .L1193
 19472               	.L1190:
 19473 6f50 20E0      		ldi r18,lo8(0)
 19474               	.L1192:
 19475               	.LBE1024:
 19476               	.LM2166:
 19477 6f52 822F      		mov r24,r18
 19478               	.LVL1431:
 19479               	/* epilogue start */
 19480 6f54 2696      		adiw r28,6
 19481 6f56 CDBF      		out __SP_L__,r28
 19482 6f58 DEBF      		out __SP_H__,r29
 19483 6f5a CF91      		pop r28
 19484 6f5c DF91      		pop r29
 19485 6f5e 1F91      		pop r17
 19486 6f60 0F91      		pop r16
 19487               	.LVL1432:
 19488 6f62 FF90      		pop r15
 19489               	.LVL1433:
 19490 6f64 DF90      		pop r13
 19491 6f66 CF90      		pop r12
 19492               	.LVL1434:
 19493 6f68 BF90      		pop r11
 19494 6f6a AF90      		pop r10
 19495 6f6c 9F90      		pop r9
 19496 6f6e 8F90      		pop r8
 19497 6f70 0895      		ret
 19498               	.LFE19:
 19500               	.global	Debug_SendString
 19502               	Debug_SendString:
 19503               	.LFB11:
 19504               	.LM2167:
 19505               	.LVL1435:
 19506               	/* prologue: function */
 19507               	/* frame size = 0 */
 19508 6f72 9C01      		movw r18,r24
 19509               	.LBB1034:
 19510               	.LM2168:
 19511 6f74 DC01      		movw r26,r24
 19512 6f76 0D90      		ld __tmp_reg__,X+
 19513 6f78 0020      		tst __tmp_reg__
 19514 6f7a 01F4      		brne .-6
 19515 6f7c 1197      		sbiw r26,1
 19516 6f7e A81B      		sub r26,r24
 19517 6f80 B90B      		sbc r27,r25
 19518 6f82 90E0      		ldi r25,lo8(0)
 19519               	.LVL1436:
 19520 6f84 00C0      		rjmp .L1197
 19521               	.L1199:
 19522               	.LM2169:
 19523 6f86 E20F      		add r30,r18
 19524 6f88 F31F      		adc r31,r19
 19525 6f8a 4081      		ld r20,Z
 19526               	.LVL1437:
 19527               	.L1198:
 19528               	.LBB1035:
 19529               	.LBB1036:
 19530               	.LM2170:
 19531 6f8c 8091 A108 		lds r24,2209
 19532 6f90 85FF      		sbrs r24,5
 19533 6f92 00C0      		rjmp .L1198
 19534               	.LM2171:
 19535 6f94 4093 A008 		sts 2208,r20
 19536               	.LBE1036:
 19537               	.LBE1035:
 19538               	.LM2172:
 19539 6f98 9F5F      		subi r25,lo8(-(1))
 19540               	.LVL1438:
 19541               	.L1197:
 19542 6f9a E92F      		mov r30,r25
 19543 6f9c F0E0      		ldi r31,lo8(0)
 19544 6f9e EA17      		cp r30,r26
 19545 6fa0 FB07      		cpc r31,r27
 19546 6fa2 00F0      		brlo .L1199
 19547               	.LVL1439:
 19548               	.LBE1034:
 19549               	.LM2173:
 19550 6fa4 6623      		tst r22
 19551 6fa6 01F0      		breq .L1203
 19552               	.L1204:
 19553               	.LBB1037:
 19554               	.LBB1038:
 19555               	.LM2174:
 19556 6fa8 8091 A108 		lds r24,2209
 19557               	.LVL1440:
 19558 6fac 85FF      		sbrs r24,5
 19559 6fae 00C0      		rjmp .L1204
 19560               	.LM2175:
 19561 6fb0 8DE0      		ldi r24,lo8(13)
 19562 6fb2 8093 A008 		sts 2208,r24
 19563               	.L1202:
 19564               	.LBE1038:
 19565               	.LBE1037:
 19566               	.LBB1039:
 19567               	.LBB1040:
 19568               	.LM2176:
 19569 6fb6 8091 A108 		lds r24,2209
 19570 6fba 85FF      		sbrs r24,5
 19571 6fbc 00C0      		rjmp .L1202
 19572               	.LM2177:
 19573 6fbe 8AE0      		ldi r24,lo8(10)
 19574 6fc0 8093 A008 		sts 2208,r24
 19575               	.LVL1441:
 19576               	.L1203:
 19577 6fc4 0895      		ret
 19578               	.LBE1040:
 19579               	.LBE1039:
 19580               	.LFE11:
 19582               		.data
 19583               	.LC17:
 19584 0089 5420 4275 		.string	"T Buffer1"
 19584      6666 6572 
 19584      3100 
 19585               	.LC18:
 19586 0093 5420 4275 		.string	"T Buffer2"
 19586      6666 6572 
 19586      3200 
 19587               	.LC19:
 19588 009d 4820 4275 		.string	"H Buffer1"
 19588      6666 6572 
 19588      3100 
 19589               	.LC20:
 19590 00a7 4820 4275 		.string	"H Buffer2"
 19590      6666 6572 
 19590      3200 
 19591               	.LC21:
 19592 00b1 5020 4275 		.string	"P Buffer1"
 19592      6666 6572 
 19592      3100 
 19593               	.LC22:
 19594 00bb 5020 4275 		.string	"P Buffer2"
 19594      6666 6572 
 19594      3200 
 19595               	.LC23:
 19596 00c5 4C20 4275 		.string	"L Buffer1"
 19596      6666 6572 
 19596      3100 
 19597               	.LC24:
 19598 00cf 4C20 4275 		.string	"L Buffer2"
 19598      6666 6572 
 19598      3200 
 19599               	.LC25:
 19600 00d9 4120 4275 		.string	"A Buffer"
 19600      6666 6572 
 19600      00
 19601               	.LC26:
 19602 00e2 5254 4320 		.string	"RTC Block: "
 19602      426C 6F63 
 19602      6B3A 2000 
 19603               	.LC27:
 19604 00ee 2C20 00   		.string	", "
 19605               		.text
 19606               	.global	__vector_53
 19608               	__vector_53:
 19609               	.LFB167:
 19610               	.LM2178:
 19611 6fc6 1F92      		push __zero_reg__
 19612 6fc8 0F92      		push r0
 19613 6fca 0FB6      		in r0,__SREG__
 19614 6fcc 0F92      		push r0
 19615 6fce 0BB6      		in r0,59-0
 19616 6fd0 0F92      		push r0
 19617 6fd2 1124      		clr __zero_reg__
 19618 6fd4 2F93      		push r18
 19619 6fd6 3F93      		push r19
 19620 6fd8 4F93      		push r20
 19621 6fda 5F93      		push r21
 19622 6fdc 6F93      		push r22
 19623 6fde 7F93      		push r23
 19624 6fe0 8F93      		push r24
 19625 6fe2 9F93      		push r25
 19626 6fe4 AF93      		push r26
 19627 6fe6 BF93      		push r27
 19628 6fe8 EF93      		push r30
 19629 6fea FF93      		push r31
 19630               	/* prologue: Signal */
 19631               	/* frame size = 0 */
 19632               	.LM2179:
 19633 6fec 8091 0000 		lds r24,okToSendMicrophoneBuffer1
 19634 6ff0 8823      		tst r24
 19635 6ff2 01F0      		breq .L1209
 19636               	.LM2180:
 19637 6ff4 81E0      		ldi r24,lo8(1)
 19638 6ff6 0E94 0000 		call SD_WriteMicrophoneBuffer
 19639               	.LM2181:
 19640 6ffa 1092 0000 		sts okToSendMicrophoneBuffer1,__zero_reg__
 19641 6ffe 00C0      		rjmp .L1210
 19642               	.L1209:
 19643               	.LM2182:
 19644 7000 8091 0000 		lds r24,okToSendMicrophoneBuffer2
 19645 7004 8823      		tst r24
 19646 7006 01F0      		breq .L1210
 19647               	.LM2183:
 19648 7008 82E0      		ldi r24,lo8(2)
 19649 700a 0E94 0000 		call SD_WriteMicrophoneBuffer
 19650               	.LM2184:
 19651 700e 1092 0000 		sts okToSendMicrophoneBuffer2,__zero_reg__
 19652               	.L1210:
 19653               	.LM2185:
 19654 7012 8091 0000 		lds r24,okToSendTemperatureBuffer1
 19655 7016 8823      		tst r24
 19656 7018 01F0      		breq .L1211
 19657               	.LM2186:
 19658 701a 80E0      		ldi r24,lo8(.LC17)
 19659 701c 90E0      		ldi r25,hi8(.LC17)
 19660 701e 61E0      		ldi r22,lo8(1)
 19661 7020 0E94 0000 		call Debug_SendString
 19662               	.LM2187:
 19663 7024 81E0      		ldi r24,lo8(1)
 19664 7026 0E94 0000 		call SD_WriteTemperatureBuffer
 19665               	.LM2188:
 19666 702a 1092 0000 		sts okToSendTemperatureBuffer1,__zero_reg__
 19667 702e 00C0      		rjmp .L1212
 19668               	.L1211:
 19669               	.LM2189:
 19670 7030 8091 0000 		lds r24,okToSendTemperatureBuffer2
 19671 7034 8823      		tst r24
 19672 7036 01F0      		breq .L1212
 19673               	.LM2190:
 19674 7038 80E0      		ldi r24,lo8(.LC18)
 19675 703a 90E0      		ldi r25,hi8(.LC18)
 19676 703c 61E0      		ldi r22,lo8(1)
 19677 703e 0E94 0000 		call Debug_SendString
 19678               	.LM2191:
 19679 7042 82E0      		ldi r24,lo8(2)
 19680 7044 0E94 0000 		call SD_WriteTemperatureBuffer
 19681               	.LM2192:
 19682 7048 1092 0000 		sts okToSendTemperatureBuffer2,__zero_reg__
 19683               	.L1212:
 19684               	.LM2193:
 19685 704c 8091 0000 		lds r24,okToSendHumidityBuffer1
 19686 7050 8823      		tst r24
 19687 7052 01F0      		breq .L1213
 19688               	.LM2194:
 19689 7054 80E0      		ldi r24,lo8(.LC19)
 19690 7056 90E0      		ldi r25,hi8(.LC19)
 19691 7058 61E0      		ldi r22,lo8(1)
 19692 705a 0E94 0000 		call Debug_SendString
 19693               	.LM2195:
 19694 705e 81E0      		ldi r24,lo8(1)
 19695 7060 0E94 0000 		call SD_WriteHumidityBuffer
 19696               	.LM2196:
 19697 7064 1092 0000 		sts okToSendHumidityBuffer1,__zero_reg__
 19698 7068 00C0      		rjmp .L1214
 19699               	.L1213:
 19700               	.LM2197:
 19701 706a 8091 0000 		lds r24,okToSendHumidityBuffer2
 19702 706e 8823      		tst r24
 19703 7070 01F0      		breq .L1214
 19704               	.LM2198:
 19705 7072 80E0      		ldi r24,lo8(.LC20)
 19706 7074 90E0      		ldi r25,hi8(.LC20)
 19707 7076 61E0      		ldi r22,lo8(1)
 19708 7078 0E94 0000 		call Debug_SendString
 19709               	.LM2199:
 19710 707c 82E0      		ldi r24,lo8(2)
 19711 707e 0E94 0000 		call SD_WriteHumidityBuffer
 19712               	.LM2200:
 19713 7082 1092 0000 		sts okToSendHumidityBuffer2,__zero_reg__
 19714               	.L1214:
 19715               	.LM2201:
 19716 7086 8091 0000 		lds r24,okToSendPressureBuffer1
 19717 708a 8823      		tst r24
 19718 708c 01F0      		breq .L1215
 19719               	.LM2202:
 19720 708e 80E0      		ldi r24,lo8(.LC21)
 19721 7090 90E0      		ldi r25,hi8(.LC21)
 19722 7092 61E0      		ldi r22,lo8(1)
 19723 7094 0E94 0000 		call Debug_SendString
 19724               	.LM2203:
 19725 7098 81E0      		ldi r24,lo8(1)
 19726 709a 0E94 0000 		call SD_WritePressureBuffer
 19727               	.LM2204:
 19728 709e 1092 0000 		sts okToSendPressureBuffer1,__zero_reg__
 19729 70a2 00C0      		rjmp .L1216
 19730               	.L1215:
 19731               	.LM2205:
 19732 70a4 8091 0000 		lds r24,okToSendPressureBuffer2
 19733 70a8 8823      		tst r24
 19734 70aa 01F0      		breq .L1216
 19735               	.LM2206:
 19736 70ac 80E0      		ldi r24,lo8(.LC22)
 19737 70ae 90E0      		ldi r25,hi8(.LC22)
 19738 70b0 61E0      		ldi r22,lo8(1)
 19739 70b2 0E94 0000 		call Debug_SendString
 19740               	.LM2207:
 19741 70b6 82E0      		ldi r24,lo8(2)
 19742 70b8 0E94 0000 		call SD_WritePressureBuffer
 19743               	.LM2208:
 19744 70bc 1092 0000 		sts okToSendPressureBuffer2,__zero_reg__
 19745               	.L1216:
 19746               	.LM2209:
 19747 70c0 8091 0000 		lds r24,okToSendLightBuffer1
 19748 70c4 8823      		tst r24
 19749 70c6 01F0      		breq .L1217
 19750               	.LM2210:
 19751 70c8 80E0      		ldi r24,lo8(.LC23)
 19752 70ca 90E0      		ldi r25,hi8(.LC23)
 19753 70cc 61E0      		ldi r22,lo8(1)
 19754 70ce 0E94 0000 		call Debug_SendString
 19755               	.LM2211:
 19756 70d2 81E0      		ldi r24,lo8(1)
 19757 70d4 0E94 0000 		call SD_WriteLightBuffer
 19758               	.LM2212:
 19759 70d8 1092 0000 		sts okToSendLightBuffer1,__zero_reg__
 19760 70dc 00C0      		rjmp .L1218
 19761               	.L1217:
 19762               	.LM2213:
 19763 70de 8091 0000 		lds r24,okToSendLightBuffer2
 19764 70e2 8823      		tst r24
 19765 70e4 01F0      		breq .L1218
 19766               	.LM2214:
 19767 70e6 80E0      		ldi r24,lo8(.LC24)
 19768 70e8 90E0      		ldi r25,hi8(.LC24)
 19769 70ea 61E0      		ldi r22,lo8(1)
 19770 70ec 0E94 0000 		call Debug_SendString
 19771               	.LM2215:
 19772 70f0 82E0      		ldi r24,lo8(2)
 19773 70f2 0E94 0000 		call SD_WriteLightBuffer
 19774               	.LM2216:
 19775 70f6 1092 0000 		sts okToSendLightBuffer2,__zero_reg__
 19776               	.L1218:
 19777               	.LM2217:
 19778 70fa 8091 0000 		lds r24,okToSendAirQuality
 19779 70fe 8823      		tst r24
 19780 7100 01F0      		breq .L1219
 19781 7102 8091 0000 		lds r24,recording
 19782 7106 8823      		tst r24
 19783 7108 01F0      		breq .L1219
 19784               	.LM2218:
 19785 710a 80E0      		ldi r24,lo8(.LC25)
 19786 710c 90E0      		ldi r25,hi8(.LC25)
 19787 710e 61E0      		ldi r22,lo8(1)
 19788 7110 0E94 0000 		call Debug_SendString
 19789               	.LM2219:
 19790 7114 0E94 0000 		call SD_WriteAirSample
 19791               	.LM2220:
 19792 7118 1092 0000 		sts okToSendAirQuality,__zero_reg__
 19793               	.L1219:
 19794               	.LM2221:
 19795 711c 8091 0000 		lds r24,okToSendRTCBlock
 19796 7120 8823      		tst r24
 19797 7122 01F0      		breq .L1221
 19798               	.LM2222:
 19799 7124 80E0      		ldi r24,lo8(.LC26)
 19800 7126 90E0      		ldi r25,hi8(.LC26)
 19801 7128 60E0      		ldi r22,lo8(0)
 19802 712a 0E94 0000 		call Debug_SendString
 19803               	.LM2223:
 19804 712e 0E94 0000 		call Time_Get32BitTimer
 19805 7132 2091 0000 		lds r18,UNIX_time
 19806 7136 3091 0000 		lds r19,(UNIX_time)+1
 19807 713a 4091 0000 		lds r20,(UNIX_time)+2
 19808 713e 5091 0000 		lds r21,(UNIX_time)+3
 19809 7142 0E94 0000 		call SD_WriteRTCBlock
 19810               	.LM2224:
 19811 7146 6091 0000 		lds r22,UNIX_time
 19812 714a 7091 0000 		lds r23,(UNIX_time)+1
 19813 714e 8091 0000 		lds r24,(UNIX_time)+2
 19814 7152 9091 0000 		lds r25,(UNIX_time)+3
 19815 7156 40E0      		ldi r20,lo8(temp)
 19816 7158 50E0      		ldi r21,hi8(temp)
 19817 715a 2AE0      		ldi r18,lo8(10)
 19818 715c 30E0      		ldi r19,hi8(10)
 19819 715e 0E94 0000 		call ltoa
 19820 7162 60E0      		ldi r22,lo8(0)
 19821 7164 0E94 0000 		call Debug_SendString
 19822               	.LM2225:
 19823 7168 80E0      		ldi r24,lo8(.LC27)
 19824 716a 90E0      		ldi r25,hi8(.LC27)
 19825 716c 60E0      		ldi r22,lo8(0)
 19826 716e 0E94 0000 		call Debug_SendString
 19827               	.LM2226:
 19828 7172 0E94 0000 		call Time_Get32BitTimer
 19829 7176 40E0      		ldi r20,lo8(temp)
 19830 7178 50E0      		ldi r21,hi8(temp)
 19831 717a 2AE0      		ldi r18,lo8(10)
 19832 717c 30E0      		ldi r19,hi8(10)
 19833 717e 0E94 0000 		call ltoa
 19834 7182 61E0      		ldi r22,lo8(1)
 19835 7184 0E94 0000 		call Debug_SendString
 19836               	.LM2227:
 19837 7188 1092 0000 		sts okToSendRTCBlock,__zero_reg__
 19838               	.L1221:
 19839               	/* epilogue start */
 19840               	.LM2228:
 19841 718c FF91      		pop r31
 19842 718e EF91      		pop r30
 19843 7190 BF91      		pop r27
 19844 7192 AF91      		pop r26
 19845 7194 9F91      		pop r25
 19846 7196 8F91      		pop r24
 19847 7198 7F91      		pop r23
 19848 719a 6F91      		pop r22
 19849 719c 5F91      		pop r21
 19850 719e 4F91      		pop r20
 19851 71a0 3F91      		pop r19
 19852 71a2 2F91      		pop r18
 19853 71a4 0F90      		pop r0
 19854 71a6 0BBE      		out 59-0,r0
 19855 71a8 0F90      		pop r0
 19856 71aa 0FBE      		out __SREG__,r0
 19857 71ac 0F90      		pop r0
 19858 71ae 1F90      		pop __zero_reg__
 19859 71b0 1895      		reti
 19860               	.LFE167:
 19862               		.data
 19863               	.LC28:
 19864 00f1 436C 6F73 		.string	"Closing File"
 19864      696E 6720 
 19864      4669 6C65 
 19864      00
 19865               		.text
 19866               	.global	SD_Close
 19868               	SD_Close:
 19869               	.LFB103:
 19870               	.LM2229:
 19871               	/* prologue: function */
 19872               	/* frame size = 0 */
 19873               	.LM2230:
 19874 71b2 80E0      		ldi r24,lo8(.LC28)
 19875 71b4 90E0      		ldi r25,hi8(.LC28)
 19876 71b6 61E0      		ldi r22,lo8(1)
 19877 71b8 0E94 0000 		call Debug_SendString
 19878               	.LM2231:
 19879 71bc 80E0      		ldi r24,lo8(Log_File)
 19880 71be 90E0      		ldi r25,hi8(Log_File)
 19881 71c0 0E94 0000 		call f_close
 19882               	/* epilogue start */
 19883               	.LM2232:
 19884 71c4 0895      		ret
 19885               	.LFE103:
 19887               		.data
 19888               	.LC29:
 19889 00fe 4669 6C65 		.string	"File Name= "
 19889      204E 616D 
 19889      653D 2000 
 19890               		.text
 19891               	.global	SD_Open
 19893               	SD_Open:
 19894               	.LFB102:
 19895               	.LM2233:
 19896               	.LVL1442:
 19897 71c6 0F93      		push r16
 19898 71c8 1F93      		push r17
 19899               	/* prologue: function */
 19900               	/* frame size = 0 */
 19901 71ca 8C01      		movw r16,r24
 19902               	.LM2234:
 19903 71cc 80E0      		ldi r24,lo8(.LC29)
 19904 71ce 90E0      		ldi r25,hi8(.LC29)
 19905               	.LVL1443:
 19906 71d0 60E0      		ldi r22,lo8(0)
 19907 71d2 0E94 0000 		call Debug_SendString
 19908               	.LM2235:
 19909 71d6 C801      		movw r24,r16
 19910 71d8 61E0      		ldi r22,lo8(1)
 19911 71da 0E94 0000 		call Debug_SendString
 19912               	.LM2236:
 19913 71de 80E0      		ldi r24,lo8(Log_File)
 19914 71e0 90E0      		ldi r25,hi8(Log_File)
 19915 71e2 B801      		movw r22,r16
 19916 71e4 43E1      		ldi r20,lo8(19)
 19917 71e6 0E94 0000 		call f_open
 19918               	/* epilogue start */
 19919               	.LM2237:
 19920 71ea 1F91      		pop r17
 19921 71ec 0F91      		pop r16
 19922               	.LVL1444:
 19923 71ee 0895      		ret
 19924               	.LFE102:
 19926               		.data
 19927               	.LC30:
 19928 010a 2F63 6F6E 		.string	"/config.txt"
 19928      6669 672E 
 19928      7478 7400 
 19929               	.LC31:
 19930 0116 7373 6964 		.string	"ssid"
 19930      00
 19931               	.LC32:
 19932 011b 3D00      		.string	"="
 19933               	.LC33:
 19934 011d 7068 7261 		.string	"phrase"
 19934      7365 00
 19935               	.LC34:
 19936 0124 6B65 7900 		.string	"key"
 19937               	.LC35:
 19938 0128 706F 7274 		.string	"port"
 19938      00
 19939               	.LC36:
 19940 012d 6175 7468 		.string	"auth"
 19940      00
 19941               	.LC37:
 19942 0132 7A6F 6E65 		.string	"zone"
 19942      00
 19943               	.LC38:
 19944 0137 5469 6D65 		.string	"Time Zone changed to: "
 19944      205A 6F6E 
 19944      6520 6368 
 19944      616E 6765 
 19944      6420 746F 
 19945               	.LC39:
 19946 014e 4553 5400 		.string	"EST"
 19947               	.LC40:
 19948 0152 4353 5400 		.string	"CST"
 19949               	.LC41:
 19950 0156 4D53 5400 		.string	"MST"
 19951               	.LC42:
 19952 015a 5053 5400 		.string	"PST"
 19953               	.LC43:
 19954 015e 7368 6966 		.string	"shifted by %u"
 19954      7465 6420 
 19954      6279 2025 
 19954      7500 
 19955               		.text
 19956               	.global	Read_config_file
 19958               	Read_config_file:
 19959               	.LFB175:
 19960               	.LM2238:
 19961 71f0 CF92      		push r12
 19962 71f2 DF92      		push r13
 19963 71f4 EF92      		push r14
 19964 71f6 FF92      		push r15
 19965 71f8 0F93      		push r16
 19966 71fa 1F93      		push r17
 19967 71fc CF93      		push r28
 19968 71fe DF93      		push r29
 19969               	/* prologue: function */
 19970               	/* frame size = 0 */
 19971               	.LBB1041:
 19972               	.LBB1042:
 19973               	.LM2239:
 19974 7200 A0E2      		ldi r26,lo8(1568)
 19975 7202 B6E0      		ldi r27,hi8(1568)
 19976 7204 42E0      		ldi r20,lo8(2)
 19977               	.LBE1042:
 19978               	.LBE1041:
 19979               	.LBB1044:
 19980               	.LBB1045:
 19981               	.LBB1046:
 19982               	.LBB1047:
 19983               	.LM2240:
 19984 7206 20E7      		ldi r18,lo8(368)
 19985 7208 31E0      		ldi r19,hi8(368)
 19986 720a 00C0      		rjmp .L1227
 19987               	.L1228:
 19988 720c F901      		movw r30,r18
 19989               	/* #APP */
 19990               	 ;  105 "/usr/local/CrossPack-AVR-20100115/lib/gcc/avr/4.3.3/../../../../avr/include/util/delay_bas
 19991 720e 3197      		1: sbiw r30,1
 19992 7210 01F4      		brne 1b
 19993               	 ;  0 "" 2
 19994               	/* #NOAPP */
 19995               	.LBE1047:
 19996               	.LBE1046:
 19997               	.LM2241:
 19998 7212 0197      		sbiw r24,1
 19999               	.LM2242:
 20000 7214 01F4      		brne .L1228
 20001               	.L1227:
 20002               	.LBE1045:
 20003               	.LBE1044:
 20004               	.LBB1048:
 20005               	.LBB1049:
 20006               	.LM2243:
 20007 7216 8091 A806 		lds r24,1704
 20008 721a 80FF      		sbrs r24,0
 20009 721c 00C0      		rjmp .L1229
 20010               	.LBE1049:
 20011               	.LBE1048:
 20012               	.LBB1050:
 20013               	.LBB1043:
 20014               	.LM2244:
 20015 721e 1796      		adiw r26,7
 20016 7220 4C93      		st X,r20
 20017 7222 1797      		sbiw r26,7
 20018 7224 88E8      		ldi r24,lo8(5000)
 20019 7226 93E1      		ldi r25,hi8(5000)
 20020 7228 00C0      		rjmp .L1228
 20021               	.L1230:
 20022               	.LBE1043:
 20023               	.LBE1050:
 20024               	.LBB1051:
 20025               	.LBB1052:
 20026               	.LBB1053:
 20027               	.LBB1054:
 20028               	.LM2245:
 20029 722a CA01      		movw r24,r20
 20030               	/* #APP */
 20031               	 ;  105 "/usr/local/CrossPack-AVR-20100115/lib/gcc/avr/4.3.3/../../../../avr/include/util/delay_bas
 20032 722c 0197      		1: sbiw r24,1
 20033 722e 01F4      		brne 1b
 20034               	 ;  0 "" 2
 20035               	/* #NOAPP */
 20036               	.LBE1054:
 20037               	.LBE1053:
 20038               	.LM2246:
 20039 7230 2150      		subi r18,lo8(-(-1))
 20040 7232 3040      		sbci r19,hi8(-(-1))
 20041               	.LM2247:
 20042 7234 01F4      		brne .L1230
 20043               	.LBE1052:
 20044               	.LBE1051:
 20045               	.LM2248:
 20046 7236 80E0      		ldi r24,lo8(.LC30)
 20047 7238 90E0      		ldi r25,hi8(.LC30)
 20048 723a 0E94 0000 		call SD_Open
 20049               	.LM2249:
 20050 723e C0E0      		ldi r28,lo8(temp)
 20051 7240 D0E0      		ldi r29,hi8(temp)
 20052               	.LM2250:
 20053 7242 11E0      		ldi r17,lo8(1)
 20054               	.LM2251:
 20055 7244 00E0      		ldi r16,lo8(.LC43)
 20056 7246 E02E      		mov r14,r16
 20057 7248 00E0      		ldi r16,hi8(.LC43)
 20058 724a F02E      		mov r15,r16
 20059               	.LM2252:
 20060 724c 08E0      		ldi r16,lo8(8)
 20061               	.LM2253:
 20062 724e B7E0      		ldi r27,lo8(7)
 20063 7250 DB2E      		mov r13,r27
 20064               	.LM2254:
 20065 7252 A6E0      		ldi r26,lo8(6)
 20066 7254 CA2E      		mov r12,r26
 20067               	.L1247:
 20068               	.LM2255:
 20069 7256 80E0      		ldi r24,lo8(temp)
 20070 7258 90E0      		ldi r25,hi8(temp)
 20071 725a 62E3      		ldi r22,lo8(50)
 20072 725c 70E0      		ldi r23,hi8(50)
 20073 725e 40E0      		ldi r20,lo8(Log_File)
 20074 7260 50E0      		ldi r21,hi8(Log_File)
 20075 7262 0E94 0000 		call f_gets
 20076               	.LM2256:
 20077 7266 8091 0000 		lds r24,temp
 20078 726a 8823      		tst r24
 20079 726c 01F4      		brne .+2
 20080 726e 00C0      		rjmp .L1242
 20081               	.LM2257:
 20082 7270 80E0      		ldi r24,lo8(temp)
 20083 7272 90E0      		ldi r25,hi8(temp)
 20084 7274 60E0      		ldi r22,lo8(.LC31)
 20085 7276 70E0      		ldi r23,hi8(.LC31)
 20086 7278 0E94 0000 		call strstr
 20087 727c 0097      		sbiw r24,0
 20088 727e 01F0      		breq .L1232
 20089               	.LM2258:
 20090 7280 80E0      		ldi r24,lo8(temp)
 20091 7282 90E0      		ldi r25,hi8(temp)
 20092 7284 60E0      		ldi r22,lo8(.LC32)
 20093 7286 70E0      		ldi r23,hi8(.LC32)
 20094 7288 0E94 0000 		call strtok
 20095               	.LM2259:
 20096 728c 80E0      		ldi r24,lo8(0)
 20097 728e 90E0      		ldi r25,hi8(0)
 20098 7290 60E0      		ldi r22,lo8(.LC32)
 20099 7292 70E0      		ldi r23,hi8(.LC32)
 20100 7294 0E94 0000 		call strtok
 20101 7298 BC01      		movw r22,r24
 20102 729a 80E0      		ldi r24,lo8(ssid)
 20103 729c 90E0      		ldi r25,hi8(ssid)
 20104 729e 0E94 0000 		call strcat
 20105               	.LM2260:
 20106 72a2 1093 0000 		sts ssidRead,r17
 20107 72a6 00C0      		rjmp .L1247
 20108               	.L1232:
 20109               	.LM2261:
 20110 72a8 80E0      		ldi r24,lo8(temp)
 20111 72aa 90E0      		ldi r25,hi8(temp)
 20112 72ac 60E0      		ldi r22,lo8(.LC33)
 20113 72ae 70E0      		ldi r23,hi8(.LC33)
 20114 72b0 0E94 0000 		call strstr
 20115 72b4 0097      		sbiw r24,0
 20116 72b6 01F0      		breq .L1234
 20117               	.LM2262:
 20118 72b8 80E0      		ldi r24,lo8(temp)
 20119 72ba 90E0      		ldi r25,hi8(temp)
 20120 72bc 60E0      		ldi r22,lo8(.LC32)
 20121 72be 70E0      		ldi r23,hi8(.LC32)
 20122 72c0 0E94 0000 		call strtok
 20123               	.LM2263:
 20124 72c4 80E0      		ldi r24,lo8(0)
 20125 72c6 90E0      		ldi r25,hi8(0)
 20126 72c8 60E0      		ldi r22,lo8(.LC32)
 20127 72ca 70E0      		ldi r23,hi8(.LC32)
 20128 72cc 0E94 0000 		call strtok
 20129 72d0 BC01      		movw r22,r24
 20130 72d2 80E0      		ldi r24,lo8(phrase)
 20131 72d4 90E0      		ldi r25,hi8(phrase)
 20132 72d6 0E94 0000 		call strcat
 20133               	.LM2264:
 20134 72da 1093 0000 		sts phraseRead,r17
 20135 72de 00C0      		rjmp .L1247
 20136               	.L1234:
 20137               	.LM2265:
 20138 72e0 80E0      		ldi r24,lo8(temp)
 20139 72e2 90E0      		ldi r25,hi8(temp)
 20140 72e4 60E0      		ldi r22,lo8(.LC34)
 20141 72e6 70E0      		ldi r23,hi8(.LC34)
 20142 72e8 0E94 0000 		call strstr
 20143 72ec 0097      		sbiw r24,0
 20144 72ee 01F0      		breq .L1235
 20145               	.LM2266:
 20146 72f0 80E0      		ldi r24,lo8(temp)
 20147 72f2 90E0      		ldi r25,hi8(temp)
 20148 72f4 60E0      		ldi r22,lo8(.LC32)
 20149 72f6 70E0      		ldi r23,hi8(.LC32)
 20150 72f8 0E94 0000 		call strtok
 20151               	.LM2267:
 20152 72fc 80E0      		ldi r24,lo8(0)
 20153 72fe 90E0      		ldi r25,hi8(0)
 20154 7300 60E0      		ldi r22,lo8(.LC32)
 20155 7302 70E0      		ldi r23,hi8(.LC32)
 20156 7304 0E94 0000 		call strtok
 20157 7308 BC01      		movw r22,r24
 20158 730a 80E0      		ldi r24,lo8(key)
 20159 730c 90E0      		ldi r25,hi8(key)
 20160 730e 0E94 0000 		call strcat
 20161               	.LM2268:
 20162 7312 1093 0000 		sts keyRead,r17
 20163 7316 00C0      		rjmp .L1247
 20164               	.L1235:
 20165               	.LM2269:
 20166 7318 80E0      		ldi r24,lo8(temp)
 20167 731a 90E0      		ldi r25,hi8(temp)
 20168 731c 60E0      		ldi r22,lo8(.LC35)
 20169 731e 70E0      		ldi r23,hi8(.LC35)
 20170 7320 0E94 0000 		call strstr
 20171 7324 0097      		sbiw r24,0
 20172 7326 01F0      		breq .L1236
 20173               	.LM2270:
 20174 7328 80E0      		ldi r24,lo8(temp)
 20175 732a 90E0      		ldi r25,hi8(temp)
 20176 732c 60E0      		ldi r22,lo8(.LC32)
 20177 732e 70E0      		ldi r23,hi8(.LC32)
 20178 7330 0E94 0000 		call strtok
 20179               	.LM2271:
 20180 7334 80E0      		ldi r24,lo8(0)
 20181 7336 90E0      		ldi r25,hi8(0)
 20182 7338 60E0      		ldi r22,lo8(.LC32)
 20183 733a 70E0      		ldi r23,hi8(.LC32)
 20184 733c 0E94 0000 		call strtok
 20185 7340 BC01      		movw r22,r24
 20186 7342 80E0      		ldi r24,lo8(port)
 20187 7344 90E0      		ldi r25,hi8(port)
 20188 7346 0E94 0000 		call strcat
 20189               	.LM2272:
 20190 734a 1093 0000 		sts portRead,r17
 20191 734e 00C0      		rjmp .L1247
 20192               	.L1236:
 20193               	.LM2273:
 20194 7350 80E0      		ldi r24,lo8(temp)
 20195 7352 90E0      		ldi r25,hi8(temp)
 20196 7354 60E0      		ldi r22,lo8(.LC36)
 20197 7356 70E0      		ldi r23,hi8(.LC36)
 20198 7358 0E94 0000 		call strstr
 20199 735c 0097      		sbiw r24,0
 20200 735e 01F0      		breq .L1237
 20201               	.LM2274:
 20202 7360 80E0      		ldi r24,lo8(temp)
 20203 7362 90E0      		ldi r25,hi8(temp)
 20204 7364 60E0      		ldi r22,lo8(.LC32)
 20205 7366 70E0      		ldi r23,hi8(.LC32)
 20206 7368 0E94 0000 		call strtok
 20207               	.LM2275:
 20208 736c 80E0      		ldi r24,lo8(0)
 20209 736e 90E0      		ldi r25,hi8(0)
 20210 7370 60E0      		ldi r22,lo8(.LC32)
 20211 7372 70E0      		ldi r23,hi8(.LC32)
 20212 7374 0E94 0000 		call strtok
 20213 7378 BC01      		movw r22,r24
 20214 737a 80E0      		ldi r24,lo8(auth)
 20215 737c 90E0      		ldi r25,hi8(auth)
 20216 737e 0E94 0000 		call strcat
 20217               	.LM2276:
 20218 7382 1093 0000 		sts authRead,r17
 20219 7386 00C0      		rjmp .L1247
 20220               	.L1237:
 20221               	.LM2277:
 20222 7388 80E0      		ldi r24,lo8(temp)
 20223 738a 90E0      		ldi r25,hi8(temp)
 20224 738c 60E0      		ldi r22,lo8(.LC37)
 20225 738e 70E0      		ldi r23,hi8(.LC37)
 20226 7390 0E94 0000 		call strstr
 20227 7394 0097      		sbiw r24,0
 20228 7396 01F4      		brne .+2
 20229 7398 00C0      		rjmp .L1247
 20230               	.LM2278:
 20231 739a 80E0      		ldi r24,lo8(temp)
 20232 739c 90E0      		ldi r25,hi8(temp)
 20233 739e 60E0      		ldi r22,lo8(.LC32)
 20234 73a0 70E0      		ldi r23,hi8(.LC32)
 20235 73a2 0E94 0000 		call strtok
 20236               	.LM2279:
 20237 73a6 80E0      		ldi r24,lo8(0)
 20238 73a8 90E0      		ldi r25,hi8(0)
 20239 73aa 60E0      		ldi r22,lo8(.LC32)
 20240 73ac 70E0      		ldi r23,hi8(.LC32)
 20241 73ae 0E94 0000 		call strtok
 20242 73b2 BC01      		movw r22,r24
 20243 73b4 80E0      		ldi r24,lo8(zone)
 20244 73b6 90E0      		ldi r25,hi8(zone)
 20245 73b8 0E94 0000 		call strcpy
 20246               	.LM2280:
 20247 73bc 1093 0000 		sts zoneChanged,r17
 20248               	.LM2281:
 20249 73c0 80E0      		ldi r24,lo8(.LC38)
 20250 73c2 90E0      		ldi r25,hi8(.LC38)
 20251 73c4 60E0      		ldi r22,lo8(0)
 20252 73c6 0E94 0000 		call Debug_SendString
 20253               	.LM2282:
 20254 73ca 80E0      		ldi r24,lo8(zone)
 20255 73cc 90E0      		ldi r25,hi8(zone)
 20256 73ce 61E0      		ldi r22,lo8(1)
 20257 73d0 0E94 0000 		call Debug_SendString
 20258               	.LM2283:
 20259 73d4 80E0      		ldi r24,lo8(zone)
 20260 73d6 90E0      		ldi r25,hi8(zone)
 20261 73d8 60E0      		ldi r22,lo8(.LC39)
 20262 73da 70E0      		ldi r23,hi8(.LC39)
 20263 73dc 0E94 0000 		call strcmp
 20264 73e0 0097      		sbiw r24,0
 20265 73e2 01F4      		brne .L1238
 20266               	.LM2284:
 20267 73e4 85E0      		ldi r24,lo8(5)
 20268 73e6 8093 0000 		sts timeZoneShift,r24
 20269 73ea 00C0      		rjmp .L1239
 20270               	.L1238:
 20271               	.LM2285:
 20272 73ec 80E0      		ldi r24,lo8(zone)
 20273 73ee 90E0      		ldi r25,hi8(zone)
 20274 73f0 60E0      		ldi r22,lo8(.LC40)
 20275 73f2 70E0      		ldi r23,hi8(.LC40)
 20276 73f4 0E94 0000 		call strcmp
 20277 73f8 0097      		sbiw r24,0
 20278 73fa 01F4      		brne .L1240
 20279               	.LM2286:
 20280 73fc C092 0000 		sts timeZoneShift,r12
 20281 7400 00C0      		rjmp .L1239
 20282               	.L1240:
 20283               	.LM2287:
 20284 7402 80E0      		ldi r24,lo8(zone)
 20285 7404 90E0      		ldi r25,hi8(zone)
 20286 7406 60E0      		ldi r22,lo8(.LC41)
 20287 7408 70E0      		ldi r23,hi8(.LC41)
 20288 740a 0E94 0000 		call strcmp
 20289 740e 0097      		sbiw r24,0
 20290 7410 01F4      		brne .L1241
 20291               	.LM2288:
 20292 7412 D092 0000 		sts timeZoneShift,r13
 20293 7416 00C0      		rjmp .L1239
 20294               	.L1241:
 20295               	.LM2289:
 20296 7418 80E0      		ldi r24,lo8(zone)
 20297 741a 90E0      		ldi r25,hi8(zone)
 20298 741c 60E0      		ldi r22,lo8(.LC42)
 20299 741e 70E0      		ldi r23,hi8(.LC42)
 20300 7420 0E94 0000 		call strcmp
 20301 7424 0097      		sbiw r24,0
 20302 7426 01F4      		brne .L1239
 20303               	.LM2290:
 20304 7428 0093 0000 		sts timeZoneShift,r16
 20305               	.L1239:
 20306               	.LM2291:
 20307 742c 00D0      		rcall .
 20308 742e 00D0      		rcall .
 20309 7430 EDB7      		in r30,__SP_L__
 20310 7432 FEB7      		in r31,__SP_H__
 20311 7434 3196      		adiw r30,1
 20312 7436 ADB7      		in r26,__SP_L__
 20313 7438 BEB7      		in r27,__SP_H__
 20314 743a 1196      		adiw r26,1
 20315 743c CD93      		st X+,r28
 20316 743e DC93      		st X,r29
 20317 7440 1297      		sbiw r26,1+1
 20318 7442 E282      		std Z+2,r14
 20319 7444 F382      		std Z+3,r15
 20320 7446 8091 0000 		lds r24,timeZoneShift
 20321 744a 8483      		std Z+4,r24
 20322 744c 1582      		std Z+5,__zero_reg__
 20323 744e 0E94 0000 		call sprintf
 20324               	.LM2292:
 20325 7452 8DB7      		in r24,__SP_L__
 20326 7454 9EB7      		in r25,__SP_H__
 20327 7456 0696      		adiw r24,6
 20328 7458 8DBF      		out __SP_L__,r24
 20329 745a 9EBF      		out __SP_H__,r25
 20330 745c CE01      		movw r24,r28
 20331 745e 61E0      		ldi r22,lo8(1)
 20332 7460 0E94 0000 		call Debug_SendString
 20333 7464 00C0      		rjmp .L1247
 20334               	.L1229:
 20335               	.LBB1058:
 20336               	.LBB1059:
 20337               	.LM2293:
 20338 7466 E0E2      		ldi r30,lo8(1568)
 20339 7468 F6E0      		ldi r31,hi8(1568)
 20340 746a 82E0      		ldi r24,lo8(2)
 20341 746c 8683      		std Z+6,r24
 20342               	.LBE1059:
 20343               	.LBE1058:
 20344               	.LBB1060:
 20345               	.LBB1061:
 20346               	.LM2294:
 20347 746e 81E0      		ldi r24,lo8(1)
 20348 7470 8583      		std Z+5,r24
 20349 7472 20E1      		ldi r18,lo8(10000)
 20350 7474 37E2      		ldi r19,hi8(10000)
 20351               	.LBE1061:
 20352               	.LBE1060:
 20353               	.LBB1062:
 20354               	.LBB1057:
 20355               	.LBB1056:
 20356               	.LBB1055:
 20357               	.LM2295:
 20358 7476 40E7      		ldi r20,lo8(368)
 20359 7478 51E0      		ldi r21,hi8(368)
 20360 747a 00C0      		rjmp .L1230
 20361               	.L1242:
 20362               	/* epilogue start */
 20363               	.LBE1055:
 20364               	.LBE1056:
 20365               	.LBE1057:
 20366               	.LBE1062:
 20367               	.LM2296:
 20368 747c DF91      		pop r29
 20369 747e CF91      		pop r28
 20370 7480 1F91      		pop r17
 20371 7482 0F91      		pop r16
 20372 7484 FF90      		pop r15
 20373 7486 EF90      		pop r14
 20374 7488 DF90      		pop r13
 20375 748a CF90      		pop r12
 20376 748c 0895      		ret
 20377               	.LFE175:
 20379               		.data
 20380               	.LC44:
 20381 016c 4F70 656E 		.string	"Opening Log File"
 20381      696E 6720 
 20381      4C6F 6720 
 20381      4669 6C65 
 20381      00
 20382               	.LC45:
 20383 017d 6465 7669 		.string	"device_class"
 20383      6365 5F63 
 20383      6C61 7373 
 20383      00
 20384               	.LC46:
 20385 018a 4261 7365 		.string	"BaseStation"
 20385      5374 6174 
 20385      696F 6E00 
 20386               	.LC47:
 20387 0196 6465 7669 		.string	"device_id"
 20387      6365 5F69 
 20387      6400 
 20388               	.LC48:
 20389 01a0 6669 726D 		.string	"firmware_version"
 20389      7761 7265 
 20389      5F76 6572 
 20389      7369 6F6E 
 20389      00
 20390               	.LC49:
 20391 01b1 322E 3032 		.string	"2.02"
 20391      00
 20392               	.LC50:
 20393 01b6 6861 7264 		.string	"hardware_version"
 20393      7761 7265 
 20393      5F76 6572 
 20393      7369 6F6E 
 20393      00
 20394               	.LC51:
 20395 01c7 3200      		.string	"2"
 20396               	.LC52:
 20397 01c9 6368 616E 		.string	"channel_specs"
 20397      6E65 6C5F 
 20397      7370 6563 
 20397      7300 
 20398               	.LC53:
 20399 01d7 7B22 5465 		.string	"{\"Temperature\":{\"units\": \"deg C\", \"scale\": 0.1},"
 20399      6D70 6572 
 20399      6174 7572 
 20399      6522 3A7B 
 20399      2275 6E69 
 20400               	.LC54:
 20401 0208 2248 756D 		.string	"\"Humidity\":{\"units\": \"%RH\", \"scale\": 1},"
 20401      6964 6974 
 20401      7922 3A7B 
 20401      2275 6E69 
 20401      7473 223A 
 20402               	.LC55:
 20403 0231 2250 7265 		.string	"\"Pressure\":{\"units\": \"kPa\", \"scale\": 1},"
 20403      7373 7572 
 20403      6522 3A7B 
 20403      2275 6E69 
 20403      7473 223A 
 20404               	.LC56:
 20405 025a 224C 6967 		.string	"\"Light_Green\":{\"units\": \"bits\", \"scale\": 1},"
 20405      6874 5F47 
 20405      7265 656E 
 20405      223A 7B22 
 20405      756E 6974 
 20406               	.LC57:
 20407 0287 224C 6967 		.string	"\"Light_Red\":{\"units\": \"bits\", \"scale\": 1},"
 20407      6874 5F52 
 20407      6564 223A 
 20407      7B22 756E 
 20407      6974 7322 
 20408               	.LC58:
 20409 02b2 224C 6967 		.string	"\"Light_Blue\":{\"units\": \"bits\", \"scale\": 1},"
 20409      6874 5F42 
 20409      6C75 6522 
 20409      3A7B 2275 
 20409      6E69 7473 
 20410               	.LC59:
 20411 02de 224C 6967 		.string	"\"Light_Clear\":{\"units\": \"bits\", \"scale\": 1},"
 20411      6874 5F43 
 20411      6C65 6172 
 20411      223A 7B22 
 20411      756E 6974 
 20412               	.LC60:
 20413 030b 2241 6972 		.string	"\"Air_Small\":{\"units\": \"#particles\", \"scale\": 1},"
 20413      5F53 6D61 
 20413      6C6C 223A 
 20413      7B22 756E 
 20413      6974 7322 
 20414               	.LC61:
 20415 033c 2241 6972 		.string	"\"Air_Large\":{\"units\": \"#particles\", \"scale\": 1},"
 20415      5F4C 6172 
 20415      6765 223A 
 20415      7B22 756E 
 20415      6974 7322 
 20416               	.LC62:
 20417 036d 224D 6963 		.string	"\"Microphone\":{\"units\": \"bits\", \"scale\": 1}}"
 20417      726F 7068 
 20417      6F6E 6522 
 20417      3A7B 2275 
 20417      6E69 7473 
 20418               		.text
 20419               	.global	SD_StartLogFile
 20421               	SD_StartLogFile:
 20422               	.LFB114:
 20423               	.LM2297:
 20424               	.LVL1445:
 20425 748e EF92      		push r14
 20426 7490 FF92      		push r15
 20427 7492 0F93      		push r16
 20428 7494 1F93      		push r17
 20429               	/* prologue: function */
 20430               	/* frame size = 0 */
 20431 7496 7B01      		movw r14,r22
 20432 7498 8C01      		movw r16,r24
 20433               	.LM2298:
 20434 749a 80E0      		ldi r24,lo8(.LC44)
 20435 749c 90E0      		ldi r25,hi8(.LC44)
 20436 749e 61E0      		ldi r22,lo8(1)
 20437               	.LVL1446:
 20438 74a0 0E94 0000 		call Debug_SendString
 20439               	.LM2299:
 20440 74a4 C801      		movw r24,r16
 20441 74a6 B701      		movw r22,r14
 20442 74a8 0E94 0000 		call SD_MakeFileName
 20443               	.LM2300:
 20444 74ac 80E0      		ldi r24,lo8(fileName)
 20445 74ae 90E0      		ldi r25,hi8(fileName)
 20446 74b0 0E94 0000 		call SD_Open
 20447 74b4 182F      		mov r17,r24
 20448               	.LVL1447:
 20449               	.LBB1063:
 20450               	.LBB1064:
 20451               	.LM2301:
 20452 74b6 8FEF      		ldi r24,lo8(-1)
 20453 74b8 9FEF      		ldi r25,hi8(-1)
 20454 74ba AFEF      		ldi r26,hlo8(-1)
 20455 74bc BFEF      		ldi r27,hhi8(-1)
 20456 74be 8093 0000 		sts CRC,r24
 20457 74c2 9093 0000 		sts (CRC)+1,r25
 20458 74c6 A093 0000 		sts (CRC)+2,r26
 20459 74ca B093 0000 		sts (CRC)+3,r27
 20460               	.LBE1064:
 20461               	.LBE1063:
 20462               	.LM2302:
 20463 74ce 6CE4      		ldi r22,lo8(-1327598516)
 20464 74d0 74E7      		ldi r23,hi8(-1327598516)
 20465 74d2 8EED      		ldi r24,hlo8(-1327598516)
 20466 74d4 90EB      		ldi r25,hhi8(-1327598516)
 20467 74d6 0E94 0000 		call SD_Write32
 20468               	.LM2303:
 20469 74da 61E4      		ldi r22,lo8(577)
 20470 74dc 72E0      		ldi r23,hi8(577)
 20471 74de 80E0      		ldi r24,hlo8(577)
 20472 74e0 90E0      		ldi r25,hhi8(577)
 20473 74e2 0E94 0000 		call SD_Write32
 20474               	.LM2304:
 20475 74e6 81E0      		ldi r24,lo8(1)
 20476 74e8 90E0      		ldi r25,hi8(1)
 20477 74ea 0E94 0000 		call SD_Write16
 20478               	.LM2305:
 20479 74ee 80E0      		ldi r24,lo8(256)
 20480 74f0 91E0      		ldi r25,hi8(256)
 20481 74f2 0E94 0000 		call SD_Write16
 20482               	.LM2306:
 20483 74f6 82E0      		ldi r24,lo8(2)
 20484 74f8 0E94 0000 		call SD_Write8
 20485               	.LM2307:
 20486 74fc 0E94 0000 		call Time_Get32BitTimer
 20487 7500 0E94 0000 		call SD_Write32
 20488               	.LM2308:
 20489 7504 67E4      		ldi r22,lo8(542535)
 20490 7506 77E4      		ldi r23,hi8(542535)
 20491 7508 88E0      		ldi r24,hlo8(542535)
 20492 750a 90E0      		ldi r25,hhi8(542535)
 20493 750c 0E94 0000 		call SD_Write32
 20494               	.LM2309:
 20495 7510 80E0      		ldi r24,lo8(0)
 20496 7512 90E0      		ldi r25,hi8(0)
 20497 7514 0E94 0000 		call SD_Write16
 20498               	.LM2310:
 20499 7518 80E0      		ldi r24,lo8(.LC45)
 20500 751a 90E0      		ldi r25,hi8(.LC45)
 20501 751c 0E94 0000 		call SD_WriteString
 20502               	.LM2311:
 20503 7520 89E0      		ldi r24,lo8(9)
 20504 7522 0E94 0000 		call SD_Write8
 20505               	.LM2312:
 20506 7526 80E0      		ldi r24,lo8(.LC46)
 20507 7528 90E0      		ldi r25,hi8(.LC46)
 20508 752a 0E94 0000 		call SD_WriteString
 20509               	.LM2313:
 20510 752e 8AE0      		ldi r24,lo8(10)
 20511 7530 0E94 0000 		call SD_Write8
 20512               	.LM2314:
 20513 7534 80E0      		ldi r24,lo8(.LC47)
 20514 7536 90E0      		ldi r25,hi8(.LC47)
 20515 7538 0E94 0000 		call SD_WriteString
 20516               	.LM2315:
 20517 753c 89E0      		ldi r24,lo8(9)
 20518 753e 0E94 0000 		call SD_Write8
 20519               	.LM2316:
 20520 7542 80E0      		ldi r24,lo8(macAddr)
 20521 7544 90E0      		ldi r25,hi8(macAddr)
 20522 7546 0E94 0000 		call SD_WriteString
 20523               	.LM2317:
 20524 754a 8AE0      		ldi r24,lo8(10)
 20525 754c 0E94 0000 		call SD_Write8
 20526               	.LM2318:
 20527 7550 80E0      		ldi r24,lo8(.LC48)
 20528 7552 90E0      		ldi r25,hi8(.LC48)
 20529 7554 0E94 0000 		call SD_WriteString
 20530               	.LM2319:
 20531 7558 89E0      		ldi r24,lo8(9)
 20532 755a 0E94 0000 		call SD_Write8
 20533               	.LM2320:
 20534 755e 80E0      		ldi r24,lo8(.LC49)
 20535 7560 90E0      		ldi r25,hi8(.LC49)
 20536 7562 0E94 0000 		call SD_WriteString
 20537               	.LM2321:
 20538 7566 8AE0      		ldi r24,lo8(10)
 20539 7568 0E94 0000 		call SD_Write8
 20540               	.LM2322:
 20541 756c 80E0      		ldi r24,lo8(.LC50)
 20542 756e 90E0      		ldi r25,hi8(.LC50)
 20543 7570 0E94 0000 		call SD_WriteString
 20544               	.LM2323:
 20545 7574 89E0      		ldi r24,lo8(9)
 20546 7576 0E94 0000 		call SD_Write8
 20547               	.LM2324:
 20548 757a 80E0      		ldi r24,lo8(.LC51)
 20549 757c 90E0      		ldi r25,hi8(.LC51)
 20550 757e 0E94 0000 		call SD_WriteString
 20551               	.LM2325:
 20552 7582 8AE0      		ldi r24,lo8(10)
 20553 7584 0E94 0000 		call SD_Write8
 20554               	.LM2326:
 20555 7588 80E0      		ldi r24,lo8(.LC52)
 20556 758a 90E0      		ldi r25,hi8(.LC52)
 20557 758c 0E94 0000 		call SD_WriteString
 20558               	.LM2327:
 20559 7590 89E0      		ldi r24,lo8(9)
 20560 7592 0E94 0000 		call SD_Write8
 20561               	.LM2328:
 20562 7596 80E0      		ldi r24,lo8(.LC53)
 20563 7598 90E0      		ldi r25,hi8(.LC53)
 20564 759a 0E94 0000 		call SD_WriteString
 20565               	.LM2329:
 20566 759e 80E0      		ldi r24,lo8(.LC54)
 20567 75a0 90E0      		ldi r25,hi8(.LC54)
 20568 75a2 0E94 0000 		call SD_WriteString
 20569               	.LM2330:
 20570 75a6 80E0      		ldi r24,lo8(.LC55)
 20571 75a8 90E0      		ldi r25,hi8(.LC55)
 20572 75aa 0E94 0000 		call SD_WriteString
 20573               	.LM2331:
 20574 75ae 80E0      		ldi r24,lo8(.LC56)
 20575 75b0 90E0      		ldi r25,hi8(.LC56)
 20576 75b2 0E94 0000 		call SD_WriteString
 20577               	.LM2332:
 20578 75b6 80E0      		ldi r24,lo8(.LC57)
 20579 75b8 90E0      		ldi r25,hi8(.LC57)
 20580 75ba 0E94 0000 		call SD_WriteString
 20581               	.LM2333:
 20582 75be 80E0      		ldi r24,lo8(.LC58)
 20583 75c0 90E0      		ldi r25,hi8(.LC58)
 20584 75c2 0E94 0000 		call SD_WriteString
 20585               	.LM2334:
 20586 75c6 80E0      		ldi r24,lo8(.LC59)
 20587 75c8 90E0      		ldi r25,hi8(.LC59)
 20588 75ca 0E94 0000 		call SD_WriteString
 20589               	.LM2335:
 20590 75ce 80E0      		ldi r24,lo8(.LC60)
 20591 75d0 90E0      		ldi r25,hi8(.LC60)
 20592 75d2 0E94 0000 		call SD_WriteString
 20593               	.LM2336:
 20594 75d6 80E0      		ldi r24,lo8(.LC61)
 20595 75d8 90E0      		ldi r25,hi8(.LC61)
 20596 75da 0E94 0000 		call SD_WriteString
 20597               	.LM2337:
 20598 75de 80E0      		ldi r24,lo8(.LC62)
 20599 75e0 90E0      		ldi r25,hi8(.LC62)
 20600 75e2 0E94 0000 		call SD_WriteString
 20601               	.LM2338:
 20602 75e6 8AE0      		ldi r24,lo8(10)
 20603 75e8 0E94 0000 		call SD_Write8
 20604               	.LM2339:
 20605 75ec 80E0      		ldi r24,lo8(0)
 20606 75ee 0E94 0000 		call SD_Write8
 20607               	.LM2340:
 20608 75f2 0E94 0000 		call SD_WriteCRC
 20609               	.LM2341:
 20610 75f6 80E0      		ldi r24,lo8(Log_File)
 20611 75f8 90E0      		ldi r25,hi8(Log_File)
 20612 75fa 0E94 0000 		call f_sync
 20613               	.LM2342:
 20614 75fe 812F      		mov r24,r17
 20615               	/* epilogue start */
 20616 7600 1F91      		pop r17
 20617               	.LVL1448:
 20618 7602 0F91      		pop r16
 20619 7604 FF90      		pop r15
 20620 7606 EF90      		pop r14
 20621               	.LVL1449:
 20622 7608 0895      		ret
 20623               	.LFE114:
 20625               		.data
 20626               	.LC63:
 20627 0399 2D2D 2D2D 		.string	"-----------------"
 20627      2D2D 2D2D 
 20627      2D2D 2D2D 
 20627      2D2D 2D2D 
 20627      2D00 
 20628               	.LC64:
 20629 03ab 436F 6D6D 		.string	"Command: "
 20629      616E 643A 
 20629      2000 
 20630               	.LC65:
 20631 03b5 5265 7370 		.string	"Responce: "
 20631      6F6E 6365 
 20631      3A20 00
 20632               	.LC66:
 20633 03c0 2C77 616E 		.string	",want: "
 20633      743A 2000 
 20634               		.text
 20635               	.global	Wifi_SendCommand
 20637               	Wifi_SendCommand:
 20638               	.LFB21:
 20639               	.LM2343:
 20640               	.LVL1450:
 20641 760a 6F92      		push r6
 20642 760c 7F92      		push r7
 20643 760e 8F92      		push r8
 20644 7610 9F92      		push r9
 20645 7612 AF92      		push r10
 20646 7614 BF92      		push r11
 20647 7616 CF92      		push r12
 20648 7618 DF92      		push r13
 20649 761a EF92      		push r14
 20650 761c FF92      		push r15
 20651 761e 0F93      		push r16
 20652 7620 1F93      		push r17
 20653 7622 CF93      		push r28
 20654 7624 DF93      		push r29
 20655               	/* prologue: function */
 20656               	/* frame size = 0 */
 20657 7626 7C01      		movw r14,r24
 20658 7628 6B01      		movw r12,r22
 20659 762a 5A01      		movw r10,r20
 20660 762c 3901      		movw r6,r18
 20661               	.LM2344:
 20662 762e 1092 0000 		sts respLen,__zero_reg__
 20663               	.LM2345:
 20664 7632 FC01      		movw r30,r24
 20665 7634 0190      		ld __tmp_reg__,Z+
 20666 7636 0020      		tst __tmp_reg__
 20667 7638 01F4      		brne .-6
 20668 763a 3197      		sbiw r30,1
 20669 763c E81B      		sub r30,r24
 20670 763e F90B      		sbc r31,r25
 20671 7640 E093 0000 		sts toSendLen,r30
 20672               	.LM2346:
 20673 7644 EB01      		movw r28,r22
 20674 7646 0990      		ld __tmp_reg__,Y+
 20675 7648 0020      		tst __tmp_reg__
 20676 764a 01F4      		brne .-6
 20677 764c 2197      		sbiw r28,1
 20678 764e C61B      		sub r28,r22
 20679 7650 D70B      		sbc r29,r23
 20680 7652 DA01      		movw r26,r20
 20681 7654 0D90      		ld __tmp_reg__,X+
 20682 7656 0020      		tst __tmp_reg__
 20683 7658 01F4      		brne .-6
 20684 765a 1197      		sbiw r26,1
 20685 765c A41B      		sub r26,r20
 20686 765e B50B      		sbc r27,r21
 20687 7660 AC17      		cp r26,r28
 20688 7662 BD07      		cpc r27,r29
 20689 7664 00F4      		brsh .L1251
 20690               	.LVL1451:
 20691               	.LM2347:
 20692 7666 A093 0000 		sts okLen,r26
 20693 766a 00C0      		rjmp .L1252
 20694               	.L1251:
 20695               	.LM2348:
 20696 766c C093 0000 		sts okLen,r28
 20697               	.L1252:
 20698               	.LM2349:
 20699 7670 80E0      		ldi r24,lo8(.LC63)
 20700 7672 90E0      		ldi r25,hi8(.LC63)
 20701               	.LVL1452:
 20702 7674 61E0      		ldi r22,lo8(1)
 20703               	.LVL1453:
 20704 7676 0E94 0000 		call Debug_SendString
 20705               	.LVL1454:
 20706               	.LM2350:
 20707 767a 80E0      		ldi r24,lo8(.LC64)
 20708 767c 90E0      		ldi r25,hi8(.LC64)
 20709 767e 60E0      		ldi r22,lo8(0)
 20710 7680 0E94 0000 		call Debug_SendString
 20711               	.LM2351:
 20712 7684 C701      		movw r24,r14
 20713 7686 61E0      		ldi r22,lo8(1)
 20714 7688 0E94 0000 		call Debug_SendString
 20715               	.LM2352:
 20716 768c 0E94 0000 		call Wifi_ClearBuffer
 20717               	.LM2353:
 20718 7690 C701      		movw r24,r14
 20719 7692 61E0      		ldi r22,lo8(1)
 20720 7694 0E94 0000 		call Wifi_SendString
 20721 7698 00E0      		ldi r16,lo8(0)
 20722 769a 10E0      		ldi r17,hi8(0)
 20723               	.LVL1455:
 20724               	.LBB1065:
 20725               	.LBB1066:
 20726               	.LBB1067:
 20727               	.LBB1068:
 20728               	.LBB1069:
 20729               	.LM2354:
 20730 769c 86E6      		ldi r24,lo8(3686)
 20731 769e 882E      		mov r8,r24
 20732 76a0 8EE0      		ldi r24,hi8(3686)
 20733 76a2 982E      		mov r9,r24
 20734 76a4 00C0      		rjmp .L1253
 20735               	.LVL1456:
 20736               	.L1266:
 20737               	.LBE1069:
 20738               	.LBE1068:
 20739               	.LBE1067:
 20740               	.LBE1066:
 20741               	.LM2355:
 20742 76a6 0E94 0000 		call Wifi_CharReadyToRead
 20743               	.LVL1457:
 20744 76aa 8823      		tst r24
 20745 76ac 01F4      		brne .+2
 20746 76ae 00C0      		rjmp .L1254
 20747               	.LM2356:
 20748 76b0 8091 0000 		lds r24,respLen
 20749 76b4 C82F      		mov r28,r24
 20750 76b6 D0E0      		ldi r29,lo8(0)
 20751 76b8 80E0      		ldi r24,lo8(0)
 20752 76ba 0E94 0000 		call Wifi_GetByte
 20753 76be C050      		subi r28,lo8(-(resp))
 20754 76c0 D040      		sbci r29,hi8(-(resp))
 20755 76c2 8883      		st Y,r24
 20756               	.LM2357:
 20757 76c4 8091 0000 		lds r24,respLen
 20758 76c8 8F5F      		subi r24,lo8(-(1))
 20759 76ca 8093 0000 		sts respLen,r24
 20760               	.LM2358:
 20761 76ce 2091 0000 		lds r18,respLen
 20762 76d2 4091 0000 		lds r20,okLen
 20763 76d6 8091 0000 		lds r24,toSendLen
 20764 76da 30E0      		ldi r19,lo8(0)
 20765 76dc 90E0      		ldi r25,lo8(0)
 20766 76de 840F      		add r24,r20
 20767 76e0 911D      		adc r25,__zero_reg__
 20768 76e2 0396      		adiw r24,3
 20769 76e4 2817      		cp r18,r24
 20770 76e6 3907      		cpc r19,r25
 20771 76e8 01F0      		breq .+2
 20772 76ea 00C0      		rjmp .L1254
 20773               	.LM2359:
 20774 76ec 80E0      		ldi r24,lo8(.LC65)
 20775 76ee 90E0      		ldi r25,hi8(.LC65)
 20776 76f0 60E0      		ldi r22,lo8(0)
 20777 76f2 0E94 0000 		call Debug_SendString
 20778 76f6 90E0      		ldi r25,lo8(0)
 20779               	.LVL1458:
 20780 76f8 00C0      		rjmp .L1255
 20781               	.L1257:
 20782               	.LBB1073:
 20783               	.LM2360:
 20784 76fa E92F      		mov r30,r25
 20785 76fc F0E0      		ldi r31,lo8(0)
 20786 76fe E050      		subi r30,lo8(-(resp))
 20787 7700 F040      		sbci r31,hi8(-(resp))
 20788 7702 E081      		ld r30,Z
 20789               	.L1256:
 20790               	.LBB1074:
 20791               	.LBB1075:
 20792               	.LM2361:
 20793 7704 8091 A108 		lds r24,2209
 20794 7708 85FF      		sbrs r24,5
 20795 770a 00C0      		rjmp .L1256
 20796               	.LM2362:
 20797 770c E093 A008 		sts 2208,r30
 20798               	.LBE1075:
 20799               	.LBE1074:
 20800               	.LM2363:
 20801 7710 9F5F      		subi r25,lo8(-(1))
 20802               	.L1255:
 20803 7712 8091 0000 		lds r24,respLen
 20804 7716 9817      		cp r25,r24
 20805 7718 00F0      		brlo .L1257
 20806               	.LBE1073:
 20807               	.LM2364:
 20808 771a 80E0      		ldi r24,lo8(.LC66)
 20809 771c 90E0      		ldi r25,hi8(.LC66)
 20810 771e 60E0      		ldi r22,lo8(0)
 20811 7720 0E94 0000 		call Debug_SendString
 20812               	.LVL1459:
 20813               	.LM2365:
 20814 7724 C601      		movw r24,r12
 20815 7726 61E0      		ldi r22,lo8(1)
 20816 7728 0E94 0000 		call Debug_SendString
 20817 772c 20E0      		ldi r18,lo8(0)
 20818               	.LVL1460:
 20819 772e 00C0      		rjmp .L1258
 20820               	.L1260:
 20821               	.LBB1076:
 20822               	.LM2366:
 20823 7730 E22F      		mov r30,r18
 20824 7732 F0E0      		ldi r31,lo8(0)
 20825 7734 DF01      		movw r26,r30
 20826 7736 A050      		subi r26,lo8(-(resp))
 20827 7738 B040      		sbci r27,hi8(-(resp))
 20828 773a 9C91      		ld r25,X
 20829 773c EE0D      		add r30,r14
 20830 773e FF1D      		adc r31,r15
 20831 7740 8081      		ld r24,Z
 20832 7742 9817      		cp r25,r24
 20833 7744 01F0      		breq .+2
 20834 7746 00C0      		rjmp .L1259
 20835               	.LM2367:
 20836 7748 2F5F      		subi r18,lo8(-(1))
 20837               	.L1258:
 20838 774a 8091 0000 		lds r24,toSendLen
 20839 774e 2817      		cp r18,r24
 20840 7750 00F0      		brlo .L1260
 20841               	.LBE1076:
 20842               	.LBB1077:
 20843               	.LM2368:
 20844 7752 2091 0000 		lds r18,toSendLen
 20845               	.LVL1461:
 20846 7756 2D5F      		subi r18,lo8(-(3))
 20847 7758 00C0      		rjmp .L1261
 20848               	.L1263:
 20849               	.LM2369:
 20850 775a ED01      		movw r28,r26
 20851 775c C050      		subi r28,lo8(-(resp))
 20852 775e D040      		sbci r29,hi8(-(resp))
 20853 7760 9881      		ld r25,Y
 20854 7762 8091 0000 		lds r24,toSendLen
 20855 7766 FD01      		movw r30,r26
 20856 7768 E81B      		sub r30,r24
 20857 776a F109      		sbc r31,__zero_reg__
 20858 776c EC0D      		add r30,r12
 20859 776e FD1D      		adc r31,r13
 20860 7770 3397      		sbiw r30,3
 20861 7772 8081      		ld r24,Z
 20862 7774 9817      		cp r25,r24
 20863 7776 01F0      		breq .L1262
 20864               	.LM2370:
 20865 7778 8881      		ld r24,Y
 20866 777a 9091 0000 		lds r25,toSendLen
 20867 777e A91B      		sub r26,r25
 20868 7780 B109      		sbc r27,__zero_reg__
 20869 7782 AA0D      		add r26,r10
 20870 7784 BB1D      		adc r27,r11
 20871 7786 1397      		sbiw r26,3
 20872 7788 9C91      		ld r25,X
 20873 778a 8917      		cp r24,r25
 20874 778c 01F4      		brne .L1259
 20875               	.L1262:
 20876               	.LM2371:
 20877 778e 2F5F      		subi r18,lo8(-(1))
 20878               	.L1261:
 20879 7790 A22F      		mov r26,r18
 20880 7792 B0E0      		ldi r27,lo8(0)
 20881 7794 8091 0000 		lds r24,respLen
 20882 7798 90E0      		ldi r25,lo8(0)
 20883 779a 0397      		sbiw r24,3
 20884 779c A817      		cp r26,r24
 20885 779e B907      		cpc r27,r25
 20886 77a0 04F0      		brlt .L1263
 20887               	.L1268:
 20888               	.LBE1077:
 20889               	.LBB1078:
 20890               	.LBB1079:
 20891               	.LM2372:
 20892 77a2 8091 A108 		lds r24,2209
 20893 77a6 85FF      		sbrs r24,5
 20894 77a8 00C0      		rjmp .L1268
 20895               	.LM2373:
 20896 77aa 8DE0      		ldi r24,lo8(13)
 20897 77ac 8093 A008 		sts 2208,r24
 20898 77b0 81E0      		ldi r24,lo8(1)
 20899 77b2 00C0      		rjmp .L1265
 20900               	.LVL1462:
 20901               	.L1254:
 20902               	.LBE1079:
 20903               	.LBE1078:
 20904               	.LBB1080:
 20905               	.LBB1072:
 20906               	.LBB1071:
 20907               	.LBB1070:
 20908               	.LM2374:
 20909 77b4 C401      		movw r24,r8
 20910               	.LVL1463:
 20911               	/* #APP */
 20912               	 ;  105 "/usr/local/CrossPack-AVR-20100115/lib/gcc/avr/4.3.3/../../../../avr/include/util/delay_bas
 20913 77b6 0197      		1: sbiw r24,1
 20914 77b8 01F4      		brne 1b
 20915               	 ;  0 "" 2
 20916               	/* #NOAPP */
 20917               	.LBE1070:
 20918               	.LBE1071:
 20919               	.LBE1072:
 20920               	.LBE1080:
 20921               	.LM2375:
 20922 77ba 0F5F      		subi r16,lo8(-(1))
 20923 77bc 1F4F      		sbci r17,hi8(-(1))
 20924               	.L1253:
 20925 77be 0615      		cp r16,r6
 20926 77c0 1705      		cpc r17,r7
 20927 77c2 00F4      		brsh .+2
 20928 77c4 00C0      		rjmp .L1266
 20929               	.LVL1464:
 20930               	.L1259:
 20931 77c6 80E0      		ldi r24,lo8(0)
 20932               	.LVL1465:
 20933               	.L1265:
 20934               	/* epilogue start */
 20935               	.LBE1065:
 20936               	.LM2376:
 20937 77c8 DF91      		pop r29
 20938 77ca CF91      		pop r28
 20939 77cc 1F91      		pop r17
 20940 77ce 0F91      		pop r16
 20941               	.LVL1466:
 20942 77d0 FF90      		pop r15
 20943 77d2 EF90      		pop r14
 20944               	.LVL1467:
 20945 77d4 DF90      		pop r13
 20946 77d6 CF90      		pop r12
 20947               	.LVL1468:
 20948 77d8 BF90      		pop r11
 20949 77da AF90      		pop r10
 20950               	.LVL1469:
 20951 77dc 9F90      		pop r9
 20952 77de 8F90      		pop r8
 20953 77e0 7F90      		pop r7
 20954 77e2 6F90      		pop r6
 20955               	.LVL1470:
 20956 77e4 0895      		ret
 20957               	.LFE21:
 20959               		.data
 20960               	.LC67:
 20961 03c8 6765 7420 		.string	"get mac"
 20961      6D61 6300 
 20962               	.LC68:
 20963 03d0 4D61 6320 		.string	"Mac Addr="
 20963      4164 6472 
 20963      3D00 
 20964               	.LC69:
 20965 03da 476F 7420 		.string	"Got Mac="
 20965      4D61 633D 
 20965      00
 20966               		.text
 20967               	.global	Wifi_GetMac
 20969               	Wifi_GetMac:
 20970               	.LFB24:
 20971               	.LM2377:
 20972               	.LVL1471:
 20973 77e6 CF92      		push r12
 20974 77e8 DF92      		push r13
 20975 77ea EF92      		push r14
 20976 77ec FF92      		push r15
 20977 77ee 1F93      		push r17
 20978 77f0 CF93      		push r28
 20979 77f2 DF93      		push r29
 20980               	/* prologue: function */
 20981               	/* frame size = 0 */
 20982 77f4 7C01      		movw r14,r24
 20983               	.LM2378:
 20984 77f6 0E94 0000 		call Wifi_ClearBuffer
 20985               	.LVL1472:
 20986               	.LM2379:
 20987 77fa 80E0      		ldi r24,lo8(.LC67)
 20988 77fc 90E0      		ldi r25,hi8(.LC67)
 20989 77fe 60E0      		ldi r22,lo8(.LC68)
 20990 7800 70E0      		ldi r23,hi8(.LC68)
 20991 7802 AB01      		movw r20,r22
 20992 7804 9701      		movw r18,r14
 20993 7806 0E94 0000 		call Wifi_SendCommand
 20994 780a 10E0      		ldi r17,lo8(0)
 20995               	.LVL1473:
 20996 780c C0E0      		ldi r28,lo8(0)
 20997 780e D0E0      		ldi r29,hi8(0)
 20998               	.LVL1474:
 20999               	.LBB1081:
 21000               	.LBB1082:
 21001               	.LBB1083:
 21002               	.LBB1084:
 21003               	.LBB1085:
 21004               	.LM2380:
 21005 7810 96E6      		ldi r25,lo8(3686)
 21006 7812 C92E      		mov r12,r25
 21007 7814 9EE0      		ldi r25,hi8(3686)
 21008 7816 D92E      		mov r13,r25
 21009 7818 00C0      		rjmp .L1272
 21010               	.LVL1475:
 21011               	.L1275:
 21012               	.LBE1085:
 21013               	.LBE1084:
 21014               	.LBE1083:
 21015               	.LBE1082:
 21016               	.LM2381:
 21017 781a 0E94 0000 		call Wifi_CharReadyToRead
 21018               	.LVL1476:
 21019 781e 8823      		tst r24
 21020 7820 01F0      		breq .L1273
 21021               	.LM2382:
 21022 7822 80E0      		ldi r24,lo8(0)
 21023 7824 0E94 0000 		call Wifi_GetByte
 21024 7828 E12F      		mov r30,r17
 21025 782a F0E0      		ldi r31,lo8(0)
 21026               	.LVL1477:
 21027 782c E050      		subi r30,lo8(-(macAddr))
 21028 782e F040      		sbci r31,hi8(-(macAddr))
 21029               	.LVL1478:
 21030 7830 8083      		st Z,r24
 21031               	.LM2383:
 21032 7832 1F5F      		subi r17,lo8(-(1))
 21033               	.LVL1479:
 21034               	.LM2384:
 21035 7834 1131      		cpi r17,lo8(17)
 21036 7836 01F4      		brne .L1273
 21037               	.LM2385:
 21038 7838 80E0      		ldi r24,lo8(.LC69)
 21039 783a 90E0      		ldi r25,hi8(.LC69)
 21040 783c 60E0      		ldi r22,lo8(0)
 21041 783e 0E94 0000 		call Debug_SendString
 21042               	.LVL1480:
 21043               	.LM2386:
 21044 7842 80E0      		ldi r24,lo8(macAddr)
 21045 7844 90E0      		ldi r25,hi8(macAddr)
 21046 7846 61E0      		ldi r22,lo8(1)
 21047 7848 0E94 0000 		call Debug_SendString
 21048 784c 81E0      		ldi r24,lo8(1)
 21049 784e 00C0      		rjmp .L1274
 21050               	.LVL1481:
 21051               	.L1273:
 21052               	.LBB1089:
 21053               	.LBB1088:
 21054               	.LBB1087:
 21055               	.LBB1086:
 21056               	.LM2387:
 21057 7850 C601      		movw r24,r12
 21058               	.LVL1482:
 21059               	/* #APP */
 21060               	 ;  105 "/usr/local/CrossPack-AVR-20100115/lib/gcc/avr/4.3.3/../../../../avr/include/util/delay_bas
 21061 7852 0197      		1: sbiw r24,1
 21062 7854 01F4      		brne 1b
 21063               	 ;  0 "" 2
 21064               	/* #NOAPP */
 21065               	.LBE1086:
 21066               	.LBE1087:
 21067               	.LBE1088:
 21068               	.LBE1089:
 21069               	.LM2388:
 21070 7856 2196      		adiw r28,1
 21071               	.L1272:
 21072 7858 CE15      		cp r28,r14
 21073 785a DF05      		cpc r29,r15
 21074 785c 00F0      		brlo .L1275
 21075 785e 80E0      		ldi r24,lo8(0)
 21076               	.LVL1483:
 21077               	.L1274:
 21078               	/* epilogue start */
 21079               	.LBE1081:
 21080               	.LM2389:
 21081 7860 DF91      		pop r29
 21082 7862 CF91      		pop r28
 21083               	.LVL1484:
 21084 7864 1F91      		pop r17
 21085               	.LVL1485:
 21086 7866 FF90      		pop r15
 21087 7868 EF90      		pop r14
 21088               	.LVL1486:
 21089 786a DF90      		pop r13
 21090 786c CF90      		pop r12
 21091 786e 0895      		ret
 21092               	.LFE24:
 21094               		.data
 21095               	.LC70:
 21096 03e3 6578 6974 		.string	"exit"
 21096      00
 21097               	.LC71:
 21098 03e8 4558 4954 		.string	"EXIT"
 21098      00
 21099               		.text
 21100               	.global	Wifi_ExitCMDMode
 21102               	Wifi_ExitCMDMode:
 21103               	.LFB20:
 21104               	.LM2390:
 21105               	.LVL1487:
 21106               	/* prologue: function */
 21107               	/* frame size = 0 */
 21108 7870 9C01      		movw r18,r24
 21109               	.LM2391:
 21110 7872 40E0      		ldi r20,lo8(.LC71)
 21111 7874 50E0      		ldi r21,hi8(.LC71)
 21112 7876 80E0      		ldi r24,lo8(.LC70)
 21113 7878 90E0      		ldi r25,hi8(.LC70)
 21114               	.LVL1488:
 21115 787a BA01      		movw r22,r20
 21116 787c 0E94 0000 		call Wifi_SendCommand
 21117               	.LVL1489:
 21118               	/* epilogue start */
 21119               	.LM2392:
 21120 7880 0895      		ret
 21121               	.LFE20:
 21123               	.global	f_printf
 21125               	f_printf:
 21126               	.LFB100:
 21127               	.LM2393:
 21128               	.LVL1490:
 21129 7882 2F92      		push r2
 21130 7884 3F92      		push r3
 21131 7886 4F92      		push r4
 21132 7888 5F92      		push r5
 21133 788a 6F92      		push r6
 21134 788c 7F92      		push r7
 21135 788e 8F92      		push r8
 21136 7890 9F92      		push r9
 21137 7892 AF92      		push r10
 21138 7894 BF92      		push r11
 21139 7896 CF92      		push r12
 21140 7898 DF92      		push r13
 21141 789a EF92      		push r14
 21142 789c FF92      		push r15
 21143 789e 0F93      		push r16
 21144 78a0 1F93      		push r17
 21145 78a2 DF93      		push r29
 21146 78a4 CF93      		push r28
 21147 78a6 CDB7      		in r28,__SP_L__
 21148 78a8 DEB7      		in r29,__SP_H__
 21149 78aa 6397      		sbiw r28,19
 21150 78ac CDBF      		out __SP_L__,r28
 21151 78ae DEBF      		out __SP_H__,r29
 21152               	/* prologue: function */
 21153               	/* frame size = 19 */
 21154 78b0 6BA4      		ldd r6,Y+43
 21155 78b2 7CA4      		ldd r7,Y+44
 21156               	.LM2394:
 21157 78b4 8E01      		movw r16,r28
 21158               	.LVL1491:
 21159 78b6 035D      		subi r16,lo8(-(45))
 21160 78b8 1F4F      		sbci r17,hi8(-(45))
 21161 78ba 198A      		std Y+17,__zero_reg__
 21162 78bc 1A8A      		std Y+18,__zero_reg__
 21163               	.LVL1492:
 21164 78be 20E0      		ldi r18,lo8(0)
 21165 78c0 30E0      		ldi r19,hi8(0)
 21166               	.LVL1493:
 21167               	.LVL1494:
 21168               	.L1307:
 21169               	.LM2395:
 21170 78c2 D301      		movw r26,r6
 21171 78c4 8C91      		ld r24,X
 21172               	.LVL1495:
 21173               	.LM2396:
 21174 78c6 8823      		tst r24
 21175 78c8 01F4      		brne .+2
 21176 78ca 00C0      		rjmp .L1280
 21177               	.LM2397:
 21178 78cc 0894      		sec
 21179 78ce 611C      		adc r6,__zero_reg__
 21180 78d0 711C      		adc r7,__zero_reg__
 21181               	.LM2398:
 21182 78d2 8532      		cpi r24,lo8(37)
 21183 78d4 01F0      		breq .L1281
 21184               	.LM2399:
 21185 78d6 90E0      		ldi r25,lo8(0)
 21186 78d8 69A5      		ldd r22,Y+41
 21187 78da 7AA5      		ldd r23,Y+42
 21188 78dc 0E94 0000 		call f_putc
 21189               	.LVL1496:
 21190 78e0 9C01      		movw r18,r24
 21191               	.LVL1497:
 21192               	.LM2400:
 21193 78e2 BFEF      		ldi r27,hi8(-1)
 21194 78e4 8F3F      		cpi r24,lo8(-1)
 21195 78e6 9B07      		cpc r25,r27
 21196 78e8 01F4      		brne .L1282
 21197               	.LVL1498:
 21198 78ea 4801      		movw r8,r16
 21199 78ec 00C0      		rjmp .L1283
 21200               	.L1282:
 21201 78ee 4801      		movw r8,r16
 21202 78f0 00C0      		rjmp .L1310
 21203               	.LVL1499:
 21204               	.L1281:
 21205               	.LM2401:
 21206 78f2 D301      		movw r26,r6
 21207 78f4 ED91      		ld r30,X+
 21208               	.LVL1500:
 21209 78f6 3D01      		movw r6,r26
 21210               	.LM2402:
 21211 78f8 E033      		cpi r30,lo8(48)
 21212 78fa 01F0      		breq .L1284
 21213 78fc 1B8A      		std Y+19,__zero_reg__
 21214               	.LVL1501:
 21215 78fe 00C0      		rjmp .L1285
 21216               	.L1284:
 21217               	.LM2403:
 21218 7900 ED91      		ld r30,X+
 21219 7902 3D01      		movw r6,r26
 21220 7904 B1E0      		ldi r27,lo8(1)
 21221 7906 BB8B      		std Y+19,r27
 21222               	.LVL1502:
 21223               	.L1285:
 21224 7908 AA24      		clr r10
 21225 790a BB24      		clr r11
 21226 790c 00C0      		rjmp .L1286
 21227               	.L1287:
 21228               	.LM2404:
 21229 790e C501      		movw r24,r10
 21230 7910 F3E0      		ldi r31,3
 21231 7912 880F      	1:	lsl r24
 21232 7914 991F      		rol r25
 21233 7916 FA95      		dec r31
 21234 7918 01F4      		brne 1b
 21235 791a AA0C      		lsl r10
 21236 791c BB1C      		rol r11
 21237 791e A80E      		add r10,r24
 21238 7920 B91E      		adc r11,r25
 21239 7922 AE0E      		add r10,r30
 21240 7924 B11C      		adc r11,__zero_reg__
 21241 7926 E0ED      		ldi r30,lo8(-48)
 21242 7928 FFEF      		ldi r31,hi8(-48)
 21243               	.LVL1503:
 21244 792a AE0E      		add r10,r30
 21245 792c BF1E      		adc r11,r31
 21246               	.LM2405:
 21247 792e D301      		movw r26,r6
 21248 7930 ED91      		ld r30,X+
 21249               	.LVL1504:
 21250 7932 3D01      		movw r6,r26
 21251               	.L1286:
 21252               	.LM2406:
 21253 7934 8E2F      		mov r24,r30
 21254 7936 8053      		subi r24,lo8(-(-48))
 21255 7938 8A30      		cpi r24,lo8(10)
 21256 793a 00F0      		brlo .L1287
 21257               	.LM2407:
 21258 793c EC36      		cpi r30,lo8(108)
 21259 793e 01F4      		brne .L1288
 21260               	.LM2408:
 21261 7940 BB89      		ldd r27,Y+19
 21262 7942 B260      		ori r27,lo8(2)
 21263 7944 BB8B      		std Y+19,r27
 21264               	.LVL1505:
 21265 7946 D301      		movw r26,r6
 21266 7948 ED91      		ld r30,X+
 21267 794a 3D01      		movw r6,r26
 21268               	.L1288:
 21269               	.LM2409:
 21270 794c E337      		cpi r30,lo8(115)
 21271 794e 01F4      		brne .L1289
 21272               	.LM2410:
 21273 7950 62E0      		ldi r22,lo8(2)
 21274 7952 862E      		mov r8,r22
 21275 7954 912C      		mov r9,__zero_reg__
 21276               	.LVL1506:
 21277 7956 800E      		add r8,r16
 21278 7958 911E      		adc r9,r17
 21279 795a F801      		movw r30,r16
 21280               	.LVL1507:
 21281 795c 8081      		ld r24,Z
 21282 795e 9181      		ldd r25,Z+1
 21283 7960 00C0      		rjmp .L1311
 21284               	.LVL1508:
 21285               	.L1289:
 21286               	.LM2411:
 21287 7962 E336      		cpi r30,lo8(99)
 21288 7964 01F4      		brne .L1290
 21289               	.LM2412:
 21290 7966 52E0      		ldi r21,lo8(2)
 21291 7968 852E      		mov r8,r21
 21292 796a 912C      		mov r9,__zero_reg__
 21293               	.LVL1509:
 21294 796c 800E      		add r8,r16
 21295 796e 911E      		adc r9,r17
 21296 7970 D801      		movw r26,r16
 21297 7972 8D91      		ld r24,X+
 21298 7974 9C91      		ld r25,X
 21299 7976 69A5      		ldd r22,Y+41
 21300 7978 7AA5      		ldd r23,Y+42
 21301 797a 0E94 0000 		call f_putc
 21302               	.LVL1510:
 21303 797e 9C01      		movw r18,r24
 21304               	.LVL1511:
 21305               	.LM2413:
 21306 7980 BFEF      		ldi r27,hi8(-1)
 21307 7982 8F3F      		cpi r24,lo8(-1)
 21308 7984 9B07      		cpc r25,r27
 21309 7986 01F4      		brne .+2
 21310 7988 00C0      		rjmp .L1283
 21311               	.LVL1512:
 21312               	.L1310:
 21313 798a 21E0      		ldi r18,lo8(1)
 21314 798c 30E0      		ldi r19,hi8(1)
 21315               	.LVL1513:
 21316 798e 00C0      		rjmp .L1283
 21317               	.LVL1514:
 21318               	.L1290:
 21319               	.LM2414:
 21320 7990 E436      		cpi r30,lo8(100)
 21321 7992 01F0      		breq .L1291
 21322               	.LM2415:
 21323 7994 E537      		cpi r30,lo8(117)
 21324 7996 01F0      		breq .L1291
 21325               	.LM2416:
 21326 7998 E835      		cpi r30,lo8(88)
 21327 799a 01F0      		breq .+2
 21328 799c 00C0      		rjmp .L1280
 21329 799e 20E1      		ldi r18,lo8(16)
 21330               	.LVL1515:
 21331 79a0 00C0      		rjmp .L1292
 21332               	.LVL1516:
 21333               	.L1291:
 21334 79a2 2AE0      		ldi r18,lo8(10)
 21335               	.LVL1517:
 21336               	.L1292:
 21337               	.LM2417:
 21338 79a4 FB89      		ldd r31,Y+19
 21339 79a6 F1FF      		sbrs r31,1
 21340 79a8 00C0      		rjmp .L1293
 21341               	.LM2418:
 21342 79aa 44E0      		ldi r20,lo8(4)
 21343 79ac 842E      		mov r8,r20
 21344 79ae 912C      		mov r9,__zero_reg__
 21345               	.LVL1518:
 21346 79b0 800E      		add r8,r16
 21347 79b2 911E      		adc r9,r17
 21348 79b4 D801      		movw r26,r16
 21349 79b6 ED90      		ld r14,X+
 21350 79b8 FD90      		ld r15,X+
 21351 79ba 0D91      		ld r16,X+
 21352 79bc 1C91      		ld r17,X
 21353               	.LM2419:
 21354 79be E436      		cpi r30,lo8(100)
 21355 79c0 01F4      		brne .L1295
 21356               	.LVL1519:
 21357 79c2 00C0      		rjmp .L1294
 21358               	.L1293:
 21359 79c4 C801      		movw r24,r16
 21360 79c6 0296      		adiw r24,2
 21361               	.LVL1520:
 21362 79c8 D801      		movw r26,r16
 21363 79ca 6D91      		ld r22,X+
 21364 79cc 7C91      		ld r23,X
 21365               	.LM2420:
 21366 79ce E436      		cpi r30,lo8(100)
 21367 79d0 01F4      		brne .L1296
 21368               	.LVL1521:
 21369 79d2 4C01      		movw r8,r24
 21370 79d4 7B01      		movw r14,r22
 21371 79d6 0027      		clr r16
 21372 79d8 F7FC      		sbrc r15,7
 21373 79da 0095      		com r16
 21374 79dc 102F      		mov r17,r16
 21375 79de 00C0      		rjmp .L1294
 21376               	.LVL1522:
 21377               	.L1296:
 21378 79e0 4C01      		movw r8,r24
 21379 79e2 7B01      		movw r14,r22
 21380               	.LVL1523:
 21381 79e4 00E0      		ldi r16,lo8(0)
 21382 79e6 10E0      		ldi r17,hi8(0)
 21383               	.LVL1524:
 21384 79e8 00C0      		rjmp .L1295
 21385               	.LVL1525:
 21386               	.L1294:
 21387               	.LM2421:
 21388 79ea 17FF      		sbrs r17,7
 21389 79ec 00C0      		rjmp .L1295
 21390               	.LM2422:
 21391 79ee 1095      		com r17
 21392 79f0 0095      		com r16
 21393 79f2 F094      		com r15
 21394 79f4 E094      		com r14
 21395 79f6 E11C      		adc r14,__zero_reg__
 21396 79f8 F11C      		adc r15,__zero_reg__
 21397 79fa 011D      		adc r16,__zero_reg__
 21398 79fc 111D      		adc r17,__zero_reg__
 21399               	.LM2423:
 21400 79fe BB89      		ldd r27,Y+19
 21401 7a00 B460      		ori r27,lo8(4)
 21402 7a02 BB8B      		std Y+19,r27
 21403               	.LVL1526:
 21404               	.L1295:
 21405               	.LM2424:
 21406 7a04 188A      		std Y+16,__zero_reg__
 21407 7a06 3FE0      		ldi r19,lo8(15)
 21408 7a08 C32E      		mov r12,r19
 21409 7a0a D12C      		mov r13,__zero_reg__
 21410               	.LM2425:
 21411 7a0c 222E      		mov r2,r18
 21412 7a0e 3324      		clr r3
 21413 7a10 4424      		clr r4
 21414 7a12 5524      		clr r5
 21415               	.LVL1527:
 21416               	.L1300:
 21417 7a14 C801      		movw r24,r16
 21418 7a16 B701      		movw r22,r14
 21419 7a18 A201      		movw r20,r4
 21420 7a1a 9101      		movw r18,r2
 21421               	.LVL1528:
 21422 7a1c 0E94 0000 		call __udivmodsi4
 21423               	.LVL1529:
 21424 7a20 862F      		mov r24,r22
 21425               	.LVL1530:
 21426 7a22 805D      		subi r24,lo8(-(48))
 21427               	.LM2426:
 21428 7a24 8A33      		cpi r24,lo8(58)
 21429 7a26 00F0      		brlo .L1297
 21430 7a28 895F      		subi r24,lo8(-(7))
 21431               	.L1297:
 21432               	.LM2427:
 21433 7a2a 0894      		sec
 21434 7a2c C108      		sbc r12,__zero_reg__
 21435 7a2e D108      		sbc r13,__zero_reg__
 21436 7a30 E1E0      		ldi r30,lo8(1)
 21437 7a32 F0E0      		ldi r31,hi8(1)
 21438 7a34 EC0F      		add r30,r28
 21439 7a36 FD1F      		adc r31,r29
 21440 7a38 EC0D      		add r30,r12
 21441 7a3a FD1D      		adc r31,r13
 21442 7a3c 8083      		st Z,r24
 21443               	.LM2428:
 21444 7a3e C114      		cp r12,__zero_reg__
 21445 7a40 D104      		cpc r13,__zero_reg__
 21446 7a42 01F0      		breq .L1299
 21447               	.LM2429:
 21448 7a44 C801      		movw r24,r16
 21449 7a46 B701      		movw r22,r14
 21450 7a48 A201      		movw r20,r4
 21451 7a4a 9101      		movw r18,r2
 21452 7a4c 0E94 0000 		call __udivmodsi4
 21453 7a50 C901      		movw r24,r18
 21454               	.LVL1531:
 21455 7a52 DA01      		movw r26,r20
 21456 7a54 7C01      		movw r14,r24
 21457 7a56 8D01      		movw r16,r26
 21458               	.LM2430:
 21459 7a58 E114      		cp r14,__zero_reg__
 21460 7a5a F104      		cpc r15,__zero_reg__
 21461 7a5c 0105      		cpc r16,__zero_reg__
 21462 7a5e 1105      		cpc r17,__zero_reg__
 21463 7a60 01F4      		brne .L1300
 21464               	.LM2431:
 21465 7a62 EB89      		ldd r30,Y+19
 21466 7a64 E2FF      		sbrs r30,2
 21467 7a66 00C0      		rjmp .L1299
 21468 7a68 0894      		sec
 21469 7a6a C108      		sbc r12,__zero_reg__
 21470 7a6c D108      		sbc r13,__zero_reg__
 21471 7a6e E1E0      		ldi r30,lo8(1)
 21472 7a70 F0E0      		ldi r31,hi8(1)
 21473 7a72 EC0F      		add r30,r28
 21474 7a74 FD1F      		adc r31,r29
 21475 7a76 EC0D      		add r30,r12
 21476 7a78 FD1D      		adc r31,r13
 21477 7a7a 4DE2      		ldi r20,lo8(45)
 21478 7a7c 4083      		st Z,r20
 21479               	.LVL1532:
 21480               	.L1299:
 21481               	.LM2432:
 21482 7a7e 8FE0      		ldi r24,lo8(15)
 21483 7a80 90E0      		ldi r25,hi8(15)
 21484               	.LVL1533:
 21485 7a82 8A19      		sub r24,r10
 21486 7a84 9B09      		sbc r25,r11
 21487 7a86 0894      		sec
 21488 7a88 C108      		sbc r12,__zero_reg__
 21489 7a8a D108      		sbc r13,__zero_reg__
 21490 7a8c E1E0      		ldi r30,lo8(1)
 21491 7a8e F0E0      		ldi r31,hi8(1)
 21492 7a90 EC0F      		add r30,r28
 21493 7a92 FD1F      		adc r31,r29
 21494 7a94 EC0D      		add r30,r12
 21495 7a96 FD1D      		adc r31,r13
 21496 7a98 0894      		sec
 21497 7a9a C11C      		adc r12,__zero_reg__
 21498 7a9c D11C      		adc r13,__zero_reg__
 21499               	.LM2433:
 21500 7a9e AB89      		ldd r26,Y+19
 21501 7aa0 2A2F      		mov r18,r26
 21502 7aa2 30E0      		ldi r19,lo8(0)
 21503 7aa4 2170      		andi r18,lo8(1)
 21504 7aa6 3070      		andi r19,hi8(1)
 21505 7aa8 00C0      		rjmp .L1301
 21506               	.L1305:
 21507 7aaa 0894      		sec
 21508 7aac C108      		sbc r12,__zero_reg__
 21509 7aae D108      		sbc r13,__zero_reg__
 21510 7ab0 2115      		cp r18,__zero_reg__
 21511 7ab2 3105      		cpc r19,__zero_reg__
 21512 7ab4 01F4      		brne .L1302
 21513 7ab6 40E2      		ldi r20,lo8(32)
 21514 7ab8 00C0      		rjmp .L1303
 21515               	.L1302:
 21516 7aba 40E3      		ldi r20,lo8(48)
 21517               	.L1303:
 21518 7abc 4083      		st Z,r20
 21519 7abe 3197      		sbiw r30,1
 21520               	.L1301:
 21521 7ac0 C114      		cp r12,__zero_reg__
 21522 7ac2 D104      		cpc r13,__zero_reg__
 21523 7ac4 01F0      		breq .L1304
 21524 7ac6 8C15      		cp r24,r12
 21525 7ac8 9D05      		cpc r25,r13
 21526 7aca 04F0      		brlt .L1305
 21527               	.L1304:
 21528               	.LM2434:
 21529 7acc 81E0      		ldi r24,lo8(1)
 21530 7ace 90E0      		ldi r25,hi8(1)
 21531               	.LVL1534:
 21532 7ad0 8C0F      		add r24,r28
 21533 7ad2 9D1F      		adc r25,r29
 21534 7ad4 8C0D      		add r24,r12
 21535 7ad6 9D1D      		adc r25,r13
 21536               	.LVL1535:
 21537               	.L1311:
 21538 7ad8 69A5      		ldd r22,Y+41
 21539 7ada 7AA5      		ldd r23,Y+42
 21540 7adc 0E94 0000 		call f_puts
 21541               	.LVL1536:
 21542 7ae0 9C01      		movw r18,r24
 21543               	.LVL1537:
 21544               	.L1283:
 21545               	.LM2435:
 21546 7ae2 E989      		ldd r30,Y+17
 21547 7ae4 FA89      		ldd r31,Y+18
 21548 7ae6 E20F      		add r30,r18
 21549 7ae8 F31F      		adc r31,r19
 21550 7aea E98B      		std Y+17,r30
 21551 7aec FA8B      		std Y+18,r31
 21552               	.LVL1538:
 21553 7aee FFEF      		ldi r31,hi8(-1)
 21554 7af0 2F3F      		cpi r18,lo8(-1)
 21555 7af2 3F07      		cpc r19,r31
 21556 7af4 01F0      		breq .L1306
 21557 7af6 8401      		movw r16,r8
 21558               	.LVL1539:
 21559 7af8 00C0      		rjmp .L1307
 21560               	.LVL1540:
 21561               	.L1280:
 21562               	.LM2436:
 21563 7afa 4FEF      		ldi r20,hi8(-1)
 21564 7afc 2F3F      		cpi r18,lo8(-1)
 21565 7afe 3407      		cpc r19,r20
 21566 7b00 01F0      		breq .L1306
 21567 7b02 2989      		ldd r18,Y+17
 21568 7b04 3A89      		ldd r19,Y+18
 21569               	.LVL1541:
 21570               	.L1306:
 21571               	.LM2437:
 21572 7b06 C901      		movw r24,r18
 21573               	.LVL1542:
 21574               	/* epilogue start */
 21575 7b08 6396      		adiw r28,19
 21576 7b0a CDBF      		out __SP_L__,r28
 21577 7b0c DEBF      		out __SP_H__,r29
 21578 7b0e CF91      		pop r28
 21579 7b10 DF91      		pop r29
 21580 7b12 1F91      		pop r17
 21581 7b14 0F91      		pop r16
 21582               	.LVL1543:
 21583 7b16 FF90      		pop r15
 21584 7b18 EF90      		pop r14
 21585               	.LVL1544:
 21586 7b1a DF90      		pop r13
 21587 7b1c CF90      		pop r12
 21588               	.LVL1545:
 21589 7b1e BF90      		pop r11
 21590 7b20 AF90      		pop r10
 21591               	.LVL1546:
 21592 7b22 9F90      		pop r9
 21593 7b24 8F90      		pop r8
 21594               	.LVL1547:
 21595 7b26 7F90      		pop r7
 21596 7b28 6F90      		pop r6
 21597               	.LVL1548:
 21598 7b2a 5F90      		pop r5
 21599 7b2c 4F90      		pop r4
 21600 7b2e 3F90      		pop r3
 21601 7b30 2F90      		pop r2
 21602 7b32 0895      		ret
 21603               	.LFE100:
 21605               		.data
 21606               	.LC72:
 21607 03ed 4479 6C6F 		.string	"Dylos"
 21607      7300 
 21608               	.LC73:
 21609 03f3 2C00      		.string	","
 21610               		.text
 21611               	.global	__vector_88
 21613               	__vector_88:
 21614               	.LFB39:
 21615               	.LM2438:
 21616 7b34 1F92      		push __zero_reg__
 21617 7b36 0F92      		push r0
 21618 7b38 0FB6      		in r0,__SREG__
 21619 7b3a 0F92      		push r0
 21620 7b3c 0BB6      		in r0,59-0
 21621 7b3e 0F92      		push r0
 21622 7b40 1124      		clr __zero_reg__
 21623 7b42 1F93      		push r17
 21624 7b44 2F93      		push r18
 21625 7b46 3F93      		push r19
 21626 7b48 4F93      		push r20
 21627 7b4a 5F93      		push r21
 21628 7b4c 6F93      		push r22
 21629 7b4e 7F93      		push r23
 21630 7b50 8F93      		push r24
 21631 7b52 9F93      		push r25
 21632 7b54 AF93      		push r26
 21633 7b56 BF93      		push r27
 21634 7b58 EF93      		push r30
 21635 7b5a FF93      		push r31
 21636               	/* prologue: Signal */
 21637               	/* frame size = 0 */
 21638               	.LM2439:
 21639 7b5c E091 0000 		lds r30,Rs232_writeLocation
 21640 7b60 F091 0000 		lds r31,(Rs232_writeLocation)+1
 21641 7b64 8091 A009 		lds r24,2464
 21642 7b68 E050      		subi r30,lo8(-(Rs232Buffer))
 21643 7b6a F040      		sbci r31,hi8(-(Rs232Buffer))
 21644 7b6c 8083      		st Z,r24
 21645               	.LM2440:
 21646 7b6e 8091 0000 		lds r24,rs232Recording
 21647 7b72 8823      		tst r24
 21648 7b74 01F4      		brne .+2
 21649 7b76 00C0      		rjmp .L1313
 21650               	.LM2441:
 21651 7b78 E091 0000 		lds r30,Rs232_writeLocation
 21652 7b7c F091 0000 		lds r31,(Rs232_writeLocation)+1
 21653 7b80 E050      		subi r30,lo8(-(Rs232Buffer))
 21654 7b82 F040      		sbci r31,hi8(-(Rs232Buffer))
 21655 7b84 8081      		ld r24,Z
 21656 7b86 8A30      		cpi r24,lo8(10)
 21657 7b88 01F0      		breq .+2
 21658 7b8a 00C0      		rjmp .L1313
 21659 7b8c 10E0      		ldi r17,lo8(0)
 21660               	.LVL1549:
 21661               	.L1316:
 21662               	.LBB1090:
 21663               	.LBB1091:
 21664               	.LBB1092:
 21665               	.LM2442:
 21666 7b8e 2091 0000 		lds r18,Rs232_writeLocation
 21667 7b92 3091 0000 		lds r19,(Rs232_writeLocation)+1
 21668 7b96 8091 0000 		lds r24,Rs232_readLocation
 21669 7b9a 9091 0000 		lds r25,(Rs232_readLocation)+1
 21670 7b9e 2817      		cp r18,r24
 21671 7ba0 3907      		cpc r19,r25
 21672 7ba2 01F0      		breq .+2
 21673 7ba4 00C0      		rjmp .L1314
 21674               	.LBE1092:
 21675               	.LBE1091:
 21676               	.LM2443:
 21677 7ba6 80E0      		ldi r24,lo8(airQualityString)
 21678 7ba8 90E0      		ldi r25,hi8(airQualityString)
 21679 7baa 60E0      		ldi r22,lo8(.LC72)
 21680 7bac 70E0      		ldi r23,hi8(.LC72)
 21681 7bae 0E94 0000 		call strstr
 21682               	.LVL1550:
 21683 7bb2 0097      		sbiw r24,0
 21684 7bb4 01F0      		breq .+2
 21685 7bb6 00C0      		rjmp .L1313
 21686               	.LM2444:
 21687 7bb8 0E94 0000 		call Time_Get32BitTimer
 21688 7bbc 6093 0000 		sts airSampleTime,r22
 21689 7bc0 7093 0000 		sts (airSampleTime)+1,r23
 21690 7bc4 8093 0000 		sts (airSampleTime)+2,r24
 21691 7bc8 9093 0000 		sts (airSampleTime)+3,r25
 21692               	.LM2445:
 21693 7bcc 80E0      		ldi r24,lo8(airQualityString)
 21694 7bce 90E0      		ldi r25,hi8(airQualityString)
 21695 7bd0 60E0      		ldi r22,lo8(.LC73)
 21696 7bd2 70E0      		ldi r23,hi8(.LC73)
 21697 7bd4 0E94 0000 		call strtok
 21698 7bd8 0E94 0000 		call atol
 21699 7bdc 6093 0000 		sts smallCount,r22
 21700 7be0 7093 0000 		sts (smallCount)+1,r23
 21701 7be4 8093 0000 		sts (smallCount)+2,r24
 21702 7be8 9093 0000 		sts (smallCount)+3,r25
 21703               	.LM2446:
 21704 7bec 80E0      		ldi r24,lo8(0)
 21705 7bee 90E0      		ldi r25,hi8(0)
 21706 7bf0 60E0      		ldi r22,lo8(.LC73)
 21707 7bf2 70E0      		ldi r23,hi8(.LC73)
 21708 7bf4 0E94 0000 		call strtok
 21709 7bf8 0E94 0000 		call atol
 21710 7bfc 6093 0000 		sts largeCount,r22
 21711 7c00 7093 0000 		sts largeCount+1,r23
 21712 7c04 8093 0000 		sts largeCount+2,r24
 21713 7c08 9093 0000 		sts largeCount+3,r25
 21714               	.LM2447:
 21715 7c0c 2091 0000 		lds r18,smallCount
 21716 7c10 3091 0000 		lds r19,(smallCount)+1
 21717 7c14 4091 0000 		lds r20,(smallCount)+2
 21718 7c18 5091 0000 		lds r21,(smallCount)+3
 21719 7c1c 2093 0000 		sts quickSmall,r18
 21720 7c20 3093 0000 		sts (quickSmall)+1,r19
 21721 7c24 4093 0000 		sts (quickSmall)+2,r20
 21722 7c28 5093 0000 		sts (quickSmall)+3,r21
 21723               	.LM2448:
 21724 7c2c 6093 0000 		sts quickLarge,r22
 21725 7c30 7093 0000 		sts quickLarge+1,r23
 21726 7c34 8093 0000 		sts quickLarge+2,r24
 21727 7c38 9093 0000 		sts quickLarge+3,r25
 21728               	.LM2449:
 21729 7c3c 81E0      		ldi r24,lo8(1)
 21730 7c3e 8093 0000 		sts okToSendAirQuality,r24
 21731               	.L1313:
 21732               	.LBE1090:
 21733               	.LM2450:
 21734 7c42 8091 0000 		lds r24,Rs232_writeLocation
 21735 7c46 9091 0000 		lds r25,(Rs232_writeLocation)+1
 21736 7c4a 0196      		adiw r24,1
 21737 7c4c 8093 0000 		sts Rs232_writeLocation,r24
 21738 7c50 9093 0000 		sts (Rs232_writeLocation)+1,r25
 21739               	.LM2451:
 21740 7c54 8091 0000 		lds r24,Rs232_writeLocation
 21741 7c58 9091 0000 		lds r25,(Rs232_writeLocation)+1
 21742 7c5c 8050      		subi r24,lo8(1024)
 21743 7c5e 9440      		sbci r25,hi8(1024)
 21744 7c60 00F0      		brlo .L1317
 21745               	.LM2452:
 21746 7c62 1092 0000 		sts Rs232_writeLocation,__zero_reg__
 21747 7c66 1092 0000 		sts (Rs232_writeLocation)+1,__zero_reg__
 21748 7c6a 00C0      		rjmp .L1317
 21749               	.LVL1551:
 21750               	.L1314:
 21751               	.LBB1093:
 21752               	.LM2453:
 21753 7c6c 80E0      		ldi r24,lo8(0)
 21754 7c6e 0E94 0000 		call Rs232_GetByte
 21755               	.LVL1552:
 21756 7c72 E12F      		mov r30,r17
 21757 7c74 F0E0      		ldi r31,lo8(0)
 21758               	.LVL1553:
 21759 7c76 E050      		subi r30,lo8(-(airQualityString))
 21760 7c78 F040      		sbci r31,hi8(-(airQualityString))
 21761               	.LVL1554:
 21762 7c7a 8083      		st Z,r24
 21763               	.LM2454:
 21764 7c7c 1F5F      		subi r17,lo8(-(1))
 21765               	.LVL1555:
 21766 7c7e 00C0      		rjmp .L1316
 21767               	.LVL1556:
 21768               	.L1317:
 21769               	/* epilogue start */
 21770               	.LBE1093:
 21771               	.LM2455:
 21772 7c80 FF91      		pop r31
 21773 7c82 EF91      		pop r30
 21774 7c84 BF91      		pop r27
 21775 7c86 AF91      		pop r26
 21776 7c88 9F91      		pop r25
 21777 7c8a 8F91      		pop r24
 21778 7c8c 7F91      		pop r23
 21779 7c8e 6F91      		pop r22
 21780 7c90 5F91      		pop r21
 21781 7c92 4F91      		pop r20
 21782 7c94 3F91      		pop r19
 21783 7c96 2F91      		pop r18
 21784 7c98 1F91      		pop r17
 21785               	.LVL1557:
 21786 7c9a 0F90      		pop r0
 21787 7c9c 0BBE      		out 59-0,r0
 21788 7c9e 0F90      		pop r0
 21789 7ca0 0FBE      		out __SREG__,r0
 21790 7ca2 0F90      		pop r0
 21791 7ca4 1F90      		pop __zero_reg__
 21792 7ca6 1895      		reti
 21793               	.LFE39:
 21795               		.data
 21796               	.LC74:
 21797 03f5 7368 6F77 		.string	"show t t"
 21797      2074 2074 
 21797      00
 21798               	.LC75:
 21799 03fe 5469 6D65 		.string	"Time="
 21799      3D00 
 21800               	.LC76:
 21801 0404 2000      		.string	" "
 21802               		.text
 21803               	.global	Wifi_GetTime
 21805               	Wifi_GetTime:
 21806               	.LFB22:
 21807               	.LM2456:
 21808               	.LVL1558:
 21809 7ca8 EF92      		push r14
 21810 7caa FF92      		push r15
 21811 7cac 0F93      		push r16
 21812 7cae 1F93      		push r17
 21813 7cb0 CF93      		push r28
 21814 7cb2 DF93      		push r29
 21815               	/* prologue: function */
 21816               	/* frame size = 0 */
 21817               	.LM2457:
 21818 7cb4 0E94 0000 		call Wifi_ClearBuffer
 21819               	.LVL1559:
 21820               	.LM2458:
 21821 7cb8 80E0      		ldi r24,lo8(.LC74)
 21822 7cba 90E0      		ldi r25,hi8(.LC74)
 21823 7cbc 60E0      		ldi r22,lo8(.LC75)
 21824 7cbe 70E0      		ldi r23,hi8(.LC75)
 21825 7cc0 AB01      		movw r20,r22
 21826 7cc2 24EF      		ldi r18,lo8(500)
 21827 7cc4 31E0      		ldi r19,hi8(500)
 21828 7cc6 0E94 0000 		call Wifi_SendCommand
 21829               	.LBB1094:
 21830               	.LBB1095:
 21831               	.LBB1096:
 21832               	.LBB1097:
 21833               	.LM2459:
 21834 7cca 80E0      		ldi r24,lo8(-28672)
 21835 7ccc 90E9      		ldi r25,hi8(-28672)
 21836               	.LVL1560:
 21837               	/* #APP */
 21838               	 ;  105 "/usr/local/CrossPack-AVR-20100115/lib/gcc/avr/4.3.3/../../../../avr/include/util/delay_bas
 21839 7cce 0197      		1: sbiw r24,1
 21840 7cd0 01F4      		brne 1b
 21841               	 ;  0 "" 2
 21842               	/* #NOAPP */
 21843 7cd2 C0E0      		ldi r28,lo8(string)
 21844 7cd4 D0E0      		ldi r29,hi8(string)
 21845 7cd6 10E0      		ldi r17,lo8(0)
 21846               	.LVL1561:
 21847 7cd8 00C0      		rjmp .L1319
 21848               	.LVL1562:
 21849               	.L1321:
 21850               	.LBE1097:
 21851               	.LBE1096:
 21852               	.LBE1095:
 21853               	.LBE1094:
 21854               	.LM2460:
 21855 7cda 1233      		cpi r17,lo8(50)
 21856 7cdc 01F0      		breq .L1328
 21857               	.LM2461:
 21858 7cde 80E0      		ldi r24,lo8(0)
 21859 7ce0 0E94 0000 		call Wifi_GetByte
 21860 7ce4 8993      		st Y+,r24
 21861               	.LM2462:
 21862 7ce6 1F5F      		subi r17,lo8(-(1))
 21863               	.LVL1563:
 21864               	.L1319:
 21865               	.LM2463:
 21866 7ce8 0E94 0000 		call Wifi_CharReadyToRead
 21867               	.LVL1564:
 21868 7cec 8823      		tst r24
 21869 7cee 01F4      		brne .L1321
 21870               	.L1328:
 21871               	.LBB1098:
 21872               	.LBB1099:
 21873               	.LM2464:
 21874 7cf0 8091 A108 		lds r24,2209
 21875 7cf4 85FF      		sbrs r24,5
 21876 7cf6 00C0      		rjmp .L1328
 21877               	.LM2465:
 21878 7cf8 8DE0      		ldi r24,lo8(13)
 21879 7cfa 8093 A008 		sts 2208,r24
 21880               	.LBE1099:
 21881               	.LBE1098:
 21882               	.LM2466:
 21883 7cfe 1430      		cpi r17,lo8(4)
 21884 7d00 00F4      		brsh .L1322
 21885               	.LM2467:
 21886 7d02 1092 0000 		sts time_secs,__zero_reg__
 21887 7d06 1092 0000 		sts (time_secs)+1,__zero_reg__
 21888 7d0a 1092 0000 		sts (time_secs)+2,__zero_reg__
 21889 7d0e 1092 0000 		sts (time_secs)+3,__zero_reg__
 21890 7d12 00C0      		rjmp .L1332
 21891               	.L1322:
 21892               	.LM2468:
 21893 7d14 8091 0000 		lds r24,string
 21894 7d18 8E34      		cpi r24,lo8(78)
 21895 7d1a 01F4      		brne .L1324
 21896               	.L1332:
 21897 7d1c 80E0      		ldi r24,lo8(0)
 21898 7d1e 00C0      		rjmp .L1323
 21899               	.L1324:
 21900               	.LM2469:
 21901 7d20 80E0      		ldi r24,lo8(string)
 21902 7d22 90E0      		ldi r25,hi8(string)
 21903 7d24 60E0      		ldi r22,lo8(.LC32)
 21904 7d26 70E0      		ldi r23,hi8(.LC32)
 21905 7d28 0E94 0000 		call strtok
 21906               	.LM2470:
 21907 7d2c 80E0      		ldi r24,lo8(0)
 21908 7d2e 90E0      		ldi r25,hi8(0)
 21909 7d30 60E0      		ldi r22,lo8(.LC32)
 21910 7d32 70E0      		ldi r23,hi8(.LC32)
 21911 7d34 0E94 0000 		call strtok
 21912               	.LM2471:
 21913 7d38 80E0      		ldi r24,lo8(0)
 21914 7d3a 90E0      		ldi r25,hi8(0)
 21915 7d3c 60E0      		ldi r22,lo8(.LC76)
 21916 7d3e 70E0      		ldi r23,hi8(.LC76)
 21917 7d40 0E94 0000 		call strtok
 21918 7d44 BC01      		movw r22,r24
 21919 7d46 80E0      		ldi r24,lo8(timeString)
 21920 7d48 90E0      		ldi r25,hi8(timeString)
 21921 7d4a 0E94 0000 		call strcpy
 21922 7d4e 20E0      		ldi r18,lo8(0)
 21923 7d50 30E0      		ldi r19,hi8(0)
 21924               	.L1325:
 21925               	.LBB1100:
 21926               	.LM2472:
 21927 7d52 F901      		movw r30,r18
 21928 7d54 E050      		subi r30,lo8(-(timeUpper))
 21929 7d56 F040      		sbci r31,hi8(-(timeUpper))
 21930 7d58 D901      		movw r26,r18
 21931 7d5a A050      		subi r26,lo8(-(timeString))
 21932 7d5c B040      		sbci r27,hi8(-(timeString))
 21933 7d5e 8C91      		ld r24,X
 21934 7d60 8083      		st Z,r24
 21935 7d62 2F5F      		subi r18,lo8(-(1))
 21936 7d64 3F4F      		sbci r19,hi8(-(1))
 21937               	.LM2473:
 21938 7d66 2830      		cpi r18,8
 21939 7d68 3105      		cpc r19,__zero_reg__
 21940 7d6a 01F4      		brne .L1325
 21941 7d6c A0E0      		ldi r26,lo8(timeString+8)
 21942 7d6e B0E0      		ldi r27,hi8(timeString+8)
 21943 7d70 20E0      		ldi r18,lo8(0)
 21944 7d72 30E0      		ldi r19,hi8(0)
 21945               	.L1326:
 21946               	.LBE1100:
 21947               	.LBB1101:
 21948               	.LM2474:
 21949 7d74 8D91      		ld r24,X+
 21950 7d76 F901      		movw r30,r18
 21951 7d78 E050      		subi r30,lo8(-(timeLower))
 21952 7d7a F040      		sbci r31,hi8(-(timeLower))
 21953 7d7c 8083      		st Z,r24
 21954 7d7e 2F5F      		subi r18,lo8(-(1))
 21955 7d80 3F4F      		sbci r19,hi8(-(1))
 21956               	.LM2475:
 21957 7d82 2530      		cpi r18,5
 21958 7d84 3105      		cpc r19,__zero_reg__
 21959 7d86 01F4      		brne .L1326
 21960               	.LBE1101:
 21961               	.LM2476:
 21962 7d88 80E0      		ldi r24,lo8(timeUpper)
 21963 7d8a 90E0      		ldi r25,hi8(timeUpper)
 21964 7d8c 0E94 0000 		call atol
 21965 7d90 9B01      		movw r18,r22
 21966 7d92 AC01      		movw r20,r24
 21967               	.LM2477:
 21968 7d94 205A      		subi r18,lo8(-(-22089888))
 21969 7d96 3041      		sbci r19,hi8(-(-22089888))
 21970 7d98 4145      		sbci r20,hlo8(-(-22089888))
 21971 7d9a 5140      		sbci r21,hhi8(-(-22089888))
 21972               	.LVL1565:
 21973               	.LM2478:
 21974 7d9c CA01      		movw r24,r20
 21975 7d9e B901      		movw r22,r18
 21976 7da0 24E6      		ldi r18,lo8(100)
 21977 7da2 30E0      		ldi r19,hi8(100)
 21978 7da4 40E0      		ldi r20,hlo8(100)
 21979 7da6 50E0      		ldi r21,hhi8(100)
 21980               	.LVL1566:
 21981 7da8 0E94 0000 		call __mulsi3
 21982               	.LM2479:
 21983 7dac E091 0000 		lds r30,timeLower
 21984               	.LM2480:
 21985 7db0 2091 0000 		lds r18,timeLower+1
 21986               	.LM2481:
 21987 7db4 30E0      		ldi r19,lo8(0)
 21988 7db6 2053      		subi r18,lo8(-(-48))
 21989 7db8 3040      		sbci r19,hi8(-(-48))
 21990 7dba 4427      		clr r20
 21991 7dbc 37FD      		sbrc r19,7
 21992 7dbe 4095      		com r20
 21993 7dc0 542F      		mov r21,r20
 21994 7dc2 260F      		add r18,r22
 21995 7dc4 371F      		adc r19,r23
 21996 7dc6 481F      		adc r20,r24
 21997 7dc8 591F      		adc r21,r25
 21998               	.LVL1567:
 21999               	.LM2482:
 22000 7dca 8AE0      		ldi r24,lo8(10)
 22001 7dcc E89F      		mul r30,r24
 22002 7dce C001      		movw r24,r0
 22003 7dd0 1124      		clr r1
 22004 7dd2 805E      		subi r24,lo8(-(-480))
 22005 7dd4 9140      		sbci r25,hi8(-(-480))
 22006 7dd6 7C01      		movw r14,r24
 22007 7dd8 0027      		clr r16
 22008 7dda F7FC      		sbrc r15,7
 22009 7ddc 0095      		com r16
 22010 7dde 102F      		mov r17,r16
 22011 7de0 2E0D      		add r18,r14
 22012 7de2 3F1D      		adc r19,r15
 22013 7de4 401F      		adc r20,r16
 22014 7de6 511F      		adc r21,r17
 22015               	.LM2483:
 22016 7de8 2093 0000 		sts time_secs,r18
 22017 7dec 3093 0000 		sts (time_secs)+1,r19
 22018 7df0 4093 0000 		sts (time_secs)+2,r20
 22019 7df4 5093 0000 		sts (time_secs)+3,r21
 22020 7df8 81E0      		ldi r24,lo8(1)
 22021               	.L1323:
 22022               	/* epilogue start */
 22023               	.LM2484:
 22024 7dfa DF91      		pop r29
 22025 7dfc CF91      		pop r28
 22026 7dfe 1F91      		pop r17
 22027               	.LVL1568:
 22028 7e00 0F91      		pop r16
 22029 7e02 FF90      		pop r15
 22030 7e04 EF90      		pop r14
 22031 7e06 0895      		ret
 22032               	.LFE22:
 22034               		.data
 22035               	.LC77:
 22036 0406 6661 6374 		.string	"factory RESET"
 22036      6F72 7920 
 22036      5245 5345 
 22036      5400 
 22037               	.LC78:
 22038 0414 5365 7420 		.string	"Set Factory Defaults"
 22038      4661 6374 
 22038      6F72 7920 
 22038      4465 6661 
 22038      756C 7473 
 22039               	.LC79:
 22040 0429 7265 7365 		.string	"reset..........OK"
 22040      742E 2E2E 
 22040      2E2E 2E2E 
 22040      2E2E 2E4F 
 22040      4B00 
 22041               	.LC80:
 22042 043b 7265 7365 		.string	"reset........FAIL"
 22042      742E 2E2E 
 22042      2E2E 2E2E 
 22042      2E46 4149 
 22042      4C00 
 22043               	.LC81:
 22044 044d 7365 7420 		.string	"set sys iofunc 0x10"
 22044      7379 7320 
 22044      696F 6675 
 22044      6E63 2030 
 22044      7831 3000 
 22045               	.LC82:
 22046 0461 414F 4B00 		.string	"AOK"
 22047               	.LC83:
 22048 0465 7361 7665 		.string	"save"
 22048      00
 22049               	.LC84:
 22050 046a 5374 6F72 		.string	"Storing in config"
 22050      696E 6720 
 22050      696E 2063 
 22050      6F6E 6669 
 22050      6700 
 22051               	.LC85:
 22052 047c 7265 626F 		.string	"reboot"
 22052      6F74 00
 22053               	.LC86:
 22054 0483 2A52 6562 		.string	"*Reboot*"
 22054      6F6F 742A 
 22054      00
 22055               	.LC87:
 22056 048c 7365 7420 		.string	"set uart instant 115200"
 22056      7561 7274 
 22056      2069 6E73 
 22056      7461 6E74 
 22056      2031 3135 
 22057               	.LC88:
 22058 04a4 7365 7420 		.string	"set comm remote 0"
 22058      636F 6D6D 
 22058      2072 656D 
 22058      6F74 6520 
 22058      3000 
 22059               	.LC89:
 22060 04b6 7365 7420 		.string	"set comm open 0"
 22060      636F 6D6D 
 22060      206F 7065 
 22060      6E20 3000 
 22061               	.LC90:
 22062 04c6 7365 7420 		.string	"set comm close AOK"
 22062      636F 6D6D 
 22062      2063 6C6F 
 22062      7365 2041 
 22062      4F4B 00
 22063               	.LC91:
 22064 04d9 7365 7420 		.string	"set time enable 1"
 22064      7469 6D65 
 22064      2065 6E61 
 22064      626C 6520 
 22064      3100 
 22065               	.LC92:
 22066 04eb 656E 6162 		.string	"enable time....OK"
 22066      6C65 2074 
 22066      696D 652E 
 22066      2E2E 2E4F 
 22066      4B00 
 22067               	.LC93:
 22068 04fd 656E 6162 		.string	"enable time..FAIL"
 22068      6C65 2074 
 22068      696D 652E 
 22068      2E46 4149 
 22068      4C00 
 22069               	.LC94:
 22070 050f 656E 6372 		.string	"encryption.....OK"
 22070      7970 7469 
 22070      6F6E 2E2E 
 22070      2E2E 2E4F 
 22070      4B00 
 22071               	.LC95:
 22072 0521 656E 6372 		.string	"encryption...FAIL"
 22072      7970 7469 
 22072      6F6E 2E2E 
 22072      2E46 4149 
 22072      4C00 
 22073               	.LC96:
 22074 0533 7068 7261 		.string	"phrase.........OK"
 22074      7365 2E2E 
 22074      2E2E 2E2E 
 22074      2E2E 2E4F 
 22074      4B00 
 22075               	.LC97:
 22076 0545 7068 7261 		.string	"phrase.......FAIL"
 22076      7365 2E2E 
 22076      2E2E 2E2E 
 22076      2E46 4149 
 22076      4C00 
 22077               	.LC98:
 22078 0557 6B65 792E 		.string	"key............OK"
 22078      2E2E 2E2E 
 22078      2E2E 2E2E 
 22078      2E2E 2E4F 
 22078      4B00 
 22079               	.LC99:
 22080 0569 6B65 792E 		.string	"key..........FAIL"
 22080      2E2E 2E2E 
 22080      2E2E 2E2E 
 22080      2E46 4149 
 22080      4C00 
 22081               	.LC100:
 22082 057b 706F 7274 		.string	"port...........OK"
 22082      2E2E 2E2E 
 22082      2E2E 2E2E 
 22082      2E2E 2E4F 
 22082      4B00 
 22083               	.LC101:
 22084 058d 706F 7274 		.string	"port.........FAIL"
 22084      2E2E 2E2E 
 22084      2E2E 2E2E 
 22084      2E46 4149 
 22084      4C00 
 22085               	.LC102:
 22086 059f 4465 4175 		.string	"DeAut"
 22086      7400 
 22087               	.LC103:
 22088 05a5 4175 746F 		.string	"Auto+"
 22088      2B00 
 22089               	.LC104:
 22090 05ab 7373 6964 		.string	"ssid...........OK"
 22090      2E2E 2E2E 
 22090      2E2E 2E2E 
 22090      2E2E 2E4F 
 22090      4B00 
 22091               	.LC105:
 22092 05bd 7373 6964 		.string	"ssid.........FAIL"
 22092      2E2E 2E2E 
 22092      2E2E 2E2E 
 22092      2E46 4149 
 22092      4C00 
 22093               	.LC106:
 22094 05cf 6765 7420 		.string	"get time"
 22094      7469 6D65 
 22094      00
 22095               	.LC107:
 22096 05d8 5469 6D65 		.string	"TimeEna=1"
 22096      456E 613D 
 22096      3100 
 22097               	.LC108:
 22098 05e2 6E65 7477 		.string	"network........OK"
 22098      6F72 6B2E 
 22098      2E2E 2E2E 
 22098      2E2E 2E4F 
 22098      4B00 
 22099               	.LC109:
 22100 05f4 6E65 7477 		.string	"network......FAIL"
 22100      6F72 6B2E 
 22100      2E2E 2E2E 
 22100      2E46 4149 
 22100      4C00 
 22101               	.LC110:
 22102 0606 696E 7465 		.string	"internet.......OK"
 22102      726E 6574 
 22102      2E2E 2E2E 
 22102      2E2E 2E4F 
 22102      4B00 
 22103               	.LC111:
 22104 0618 696E 7465 		.string	"internet.....FAIL"
 22104      726E 6574 
 22104      2E2E 2E2E 
 22104      2E46 4149 
 22104      4C00 
 22105               		.text
 22106               	.global	Config_Wifi
 22108               	Config_Wifi:
 22109               	.LFB176:
 22110               	.LM2485:
 22111 7e08 1F93      		push r17
 22112               	/* prologue: function */
 22113               	/* frame size = 0 */
 22114               	.LM2486:
 22115 7e0a 0E94 0000 		call Wifi_ClearBuffer
 22116               	.LM2487:
 22117 7e0e 88EE      		ldi r24,lo8(1000)
 22118 7e10 93E0      		ldi r25,hi8(1000)
 22119 7e12 0E94 0000 		call Wifi_EnterCMDMode
 22120 7e16 80E1      		ldi r24,lo8(10000)
 22121 7e18 97E2      		ldi r25,hi8(10000)
 22122               	.LVL1569:
 22123               	.LBB1102:
 22124               	.LBB1103:
 22125               	.LBB1104:
 22126               	.LBB1105:
 22127               	.LM2488:
 22128 7e1a 20E7      		ldi r18,lo8(368)
 22129 7e1c 31E0      		ldi r19,hi8(368)
 22130               	.L1334:
 22131 7e1e F901      		movw r30,r18
 22132               	.LVL1570:
 22133               	/* #APP */
 22134               	 ;  105 "/usr/local/CrossPack-AVR-20100115/lib/gcc/avr/4.3.3/../../../../avr/include/util/delay_bas
 22135 7e20 3197      		1: sbiw r30,1
 22136 7e22 01F4      		brne 1b
 22137               	 ;  0 "" 2
 22138               	/* #NOAPP */
 22139               	.LBE1105:
 22140               	.LBE1104:
 22141               	.LM2489:
 22142 7e24 0197      		sbiw r24,1
 22143               	.LM2490:
 22144 7e26 01F4      		brne .L1334
 22145               	.LBE1103:
 22146               	.LBE1102:
 22147               	.LM2491:
 22148 7e28 0E94 0000 		call display_clearBuffer
 22149               	.LVL1571:
 22150               	.LM2492:
 22151 7e2c 0E94 0000 		call display_writeBufferToScreen
 22152               	.LM2493:
 22153 7e30 80E0      		ldi r24,lo8(.LC77)
 22154 7e32 90E0      		ldi r25,hi8(.LC77)
 22155 7e34 60E0      		ldi r22,lo8(.LC78)
 22156 7e36 70E0      		ldi r23,hi8(.LC78)
 22157 7e38 AB01      		movw r20,r22
 22158 7e3a 24EF      		ldi r18,lo8(500)
 22159 7e3c 31E0      		ldi r19,hi8(500)
 22160 7e3e 0E94 0000 		call Wifi_SendCommand
 22161 7e42 8823      		tst r24
 22162 7e44 01F0      		breq .L1335
 22163               	.LM2494:
 22164 7e46 80E0      		ldi r24,lo8(.LC79)
 22165 7e48 90E0      		ldi r25,hi8(.LC79)
 22166 7e4a 00C0      		rjmp .L1400
 22167               	.L1335:
 22168               	.LM2495:
 22169 7e4c 80E0      		ldi r24,lo8(.LC80)
 22170 7e4e 90E0      		ldi r25,hi8(.LC80)
 22171               	.L1400:
 22172 7e50 60E0      		ldi r22,lo8(0)
 22173 7e52 40E0      		ldi r20,lo8(0)
 22174 7e54 20E0      		ldi r18,lo8(System5x7)
 22175 7e56 30E0      		ldi r19,hi8(System5x7)
 22176 7e58 0E94 0000 		call display_putString
 22177               	.LM2496:
 22178 7e5c 0E94 0000 		call display_writeBufferToScreen
 22179 7e60 80E1      		ldi r24,lo8(10000)
 22180 7e62 97E2      		ldi r25,hi8(10000)
 22181               	.LVL1572:
 22182               	.LBB1106:
 22183               	.LBB1107:
 22184               	.LBB1108:
 22185               	.LBB1109:
 22186               	.LM2497:
 22187 7e64 20E7      		ldi r18,lo8(368)
 22188 7e66 31E0      		ldi r19,hi8(368)
 22189               	.L1337:
 22190 7e68 F901      		movw r30,r18
 22191               	.LVL1573:
 22192               	/* #APP */
 22193               	 ;  105 "/usr/local/CrossPack-AVR-20100115/lib/gcc/avr/4.3.3/../../../../avr/include/util/delay_bas
 22194 7e6a 3197      		1: sbiw r30,1
 22195 7e6c 01F4      		brne 1b
 22196               	 ;  0 "" 2
 22197               	/* #NOAPP */
 22198               	.LBE1109:
 22199               	.LBE1108:
 22200               	.LM2498:
 22201 7e6e 0197      		sbiw r24,1
 22202               	.LM2499:
 22203 7e70 01F4      		brne .L1337
 22204               	.LBE1107:
 22205               	.LBE1106:
 22206               	.LM2500:
 22207 7e72 8091 0000 		lds r24,needToChangeBaud
 22208               	.LVL1574:
 22209 7e76 8823      		tst r24
 22210 7e78 01F4      		brne .+2
 22211 7e7a 00C0      		rjmp .L1338
 22212               	.LM2501:
 22213 7e7c 80E0      		ldi r24,lo8(.LC81)
 22214 7e7e 90E0      		ldi r25,hi8(.LC81)
 22215 7e80 60E0      		ldi r22,lo8(.LC82)
 22216 7e82 70E0      		ldi r23,hi8(.LC82)
 22217 7e84 AB01      		movw r20,r22
 22218 7e86 24EF      		ldi r18,lo8(500)
 22219 7e88 31E0      		ldi r19,hi8(500)
 22220 7e8a 0E94 0000 		call Wifi_SendCommand
 22221               	.LVL1575:
 22222 7e8e 80E1      		ldi r24,lo8(10000)
 22223 7e90 97E2      		ldi r25,hi8(10000)
 22224               	.LVL1576:
 22225               	.LBB1110:
 22226               	.LBB1111:
 22227               	.LBB1112:
 22228               	.LBB1113:
 22229               	.LM2502:
 22230 7e92 20E7      		ldi r18,lo8(368)
 22231 7e94 31E0      		ldi r19,hi8(368)
 22232               	.L1339:
 22233 7e96 F901      		movw r30,r18
 22234               	.LVL1577:
 22235               	/* #APP */
 22236               	 ;  105 "/usr/local/CrossPack-AVR-20100115/lib/gcc/avr/4.3.3/../../../../avr/include/util/delay_bas
 22237 7e98 3197      		1: sbiw r30,1
 22238 7e9a 01F4      		brne 1b
 22239               	 ;  0 "" 2
 22240               	/* #NOAPP */
 22241               	.LBE1113:
 22242               	.LBE1112:
 22243               	.LM2503:
 22244 7e9c 0197      		sbiw r24,1
 22245               	.LM2504:
 22246 7e9e 01F4      		brne .L1339
 22247               	.LBE1111:
 22248               	.LBE1110:
 22249               	.LM2505:
 22250 7ea0 80E0      		ldi r24,lo8(.LC83)
 22251 7ea2 90E0      		ldi r25,hi8(.LC83)
 22252               	.LVL1578:
 22253 7ea4 60E0      		ldi r22,lo8(.LC84)
 22254 7ea6 70E0      		ldi r23,hi8(.LC84)
 22255 7ea8 AB01      		movw r20,r22
 22256 7eaa 24EF      		ldi r18,lo8(500)
 22257 7eac 31E0      		ldi r19,hi8(500)
 22258 7eae 0E94 0000 		call Wifi_SendCommand
 22259               	.LVL1579:
 22260 7eb2 80E1      		ldi r24,lo8(10000)
 22261 7eb4 97E2      		ldi r25,hi8(10000)
 22262               	.LVL1580:
 22263               	.LBB1114:
 22264               	.LBB1115:
 22265               	.LBB1116:
 22266               	.LBB1117:
 22267               	.LM2506:
 22268 7eb6 20E7      		ldi r18,lo8(368)
 22269 7eb8 31E0      		ldi r19,hi8(368)
 22270               	.L1340:
 22271 7eba F901      		movw r30,r18
 22272               	.LVL1581:
 22273               	/* #APP */
 22274               	 ;  105 "/usr/local/CrossPack-AVR-20100115/lib/gcc/avr/4.3.3/../../../../avr/include/util/delay_bas
 22275 7ebc 3197      		1: sbiw r30,1
 22276 7ebe 01F4      		brne 1b
 22277               	 ;  0 "" 2
 22278               	/* #NOAPP */
 22279               	.LBE1117:
 22280               	.LBE1116:
 22281               	.LM2507:
 22282 7ec0 0197      		sbiw r24,1
 22283               	.LM2508:
 22284 7ec2 01F4      		brne .L1340
 22285               	.LBE1115:
 22286               	.LBE1114:
 22287               	.LM2509:
 22288 7ec4 80E0      		ldi r24,lo8(.LC85)
 22289 7ec6 90E0      		ldi r25,hi8(.LC85)
 22290               	.LVL1582:
 22291 7ec8 60E0      		ldi r22,lo8(.LC86)
 22292 7eca 70E0      		ldi r23,hi8(.LC86)
 22293 7ecc AB01      		movw r20,r22
 22294 7ece 24EF      		ldi r18,lo8(500)
 22295 7ed0 31E0      		ldi r19,hi8(500)
 22296 7ed2 0E94 0000 		call Wifi_SendCommand
 22297               	.LVL1583:
 22298 7ed6 80E1      		ldi r24,lo8(10000)
 22299 7ed8 97E2      		ldi r25,hi8(10000)
 22300               	.LVL1584:
 22301               	.LBB1118:
 22302               	.LBB1119:
 22303               	.LBB1120:
 22304               	.LBB1121:
 22305               	.LM2510:
 22306 7eda 20E7      		ldi r18,lo8(368)
 22307 7edc 31E0      		ldi r19,hi8(368)
 22308               	.L1341:
 22309 7ede F901      		movw r30,r18
 22310               	.LVL1585:
 22311               	/* #APP */
 22312               	 ;  105 "/usr/local/CrossPack-AVR-20100115/lib/gcc/avr/4.3.3/../../../../avr/include/util/delay_bas
 22313 7ee0 3197      		1: sbiw r30,1
 22314 7ee2 01F4      		brne 1b
 22315               	 ;  0 "" 2
 22316               	/* #NOAPP */
 22317               	.LBE1121:
 22318               	.LBE1120:
 22319               	.LM2511:
 22320 7ee4 0197      		sbiw r24,1
 22321               	.LM2512:
 22322 7ee6 01F4      		brne .L1341
 22323               	.LBE1119:
 22324               	.LBE1118:
 22325               	.LM2513:
 22326 7ee8 0E94 0000 		call Wifi_ClearBuffer
 22327               	.LVL1586:
 22328               	.LM2514:
 22329 7eec 88EE      		ldi r24,lo8(1000)
 22330 7eee 93E0      		ldi r25,hi8(1000)
 22331 7ef0 0E94 0000 		call Wifi_EnterCMDMode
 22332 7ef4 80E1      		ldi r24,lo8(10000)
 22333 7ef6 97E2      		ldi r25,hi8(10000)
 22334               	.LVL1587:
 22335               	.LBB1122:
 22336               	.LBB1123:
 22337               	.LBB1124:
 22338               	.LBB1125:
 22339               	.LM2515:
 22340 7ef8 20E7      		ldi r18,lo8(368)
 22341 7efa 31E0      		ldi r19,hi8(368)
 22342               	.L1342:
 22343 7efc F901      		movw r30,r18
 22344               	.LVL1588:
 22345               	/* #APP */
 22346               	 ;  105 "/usr/local/CrossPack-AVR-20100115/lib/gcc/avr/4.3.3/../../../../avr/include/util/delay_bas
 22347 7efe 3197      		1: sbiw r30,1
 22348 7f00 01F4      		brne 1b
 22349               	 ;  0 "" 2
 22350               	/* #NOAPP */
 22351               	.LBE1125:
 22352               	.LBE1124:
 22353               	.LM2516:
 22354 7f02 0197      		sbiw r24,1
 22355               	.LM2517:
 22356 7f04 01F4      		brne .L1342
 22357               	.LBE1123:
 22358               	.LBE1122:
 22359               	.LM2518:
 22360 7f06 80E0      		ldi r24,lo8(.LC87)
 22361 7f08 90E0      		ldi r25,hi8(.LC87)
 22362               	.LVL1589:
 22363 7f0a 60E0      		ldi r22,lo8(.LC82)
 22364 7f0c 70E0      		ldi r23,hi8(.LC82)
 22365 7f0e AB01      		movw r20,r22
 22366 7f10 24EF      		ldi r18,lo8(500)
 22367 7f12 31E0      		ldi r19,hi8(500)
 22368 7f14 0E94 0000 		call Wifi_SendCommand
 22369               	.LVL1590:
 22370               	.LM2519:
 22371 7f18 60E0      		ldi r22,lo8(115200)
 22372 7f1a 72EC      		ldi r23,hi8(115200)
 22373 7f1c 81E0      		ldi r24,hlo8(115200)
 22374 7f1e 90E0      		ldi r25,hhi8(115200)
 22375 7f20 0E94 0000 		call Wifi_Init
 22376 7f24 80E1      		ldi r24,lo8(10000)
 22377 7f26 97E2      		ldi r25,hi8(10000)
 22378               	.LVL1591:
 22379               	.LBB1126:
 22380               	.LBB1127:
 22381               	.LBB1128:
 22382               	.LBB1129:
 22383               	.LM2520:
 22384 7f28 20E7      		ldi r18,lo8(368)
 22385 7f2a 31E0      		ldi r19,hi8(368)
 22386               	.L1343:
 22387 7f2c F901      		movw r30,r18
 22388               	.LVL1592:
 22389               	/* #APP */
 22390               	 ;  105 "/usr/local/CrossPack-AVR-20100115/lib/gcc/avr/4.3.3/../../../../avr/include/util/delay_bas
 22391 7f2e 3197      		1: sbiw r30,1
 22392 7f30 01F4      		brne 1b
 22393               	 ;  0 "" 2
 22394               	/* #NOAPP */
 22395               	.LBE1129:
 22396               	.LBE1128:
 22397               	.LM2521:
 22398 7f32 0197      		sbiw r24,1
 22399               	.LM2522:
 22400 7f34 01F4      		brne .L1343
 22401               	.LBE1127:
 22402               	.LBE1126:
 22403               	.LM2523:
 22404 7f36 1092 0000 		sts needToChangeBaud,__zero_reg__
 22405               	.LVL1593:
 22406               	.L1338:
 22407               	.LM2524:
 22408 7f3a 88EE      		ldi r24,lo8(1000)
 22409 7f3c 93E0      		ldi r25,hi8(1000)
 22410               	.LVL1594:
 22411 7f3e 0E94 0000 		call Wifi_EnterCMDMode
 22412               	.LVL1595:
 22413               	.LM2525:
 22414 7f42 80E0      		ldi r24,lo8(.LC88)
 22415 7f44 90E0      		ldi r25,hi8(.LC88)
 22416 7f46 60E0      		ldi r22,lo8(.LC82)
 22417 7f48 70E0      		ldi r23,hi8(.LC82)
 22418 7f4a AB01      		movw r20,r22
 22419 7f4c 24EF      		ldi r18,lo8(500)
 22420 7f4e 31E0      		ldi r19,hi8(500)
 22421 7f50 0E94 0000 		call Wifi_SendCommand
 22422 7f54 80E1      		ldi r24,lo8(10000)
 22423 7f56 97E2      		ldi r25,hi8(10000)
 22424               	.LVL1596:
 22425               	.LBB1130:
 22426               	.LBB1131:
 22427               	.LBB1132:
 22428               	.LBB1133:
 22429               	.LM2526:
 22430 7f58 20E7      		ldi r18,lo8(368)
 22431 7f5a 31E0      		ldi r19,hi8(368)
 22432               	.L1344:
 22433 7f5c F901      		movw r30,r18
 22434               	.LVL1597:
 22435               	/* #APP */
 22436               	 ;  105 "/usr/local/CrossPack-AVR-20100115/lib/gcc/avr/4.3.3/../../../../avr/include/util/delay_bas
 22437 7f5e 3197      		1: sbiw r30,1
 22438 7f60 01F4      		brne 1b
 22439               	 ;  0 "" 2
 22440               	/* #NOAPP */
 22441               	.LBE1133:
 22442               	.LBE1132:
 22443               	.LM2527:
 22444 7f62 0197      		sbiw r24,1
 22445               	.LM2528:
 22446 7f64 01F4      		brne .L1344
 22447               	.LBE1131:
 22448               	.LBE1130:
 22449               	.LM2529:
 22450 7f66 80E0      		ldi r24,lo8(.LC89)
 22451 7f68 90E0      		ldi r25,hi8(.LC89)
 22452               	.LVL1598:
 22453 7f6a 60E0      		ldi r22,lo8(.LC82)
 22454 7f6c 70E0      		ldi r23,hi8(.LC82)
 22455 7f6e AB01      		movw r20,r22
 22456 7f70 24EF      		ldi r18,lo8(500)
 22457 7f72 31E0      		ldi r19,hi8(500)
 22458 7f74 0E94 0000 		call Wifi_SendCommand
 22459               	.LVL1599:
 22460 7f78 80E1      		ldi r24,lo8(10000)
 22461 7f7a 97E2      		ldi r25,hi8(10000)
 22462               	.LVL1600:
 22463               	.LBB1134:
 22464               	.LBB1135:
 22465               	.LBB1136:
 22466               	.LBB1137:
 22467               	.LM2530:
 22468 7f7c 20E7      		ldi r18,lo8(368)
 22469 7f7e 31E0      		ldi r19,hi8(368)
 22470               	.L1345:
 22471 7f80 F901      		movw r30,r18
 22472               	.LVL1601:
 22473               	/* #APP */
 22474               	 ;  105 "/usr/local/CrossPack-AVR-20100115/lib/gcc/avr/4.3.3/../../../../avr/include/util/delay_bas
 22475 7f82 3197      		1: sbiw r30,1
 22476 7f84 01F4      		brne 1b
 22477               	 ;  0 "" 2
 22478               	/* #NOAPP */
 22479               	.LBE1137:
 22480               	.LBE1136:
 22481               	.LM2531:
 22482 7f86 0197      		sbiw r24,1
 22483               	.LM2532:
 22484 7f88 01F4      		brne .L1345
 22485               	.LBE1135:
 22486               	.LBE1134:
 22487               	.LM2533:
 22488 7f8a 80E0      		ldi r24,lo8(.LC90)
 22489 7f8c 90E0      		ldi r25,hi8(.LC90)
 22490               	.LVL1602:
 22491 7f8e 60E0      		ldi r22,lo8(.LC82)
 22492 7f90 70E0      		ldi r23,hi8(.LC82)
 22493 7f92 AB01      		movw r20,r22
 22494 7f94 24EF      		ldi r18,lo8(500)
 22495 7f96 31E0      		ldi r19,hi8(500)
 22496 7f98 0E94 0000 		call Wifi_SendCommand
 22497               	.LVL1603:
 22498 7f9c 80E1      		ldi r24,lo8(10000)
 22499 7f9e 97E2      		ldi r25,hi8(10000)
 22500               	.LVL1604:
 22501               	.LBB1138:
 22502               	.LBB1139:
 22503               	.LBB1140:
 22504               	.LBB1141:
 22505               	.LM2534:
 22506 7fa0 20E7      		ldi r18,lo8(368)
 22507 7fa2 31E0      		ldi r19,hi8(368)
 22508               	.L1346:
 22509 7fa4 F901      		movw r30,r18
 22510               	.LVL1605:
 22511               	/* #APP */
 22512               	 ;  105 "/usr/local/CrossPack-AVR-20100115/lib/gcc/avr/4.3.3/../../../../avr/include/util/delay_bas
 22513 7fa6 3197      		1: sbiw r30,1
 22514 7fa8 01F4      		brne 1b
 22515               	 ;  0 "" 2
 22516               	/* #NOAPP */
 22517               	.LBE1141:
 22518               	.LBE1140:
 22519               	.LM2535:
 22520 7faa 0197      		sbiw r24,1
 22521               	.LM2536:
 22522 7fac 01F4      		brne .L1346
 22523               	.LBE1139:
 22524               	.LBE1138:
 22525               	.LM2537:
 22526 7fae 80E0      		ldi r24,lo8(.LC91)
 22527 7fb0 90E0      		ldi r25,hi8(.LC91)
 22528               	.LVL1606:
 22529 7fb2 60E0      		ldi r22,lo8(.LC82)
 22530 7fb4 70E0      		ldi r23,hi8(.LC82)
 22531 7fb6 AB01      		movw r20,r22
 22532 7fb8 24EF      		ldi r18,lo8(500)
 22533 7fba 31E0      		ldi r19,hi8(500)
 22534 7fbc 0E94 0000 		call Wifi_SendCommand
 22535               	.LVL1607:
 22536 7fc0 8823      		tst r24
 22537 7fc2 01F0      		breq .L1347
 22538               	.LM2538:
 22539 7fc4 80E0      		ldi r24,lo8(.LC92)
 22540 7fc6 90E0      		ldi r25,hi8(.LC92)
 22541 7fc8 00C0      		rjmp .L1401
 22542               	.L1347:
 22543               	.LM2539:
 22544 7fca 80E0      		ldi r24,lo8(.LC93)
 22545 7fcc 90E0      		ldi r25,hi8(.LC93)
 22546               	.L1401:
 22547 7fce 61E0      		ldi r22,lo8(1)
 22548 7fd0 40E0      		ldi r20,lo8(0)
 22549 7fd2 20E0      		ldi r18,lo8(System5x7)
 22550 7fd4 30E0      		ldi r19,hi8(System5x7)
 22551 7fd6 0E94 0000 		call display_putString
 22552               	.LM2540:
 22553 7fda 0E94 0000 		call display_writeBufferToScreen
 22554 7fde 80E1      		ldi r24,lo8(10000)
 22555 7fe0 97E2      		ldi r25,hi8(10000)
 22556               	.LVL1608:
 22557               	.LBB1142:
 22558               	.LBB1143:
 22559               	.LBB1144:
 22560               	.LBB1145:
 22561               	.LM2541:
 22562 7fe2 20E7      		ldi r18,lo8(368)
 22563 7fe4 31E0      		ldi r19,hi8(368)
 22564               	.L1349:
 22565 7fe6 F901      		movw r30,r18
 22566               	.LVL1609:
 22567               	/* #APP */
 22568               	 ;  105 "/usr/local/CrossPack-AVR-20100115/lib/gcc/avr/4.3.3/../../../../avr/include/util/delay_bas
 22569 7fe8 3197      		1: sbiw r30,1
 22570 7fea 01F4      		brne 1b
 22571               	 ;  0 "" 2
 22572               	/* #NOAPP */
 22573               	.LBE1145:
 22574               	.LBE1144:
 22575               	.LM2542:
 22576 7fec 0197      		sbiw r24,1
 22577               	.LM2543:
 22578 7fee 01F4      		brne .L1349
 22579               	.LBE1143:
 22580               	.LBE1142:
 22581               	.LM2544:
 22582 7ff0 8091 0000 		lds r24,authRead
 22583               	.LVL1610:
 22584 7ff4 8823      		tst r24
 22585 7ff6 01F4      		brne .L1350
 22586 7ff8 12E0      		ldi r17,lo8(2)
 22587               	.LVL1611:
 22588 7ffa 00C0      		rjmp .L1351
 22589               	.LVL1612:
 22590               	.L1350:
 22591               	.LM2545:
 22592 7ffc 80E0      		ldi r24,lo8(auth)
 22593 7ffe 90E0      		ldi r25,hi8(auth)
 22594 8000 60E0      		ldi r22,lo8(.LC82)
 22595 8002 70E0      		ldi r23,hi8(.LC82)
 22596 8004 AB01      		movw r20,r22
 22597 8006 24EF      		ldi r18,lo8(500)
 22598 8008 31E0      		ldi r19,hi8(500)
 22599 800a 0E94 0000 		call Wifi_SendCommand
 22600               	.LVL1613:
 22601 800e 8823      		tst r24
 22602 8010 01F0      		breq .L1352
 22603               	.LM2546:
 22604 8012 80E0      		ldi r24,lo8(.LC94)
 22605 8014 90E0      		ldi r25,hi8(.LC94)
 22606 8016 00C0      		rjmp .L1402
 22607               	.L1352:
 22608               	.LM2547:
 22609 8018 80E0      		ldi r24,lo8(.LC95)
 22610 801a 90E0      		ldi r25,hi8(.LC95)
 22611               	.L1402:
 22612 801c 62E0      		ldi r22,lo8(2)
 22613 801e 40E0      		ldi r20,lo8(0)
 22614 8020 20E0      		ldi r18,lo8(System5x7)
 22615 8022 30E0      		ldi r19,hi8(System5x7)
 22616 8024 0E94 0000 		call display_putString
 22617               	.LM2548:
 22618 8028 0E94 0000 		call display_writeBufferToScreen
 22619 802c 80E1      		ldi r24,lo8(10000)
 22620 802e 97E2      		ldi r25,hi8(10000)
 22621               	.LVL1614:
 22622               	.LBB1146:
 22623               	.LBB1147:
 22624               	.LBB1148:
 22625               	.LBB1149:
 22626               	.LM2549:
 22627 8030 20E7      		ldi r18,lo8(368)
 22628 8032 31E0      		ldi r19,hi8(368)
 22629               	.L1354:
 22630 8034 F901      		movw r30,r18
 22631               	.LVL1615:
 22632               	/* #APP */
 22633               	 ;  105 "/usr/local/CrossPack-AVR-20100115/lib/gcc/avr/4.3.3/../../../../avr/include/util/delay_bas
 22634 8036 3197      		1: sbiw r30,1
 22635 8038 01F4      		brne 1b
 22636               	 ;  0 "" 2
 22637               	/* #NOAPP */
 22638               	.LBE1149:
 22639               	.LBE1148:
 22640               	.LM2550:
 22641 803a 0197      		sbiw r24,1
 22642               	.LM2551:
 22643 803c 01F4      		brne .L1354
 22644 803e 13E0      		ldi r17,lo8(3)
 22645               	.LVL1616:
 22646               	.L1351:
 22647               	.LBE1147:
 22648               	.LBE1146:
 22649               	.LM2552:
 22650 8040 8091 0000 		lds r24,phraseRead
 22651               	.LVL1617:
 22652 8044 8823      		tst r24
 22653 8046 01F0      		breq .L1355
 22654               	.LM2553:
 22655 8048 80E0      		ldi r24,lo8(phrase)
 22656 804a 90E0      		ldi r25,hi8(phrase)
 22657 804c 60E0      		ldi r22,lo8(.LC82)
 22658 804e 70E0      		ldi r23,hi8(.LC82)
 22659 8050 AB01      		movw r20,r22
 22660 8052 24EF      		ldi r18,lo8(500)
 22661 8054 31E0      		ldi r19,hi8(500)
 22662 8056 0E94 0000 		call Wifi_SendCommand
 22663               	.LVL1618:
 22664 805a 8823      		tst r24
 22665 805c 01F0      		breq .L1356
 22666               	.LM2554:
 22667 805e 80E0      		ldi r24,lo8(.LC96)
 22668 8060 90E0      		ldi r25,hi8(.LC96)
 22669 8062 00C0      		rjmp .L1403
 22670               	.L1356:
 22671               	.LM2555:
 22672 8064 80E0      		ldi r24,lo8(.LC97)
 22673 8066 90E0      		ldi r25,hi8(.LC97)
 22674               	.L1403:
 22675 8068 612F      		mov r22,r17
 22676 806a 40E0      		ldi r20,lo8(0)
 22677 806c 20E0      		ldi r18,lo8(System5x7)
 22678 806e 30E0      		ldi r19,hi8(System5x7)
 22679 8070 0E94 0000 		call display_putString
 22680               	.LM2556:
 22681 8074 0E94 0000 		call display_writeBufferToScreen
 22682 8078 80E1      		ldi r24,lo8(10000)
 22683 807a 97E2      		ldi r25,hi8(10000)
 22684               	.LVL1619:
 22685               	.LBB1150:
 22686               	.LBB1151:
 22687               	.LBB1152:
 22688               	.LBB1153:
 22689               	.LM2557:
 22690 807c 20E7      		ldi r18,lo8(368)
 22691 807e 31E0      		ldi r19,hi8(368)
 22692               	.L1358:
 22693 8080 F901      		movw r30,r18
 22694               	.LVL1620:
 22695               	/* #APP */
 22696               	 ;  105 "/usr/local/CrossPack-AVR-20100115/lib/gcc/avr/4.3.3/../../../../avr/include/util/delay_bas
 22697 8082 3197      		1: sbiw r30,1
 22698 8084 01F4      		brne 1b
 22699               	 ;  0 "" 2
 22700               	/* #NOAPP */
 22701               	.LBE1153:
 22702               	.LBE1152:
 22703               	.LM2558:
 22704 8086 0197      		sbiw r24,1
 22705               	.LM2559:
 22706 8088 01F4      		brne .L1358
 22707 808a 00C0      		rjmp .L1405
 22708               	.LVL1621:
 22709               	.L1355:
 22710               	.LBE1151:
 22711               	.LBE1150:
 22712               	.LM2560:
 22713 808c 8091 0000 		lds r24,keyRead
 22714 8090 8823      		tst r24
 22715 8092 01F0      		breq .L1359
 22716               	.LM2561:
 22717 8094 80E0      		ldi r24,lo8(key)
 22718 8096 90E0      		ldi r25,hi8(key)
 22719 8098 60E0      		ldi r22,lo8(.LC82)
 22720 809a 70E0      		ldi r23,hi8(.LC82)
 22721 809c AB01      		movw r20,r22
 22722 809e 24EF      		ldi r18,lo8(500)
 22723 80a0 31E0      		ldi r19,hi8(500)
 22724 80a2 0E94 0000 		call Wifi_SendCommand
 22725               	.LVL1622:
 22726 80a6 8823      		tst r24
 22727 80a8 01F0      		breq .L1360
 22728               	.LM2562:
 22729 80aa 80E0      		ldi r24,lo8(.LC98)
 22730 80ac 90E0      		ldi r25,hi8(.LC98)
 22731 80ae 00C0      		rjmp .L1404
 22732               	.L1360:
 22733               	.LM2563:
 22734 80b0 80E0      		ldi r24,lo8(.LC99)
 22735 80b2 90E0      		ldi r25,hi8(.LC99)
 22736               	.L1404:
 22737 80b4 612F      		mov r22,r17
 22738 80b6 40E0      		ldi r20,lo8(0)
 22739 80b8 20E0      		ldi r18,lo8(System5x7)
 22740 80ba 30E0      		ldi r19,hi8(System5x7)
 22741 80bc 0E94 0000 		call display_putString
 22742               	.LM2564:
 22743 80c0 0E94 0000 		call display_writeBufferToScreen
 22744 80c4 80E1      		ldi r24,lo8(10000)
 22745 80c6 97E2      		ldi r25,hi8(10000)
 22746               	.LVL1623:
 22747               	.LBB1154:
 22748               	.LBB1155:
 22749               	.LBB1156:
 22750               	.LBB1157:
 22751               	.LM2565:
 22752 80c8 20E7      		ldi r18,lo8(368)
 22753 80ca 31E0      		ldi r19,hi8(368)
 22754               	.L1362:
 22755 80cc F901      		movw r30,r18
 22756               	.LVL1624:
 22757               	/* #APP */
 22758               	 ;  105 "/usr/local/CrossPack-AVR-20100115/lib/gcc/avr/4.3.3/../../../../avr/include/util/delay_bas
 22759 80ce 3197      		1: sbiw r30,1
 22760 80d0 01F4      		brne 1b
 22761               	 ;  0 "" 2
 22762               	/* #NOAPP */
 22763               	.LBE1157:
 22764               	.LBE1156:
 22765               	.LM2566:
 22766 80d2 0197      		sbiw r24,1
 22767               	.LM2567:
 22768 80d4 01F4      		brne .L1362
 22769               	.LVL1625:
 22770               	.L1405:
 22771               	.LBE1155:
 22772               	.LBE1154:
 22773               	.LM2568:
 22774 80d6 1F5F      		subi r17,lo8(-(1))
 22775               	.LVL1626:
 22776               	.L1359:
 22777               	.LM2569:
 22778 80d8 8091 0000 		lds r24,portRead
 22779               	.LVL1627:
 22780 80dc 8823      		tst r24
 22781 80de 01F0      		breq .L1363
 22782               	.LM2570:
 22783 80e0 80E0      		ldi r24,lo8(port)
 22784 80e2 90E0      		ldi r25,hi8(port)
 22785 80e4 60E0      		ldi r22,lo8(.LC82)
 22786 80e6 70E0      		ldi r23,hi8(.LC82)
 22787 80e8 AB01      		movw r20,r22
 22788 80ea 24EF      		ldi r18,lo8(500)
 22789 80ec 31E0      		ldi r19,hi8(500)
 22790 80ee 0E94 0000 		call Wifi_SendCommand
 22791               	.LVL1628:
 22792 80f2 8823      		tst r24
 22793 80f4 01F0      		breq .L1364
 22794               	.LM2571:
 22795 80f6 80E0      		ldi r24,lo8(.LC100)
 22796 80f8 90E0      		ldi r25,hi8(.LC100)
 22797 80fa 00C0      		rjmp .L1406
 22798               	.L1364:
 22799               	.LM2572:
 22800 80fc 80E0      		ldi r24,lo8(.LC101)
 22801 80fe 90E0      		ldi r25,hi8(.LC101)
 22802               	.L1406:
 22803 8100 612F      		mov r22,r17
 22804 8102 40E0      		ldi r20,lo8(0)
 22805 8104 20E0      		ldi r18,lo8(System5x7)
 22806 8106 30E0      		ldi r19,hi8(System5x7)
 22807 8108 0E94 0000 		call display_putString
 22808               	.LM2573:
 22809 810c 0E94 0000 		call display_writeBufferToScreen
 22810 8110 80E1      		ldi r24,lo8(10000)
 22811 8112 97E2      		ldi r25,hi8(10000)
 22812               	.LVL1629:
 22813               	.LBB1158:
 22814               	.LBB1159:
 22815               	.LBB1160:
 22816               	.LBB1161:
 22817               	.LM2574:
 22818 8114 20E7      		ldi r18,lo8(368)
 22819 8116 31E0      		ldi r19,hi8(368)
 22820               	.L1366:
 22821 8118 F901      		movw r30,r18
 22822               	.LVL1630:
 22823               	/* #APP */
 22824               	 ;  105 "/usr/local/CrossPack-AVR-20100115/lib/gcc/avr/4.3.3/../../../../avr/include/util/delay_bas
 22825 811a 3197      		1: sbiw r30,1
 22826 811c 01F4      		brne 1b
 22827               	 ;  0 "" 2
 22828               	/* #NOAPP */
 22829               	.LBE1161:
 22830               	.LBE1160:
 22831               	.LM2575:
 22832 811e 0197      		sbiw r24,1
 22833               	.LM2576:
 22834 8120 01F4      		brne .L1366
 22835               	.LBE1159:
 22836               	.LBE1158:
 22837               	.LM2577:
 22838 8122 1F5F      		subi r17,lo8(-(1))
 22839               	.LVL1631:
 22840               	.L1363:
 22841               	.LM2578:
 22842 8124 8091 0000 		lds r24,ssidRead
 22843               	.LVL1632:
 22844 8128 8823      		tst r24
 22845 812a 01F0      		breq .L1367
 22846               	.LM2579:
 22847 812c 80E0      		ldi r24,lo8(ssid)
 22848 812e 90E0      		ldi r25,hi8(ssid)
 22849 8130 60E0      		ldi r22,lo8(.LC102)
 22850 8132 70E0      		ldi r23,hi8(.LC102)
 22851 8134 40E0      		ldi r20,lo8(.LC103)
 22852 8136 50E0      		ldi r21,hi8(.LC103)
 22853 8138 20ED      		ldi r18,lo8(2000)
 22854 813a 37E0      		ldi r19,hi8(2000)
 22855 813c 0E94 0000 		call Wifi_SendCommand
 22856               	.LVL1633:
 22857 8140 8823      		tst r24
 22858 8142 01F0      		breq .L1368
 22859               	.LM2580:
 22860 8144 80E0      		ldi r24,lo8(.LC104)
 22861 8146 90E0      		ldi r25,hi8(.LC104)
 22862 8148 00C0      		rjmp .L1407
 22863               	.L1368:
 22864               	.LM2581:
 22865 814a 80E0      		ldi r24,lo8(.LC105)
 22866 814c 90E0      		ldi r25,hi8(.LC105)
 22867               	.L1407:
 22868 814e 612F      		mov r22,r17
 22869 8150 40E0      		ldi r20,lo8(0)
 22870 8152 20E0      		ldi r18,lo8(System5x7)
 22871 8154 30E0      		ldi r19,hi8(System5x7)
 22872 8156 0E94 0000 		call display_putString
 22873               	.LM2582:
 22874 815a 0E94 0000 		call display_writeBufferToScreen
 22875 815e 80E1      		ldi r24,lo8(10000)
 22876 8160 97E2      		ldi r25,hi8(10000)
 22877               	.LVL1634:
 22878               	.LBB1162:
 22879               	.LBB1163:
 22880               	.LBB1164:
 22881               	.LBB1165:
 22882               	.LM2583:
 22883 8162 20E7      		ldi r18,lo8(368)
 22884 8164 31E0      		ldi r19,hi8(368)
 22885               	.L1370:
 22886 8166 F901      		movw r30,r18
 22887               	.LVL1635:
 22888               	/* #APP */
 22889               	 ;  105 "/usr/local/CrossPack-AVR-20100115/lib/gcc/avr/4.3.3/../../../../avr/include/util/delay_bas
 22890 8168 3197      		1: sbiw r30,1
 22891 816a 01F4      		brne 1b
 22892               	 ;  0 "" 2
 22893               	/* #NOAPP */
 22894               	.LBE1165:
 22895               	.LBE1164:
 22896               	.LM2584:
 22897 816c 0197      		sbiw r24,1
 22898               	.LM2585:
 22899 816e 01F4      		brne .L1370
 22900               	.LBE1163:
 22901               	.LBE1162:
 22902               	.LM2586:
 22903 8170 1F5F      		subi r17,lo8(-(1))
 22904               	.LVL1636:
 22905               	.L1367:
 22906               	.LM2587:
 22907 8172 80E0      		ldi r24,lo8(.LC106)
 22908 8174 90E0      		ldi r25,hi8(.LC106)
 22909               	.LVL1637:
 22910 8176 60E0      		ldi r22,lo8(.LC107)
 22911 8178 70E0      		ldi r23,hi8(.LC107)
 22912 817a AB01      		movw r20,r22
 22913 817c 24EF      		ldi r18,lo8(500)
 22914 817e 31E0      		ldi r19,hi8(500)
 22915 8180 0E94 0000 		call Wifi_SendCommand
 22916               	.LVL1638:
 22917 8184 88E8      		ldi r24,lo8(5000)
 22918 8186 93E1      		ldi r25,hi8(5000)
 22919               	.LVL1639:
 22920               	.LBB1166:
 22921               	.LBB1167:
 22922               	.LBB1168:
 22923               	.LBB1169:
 22924               	.LM2588:
 22925 8188 20E7      		ldi r18,lo8(368)
 22926 818a 31E0      		ldi r19,hi8(368)
 22927               	.L1371:
 22928 818c F901      		movw r30,r18
 22929               	.LVL1640:
 22930               	/* #APP */
 22931               	 ;  105 "/usr/local/CrossPack-AVR-20100115/lib/gcc/avr/4.3.3/../../../../avr/include/util/delay_bas
 22932 818e 3197      		1: sbiw r30,1
 22933 8190 01F4      		brne 1b
 22934               	 ;  0 "" 2
 22935               	/* #NOAPP */
 22936               	.LBE1169:
 22937               	.LBE1168:
 22938               	.LM2589:
 22939 8192 0197      		sbiw r24,1
 22940               	.LM2590:
 22941 8194 01F4      		brne .L1371
 22942               	.LBE1167:
 22943               	.LBE1166:
 22944               	.LM2591:
 22945 8196 84EF      		ldi r24,lo8(500)
 22946 8198 91E0      		ldi r25,hi8(500)
 22947               	.LVL1641:
 22948 819a 0E94 0000 		call Wifi_ExitCMDMode
 22949               	.LVL1642:
 22950 819e 88E8      		ldi r24,lo8(5000)
 22951 81a0 93E1      		ldi r25,hi8(5000)
 22952               	.LVL1643:
 22953               	.LBB1170:
 22954               	.LBB1171:
 22955               	.LBB1172:
 22956               	.LBB1173:
 22957               	.LM2592:
 22958 81a2 20E7      		ldi r18,lo8(368)
 22959 81a4 31E0      		ldi r19,hi8(368)
 22960               	.L1372:
 22961 81a6 F901      		movw r30,r18
 22962               	.LVL1644:
 22963               	/* #APP */
 22964               	 ;  105 "/usr/local/CrossPack-AVR-20100115/lib/gcc/avr/4.3.3/../../../../avr/include/util/delay_bas
 22965 81a8 3197      		1: sbiw r30,1
 22966 81aa 01F4      		brne 1b
 22967               	 ;  0 "" 2
 22968               	/* #NOAPP */
 22969               	.LBE1173:
 22970               	.LBE1172:
 22971               	.LM2593:
 22972 81ac 0197      		sbiw r24,1
 22973               	.LM2594:
 22974 81ae 01F4      		brne .L1372
 22975               	.LBE1171:
 22976               	.LBE1170:
 22977               	.LM2595:
 22978 81b0 88EE      		ldi r24,lo8(1000)
 22979 81b2 93E0      		ldi r25,hi8(1000)
 22980               	.LVL1645:
 22981 81b4 0E94 0000 		call Wifi_Connected
 22982               	.LVL1646:
 22983 81b8 8823      		tst r24
 22984 81ba 01F0      		breq .L1373
 22985               	.LM2596:
 22986 81bc 80E0      		ldi r24,lo8(.LC108)
 22987 81be 90E0      		ldi r25,hi8(.LC108)
 22988 81c0 612F      		mov r22,r17
 22989 81c2 40E0      		ldi r20,lo8(0)
 22990 81c4 20E0      		ldi r18,lo8(System5x7)
 22991 81c6 30E0      		ldi r19,hi8(System5x7)
 22992 81c8 0E94 0000 		call display_putString
 22993               	.LM2597:
 22994 81cc 81E0      		ldi r24,lo8(1)
 22995 81ce 8093 0000 		sts connected,r24
 22996 81d2 00C0      		rjmp .L1374
 22997               	.L1373:
 22998               	.LM2598:
 22999 81d4 80E0      		ldi r24,lo8(.LC109)
 23000 81d6 90E0      		ldi r25,hi8(.LC109)
 23001 81d8 612F      		mov r22,r17
 23002 81da 40E0      		ldi r20,lo8(0)
 23003 81dc 20E0      		ldi r18,lo8(System5x7)
 23004 81de 30E0      		ldi r19,hi8(System5x7)
 23005 81e0 0E94 0000 		call display_putString
 23006               	.LM2599:
 23007 81e4 1092 0000 		sts connected,__zero_reg__
 23008               	.L1374:
 23009               	.LM2600:
 23010 81e8 0E94 0000 		call display_writeBufferToScreen
 23011               	.LM2601:
 23012 81ec 1F5F      		subi r17,lo8(-(1))
 23013               	.LVL1647:
 23014               	.LM2602:
 23015 81ee 8091 0000 		lds r24,connected
 23016 81f2 8823      		tst r24
 23017 81f4 01F4      		brne .+2
 23018 81f6 00C0      		rjmp .L1375
 23019 81f8 80E1      		ldi r24,lo8(10000)
 23020 81fa 97E2      		ldi r25,hi8(10000)
 23021               	.LVL1648:
 23022               	.LBB1174:
 23023               	.LBB1175:
 23024               	.LBB1176:
 23025               	.LBB1177:
 23026               	.LM2603:
 23027 81fc 20E7      		ldi r18,lo8(368)
 23028 81fe 31E0      		ldi r19,hi8(368)
 23029               	.L1376:
 23030 8200 F901      		movw r30,r18
 23031               	.LVL1649:
 23032               	/* #APP */
 23033               	 ;  105 "/usr/local/CrossPack-AVR-20100115/lib/gcc/avr/4.3.3/../../../../avr/include/util/delay_bas
 23034 8202 3197      		1: sbiw r30,1
 23035 8204 01F4      		brne 1b
 23036               	 ;  0 "" 2
 23037               	/* #NOAPP */
 23038               	.LBE1177:
 23039               	.LBE1176:
 23040               	.LM2604:
 23041 8206 0197      		sbiw r24,1
 23042               	.LM2605:
 23043 8208 01F4      		brne .L1376
 23044               	.LBE1175:
 23045               	.LBE1174:
 23046               	.LM2606:
 23047 820a 84EF      		ldi r24,lo8(500)
 23048 820c 91E0      		ldi r25,hi8(500)
 23049               	.LVL1650:
 23050 820e 0E94 0000 		call Wifi_EnterCMDMode
 23051               	.LVL1651:
 23052               	.LM2607:
 23053 8212 88EE      		ldi r24,lo8(1000)
 23054 8214 93E0      		ldi r25,hi8(1000)
 23055 8216 0E94 0000 		call Wifi_GetTime
 23056 821a 8823      		tst r24
 23057 821c 01F0      		breq .L1377
 23058               	.LM2608:
 23059 821e 80E0      		ldi r24,lo8(.LC110)
 23060 8220 90E0      		ldi r25,hi8(.LC110)
 23061 8222 612F      		mov r22,r17
 23062 8224 40E0      		ldi r20,lo8(0)
 23063 8226 20E0      		ldi r18,lo8(System5x7)
 23064 8228 30E0      		ldi r19,hi8(System5x7)
 23065 822a 0E94 0000 		call display_putString
 23066               	.LM2609:
 23067 822e 8091 0000 		lds r24,time_secs
 23068 8232 9091 0000 		lds r25,(time_secs)+1
 23069 8236 A091 0000 		lds r26,(time_secs)+2
 23070 823a B091 0000 		lds r27,(time_secs)+3
 23071               	.LBB1178:
 23072               	.LBB1179:
 23073               	.LM2610:
 23074               	/* #APP */
 23075               	 ;  51 "time.c" 1
 23076 823e F894      		cli
 23077               	 ;  0 "" 2
 23078               	.LM2611:
 23079               	/* #NOAPP */
 23080 8240 8093 0000 		sts UNIX_time,r24
 23081 8244 9093 0000 		sts (UNIX_time)+1,r25
 23082 8248 A093 0000 		sts (UNIX_time)+2,r26
 23083 824c B093 0000 		sts (UNIX_time)+3,r27
 23084               	.LM2612:
 23085               	/* #APP */
 23086               	 ;  53 "time.c" 1
 23087 8250 7894      		sei
 23088               	 ;  0 "" 2
 23089               	/* #NOAPP */
 23090               	.LBE1179:
 23091               	.LBE1178:
 23092               	.LBB1180:
 23093               	.LBB1181:
 23094               	.LM2613:
 23095 8252 E0E2      		ldi r30,lo8(1568)
 23096 8254 F6E0      		ldi r31,hi8(1568)
 23097 8256 80E4      		ldi r24,lo8(64)
 23098 8258 8583      		std Z+5,r24
 23099               	.LBE1181:
 23100               	.LBE1180:
 23101               	.LBB1182:
 23102               	.LBB1183:
 23103               	.LM2614:
 23104 825a 80E8      		ldi r24,lo8(-128)
 23105 825c 8683      		std Z+6,r24
 23106 825e 00C0      		rjmp .L1378
 23107               	.L1377:
 23108               	.LBE1183:
 23109               	.LBE1182:
 23110               	.LM2615:
 23111 8260 80E0      		ldi r24,lo8(.LC111)
 23112 8262 90E0      		ldi r25,hi8(.LC111)
 23113 8264 612F      		mov r22,r17
 23114 8266 40E0      		ldi r20,lo8(0)
 23115 8268 20E0      		ldi r18,lo8(System5x7)
 23116 826a 30E0      		ldi r19,hi8(System5x7)
 23117 826c 0E94 0000 		call display_putString
 23118               	.LBB1184:
 23119               	.LBB1185:
 23120               	.LM2616:
 23121 8270 E0E2      		ldi r30,lo8(1568)
 23122 8272 F6E0      		ldi r31,hi8(1568)
 23123 8274 80E8      		ldi r24,lo8(-128)
 23124 8276 8583      		std Z+5,r24
 23125               	.LBE1185:
 23126               	.LBE1184:
 23127               	.LBB1186:
 23128               	.LBB1187:
 23129               	.LM2617:
 23130 8278 80E4      		ldi r24,lo8(64)
 23131 827a 8683      		std Z+6,r24
 23132               	.LBE1187:
 23133               	.LBE1186:
 23134               	.LM2618:
 23135 827c 1092 0000 		sts connected,__zero_reg__
 23136               	.L1378:
 23137               	.LM2619:
 23138 8280 0E94 0000 		call display_writeBufferToScreen
 23139               	.LM2620:
 23140 8284 88EE      		ldi r24,lo8(1000)
 23141 8286 93E0      		ldi r25,hi8(1000)
 23142 8288 0E94 0000 		call Wifi_GetMac
 23143               	.LM2621:
 23144 828c 88EE      		ldi r24,lo8(1000)
 23145 828e 93E0      		ldi r25,hi8(1000)
 23146 8290 0E94 0000 		call Wifi_ExitCMDMode
 23147 8294 00C0      		rjmp .L1380
 23148               	.L1375:
 23149               	.LM2622:
 23150 8296 80E0      		ldi r24,lo8(.LC111)
 23151 8298 90E0      		ldi r25,hi8(.LC111)
 23152 829a 612F      		mov r22,r17
 23153 829c 40E0      		ldi r20,lo8(0)
 23154 829e 20E0      		ldi r18,lo8(System5x7)
 23155 82a0 30E0      		ldi r19,hi8(System5x7)
 23156 82a2 0E94 0000 		call display_putString
 23157               	.LM2623:
 23158 82a6 0E94 0000 		call display_writeBufferToScreen
 23159               	.LBB1188:
 23160               	.LBB1189:
 23161               	.LM2624:
 23162 82aa 80E8      		ldi r24,lo8(-128)
 23163 82ac E0E2      		ldi r30,lo8(1568)
 23164 82ae F6E0      		ldi r31,hi8(1568)
 23165 82b0 8583      		std Z+5,r24
 23166               	.L1380:
 23167               	/* epilogue start */
 23168               	.LBE1189:
 23169               	.LBE1188:
 23170               	.LM2625:
 23171 82b2 1F91      		pop r17
 23172               	.LVL1652:
 23173 82b4 0895      		ret
 23174               	.LFE176:
 23176               		.data
 23177               	.LC112:
 23178 062a 7368 6F77 		.string	"show rssi"
 23178      2072 7373 
 23178      6900 
 23179               	.LC113:
 23180 0634 5253 5349 		.string	"RSSI=(-"
 23180      3D28 2D00 
 23181               		.text
 23182               	.global	Wifi_GetSignalStrength
 23184               	Wifi_GetSignalStrength:
 23185               	.LFB25:
 23186               	.LM2626:
 23187               	.LVL1653:
 23188 82b6 AF92      		push r10
 23189 82b8 BF92      		push r11
 23190 82ba CF92      		push r12
 23191 82bc DF92      		push r13
 23192 82be FF92      		push r15
 23193 82c0 0F93      		push r16
 23194 82c2 1F93      		push r17
 23195 82c4 CF93      		push r28
 23196 82c6 DF93      		push r29
 23197               	/* prologue: function */
 23198               	/* frame size = 0 */
 23199 82c8 6C01      		movw r12,r24
 23200               	.LM2627:
 23201 82ca 80E0      		ldi r24,lo8(.LC112)
 23202 82cc 90E0      		ldi r25,hi8(.LC112)
 23203               	.LVL1654:
 23204 82ce 60E0      		ldi r22,lo8(.LC113)
 23205 82d0 70E0      		ldi r23,hi8(.LC113)
 23206 82d2 AB01      		movw r20,r22
 23207 82d4 9601      		movw r18,r12
 23208 82d6 0E94 0000 		call Wifi_SendCommand
 23209 82da FF24      		clr r15
 23210               	.LVL1655:
 23211 82dc C0E0      		ldi r28,lo8(0)
 23212 82de D0E0      		ldi r29,hi8(0)
 23213               	.LVL1656:
 23214               	.LBB1190:
 23215               	.LBB1191:
 23216               	.LBB1192:
 23217               	.LBB1193:
 23218               	.LBB1194:
 23219               	.LM2628:
 23220 82e0 A6E6      		ldi r26,lo8(3686)
 23221 82e2 AA2E      		mov r10,r26
 23222 82e4 AEE0      		ldi r26,hi8(3686)
 23223 82e6 BA2E      		mov r11,r26
 23224 82e8 00C0      		rjmp .L1409
 23225               	.LVL1657:
 23226               	.L1413:
 23227               	.LBE1194:
 23228               	.LBE1193:
 23229               	.LBE1192:
 23230               	.LBE1191:
 23231               	.LM2629:
 23232 82ea 0E94 0000 		call Wifi_CharReadyToRead
 23233               	.LVL1658:
 23234 82ee 8823      		tst r24
 23235 82f0 01F0      		breq .L1410
 23236               	.LM2630:
 23237 82f2 0F2D      		mov r16,r15
 23238 82f4 10E0      		ldi r17,lo8(0)
 23239 82f6 80E0      		ldi r24,lo8(0)
 23240 82f8 0E94 0000 		call Wifi_GetByte
 23241 82fc F801      		movw r30,r16
 23242 82fe E050      		subi r30,lo8(-(rssi))
 23243 8300 F040      		sbci r31,hi8(-(rssi))
 23244 8302 8083      		st Z,r24
 23245               	.LM2631:
 23246 8304 8932      		cpi r24,lo8(41)
 23247 8306 01F4      		brne .L1411
 23248               	.LM2632:
 23249 8308 1082      		st Z,__zero_reg__
 23250               	.LM2633:
 23251 830a 80E0      		ldi r24,lo8(rssi)
 23252 830c 90E0      		ldi r25,hi8(rssi)
 23253 830e 0E94 0000 		call atoi
 23254 8312 AA27      		clr r26
 23255 8314 97FD      		sbrc r25,7
 23256 8316 A095      		com r26
 23257 8318 BA2F      		mov r27,r26
 23258               	.LVL1659:
 23259               	.LM2634:
 23260 831a BC01      		movw r22,r24
 23261 831c CD01      		movw r24,r26
 23262 831e 28EF      		ldi r18,lo8(9208)
 23263 8320 33E2      		ldi r19,hi8(9208)
 23264 8322 40E0      		ldi r20,hlo8(9208)
 23265 8324 50E0      		ldi r21,hhi8(9208)
 23266 8326 0E94 0000 		call __mulsi3
 23267 832a 9B01      		movw r18,r22
 23268 832c AC01      		movw r20,r24
 23269               	.LVL1660:
 23270               	.LM2635:
 23271 832e 6CE6      		ldi r22,lo8(1045100)
 23272 8330 72EF      		ldi r23,hi8(1045100)
 23273 8332 8FE0      		ldi r24,hlo8(1045100)
 23274 8334 90E0      		ldi r25,hhi8(1045100)
 23275 8336 621B      		sub r22,r18
 23276 8338 730B      		sbc r23,r19
 23277 833a 840B      		sbc r24,r20
 23278 833c 950B      		sbc r25,r21
 23279               	.LM2636:
 23280 833e 20E1      		ldi r18,lo8(10000)
 23281 8340 37E2      		ldi r19,hi8(10000)
 23282 8342 40E0      		ldi r20,hlo8(10000)
 23283 8344 50E0      		ldi r21,hhi8(10000)
 23284               	.LVL1661:
 23285 8346 0E94 0000 		call __udivmodsi4
 23286 834a 00C0      		rjmp .L1412
 23287               	.L1411:
 23288               	.LM2637:
 23289 834c F394      		inc r15
 23290               	.L1410:
 23291               	.LBB1198:
 23292               	.LBB1197:
 23293               	.LBB1196:
 23294               	.LBB1195:
 23295               	.LM2638:
 23296 834e C501      		movw r24,r10
 23297               	.LVL1662:
 23298               	/* #APP */
 23299               	 ;  105 "/usr/local/CrossPack-AVR-20100115/lib/gcc/avr/4.3.3/../../../../avr/include/util/delay_bas
 23300 8350 0197      		1: sbiw r24,1
 23301 8352 01F4      		brne 1b
 23302               	 ;  0 "" 2
 23303               	/* #NOAPP */
 23304               	.LBE1195:
 23305               	.LBE1196:
 23306               	.LBE1197:
 23307               	.LBE1198:
 23308               	.LM2639:
 23309 8354 2196      		adiw r28,1
 23310               	.L1409:
 23311 8356 CC15      		cp r28,r12
 23312 8358 DD05      		cpc r29,r13
 23313 835a 00F0      		brlo .L1413
 23314 835c 20E0      		ldi r18,lo8(0)
 23315               	.LVL1663:
 23316               	.L1412:
 23317               	.LBE1190:
 23318               	.LM2640:
 23319 835e 822F      		mov r24,r18
 23320               	.LVL1664:
 23321               	/* epilogue start */
 23322 8360 DF91      		pop r29
 23323 8362 CF91      		pop r28
 23324               	.LVL1665:
 23325 8364 1F91      		pop r17
 23326 8366 0F91      		pop r16
 23327 8368 FF90      		pop r15
 23328               	.LVL1666:
 23329 836a DF90      		pop r13
 23330 836c CF90      		pop r12
 23331               	.LVL1667:
 23332 836e BF90      		pop r11
 23333 8370 AF90      		pop r10
 23334 8372 0895      		ret
 23335               	.LFE25:
 23337               		.data
 23338               	.LC114:
 23339 063c 626F 6F74 		.string	"booting up..."
 23339      696E 6720 
 23339      7570 2E2E 
 23339      2E00 
 23340               	.LC115:
 23341 064a 2020 2042 		.string	"   BaseStation   "
 23341      6173 6553 
 23341      7461 7469 
 23341      6F6E 2020 
 23341      2000 
 23342               	.LC116:
 23343 065c 2020 4861 		.string	"  Hardware: v"
 23343      7264 7761 
 23343      7265 3A20 
 23343      7600 
 23344               	.LC117:
 23345 066a 2046 6972 		.string	" Firmware: v"
 23345      6D77 6172 
 23345      653A 2076 
 23345      00
 23346               	.LC118:
 23347 0677 2020 2020 		.string	"    Demo Mode    "
 23347      4465 6D6F 
 23347      204D 6F64 
 23347      6520 2020 
 23347      2000 
 23348               	.LC119:
 23349 0689 5344 3F00 		.string	"SD?"
 23350               	.LC120:
 23351 068d 7469 6D65 		.string	"time: %lu"
 23351      3A20 256C 
 23351      7500 
 23352               	.LC121:
 23353 0697 5265 636F 		.string	"Recording      0m"
 23353      7264 696E 
 23353      6720 2020 
 23353      2020 2030 
 23353      6D00 
 23354               	.LC122:
 23355 06a9 5061 7573 		.string	"Paused           "
 23355      6564 2020 
 23355      2020 2020 
 23355      2020 2020 
 23355      2000 
 23356               	.LC123:
 23357 06bb 5265 636F 		.string	"Recording   %4lum"
 23357      7264 696E 
 23357      6720 2020 
 23357      2534 6C75 
 23357      6D00 
 23358               	.LC124:
 23359 06cd 5570 6C6F 		.string	"Uploading    %3u"
 23359      6164 696E 
 23359      6720 2020 
 23359      2025 3375 
 23359      00
 23360               	.LC125:
 23361 06de 2500      		.string	"%"
 23362               	.LC126:
 23363 06e0 4578 7420 		.string	"Ext Charged      "
 23363      4368 6172 
 23363      6765 6420 
 23363      2020 2020 
 23363      2000 
 23364               	.LC127:
 23365 06f2 4578 7420 		.string	"Ext Charging  %2u"
 23365      4368 6172 
 23365      6769 6E67 
 23365      2020 2532 
 23365      7500 
 23366               	.LC128:
 23367 0704 5379 6E63 		.string	"Syncing RTC"
 23367      696E 6720 
 23367      5254 4300 
 23368               	.LC129:
 23369 0710 5254 4320 		.string	"RTC synced"
 23369      7379 6E63 
 23369      6564 00
 23370               	.LC130:
 23371 071b 4578 7420 		.string	"Ext Removed      "
 23371      5265 6D6F 
 23371      7665 6420 
 23371      2020 2020 
 23371      2000 
 23372               	.LC131:
 23373 072d 5469 6D65 		.string	"Time %2u:%02u:%02u "
 23373      2025 3275 
 23373      3A25 3032 
 23373      753A 2530 
 23373      3275 2000 
 23374               	.LC132:
 23375 0741 5769 6669 		.string	"Wifi %3u"
 23375      2025 3375 
 23375      00
 23376               	.LC133:
 23377 074a 2520 2020 		.string	"%   more"
 23377      6D6F 7265 
 23377      00
 23378               	.LC134:
 23379 0753 2020 2053 		.string	"   Sensors  back"
 23379      656E 736F 
 23379      7273 2020 
 23379      6261 636B 
 23379      00
 23380               	.LC135:
 23381 0764 5465 6D70 		.string	"Temperature: %3uC"
 23381      6572 6174 
 23381      7572 653A 
 23381      2025 3375 
 23381      4300 
 23382               	.LC136:
 23383 0776 4875 6D69 		.string	"Humidity:  %3u"
 23383      6469 7479 
 23383      3A20 2025 
 23383      3375 00
 23384               	.LC137:
 23385 0785 2552 4800 		.string	"%RH"
 23386               	.LC138:
 23387 0789 5072 6573 		.string	"Pressure:  %3ukPa"
 23387      7375 7265 
 23387      3A20 2025 
 23387      3375 6B50 
 23387      6100 
 23388               	.LC139:
 23389 079b 4C69 6768 		.string	"Light:      %5u"
 23389      743A 2020 
 23389      2020 2020 
 23389      2535 7500 
 23390               	.LC140:
 23391 07ab 4169 723A 		.string	"Air: %5lu, %5lu"
 23391      2025 356C 
 23391      752C 2025 
 23391      356C 7500 
 23392               	.LC141:
 23393 07bb 536F 756E 		.string	"Sound:           "
 23393      643A 2020 
 23393      2020 2020 
 23393      2020 2020 
 23393      2000 
 23394               	.LC142:
 23395 07cd 2020 2020 		.string	"    uSD Error    "
 23395      7553 4420 
 23395      4572 726F 
 23395      7220 2020 
 23395      2000 
 23396               	.LC143:
 23397 07df 2050 6C65 		.string	" Please Remove & "
 23397      6173 6520 
 23397      5265 6D6F 
 23397      7665 2026 
 23397      2000 
 23398               	.LC144:
 23399 07f1 2020 5265 		.string	"  Reinsert Card  "
 23399      696E 7365 
 23399      7274 2043 
 23399      6172 6420 
 23399      2000 
 23400               	.LC145:
 23401 0803 456E 7465 		.string	"Entering Debug to Wifi function"
 23401      7269 6E67 
 23401      2044 6562 
 23401      7567 2074 
 23401      6F20 5769 
 23402               		.text
 23403               	.global	main
 23405               	main:
 23406               	.LFB161:
 23407               	.LM2641:
 23408 8374 2F92      		push r2
 23409 8376 3F92      		push r3
 23410 8378 4F92      		push r4
 23411 837a 5F92      		push r5
 23412 837c 6F92      		push r6
 23413 837e 7F92      		push r7
 23414 8380 8F92      		push r8
 23415 8382 9F92      		push r9
 23416 8384 AF92      		push r10
 23417 8386 BF92      		push r11
 23418 8388 CF92      		push r12
 23419 838a EF92      		push r14
 23420 838c FF92      		push r15
 23421 838e 0F93      		push r16
 23422 8390 1F93      		push r17
 23423 8392 DF93      		push r29
 23424 8394 CF93      		push r28
 23425 8396 0F92      		push __tmp_reg__
 23426 8398 CDB7      		in r28,__SP_L__
 23427 839a DEB7      		in r29,__SP_H__
 23428               	/* prologue: function */
 23429               	/* frame size = 1 */
 23430               	.LBB1199:
 23431               	.LBB1200:
 23432               	.LBB1201:
 23433               	.LBB1202:
 23434               	.LM2642:
 23435 839c 80E0      		ldi r24,lo8(18432)
 23436 839e 98E4      		ldi r25,hi8(18432)
 23437               	.LVL1668:
 23438               	/* #APP */
 23439               	 ;  105 "/usr/local/CrossPack-AVR-20100115/lib/gcc/avr/4.3.3/../../../../avr/include/util/delay_bas
 23440 83a0 0197      		1: sbiw r24,1
 23441 83a2 01F4      		brne 1b
 23442               	 ;  0 "" 2
 23443               	/* #NOAPP */
 23444               	.LBE1202:
 23445               	.LBE1201:
 23446               	.LBE1200:
 23447               	.LBE1199:
 23448               	.LM2643:
 23449 83a4 0E94 0000 		call Clock_Init
 23450               	.LVL1669:
 23451               	.LM2644:
 23452 83a8 0E94 0000 		call display_init
 23453               	.LM2645:
 23454 83ac 0E94 0000 		call Time_Init
 23455               	.LM2646:
 23456 83b0 0E94 0000 		call Sensors_Init
 23457               	.LBB1203:
 23458               	.LBB1204:
 23459               	.LM2647:
 23460 83b4 8091 2106 		lds r24,1569
 23461 83b8 836F      		ori r24,lo8(-13)
 23462 83ba E0E2      		ldi r30,lo8(1568)
 23463 83bc F6E0      		ldi r31,hi8(1568)
 23464 83be 8183      		std Z+1,r24
 23465               	.LBE1204:
 23466               	.LBE1203:
 23467               	.LM2648:
 23468 83c0 0E94 0000 		call Dpad_Init
 23469               	.LM2649:
 23470 83c4 0E94 0000 		call Debug_Init
 23471               	.LM2650:
 23472 83c8 0E94 0000 		call Rs232_Init
 23473               	.LM2651:
 23474 83cc 60E8      		ldi r22,lo8(9600)
 23475 83ce 75E2      		ldi r23,hi8(9600)
 23476 83d0 80E0      		ldi r24,hlo8(9600)
 23477 83d2 90E0      		ldi r25,hhi8(9600)
 23478 83d4 0E94 0000 		call Wifi_Init
 23479               	.LM2652:
 23480 83d8 82E7      		ldi r24,lo8(114)
 23481 83da 0E94 0000 		call Light_Init
 23482               	.LM2653:
 23483 83de 0E94 0000 		call SD_Init
 23484               	.LM2654:
 23485 83e2 0E94 0000 		call SD_BackroundWriter_Init
 23486               	.LM2655:
 23487 83e6 0E94 0000 		call DMA_Init
 23488               	.LBB1205:
 23489               	.LBB1206:
 23490               	.LM2656:
 23491 83ea 8091 A200 		lds r24,162
 23492 83ee 8760      		ori r24,lo8(7)
 23493 83f0 E0EA      		ldi r30,lo8(160)
 23494 83f2 F0E0      		ldi r31,hi8(160)
 23495 83f4 8283      		std Z+2,r24
 23496               	.LM2657:
 23497               	/* #APP */
 23498               	 ;  567 "main.c" 1
 23499 83f6 7894      		sei
 23500               	 ;  0 "" 2
 23501               	/* #NOAPP */
 23502               	.LBE1206:
 23503               	.LBE1205:
 23504               	.LBB1207:
 23505               	.LBB1208:
 23506               	.LBB1209:
 23507               	.LBB1210:
 23508               	.LM2658:
 23509 83f8 8FB7      		in r24,__SREG__
 23510 83fa 8983      		std Y+1,r24
 23511               	.LVL1670:
 23512               	.LM2659:
 23513               	/* #APP */
 23514               	 ;  240 "sd.c" 1
 23515 83fc F894      		cli
 23516               	 ;  0 "" 2
 23517               	.LM2660:
 23518               	/* #NOAPP */
 23519 83fe 1BBE      		out 59-0,__zero_reg__
 23520               	.LM2661:
 23521 8400 21E0      		ldi r18,lo8(1)
 23522 8402 86E9      		ldi r24,lo8(150)
 23523 8404 90E0      		ldi r25,hi8(150)
 23524               	/* #APP */
 23525               	 ;  262 "sd.c" 1
 23526 8406 FC01      		movw r30,  r24
 23527 8408 08ED      		ldi  r16,  216
 23528 840a 04BF      		out   52, r16
 23529 840c 2083      		st     Z,  r18
 23530               		
 23531               	 ;  0 "" 2
 23532               	.LM2662:
 23533               	/* #NOAPP */
 23534 840e 8981      		ldd r24,Y+1
 23535 8410 8FBF      		out __SREG__,r24
 23536               	.LBE1210:
 23537               	.LBE1209:
 23538               	.LBE1208:
 23539               	.LBE1207:
 23540               	.LBB1211:
 23541               	.LBB1212:
 23542               	.LBB1213:
 23543               	.LBB1214:
 23544               	.LM2663:
 23545 8412 8091 A806 		lds r24,1704
 23546               	.LBE1214:
 23547               	.LBE1213:
 23548               	.LM2664:
 23549 8416 8C77      		andi r24,lo8(124)
 23550 8418 86FF      		sbrs r24,6
 23551 841a 00C0      		rjmp .L1416
 23552               	.L1483:
 23553               	.LBE1212:
 23554               	.LBE1211:
 23555               	.LM2665:
 23556 841c 80E0      		ldi r24,lo8(.LC114)
 23557 841e 90E0      		ldi r25,hi8(.LC114)
 23558 8420 61E0      		ldi r22,lo8(1)
 23559 8422 0E94 0000 		call Debug_SendString
 23560               	.LM2666:
 23561 8426 80E0      		ldi r24,lo8(.LC115)
 23562 8428 90E0      		ldi r25,hi8(.LC115)
 23563 842a 61E0      		ldi r22,lo8(1)
 23564 842c 40E0      		ldi r20,lo8(0)
 23565 842e 20E0      		ldi r18,lo8(System5x7)
 23566 8430 30E0      		ldi r19,hi8(System5x7)
 23567 8432 0E94 0000 		call display_putString
 23568               	.LM2667:
 23569 8436 80E0      		ldi r24,lo8(temp)
 23570 8438 90E0      		ldi r25,hi8(temp)
 23571 843a 60E0      		ldi r22,lo8(.LC116)
 23572 843c 70E0      		ldi r23,hi8(.LC116)
 23573 843e 0E94 0000 		call strcat
 23574               	.LM2668:
 23575 8442 80E0      		ldi r24,lo8(temp)
 23576 8444 90E0      		ldi r25,hi8(temp)
 23577 8446 60E0      		ldi r22,lo8(.LC51)
 23578 8448 70E0      		ldi r23,hi8(.LC51)
 23579 844a 0E94 0000 		call strcat
 23580               	.LM2669:
 23581 844e 80E0      		ldi r24,lo8(temp)
 23582 8450 90E0      		ldi r25,hi8(temp)
 23583 8452 63E0      		ldi r22,lo8(3)
 23584 8454 40E0      		ldi r20,lo8(0)
 23585 8456 20E0      		ldi r18,lo8(System5x7)
 23586 8458 30E0      		ldi r19,hi8(System5x7)
 23587 845a 0E94 0000 		call display_putString
 23588               	.LM2670:
 23589 845e 1092 0000 		sts temp,__zero_reg__
 23590               	.LM2671:
 23591 8462 80E0      		ldi r24,lo8(temp)
 23592 8464 90E0      		ldi r25,hi8(temp)
 23593 8466 60E0      		ldi r22,lo8(.LC117)
 23594 8468 70E0      		ldi r23,hi8(.LC117)
 23595 846a 0E94 0000 		call strcat
 23596               	.LM2672:
 23597 846e 80E0      		ldi r24,lo8(temp)
 23598 8470 90E0      		ldi r25,hi8(temp)
 23599 8472 60E0      		ldi r22,lo8(.LC49)
 23600 8474 70E0      		ldi r23,hi8(.LC49)
 23601 8476 0E94 0000 		call strcat
 23602               	.LM2673:
 23603 847a 80E0      		ldi r24,lo8(temp)
 23604 847c 90E0      		ldi r25,hi8(temp)
 23605 847e 65E0      		ldi r22,lo8(5)
 23606 8480 40E0      		ldi r20,lo8(0)
 23607 8482 20E0      		ldi r18,lo8(System5x7)
 23608 8484 30E0      		ldi r19,hi8(System5x7)
 23609 8486 0E94 0000 		call display_putString
 23610               	.LM2674:
 23611 848a 0E94 0000 		call display_writeBufferToScreen
 23612               	.LM2675:
 23613 848e 8091 0000 		lds r24,demoMode
 23614 8492 8823      		tst r24
 23615 8494 01F0      		breq .L1417
 23616               	.LM2676:
 23617 8496 80E0      		ldi r24,lo8(.LC118)
 23618 8498 90E0      		ldi r25,hi8(.LC118)
 23619 849a 67E0      		ldi r22,lo8(7)
 23620 849c 40E0      		ldi r20,lo8(0)
 23621 849e 20E0      		ldi r18,lo8(System5x7)
 23622 84a0 30E0      		ldi r19,hi8(System5x7)
 23623 84a2 0E94 0000 		call display_putString
 23624               	.L1417:
 23625               	.LM2677:
 23626 84a6 0E94 0000 		call display_writeBufferToScreen
 23627 84aa 80E2      		ldi r24,lo8(20000)
 23628 84ac 9EE4      		ldi r25,hi8(20000)
 23629               	.LVL1671:
 23630               	.LBB1215:
 23631               	.LBB1216:
 23632               	.LBB1217:
 23633               	.LBB1218:
 23634               	.LM2678:
 23635 84ae 20E7      		ldi r18,lo8(368)
 23636 84b0 31E0      		ldi r19,hi8(368)
 23637               	.L1418:
 23638 84b2 F901      		movw r30,r18
 23639               	.LVL1672:
 23640               	/* #APP */
 23641               	 ;  105 "/usr/local/CrossPack-AVR-20100115/lib/gcc/avr/4.3.3/../../../../avr/include/util/delay_bas
 23642 84b4 3197      		1: sbiw r30,1
 23643 84b6 01F4      		brne 1b
 23644               	 ;  0 "" 2
 23645               	/* #NOAPP */
 23646               	.LBE1218:
 23647               	.LBE1217:
 23648               	.LM2679:
 23649 84b8 0197      		sbiw r24,1
 23650               	.LM2680:
 23651 84ba 01F4      		brne .L1418
 23652 84bc 00C0      		rjmp .L1537
 23653               	.LVL1673:
 23654               	.L1420:
 23655               	.LBE1216:
 23656               	.LBE1215:
 23657               	.LBB1219:
 23658               	.LBB1220:
 23659               	.LBB1221:
 23660               	.LBB1222:
 23661               	.LM2681:
 23662 84be F801      		movw r30,r16
 23663               	.LVL1674:
 23664               	/* #APP */
 23665               	 ;  105 "/usr/local/CrossPack-AVR-20100115/lib/gcc/avr/4.3.3/../../../../avr/include/util/delay_bas
 23666 84c0 3197      		1: sbiw r30,1
 23667 84c2 01F4      		brne 1b
 23668               	 ;  0 "" 2
 23669               	/* #NOAPP */
 23670               	.LBE1222:
 23671               	.LBE1221:
 23672               	.LM2682:
 23673 84c4 0197      		sbiw r24,1
 23674               	.LM2683:
 23675 84c6 01F4      		brne .L1420
 23676 84c8 00C0      		rjmp .L1514
 23677               	.LVL1675:
 23678               	.L1537:
 23679               	.LBE1220:
 23680               	.LBE1219:
 23681               	.LBB1226:
 23682               	.LBB1227:
 23683               	.LM2684:
 23684 84ca 50E2      		ldi r21,lo8(1568)
 23685 84cc A52E      		mov r10,r21
 23686 84ce 56E0      		ldi r21,hi8(1568)
 23687 84d0 B52E      		mov r11,r21
 23688 84d2 42E0      		ldi r20,lo8(2)
 23689 84d4 E42E      		mov r14,r20
 23690               	.LBE1227:
 23691               	.LBE1226:
 23692               	.LBB1229:
 23693               	.LBB1225:
 23694               	.LBB1224:
 23695               	.LBB1223:
 23696               	.LM2685:
 23697 84d6 00E7      		ldi r16,lo8(368)
 23698 84d8 11E0      		ldi r17,hi8(368)
 23699               	.LVL1676:
 23700               	.L1514:
 23701               	.LBE1223:
 23702               	.LBE1224:
 23703               	.LBE1225:
 23704               	.LBE1229:
 23705               	.LBB1230:
 23706               	.LBB1231:
 23707               	.LM2686:
 23708 84da 8091 A806 		lds r24,1704
 23709               	.LVL1677:
 23710 84de 80FF      		sbrs r24,0
 23711 84e0 00C0      		rjmp .L1421
 23712               	.LBE1231:
 23713               	.LBE1230:
 23714               	.LM2687:
 23715 84e2 80E0      		ldi r24,lo8(.LC119)
 23716 84e4 90E0      		ldi r25,hi8(.LC119)
 23717 84e6 61E0      		ldi r22,lo8(1)
 23718 84e8 0E94 0000 		call Debug_SendString
 23719               	.LVL1678:
 23720               	.LBB1232:
 23721               	.LBB1228:
 23722               	.LM2688:
 23723 84ec D501      		movw r26,r10
 23724 84ee 1796      		adiw r26,7
 23725 84f0 EC92      		st X,r14
 23726 84f2 88E8      		ldi r24,lo8(5000)
 23727 84f4 93E1      		ldi r25,hi8(5000)
 23728               	.LVL1679:
 23729 84f6 00C0      		rjmp .L1420
 23730               	.LVL1680:
 23731               	.L1422:
 23732               	.LBE1228:
 23733               	.LBE1232:
 23734               	.LBB1233:
 23735               	.LBB1234:
 23736               	.LBB1235:
 23737               	.LBB1236:
 23738               	.LM2689:
 23739 84f8 CA01      		movw r24,r20
 23740               	.LVL1681:
 23741               	/* #APP */
 23742               	 ;  105 "/usr/local/CrossPack-AVR-20100115/lib/gcc/avr/4.3.3/../../../../avr/include/util/delay_bas
 23743 84fa 0197      		1: sbiw r24,1
 23744 84fc 01F4      		brne 1b
 23745               	 ;  0 "" 2
 23746               	/* #NOAPP */
 23747               	.LBE1236:
 23748               	.LBE1235:
 23749               	.LM2690:
 23750 84fe 2150      		subi r18,lo8(-(-1))
 23751 8500 3040      		sbci r19,hi8(-(-1))
 23752               	.LM2691:
 23753 8502 01F4      		brne .L1422
 23754               	.LBE1234:
 23755               	.LBE1233:
 23756               	.LM2692:
 23757 8504 0E94 0000 		call Read_config_file
 23758               	.LVL1682:
 23759               	.LBB1240:
 23760               	.LBB1241:
 23761               	.LBB1242:
 23762               	.LBB1243:
 23763               	.LM2693:
 23764 8508 00E7      		ldi r16,lo8(368)
 23765 850a 11E0      		ldi r17,hi8(368)
 23766 850c 00C0      		rjmp .L1423
 23767               	.LVL1683:
 23768               	.L1426:
 23769               	.LBE1243:
 23770               	.LBE1242:
 23771               	.LBE1241:
 23772               	.LBE1240:
 23773               	.LM2694:
 23774 850e 0E94 0000 		call Config_Wifi
 23775               	.LVL1684:
 23776 8512 88E8      		ldi r24,lo8(5000)
 23777 8514 93E1      		ldi r25,hi8(5000)
 23778               	.LVL1685:
 23779               	.L1424:
 23780               	.LBB1247:
 23781               	.LBB1246:
 23782               	.LBB1245:
 23783               	.LBB1244:
 23784               	.LM2695:
 23785 8516 F801      		movw r30,r16
 23786               	.LVL1686:
 23787               	/* #APP */
 23788               	 ;  105 "/usr/local/CrossPack-AVR-20100115/lib/gcc/avr/4.3.3/../../../../avr/include/util/delay_bas
 23789 8518 3197      		1: sbiw r30,1
 23790 851a 01F4      		brne 1b
 23791               	 ;  0 "" 2
 23792               	/* #NOAPP */
 23793               	.LBE1244:
 23794               	.LBE1245:
 23795               	.LM2696:
 23796 851c 0197      		sbiw r24,1
 23797               	.LM2697:
 23798 851e 01F4      		brne .L1424
 23799               	.L1423:
 23800               	.LBE1246:
 23801               	.LBE1247:
 23802               	.LM2698:
 23803 8520 8091 0000 		lds r24,connected
 23804               	.LVL1687:
 23805 8524 8823      		tst r24
 23806 8526 01F4      		brne .L1425
 23807 8528 8091 0000 		lds r24,demoMode
 23808 852c 8823      		tst r24
 23809 852e 01F0      		breq .L1426
 23810               	.L1425:
 23811               	.LM2699:
 23812 8530 8091 0000 		lds r24,demoMode
 23813 8534 8823      		tst r24
 23814 8536 01F0      		breq .L1530
 23815               	.L1427:
 23816               	.LBB1248:
 23817               	.LBB1249:
 23818               	.LM2700:
 23819 8538 80E4      		ldi r24,lo8(64)
 23820 853a E0E2      		ldi r30,lo8(1568)
 23821 853c F6E0      		ldi r31,hi8(1568)
 23822               	.LVL1688:
 23823 853e 8583      		std Z+5,r24
 23824               	.LVL1689:
 23825               	.L1530:
 23826 8540 88E8      		ldi r24,lo8(5000)
 23827 8542 93E1      		ldi r25,hi8(5000)
 23828               	.LVL1690:
 23829               	.LBE1249:
 23830               	.LBE1248:
 23831               	.LBB1250:
 23832               	.LBB1251:
 23833               	.LBB1252:
 23834               	.LBB1253:
 23835               	.LM2701:
 23836 8544 20E7      		ldi r18,lo8(368)
 23837 8546 31E0      		ldi r19,hi8(368)
 23838               	.LVL1691:
 23839               	.L1496:
 23840 8548 F901      		movw r30,r18
 23841               	.LVL1692:
 23842               	/* #APP */
 23843               	 ;  105 "/usr/local/CrossPack-AVR-20100115/lib/gcc/avr/4.3.3/../../../../avr/include/util/delay_bas
 23844 854a 3197      		1: sbiw r30,1
 23845 854c 01F4      		brne 1b
 23846               	 ;  0 "" 2
 23847               	/* #NOAPP */
 23848               	.LBE1253:
 23849               	.LBE1252:
 23850               	.LM2702:
 23851 854e 0197      		sbiw r24,1
 23852               	.LM2703:
 23853 8550 01F4      		brne .L1496
 23854               	.LBE1251:
 23855               	.LBE1250:
 23856               	.LM2704:
 23857 8552 0E94 0000 		call display_clearBuffer
 23858               	.LVL1693:
 23859               	.LM2705:
 23860 8556 0E94 0000 		call display_writeBufferToScreen
 23861               	.LM2706:
 23862 855a 30E0      		ldi r19,lo8(temp)
 23863 855c A32E      		mov r10,r19
 23864 855e 30E0      		ldi r19,hi8(temp)
 23865 8560 B32E      		mov r11,r19
 23866               	.LM2707:
 23867 8562 20E0      		ldi r18,lo8(.LC136)
 23868 8564 422E      		mov r4,r18
 23869 8566 20E0      		ldi r18,hi8(.LC136)
 23870 8568 522E      		mov r5,r18
 23871               	.LM2708:
 23872 856a 90E0      		ldi r25,lo8(.LC138)
 23873 856c 292E      		mov r2,r25
 23874 856e 90E0      		ldi r25,hi8(.LC138)
 23875 8570 392E      		mov r3,r25
 23876               	.LM2709:
 23877 8572 80E0      		ldi r24,lo8(.LC124)
 23878 8574 682E      		mov r6,r24
 23879 8576 80E0      		ldi r24,hi8(.LC124)
 23880 8578 782E      		mov r7,r24
 23881               	.LVL1694:
 23882               	.L1429:
 23883               	.LM2710:
 23884 857a 0E94 0000 		call SD_Init
 23885               	.LVL1695:
 23886               	.LM2711:
 23887 857e 84EF      		ldi r24,lo8(500)
 23888 8580 91E0      		ldi r25,hi8(500)
 23889 8582 0E94 0000 		call Wifi_EnterCMDMode
 23890               	.LM2712:
 23891 8586 8091 0000 		lds r24,demoMode
 23892 858a 8823      		tst r24
 23893 858c 01F4      		brne .L1430
 23894               	.LM2713:
 23895 858e 88EE      		ldi r24,lo8(1000)
 23896 8590 93E0      		ldi r25,hi8(1000)
 23897 8592 0E94 0000 		call Wifi_GetTime
 23898 8596 00C0      		rjmp .L1431
 23899               	.L1430:
 23900               	.LM2714:
 23901 8598 8091 0000 		lds r24,demoModeFirstFile
 23902 859c 8823      		tst r24
 23903 859e 01F0      		breq .L1431
 23904               	.LM2715:
 23905 85a0 1092 0000 		sts demoModeFirstFile,__zero_reg__
 23906               	.LM2716:
 23907 85a4 8FEB      		ldi r24,lo8(1928383)
 23908 85a6 9CE6      		ldi r25,hi8(1928383)
 23909 85a8 ADE1      		ldi r26,hlo8(1928383)
 23910 85aa B0E0      		ldi r27,hhi8(1928383)
 23911 85ac 8093 0000 		sts UNIX_time,r24
 23912 85b0 9093 0000 		sts (UNIX_time)+1,r25
 23913 85b4 A093 0000 		sts (UNIX_time)+2,r26
 23914 85b8 B093 0000 		sts (UNIX_time)+3,r27
 23915               	.L1431:
 23916               	.LM2717:
 23917 85bc 84EF      		ldi r24,lo8(500)
 23918 85be 91E0      		ldi r25,hi8(500)
 23919 85c0 0E94 0000 		call Wifi_ExitCMDMode
 23920               	.LM2718:
 23921 85c4 4091 0000 		lds r20,time_secs
 23922 85c8 5091 0000 		lds r21,(time_secs)+1
 23923 85cc 6091 0000 		lds r22,(time_secs)+2
 23924 85d0 7091 0000 		lds r23,(time_secs)+3
 23925 85d4 EDB7      		in r30,__SP_L__
 23926 85d6 FEB7      		in r31,__SP_H__
 23927 85d8 3897      		sbiw r30,8
 23928 85da EDBF      		out __SP_L__,r30
 23929 85dc FEBF      		out __SP_H__,r31
 23930 85de 3196      		adiw r30,1
 23931 85e0 ADB7      		in r26,__SP_L__
 23932 85e2 BEB7      		in r27,__SP_H__
 23933 85e4 1196      		adiw r26,1
 23934 85e6 AD92      		st X+,r10
 23935 85e8 BC92      		st X,r11
 23936 85ea 1297      		sbiw r26,1+1
 23937 85ec 20E0      		ldi r18,lo8(.LC120)
 23938 85ee 30E0      		ldi r19,hi8(.LC120)
 23939 85f0 2283      		std Z+2,r18
 23940 85f2 3383      		std Z+3,r19
 23941 85f4 4483      		std Z+4,r20
 23942 85f6 5583      		std Z+5,r21
 23943 85f8 6683      		std Z+6,r22
 23944 85fa 7783      		std Z+7,r23
 23945 85fc 0E94 0000 		call sprintf
 23946               	.LM2719:
 23947 8600 8DB7      		in r24,__SP_L__
 23948 8602 9EB7      		in r25,__SP_H__
 23949 8604 0896      		adiw r24,8
 23950 8606 8DBF      		out __SP_L__,r24
 23951 8608 9EBF      		out __SP_H__,r25
 23952 860a C501      		movw r24,r10
 23953 860c 61E0      		ldi r22,lo8(1)
 23954 860e 0E94 0000 		call Debug_SendString
 23955               	.LBB1254:
 23956               	.LBB1255:
 23957               	.LM2720:
 23958 8612 00E2      		ldi r16,lo8(1568)
 23959 8614 E02E      		mov r14,r16
 23960 8616 06E0      		ldi r16,hi8(1568)
 23961 8618 F02E      		mov r15,r16
 23962 861a 12E0      		ldi r17,lo8(2)
 23963 861c C12E      		mov r12,r17
 23964               	.LBE1255:
 23965               	.LBE1254:
 23966               	.LBB1257:
 23967               	.LBB1258:
 23968               	.LBB1259:
 23969               	.LBB1260:
 23970               	.LM2721:
 23971 861e 00E7      		ldi r16,lo8(368)
 23972 8620 11E0      		ldi r17,hi8(368)
 23973               	.L1482:
 23974               	.LBE1260:
 23975               	.LBE1259:
 23976               	.LBE1258:
 23977               	.LBE1257:
 23978               	.LM2722:
 23979 8622 6091 0000 		lds r22,UNIX_time
 23980 8626 7091 0000 		lds r23,(UNIX_time)+1
 23981 862a 8091 0000 		lds r24,(UNIX_time)+2
 23982 862e 9091 0000 		lds r25,(UNIX_time)+3
 23983 8632 0E94 0000 		call SD_StartLogFile
 23984 8636 8823      		tst r24
 23985 8638 01F0      		breq .+2
 23986 863a 00C0      		rjmp .L1432
 23987               	.LBB1264:
 23988               	.LBB1265:
 23989               	.LM2723:
 23990 863c E0E2      		ldi r30,lo8(1568)
 23991 863e F6E0      		ldi r31,hi8(1568)
 23992 8640 11E0      		ldi r17,lo8(1)
 23993 8642 1683      		std Z+6,r17
 23994               	.LBE1265:
 23995               	.LBE1264:
 23996               	.LBB1266:
 23997               	.LBB1267:
 23998 8644 80E4      		ldi r24,lo8(64)
 23999 8646 8683      		std Z+6,r24
 24000               	.LBE1267:
 24001               	.LBE1266:
 24002               	.LM2724:
 24003 8648 8091 0000 		lds r24,UNIX_time
 24004 864c 9091 0000 		lds r25,(UNIX_time)+1
 24005 8650 A091 0000 		lds r26,(UNIX_time)+2
 24006 8654 B091 0000 		lds r27,(UNIX_time)+3
 24007 8658 8093 0000 		sts timeRecordingStarted,r24
 24008 865c 9093 0000 		sts (timeRecordingStarted)+1,r25
 24009 8660 A093 0000 		sts (timeRecordingStarted)+2,r26
 24010 8664 B093 0000 		sts (timeRecordingStarted)+3,r27
 24011               	.LM2725:
 24012 8668 80E0      		ldi r24,lo8(.LC26)
 24013 866a 90E0      		ldi r25,hi8(.LC26)
 24014 866c 60E0      		ldi r22,lo8(0)
 24015 866e 0E94 0000 		call Debug_SendString
 24016               	.LM2726:
 24017 8672 0E94 0000 		call Time_Get32BitTimer
 24018 8676 2091 0000 		lds r18,UNIX_time
 24019 867a 3091 0000 		lds r19,(UNIX_time)+1
 24020 867e 4091 0000 		lds r20,(UNIX_time)+2
 24021 8682 5091 0000 		lds r21,(UNIX_time)+3
 24022 8686 0E94 0000 		call SD_WriteRTCBlock
 24023               	.LM2727:
 24024 868a 6091 0000 		lds r22,UNIX_time
 24025 868e 7091 0000 		lds r23,(UNIX_time)+1
 24026 8692 8091 0000 		lds r24,(UNIX_time)+2
 24027 8696 9091 0000 		lds r25,(UNIX_time)+3
 24028 869a 40E0      		ldi r20,lo8(temp)
 24029 869c 50E0      		ldi r21,hi8(temp)
 24030 869e 2AE0      		ldi r18,lo8(10)
 24031 86a0 30E0      		ldi r19,hi8(10)
 24032 86a2 0E94 0000 		call ltoa
 24033 86a6 60E0      		ldi r22,lo8(0)
 24034 86a8 0E94 0000 		call Debug_SendString
 24035               	.LM2728:
 24036 86ac 80E0      		ldi r24,lo8(.LC27)
 24037 86ae 90E0      		ldi r25,hi8(.LC27)
 24038 86b0 60E0      		ldi r22,lo8(0)
 24039 86b2 0E94 0000 		call Debug_SendString
 24040               	.LM2729:
 24041 86b6 0E94 0000 		call Time_Get32BitTimer
 24042 86ba 40E0      		ldi r20,lo8(temp)
 24043 86bc 50E0      		ldi r21,hi8(temp)
 24044 86be 2AE0      		ldi r18,lo8(10)
 24045 86c0 30E0      		ldi r19,hi8(10)
 24046 86c2 0E94 0000 		call ltoa
 24047 86c6 61E0      		ldi r22,lo8(1)
 24048 86c8 0E94 0000 		call Debug_SendString
 24049               	.LBB1268:
 24050               	.LBB1269:
 24051               	.LM2730:
 24052 86cc 8091 0000 		lds r24,Rs232_writeLocation
 24053 86d0 9091 0000 		lds r25,(Rs232_writeLocation)+1
 24054 86d4 8093 0000 		sts Rs232_readLocation,r24
 24055 86d8 9093 0000 		sts (Rs232_readLocation)+1,r25
 24056               	.LBE1269:
 24057               	.LBE1268:
 24058               	.LM2731:
 24059 86dc 1093 0000 		sts rs232Recording,r17
 24060               	.LM2732:
 24061 86e0 1093 0000 		sts recording,r17
 24062               	.LBB1270:
 24063               	.LBB1271:
 24064               	.LBB1272:
 24065               	.LBB1273:
 24066               	.LM2733:
 24067 86e4 B0E7      		ldi r27,lo8(368)
 24068 86e6 8B2E      		mov r8,r27
 24069 86e8 B1E0      		ldi r27,hi8(368)
 24070 86ea 9B2E      		mov r9,r27
 24071               	.LVL1696:
 24072               	.L1512:
 24073               	.LBE1273:
 24074               	.LBE1272:
 24075               	.LBE1271:
 24076               	.LBE1270:
 24077               	.LM2734:
 24078 86ec 8091 0000 		lds r24,ssRefreshCounter
 24079               	.LVL1697:
 24080 86f0 8823      		tst r24
 24081 86f2 01F4      		brne .L1433
 24082               	.LM2735:
 24083 86f4 88EE      		ldi r24,lo8(1000)
 24084 86f6 93E0      		ldi r25,hi8(1000)
 24085 86f8 0E94 0000 		call Wifi_EnterCMDMode
 24086               	.LVL1698:
 24087               	.LM2736:
 24088 86fc 88EE      		ldi r24,lo8(1000)
 24089 86fe 93E0      		ldi r25,hi8(1000)
 24090 8700 0E94 0000 		call Wifi_GetSignalStrength
 24091 8704 8093 0000 		sts signalStrength,r24
 24092               	.LM2737:
 24093 8708 84EF      		ldi r24,lo8(500)
 24094 870a 91E0      		ldi r25,hi8(500)
 24095 870c 0E94 0000 		call Wifi_ExitCMDMode
 24096               	.LVL1699:
 24097               	.L1433:
 24098               	.LM2738:
 24099 8710 8091 0000 		lds r24,ssRefreshCounter
 24100 8714 8F5F      		subi r24,lo8(-(1))
 24101 8716 8093 0000 		sts ssRefreshCounter,r24
 24102               	.LM2739:
 24103 871a 8091 0000 		lds r24,currentMode
 24104 871e 8823      		tst r24
 24105 8720 01F0      		breq .+2
 24106 8722 00C0      		rjmp .L1434
 24107               	.LBB1277:
 24108               	.LBB1278:
 24109               	.LBB1279:
 24110               	.LBB1280:
 24111               	.LM2740:
 24112 8724 8091 A806 		lds r24,1704
 24113               	.LBE1280:
 24114               	.LBE1279:
 24115               	.LM2741:
 24116 8728 8C77      		andi r24,lo8(124)
 24117 872a 82FD      		sbrc r24,2
 24118 872c 00C0      		rjmp .L1434
 24119 872e 00C0      		rjmp .L1538
 24120               	.L1547:
 24121               	.LBE1278:
 24122               	.LBE1277:
 24123               	.LM2742:
 24124 8730 80E0      		ldi r24,lo8(.LC121)
 24125 8732 90E0      		ldi r25,hi8(.LC121)
 24126 8734 60E0      		ldi r22,lo8(0)
 24127 8736 40E0      		ldi r20,lo8(0)
 24128 8738 20E0      		ldi r18,lo8(System5x7)
 24129 873a 30E0      		ldi r19,hi8(System5x7)
 24130 873c 0E94 0000 		call display_putString
 24131               	.LVL1700:
 24132               	.LM2743:
 24133 8740 81E0      		ldi r24,lo8(1)
 24134 8742 6CE3      		ldi r22,lo8(60)
 24135 8744 47E0      		ldi r20,lo8(7)
 24136 8746 2CE3      		ldi r18,lo8(60)
 24137 8748 01E0      		ldi r16,lo8(1)
 24138 874a 0E94 0000 		call display_drawLine
 24139               	.LM2744:
 24140 874e 82E0      		ldi r24,lo8(2)
 24141 8750 6BE3      		ldi r22,lo8(59)
 24142 8752 41E0      		ldi r20,lo8(1)
 24143 8754 0E94 0000 		call display_drawPixel
 24144               	.LM2745:
 24145 8758 83E0      		ldi r24,lo8(3)
 24146 875a 6AE3      		ldi r22,lo8(58)
 24147 875c 41E0      		ldi r20,lo8(1)
 24148 875e 0E94 0000 		call display_drawPixel
 24149               	.LM2746:
 24150 8762 82E0      		ldi r24,lo8(2)
 24151 8764 6DE3      		ldi r22,lo8(61)
 24152 8766 41E0      		ldi r20,lo8(1)
 24153 8768 0E94 0000 		call display_drawPixel
 24154               	.LM2747:
 24155 876c 83E0      		ldi r24,lo8(3)
 24156 876e 6EE3      		ldi r22,lo8(62)
 24157 8770 41E0      		ldi r20,lo8(1)
 24158 8772 0E94 0000 		call display_drawPixel
 24159               	.LM2748:
 24160 8776 0E94 0000 		call display_writeBufferToScreen
 24161               	.LBB1281:
 24162               	.LBB1282:
 24163               	.LM2749:
 24164 877a E0E2      		ldi r30,lo8(1568)
 24165 877c F6E0      		ldi r31,hi8(1568)
 24166 877e 81E0      		ldi r24,lo8(1)
 24167 8780 8683      		std Z+6,r24
 24168               	.LBE1282:
 24169               	.LBE1281:
 24170               	.LBB1283:
 24171               	.LBB1284:
 24172 8782 82E0      		ldi r24,lo8(2)
 24173 8784 8683      		std Z+6,r24
 24174               	.LBE1284:
 24175               	.LBE1283:
 24176               	.LBB1285:
 24177               	.LBB1286:
 24178 8786 80E4      		ldi r24,lo8(64)
 24179 8788 8683      		std Z+6,r24
 24180               	.LBE1286:
 24181               	.LBE1285:
 24182               	.LBB1287:
 24183               	.LBB1288:
 24184 878a 80E8      		ldi r24,lo8(-128)
 24185 878c 8683      		std Z+6,r24
 24186               	.LBE1288:
 24187               	.LBE1287:
 24188               	.LBB1289:
 24189               	.LBB1290:
 24190 878e 80E1      		ldi r24,lo8(16)
 24191 8790 8683      		std Z+6,r24
 24192               	.LBE1290:
 24193               	.LBE1289:
 24194               	.LBB1291:
 24195               	.LBB1292:
 24196 8792 80E2      		ldi r24,lo8(32)
 24197 8794 8683      		std Z+6,r24
 24198 8796 80E1      		ldi r24,lo8(10000)
 24199 8798 97E2      		ldi r25,hi8(10000)
 24200               	.LVL1701:
 24201               	.LBE1292:
 24202               	.LBE1291:
 24203               	.LBB1293:
 24204               	.LBB1294:
 24205               	.LBB1295:
 24206               	.LBB1296:
 24207               	.LM2750:
 24208 879a 20E7      		ldi r18,lo8(368)
 24209 879c 31E0      		ldi r19,hi8(368)
 24210               	.L1436:
 24211 879e F901      		movw r30,r18
 24212               	.LVL1702:
 24213               	/* #APP */
 24214               	 ;  105 "/usr/local/CrossPack-AVR-20100115/lib/gcc/avr/4.3.3/../../../../avr/include/util/delay_bas
 24215 87a0 3197      		1: sbiw r30,1
 24216 87a2 01F4      		brne 1b
 24217               	 ;  0 "" 2
 24218               	/* #NOAPP */
 24219               	.LBE1296:
 24220               	.LBE1295:
 24221               	.LM2751:
 24222 87a4 0197      		sbiw r24,1
 24223               	.LM2752:
 24224 87a6 01F4      		brne .L1436
 24225 87a8 00C0      		rjmp .L1429
 24226               	.LVL1703:
 24227               	.L1434:
 24228               	.LBE1294:
 24229               	.LBE1293:
 24230               	.LM2753:
 24231 87aa 8091 0000 		lds r24,currentMode
 24232 87ae 8823      		tst r24
 24233 87b0 01F0      		breq .+2
 24234 87b2 00C0      		rjmp .L1437
 24235               	.LBB1297:
 24236               	.LBB1298:
 24237               	.LBB1299:
 24238               	.LBB1300:
 24239               	.LM2754:
 24240 87b4 8091 A806 		lds r24,1704
 24241               	.LBE1300:
 24242               	.LBE1299:
 24243               	.LM2755:
 24244 87b8 8C77      		andi r24,lo8(124)
 24245 87ba 82FD      		sbrc r24,2
 24246 87bc 00C0      		rjmp .L1437
 24247 87be 00C0      		rjmp .L1539
 24248               	.L1548:
 24249               	.LBE1298:
 24250               	.LBE1297:
 24251               	.LM2756:
 24252 87c0 1092 0000 		sts rs232Recording,__zero_reg__
 24253               	.LM2757:
 24254 87c4 1092 0000 		sts recording,__zero_reg__
 24255               	.LBB1301:
 24256               	.LBB1302:
 24257               	.LM2758:
 24258 87c8 1092 0000 		sts temperatureBufferCounter,__zero_reg__
 24259               	.LM2759:
 24260 87cc 81E0      		ldi r24,lo8(1)
 24261 87ce 8093 0000 		sts temperatureBufferToWriteTo,r24
 24262               	.LM2760:
 24263 87d2 1092 0000 		sts okToSendTemperatureBuffer1,__zero_reg__
 24264               	.LM2761:
 24265 87d6 1092 0000 		sts okToSendTemperatureBuffer2,__zero_reg__
 24266               	.LBE1302:
 24267               	.LBE1301:
 24268               	.LBB1303:
 24269               	.LBB1304:
 24270               	.LM2762:
 24271 87da 1092 0000 		sts humidityBufferCounter,__zero_reg__
 24272               	.LM2763:
 24273 87de 8093 0000 		sts humidityBufferToWriteTo,r24
 24274               	.LM2764:
 24275 87e2 1092 0000 		sts okToSendHumidityBuffer1,__zero_reg__
 24276               	.LM2765:
 24277 87e6 1092 0000 		sts okToSendHumidityBuffer2,__zero_reg__
 24278               	.LBE1304:
 24279               	.LBE1303:
 24280               	.LBB1305:
 24281               	.LBB1306:
 24282               	.LM2766:
 24283 87ea 1092 0000 		sts pressureBufferCounter,__zero_reg__
 24284               	.LM2767:
 24285 87ee 8093 0000 		sts pressureBufferToWriteTo,r24
 24286               	.LM2768:
 24287 87f2 1092 0000 		sts okToSendPressureBuffer1,__zero_reg__
 24288               	.LM2769:
 24289 87f6 1092 0000 		sts okToSendPressureBuffer2,__zero_reg__
 24290               	.LBE1306:
 24291               	.LBE1305:
 24292               	.LBB1307:
 24293               	.LBB1308:
 24294               	.LM2770:
 24295 87fa 1092 0000 		sts microphoneBufferCounter,__zero_reg__
 24296 87fe 1092 0000 		sts (microphoneBufferCounter)+1,__zero_reg__
 24297               	.LM2771:
 24298 8802 8093 0000 		sts microphoneBufferToWriteTo,r24
 24299               	.LM2772:
 24300 8806 1092 0000 		sts okToSendMicrophoneBuffer1,__zero_reg__
 24301               	.LM2773:
 24302 880a 1092 0000 		sts okToSendMicrophoneBuffer2,__zero_reg__
 24303               	.LBE1308:
 24304               	.LBE1307:
 24305               	.LBB1309:
 24306               	.LBB1310:
 24307               	.LM2774:
 24308 880e 1092 0000 		sts lightBufferCounter,__zero_reg__
 24309               	.LM2775:
 24310 8812 8093 0000 		sts lightBufferToWriteTo,r24
 24311               	.LM2776:
 24312 8816 1092 0000 		sts okToSendLightBuffer1,__zero_reg__
 24313               	.LM2777:
 24314 881a 1092 0000 		sts okToSendLightBuffer2,__zero_reg__
 24315               	.LBE1310:
 24316               	.LBE1309:
 24317               	.LM2778:
 24318 881e 0E94 0000 		call SD_Close
 24319               	.LVL1704:
 24320               	.LM2779:
 24321 8822 80E0      		ldi r24,lo8(.LC122)
 24322 8824 90E0      		ldi r25,hi8(.LC122)
 24323 8826 60E0      		ldi r22,lo8(0)
 24324 8828 40E0      		ldi r20,lo8(0)
 24325 882a 20E0      		ldi r18,lo8(System5x7)
 24326 882c 30E0      		ldi r19,hi8(System5x7)
 24327 882e 0E94 0000 		call display_putString
 24328               	.LM2780:
 24329 8832 81E0      		ldi r24,lo8(1)
 24330 8834 6CE3      		ldi r22,lo8(60)
 24331 8836 47E0      		ldi r20,lo8(7)
 24332 8838 2CE3      		ldi r18,lo8(60)
 24333 883a 01E0      		ldi r16,lo8(1)
 24334 883c 0E94 0000 		call display_drawLine
 24335               	.LM2781:
 24336 8840 82E0      		ldi r24,lo8(2)
 24337 8842 6BE3      		ldi r22,lo8(59)
 24338 8844 41E0      		ldi r20,lo8(1)
 24339 8846 0E94 0000 		call display_drawPixel
 24340               	.LM2782:
 24341 884a 83E0      		ldi r24,lo8(3)
 24342 884c 6AE3      		ldi r22,lo8(58)
 24343 884e 41E0      		ldi r20,lo8(1)
 24344 8850 0E94 0000 		call display_drawPixel
 24345               	.LM2783:
 24346 8854 82E0      		ldi r24,lo8(2)
 24347 8856 6DE3      		ldi r22,lo8(61)
 24348 8858 41E0      		ldi r20,lo8(1)
 24349 885a 0E94 0000 		call display_drawPixel
 24350               	.LM2784:
 24351 885e 83E0      		ldi r24,lo8(3)
 24352 8860 6EE3      		ldi r22,lo8(62)
 24353 8862 41E0      		ldi r20,lo8(1)
 24354 8864 0E94 0000 		call display_drawPixel
 24355               	.LM2785:
 24356 8868 0E94 0000 		call display_writeBufferToScreen
 24357               	.LM2786:
 24358 886c 8091 0000 		lds r24,demoMode
 24359 8870 8823      		tst r24
 24360 8872 01F0      		breq .L1439
 24361               	.LBB1311:
 24362               	.LBB1312:
 24363               	.LM2787:
 24364 8874 80E4      		ldi r24,lo8(64)
 24365 8876 E0E2      		ldi r30,lo8(1568)
 24366 8878 F6E0      		ldi r31,hi8(1568)
 24367 887a 8583      		std Z+5,r24
 24368 887c 00C0      		rjmp .L1440
 24369               	.L1439:
 24370               	.LBE1312:
 24371               	.LBE1311:
 24372               	.LM2788:
 24373 887e 84EF      		ldi r24,lo8(500)
 24374 8880 91E0      		ldi r25,hi8(500)
 24375 8882 0E94 0000 		call Wifi_EnterCMDMode
 24376               	.LM2789:
 24377 8886 84EF      		ldi r24,lo8(500)
 24378 8888 91E0      		ldi r25,hi8(500)
 24379 888a 0E94 0000 		call Wifi_GetTime
 24380 888e 8823      		tst r24
 24381 8890 01F0      		breq .L1441
 24382               	.LBB1313:
 24383               	.LBB1314:
 24384               	.LM2790:
 24385 8892 80E4      		ldi r24,lo8(64)
 24386 8894 00C0      		rjmp .L1532
 24387               	.L1441:
 24388               	.LBE1314:
 24389               	.LBE1313:
 24390               	.LBB1315:
 24391               	.LBB1316:
 24392 8896 80E8      		ldi r24,lo8(-128)
 24393               	.L1532:
 24394 8898 E0E2      		ldi r30,lo8(1568)
 24395 889a F6E0      		ldi r31,hi8(1568)
 24396 889c 8583      		std Z+5,r24
 24397               	.LBE1316:
 24398               	.LBE1315:
 24399               	.LM2791:
 24400 889e 84EF      		ldi r24,lo8(500)
 24401 88a0 91E0      		ldi r25,hi8(500)
 24402 88a2 0E94 0000 		call Wifi_ExitCMDMode
 24403               	.L1440:
 24404               	.LBB1317:
 24405               	.LBB1318:
 24406               	.LM2792:
 24407 88a6 8091 A806 		lds r24,1704
 24408 88aa 80FF      		sbrs r24,0
 24409 88ac 00C0      		rjmp .L1443
 24410               	.LBE1318:
 24411               	.LBE1317:
 24412               	.LBB1319:
 24413               	.LBB1320:
 24414               	.LM2793:
 24415 88ae 82E0      		ldi r24,lo8(2)
 24416               	.L1533:
 24417 88b0 E0E2      		ldi r30,lo8(1568)
 24418 88b2 F6E0      		ldi r31,hi8(1568)
 24419 88b4 8583      		std Z+5,r24
 24420               	.LBE1320:
 24421               	.LBE1319:
 24422               	.LM2794:
 24423 88b6 8091 0000 		lds r24,chargeComplete
 24424 88ba 8823      		tst r24
 24425 88bc 01F4      		brne .L1444
 24426               	.LBB1321:
 24427               	.LBB1322:
 24428               	.LM2795:
 24429 88be 8091 A806 		lds r24,1704
 24430 88c2 81FD      		sbrc r24,1
 24431 88c4 00C0      		rjmp .L1445
 24432 88c6 00C0      		rjmp .L1540
 24433               	.L1444:
 24434               	.LBE1322:
 24435               	.LBE1321:
 24436               	.LBB1323:
 24437               	.LBB1324:
 24438 88c8 8091 A806 		lds r24,1704
 24439 88cc 81FF      		sbrs r24,1
 24440 88ce 00C0      		rjmp .L1447
 24441               	.L1445:
 24442 88d0 88E8      		ldi r24,lo8(5000)
 24443 88d2 93E1      		ldi r25,hi8(5000)
 24444               	.LVL1705:
 24445               	.L1494:
 24446               	.LBE1324:
 24447               	.LBE1323:
 24448               	.LBB1325:
 24449               	.LBB1326:
 24450               	.LBB1327:
 24451               	.LBB1328:
 24452               	.LM2796:
 24453 88d4 F401      		movw r30,r8
 24454               	.LVL1706:
 24455               	/* #APP */
 24456               	 ;  105 "/usr/local/CrossPack-AVR-20100115/lib/gcc/avr/4.3.3/../../../../avr/include/util/delay_bas
 24457 88d6 3197      		1: sbiw r30,1
 24458 88d8 01F4      		brne 1b
 24459               	 ;  0 "" 2
 24460               	/* #NOAPP */
 24461               	.LBE1328:
 24462               	.LBE1327:
 24463               	.LM2797:
 24464 88da 0197      		sbiw r24,1
 24465               	.LM2798:
 24466 88dc 01F4      		brne .L1494
 24467 88de 00C0      		rjmp .L1449
 24468               	.LVL1707:
 24469               	.L1437:
 24470               	.LBE1326:
 24471               	.LBE1325:
 24472               	.LM2799:
 24473 88e0 8091 0000 		lds r24,currentMode
 24474 88e4 8823      		tst r24
 24475 88e6 01F4      		brne .L1450
 24476               	.LBB1329:
 24477               	.LBB1330:
 24478               	.LBB1331:
 24479               	.LBB1332:
 24480               	.LM2800:
 24481 88e8 8091 A806 		lds r24,1704
 24482               	.LBE1332:
 24483               	.LBE1331:
 24484               	.LM2801:
 24485 88ec 8C77      		andi r24,lo8(124)
 24486 88ee 83FF      		sbrs r24,3
 24487 88f0 00C0      		rjmp .L1451
 24488               	.L1450:
 24489               	.LBE1330:
 24490               	.LBE1329:
 24491               	.LM2802:
 24492 88f2 8091 0000 		lds r24,currentMode
 24493 88f6 8130      		cpi r24,lo8(1)
 24494 88f8 01F4      		brne .L1452
 24495               	.LBB1333:
 24496               	.LBB1334:
 24497               	.LBB1335:
 24498               	.LBB1336:
 24499               	.LM2803:
 24500 88fa 8091 A806 		lds r24,1704
 24501               	.LBE1336:
 24502               	.LBE1335:
 24503               	.LM2804:
 24504 88fe 8C77      		andi r24,lo8(124)
 24505 8900 82FD      		sbrc r24,2
 24506 8902 00C0      		rjmp .L1452
 24507 8904 00C0      		rjmp .L1541
 24508               	.LVL1708:
 24509               	.L1454:
 24510               	.LBE1334:
 24511               	.LBE1333:
 24512               	.LBB1337:
 24513               	.LBB1276:
 24514               	.LBB1275:
 24515               	.LBB1274:
 24516               	.LM2805:
 24517 8906 F401      		movw r30,r8
 24518               	.LVL1709:
 24519               	/* #APP */
 24520               	 ;  105 "/usr/local/CrossPack-AVR-20100115/lib/gcc/avr/4.3.3/../../../../avr/include/util/delay_bas
 24521 8908 3197      		1: sbiw r30,1
 24522 890a 01F4      		brne 1b
 24523               	 ;  0 "" 2
 24524               	/* #NOAPP */
 24525               	.LBE1274:
 24526               	.LBE1275:
 24527               	.LM2806:
 24528 890c 0197      		sbiw r24,1
 24529               	.LM2807:
 24530 890e 01F4      		brne .L1454
 24531 8910 00C0      		rjmp .L1449
 24532               	.LVL1710:
 24533               	.L1452:
 24534               	.LBE1276:
 24535               	.LBE1337:
 24536               	.LM2808:
 24537 8912 8091 0000 		lds r24,currentMode
 24538 8916 8823      		tst r24
 24539 8918 01F4      		brne .L1455
 24540 891a 8091 0000 		lds r24,recording
 24541 891e 8823      		tst r24
 24542 8920 01F4      		brne .L1455
 24543               	.LBB1338:
 24544               	.LBB1339:
 24545               	.LM2809:
 24546 8922 8091 A806 		lds r24,1704
 24547 8926 80FF      		sbrs r24,0
 24548 8928 00C0      		rjmp .L1455
 24549               	.LBE1339:
 24550               	.LBE1338:
 24551               	.LBB1340:
 24552               	.LBB1341:
 24553               	.LM2810:
 24554 892a E0E2      		ldi r30,lo8(1568)
 24555 892c F6E0      		ldi r31,hi8(1568)
 24556               	.LVL1711:
 24557 892e 82E0      		ldi r24,lo8(2)
 24558 8930 8583      		std Z+5,r24
 24559               	.LBE1341:
 24560               	.LBE1340:
 24561               	.LBB1342:
 24562               	.LBB1343:
 24563               	.LM2811:
 24564 8932 81E0      		ldi r24,lo8(1)
 24565 8934 8683      		std Z+6,r24
 24566 8936 00C0      		rjmp .L1449
 24567               	.LVL1712:
 24568               	.L1455:
 24569               	.LBE1343:
 24570               	.LBE1342:
 24571               	.LM2812:
 24572 8938 8091 0000 		lds r24,currentMode
 24573 893c 8823      		tst r24
 24574 893e 01F4      		brne .L1449
 24575 8940 8091 0000 		lds r24,recording
 24576 8944 8823      		tst r24
 24577 8946 01F4      		brne .L1449
 24578               	.LBB1344:
 24579               	.LBB1345:
 24580               	.LM2813:
 24581 8948 8091 A806 		lds r24,1704
 24582 894c 80FD      		sbrc r24,0
 24583 894e 00C0      		rjmp .L1449
 24584 8950 00C0      		rjmp .L1542
 24585               	.L1487:
 24586               	.LBE1345:
 24587               	.LBE1344:
 24588               	.LBB1346:
 24589               	.LBB1347:
 24590               	.LM2814:
 24591 8952 E0E2      		ldi r30,lo8(1568)
 24592 8954 F6E0      		ldi r31,hi8(1568)
 24593               	.LVL1713:
 24594 8956 82E0      		ldi r24,lo8(2)
 24595 8958 8683      		std Z+6,r24
 24596               	.LBE1347:
 24597               	.LBE1346:
 24598               	.LBB1348:
 24599               	.LBB1349:
 24600               	.LM2815:
 24601 895a 81E0      		ldi r24,lo8(1)
 24602 895c 8583      		std Z+5,r24
 24603               	.LVL1714:
 24604               	.L1449:
 24605               	.LBE1349:
 24606               	.LBE1348:
 24607               	.LM2816:
 24608 895e 8091 0000 		lds r24,currentMode
 24609               	.LVL1715:
 24610 8962 8823      		tst r24
 24611 8964 01F0      		breq .+2
 24612 8966 00C0      		rjmp .L1457
 24613               	.LM2817:
 24614 8968 8091 0000 		lds r24,recording
 24615 896c 8823      		tst r24
 24616 896e 01F0      		breq .L1458
 24617               	.LM2818:
 24618 8970 6091 0000 		lds r22,UNIX_time
 24619 8974 7091 0000 		lds r23,(UNIX_time)+1
 24620 8978 8091 0000 		lds r24,(UNIX_time)+2
 24621 897c 9091 0000 		lds r25,(UNIX_time)+3
 24622 8980 ADB7      		in r26,__SP_L__
 24623 8982 BEB7      		in r27,__SP_H__
 24624 8984 1897      		sbiw r26,8
 24625 8986 ADBF      		out __SP_L__,r26
 24626 8988 BEBF      		out __SP_H__,r27
 24627 898a 0DB7      		in r16,__SP_L__
 24628 898c 1EB7      		in r17,__SP_H__
 24629 898e 0F5F      		subi r16,lo8(-(1))
 24630 8990 1F4F      		sbci r17,hi8(-(1))
 24631 8992 1196      		adiw r26,1
 24632 8994 AD92      		st X+,r10
 24633 8996 BC92      		st X,r11
 24634 8998 1297      		sbiw r26,1+1
 24635 899a 20E0      		ldi r18,lo8(.LC123)
 24636 899c 30E0      		ldi r19,hi8(.LC123)
 24637 899e F801      		movw r30,r16
 24638               	.LVL1716:
 24639 89a0 2283      		std Z+2,r18
 24640 89a2 3383      		std Z+3,r19
 24641 89a4 2091 0000 		lds r18,timeRecordingStarted
 24642 89a8 3091 0000 		lds r19,(timeRecordingStarted)+1
 24643 89ac 4091 0000 		lds r20,(timeRecordingStarted)+2
 24644 89b0 5091 0000 		lds r21,(timeRecordingStarted)+3
 24645 89b4 621B      		sub r22,r18
 24646 89b6 730B      		sbc r23,r19
 24647 89b8 840B      		sbc r24,r20
 24648 89ba 950B      		sbc r25,r21
 24649 89bc 2CE3      		ldi r18,lo8(60)
 24650 89be 30E0      		ldi r19,hi8(60)
 24651 89c0 40E0      		ldi r20,hlo8(60)
 24652 89c2 50E0      		ldi r21,hhi8(60)
 24653 89c4 0E94 0000 		call __udivmodsi4
 24654 89c8 D801      		movw r26,r16
 24655 89ca 1496      		adiw r26,4
 24656 89cc 2D93      		st X+,r18
 24657 89ce 3D93      		st X+,r19
 24658 89d0 4D93      		st X+,r20
 24659 89d2 5C93      		st X,r21
 24660 89d4 1797      		sbiw r26,4+3
 24661 89d6 0E94 0000 		call sprintf
 24662               	.LM2819:
 24663 89da EDB7      		in r30,__SP_L__
 24664 89dc FEB7      		in r31,__SP_H__
 24665 89de 3896      		adiw r30,8
 24666 89e0 EDBF      		out __SP_L__,r30
 24667 89e2 FEBF      		out __SP_H__,r31
 24668 89e4 C501      		movw r24,r10
 24669 89e6 00C0      		rjmp .L1534
 24670               	.LVL1717:
 24671               	.L1458:
 24672               	.LM2820:
 24673 89e8 80E0      		ldi r24,lo8(.LC122)
 24674 89ea 90E0      		ldi r25,hi8(.LC122)
 24675               	.L1534:
 24676 89ec 60E0      		ldi r22,lo8(0)
 24677 89ee 40E0      		ldi r20,lo8(0)
 24678 89f0 20E0      		ldi r18,lo8(System5x7)
 24679 89f2 30E0      		ldi r19,hi8(System5x7)
 24680 89f4 0E94 0000 		call display_putString
 24681               	.LVL1718:
 24682               	.LM2821:
 24683 89f8 81E0      		ldi r24,lo8(1)
 24684 89fa 6CE3      		ldi r22,lo8(60)
 24685 89fc 47E0      		ldi r20,lo8(7)
 24686 89fe 2CE3      		ldi r18,lo8(60)
 24687 8a00 01E0      		ldi r16,lo8(1)
 24688 8a02 0E94 0000 		call display_drawLine
 24689               	.LM2822:
 24690 8a06 82E0      		ldi r24,lo8(2)
 24691 8a08 6BE3      		ldi r22,lo8(59)
 24692 8a0a 41E0      		ldi r20,lo8(1)
 24693 8a0c 0E94 0000 		call display_drawPixel
 24694               	.LM2823:
 24695 8a10 83E0      		ldi r24,lo8(3)
 24696 8a12 6AE3      		ldi r22,lo8(58)
 24697 8a14 41E0      		ldi r20,lo8(1)
 24698 8a16 0E94 0000 		call display_drawPixel
 24699               	.LM2824:
 24700 8a1a 82E0      		ldi r24,lo8(2)
 24701 8a1c 6DE3      		ldi r22,lo8(61)
 24702 8a1e 41E0      		ldi r20,lo8(1)
 24703 8a20 0E94 0000 		call display_drawPixel
 24704               	.LM2825:
 24705 8a24 83E0      		ldi r24,lo8(3)
 24706 8a26 6EE3      		ldi r22,lo8(62)
 24707 8a28 41E0      		ldi r20,lo8(1)
 24708 8a2a 0E94 0000 		call display_drawPixel
 24709               	.LM2826:
 24710 8a2e 00D0      		rcall .
 24711 8a30 00D0      		rcall .
 24712 8a32 EDB7      		in r30,__SP_L__
 24713 8a34 FEB7      		in r31,__SP_H__
 24714 8a36 3196      		adiw r30,1
 24715 8a38 ADB7      		in r26,__SP_L__
 24716 8a3a BEB7      		in r27,__SP_H__
 24717 8a3c 1196      		adiw r26,1
 24718 8a3e AD92      		st X+,r10
 24719 8a40 BC92      		st X,r11
 24720 8a42 1297      		sbiw r26,1+1
 24721 8a44 6282      		std Z+2,r6
 24722 8a46 7382      		std Z+3,r7
 24723 8a48 8091 0000 		lds r24,uploadPercentBS
 24724 8a4c 8483      		std Z+4,r24
 24725 8a4e 1582      		std Z+5,__zero_reg__
 24726 8a50 0E94 0000 		call sprintf
 24727               	.LM2827:
 24728 8a54 EDB7      		in r30,__SP_L__
 24729 8a56 FEB7      		in r31,__SP_H__
 24730 8a58 3696      		adiw r30,6
 24731 8a5a EDBF      		out __SP_L__,r30
 24732 8a5c FEBF      		out __SP_H__,r31
 24733 8a5e C501      		movw r24,r10
 24734 8a60 60E0      		ldi r22,lo8(.LC125)
 24735 8a62 70E0      		ldi r23,hi8(.LC125)
 24736 8a64 0E94 0000 		call strcat
 24737               	.LM2828:
 24738 8a68 C501      		movw r24,r10
 24739 8a6a 61E0      		ldi r22,lo8(1)
 24740 8a6c 40E0      		ldi r20,lo8(0)
 24741 8a6e 20E0      		ldi r18,lo8(System5x7)
 24742 8a70 30E0      		ldi r19,hi8(System5x7)
 24743 8a72 0E94 0000 		call display_putString
 24744               	.LM2829:
 24745 8a76 8091 0000 		lds r24,chargePercent
 24746 8a7a 8436      		cpi r24,lo8(100)
 24747 8a7c 01F4      		brne .L1460
 24748               	.LM2830:
 24749 8a7e 81E0      		ldi r24,lo8(1)
 24750 8a80 8093 0000 		sts chargeComplete,r24
 24751               	.LM2831:
 24752 8a84 1092 0000 		sts okToCharge,__zero_reg__
 24753               	.L1460:
 24754               	.LBB1350:
 24755               	.LBB1351:
 24756               	.LM2832:
 24757 8a88 8091 A806 		lds r24,1704
 24758 8a8c 81FD      		sbrc r24,1
 24759 8a8e 00C0      		rjmp .L1461
 24760 8a90 00C0      		rjmp .L1543
 24761               	.L1549:
 24762               	.LBE1351:
 24763               	.LBE1350:
 24764               	.LM2833:
 24765 8a92 80E0      		ldi r24,lo8(.LC126)
 24766 8a94 90E0      		ldi r25,hi8(.LC126)
 24767 8a96 63E0      		ldi r22,lo8(3)
 24768 8a98 40E0      		ldi r20,lo8(0)
 24769 8a9a 20E0      		ldi r18,lo8(System5x7)
 24770 8a9c 30E0      		ldi r19,hi8(System5x7)
 24771 8a9e 0E94 0000 		call display_putString
 24772               	.LM2834:
 24773 8aa2 8091 0000 		lds r24,recording
 24774 8aa6 8823      		tst r24
 24775 8aa8 01F0      		breq .+2
 24776 8aaa 00C0      		rjmp .L1463
 24777               	.LBB1352:
 24778               	.LBB1353:
 24779               	.LM2835:
 24780 8aac E0E2      		ldi r30,lo8(1568)
 24781 8aae F6E0      		ldi r31,hi8(1568)
 24782 8ab0 80E2      		ldi r24,lo8(32)
 24783 8ab2 8683      		std Z+6,r24
 24784 8ab4 00C0      		rjmp .L1535
 24785               	.L1461:
 24786               	.LBE1353:
 24787               	.LBE1352:
 24788               	.LBB1354:
 24789               	.LBB1355:
 24790               	.LM2836:
 24791 8ab6 8091 A806 		lds r24,1704
 24792 8aba 81FD      		sbrc r24,1
 24793 8abc 00C0      		rjmp .L1464
 24794 8abe 00C0      		rjmp .L1544
 24795               	.L1550:
 24796               	.LBE1355:
 24797               	.LBE1354:
 24798               	.LM2837:
 24799 8ac0 00D0      		rcall .
 24800 8ac2 00D0      		rcall .
 24801 8ac4 EDB7      		in r30,__SP_L__
 24802 8ac6 FEB7      		in r31,__SP_H__
 24803 8ac8 3196      		adiw r30,1
 24804 8aca ADB7      		in r26,__SP_L__
 24805 8acc BEB7      		in r27,__SP_H__
 24806 8ace 1196      		adiw r26,1
 24807 8ad0 AD92      		st X+,r10
 24808 8ad2 BC92      		st X,r11
 24809 8ad4 1297      		sbiw r26,1+1
 24810 8ad6 20E0      		ldi r18,lo8(.LC127)
 24811 8ad8 30E0      		ldi r19,hi8(.LC127)
 24812 8ada 2283      		std Z+2,r18
 24813 8adc 3383      		std Z+3,r19
 24814 8ade 8091 0000 		lds r24,chargePercent
 24815 8ae2 8483      		std Z+4,r24
 24816 8ae4 1582      		std Z+5,__zero_reg__
 24817 8ae6 0E94 0000 		call sprintf
 24818               	.LM2838:
 24819 8aea 8DB7      		in r24,__SP_L__
 24820 8aec 9EB7      		in r25,__SP_H__
 24821 8aee 0696      		adiw r24,6
 24822 8af0 8DBF      		out __SP_L__,r24
 24823 8af2 9EBF      		out __SP_H__,r25
 24824 8af4 C501      		movw r24,r10
 24825 8af6 60E0      		ldi r22,lo8(.LC125)
 24826 8af8 70E0      		ldi r23,hi8(.LC125)
 24827 8afa 0E94 0000 		call strcat
 24828               	.LM2839:
 24829 8afe C501      		movw r24,r10
 24830 8b00 63E0      		ldi r22,lo8(3)
 24831 8b02 40E0      		ldi r20,lo8(0)
 24832 8b04 20E0      		ldi r18,lo8(System5x7)
 24833 8b06 30E0      		ldi r19,hi8(System5x7)
 24834 8b08 0E94 0000 		call display_putString
 24835               	.LM2840:
 24836 8b0c 11E0      		ldi r17,lo8(1)
 24837 8b0e 1093 0000 		sts okToCharge,r17
 24838               	.LM2841:
 24839 8b12 8091 0000 		lds r24,rtcSynced
 24840 8b16 8823      		tst r24
 24841 8b18 01F4      		brne .L1466
 24842               	.LM2842:
 24843 8b1a 80E0      		ldi r24,lo8(.LC128)
 24844 8b1c 90E0      		ldi r25,hi8(.LC128)
 24845 8b1e 61E0      		ldi r22,lo8(1)
 24846 8b20 0E94 0000 		call Debug_SendString
 24847               	.LM2843:
 24848 8b24 0E94 0000 		call RTC_init
 24849               	.LM2844:
 24850 8b28 6091 0000 		lds r22,UNIX_time
 24851 8b2c 7091 0000 		lds r23,(UNIX_time)+1
 24852 8b30 8091 0000 		lds r24,(UNIX_time)+2
 24853 8b34 9091 0000 		lds r25,(UNIX_time)+3
 24854 8b38 0E94 0000 		call RTC_setUTCSecs
 24855               	.LM2845:
 24856 8b3c 1093 0000 		sts rtcSynced,r17
 24857               	.LM2846:
 24858 8b40 80E0      		ldi r24,lo8(.LC129)
 24859 8b42 90E0      		ldi r25,hi8(.LC129)
 24860 8b44 61E0      		ldi r22,lo8(1)
 24861 8b46 0E94 0000 		call Debug_SendString
 24862               	.L1466:
 24863               	.LM2847:
 24864 8b4a 8091 0000 		lds r24,recording
 24865 8b4e 8823      		tst r24
 24866 8b50 01F4      		brne .L1463
 24867               	.LBB1356:
 24868               	.LBB1357:
 24869               	.LM2848:
 24870 8b52 E0E2      		ldi r30,lo8(1568)
 24871 8b54 F6E0      		ldi r31,hi8(1568)
 24872 8b56 80E2      		ldi r24,lo8(32)
 24873 8b58 8583      		std Z+5,r24
 24874               	.L1535:
 24875               	.LBE1357:
 24876               	.LBE1356:
 24877               	.LBB1358:
 24878               	.LBB1359:
 24879 8b5a 80E1      		ldi r24,lo8(16)
 24880 8b5c 8583      		std Z+5,r24
 24881 8b5e 00C0      		rjmp .L1463
 24882               	.L1464:
 24883               	.LBE1359:
 24884               	.LBE1358:
 24885               	.LM2849:
 24886 8b60 80E0      		ldi r24,lo8(.LC130)
 24887 8b62 90E0      		ldi r25,hi8(.LC130)
 24888 8b64 63E0      		ldi r22,lo8(3)
 24889 8b66 40E0      		ldi r20,lo8(0)
 24890 8b68 20E0      		ldi r18,lo8(System5x7)
 24891 8b6a 30E0      		ldi r19,hi8(System5x7)
 24892 8b6c 0E94 0000 		call display_putString
 24893               	.LM2850:
 24894 8b70 1092 0000 		sts chargePercent,__zero_reg__
 24895               	.LM2851:
 24896 8b74 1092 0000 		sts chargeComplete,__zero_reg__
 24897               	.LM2852:
 24898 8b78 1092 0000 		sts rtcSynced,__zero_reg__
 24899               	.LBB1360:
 24900               	.LBB1361:
 24901               	.LM2853:
 24902 8b7c E0E2      		ldi r30,lo8(1568)
 24903 8b7e F6E0      		ldi r31,hi8(1568)
 24904 8b80 80E2      		ldi r24,lo8(32)
 24905 8b82 8683      		std Z+6,r24
 24906               	.LBE1361:
 24907               	.LBE1360:
 24908               	.LBB1362:
 24909               	.LBB1363:
 24910 8b84 80E1      		ldi r24,lo8(16)
 24911 8b86 8683      		std Z+6,r24
 24912               	.L1463:
 24913               	.LBE1363:
 24914               	.LBE1362:
 24915               	.LM2854:
 24916 8b88 00D0      		rcall .
 24917 8b8a 00D0      		rcall .
 24918 8b8c EDB7      		in r30,__SP_L__
 24919 8b8e FEB7      		in r31,__SP_H__
 24920 8b90 3196      		adiw r30,1
 24921 8b92 ADB7      		in r26,__SP_L__
 24922 8b94 BEB7      		in r27,__SP_H__
 24923 8b96 1196      		adiw r26,1
 24924 8b98 AD92      		st X+,r10
 24925 8b9a BC92      		st X,r11
 24926 8b9c 1297      		sbiw r26,1+1
 24927 8b9e 6282      		std Z+2,r6
 24928 8ba0 7382      		std Z+3,r7
 24929 8ba2 8091 0000 		lds r24,uploadPercentEXT
 24930 8ba6 8483      		std Z+4,r24
 24931 8ba8 1582      		std Z+5,__zero_reg__
 24932 8baa 0E94 0000 		call sprintf
 24933               	.LM2855:
 24934 8bae EDB7      		in r30,__SP_L__
 24935 8bb0 FEB7      		in r31,__SP_H__
 24936 8bb2 3696      		adiw r30,6
 24937 8bb4 EDBF      		out __SP_L__,r30
 24938 8bb6 FEBF      		out __SP_H__,r31
 24939 8bb8 C501      		movw r24,r10
 24940 8bba 60E0      		ldi r22,lo8(.LC125)
 24941 8bbc 70E0      		ldi r23,hi8(.LC125)
 24942 8bbe 0E94 0000 		call strcat
 24943               	.LM2856:
 24944 8bc2 C501      		movw r24,r10
 24945 8bc4 64E0      		ldi r22,lo8(4)
 24946 8bc6 40E0      		ldi r20,lo8(0)
 24947 8bc8 20E0      		ldi r18,lo8(System5x7)
 24948 8bca 30E0      		ldi r19,hi8(System5x7)
 24949 8bcc 0E94 0000 		call display_putString
 24950               	.LM2857:
 24951 8bd0 6091 0000 		lds r22,UNIX_time
 24952 8bd4 7091 0000 		lds r23,(UNIX_time)+1
 24953 8bd8 8091 0000 		lds r24,(UNIX_time)+2
 24954 8bdc 9091 0000 		lds r25,(UNIX_time)+3
 24955 8be0 40E0      		ldi r20,lo8(time)
 24956 8be2 50E0      		ldi r21,hi8(time)
 24957 8be4 0E94 0000 		call RTC_UTCSecsToTime
 24958               	.LM2858:
 24959 8be8 9091 0000 		lds r25,time+3
 24960 8bec 985E      		subi r25,lo8(-(24))
 24961               	.LM2859:
 24962 8bee 8091 0000 		lds r24,timeZoneShift
 24963 8bf2 981B      		sub r25,r24
 24964 8bf4 9093 0000 		sts clockHour,r25
 24965               	.LM2860:
 24966 8bf8 9931      		cpi r25,lo8(25)
 24967 8bfa 00F0      		brlo .L1467
 24968               	.LM2861:
 24969 8bfc 9851      		subi r25,lo8(-(-24))
 24970 8bfe 9093 0000 		sts clockHour,r25
 24971               	.L1467:
 24972               	.LM2862:
 24973 8c02 2DB7      		in r18,__SP_L__
 24974 8c04 3EB7      		in r19,__SP_H__
 24975 8c06 2A50      		subi r18,lo8(-(-10))
 24976 8c08 3040      		sbci r19,hi8(-(-10))
 24977 8c0a 2DBF      		out __SP_L__,r18
 24978 8c0c 3EBF      		out __SP_H__,r19
 24979 8c0e EDB7      		in r30,__SP_L__
 24980 8c10 FEB7      		in r31,__SP_H__
 24981 8c12 3196      		adiw r30,1
 24982 8c14 ADB7      		in r26,__SP_L__
 24983 8c16 BEB7      		in r27,__SP_H__
 24984 8c18 1196      		adiw r26,1
 24985 8c1a AD92      		st X+,r10
 24986 8c1c BC92      		st X,r11
 24987 8c1e 1297      		sbiw r26,1+1
 24988 8c20 20E0      		ldi r18,lo8(.LC131)
 24989 8c22 30E0      		ldi r19,hi8(.LC131)
 24990 8c24 2283      		std Z+2,r18
 24991 8c26 3383      		std Z+3,r19
 24992 8c28 8091 0000 		lds r24,clockHour
 24993 8c2c 8483      		std Z+4,r24
 24994 8c2e 1582      		std Z+5,__zero_reg__
 24995 8c30 8091 0000 		lds r24,time+2
 24996 8c34 8683      		std Z+6,r24
 24997 8c36 1782      		std Z+7,__zero_reg__
 24998 8c38 8091 0000 		lds r24,time+1
 24999 8c3c 8087      		std Z+8,r24
 25000 8c3e 1186      		std Z+9,__zero_reg__
 25001 8c40 0E94 0000 		call sprintf
 25002               	.LM2863:
 25003 8c44 8DB7      		in r24,__SP_L__
 25004 8c46 9EB7      		in r25,__SP_H__
 25005 8c48 0A96      		adiw r24,10
 25006 8c4a 8DBF      		out __SP_L__,r24
 25007 8c4c 9EBF      		out __SP_H__,r25
 25008 8c4e C501      		movw r24,r10
 25009 8c50 60E0      		ldi r22,lo8(zone)
 25010 8c52 70E0      		ldi r23,hi8(zone)
 25011 8c54 0E94 0000 		call strcat
 25012               	.LM2864:
 25013 8c58 C501      		movw r24,r10
 25014 8c5a 66E0      		ldi r22,lo8(6)
 25015 8c5c 40E0      		ldi r20,lo8(0)
 25016 8c5e 20E0      		ldi r18,lo8(System5x7)
 25017 8c60 30E0      		ldi r19,hi8(System5x7)
 25018 8c62 0E94 0000 		call display_putString
 25019               	.LM2865:
 25020 8c66 00D0      		rcall .
 25021 8c68 00D0      		rcall .
 25022 8c6a EDB7      		in r30,__SP_L__
 25023 8c6c FEB7      		in r31,__SP_H__
 25024 8c6e 3196      		adiw r30,1
 25025 8c70 ADB7      		in r26,__SP_L__
 25026 8c72 BEB7      		in r27,__SP_H__
 25027 8c74 1196      		adiw r26,1
 25028 8c76 AD92      		st X+,r10
 25029 8c78 BC92      		st X,r11
 25030 8c7a 1297      		sbiw r26,1+1
 25031 8c7c 20E0      		ldi r18,lo8(.LC132)
 25032 8c7e 30E0      		ldi r19,hi8(.LC132)
 25033 8c80 2283      		std Z+2,r18
 25034 8c82 3383      		std Z+3,r19
 25035 8c84 8091 0000 		lds r24,signalStrength
 25036 8c88 8483      		std Z+4,r24
 25037 8c8a 1582      		std Z+5,__zero_reg__
 25038 8c8c 0E94 0000 		call sprintf
 25039               	.LM2866:
 25040 8c90 8DB7      		in r24,__SP_L__
 25041 8c92 9EB7      		in r25,__SP_H__
 25042 8c94 0696      		adiw r24,6
 25043 8c96 8DBF      		out __SP_L__,r24
 25044 8c98 9EBF      		out __SP_H__,r25
 25045 8c9a C501      		movw r24,r10
 25046 8c9c 60E0      		ldi r22,lo8(.LC133)
 25047 8c9e 70E0      		ldi r23,hi8(.LC133)
 25048 8ca0 0E94 0000 		call strcat
 25049               	.LM2867:
 25050 8ca4 C501      		movw r24,r10
 25051 8ca6 67E0      		ldi r22,lo8(7)
 25052 8ca8 40E0      		ldi r20,lo8(0)
 25053 8caa 20E0      		ldi r18,lo8(System5x7)
 25054 8cac 30E0      		ldi r19,hi8(System5x7)
 25055 8cae 0E94 0000 		call display_putString
 25056               	.LM2868:
 25057 8cb2 88E3      		ldi r24,lo8(56)
 25058 8cb4 62E6      		ldi r22,lo8(98)
 25059 8cb6 4FE3      		ldi r20,lo8(63)
 25060 8cb8 22E6      		ldi r18,lo8(98)
 25061 8cba 01E0      		ldi r16,lo8(1)
 25062 8cbc 0E94 0000 		call display_drawLine
 25063               	.LM2869:
 25064 8cc0 8EE3      		ldi r24,lo8(62)
 25065 8cc2 61E6      		ldi r22,lo8(97)
 25066 8cc4 41E0      		ldi r20,lo8(1)
 25067 8cc6 0E94 0000 		call display_drawPixel
 25068               	.LM2870:
 25069 8cca 8DE3      		ldi r24,lo8(61)
 25070 8ccc 60E6      		ldi r22,lo8(96)
 25071 8cce 41E0      		ldi r20,lo8(1)
 25072 8cd0 0E94 0000 		call display_drawPixel
 25073               	.LM2871:
 25074 8cd4 8EE3      		ldi r24,lo8(62)
 25075 8cd6 63E6      		ldi r22,lo8(99)
 25076 8cd8 41E0      		ldi r20,lo8(1)
 25077 8cda 0E94 0000 		call display_drawPixel
 25078               	.LM2872:
 25079 8cde 8DE3      		ldi r24,lo8(61)
 25080 8ce0 64E6      		ldi r22,lo8(100)
 25081 8ce2 41E0      		ldi r20,lo8(1)
 25082 8ce4 0E94 0000 		call display_drawPixel
 25083               	.LM2873:
 25084 8ce8 0E94 0000 		call display_writeBufferToScreen
 25085 8cec 84EF      		ldi r24,lo8(500)
 25086 8cee 91E0      		ldi r25,hi8(500)
 25087               	.LVL1719:
 25088               	.L1468:
 25089               	.LBB1364:
 25090               	.LBB1365:
 25091               	.LBB1366:
 25092               	.LBB1367:
 25093               	.LM2874:
 25094 8cf0 F401      		movw r30,r8
 25095               	.LVL1720:
 25096               	/* #APP */
 25097               	 ;  105 "/usr/local/CrossPack-AVR-20100115/lib/gcc/avr/4.3.3/../../../../avr/include/util/delay_bas
 25098 8cf2 3197      		1: sbiw r30,1
 25099 8cf4 01F4      		brne 1b
 25100               	 ;  0 "" 2
 25101               	/* #NOAPP */
 25102               	.LBE1367:
 25103               	.LBE1366:
 25104               	.LM2875:
 25105 8cf6 0197      		sbiw r24,1
 25106               	.LM2876:
 25107 8cf8 01F4      		brne .L1468
 25108 8cfa 00C0      		rjmp .L1512
 25109               	.LVL1721:
 25110               	.L1457:
 25111               	.LBE1365:
 25112               	.LBE1364:
 25113               	.LM2877:
 25114 8cfc 8091 0000 		lds r24,currentMode
 25115 8d00 8130      		cpi r24,lo8(1)
 25116 8d02 01F0      		breq .+2
 25117 8d04 00C0      		rjmp .L1512
 25118               	.LM2878:
 25119 8d06 0E94 0000 		call display_clearBuffer
 25120               	.LVL1722:
 25121               	.LM2879:
 25122 8d0a 80E0      		ldi r24,lo8(.LC134)
 25123 8d0c 90E0      		ldi r25,hi8(.LC134)
 25124 8d0e 60E0      		ldi r22,lo8(0)
 25125 8d10 40E0      		ldi r20,lo8(0)
 25126 8d12 20E0      		ldi r18,lo8(System5x7)
 25127 8d14 30E0      		ldi r19,hi8(System5x7)
 25128 8d16 0E94 0000 		call display_putString
 25129               	.LM2880:
 25130 8d1a 88E0      		ldi r24,lo8(8)
 25131 8d1c 6FE0      		ldi r22,lo8(15)
 25132 8d1e 48E0      		ldi r20,lo8(8)
 25133 8d20 2DE3      		ldi r18,lo8(61)
 25134 8d22 01E0      		ldi r16,lo8(1)
 25135 8d24 0E94 0000 		call display_drawLine
 25136               	.LM2881:
 25137 8d28 81E0      		ldi r24,lo8(1)
 25138 8d2a 63E6      		ldi r22,lo8(99)
 25139 8d2c 47E0      		ldi r20,lo8(7)
 25140 8d2e 23E6      		ldi r18,lo8(99)
 25141 8d30 0E94 0000 		call display_drawLine
 25142               	.LM2882:
 25143 8d34 82E0      		ldi r24,lo8(2)
 25144 8d36 62E6      		ldi r22,lo8(98)
 25145 8d38 41E0      		ldi r20,lo8(1)
 25146 8d3a 0E94 0000 		call display_drawPixel
 25147               	.LM2883:
 25148 8d3e 83E0      		ldi r24,lo8(3)
 25149 8d40 61E6      		ldi r22,lo8(97)
 25150 8d42 41E0      		ldi r20,lo8(1)
 25151 8d44 0E94 0000 		call display_drawPixel
 25152               	.LM2884:
 25153 8d48 82E0      		ldi r24,lo8(2)
 25154 8d4a 64E6      		ldi r22,lo8(100)
 25155 8d4c 41E0      		ldi r20,lo8(1)
 25156 8d4e 0E94 0000 		call display_drawPixel
 25157               	.LM2885:
 25158 8d52 83E0      		ldi r24,lo8(3)
 25159 8d54 65E6      		ldi r22,lo8(101)
 25160 8d56 41E0      		ldi r20,lo8(1)
 25161 8d58 0E94 0000 		call display_drawPixel
 25162               	.LM2886:
 25163 8d5c 00D0      		rcall .
 25164 8d5e 00D0      		rcall .
 25165 8d60 EDB7      		in r30,__SP_L__
 25166 8d62 FEB7      		in r31,__SP_H__
 25167 8d64 3196      		adiw r30,1
 25168 8d66 ADB7      		in r26,__SP_L__
 25169 8d68 BEB7      		in r27,__SP_H__
 25170 8d6a 1196      		adiw r26,1
 25171 8d6c AD92      		st X+,r10
 25172 8d6e BC92      		st X,r11
 25173 8d70 1297      		sbiw r26,1+1
 25174 8d72 20E0      		ldi r18,lo8(.LC135)
 25175 8d74 30E0      		ldi r19,hi8(.LC135)
 25176 8d76 2283      		std Z+2,r18
 25177 8d78 3383      		std Z+3,r19
 25178 8d7a 8091 0000 		lds r24,quickTemperature
 25179 8d7e 8483      		std Z+4,r24
 25180 8d80 1582      		std Z+5,__zero_reg__
 25181 8d82 0E94 0000 		call sprintf
 25182               	.LM2887:
 25183 8d86 8DB7      		in r24,__SP_L__
 25184 8d88 9EB7      		in r25,__SP_H__
 25185 8d8a 0696      		adiw r24,6
 25186 8d8c 8DBF      		out __SP_L__,r24
 25187 8d8e 9EBF      		out __SP_H__,r25
 25188 8d90 C501      		movw r24,r10
 25189 8d92 62E0      		ldi r22,lo8(2)
 25190 8d94 40E0      		ldi r20,lo8(0)
 25191 8d96 20E0      		ldi r18,lo8(System5x7)
 25192 8d98 30E0      		ldi r19,hi8(System5x7)
 25193 8d9a 0E94 0000 		call display_putString
 25194               	.LM2888:
 25195 8d9e 00D0      		rcall .
 25196 8da0 00D0      		rcall .
 25197 8da2 EDB7      		in r30,__SP_L__
 25198 8da4 FEB7      		in r31,__SP_H__
 25199 8da6 3196      		adiw r30,1
 25200 8da8 ADB7      		in r26,__SP_L__
 25201 8daa BEB7      		in r27,__SP_H__
 25202 8dac 1196      		adiw r26,1
 25203 8dae AD92      		st X+,r10
 25204 8db0 BC92      		st X,r11
 25205 8db2 1297      		sbiw r26,1+1
 25206 8db4 4282      		std Z+2,r4
 25207 8db6 5382      		std Z+3,r5
 25208 8db8 8091 0000 		lds r24,quickHumidity
 25209 8dbc 8483      		std Z+4,r24
 25210 8dbe 1582      		std Z+5,__zero_reg__
 25211 8dc0 0E94 0000 		call sprintf
 25212               	.LM2889:
 25213 8dc4 EDB7      		in r30,__SP_L__
 25214 8dc6 FEB7      		in r31,__SP_H__
 25215 8dc8 3696      		adiw r30,6
 25216 8dca EDBF      		out __SP_L__,r30
 25217 8dcc FEBF      		out __SP_H__,r31
 25218 8dce C501      		movw r24,r10
 25219 8dd0 60E0      		ldi r22,lo8(.LC137)
 25220 8dd2 70E0      		ldi r23,hi8(.LC137)
 25221 8dd4 0E94 0000 		call strcat
 25222               	.LM2890:
 25223 8dd8 C501      		movw r24,r10
 25224 8dda 63E0      		ldi r22,lo8(3)
 25225 8ddc 40E0      		ldi r20,lo8(0)
 25226 8dde 20E0      		ldi r18,lo8(System5x7)
 25227 8de0 30E0      		ldi r19,hi8(System5x7)
 25228 8de2 0E94 0000 		call display_putString
 25229               	.LM2891:
 25230 8de6 00D0      		rcall .
 25231 8de8 00D0      		rcall .
 25232 8dea EDB7      		in r30,__SP_L__
 25233 8dec FEB7      		in r31,__SP_H__
 25234 8dee 3196      		adiw r30,1
 25235 8df0 ADB7      		in r26,__SP_L__
 25236 8df2 BEB7      		in r27,__SP_H__
 25237 8df4 1196      		adiw r26,1
 25238 8df6 AD92      		st X+,r10
 25239 8df8 BC92      		st X,r11
 25240 8dfa 1297      		sbiw r26,1+1
 25241 8dfc 2282      		std Z+2,r2
 25242 8dfe 3382      		std Z+3,r3
 25243 8e00 8091 0000 		lds r24,quickPressure
 25244 8e04 8483      		std Z+4,r24
 25245 8e06 1582      		std Z+5,__zero_reg__
 25246 8e08 0E94 0000 		call sprintf
 25247               	.LM2892:
 25248 8e0c EDB7      		in r30,__SP_L__
 25249 8e0e FEB7      		in r31,__SP_H__
 25250 8e10 3696      		adiw r30,6
 25251 8e12 EDBF      		out __SP_L__,r30
 25252 8e14 FEBF      		out __SP_H__,r31
 25253 8e16 C501      		movw r24,r10
 25254 8e18 64E0      		ldi r22,lo8(4)
 25255 8e1a 40E0      		ldi r20,lo8(0)
 25256 8e1c 20E0      		ldi r18,lo8(System5x7)
 25257 8e1e 30E0      		ldi r19,hi8(System5x7)
 25258 8e20 0E94 0000 		call display_putString
 25259               	.LM2893:
 25260 8e24 00D0      		rcall .
 25261 8e26 00D0      		rcall .
 25262 8e28 EDB7      		in r30,__SP_L__
 25263 8e2a FEB7      		in r31,__SP_H__
 25264 8e2c 3196      		adiw r30,1
 25265 8e2e ADB7      		in r26,__SP_L__
 25266 8e30 BEB7      		in r27,__SP_H__
 25267 8e32 1196      		adiw r26,1
 25268 8e34 AD92      		st X+,r10
 25269 8e36 BC92      		st X,r11
 25270 8e38 1297      		sbiw r26,1+1
 25271 8e3a 20E0      		ldi r18,lo8(.LC139)
 25272 8e3c 30E0      		ldi r19,hi8(.LC139)
 25273 8e3e 2283      		std Z+2,r18
 25274 8e40 3383      		std Z+3,r19
 25275 8e42 8091 0000 		lds r24,quickLight
 25276 8e46 9091 0000 		lds r25,(quickLight)+1
 25277 8e4a 8483      		std Z+4,r24
 25278 8e4c 9583      		std Z+5,r25
 25279 8e4e 0E94 0000 		call sprintf
 25280               	.LM2894:
 25281 8e52 8DB7      		in r24,__SP_L__
 25282 8e54 9EB7      		in r25,__SP_H__
 25283 8e56 0696      		adiw r24,6
 25284 8e58 8DBF      		out __SP_L__,r24
 25285 8e5a 9EBF      		out __SP_H__,r25
 25286 8e5c C501      		movw r24,r10
 25287 8e5e 65E0      		ldi r22,lo8(5)
 25288 8e60 40E0      		ldi r20,lo8(0)
 25289 8e62 20E0      		ldi r18,lo8(System5x7)
 25290 8e64 30E0      		ldi r19,hi8(System5x7)
 25291 8e66 0E94 0000 		call display_putString
 25292               	.LM2895:
 25293 8e6a ADB7      		in r26,__SP_L__
 25294 8e6c BEB7      		in r27,__SP_H__
 25295 8e6e 1C97      		sbiw r26,12
 25296 8e70 ADBF      		out __SP_L__,r26
 25297 8e72 BEBF      		out __SP_H__,r27
 25298 8e74 EDB7      		in r30,__SP_L__
 25299 8e76 FEB7      		in r31,__SP_H__
 25300 8e78 3196      		adiw r30,1
 25301 8e7a 1196      		adiw r26,1
 25302 8e7c AD92      		st X+,r10
 25303 8e7e BC92      		st X,r11
 25304 8e80 1297      		sbiw r26,1+1
 25305 8e82 20E0      		ldi r18,lo8(.LC140)
 25306 8e84 30E0      		ldi r19,hi8(.LC140)
 25307 8e86 2283      		std Z+2,r18
 25308 8e88 3383      		std Z+3,r19
 25309 8e8a 8091 0000 		lds r24,quickSmall
 25310 8e8e 9091 0000 		lds r25,(quickSmall)+1
 25311 8e92 A091 0000 		lds r26,(quickSmall)+2
 25312 8e96 B091 0000 		lds r27,(quickSmall)+3
 25313 8e9a 8483      		std Z+4,r24
 25314 8e9c 9583      		std Z+5,r25
 25315 8e9e A683      		std Z+6,r26
 25316 8ea0 B783      		std Z+7,r27
 25317 8ea2 8091 0000 		lds r24,quickLarge
 25318 8ea6 9091 0000 		lds r25,(quickLarge)+1
 25319 8eaa A091 0000 		lds r26,(quickLarge)+2
 25320 8eae B091 0000 		lds r27,(quickLarge)+3
 25321 8eb2 8087      		std Z+8,r24
 25322 8eb4 9187      		std Z+9,r25
 25323 8eb6 A287      		std Z+10,r26
 25324 8eb8 B387      		std Z+11,r27
 25325 8eba 0E94 0000 		call sprintf
 25326               	.LM2896:
 25327 8ebe 8DB7      		in r24,__SP_L__
 25328 8ec0 9EB7      		in r25,__SP_H__
 25329 8ec2 0C96      		adiw r24,12
 25330 8ec4 8DBF      		out __SP_L__,r24
 25331 8ec6 9EBF      		out __SP_H__,r25
 25332 8ec8 C501      		movw r24,r10
 25333 8eca 66E0      		ldi r22,lo8(6)
 25334 8ecc 40E0      		ldi r20,lo8(0)
 25335 8ece 20E0      		ldi r18,lo8(System5x7)
 25336 8ed0 30E0      		ldi r19,hi8(System5x7)
 25337 8ed2 0E94 0000 		call display_putString
 25338               	.LM2897:
 25339 8ed6 80E0      		ldi r24,lo8(.LC141)
 25340 8ed8 90E0      		ldi r25,hi8(.LC141)
 25341 8eda 67E0      		ldi r22,lo8(7)
 25342 8edc 40E0      		ldi r20,lo8(0)
 25343 8ede 20E0      		ldi r18,lo8(System5x7)
 25344 8ee0 30E0      		ldi r19,hi8(System5x7)
 25345 8ee2 0E94 0000 		call display_putString
 25346               	.LM2898:
 25347 8ee6 2091 0000 		lds r18,quickMic
 25348 8eea 2695      		lsr r18
 25349 8eec 89E3      		ldi r24,lo8(57)
 25350 8eee 62E3      		ldi r22,lo8(50)
 25351 8ef0 47E0      		ldi r20,lo8(7)
 25352 8ef2 EE24      		clr r14
 25353 8ef4 CC24      		clr r12
 25354 8ef6 C394      		inc r12
 25355 8ef8 0E94 0000 		call display_drawRectangle
 25356               	.LM2899:
 25357 8efc 0E94 0000 		call display_writeBufferToScreen
 25358 8f00 84EF      		ldi r24,lo8(500)
 25359 8f02 91E0      		ldi r25,hi8(500)
 25360               	.LVL1723:
 25361               	.L1470:
 25362               	.LBB1368:
 25363               	.LBB1369:
 25364               	.LBB1370:
 25365               	.LBB1371:
 25366               	.LM2900:
 25367 8f04 F401      		movw r30,r8
 25368               	.LVL1724:
 25369               	/* #APP */
 25370               	 ;  105 "/usr/local/CrossPack-AVR-20100115/lib/gcc/avr/4.3.3/../../../../avr/include/util/delay_bas
 25371 8f06 3197      		1: sbiw r30,1
 25372 8f08 01F4      		brne 1b
 25373               	 ;  0 "" 2
 25374               	/* #NOAPP */
 25375               	.LBE1371:
 25376               	.LBE1370:
 25377               	.LM2901:
 25378 8f0a 0197      		sbiw r24,1
 25379               	.LM2902:
 25380 8f0c 01F4      		brne .L1470
 25381               	.LBE1369:
 25382               	.LBE1368:
 25383               	.LM2903:
 25384 8f0e 8091 0000 		lds r24,chargePercent
 25385               	.LVL1725:
 25386 8f12 8436      		cpi r24,lo8(100)
 25387 8f14 01F4      		brne .L1471
 25388               	.LM2904:
 25389 8f16 81E0      		ldi r24,lo8(1)
 25390 8f18 8093 0000 		sts chargeComplete,r24
 25391               	.LM2905:
 25392 8f1c 1092 0000 		sts okToCharge,__zero_reg__
 25393               	.L1471:
 25394               	.LBB1372:
 25395               	.LBB1373:
 25396               	.LM2906:
 25397 8f20 8091 A806 		lds r24,1704
 25398 8f24 81FD      		sbrc r24,1
 25399 8f26 00C0      		rjmp .L1472
 25400 8f28 00C0      		rjmp .L1545
 25401               	.L1551:
 25402               	.LBE1373:
 25403               	.LBE1372:
 25404               	.LM2907:
 25405 8f2a 8091 0000 		lds r24,recording
 25406 8f2e 8823      		tst r24
 25407 8f30 01F4      		brne .L1472
 25408               	.LBB1374:
 25409               	.LBB1375:
 25410               	.LM2908:
 25411 8f32 E0E2      		ldi r30,lo8(1568)
 25412 8f34 F6E0      		ldi r31,hi8(1568)
 25413               	.LVL1726:
 25414 8f36 80E2      		ldi r24,lo8(32)
 25415 8f38 8683      		std Z+6,r24
 25416 8f3a 00C0      		rjmp .L1531
 25417               	.LVL1727:
 25418               	.L1472:
 25419               	.LBE1375:
 25420               	.LBE1374:
 25421               	.LBB1376:
 25422               	.LBB1377:
 25423               	.LM2909:
 25424 8f3c 8091 A806 		lds r24,1704
 25425 8f40 81FD      		sbrc r24,1
 25426 8f42 00C0      		rjmp .L1474
 25427 8f44 00C0      		rjmp .L1546
 25428               	.L1552:
 25429               	.LBE1377:
 25430               	.LBE1376:
 25431               	.LM2910:
 25432 8f46 81E0      		ldi r24,lo8(1)
 25433 8f48 8093 0000 		sts okToCharge,r24
 25434               	.LM2911:
 25435 8f4c 8091 0000 		lds r24,rtcSynced
 25436 8f50 8823      		tst r24
 25437 8f52 01F4      		brne .L1476
 25438               	.LM2912:
 25439 8f54 80E0      		ldi r24,lo8(.LC128)
 25440 8f56 90E0      		ldi r25,hi8(.LC128)
 25441 8f58 61E0      		ldi r22,lo8(1)
 25442 8f5a 0E94 0000 		call Debug_SendString
 25443               	.LVL1728:
 25444               	.LM2913:
 25445 8f5e 8091 0000 		lds r24,demoMode
 25446 8f62 8823      		tst r24
 25447 8f64 01F4      		brne .L1477
 25448               	.LM2914:
 25449 8f66 0E94 0000 		call RTC_init
 25450               	.LM2915:
 25451 8f6a 6091 0000 		lds r22,UNIX_time
 25452 8f6e 7091 0000 		lds r23,(UNIX_time)+1
 25453 8f72 8091 0000 		lds r24,(UNIX_time)+2
 25454 8f76 9091 0000 		lds r25,(UNIX_time)+3
 25455 8f7a 0E94 0000 		call RTC_setUTCSecs
 25456               	.L1477:
 25457               	.LM2916:
 25458 8f7e 81E0      		ldi r24,lo8(1)
 25459 8f80 8093 0000 		sts rtcSynced,r24
 25460               	.LVL1729:
 25461               	.L1476:
 25462               	.LM2917:
 25463 8f84 8091 0000 		lds r24,recording
 25464 8f88 8823      		tst r24
 25465 8f8a 01F0      		breq .+2
 25466 8f8c 00C0      		rjmp .L1512
 25467               	.LBB1378:
 25468               	.LBB1379:
 25469               	.LM2918:
 25470 8f8e E0E2      		ldi r30,lo8(1568)
 25471 8f90 F6E0      		ldi r31,hi8(1568)
 25472               	.LVL1730:
 25473 8f92 80E2      		ldi r24,lo8(32)
 25474 8f94 8583      		std Z+5,r24
 25475               	.L1531:
 25476               	.LBE1379:
 25477               	.LBE1378:
 25478               	.LBB1380:
 25479               	.LBB1381:
 25480 8f96 80E1      		ldi r24,lo8(16)
 25481 8f98 8583      		std Z+5,r24
 25482 8f9a 00C0      		rjmp .L1512
 25483               	.LVL1731:
 25484               	.L1474:
 25485               	.LBE1381:
 25486               	.LBE1380:
 25487               	.LM2919:
 25488 8f9c 1092 0000 		sts chargePercent,__zero_reg__
 25489               	.LM2920:
 25490 8fa0 1092 0000 		sts chargeComplete,__zero_reg__
 25491               	.LM2921:
 25492 8fa4 1092 0000 		sts rtcSynced,__zero_reg__
 25493               	.LBB1382:
 25494               	.LBB1383:
 25495               	.LM2922:
 25496 8fa8 E0E2      		ldi r30,lo8(1568)
 25497 8faa F6E0      		ldi r31,hi8(1568)
 25498               	.LVL1732:
 25499 8fac 80E2      		ldi r24,lo8(32)
 25500 8fae 8683      		std Z+6,r24
 25501               	.LBE1383:
 25502               	.LBE1382:
 25503               	.LBB1384:
 25504               	.LBB1385:
 25505 8fb0 80E1      		ldi r24,lo8(16)
 25506 8fb2 8683      		std Z+6,r24
 25507 8fb4 00C0      		rjmp .L1512
 25508               	.L1432:
 25509               	.LBE1385:
 25510               	.LBE1384:
 25511               	.LBB1386:
 25512               	.LBB1256:
 25513               	.LM2923:
 25514 8fb6 D701      		movw r26,r14
 25515 8fb8 1596      		adiw r26,5
 25516 8fba CC92      		st X,r12
 25517               	.LBE1256:
 25518               	.LBE1386:
 25519               	.LM2924:
 25520 8fbc 0E94 0000 		call display_clearBuffer
 25521               	.LM2925:
 25522 8fc0 0E94 0000 		call display_writeBufferToScreen
 25523               	.LM2926:
 25524 8fc4 80E0      		ldi r24,lo8(.LC142)
 25525 8fc6 90E0      		ldi r25,hi8(.LC142)
 25526 8fc8 63E0      		ldi r22,lo8(3)
 25527 8fca 40E0      		ldi r20,lo8(0)
 25528 8fcc 20E0      		ldi r18,lo8(System5x7)
 25529 8fce 30E0      		ldi r19,hi8(System5x7)
 25530 8fd0 0E94 0000 		call display_putString
 25531               	.LM2927:
 25532 8fd4 80E0      		ldi r24,lo8(.LC143)
 25533 8fd6 90E0      		ldi r25,hi8(.LC143)
 25534 8fd8 66E0      		ldi r22,lo8(6)
 25535 8fda 40E0      		ldi r20,lo8(0)
 25536 8fdc 20E0      		ldi r18,lo8(System5x7)
 25537 8fde 30E0      		ldi r19,hi8(System5x7)
 25538 8fe0 0E94 0000 		call display_putString
 25539               	.LM2928:
 25540 8fe4 80E0      		ldi r24,lo8(.LC144)
 25541 8fe6 90E0      		ldi r25,hi8(.LC144)
 25542 8fe8 67E0      		ldi r22,lo8(7)
 25543 8fea 40E0      		ldi r20,lo8(0)
 25544 8fec 20E0      		ldi r18,lo8(System5x7)
 25545 8fee 30E0      		ldi r19,hi8(System5x7)
 25546 8ff0 0E94 0000 		call display_putString
 25547               	.LM2929:
 25548 8ff4 0E94 0000 		call display_writeBufferToScreen
 25549               	.L1478:
 25550               	.LBB1387:
 25551               	.LBB1388:
 25552               	.LM2930:
 25553 8ff8 8091 A806 		lds r24,1704
 25554 8ffc 80FF      		sbrs r24,0
 25555 8ffe 00C0      		rjmp .L1478
 25556 9000 88EE      		ldi r24,lo8(1000)
 25557 9002 93E0      		ldi r25,hi8(1000)
 25558               	.LVL1733:
 25559               	.L1479:
 25560               	.LBE1388:
 25561               	.LBE1387:
 25562               	.LBB1389:
 25563               	.LBB1263:
 25564               	.LBB1262:
 25565               	.LBB1261:
 25566               	.LM2931:
 25567 9004 F801      		movw r30,r16
 25568               	.LVL1734:
 25569               	/* #APP */
 25570               	 ;  105 "/usr/local/CrossPack-AVR-20100115/lib/gcc/avr/4.3.3/../../../../avr/include/util/delay_bas
 25571 9006 3197      		1: sbiw r30,1
 25572 9008 01F4      		brne 1b
 25573               	 ;  0 "" 2
 25574               	/* #NOAPP */
 25575               	.LBE1261:
 25576               	.LBE1262:
 25577               	.LM2932:
 25578 900a 0197      		sbiw r24,1
 25579               	.LM2933:
 25580 900c 01F4      		brne .L1479
 25581               	.L1495:
 25582               	.LBE1263:
 25583               	.LBE1389:
 25584               	.LBB1390:
 25585               	.LBB1391:
 25586               	.LM2934:
 25587 900e 8091 A806 		lds r24,1704
 25588               	.LVL1735:
 25589 9012 80FD      		sbrc r24,0
 25590 9014 00C0      		rjmp .L1495
 25591 9016 88EE      		ldi r24,lo8(1000)
 25592 9018 93E0      		ldi r25,hi8(1000)
 25593               	.LVL1736:
 25594               	.L1481:
 25595               	.LBE1391:
 25596               	.LBE1390:
 25597               	.LBB1392:
 25598               	.LBB1393:
 25599               	.LBB1394:
 25600               	.LBB1395:
 25601               	.LM2935:
 25602 901a F801      		movw r30,r16
 25603               	.LVL1737:
 25604               	/* #APP */
 25605               	 ;  105 "/usr/local/CrossPack-AVR-20100115/lib/gcc/avr/4.3.3/../../../../avr/include/util/delay_bas
 25606 901c 3197      		1: sbiw r30,1
 25607 901e 01F4      		brne 1b
 25608               	 ;  0 "" 2
 25609               	/* #NOAPP */
 25610               	.LBE1395:
 25611               	.LBE1394:
 25612               	.LM2936:
 25613 9020 0197      		sbiw r24,1
 25614               	.LM2937:
 25615 9022 01F4      		brne .L1481
 25616               	.LBE1393:
 25617               	.LBE1392:
 25618               	.LM2938:
 25619 9024 0E94 0000 		call SD_Init
 25620               	.LVL1738:
 25621 9028 00C0      		rjmp .L1482
 25622               	.L1416:
 25623               	.LM2939:
 25624 902a 80E0      		ldi r24,lo8(.LC145)
 25625 902c 90E0      		ldi r25,hi8(.LC145)
 25626 902e 61E0      		ldi r22,lo8(1)
 25627 9030 0E94 0000 		call Debug_SendString
 25628               	.LM2940:
 25629 9034 0E94 0000 		call Debug_To_Wifi
 25630 9038 00C0      		rjmp .L1483
 25631               	.LVL1739:
 25632               	.L1421:
 25633               	.LBB1396:
 25634               	.LBB1397:
 25635               	.LM2941:
 25636 903a E0E2      		ldi r30,lo8(1568)
 25637 903c F6E0      		ldi r31,hi8(1568)
 25638               	.LVL1740:
 25639 903e 82E0      		ldi r24,lo8(2)
 25640 9040 8683      		std Z+6,r24
 25641               	.LBE1397:
 25642               	.LBE1396:
 25643               	.LBB1398:
 25644               	.LBB1399:
 25645               	.LM2942:
 25646 9042 81E0      		ldi r24,lo8(1)
 25647 9044 8583      		std Z+5,r24
 25648 9046 20E1      		ldi r18,lo8(10000)
 25649 9048 37E2      		ldi r19,hi8(10000)
 25650               	.LVL1741:
 25651               	.LBE1399:
 25652               	.LBE1398:
 25653               	.LBB1400:
 25654               	.LBB1239:
 25655               	.LBB1238:
 25656               	.LBB1237:
 25657               	.LM2943:
 25658 904a 40E7      		ldi r20,lo8(368)
 25659 904c 51E0      		ldi r21,hi8(368)
 25660 904e 00C0      		rjmp .L1422
 25661               	.LVL1742:
 25662               	.L1538:
 25663               	.LBE1237:
 25664               	.LBE1238:
 25665               	.LBE1239:
 25666               	.LBE1400:
 25667               	.LM2944:
 25668 9050 8091 0000 		lds r24,recording
 25669 9054 8823      		tst r24
 25670 9056 01F0      		breq .+2
 25671 9058 00C0      		rjmp .L1434
 25672 905a 00C0      		rjmp .L1547
 25673               	.L1539:
 25674               	.LM2945:
 25675 905c 8091 0000 		lds r24,recording
 25676 9060 8823      		tst r24
 25677 9062 01F4      		brne .+2
 25678 9064 00C0      		rjmp .L1437
 25679 9066 00C0      		rjmp .L1548
 25680               	.LVL1743:
 25681               	.L1443:
 25682               	.LBB1401:
 25683               	.LBB1402:
 25684               	.LM2946:
 25685 9068 81E0      		ldi r24,lo8(1)
 25686 906a 00C0      		rjmp .L1533
 25687               	.L1540:
 25688               	.LBE1402:
 25689               	.LBE1401:
 25690               	.LBB1403:
 25691               	.LBB1404:
 25692 906c E0E2      		ldi r30,lo8(1568)
 25693 906e F6E0      		ldi r31,hi8(1568)
 25694 9070 80E2      		ldi r24,lo8(32)
 25695 9072 8583      		std Z+5,r24
 25696 9074 00C0      		rjmp .L1536
 25697               	.L1447:
 25698               	.LBE1404:
 25699               	.LBE1403:
 25700               	.LBB1405:
 25701               	.LBB1406:
 25702               	.LM2947:
 25703 9076 E0E2      		ldi r30,lo8(1568)
 25704 9078 F6E0      		ldi r31,hi8(1568)
 25705 907a 80E2      		ldi r24,lo8(32)
 25706 907c 8683      		std Z+6,r24
 25707               	.L1536:
 25708               	.LBE1406:
 25709               	.LBE1405:
 25710               	.LBB1407:
 25711               	.LBB1408:
 25712               	.LM2948:
 25713 907e 80E1      		ldi r24,lo8(16)
 25714 9080 8583      		std Z+5,r24
 25715 9082 00C0      		rjmp .L1445
 25716               	.LVL1744:
 25717               	.L1451:
 25718               	.LBE1408:
 25719               	.LBE1407:
 25720               	.LM2949:
 25721 9084 81E0      		ldi r24,lo8(1)
 25722 9086 8093 0000 		sts currentMode,r24
 25723               	.LM2950:
 25724 908a 0E94 0000 		call display_clearBuffer
 25725               	.LVL1745:
 25726               	.LM2951:
 25727 908e 0E94 0000 		call display_writeBufferToScreen
 25728 9092 00C0      		rjmp .L1449
 25729               	.LVL1746:
 25730               	.L1541:
 25731               	.LM2952:
 25732 9094 1092 0000 		sts currentMode,__zero_reg__
 25733               	.LM2953:
 25734 9098 0E94 0000 		call display_clearBuffer
 25735               	.LVL1747:
 25736               	.LM2954:
 25737 909c 0E94 0000 		call display_writeBufferToScreen
 25738 90a0 80EA      		ldi r24,lo8(4000)
 25739 90a2 9FE0      		ldi r25,hi8(4000)
 25740               	.LVL1748:
 25741 90a4 00C0      		rjmp .L1454
 25742               	.LVL1749:
 25743               	.L1542:
 25744               	.LBB1409:
 25745               	.LBB1410:
 25746               	.LBB1411:
 25747               	.LBB1412:
 25748               	.LM2955:
 25749 90a6 8091 A806 		lds r24,1704
 25750               	.LBE1412:
 25751               	.LBE1411:
 25752               	.LM2956:
 25753 90aa 8C77      		andi r24,lo8(124)
 25754 90ac 82FD      		sbrc r24,2
 25755 90ae 00C0      		rjmp .L1487
 25756 90b0 00C0      		rjmp .L1449
 25757               	.LVL1750:
 25758               	.L1543:
 25759               	.LBE1410:
 25760               	.LBE1409:
 25761               	.LM2957:
 25762 90b2 8091 0000 		lds r24,chargeComplete
 25763 90b6 8823      		tst r24
 25764 90b8 01F4      		brne .+2
 25765 90ba 00C0      		rjmp .L1461
 25766 90bc 00C0      		rjmp .L1549
 25767               	.L1544:
 25768               	.LM2958:
 25769 90be 8091 0000 		lds r24,chargeComplete
 25770 90c2 8823      		tst r24
 25771 90c4 01F0      		breq .+2
 25772 90c6 00C0      		rjmp .L1464
 25773 90c8 00C0      		rjmp .L1550
 25774               	.LVL1751:
 25775               	.L1545:
 25776               	.LM2959:
 25777 90ca 8091 0000 		lds r24,chargeComplete
 25778 90ce 8823      		tst r24
 25779 90d0 01F4      		brne .+2
 25780 90d2 00C0      		rjmp .L1472
 25781 90d4 00C0      		rjmp .L1551
 25782               	.L1546:
 25783               	.LM2960:
 25784 90d6 8091 0000 		lds r24,chargeComplete
 25785 90da 8823      		tst r24
 25786 90dc 01F0      		breq .+2
 25787 90de 00C0      		rjmp .L1474
 25788 90e0 00C0      		rjmp .L1552
 25789               	.LFE161:
 25791               	.global	temperatureSampleStartTime1
 25792               	.global	temperatureSampleStartTime1
 25793               		.section .bss
 25796               	temperatureSampleStartTime1:
 25797 0000 0000 0000 		.skip 4,0
 25798               	.global	temperatureSampleStartTime2
 25799               	.global	temperatureSampleStartTime2
 25802               	temperatureSampleStartTime2:
 25803 0004 0000 0000 		.skip 4,0
 25804               	.global	humiditySampleStartTime1
 25805               	.global	humiditySampleStartTime1
 25808               	humiditySampleStartTime1:
 25809 0008 0000 0000 		.skip 4,0
 25810               	.global	humiditySampleStartTime2
 25811               	.global	humiditySampleStartTime2
 25814               	humiditySampleStartTime2:
 25815 000c 0000 0000 		.skip 4,0
 25816               	.global	pressureSampleStartTime1
 25817               	.global	pressureSampleStartTime1
 25820               	pressureSampleStartTime1:
 25821 0010 0000 0000 		.skip 4,0
 25822               	.global	pressureSampleStartTime2
 25823               	.global	pressureSampleStartTime2
 25826               	pressureSampleStartTime2:
 25827 0014 0000 0000 		.skip 4,0
 25828               	.global	microphoneSampleStartTime1
 25829               	.global	microphoneSampleStartTime1
 25832               	microphoneSampleStartTime1:
 25833 0018 0000 0000 		.skip 4,0
 25834               	.global	microphoneSampleStartTime2
 25835               	.global	microphoneSampleStartTime2
 25838               	microphoneSampleStartTime2:
 25839 001c 0000 0000 		.skip 4,0
 25840               	.global	lightSampleStartTime1
 25841               	.global	lightSampleStartTime1
 25844               	lightSampleStartTime1:
 25845 0020 0000 0000 		.skip 4,0
 25846               	.global	lightSampleStartTime2
 25847               	.global	lightSampleStartTime2
 25850               	lightSampleStartTime2:
 25851 0024 0000 0000 		.skip 4,0
 25852               	.global	airSampleTime
 25853               	.global	airSampleTime
 25856               	airSampleTime:
 25857 0028 0000 0000 		.skip 4,0
 25858               	.global	timeRecordingStarted
 25859               	.global	timeRecordingStarted
 25862               	timeRecordingStarted:
 25863 002c 0000 0000 		.skip 4,0
 25864               	.global	Debug_readLocation
 25865               	.global	Debug_readLocation
 25868               	Debug_readLocation:
 25869 0030 0000      		.skip 2,0
 25870               	.global	Debug_writeLocation
 25871               	.global	Debug_writeLocation
 25874               	Debug_writeLocation:
 25875 0032 0000      		.skip 2,0
 25876               	.global	Wifi_readLocation
 25877               	.global	Wifi_readLocation
 25880               	Wifi_readLocation:
 25881 0034 0000      		.skip 2,0
 25882               	.global	Wifi_writeLocation
 25883               	.global	Wifi_writeLocation
 25886               	Wifi_writeLocation:
 25887 0036 0000      		.skip 2,0
 25888               	.global	respLen
 25889               	.global	respLen
 25892               	respLen:
 25893 0038 00        		.skip 1,0
 25894               	.global	toSendLen
 25895               	.global	toSendLen
 25898               	toSendLen:
 25899 0039 00        		.skip 1,0
 25900               	.global	okLen
 25901               	.global	okLen
 25904               	okLen:
 25905 003a 00        		.skip 1,0
 25906               	.global	timeLength
 25907               	.global	timeLength
 25910               	timeLength:
 25911 003b 00        		.skip 1,0
 25912               	.global	time_secs
 25913               	.global	time_secs
 25916               	time_secs:
 25917 003c 0000 0000 		.skip 4,0
 25918               	.global	time_nanos
 25919               	.global	time_nanos
 25922               	time_nanos:
 25923 0040 0000 0000 		.skip 4,0
 25924               	.global	connected
 25925               	.global	connected
 25928               	connected:
 25929 0044 00        		.skip 1,0
 25930               	.global	Rs232_readLocation
 25931               	.global	Rs232_readLocation
 25934               	Rs232_readLocation:
 25935 0045 0000      		.skip 2,0
 25936               	.global	Rs232_writeLocation
 25937               	.global	Rs232_writeLocation
 25940               	Rs232_writeLocation:
 25941 0047 0000      		.skip 2,0
 25942               	.global	okToSendAirQuality
 25943               	.global	okToSendAirQuality
 25946               	okToSendAirQuality:
 25947 0049 00        		.skip 1,0
 25948               	.global	quickSmall
 25949               	.global	quickSmall
 25952               	quickSmall:
 25953 004a 0000 0000 		.skip 4,0
 25954               	.global	quickLarge
 25955               	.global	quickLarge
 25958               	quickLarge:
 25959 004e 0000 0000 		.skip 4,0
 25960               	.global	rs232Recording
 25961               	.global	rs232Recording
 25964               	rs232Recording:
 25965 0052 00        		.skip 1,0
 25966               	.global	chargePercent
 25967               	.global	chargePercent
 25970               	chargePercent:
 25971 0053 00        		.skip 1,0
 25972               	.global	chargeCounter
 25973               	.global	chargeCounter
 25976               	chargeCounter:
 25977 0054 0000      		.skip 2,0
 25978               	.global	chargeComplete
 25979               	.global	chargeComplete
 25982               	chargeComplete:
 25983 0056 00        		.skip 1,0
 25984               	.global	okToCharge
 25985               	.global	okToCharge
 25988               	okToCharge:
 25989 0057 00        		.skip 1,0
 25990               	.global	UNIX_time
 25991               	.global	UNIX_time
 25994               	UNIX_time:
 25995 0058 0000 0000 		.skip 4,0
 25996               	.global	gainSelector
 25997               	.global	gainSelector
 26000               	gainSelector:
 26001 005c 00        		.skip 1,0
 26002               	.global	integrationTime
 26003               		.data
 26006               	integrationTime:
 26007 0823 00        		.byte	0
 26008 0824 00        		.byte	0
 26009 0825 01        		.byte	1
 26010 0826 00        		.byte	0
 26011 0827 02        		.byte	2
 26012 0828 00        		.byte	0
 26013 0829 02        		.byte	2
 26014 082a 02        		.byte	2
 26015 082b 02        		.byte	2
 26016               	.global	gainSetting
 26019               	gainSetting:
 26020 082c 00        		.byte	0
 26021 082d 10        		.byte	16
 26022 082e 00        		.byte	0
 26023 082f 20        		.byte	32
 26024 0830 00        		.byte	0
 26025 0831 30        		.byte	48
 26026 0832 10        		.byte	16
 26027 0833 20        		.byte	32
 26028 0834 30        		.byte	48
 26029               	.global	resultMultiplier
 26032               	resultMultiplier:
 26033 0835 0C        		.byte	12
 26034 0836 00        		.byte	0
 26035 0837 00        		.byte	0
 26036 0838 00        		.byte	0
 26037 0839 30        		.byte	48
 26038 083a 00        		.byte	0
 26039 083b 00        		.byte	0
 26040 083c 00        		.byte	0
 26041 083d 64        		.byte	100
 26042 083e 00        		.byte	0
 26043 083f 00        		.byte	0
 26044 0840 00        		.byte	0
 26045 0841 C0        		.byte	-64
 26046 0842 00        		.byte	0
 26047 0843 00        		.byte	0
 26048 0844 00        		.byte	0
 26049 0845 90        		.byte	-112
 26050 0846 01        		.byte	1
 26051 0847 00        		.byte	0
 26052 0848 00        		.byte	0
 26053 0849 00        		.byte	0
 26054 084a 03        		.byte	3
 26055 084b 00        		.byte	0
 26056 084c 00        		.byte	0
 26057 084d 40        		.byte	64
 26058 084e 06        		.byte	6
 26059 084f 00        		.byte	0
 26060 0850 00        		.byte	0
 26061 0851 00        		.byte	0
 26062 0852 19        		.byte	25
 26063 0853 00        		.byte	0
 26064 0854 00        		.byte	0
 26065 0855 00        		.byte	0
 26066 0856 64        		.byte	100
 26067 0857 00        		.byte	0
 26068 0858 00        		.byte	0
 26069               	.global	recording
 26070               	.global	recording
 26071               		.section .bss
 26074               	recording:
 26075 005d 00        		.skip 1,0
 26076               	.global	requestToStopRecording
 26077               	.global	requestToStopRecording
 26080               	requestToStopRecording:
 26081 005e 00        		.skip 1,0
 26082               	.global	okToSendTemperatureBuffer1
 26083               	.global	okToSendTemperatureBuffer1
 26086               	okToSendTemperatureBuffer1:
 26087 005f 00        		.skip 1,0
 26088               	.global	okToSendTemperatureBuffer2
 26089               	.global	okToSendTemperatureBuffer2
 26092               	okToSendTemperatureBuffer2:
 26093 0060 00        		.skip 1,0
 26094               	.global	temperatureBufferToWriteTo
 26095               		.data
 26098               	temperatureBufferToWriteTo:
 26099 0859 01        		.byte	1
 26100               	.global	temperatureBufferCounter
 26101               	.global	temperatureBufferCounter
 26102               		.section .bss
 26105               	temperatureBufferCounter:
 26106 0061 00        		.skip 1,0
 26107               	.global	okToSendPressureBuffer1
 26108               	.global	okToSendPressureBuffer1
 26111               	okToSendPressureBuffer1:
 26112 0062 00        		.skip 1,0
 26113               	.global	okToSendPressureBuffer2
 26114               	.global	okToSendPressureBuffer2
 26117               	okToSendPressureBuffer2:
 26118 0063 00        		.skip 1,0
 26119               	.global	pressureBufferToWriteTo
 26120               		.data
 26123               	pressureBufferToWriteTo:
 26124 085a 01        		.byte	1
 26125               	.global	pressureBufferCounter
 26126               	.global	pressureBufferCounter
 26127               		.section .bss
 26130               	pressureBufferCounter:
 26131 0064 00        		.skip 1,0
 26132               	.global	okToSendHumidityBuffer1
 26133               	.global	okToSendHumidityBuffer1
 26136               	okToSendHumidityBuffer1:
 26137 0065 00        		.skip 1,0
 26138               	.global	okToSendHumidityBuffer2
 26139               	.global	okToSendHumidityBuffer2
 26142               	okToSendHumidityBuffer2:
 26143 0066 00        		.skip 1,0
 26144               	.global	humidityBufferToWriteTo
 26145               		.data
 26148               	humidityBufferToWriteTo:
 26149 085b 01        		.byte	1
 26150               	.global	humidityBufferCounter
 26151               	.global	humidityBufferCounter
 26152               		.section .bss
 26155               	humidityBufferCounter:
 26156 0067 00        		.skip 1,0
 26157               	.global	okToSendMicrophoneBuffer1
 26158               	.global	okToSendMicrophoneBuffer1
 26161               	okToSendMicrophoneBuffer1:
 26162 0068 00        		.skip 1,0
 26163               	.global	okToSendMicrophoneBuffer2
 26164               	.global	okToSendMicrophoneBuffer2
 26167               	okToSendMicrophoneBuffer2:
 26168 0069 00        		.skip 1,0
 26169               	.global	microphoneBufferToWriteTo
 26170               		.data
 26173               	microphoneBufferToWriteTo:
 26174 085c 01        		.byte	1
 26175               	.global	microphoneBufferCounter
 26176               	.global	microphoneBufferCounter
 26177               		.section .bss
 26180               	microphoneBufferCounter:
 26181 006a 0000      		.skip 2,0
 26182               	.global	okToSendLightBuffer1
 26183               	.global	okToSendLightBuffer1
 26186               	okToSendLightBuffer1:
 26187 006c 00        		.skip 1,0
 26188               	.global	okToSendLightBuffer2
 26189               	.global	okToSendLightBuffer2
 26192               	okToSendLightBuffer2:
 26193 006d 00        		.skip 1,0
 26194               	.global	lightBufferToWriteTo
 26195               		.data
 26198               	lightBufferToWriteTo:
 26199 085d 01        		.byte	1
 26200               	.global	lightBufferCounter
 26201               	.global	lightBufferCounter
 26202               		.section .bss
 26205               	lightBufferCounter:
 26206 006e 00        		.skip 1,0
 26207               	.global	okToSendRTCBlock
 26208               	.global	okToSendRTCBlock
 26211               	okToSendRTCBlock:
 26212 006f 00        		.skip 1,0
 26213               	.global	rtcBlockCounter
 26214               	.global	rtcBlockCounter
 26217               	rtcBlockCounter:
 26218 0070 00        		.skip 1,0
 26219               	.global	wantToRecordTemperature
 26220               		.data
 26223               	wantToRecordTemperature:
 26224 085e 01        		.byte	1
 26225               	.global	wantToRecordPressure
 26228               	wantToRecordPressure:
 26229 085f 01        		.byte	1
 26230               	.global	wantToRecordHumidity
 26233               	wantToRecordHumidity:
 26234 0860 01        		.byte	1
 26235               	.global	wantToRecordMicrophone
 26238               	wantToRecordMicrophone:
 26239 0861 01        		.byte	1
 26240               	.global	wantToRecordLight
 26243               	wantToRecordLight:
 26244 0862 01        		.byte	1
 26245               	.global	wantToRecordAirQuality
 26248               	wantToRecordAirQuality:
 26249 0863 01        		.byte	1
 26250               	.global	quickTemperature
 26251               	.global	quickTemperature
 26252               		.section .bss
 26255               	quickTemperature:
 26256 0071 00        		.skip 1,0
 26257               	.global	quickHumidity
 26258               	.global	quickHumidity
 26261               	quickHumidity:
 26262 0072 00        		.skip 1,0
 26263               	.global	quickPressure
 26264               	.global	quickPressure
 26267               	quickPressure:
 26268 0073 00        		.skip 1,0
 26269               	.global	quickLight
 26270               	.global	quickLight
 26273               	quickLight:
 26274 0074 0000      		.skip 2,0
 26275               	.global	quickMic
 26276               	.global	quickMic
 26279               	quickMic:
 26280 0076 00        		.skip 1,0
 26281               	.global	micSampleCounter
 26282               	.global	micSampleCounter
 26285               	micSampleCounter:
 26286 0077 00        		.skip 1,0
 26287               	.global	auth
 26288               		.data
 26291               	auth:
 26292 0864 7365 7420 		.string	"set wlan auth "
 26292      776C 616E 
 26292      2061 7574 
 26292      6820 00
 26293 0873 0000 0000 		.skip 35,0
 26293      0000 0000 
 26293      0000 0000 
 26293      0000 0000 
 26293      0000 0000 
 26294               	.global	phrase
 26297               	phrase:
 26298 0896 7365 7420 		.string	"set wlan phrase "
 26298      776C 616E 
 26298      2070 6872 
 26298      6173 6520 
 26298      00
 26299 08a7 0000 0000 		.skip 33,0
 26299      0000 0000 
 26299      0000 0000 
 26299      0000 0000 
 26299      0000 0000 
 26300               	.global	key
 26303               	key:
 26304 08c8 7365 7420 		.string	"set wlan key "
 26304      776C 616E 
 26304      206B 6579 
 26304      2000 
 26305 08d6 0000 0000 		.skip 36,0
 26305      0000 0000 
 26305      0000 0000 
 26305      0000 0000 
 26305      0000 0000 
 26306               	.global	port
 26309               	port:
 26310 08fa 7365 7420 		.string	"set ip localport "
 26310      6970 206C 
 26310      6F63 616C 
 26310      706F 7274 
 26310      2000 
 26311 090c 0000 0000 		.skip 32,0
 26311      0000 0000 
 26311      0000 0000 
 26311      0000 0000 
 26311      0000 0000 
 26312               	.global	ssid
 26315               	ssid:
 26316 092c 6A6F 696E 		.string	"join "
 26316      2000 
 26317 0932 0000 0000 		.skip 44,0
 26317      0000 0000 
 26317      0000 0000 
 26317      0000 0000 
 26317      0000 0000 
 26318               	.global	zone
 26321               	zone:
 26322 095e 474D 5400 		.string	"GMT"
 26323 0962 0000 0000 		.skip 6,0
 26323      0000 
 26324               	.global	authRead
 26325               	.global	authRead
 26326               		.section .bss
 26329               	authRead:
 26330 0078 00        		.skip 1,0
 26331               	.global	phraseRead
 26332               	.global	phraseRead
 26335               	phraseRead:
 26336 0079 00        		.skip 1,0
 26337               	.global	keyRead
 26338               	.global	keyRead
 26341               	keyRead:
 26342 007a 00        		.skip 1,0
 26343               	.global	portRead
 26344               	.global	portRead
 26347               	portRead:
 26348 007b 00        		.skip 1,0
 26349               	.global	ssidRead
 26350               	.global	ssidRead
 26353               	ssidRead:
 26354 007c 00        		.skip 1,0
 26355               	.global	zoneChanged
 26356               	.global	zoneChanged
 26359               	zoneChanged:
 26360 007d 00        		.skip 1,0
 26361               	.global	timeZoneShift
 26362               	.global	timeZoneShift
 26365               	timeZoneShift:
 26366 007e 00        		.skip 1,0
 26367               	.global	clockHour
 26368               	.global	clockHour
 26371               	clockHour:
 26372 007f 00        		.skip 1,0
 26373               	.global	currentMode
 26374               	.global	currentMode
 26377               	currentMode:
 26378 0080 00        		.skip 1,0
 26379               	.global	ssRefreshCounter
 26380               	.global	ssRefreshCounter
 26383               	ssRefreshCounter:
 26384 0081 00        		.skip 1,0
 26385               	.global	signalStrength
 26386               	.global	signalStrength
 26389               	signalStrength:
 26390 0082 00        		.skip 1,0
 26391               	.global	uploadPercentBS
 26392               	.global	uploadPercentBS
 26395               	uploadPercentBS:
 26396 0083 00        		.skip 1,0
 26397               	.global	uploadPercentEXT
 26398               	.global	uploadPercentEXT
 26401               	uploadPercentEXT:
 26402 0084 00        		.skip 1,0
 26403               	.global	rtcSynced
 26404               	.global	rtcSynced
 26407               	rtcSynced:
 26408 0085 00        		.skip 1,0
 26409               	.global	needToChangeBaud
 26410               		.data
 26413               	needToChangeBaud:
 26414 0968 01        		.byte	1
 26415               	.global	demoMode
 26418               	demoMode:
 26419 0969 01        		.byte	1
 26420               	.global	demoModeFirstFile
 26423               	demoModeFirstFile:
 26424 096a 01        		.byte	1
 26427               	System5x7:
 26428 096b 00        		.byte	0
 26429 096c 00        		.byte	0
 26430 096d 05        		.byte	5
 26431 096e 07        		.byte	7
 26432 096f 20        		.byte	32
 26433 0970 7F        		.byte	127
 26434 0971 00        		.byte	0
 26435 0972 00        		.byte	0
 26436 0973 00        		.byte	0
 26437 0974 00        		.byte	0
 26438 0975 00        		.byte	0
 26439 0976 00        		.byte	0
 26440 0977 00        		.byte	0
 26441 0978 5F        		.byte	95
 26442 0979 00        		.byte	0
 26443 097a 00        		.byte	0
 26444 097b 00        		.byte	0
 26445 097c 07        		.byte	7
 26446 097d 00        		.byte	0
 26447 097e 07        		.byte	7
 26448 097f 00        		.byte	0
 26449 0980 14        		.byte	20
 26450 0981 7F        		.byte	127
 26451 0982 14        		.byte	20
 26452 0983 7F        		.byte	127
 26453 0984 14        		.byte	20
 26454 0985 24        		.byte	36
 26455 0986 2A        		.byte	42
 26456 0987 7F        		.byte	127
 26457 0988 2A        		.byte	42
 26458 0989 12        		.byte	18
 26459 098a 23        		.byte	35
 26460 098b 13        		.byte	19
 26461 098c 08        		.byte	8
 26462 098d 64        		.byte	100
 26463 098e 62        		.byte	98
 26464 098f 36        		.byte	54
 26465 0990 49        		.byte	73
 26466 0991 55        		.byte	85
 26467 0992 22        		.byte	34
 26468 0993 50        		.byte	80
 26469 0994 00        		.byte	0
 26470 0995 05        		.byte	5
 26471 0996 03        		.byte	3
 26472 0997 00        		.byte	0
 26473 0998 00        		.byte	0
 26474 0999 00        		.byte	0
 26475 099a 1C        		.byte	28
 26476 099b 22        		.byte	34
 26477 099c 41        		.byte	65
 26478 099d 00        		.byte	0
 26479 099e 00        		.byte	0
 26480 099f 41        		.byte	65
 26481 09a0 22        		.byte	34
 26482 09a1 1C        		.byte	28
 26483 09a2 00        		.byte	0
 26484 09a3 08        		.byte	8
 26485 09a4 2A        		.byte	42
 26486 09a5 1C        		.byte	28
 26487 09a6 2A        		.byte	42
 26488 09a7 08        		.byte	8
 26489 09a8 08        		.byte	8
 26490 09a9 08        		.byte	8
 26491 09aa 3E        		.byte	62
 26492 09ab 08        		.byte	8
 26493 09ac 08        		.byte	8
 26494 09ad 00        		.byte	0
 26495 09ae 50        		.byte	80
 26496 09af 30        		.byte	48
 26497 09b0 00        		.byte	0
 26498 09b1 00        		.byte	0
 26499 09b2 08        		.byte	8
 26500 09b3 08        		.byte	8
 26501 09b4 08        		.byte	8
 26502 09b5 08        		.byte	8
 26503 09b6 08        		.byte	8
 26504 09b7 00        		.byte	0
 26505 09b8 60        		.byte	96
 26506 09b9 60        		.byte	96
 26507 09ba 00        		.byte	0
 26508 09bb 00        		.byte	0
 26509 09bc 20        		.byte	32
 26510 09bd 10        		.byte	16
 26511 09be 08        		.byte	8
 26512 09bf 04        		.byte	4
 26513 09c0 02        		.byte	2
 26514 09c1 3E        		.byte	62
 26515 09c2 51        		.byte	81
 26516 09c3 49        		.byte	73
 26517 09c4 45        		.byte	69
 26518 09c5 3E        		.byte	62
 26519 09c6 00        		.byte	0
 26520 09c7 42        		.byte	66
 26521 09c8 7F        		.byte	127
 26522 09c9 40        		.byte	64
 26523 09ca 00        		.byte	0
 26524 09cb 42        		.byte	66
 26525 09cc 61        		.byte	97
 26526 09cd 51        		.byte	81
 26527 09ce 49        		.byte	73
 26528 09cf 46        		.byte	70
 26529 09d0 21        		.byte	33
 26530 09d1 41        		.byte	65
 26531 09d2 45        		.byte	69
 26532 09d3 4B        		.byte	75
 26533 09d4 31        		.byte	49
 26534 09d5 18        		.byte	24
 26535 09d6 14        		.byte	20
 26536 09d7 12        		.byte	18
 26537 09d8 7F        		.byte	127
 26538 09d9 10        		.byte	16
 26539 09da 27        		.byte	39
 26540 09db 45        		.byte	69
 26541 09dc 45        		.byte	69
 26542 09dd 45        		.byte	69
 26543 09de 39        		.byte	57
 26544 09df 3C        		.byte	60
 26545 09e0 4A        		.byte	74
 26546 09e1 49        		.byte	73
 26547 09e2 49        		.byte	73
 26548 09e3 30        		.byte	48
 26549 09e4 01        		.byte	1
 26550 09e5 71        		.byte	113
 26551 09e6 09        		.byte	9
 26552 09e7 05        		.byte	5
 26553 09e8 03        		.byte	3
 26554 09e9 36        		.byte	54
 26555 09ea 49        		.byte	73
 26556 09eb 49        		.byte	73
 26557 09ec 49        		.byte	73
 26558 09ed 36        		.byte	54
 26559 09ee 06        		.byte	6
 26560 09ef 49        		.byte	73
 26561 09f0 49        		.byte	73
 26562 09f1 29        		.byte	41
 26563 09f2 1E        		.byte	30
 26564 09f3 00        		.byte	0
 26565 09f4 36        		.byte	54
 26566 09f5 36        		.byte	54
 26567 09f6 00        		.byte	0
 26568 09f7 00        		.byte	0
 26569 09f8 00        		.byte	0
 26570 09f9 56        		.byte	86
 26571 09fa 36        		.byte	54
 26572 09fb 00        		.byte	0
 26573 09fc 00        		.byte	0
 26574 09fd 00        		.byte	0
 26575 09fe 08        		.byte	8
 26576 09ff 14        		.byte	20
 26577 0a00 22        		.byte	34
 26578 0a01 41        		.byte	65
 26579 0a02 14        		.byte	20
 26580 0a03 14        		.byte	20
 26581 0a04 14        		.byte	20
 26582 0a05 14        		.byte	20
 26583 0a06 14        		.byte	20
 26584 0a07 41        		.byte	65
 26585 0a08 22        		.byte	34
 26586 0a09 14        		.byte	20
 26587 0a0a 08        		.byte	8
 26588 0a0b 00        		.byte	0
 26589 0a0c 02        		.byte	2
 26590 0a0d 01        		.byte	1
 26591 0a0e 51        		.byte	81
 26592 0a0f 09        		.byte	9
 26593 0a10 06        		.byte	6
 26594 0a11 32        		.byte	50
 26595 0a12 49        		.byte	73
 26596 0a13 79        		.byte	121
 26597 0a14 41        		.byte	65
 26598 0a15 3E        		.byte	62
 26599 0a16 7E        		.byte	126
 26600 0a17 11        		.byte	17
 26601 0a18 11        		.byte	17
 26602 0a19 11        		.byte	17
 26603 0a1a 7E        		.byte	126
 26604 0a1b 7F        		.byte	127
 26605 0a1c 49        		.byte	73
 26606 0a1d 49        		.byte	73
 26607 0a1e 49        		.byte	73
 26608 0a1f 36        		.byte	54
 26609 0a20 3E        		.byte	62
 26610 0a21 41        		.byte	65
 26611 0a22 41        		.byte	65
 26612 0a23 41        		.byte	65
 26613 0a24 22        		.byte	34
 26614 0a25 7F        		.byte	127
 26615 0a26 41        		.byte	65
 26616 0a27 41        		.byte	65
 26617 0a28 22        		.byte	34
 26618 0a29 1C        		.byte	28
 26619 0a2a 7F        		.byte	127
 26620 0a2b 49        		.byte	73
 26621 0a2c 49        		.byte	73
 26622 0a2d 49        		.byte	73
 26623 0a2e 41        		.byte	65
 26624 0a2f 7F        		.byte	127
 26625 0a30 09        		.byte	9
 26626 0a31 09        		.byte	9
 26627 0a32 01        		.byte	1
 26628 0a33 01        		.byte	1
 26629 0a34 3E        		.byte	62
 26630 0a35 41        		.byte	65
 26631 0a36 41        		.byte	65
 26632 0a37 51        		.byte	81
 26633 0a38 32        		.byte	50
 26634 0a39 7F        		.byte	127
 26635 0a3a 08        		.byte	8
 26636 0a3b 08        		.byte	8
 26637 0a3c 08        		.byte	8
 26638 0a3d 7F        		.byte	127
 26639 0a3e 00        		.byte	0
 26640 0a3f 41        		.byte	65
 26641 0a40 7F        		.byte	127
 26642 0a41 41        		.byte	65
 26643 0a42 00        		.byte	0
 26644 0a43 20        		.byte	32
 26645 0a44 40        		.byte	64
 26646 0a45 41        		.byte	65
 26647 0a46 3F        		.byte	63
 26648 0a47 01        		.byte	1
 26649 0a48 7F        		.byte	127
 26650 0a49 08        		.byte	8
 26651 0a4a 14        		.byte	20
 26652 0a4b 22        		.byte	34
 26653 0a4c 41        		.byte	65
 26654 0a4d 7F        		.byte	127
 26655 0a4e 40        		.byte	64
 26656 0a4f 40        		.byte	64
 26657 0a50 40        		.byte	64
 26658 0a51 40        		.byte	64
 26659 0a52 7F        		.byte	127
 26660 0a53 02        		.byte	2
 26661 0a54 04        		.byte	4
 26662 0a55 02        		.byte	2
 26663 0a56 7F        		.byte	127
 26664 0a57 7F        		.byte	127
 26665 0a58 04        		.byte	4
 26666 0a59 08        		.byte	8
 26667 0a5a 10        		.byte	16
 26668 0a5b 7F        		.byte	127
 26669 0a5c 3E        		.byte	62
 26670 0a5d 41        		.byte	65
 26671 0a5e 41        		.byte	65
 26672 0a5f 41        		.byte	65
 26673 0a60 3E        		.byte	62
 26674 0a61 7F        		.byte	127
 26675 0a62 09        		.byte	9
 26676 0a63 09        		.byte	9
 26677 0a64 09        		.byte	9
 26678 0a65 06        		.byte	6
 26679 0a66 3E        		.byte	62
 26680 0a67 41        		.byte	65
 26681 0a68 51        		.byte	81
 26682 0a69 21        		.byte	33
 26683 0a6a 5E        		.byte	94
 26684 0a6b 7F        		.byte	127
 26685 0a6c 09        		.byte	9
 26686 0a6d 19        		.byte	25
 26687 0a6e 29        		.byte	41
 26688 0a6f 46        		.byte	70
 26689 0a70 46        		.byte	70
 26690 0a71 49        		.byte	73
 26691 0a72 49        		.byte	73
 26692 0a73 49        		.byte	73
 26693 0a74 31        		.byte	49
 26694 0a75 01        		.byte	1
 26695 0a76 01        		.byte	1
 26696 0a77 7F        		.byte	127
 26697 0a78 01        		.byte	1
 26698 0a79 01        		.byte	1
 26699 0a7a 3F        		.byte	63
 26700 0a7b 40        		.byte	64
 26701 0a7c 40        		.byte	64
 26702 0a7d 40        		.byte	64
 26703 0a7e 3F        		.byte	63
 26704 0a7f 1F        		.byte	31
 26705 0a80 20        		.byte	32
 26706 0a81 40        		.byte	64
 26707 0a82 20        		.byte	32
 26708 0a83 1F        		.byte	31
 26709 0a84 7F        		.byte	127
 26710 0a85 20        		.byte	32
 26711 0a86 18        		.byte	24
 26712 0a87 20        		.byte	32
 26713 0a88 7F        		.byte	127
 26714 0a89 63        		.byte	99
 26715 0a8a 14        		.byte	20
 26716 0a8b 08        		.byte	8
 26717 0a8c 14        		.byte	20
 26718 0a8d 63        		.byte	99
 26719 0a8e 03        		.byte	3
 26720 0a8f 04        		.byte	4
 26721 0a90 78        		.byte	120
 26722 0a91 04        		.byte	4
 26723 0a92 03        		.byte	3
 26724 0a93 61        		.byte	97
 26725 0a94 51        		.byte	81
 26726 0a95 49        		.byte	73
 26727 0a96 45        		.byte	69
 26728 0a97 43        		.byte	67
 26729 0a98 00        		.byte	0
 26730 0a99 00        		.byte	0
 26731 0a9a 7F        		.byte	127
 26732 0a9b 41        		.byte	65
 26733 0a9c 41        		.byte	65
 26734 0a9d 02        		.byte	2
 26735 0a9e 04        		.byte	4
 26736 0a9f 08        		.byte	8
 26737 0aa0 10        		.byte	16
 26738 0aa1 20        		.byte	32
 26739 0aa2 41        		.byte	65
 26740 0aa3 41        		.byte	65
 26741 0aa4 7F        		.byte	127
 26742 0aa5 00        		.byte	0
 26743 0aa6 00        		.byte	0
 26744 0aa7 04        		.byte	4
 26745 0aa8 02        		.byte	2
 26746 0aa9 01        		.byte	1
 26747 0aaa 02        		.byte	2
 26748 0aab 04        		.byte	4
 26749 0aac 40        		.byte	64
 26750 0aad 40        		.byte	64
 26751 0aae 40        		.byte	64
 26752 0aaf 40        		.byte	64
 26753 0ab0 40        		.byte	64
 26754 0ab1 00        		.byte	0
 26755 0ab2 01        		.byte	1
 26756 0ab3 02        		.byte	2
 26757 0ab4 04        		.byte	4
 26758 0ab5 00        		.byte	0
 26759 0ab6 20        		.byte	32
 26760 0ab7 54        		.byte	84
 26761 0ab8 54        		.byte	84
 26762 0ab9 54        		.byte	84
 26763 0aba 78        		.byte	120
 26764 0abb 7F        		.byte	127
 26765 0abc 48        		.byte	72
 26766 0abd 44        		.byte	68
 26767 0abe 44        		.byte	68
 26768 0abf 38        		.byte	56
 26769 0ac0 38        		.byte	56
 26770 0ac1 44        		.byte	68
 26771 0ac2 44        		.byte	68
 26772 0ac3 44        		.byte	68
 26773 0ac4 20        		.byte	32
 26774 0ac5 38        		.byte	56
 26775 0ac6 44        		.byte	68
 26776 0ac7 44        		.byte	68
 26777 0ac8 48        		.byte	72
 26778 0ac9 7F        		.byte	127
 26779 0aca 38        		.byte	56
 26780 0acb 54        		.byte	84
 26781 0acc 54        		.byte	84
 26782 0acd 54        		.byte	84
 26783 0ace 18        		.byte	24
 26784 0acf 08        		.byte	8
 26785 0ad0 7E        		.byte	126
 26786 0ad1 09        		.byte	9
 26787 0ad2 01        		.byte	1
 26788 0ad3 02        		.byte	2
 26789 0ad4 08        		.byte	8
 26790 0ad5 14        		.byte	20
 26791 0ad6 54        		.byte	84
 26792 0ad7 54        		.byte	84
 26793 0ad8 3C        		.byte	60
 26794 0ad9 7F        		.byte	127
 26795 0ada 08        		.byte	8
 26796 0adb 04        		.byte	4
 26797 0adc 04        		.byte	4
 26798 0add 78        		.byte	120
 26799 0ade 00        		.byte	0
 26800 0adf 44        		.byte	68
 26801 0ae0 7D        		.byte	125
 26802 0ae1 40        		.byte	64
 26803 0ae2 00        		.byte	0
 26804 0ae3 20        		.byte	32
 26805 0ae4 40        		.byte	64
 26806 0ae5 44        		.byte	68
 26807 0ae6 3D        		.byte	61
 26808 0ae7 00        		.byte	0
 26809 0ae8 00        		.byte	0
 26810 0ae9 7F        		.byte	127
 26811 0aea 10        		.byte	16
 26812 0aeb 28        		.byte	40
 26813 0aec 44        		.byte	68
 26814 0aed 00        		.byte	0
 26815 0aee 41        		.byte	65
 26816 0aef 7F        		.byte	127
 26817 0af0 40        		.byte	64
 26818 0af1 00        		.byte	0
 26819 0af2 7C        		.byte	124
 26820 0af3 04        		.byte	4
 26821 0af4 18        		.byte	24
 26822 0af5 04        		.byte	4
 26823 0af6 78        		.byte	120
 26824 0af7 7C        		.byte	124
 26825 0af8 08        		.byte	8
 26826 0af9 04        		.byte	4
 26827 0afa 04        		.byte	4
 26828 0afb 78        		.byte	120
 26829 0afc 38        		.byte	56
 26830 0afd 44        		.byte	68
 26831 0afe 44        		.byte	68
 26832 0aff 44        		.byte	68
 26833 0b00 38        		.byte	56
 26834 0b01 7C        		.byte	124
 26835 0b02 14        		.byte	20
 26836 0b03 14        		.byte	20
 26837 0b04 14        		.byte	20
 26838 0b05 08        		.byte	8
 26839 0b06 08        		.byte	8
 26840 0b07 14        		.byte	20
 26841 0b08 14        		.byte	20
 26842 0b09 18        		.byte	24
 26843 0b0a 7C        		.byte	124
 26844 0b0b 7C        		.byte	124
 26845 0b0c 08        		.byte	8
 26846 0b0d 04        		.byte	4
 26847 0b0e 04        		.byte	4
 26848 0b0f 08        		.byte	8
 26849 0b10 48        		.byte	72
 26850 0b11 54        		.byte	84
 26851 0b12 54        		.byte	84
 26852 0b13 54        		.byte	84
 26853 0b14 20        		.byte	32
 26854 0b15 04        		.byte	4
 26855 0b16 3F        		.byte	63
 26856 0b17 44        		.byte	68
 26857 0b18 40        		.byte	64
 26858 0b19 20        		.byte	32
 26859 0b1a 3C        		.byte	60
 26860 0b1b 40        		.byte	64
 26861 0b1c 40        		.byte	64
 26862 0b1d 20        		.byte	32
 26863 0b1e 7C        		.byte	124
 26864 0b1f 1C        		.byte	28
 26865 0b20 20        		.byte	32
 26866 0b21 40        		.byte	64
 26867 0b22 20        		.byte	32
 26868 0b23 1C        		.byte	28
 26869 0b24 3C        		.byte	60
 26870 0b25 40        		.byte	64
 26871 0b26 30        		.byte	48
 26872 0b27 40        		.byte	64
 26873 0b28 3C        		.byte	60
 26874 0b29 44        		.byte	68
 26875 0b2a 28        		.byte	40
 26876 0b2b 10        		.byte	16
 26877 0b2c 28        		.byte	40
 26878 0b2d 44        		.byte	68
 26879 0b2e 0C        		.byte	12
 26880 0b2f 50        		.byte	80
 26881 0b30 50        		.byte	80
 26882 0b31 50        		.byte	80
 26883 0b32 3C        		.byte	60
 26884 0b33 44        		.byte	68
 26885 0b34 64        		.byte	100
 26886 0b35 54        		.byte	84
 26887 0b36 4C        		.byte	76
 26888 0b37 44        		.byte	68
 26889 0b38 00        		.byte	0
 26890 0b39 08        		.byte	8
 26891 0b3a 36        		.byte	54
 26892 0b3b 41        		.byte	65
 26893 0b3c 00        		.byte	0
 26894 0b3d 00        		.byte	0
 26895 0b3e 00        		.byte	0
 26896 0b3f 7F        		.byte	127
 26897 0b40 00        		.byte	0
 26898 0b41 00        		.byte	0
 26899 0b42 00        		.byte	0
 26900 0b43 41        		.byte	65
 26901 0b44 36        		.byte	54
 26902 0b45 08        		.byte	8
 26903 0b46 00        		.byte	0
 26904 0b47 08        		.byte	8
 26905 0b48 08        		.byte	8
 26906 0b49 2A        		.byte	42
 26907 0b4a 1C        		.byte	28
 26908 0b4b 08        		.byte	8
 26909 0b4c 08        		.byte	8
 26910 0b4d 1C        		.byte	28
 26911 0b4e 2A        		.byte	42
 26912 0b4f 08        		.byte	8
 26913 0b50 08        		.byte	8
 26916               	monthDays:
 26917 0b51 1F        		.byte	31
 26918 0b52 1C        		.byte	28
 26919 0b53 1F        		.byte	31
 26920 0b54 1E        		.byte	30
 26921 0b55 1F        		.byte	31
 26922 0b56 1E        		.byte	30
 26923 0b57 1F        		.byte	31
 26924 0b58 1F        		.byte	31
 26925 0b59 1E        		.byte	30
 26926 0b5a 1F        		.byte	31
 26927 0b5b 1E        		.byte	30
 26928 0b5c 1F        		.byte	31
 26931               	Stat:
 26932 0b5d 01        		.byte	1
 26933               		.lcomm Timer1,1
 26934               		.lcomm Timer2,1
 26935               		.lcomm CardType,1
 26936               		.lcomm FatFs,2
 26937               		.lcomm Fsid,2
 26938               		.lcomm file_system_object,558
 26939               		.comm temperatureBuffer1,20,1
 26940               		.comm temperatureBuffer2,20,1
 26941               		.comm humidityBuffer1,10,1
 26942               		.comm humidityBuffer2,10,1
 26943               		.comm pressureBuffer1,10,1
 26944               		.comm pressureBuffer2,10,1
 26945               		.comm microphoneBuffer1,1000,1
 26946               		.comm microphoneBuffer2,1000,1
 26947               		.comm lightBuffer1,160,1
 26948               		.comm lightBuffer2,160,1
 26949               		.comm DebugBuffer,1024,1
 26950               		.comm WifiBuffer,1024,1
 26951               		.comm resp,50,1
 26952               		.comm string,50,1
 26953               		.comm timeUpper,10,1
 26954               		.comm timeLower,10,1
 26955               		.comm ip,20,1
 26956               		.comm timeString,15,1
 26957               		.comm connectionStatus,3,1
 26958               		.comm macAddr,20,1
 26959               		.comm rssi,10,1
 26960               		.comm Rs232Buffer,1024,1
 26961               		.comm airQualityString,50,1
 26962               		.comm largeCount,4,1
 26963               		.comm smallCount,4,1
 26964               		.comm Log_File,544,1
 26965               		.comm fileName,20,1
 26966               		.comm tmp8,1,1
 26967               		.comm tmp16,2,1
 26968               		.comm tmp32,4,1
 26969               		.comm tmpArray,20,1
 26970               		.comm CRC,4,1
 26971               		.comm displayBuffer,816,1
 26972               		.comm result,16,1
 26973               		.comm deviceAddress,1,1
 26974               		.comm writeAddress,1,1
 26975               		.comm commandCode,1,1
 26976               		.comm colors,8,1
 26977               		.comm colors8,8,1
 26978               		.comm time,8,1
 26979               		.comm temp,50,1
 28284               	.Letext0:
DEFINED SYMBOLS
                            *ABS*:00000000 main.c
/var/folders/Z6/Z6KeChiPHmyy9lgKx9G0ak+++TI/-Tmp-//cckpZHiH.s:2      *ABS*:0000003f __SREG__
/var/folders/Z6/Z6KeChiPHmyy9lgKx9G0ak+++TI/-Tmp-//cckpZHiH.s:3      *ABS*:0000003e __SP_H__
/var/folders/Z6/Z6KeChiPHmyy9lgKx9G0ak+++TI/-Tmp-//cckpZHiH.s:4      *ABS*:0000003d __SP_L__
/var/folders/Z6/Z6KeChiPHmyy9lgKx9G0ak+++TI/-Tmp-//cckpZHiH.s:5      *ABS*:00000034 __CCP__
/var/folders/Z6/Z6KeChiPHmyy9lgKx9G0ak+++TI/-Tmp-//cckpZHiH.s:6      *ABS*:00000000 __tmp_reg__
/var/folders/Z6/Z6KeChiPHmyy9lgKx9G0ak+++TI/-Tmp-//cckpZHiH.s:7      *ABS*:00000001 __zero_reg__
/var/folders/Z6/Z6KeChiPHmyy9lgKx9G0ak+++TI/-Tmp-//cckpZHiH.s:18     .text:00000000 Debug_Init
/var/folders/Z6/Z6KeChiPHmyy9lgKx9G0ak+++TI/-Tmp-//cckpZHiH.s:60     .text:0000002e Debug_CharReadyToRead
/var/folders/Z6/Z6KeChiPHmyy9lgKx9G0ak+++TI/-Tmp-//cckpZHiH.s:25874  .bss:00000032 Debug_writeLocation
/var/folders/Z6/Z6KeChiPHmyy9lgKx9G0ak+++TI/-Tmp-//cckpZHiH.s:25868  .bss:00000030 Debug_readLocation
/var/folders/Z6/Z6KeChiPHmyy9lgKx9G0ak+++TI/-Tmp-//cckpZHiH.s:84     .text:0000004c Debug_GetByte
                            *COM*:00000400 DebugBuffer
/var/folders/Z6/Z6KeChiPHmyy9lgKx9G0ak+++TI/-Tmp-//cckpZHiH.s:141    .text:000000a0 Debug_SendByte
/var/folders/Z6/Z6KeChiPHmyy9lgKx9G0ak+++TI/-Tmp-//cckpZHiH.s:163    .text:000000b0 __vector_25
/var/folders/Z6/Z6KeChiPHmyy9lgKx9G0ak+++TI/-Tmp-//cckpZHiH.s:221    .text:0000011a Wifi_Init
/var/folders/Z6/Z6KeChiPHmyy9lgKx9G0ak+++TI/-Tmp-//cckpZHiH.s:367    .text:000001d4 Wifi_CharReadyToRead
/var/folders/Z6/Z6KeChiPHmyy9lgKx9G0ak+++TI/-Tmp-//cckpZHiH.s:25886  .bss:00000036 Wifi_writeLocation
                            *COM*:00000400 WifiBuffer
/var/folders/Z6/Z6KeChiPHmyy9lgKx9G0ak+++TI/-Tmp-//cckpZHiH.s:25880  .bss:00000034 Wifi_readLocation
/var/folders/Z6/Z6KeChiPHmyy9lgKx9G0ak+++TI/-Tmp-//cckpZHiH.s:412    .text:0000022e Wifi_ClearBuffer
/var/folders/Z6/Z6KeChiPHmyy9lgKx9G0ak+++TI/-Tmp-//cckpZHiH.s:453    .text:00000284 Wifi_GetByte
/var/folders/Z6/Z6KeChiPHmyy9lgKx9G0ak+++TI/-Tmp-//cckpZHiH.s:502    .text:000002ca Wifi_SendByte
/var/folders/Z6/Z6KeChiPHmyy9lgKx9G0ak+++TI/-Tmp-//cckpZHiH.s:524    .text:000002da Wifi_Connected
/var/folders/Z6/Z6KeChiPHmyy9lgKx9G0ak+++TI/-Tmp-//cckpZHiH.s:25928  .bss:00000044 connected
/var/folders/Z6/Z6KeChiPHmyy9lgKx9G0ak+++TI/-Tmp-//cckpZHiH.s:593    .text:0000030e Dpad_Init
/var/folders/Z6/Z6KeChiPHmyy9lgKx9G0ak+++TI/-Tmp-//cckpZHiH.s:622    .text:00000326 Dpad_Read
/var/folders/Z6/Z6KeChiPHmyy9lgKx9G0ak+++TI/-Tmp-//cckpZHiH.s:639    .text:00000330 Dpad_CheckButton
/var/folders/Z6/Z6KeChiPHmyy9lgKx9G0ak+++TI/-Tmp-//cckpZHiH.s:677    .text:00000358 Leds_Init
/var/folders/Z6/Z6KeChiPHmyy9lgKx9G0ak+++TI/-Tmp-//cckpZHiH.s:695    .text:00000364 Leds_Set
/var/folders/Z6/Z6KeChiPHmyy9lgKx9G0ak+++TI/-Tmp-//cckpZHiH.s:719    .text:0000037a Leds_Clear
/var/folders/Z6/Z6KeChiPHmyy9lgKx9G0ak+++TI/-Tmp-//cckpZHiH.s:743    .text:00000390 Leds_Toggle
/var/folders/Z6/Z6KeChiPHmyy9lgKx9G0ak+++TI/-Tmp-//cckpZHiH.s:767    .text:000003a6 Rs232_Init
/var/folders/Z6/Z6KeChiPHmyy9lgKx9G0ak+++TI/-Tmp-//cckpZHiH.s:809    .text:000003d4 Rs232_CharReadyToRead
/var/folders/Z6/Z6KeChiPHmyy9lgKx9G0ak+++TI/-Tmp-//cckpZHiH.s:25940  .bss:00000047 Rs232_writeLocation
/var/folders/Z6/Z6KeChiPHmyy9lgKx9G0ak+++TI/-Tmp-//cckpZHiH.s:25934  .bss:00000045 Rs232_readLocation
/var/folders/Z6/Z6KeChiPHmyy9lgKx9G0ak+++TI/-Tmp-//cckpZHiH.s:833    .text:000003f2 Rs232_GetByte
                            *COM*:00000400 Rs232Buffer
/var/folders/Z6/Z6KeChiPHmyy9lgKx9G0ak+++TI/-Tmp-//cckpZHiH.s:890    .text:00000446 Rs232_ClearBuffer
/var/folders/Z6/Z6KeChiPHmyy9lgKx9G0ak+++TI/-Tmp-//cckpZHiH.s:907    .text:00000458 Rs232_SendByte
/var/folders/Z6/Z6KeChiPHmyy9lgKx9G0ak+++TI/-Tmp-//cckpZHiH.s:928    .text:00000468 wait_ready
/var/folders/Z6/Z6KeChiPHmyy9lgKx9G0ak+++TI/-Tmp-//cckpZHiH.s:26933  .bss:00000087 Timer2
/var/folders/Z6/Z6KeChiPHmyy9lgKx9G0ak+++TI/-Tmp-//cckpZHiH.s:984    .text:000004a6 select
/var/folders/Z6/Z6KeChiPHmyy9lgKx9G0ak+++TI/-Tmp-//cckpZHiH.s:1037   .text:000004e0 rcvr_datablock
                             .bss:00000086 Timer1
/var/folders/Z6/Z6KeChiPHmyy9lgKx9G0ak+++TI/-Tmp-//cckpZHiH.s:1181   .text:000005a4 xmit_datablock
/var/folders/Z6/Z6KeChiPHmyy9lgKx9G0ak+++TI/-Tmp-//cckpZHiH.s:1298   .text:00000642 send_cmd
/var/folders/Z6/Z6KeChiPHmyy9lgKx9G0ak+++TI/-Tmp-//cckpZHiH.s:1515   .text:0000075a disk_initialize
/var/folders/Z6/Z6KeChiPHmyy9lgKx9G0ak+++TI/-Tmp-//cckpZHiH.s:26931  .data:00000b5d Stat
/var/folders/Z6/Z6KeChiPHmyy9lgKx9G0ak+++TI/-Tmp-//cckpZHiH.s:26934  .bss:00000088 CardType
/var/folders/Z6/Z6KeChiPHmyy9lgKx9G0ak+++TI/-Tmp-//cckpZHiH.s:1924   .text:00000966 disk_status
/var/folders/Z6/Z6KeChiPHmyy9lgKx9G0ak+++TI/-Tmp-//cckpZHiH.s:1947   .text:00000974 disk_read
/var/folders/Z6/Z6KeChiPHmyy9lgKx9G0ak+++TI/-Tmp-//cckpZHiH.s:2093   .text:00000a34 disk_write
/var/folders/Z6/Z6KeChiPHmyy9lgKx9G0ak+++TI/-Tmp-//cckpZHiH.s:2270   .text:00000b24 disk_ioctl
/var/folders/Z6/Z6KeChiPHmyy9lgKx9G0ak+++TI/-Tmp-//cckpZHiH.s:2910   .text:00000eca disk_timerproc
/var/folders/Z6/Z6KeChiPHmyy9lgKx9G0ak+++TI/-Tmp-//cckpZHiH.s:2947   .text:00000ef2 get_fattime
/var/folders/Z6/Z6KeChiPHmyy9lgKx9G0ak+++TI/-Tmp-//cckpZHiH.s:2962   .text:00000efc move_window
/var/folders/Z6/Z6KeChiPHmyy9lgKx9G0ak+++TI/-Tmp-//cckpZHiH.s:3123   .text:00000fee sync
/var/folders/Z6/Z6KeChiPHmyy9lgKx9G0ak+++TI/-Tmp-//cckpZHiH.s:3309   .text:0000110c get_fat
/var/folders/Z6/Z6KeChiPHmyy9lgKx9G0ak+++TI/-Tmp-//cckpZHiH.s:3597   .text:000012e0 put_fat
/var/folders/Z6/Z6KeChiPHmyy9lgKx9G0ak+++TI/-Tmp-//cckpZHiH.s:3914   .text:000014b8 remove_chain
/var/folders/Z6/Z6KeChiPHmyy9lgKx9G0ak+++TI/-Tmp-//cckpZHiH.s:4083   .text:000015ae create_chain
/var/folders/Z6/Z6KeChiPHmyy9lgKx9G0ak+++TI/-Tmp-//cckpZHiH.s:4404   .text:00001794 clust2sect
/var/folders/Z6/Z6KeChiPHmyy9lgKx9G0ak+++TI/-Tmp-//cckpZHiH.s:4484   .text:0000180e dir_seek
/var/folders/Z6/Z6KeChiPHmyy9lgKx9G0ak+++TI/-Tmp-//cckpZHiH.s:4804   .text:00001a06 dir_next
/var/folders/Z6/Z6KeChiPHmyy9lgKx9G0ak+++TI/-Tmp-//cckpZHiH.s:5285   .text:00001d00 dir_read
/var/folders/Z6/Z6KeChiPHmyy9lgKx9G0ak+++TI/-Tmp-//cckpZHiH.s:5381   .text:00001d68 dir_register
/var/folders/Z6/Z6KeChiPHmyy9lgKx9G0ak+++TI/-Tmp-//cckpZHiH.s:5543   .text:00001e28 dir_remove
/var/folders/Z6/Z6KeChiPHmyy9lgKx9G0ak+++TI/-Tmp-//cckpZHiH.s:5602   .text:00001e6a get_fileinfo
/var/folders/Z6/Z6KeChiPHmyy9lgKx9G0ak+++TI/-Tmp-//cckpZHiH.s:5801   .text:00001f82 follow_path
/var/folders/Z6/Z6KeChiPHmyy9lgKx9G0ak+++TI/-Tmp-//cckpZHiH.s:6338   .text:0000222e check_fs
/var/folders/Z6/Z6KeChiPHmyy9lgKx9G0ak+++TI/-Tmp-//cckpZHiH.s:6492   .text:00002334 chk_mounted
/var/folders/Z6/Z6KeChiPHmyy9lgKx9G0ak+++TI/-Tmp-//cckpZHiH.s:26935  .bss:00000089 FatFs
/var/folders/Z6/Z6KeChiPHmyy9lgKx9G0ak+++TI/-Tmp-//cckpZHiH.s:26936  .bss:0000008b Fsid
/var/folders/Z6/Z6KeChiPHmyy9lgKx9G0ak+++TI/-Tmp-//cckpZHiH.s:7352   .text:000028ea validate
/var/folders/Z6/Z6KeChiPHmyy9lgKx9G0ak+++TI/-Tmp-//cckpZHiH.s:7402   .text:0000291e f_mount
/var/folders/Z6/Z6KeChiPHmyy9lgKx9G0ak+++TI/-Tmp-//cckpZHiH.s:7445   .text:00002948 f_open
/var/folders/Z6/Z6KeChiPHmyy9lgKx9G0ak+++TI/-Tmp-//cckpZHiH.s:7920   .text:00002c28 f_read
/var/folders/Z6/Z6KeChiPHmyy9lgKx9G0ak+++TI/-Tmp-//cckpZHiH.s:8586   .text:00003012 f_write
/var/folders/Z6/Z6KeChiPHmyy9lgKx9G0ak+++TI/-Tmp-//cckpZHiH.s:9350   .text:0000349c f_sync
/var/folders/Z6/Z6KeChiPHmyy9lgKx9G0ak+++TI/-Tmp-//cckpZHiH.s:9515   .text:0000358c f_close
/var/folders/Z6/Z6KeChiPHmyy9lgKx9G0ak+++TI/-Tmp-//cckpZHiH.s:9545   .text:000035a4 f_lseek
/var/folders/Z6/Z6KeChiPHmyy9lgKx9G0ak+++TI/-Tmp-//cckpZHiH.s:10241  .text:00003a00 f_opendir
/var/folders/Z6/Z6KeChiPHmyy9lgKx9G0ak+++TI/-Tmp-//cckpZHiH.s:10381  .text:00003ac6 f_readdir
/var/folders/Z6/Z6KeChiPHmyy9lgKx9G0ak+++TI/-Tmp-//cckpZHiH.s:10490  .text:00003b5c f_stat
/var/folders/Z6/Z6KeChiPHmyy9lgKx9G0ak+++TI/-Tmp-//cckpZHiH.s:10581  .text:00003bda f_getfree
/var/folders/Z6/Z6KeChiPHmyy9lgKx9G0ak+++TI/-Tmp-//cckpZHiH.s:10962  .text:00003e26 f_truncate
/var/folders/Z6/Z6KeChiPHmyy9lgKx9G0ak+++TI/-Tmp-//cckpZHiH.s:11153  .text:00003f40 f_unlink
/var/folders/Z6/Z6KeChiPHmyy9lgKx9G0ak+++TI/-Tmp-//cckpZHiH.s:11374  .text:00004074 f_mkdir
/var/folders/Z6/Z6KeChiPHmyy9lgKx9G0ak+++TI/-Tmp-//cckpZHiH.s:11890  .text:00004366 f_chmod
/var/folders/Z6/Z6KeChiPHmyy9lgKx9G0ak+++TI/-Tmp-//cckpZHiH.s:11995  .text:000043f0 f_utime
/var/folders/Z6/Z6KeChiPHmyy9lgKx9G0ak+++TI/-Tmp-//cckpZHiH.s:12105  .text:0000448a f_rename
/var/folders/Z6/Z6KeChiPHmyy9lgKx9G0ak+++TI/-Tmp-//cckpZHiH.s:12516  .text:000046d8 f_gets
/var/folders/Z6/Z6KeChiPHmyy9lgKx9G0ak+++TI/-Tmp-//cckpZHiH.s:12631  .text:00004774 f_putc
/var/folders/Z6/Z6KeChiPHmyy9lgKx9G0ak+++TI/-Tmp-//cckpZHiH.s:12692  .text:000047c0 f_puts
/var/folders/Z6/Z6KeChiPHmyy9lgKx9G0ak+++TI/-Tmp-//cckpZHiH.s:12752  .text:00004808 SD_Inserted
/var/folders/Z6/Z6KeChiPHmyy9lgKx9G0ak+++TI/-Tmp-//cckpZHiH.s:12771  .text:00004816 SD2_Inserted
/var/folders/Z6/Z6KeChiPHmyy9lgKx9G0ak+++TI/-Tmp-//cckpZHiH.s:12790  .text:00004824 SD_WriteBuffer
                            *COM*:00000220 Log_File
                            *COM*:00000004 CRC
/var/folders/Z6/Z6KeChiPHmyy9lgKx9G0ak+++TI/-Tmp-//cckpZHiH.s:12928  .text:00004924 SD_Write32
                            *COM*:00000004 tmp32
/var/folders/Z6/Z6KeChiPHmyy9lgKx9G0ak+++TI/-Tmp-//cckpZHiH.s:12967  .text:00004958 SD_Write16
                            *COM*:00000002 tmp16
/var/folders/Z6/Z6KeChiPHmyy9lgKx9G0ak+++TI/-Tmp-//cckpZHiH.s:12993  .text:0000496e SD_Write8
                            *COM*:00000001 tmp8
/var/folders/Z6/Z6KeChiPHmyy9lgKx9G0ak+++TI/-Tmp-//cckpZHiH.s:13015  .text:00004980 SD_ClearCRC
/var/folders/Z6/Z6KeChiPHmyy9lgKx9G0ak+++TI/-Tmp-//cckpZHiH.s:13036  .text:0000499a SD_WriteCRC
/var/folders/Z6/Z6KeChiPHmyy9lgKx9G0ak+++TI/-Tmp-//cckpZHiH.s:13058  .text:000049b8 SD_Timer_Init
/var/folders/Z6/Z6KeChiPHmyy9lgKx9G0ak+++TI/-Tmp-//cckpZHiH.s:13087  .text:000049d6 SD_Init
/var/folders/Z6/Z6KeChiPHmyy9lgKx9G0ak+++TI/-Tmp-//cckpZHiH.s:26937  .bss:0000008d file_system_object
/var/folders/Z6/Z6KeChiPHmyy9lgKx9G0ak+++TI/-Tmp-//cckpZHiH.s:13116  .text:000049f6 __vector_47
/var/folders/Z6/Z6KeChiPHmyy9lgKx9G0ak+++TI/-Tmp-//cckpZHiH.s:25988  .bss:00000057 okToCharge
/var/folders/Z6/Z6KeChiPHmyy9lgKx9G0ak+++TI/-Tmp-//cckpZHiH.s:25976  .bss:00000054 chargeCounter
/var/folders/Z6/Z6KeChiPHmyy9lgKx9G0ak+++TI/-Tmp-//cckpZHiH.s:25970  .bss:00000053 chargePercent
/var/folders/Z6/Z6KeChiPHmyy9lgKx9G0ak+++TI/-Tmp-//cckpZHiH.s:13189  .text:00004a78 CCPWrite
/var/folders/Z6/Z6KeChiPHmyy9lgKx9G0ak+++TI/-Tmp-//cckpZHiH.s:13238  .text:00004aa2 display_sendCommand
/var/folders/Z6/Z6KeChiPHmyy9lgKx9G0ak+++TI/-Tmp-//cckpZHiH.s:13266  .text:00004aba display_sendData
/var/folders/Z6/Z6KeChiPHmyy9lgKx9G0ak+++TI/-Tmp-//cckpZHiH.s:13294  .text:00004ad2 display_setCursor
/var/folders/Z6/Z6KeChiPHmyy9lgKx9G0ak+++TI/-Tmp-//cckpZHiH.s:13372  .text:00004b22 display_writeBufferToScreen
                            *COM*:00000330 displayBuffer
/var/folders/Z6/Z6KeChiPHmyy9lgKx9G0ak+++TI/-Tmp-//cckpZHiH.s:13471  .text:00004baa display_clearPage
/var/folders/Z6/Z6KeChiPHmyy9lgKx9G0ak+++TI/-Tmp-//cckpZHiH.s:13512  .text:00004bdc display_clearBuffer
/var/folders/Z6/Z6KeChiPHmyy9lgKx9G0ak+++TI/-Tmp-//cckpZHiH.s:13560  .text:00004c1a display_init
/var/folders/Z6/Z6KeChiPHmyy9lgKx9G0ak+++TI/-Tmp-//cckpZHiH.s:13969  .text:00004dde display_putString
/var/folders/Z6/Z6KeChiPHmyy9lgKx9G0ak+++TI/-Tmp-//cckpZHiH.s:14291  .text:00004faa display_drawPixel
/var/folders/Z6/Z6KeChiPHmyy9lgKx9G0ak+++TI/-Tmp-//cckpZHiH.s:14375  .text:0000502a swap
/var/folders/Z6/Z6KeChiPHmyy9lgKx9G0ak+++TI/-Tmp-//cckpZHiH.s:14399  .text:00005038 display_drawLine
/var/folders/Z6/Z6KeChiPHmyy9lgKx9G0ak+++TI/-Tmp-//cckpZHiH.s:14549  .text:000050d2 display_drawRectangle
/var/folders/Z6/Z6KeChiPHmyy9lgKx9G0ak+++TI/-Tmp-//cckpZHiH.s:14781  .text:0000520e Time_Init
/var/folders/Z6/Z6KeChiPHmyy9lgKx9G0ak+++TI/-Tmp-//cckpZHiH.s:14828  .text:0000524c Time_Set
/var/folders/Z6/Z6KeChiPHmyy9lgKx9G0ak+++TI/-Tmp-//cckpZHiH.s:25994  .bss:00000058 UNIX_time
/var/folders/Z6/Z6KeChiPHmyy9lgKx9G0ak+++TI/-Tmp-//cckpZHiH.s:14858  .text:00005262 Time_Get32BitTimer
/var/folders/Z6/Z6KeChiPHmyy9lgKx9G0ak+++TI/-Tmp-//cckpZHiH.s:14922  .text:000052b2 __vector_77
/var/folders/Z6/Z6KeChiPHmyy9lgKx9G0ak+++TI/-Tmp-//cckpZHiH.s:14963  .text:000052fc Sensors_Init
/var/folders/Z6/Z6KeChiPHmyy9lgKx9G0ak+++TI/-Tmp-//cckpZHiH.s:15065  .text:00005384 Sensors_ReadTemperature
/var/folders/Z6/Z6KeChiPHmyy9lgKx9G0ak+++TI/-Tmp-//cckpZHiH.s:15104  .text:000053b4 Sensors_ReadHumidity
/var/folders/Z6/Z6KeChiPHmyy9lgKx9G0ak+++TI/-Tmp-//cckpZHiH.s:15143  .text:000053e4 Sensors_ReadMicrophone
/var/folders/Z6/Z6KeChiPHmyy9lgKx9G0ak+++TI/-Tmp-//cckpZHiH.s:15165  .text:000053f8 Sensors_ReadPressure
/var/folders/Z6/Z6KeChiPHmyy9lgKx9G0ak+++TI/-Tmp-//cckpZHiH.s:15204  .text:00005428 Sensors_ResetTemperatureBuffers
/var/folders/Z6/Z6KeChiPHmyy9lgKx9G0ak+++TI/-Tmp-//cckpZHiH.s:26105  .bss:00000061 temperatureBufferCounter
/var/folders/Z6/Z6KeChiPHmyy9lgKx9G0ak+++TI/-Tmp-//cckpZHiH.s:26098  .data:00000859 temperatureBufferToWriteTo
/var/folders/Z6/Z6KeChiPHmyy9lgKx9G0ak+++TI/-Tmp-//cckpZHiH.s:26086  .bss:0000005f okToSendTemperatureBuffer1
/var/folders/Z6/Z6KeChiPHmyy9lgKx9G0ak+++TI/-Tmp-//cckpZHiH.s:26092  .bss:00000060 okToSendTemperatureBuffer2
/var/folders/Z6/Z6KeChiPHmyy9lgKx9G0ak+++TI/-Tmp-//cckpZHiH.s:15225  .text:0000543c Sensors_ResetPressureBuffers
/var/folders/Z6/Z6KeChiPHmyy9lgKx9G0ak+++TI/-Tmp-//cckpZHiH.s:26130  .bss:00000064 pressureBufferCounter
/var/folders/Z6/Z6KeChiPHmyy9lgKx9G0ak+++TI/-Tmp-//cckpZHiH.s:26123  .data:0000085a pressureBufferToWriteTo
/var/folders/Z6/Z6KeChiPHmyy9lgKx9G0ak+++TI/-Tmp-//cckpZHiH.s:26111  .bss:00000062 okToSendPressureBuffer1
/var/folders/Z6/Z6KeChiPHmyy9lgKx9G0ak+++TI/-Tmp-//cckpZHiH.s:26117  .bss:00000063 okToSendPressureBuffer2
/var/folders/Z6/Z6KeChiPHmyy9lgKx9G0ak+++TI/-Tmp-//cckpZHiH.s:15246  .text:00005450 Sensors_ResetHumidityBuffers
/var/folders/Z6/Z6KeChiPHmyy9lgKx9G0ak+++TI/-Tmp-//cckpZHiH.s:26155  .bss:00000067 humidityBufferCounter
/var/folders/Z6/Z6KeChiPHmyy9lgKx9G0ak+++TI/-Tmp-//cckpZHiH.s:26148  .data:0000085b humidityBufferToWriteTo
/var/folders/Z6/Z6KeChiPHmyy9lgKx9G0ak+++TI/-Tmp-//cckpZHiH.s:26136  .bss:00000065 okToSendHumidityBuffer1
/var/folders/Z6/Z6KeChiPHmyy9lgKx9G0ak+++TI/-Tmp-//cckpZHiH.s:26142  .bss:00000066 okToSendHumidityBuffer2
/var/folders/Z6/Z6KeChiPHmyy9lgKx9G0ak+++TI/-Tmp-//cckpZHiH.s:15267  .text:00005464 Sensors_ResetMicrophoneBuffers
/var/folders/Z6/Z6KeChiPHmyy9lgKx9G0ak+++TI/-Tmp-//cckpZHiH.s:26180  .bss:0000006a microphoneBufferCounter
/var/folders/Z6/Z6KeChiPHmyy9lgKx9G0ak+++TI/-Tmp-//cckpZHiH.s:26173  .data:0000085c microphoneBufferToWriteTo
/var/folders/Z6/Z6KeChiPHmyy9lgKx9G0ak+++TI/-Tmp-//cckpZHiH.s:26161  .bss:00000068 okToSendMicrophoneBuffer1
/var/folders/Z6/Z6KeChiPHmyy9lgKx9G0ak+++TI/-Tmp-//cckpZHiH.s:26167  .bss:00000069 okToSendMicrophoneBuffer2
/var/folders/Z6/Z6KeChiPHmyy9lgKx9G0ak+++TI/-Tmp-//cckpZHiH.s:15289  .text:0000547c Sensors_ResetLightBuffers
/var/folders/Z6/Z6KeChiPHmyy9lgKx9G0ak+++TI/-Tmp-//cckpZHiH.s:26205  .bss:0000006e lightBufferCounter
/var/folders/Z6/Z6KeChiPHmyy9lgKx9G0ak+++TI/-Tmp-//cckpZHiH.s:26198  .data:0000085d lightBufferToWriteTo
/var/folders/Z6/Z6KeChiPHmyy9lgKx9G0ak+++TI/-Tmp-//cckpZHiH.s:26186  .bss:0000006c okToSendLightBuffer1
/var/folders/Z6/Z6KeChiPHmyy9lgKx9G0ak+++TI/-Tmp-//cckpZHiH.s:26192  .bss:0000006d okToSendLightBuffer2
/var/folders/Z6/Z6KeChiPHmyy9lgKx9G0ak+++TI/-Tmp-//cckpZHiH.s:15310  .text:00005490 __vector_108
/var/folders/Z6/Z6KeChiPHmyy9lgKx9G0ak+++TI/-Tmp-//cckpZHiH.s:26074  .bss:0000005d recording
/var/folders/Z6/Z6KeChiPHmyy9lgKx9G0ak+++TI/-Tmp-//cckpZHiH.s:26238  .data:00000861 wantToRecordMicrophone
/var/folders/Z6/Z6KeChiPHmyy9lgKx9G0ak+++TI/-Tmp-//cckpZHiH.s:25832  .bss:00000018 microphoneSampleStartTime1
                            *COM*:000003e8 microphoneBuffer1
/var/folders/Z6/Z6KeChiPHmyy9lgKx9G0ak+++TI/-Tmp-//cckpZHiH.s:26285  .bss:00000077 micSampleCounter
/var/folders/Z6/Z6KeChiPHmyy9lgKx9G0ak+++TI/-Tmp-//cckpZHiH.s:26279  .bss:00000076 quickMic
/var/folders/Z6/Z6KeChiPHmyy9lgKx9G0ak+++TI/-Tmp-//cckpZHiH.s:25838  .bss:0000001c microphoneSampleStartTime2
                            *COM*:000003e8 microphoneBuffer2
/var/folders/Z6/Z6KeChiPHmyy9lgKx9G0ak+++TI/-Tmp-//cckpZHiH.s:15505  .text:0000562a Light_readByte
                            *COM*:00000001 deviceAddress
                            *COM*:00000001 commandCode
                            *COM*:00000001 writeAddress
/var/folders/Z6/Z6KeChiPHmyy9lgKx9G0ak+++TI/-Tmp-//cckpZHiH.s:15567  .text:0000567a Light_readColors
                            *COM*:00000008 colors8
                            *COM*:00000008 colors
/var/folders/Z6/Z6KeChiPHmyy9lgKx9G0ak+++TI/-Tmp-//cckpZHiH.s:15686  .text:00005748 Light_returnColor
/var/folders/Z6/Z6KeChiPHmyy9lgKx9G0ak+++TI/-Tmp-//cckpZHiH.s:15709  .text:0000575a Light_writeByte
/var/folders/Z6/Z6KeChiPHmyy9lgKx9G0ak+++TI/-Tmp-//cckpZHiH.s:15763  .text:000057a0 Light_setGain
/var/folders/Z6/Z6KeChiPHmyy9lgKx9G0ak+++TI/-Tmp-//cckpZHiH.s:26000  .bss:0000005c gainSelector
/var/folders/Z6/Z6KeChiPHmyy9lgKx9G0ak+++TI/-Tmp-//cckpZHiH.s:26006  .data:00000823 integrationTime
/var/folders/Z6/Z6KeChiPHmyy9lgKx9G0ak+++TI/-Tmp-//cckpZHiH.s:26019  .data:0000082c gainSetting
/var/folders/Z6/Z6KeChiPHmyy9lgKx9G0ak+++TI/-Tmp-//cckpZHiH.s:15801  .text:000057da Light_Init
/var/folders/Z6/Z6KeChiPHmyy9lgKx9G0ak+++TI/-Tmp-//cckpZHiH.s:15835  .text:000057fc __vector_83
/var/folders/Z6/Z6KeChiPHmyy9lgKx9G0ak+++TI/-Tmp-//cckpZHiH.s:26217  .bss:00000070 rtcBlockCounter
/var/folders/Z6/Z6KeChiPHmyy9lgKx9G0ak+++TI/-Tmp-//cckpZHiH.s:26211  .bss:0000006f okToSendRTCBlock
/var/folders/Z6/Z6KeChiPHmyy9lgKx9G0ak+++TI/-Tmp-//cckpZHiH.s:26223  .data:0000085e wantToRecordTemperature
/var/folders/Z6/Z6KeChiPHmyy9lgKx9G0ak+++TI/-Tmp-//cckpZHiH.s:25796  .bss:00000000 temperatureSampleStartTime1
                            *COM*:00000014 temperatureBuffer1
/var/folders/Z6/Z6KeChiPHmyy9lgKx9G0ak+++TI/-Tmp-//cckpZHiH.s:26255  .bss:00000071 quickTemperature
/var/folders/Z6/Z6KeChiPHmyy9lgKx9G0ak+++TI/-Tmp-//cckpZHiH.s:25802  .bss:00000004 temperatureSampleStartTime2
                            *COM*:00000014 temperatureBuffer2
/var/folders/Z6/Z6KeChiPHmyy9lgKx9G0ak+++TI/-Tmp-//cckpZHiH.s:26233  .data:00000860 wantToRecordHumidity
/var/folders/Z6/Z6KeChiPHmyy9lgKx9G0ak+++TI/-Tmp-//cckpZHiH.s:25808  .bss:00000008 humiditySampleStartTime1
                            *COM*:0000000a humidityBuffer1
/var/folders/Z6/Z6KeChiPHmyy9lgKx9G0ak+++TI/-Tmp-//cckpZHiH.s:26261  .bss:00000072 quickHumidity
/var/folders/Z6/Z6KeChiPHmyy9lgKx9G0ak+++TI/-Tmp-//cckpZHiH.s:25814  .bss:0000000c humiditySampleStartTime2
                            *COM*:0000000a humidityBuffer2
/var/folders/Z6/Z6KeChiPHmyy9lgKx9G0ak+++TI/-Tmp-//cckpZHiH.s:26228  .data:0000085f wantToRecordPressure
/var/folders/Z6/Z6KeChiPHmyy9lgKx9G0ak+++TI/-Tmp-//cckpZHiH.s:25820  .bss:00000010 pressureSampleStartTime1
                            *COM*:0000000a pressureBuffer1
/var/folders/Z6/Z6KeChiPHmyy9lgKx9G0ak+++TI/-Tmp-//cckpZHiH.s:26267  .bss:00000073 quickPressure
/var/folders/Z6/Z6KeChiPHmyy9lgKx9G0ak+++TI/-Tmp-//cckpZHiH.s:25826  .bss:00000014 pressureSampleStartTime2
                            *COM*:0000000a pressureBuffer2
/var/folders/Z6/Z6KeChiPHmyy9lgKx9G0ak+++TI/-Tmp-//cckpZHiH.s:26243  .data:00000862 wantToRecordLight
/var/folders/Z6/Z6KeChiPHmyy9lgKx9G0ak+++TI/-Tmp-//cckpZHiH.s:26273  .bss:00000074 quickLight
/var/folders/Z6/Z6KeChiPHmyy9lgKx9G0ak+++TI/-Tmp-//cckpZHiH.s:26032  .data:00000835 resultMultiplier
                            *COM*:00000010 result
/var/folders/Z6/Z6KeChiPHmyy9lgKx9G0ak+++TI/-Tmp-//cckpZHiH.s:25844  .bss:00000020 lightSampleStartTime1
                            *COM*:000000a0 lightBuffer1
/var/folders/Z6/Z6KeChiPHmyy9lgKx9G0ak+++TI/-Tmp-//cckpZHiH.s:25850  .bss:00000024 lightSampleStartTime2
                            *COM*:000000a0 lightBuffer2
/var/folders/Z6/Z6KeChiPHmyy9lgKx9G0ak+++TI/-Tmp-//cckpZHiH.s:16588  .text:00005dfe RTC_UTCSecsToTime
/var/folders/Z6/Z6KeChiPHmyy9lgKx9G0ak+++TI/-Tmp-//cckpZHiH.s:26916  .data:00000b51 monthDays
/var/folders/Z6/Z6KeChiPHmyy9lgKx9G0ak+++TI/-Tmp-//cckpZHiH.s:16907  .text:00006004 RTC_TimeToUTCSecs
/var/folders/Z6/Z6KeChiPHmyy9lgKx9G0ak+++TI/-Tmp-//cckpZHiH.s:17155  .text:000061b6 RTC_sendBytes
/var/folders/Z6/Z6KeChiPHmyy9lgKx9G0ak+++TI/-Tmp-//cckpZHiH.s:17204  .text:000061ea RTC_setTime
                            *COM*:00000008 time
/var/folders/Z6/Z6KeChiPHmyy9lgKx9G0ak+++TI/-Tmp-//cckpZHiH.s:17356  .text:0000631a RTC_setUTCSecs
/var/folders/Z6/Z6KeChiPHmyy9lgKx9G0ak+++TI/-Tmp-//cckpZHiH.s:17376  .text:00006328 RTC_init
/var/folders/Z6/Z6KeChiPHmyy9lgKx9G0ak+++TI/-Tmp-//cckpZHiH.s:17433  .text:00006374 RTC_receiveBytes
/var/folders/Z6/Z6KeChiPHmyy9lgKx9G0ak+++TI/-Tmp-//cckpZHiH.s:17489  .text:000063ae RTC_getTime
/var/folders/Z6/Z6KeChiPHmyy9lgKx9G0ak+++TI/-Tmp-//cckpZHiH.s:17714  .text:00006556 RTC_getUTCSecs
/var/folders/Z6/Z6KeChiPHmyy9lgKx9G0ak+++TI/-Tmp-//cckpZHiH.s:17732  .text:00006564 Clock_Init
/var/folders/Z6/Z6KeChiPHmyy9lgKx9G0ak+++TI/-Tmp-//cckpZHiH.s:17807  .text:000065be Disable_JTAG
/var/folders/Z6/Z6KeChiPHmyy9lgKx9G0ak+++TI/-Tmp-//cckpZHiH.s:17861  .text:000065ee DMA_Init
/var/folders/Z6/Z6KeChiPHmyy9lgKx9G0ak+++TI/-Tmp-//cckpZHiH.s:17913  .text:00006628 Interrupt_Init
/var/folders/Z6/Z6KeChiPHmyy9lgKx9G0ak+++TI/-Tmp-//cckpZHiH.s:17937  .text:00006636 SD_BackroundWriter_Init
/var/folders/Z6/Z6KeChiPHmyy9lgKx9G0ak+++TI/-Tmp-//cckpZHiH.s:17966  .text:00006654 SD_WriteRTCBlock
/var/folders/Z6/Z6KeChiPHmyy9lgKx9G0ak+++TI/-Tmp-//cckpZHiH.s:18055  .text:000066e4 Rs232_To_Debug
/var/folders/Z6/Z6KeChiPHmyy9lgKx9G0ak+++TI/-Tmp-//cckpZHiH.s:18096  .text:00006714 Debug_To_Wifi
/var/folders/Z6/Z6KeChiPHmyy9lgKx9G0ak+++TI/-Tmp-//cckpZHiH.s:18161  .text:00006760 SD_MakeFileName
                            *COM*:00000014 fileName
/var/folders/Z6/Z6KeChiPHmyy9lgKx9G0ak+++TI/-Tmp-//cckpZHiH.s:18196  .text:0000678c SD_WriteString
/var/folders/Z6/Z6KeChiPHmyy9lgKx9G0ak+++TI/-Tmp-//cckpZHiH.s:18327  .text:00006872 SD_WriteAirSample
/var/folders/Z6/Z6KeChiPHmyy9lgKx9G0ak+++TI/-Tmp-//cckpZHiH.s:25856  .bss:00000028 airSampleTime
                            *COM*:00000004 smallCount
                            *COM*:00000004 largeCount
/var/folders/Z6/Z6KeChiPHmyy9lgKx9G0ak+++TI/-Tmp-//cckpZHiH.s:18449  .text:00006952 SD_WriteLightBuffer
/var/folders/Z6/Z6KeChiPHmyy9lgKx9G0ak+++TI/-Tmp-//cckpZHiH.s:18638  .text:00006a94 SD_WriteMicrophoneBuffer
/var/folders/Z6/Z6KeChiPHmyy9lgKx9G0ak+++TI/-Tmp-//cckpZHiH.s:18756  .text:00006b5a SD_WritePressureBuffer
/var/folders/Z6/Z6KeChiPHmyy9lgKx9G0ak+++TI/-Tmp-//cckpZHiH.s:18895  .text:00006c3c SD_WriteHumidityBuffer
/var/folders/Z6/Z6KeChiPHmyy9lgKx9G0ak+++TI/-Tmp-//cckpZHiH.s:19036  .text:00006d1e SD_WriteTemperatureBuffer
/var/folders/Z6/Z6KeChiPHmyy9lgKx9G0ak+++TI/-Tmp-//cckpZHiH.s:19173  .text:00006e04 Rs232_SendString
/var/folders/Z6/Z6KeChiPHmyy9lgKx9G0ak+++TI/-Tmp-//cckpZHiH.s:19255  .text:00006e58 Wifi_SendString
/var/folders/Z6/Z6KeChiPHmyy9lgKx9G0ak+++TI/-Tmp-//cckpZHiH.s:19343  .text:00006eac Wifi_EnterCMDMode
/var/folders/Z6/Z6KeChiPHmyy9lgKx9G0ak+++TI/-Tmp-//cckpZHiH.s:19502  .text:00006f72 Debug_SendString
/var/folders/Z6/Z6KeChiPHmyy9lgKx9G0ak+++TI/-Tmp-//cckpZHiH.s:19608  .text:00006fc6 __vector_53
/var/folders/Z6/Z6KeChiPHmyy9lgKx9G0ak+++TI/-Tmp-//cckpZHiH.s:25946  .bss:00000049 okToSendAirQuality
                            *COM*:00000032 temp
/var/folders/Z6/Z6KeChiPHmyy9lgKx9G0ak+++TI/-Tmp-//cckpZHiH.s:19868  .text:000071b2 SD_Close
/var/folders/Z6/Z6KeChiPHmyy9lgKx9G0ak+++TI/-Tmp-//cckpZHiH.s:19893  .text:000071c6 SD_Open
/var/folders/Z6/Z6KeChiPHmyy9lgKx9G0ak+++TI/-Tmp-//cckpZHiH.s:19958  .text:000071f0 Read_config_file
/var/folders/Z6/Z6KeChiPHmyy9lgKx9G0ak+++TI/-Tmp-//cckpZHiH.s:26315  .data:0000092c ssid
/var/folders/Z6/Z6KeChiPHmyy9lgKx9G0ak+++TI/-Tmp-//cckpZHiH.s:26353  .bss:0000007c ssidRead
/var/folders/Z6/Z6KeChiPHmyy9lgKx9G0ak+++TI/-Tmp-//cckpZHiH.s:26297  .data:00000896 phrase
/var/folders/Z6/Z6KeChiPHmyy9lgKx9G0ak+++TI/-Tmp-//cckpZHiH.s:26335  .bss:00000079 phraseRead
/var/folders/Z6/Z6KeChiPHmyy9lgKx9G0ak+++TI/-Tmp-//cckpZHiH.s:26303  .data:000008c8 key
/var/folders/Z6/Z6KeChiPHmyy9lgKx9G0ak+++TI/-Tmp-//cckpZHiH.s:26341  .bss:0000007a keyRead
/var/folders/Z6/Z6KeChiPHmyy9lgKx9G0ak+++TI/-Tmp-//cckpZHiH.s:26309  .data:000008fa port
/var/folders/Z6/Z6KeChiPHmyy9lgKx9G0ak+++TI/-Tmp-//cckpZHiH.s:26347  .bss:0000007b portRead
/var/folders/Z6/Z6KeChiPHmyy9lgKx9G0ak+++TI/-Tmp-//cckpZHiH.s:26291  .data:00000864 auth
/var/folders/Z6/Z6KeChiPHmyy9lgKx9G0ak+++TI/-Tmp-//cckpZHiH.s:26329  .bss:00000078 authRead
/var/folders/Z6/Z6KeChiPHmyy9lgKx9G0ak+++TI/-Tmp-//cckpZHiH.s:26321  .data:0000095e zone
/var/folders/Z6/Z6KeChiPHmyy9lgKx9G0ak+++TI/-Tmp-//cckpZHiH.s:26359  .bss:0000007d zoneChanged
/var/folders/Z6/Z6KeChiPHmyy9lgKx9G0ak+++TI/-Tmp-//cckpZHiH.s:26365  .bss:0000007e timeZoneShift
/var/folders/Z6/Z6KeChiPHmyy9lgKx9G0ak+++TI/-Tmp-//cckpZHiH.s:20421  .text:0000748e SD_StartLogFile
                            *COM*:00000014 macAddr
/var/folders/Z6/Z6KeChiPHmyy9lgKx9G0ak+++TI/-Tmp-//cckpZHiH.s:20637  .text:0000760a Wifi_SendCommand
/var/folders/Z6/Z6KeChiPHmyy9lgKx9G0ak+++TI/-Tmp-//cckpZHiH.s:25892  .bss:00000038 respLen
/var/folders/Z6/Z6KeChiPHmyy9lgKx9G0ak+++TI/-Tmp-//cckpZHiH.s:25898  .bss:00000039 toSendLen
/var/folders/Z6/Z6KeChiPHmyy9lgKx9G0ak+++TI/-Tmp-//cckpZHiH.s:25904  .bss:0000003a okLen
                            *COM*:00000032 resp
/var/folders/Z6/Z6KeChiPHmyy9lgKx9G0ak+++TI/-Tmp-//cckpZHiH.s:20969  .text:000077e6 Wifi_GetMac
/var/folders/Z6/Z6KeChiPHmyy9lgKx9G0ak+++TI/-Tmp-//cckpZHiH.s:21102  .text:00007870 Wifi_ExitCMDMode
/var/folders/Z6/Z6KeChiPHmyy9lgKx9G0ak+++TI/-Tmp-//cckpZHiH.s:21125  .text:00007882 f_printf
/var/folders/Z6/Z6KeChiPHmyy9lgKx9G0ak+++TI/-Tmp-//cckpZHiH.s:21613  .text:00007b34 __vector_88
/var/folders/Z6/Z6KeChiPHmyy9lgKx9G0ak+++TI/-Tmp-//cckpZHiH.s:25964  .bss:00000052 rs232Recording
                            *COM*:00000032 airQualityString
/var/folders/Z6/Z6KeChiPHmyy9lgKx9G0ak+++TI/-Tmp-//cckpZHiH.s:25952  .bss:0000004a quickSmall
/var/folders/Z6/Z6KeChiPHmyy9lgKx9G0ak+++TI/-Tmp-//cckpZHiH.s:25958  .bss:0000004e quickLarge
/var/folders/Z6/Z6KeChiPHmyy9lgKx9G0ak+++TI/-Tmp-//cckpZHiH.s:21805  .text:00007ca8 Wifi_GetTime
                            *COM*:00000032 string
/var/folders/Z6/Z6KeChiPHmyy9lgKx9G0ak+++TI/-Tmp-//cckpZHiH.s:25916  .bss:0000003c time_secs
                            *COM*:0000000f timeString
                            *COM*:0000000a timeUpper
                            *COM*:0000000a timeLower
/var/folders/Z6/Z6KeChiPHmyy9lgKx9G0ak+++TI/-Tmp-//cckpZHiH.s:22108  .text:00007e08 Config_Wifi
/var/folders/Z6/Z6KeChiPHmyy9lgKx9G0ak+++TI/-Tmp-//cckpZHiH.s:26427  .data:0000096b System5x7
/var/folders/Z6/Z6KeChiPHmyy9lgKx9G0ak+++TI/-Tmp-//cckpZHiH.s:26413  .data:00000968 needToChangeBaud
/var/folders/Z6/Z6KeChiPHmyy9lgKx9G0ak+++TI/-Tmp-//cckpZHiH.s:23184  .text:000082b6 Wifi_GetSignalStrength
                            *COM*:0000000a rssi
/var/folders/Z6/Z6KeChiPHmyy9lgKx9G0ak+++TI/-Tmp-//cckpZHiH.s:23405  .text:00008374 main
/var/folders/Z6/Z6KeChiPHmyy9lgKx9G0ak+++TI/-Tmp-//cckpZHiH.s:26418  .data:00000969 demoMode
/var/folders/Z6/Z6KeChiPHmyy9lgKx9G0ak+++TI/-Tmp-//cckpZHiH.s:26423  .data:0000096a demoModeFirstFile
/var/folders/Z6/Z6KeChiPHmyy9lgKx9G0ak+++TI/-Tmp-//cckpZHiH.s:25862  .bss:0000002c timeRecordingStarted
/var/folders/Z6/Z6KeChiPHmyy9lgKx9G0ak+++TI/-Tmp-//cckpZHiH.s:26383  .bss:00000081 ssRefreshCounter
/var/folders/Z6/Z6KeChiPHmyy9lgKx9G0ak+++TI/-Tmp-//cckpZHiH.s:26389  .bss:00000082 signalStrength
/var/folders/Z6/Z6KeChiPHmyy9lgKx9G0ak+++TI/-Tmp-//cckpZHiH.s:26377  .bss:00000080 currentMode
/var/folders/Z6/Z6KeChiPHmyy9lgKx9G0ak+++TI/-Tmp-//cckpZHiH.s:25982  .bss:00000056 chargeComplete
/var/folders/Z6/Z6KeChiPHmyy9lgKx9G0ak+++TI/-Tmp-//cckpZHiH.s:26395  .bss:00000083 uploadPercentBS
/var/folders/Z6/Z6KeChiPHmyy9lgKx9G0ak+++TI/-Tmp-//cckpZHiH.s:26407  .bss:00000085 rtcSynced
/var/folders/Z6/Z6KeChiPHmyy9lgKx9G0ak+++TI/-Tmp-//cckpZHiH.s:26401  .bss:00000084 uploadPercentEXT
/var/folders/Z6/Z6KeChiPHmyy9lgKx9G0ak+++TI/-Tmp-//cckpZHiH.s:26371  .bss:0000007f clockHour
/var/folders/Z6/Z6KeChiPHmyy9lgKx9G0ak+++TI/-Tmp-//cckpZHiH.s:25910  .bss:0000003b timeLength
/var/folders/Z6/Z6KeChiPHmyy9lgKx9G0ak+++TI/-Tmp-//cckpZHiH.s:25922  .bss:00000040 time_nanos
/var/folders/Z6/Z6KeChiPHmyy9lgKx9G0ak+++TI/-Tmp-//cckpZHiH.s:26080  .bss:0000005e requestToStopRecording
/var/folders/Z6/Z6KeChiPHmyy9lgKx9G0ak+++TI/-Tmp-//cckpZHiH.s:26248  .data:00000863 wantToRecordAirQuality
                            *COM*:00000014 ip
                            *COM*:00000003 connectionStatus
                            *COM*:00000014 tmpArray

UNDEFINED SYMBOLS
__mulsi3
__udivmodsi4
__udivmodhi4
__divmodhi4
__udivmodqi4
ltoa
strcat
strstr
strtok
strcpy
strcmp
sprintf
atol
atoi
__do_copy_data
__do_clear_bss
