   1               		.file	"main.c"
   2               	__SREG__ = 0x3f
   3               	__SP_H__ = 0x3e
   4               	__SP_L__ = 0x3d
   5               	__CCP__  = 0x34
   6               	__tmp_reg__ = 0
   7               	__zero_reg__ = 1
  15               	.Ltext0:
  16               	.global	Debug_Init
  18               	Debug_Init:
  19               	.LFB6:
  20               	.LM1:
  21               	/* prologue: function */
  22               	/* frame size = 0 */
  23               	.LM2:
  24 0000 E0E4      		ldi r30,lo8(1600)
  25 0002 F6E0      		ldi r31,hi8(1600)
  26 0004 88E0      		ldi r24,lo8(8)
  27 0006 8183      		std Z+1,r24
  28               	.LM3:
  29 0008 84E0      		ldi r24,lo8(4)
  30 000a 8283      		std Z+2,r24
  31               	.LM4:
  32 000c E0EA      		ldi r30,lo8(2208)
  33 000e F8E0      		ldi r31,hi8(2208)
  34 0010 83E0      		ldi r24,lo8(3)
  35 0012 8583      		std Z+5,r24
  36               	.LM5:
  37 0014 87E6      		ldi r24,lo8(103)
  38 0016 8683      		std Z+6,r24
  39               	.LM6:
  40 0018 1782      		std Z+7,__zero_reg__
  41               	.LM7:
  42 001a 8481      		ldd r24,Z+4
  43 001c 8061      		ori r24,lo8(16)
  44 001e 8483      		std Z+4,r24
  45               	.LM8:
  46 0020 8481      		ldd r24,Z+4
  47 0022 8860      		ori r24,lo8(8)
  48 0024 8483      		std Z+4,r24
  49               	.LM9:
  50 0026 8381      		ldd r24,Z+3
  51 0028 8062      		ori r24,lo8(32)
  52 002a 8383      		std Z+3,r24
  53               	/* epilogue start */
  54               	.LM10:
  55 002c 0895      		ret
  56               	.LFE6:
  58               	.global	Debug_CharReadyToRead
  60               	Debug_CharReadyToRead:
  61               	.LFB7:
  62               	.LM11:
  63               	/* prologue: function */
  64               	/* frame size = 0 */
  65               	.LM12:
  66 002e 2091 0000 		lds r18,Debug_writeLocation
  67 0032 3091 0000 		lds r19,(Debug_writeLocation)+1
  68 0036 8091 0000 		lds r24,Debug_readLocation
  69 003a 9091 0000 		lds r25,(Debug_readLocation)+1
  70 003e 40E0      		ldi r20,lo8(0)
  71 0040 2817      		cp r18,r24
  72 0042 3907      		cpc r19,r25
  73 0044 01F0      		breq .L4
  74 0046 41E0      		ldi r20,lo8(1)
  75               	.L4:
  76               	.LM13:
  77 0048 842F      		mov r24,r20
  78               	/* epilogue start */
  79 004a 0895      		ret
  80               	.LFE7:
  82               	.global	Debug_GetByte
  84               	Debug_GetByte:
  85               	.LFB8:
  86               	.LM14:
  87               	.LVL0:
  88               	/* prologue: function */
  89               	/* frame size = 0 */
  90               	.LM15:
  91 004c 8823      		tst r24
  92 004e 01F0      		breq .L7
  93               	.L11:
  94               	.LBB574:
  95               	.LBB575:
  96               	.LM16:
  97 0050 2091 0000 		lds r18,Debug_writeLocation
  98 0054 3091 0000 		lds r19,(Debug_writeLocation)+1
  99 0058 8091 0000 		lds r24,Debug_readLocation
 100 005c 9091 0000 		lds r25,(Debug_readLocation)+1
 101               	.LVL1:
 102 0060 2817      		cp r18,r24
 103 0062 3907      		cpc r19,r25
 104 0064 01F0      		breq .L11
 105               	.LVL2:
 106               	.L7:
 107               	.LBE575:
 108               	.LBE574:
 109               	.LM17:
 110 0066 E091 0000 		lds r30,Debug_readLocation
 111 006a F091 0000 		lds r31,(Debug_readLocation)+1
 112 006e E050      		subi r30,lo8(-(DebugBuffer))
 113 0070 F040      		sbci r31,hi8(-(DebugBuffer))
 114 0072 E081      		ld r30,Z
 115               	.LVL3:
 116               	.LM18:
 117 0074 8091 0000 		lds r24,Debug_readLocation
 118 0078 9091 0000 		lds r25,(Debug_readLocation)+1
 119               	.LVL4:
 120 007c 0196      		adiw r24,1
 121 007e 8093 0000 		sts Debug_readLocation,r24
 122 0082 9093 0000 		sts (Debug_readLocation)+1,r25
 123               	.LM19:
 124 0086 8091 0000 		lds r24,Debug_readLocation
 125 008a 9091 0000 		lds r25,(Debug_readLocation)+1
 126 008e 8050      		subi r24,lo8(1024)
 127 0090 9440      		sbci r25,hi8(1024)
 128 0092 00F0      		brlo .L9
 129               	.LM20:
 130 0094 1092 0000 		sts Debug_readLocation,__zero_reg__
 131 0098 1092 0000 		sts (Debug_readLocation)+1,__zero_reg__
 132               	.L9:
 133               	.LM21:
 134 009c 8E2F      		mov r24,r30
 135               	/* epilogue start */
 136 009e 0895      		ret
 137               	.LFE8:
 139               	.global	Debug_SendByte
 141               	Debug_SendByte:
 142               	.LFB9:
 143               	.LM22:
 144               	.LVL5:
 145               	/* prologue: function */
 146               	/* frame size = 0 */
 147 00a0 982F      		mov r25,r24
 148               	.LVL6:
 149               	.L14:
 150               	.LM23:
 151 00a2 8091 A108 		lds r24,2209
 152 00a6 85FF      		sbrs r24,5
 153 00a8 00C0      		rjmp .L14
 154               	.LM24:
 155 00aa 9093 A008 		sts 2208,r25
 156               	/* epilogue start */
 157               	.LM25:
 158 00ae 0895      		ret
 159               	.LFE9:
 161               	.global	__vector_25
 163               	__vector_25:
 164               	.LFB11:
 165               	.LM26:
 166 00b0 1F92      		push __zero_reg__
 167 00b2 0F92      		push r0
 168 00b4 0FB6      		in r0,__SREG__
 169 00b6 0F92      		push r0
 170 00b8 0BB6      		in r0,59-0
 171 00ba 0F92      		push r0
 172 00bc 1124      		clr __zero_reg__
 173 00be 2F93      		push r18
 174 00c0 8F93      		push r24
 175 00c2 9F93      		push r25
 176 00c4 EF93      		push r30
 177 00c6 FF93      		push r31
 178               	/* prologue: Signal */
 179               	/* frame size = 0 */
 180               	.LM27:
 181 00c8 E091 0000 		lds r30,Debug_writeLocation
 182 00cc F091 0000 		lds r31,(Debug_writeLocation)+1
 183 00d0 8091 A008 		lds r24,2208
 184 00d4 E050      		subi r30,lo8(-(DebugBuffer))
 185 00d6 F040      		sbci r31,hi8(-(DebugBuffer))
 186 00d8 8083      		st Z,r24
 187               	.LM28:
 188 00da 8091 0000 		lds r24,Debug_writeLocation
 189 00de 9091 0000 		lds r25,(Debug_writeLocation)+1
 190 00e2 0196      		adiw r24,1
 191 00e4 8093 0000 		sts Debug_writeLocation,r24
 192 00e8 9093 0000 		sts (Debug_writeLocation)+1,r25
 193               	.LM29:
 194 00ec 8091 0000 		lds r24,Debug_writeLocation
 195 00f0 9091 0000 		lds r25,(Debug_writeLocation)+1
 196 00f4 8050      		subi r24,lo8(1024)
 197 00f6 9440      		sbci r25,hi8(1024)
 198 00f8 00F0      		brlo .L19
 199               	.LM30:
 200 00fa 1092 0000 		sts Debug_writeLocation,__zero_reg__
 201 00fe 1092 0000 		sts (Debug_writeLocation)+1,__zero_reg__
 202               	.L19:
 203               	/* epilogue start */
 204               	.LM31:
 205 0102 FF91      		pop r31
 206 0104 EF91      		pop r30
 207 0106 9F91      		pop r25
 208 0108 8F91      		pop r24
 209 010a 2F91      		pop r18
 210 010c 0F90      		pop r0
 211 010e 0BBE      		out 59-0,r0
 212 0110 0F90      		pop r0
 213 0112 0FBE      		out __SREG__,r0
 214 0114 0F90      		pop r0
 215 0116 1F90      		pop __zero_reg__
 216 0118 1895      		reti
 217               	.LFE11:
 219               	.global	Wifi_Init
 221               	Wifi_Init:
 222               	.LFB12:
 223               	.LM32:
 224               	.LVL7:
 225               	/* prologue: function */
 226               	/* frame size = 0 */
 227 011a AB01      		movw r20,r22
 228 011c BC01      		movw r22,r24
 229               	.LM33:
 230 011e E0EA      		ldi r30,lo8(2720)
 231 0120 FAE0      		ldi r31,hi8(2720)
 232 0122 8091 A40A 		lds r24,2724
 233 0126 8F7E      		andi r24,lo8(-17)
 234 0128 8483      		std Z+4,r24
 235               	.LM34:
 236 012a 8091 A40A 		lds r24,2724
 237 012e 877F      		andi r24,lo8(-9)
 238 0130 8483      		std Z+4,r24
 239 0132 20E1      		ldi r18,lo8(10000)
 240 0134 37E2      		ldi r19,hi8(10000)
 241               	.LVL8:
 242               	.LBB576:
 243               	.LBB577:
 244               	.LBB578:
 245               	.LBB579:
 246               	.LM35:
 247 0136 80E9      		ldi r24,lo8(400)
 248 0138 91E0      		ldi r25,hi8(400)
 249               	.LVL9:
 250               	.L21:
 251 013a FC01      		movw r30,r24
 252               	.LVL10:
 253               	/* #APP */
 254               	 ;  105 "/usr/local/CrossPack-AVR-20100115/lib/gcc/avr/4.3.3/../../../../avr/include/util/delay_bas
 255 013c 3197      		1: sbiw r30,1
 256 013e 01F4      		brne 1b
 257               	 ;  0 "" 2
 258               	/* #NOAPP */
 259               	.LBE579:
 260               	.LBE578:
 261               	.LM36:
 262 0140 2150      		subi r18,lo8(-(-1))
 263 0142 3040      		sbci r19,hi8(-(-1))
 264               	.LM37:
 265 0144 01F4      		brne .L21
 266               	.LBE577:
 267               	.LBE576:
 268               	.LM38:
 269 0146 E0E8      		ldi r30,lo8(1664)
 270 0148 F6E0      		ldi r31,hi8(1664)
 271               	.LVL11:
 272 014a 88E0      		ldi r24,lo8(8)
 273 014c 8183      		std Z+1,r24
 274               	.LM39:
 275 014e 84E0      		ldi r24,lo8(4)
 276 0150 8283      		std Z+2,r24
 277               	.LM40:
 278 0152 E0EA      		ldi r30,lo8(2720)
 279 0154 FAE0      		ldi r31,hi8(2720)
 280 0156 83E0      		ldi r24,lo8(3)
 281 0158 8583      		std Z+5,r24
 282               	.LM41:
 283 015a 4030      		cpi r20,lo8(921600)
 284 015c 80E1      		ldi r24,hi8(921600)
 285 015e 5807      		cpc r21,r24
 286 0160 8EE0      		ldi r24,hlo8(921600)
 287 0162 6807      		cpc r22,r24
 288 0164 80E0      		ldi r24,hhi8(921600)
 289 0166 7807      		cpc r23,r24
 290 0168 01F4      		brne .L22
 291               	.LM42:
 292 016a 85E0      		ldi r24,lo8(5)
 293 016c 8683      		std Z+6,r24
 294               	.LM43:
 295 016e 80E8      		ldi r24,lo8(-128)
 296 0170 00C0      		rjmp .L29
 297               	.L22:
 298               	.LM44:
 299 0172 4030      		cpi r20,lo8(460800)
 300 0174 88E0      		ldi r24,hi8(460800)
 301 0176 5807      		cpc r21,r24
 302 0178 87E0      		ldi r24,hlo8(460800)
 303 017a 6807      		cpc r22,r24
 304 017c 80E0      		ldi r24,hhi8(460800)
 305 017e 7807      		cpc r23,r24
 306 0180 01F4      		brne .L24
 307               	.LM45:
 308 0182 85E2      		ldi r24,lo8(37)
 309 0184 8683      		std Z+6,r24
 310               	.LM46:
 311 0186 80EB      		ldi r24,lo8(-80)
 312               	.L29:
 313 0188 8783      		std Z+7,r24
 314 018a 00C0      		rjmp .L23
 315               	.L24:
 316               	.LM47:
 317 018c 4030      		cpi r20,lo8(230400)
 318 018e 84E8      		ldi r24,hi8(230400)
 319 0190 5807      		cpc r21,r24
 320 0192 83E0      		ldi r24,hlo8(230400)
 321 0194 6807      		cpc r22,r24
 322 0196 80E0      		ldi r24,hhi8(230400)
 323 0198 7807      		cpc r23,r24
 324 019a 01F4      		brne .L25
 325               	.LM48:
 326 019c 8BE1      		ldi r24,lo8(27)
 327 019e 8683      		std Z+6,r24
 328               	.LM49:
 329 01a0 80ED      		ldi r24,lo8(-48)
 330 01a2 00C0      		rjmp .L29
 331               	.L25:
 332               	.LM50:
 333 01a4 4050      		subi r20,lo8(115200)
 334 01a6 524C      		sbci r21,hi8(115200)
 335 01a8 6140      		sbci r22,hlo8(115200)
 336 01aa 7040      		sbci r23,hhi8(115200)
 337 01ac 01F4      		brne .L26
 338               	.LM51:
 339 01ae 8BE7      		ldi r24,lo8(123)
 340 01b0 8683      		std Z+6,r24
 341               	.LM52:
 342 01b2 80EC      		ldi r24,lo8(-64)
 343 01b4 00C0      		rjmp .L29
 344               	.L26:
 345               	.LM53:
 346 01b6 87E6      		ldi r24,lo8(103)
 347 01b8 8683      		std Z+6,r24
 348               	.LM54:
 349 01ba 1782      		std Z+7,__zero_reg__
 350               	.L23:
 351               	.LM55:
 352 01bc E0EA      		ldi r30,lo8(2720)
 353 01be FAE0      		ldi r31,hi8(2720)
 354 01c0 8091 A40A 		lds r24,2724
 355 01c4 8061      		ori r24,lo8(16)
 356 01c6 8483      		std Z+4,r24
 357               	.LM56:
 358 01c8 8091 A40A 		lds r24,2724
 359 01cc 8860      		ori r24,lo8(8)
 360 01ce 8483      		std Z+4,r24
 361               	/* epilogue start */
 362               	.LM57:
 363 01d0 0895      		ret
 364               	.LFE12:
 366               	.global	Wifi_CharReadyToRead
 368               	Wifi_CharReadyToRead:
 369               	.LFB14:
 370               	.LM58:
 371               	/* prologue: function */
 372               	/* frame size = 0 */
 373               	.LM59:
 374 01d2 2091 1D01 		lds r18,285
 375 01d6 922F      		mov r25,r18
 376 01d8 80E0      		ldi r24,lo8(0)
 377 01da 8093 0000 		sts Wifi_writeLocation,r24
 378 01de 9093 0000 		sts (Wifi_writeLocation)+1,r25
 379               	.LM60:
 380 01e2 8091 0000 		lds r24,Wifi_writeLocation
 381 01e6 9091 0000 		lds r25,(Wifi_writeLocation)+1
 382 01ea 2091 1C01 		lds r18,284
 383 01ee 820F      		add r24,r18
 384 01f0 911D      		adc r25,__zero_reg__
 385 01f2 8093 0000 		sts Wifi_writeLocation,r24
 386 01f6 9093 0000 		sts (Wifi_writeLocation)+1,r25
 387               	.LM61:
 388 01fa 8091 0000 		lds r24,Wifi_writeLocation
 389 01fe 9091 0000 		lds r25,(Wifi_writeLocation)+1
 390 0202 8050      		subi r24,lo8(WifiBuffer)
 391 0204 9040      		sbci r25,hi8(WifiBuffer)
 392 0206 8093 0000 		sts Wifi_writeLocation,r24
 393 020a 9093 0000 		sts (Wifi_writeLocation)+1,r25
 394               	.LM62:
 395 020e 2091 0000 		lds r18,Wifi_writeLocation
 396 0212 3091 0000 		lds r19,(Wifi_writeLocation)+1
 397 0216 8091 0000 		lds r24,Wifi_readLocation
 398 021a 9091 0000 		lds r25,(Wifi_readLocation)+1
 399 021e 40E0      		ldi r20,lo8(0)
 400 0220 2817      		cp r18,r24
 401 0222 3907      		cpc r19,r25
 402 0224 01F0      		breq .L31
 403 0226 41E0      		ldi r20,lo8(1)
 404               	.L31:
 405               	.LM63:
 406 0228 842F      		mov r24,r20
 407               	/* epilogue start */
 408 022a 0895      		ret
 409               	.LFE14:
 411               	.global	Wifi_ClearBuffer
 413               	Wifi_ClearBuffer:
 414               	.LFB13:
 415               	.LM64:
 416               	/* prologue: function */
 417               	/* frame size = 0 */
 418               	.LM65:
 419 022c 0E94 0000 		call Wifi_CharReadyToRead
 420 0230 8823      		tst r24
 421 0232 01F0      		breq .L35
 422               	.LM66:
 423 0234 2091 1D01 		lds r18,285
 424 0238 922F      		mov r25,r18
 425 023a 80E0      		ldi r24,lo8(0)
 426 023c 8093 0000 		sts Wifi_writeLocation,r24
 427 0240 9093 0000 		sts (Wifi_writeLocation)+1,r25
 428               	.LM67:
 429 0244 8091 0000 		lds r24,Wifi_writeLocation
 430 0248 9091 0000 		lds r25,(Wifi_writeLocation)+1
 431 024c 2091 1C01 		lds r18,284
 432 0250 820F      		add r24,r18
 433 0252 911D      		adc r25,__zero_reg__
 434 0254 8093 0000 		sts Wifi_writeLocation,r24
 435 0258 9093 0000 		sts (Wifi_writeLocation)+1,r25
 436               	.LM68:
 437 025c 8091 0000 		lds r24,Wifi_writeLocation
 438 0260 9091 0000 		lds r25,(Wifi_writeLocation)+1
 439 0264 8050      		subi r24,lo8(WifiBuffer)
 440 0266 9040      		sbci r25,hi8(WifiBuffer)
 441 0268 8093 0000 		sts Wifi_writeLocation,r24
 442 026c 9093 0000 		sts (Wifi_writeLocation)+1,r25
 443               	.LM69:
 444 0270 8091 0000 		lds r24,Wifi_writeLocation
 445 0274 9091 0000 		lds r25,(Wifi_writeLocation)+1
 446 0278 8093 0000 		sts Wifi_readLocation,r24
 447 027c 9093 0000 		sts (Wifi_readLocation)+1,r25
 448               	.L35:
 449 0280 0895      		ret
 450               	.LFE13:
 452               	.global	Wifi_GetByte
 454               	Wifi_GetByte:
 455               	.LFB15:
 456               	.LM70:
 457               	.LVL12:
 458               	/* prologue: function */
 459               	/* frame size = 0 */
 460               	.LM71:
 461 0282 8823      		tst r24
 462 0284 01F0      		breq .L37
 463               	.L41:
 464               	.LM72:
 465 0286 0E94 0000 		call Wifi_CharReadyToRead
 466               	.LVL13:
 467 028a 8823      		tst r24
 468 028c 01F0      		breq .L41
 469               	.LVL14:
 470               	.L37:
 471               	.LM73:
 472 028e E091 0000 		lds r30,Wifi_readLocation
 473 0292 F091 0000 		lds r31,(Wifi_readLocation)+1
 474 0296 E050      		subi r30,lo8(-(WifiBuffer))
 475 0298 F040      		sbci r31,hi8(-(WifiBuffer))
 476 029a E081      		ld r30,Z
 477               	.LVL15:
 478               	.LM74:
 479 029c 8091 0000 		lds r24,Wifi_readLocation
 480 02a0 9091 0000 		lds r25,(Wifi_readLocation)+1
 481               	.LVL16:
 482 02a4 0196      		adiw r24,1
 483 02a6 8093 0000 		sts Wifi_readLocation,r24
 484 02aa 9093 0000 		sts (Wifi_readLocation)+1,r25
 485               	.LM75:
 486 02ae 8091 0000 		lds r24,Wifi_readLocation
 487 02b2 9091 0000 		lds r25,(Wifi_readLocation)+1
 488 02b6 8050      		subi r24,lo8(1024)
 489 02b8 9440      		sbci r25,hi8(1024)
 490 02ba 00F0      		brlo .L39
 491               	.LM76:
 492 02bc 1092 0000 		sts Wifi_readLocation,__zero_reg__
 493 02c0 1092 0000 		sts (Wifi_readLocation)+1,__zero_reg__
 494               	.L39:
 495               	.LM77:
 496 02c4 8E2F      		mov r24,r30
 497               	/* epilogue start */
 498 02c6 0895      		ret
 499               	.LFE15:
 501               	.global	Wifi_SendByte
 503               	Wifi_SendByte:
 504               	.LFB16:
 505               	.LM78:
 506               	.LVL17:
 507               	/* prologue: function */
 508               	/* frame size = 0 */
 509 02c8 982F      		mov r25,r24
 510               	.LVL18:
 511               	.L44:
 512               	.LM79:
 513 02ca 8091 A10A 		lds r24,2721
 514 02ce 85FF      		sbrs r24,5
 515 02d0 00C0      		rjmp .L44
 516               	.LM80:
 517 02d2 9093 A00A 		sts 2720,r25
 518               	/* epilogue start */
 519               	.LM81:
 520 02d6 0895      		ret
 521               	.LFE16:
 523               	.global	Dpad_Init
 525               	Dpad_Init:
 526               	.LFB24:
 527               	.LM82:
 528               	/* prologue: function */
 529               	/* frame size = 0 */
 530               	.LM83:
 531 02d8 E0EA      		ldi r30,lo8(1696)
 532 02da F6E0      		ldi r31,hi8(1696)
 533 02dc 88E1      		ldi r24,lo8(24)
 534 02de 828B      		std Z+18,r24
 535               	.LM84:
 536 02e0 838B      		std Z+19,r24
 537               	.LM85:
 538 02e2 848B      		std Z+20,r24
 539               	.LM86:
 540 02e4 858B      		std Z+21,r24
 541               	.LM87:
 542 02e6 868B      		std Z+22,r24
 543               	.LM88:
 544 02e8 8281      		ldd r24,Z+2
 545 02ea 8C67      		ori r24,lo8(124)
 546 02ec 8283      		std Z+2,r24
 547               	/* epilogue start */
 548               	.LM89:
 549 02ee 0895      		ret
 550               	.LFE24:
 552               	.global	Dpad_Read
 554               	Dpad_Read:
 555               	.LFB25:
 556               	.LM90:
 557               	/* prologue: function */
 558               	/* frame size = 0 */
 559               	.LM91:
 560 02f0 E0EA      		ldi r30,lo8(1696)
 561 02f2 F6E0      		ldi r31,hi8(1696)
 562 02f4 8085      		ldd r24,Z+8
 563               	.LM92:
 564 02f6 8C77      		andi r24,lo8(124)
 565               	/* epilogue start */
 566 02f8 0895      		ret
 567               	.LFE25:
 569               	.global	Dpad_CheckButton
 571               	Dpad_CheckButton:
 572               	.LFB26:
 573               	.LM93:
 574               	.LVL19:
 575               	/* prologue: function */
 576               	/* frame size = 0 */
 577               	.LBB580:
 578               	.LBB581:
 579               	.LM94:
 580 02fa 4091 A806 		lds r20,1704
 581 02fe 90E0      		ldi r25,lo8(0)
 582 0300 21E0      		ldi r18,lo8(1)
 583 0302 30E0      		ldi r19,hi8(1)
 584 0304 00C0      		rjmp 2f
 585 0306 220F      	1:	lsl r18
 586 0308 331F      		rol r19
 587 030a 8A95      	2:	dec r24
 588 030c 02F4      		brpl 1b
 589 030e 4C77      		andi r20,lo8(124)
 590 0310 50E0      		ldi r21,lo8(0)
 591 0312 2423      		and r18,r20
 592 0314 3523      		and r19,r21
 593 0316 1216      		cp __zero_reg__,r18
 594 0318 1306      		cpc __zero_reg__,r19
 595 031a 04F0      		brlt .L52
 596 031c 91E0      		ldi r25,lo8(1)
 597               	.L52:
 598               	.LBE581:
 599               	.LBE580:
 600               	.LM95:
 601 031e 892F      		mov r24,r25
 602               	.LVL20:
 603               	/* epilogue start */
 604 0320 0895      		ret
 605               	.LFE26:
 607               	.global	Leds_Init
 609               	Leds_Init:
 610               	.LFB27:
 611               	.LM96:
 612               	/* prologue: function */
 613               	/* frame size = 0 */
 614               	.LM97:
 615 0322 E0E2      		ldi r30,lo8(1568)
 616 0324 F6E0      		ldi r31,hi8(1568)
 617 0326 8181      		ldd r24,Z+1
 618 0328 836F      		ori r24,lo8(-13)
 619 032a 8183      		std Z+1,r24
 620               	/* epilogue start */
 621               	.LM98:
 622 032c 0895      		ret
 623               	.LFE27:
 625               	.global	Leds_Set
 627               	Leds_Set:
 628               	.LFB28:
 629               	.LM99:
 630               	.LVL21:
 631               	/* prologue: function */
 632               	/* frame size = 0 */
 633               	.LM100:
 634 032e 21E0      		ldi r18,lo8(1)
 635 0330 30E0      		ldi r19,hi8(1)
 636 0332 00C0      		rjmp 2f
 637 0334 220F      	1:	lsl r18
 638 0336 331F      		rol r19
 639 0338 8A95      	2:	dec r24
 640 033a 02F4      		brpl 1b
 641 033c E0E2      		ldi r30,lo8(1568)
 642 033e F6E0      		ldi r31,hi8(1568)
 643 0340 2583      		std Z+5,r18
 644               	/* epilogue start */
 645               	.LM101:
 646 0342 0895      		ret
 647               	.LFE28:
 649               	.global	Leds_Clear
 651               	Leds_Clear:
 652               	.LFB29:
 653               	.LM102:
 654               	.LVL22:
 655               	/* prologue: function */
 656               	/* frame size = 0 */
 657               	.LM103:
 658 0344 21E0      		ldi r18,lo8(1)
 659 0346 30E0      		ldi r19,hi8(1)
 660 0348 00C0      		rjmp 2f
 661 034a 220F      	1:	lsl r18
 662 034c 331F      		rol r19
 663 034e 8A95      	2:	dec r24
 664 0350 02F4      		brpl 1b
 665 0352 E0E2      		ldi r30,lo8(1568)
 666 0354 F6E0      		ldi r31,hi8(1568)
 667 0356 2683      		std Z+6,r18
 668               	/* epilogue start */
 669               	.LM104:
 670 0358 0895      		ret
 671               	.LFE29:
 673               	.global	Leds_Toggle
 675               	Leds_Toggle:
 676               	.LFB30:
 677               	.LM105:
 678               	.LVL23:
 679               	/* prologue: function */
 680               	/* frame size = 0 */
 681               	.LM106:
 682 035a 21E0      		ldi r18,lo8(1)
 683 035c 30E0      		ldi r19,hi8(1)
 684 035e 00C0      		rjmp 2f
 685 0360 220F      	1:	lsl r18
 686 0362 331F      		rol r19
 687 0364 8A95      	2:	dec r24
 688 0366 02F4      		brpl 1b
 689 0368 E0E2      		ldi r30,lo8(1568)
 690 036a F6E0      		ldi r31,hi8(1568)
 691 036c 2783      		std Z+7,r18
 692               	/* epilogue start */
 693               	.LM107:
 694 036e 0895      		ret
 695               	.LFE30:
 697               	.global	Rs232_Init
 699               	Rs232_Init:
 700               	.LFB31:
 701               	.LM108:
 702               	/* prologue: function */
 703               	/* frame size = 0 */
 704               	.LM109:
 705 0370 E0E6      		ldi r30,lo8(1632)
 706 0372 F6E0      		ldi r31,hi8(1632)
 707 0374 88E0      		ldi r24,lo8(8)
 708 0376 8183      		std Z+1,r24
 709               	.LM110:
 710 0378 84E0      		ldi r24,lo8(4)
 711 037a 8283      		std Z+2,r24
 712               	.LM111:
 713 037c E0EA      		ldi r30,lo8(2464)
 714 037e F9E0      		ldi r31,hi8(2464)
 715 0380 83E0      		ldi r24,lo8(3)
 716 0382 8583      		std Z+5,r24
 717               	.LM112:
 718 0384 8CE0      		ldi r24,lo8(12)
 719 0386 8683      		std Z+6,r24
 720               	.LM113:
 721 0388 1782      		std Z+7,__zero_reg__
 722               	.LM114:
 723 038a 8481      		ldd r24,Z+4
 724 038c 8061      		ori r24,lo8(16)
 725 038e 8483      		std Z+4,r24
 726               	.LM115:
 727 0390 8481      		ldd r24,Z+4
 728 0392 8860      		ori r24,lo8(8)
 729 0394 8483      		std Z+4,r24
 730               	.LM116:
 731 0396 8381      		ldd r24,Z+3
 732 0398 8062      		ori r24,lo8(32)
 733 039a 8383      		std Z+3,r24
 734               	/* epilogue start */
 735               	.LM117:
 736 039c 0895      		ret
 737               	.LFE31:
 739               	.global	Rs232_CharReadyToRead
 741               	Rs232_CharReadyToRead:
 742               	.LFB32:
 743               	.LM118:
 744               	/* prologue: function */
 745               	/* frame size = 0 */
 746               	.LM119:
 747 039e 2091 0000 		lds r18,Rs232_writeLocation
 748 03a2 3091 0000 		lds r19,(Rs232_writeLocation)+1
 749 03a6 8091 0000 		lds r24,Rs232_readLocation
 750 03aa 9091 0000 		lds r25,(Rs232_readLocation)+1
 751 03ae 40E0      		ldi r20,lo8(0)
 752 03b0 2817      		cp r18,r24
 753 03b2 3907      		cpc r19,r25
 754 03b4 01F0      		breq .L65
 755 03b6 41E0      		ldi r20,lo8(1)
 756               	.L65:
 757               	.LM120:
 758 03b8 842F      		mov r24,r20
 759               	/* epilogue start */
 760 03ba 0895      		ret
 761               	.LFE32:
 763               	.global	Rs232_GetByte
 765               	Rs232_GetByte:
 766               	.LFB33:
 767               	.LM121:
 768               	.LVL24:
 769               	/* prologue: function */
 770               	/* frame size = 0 */
 771               	.LM122:
 772 03bc 8823      		tst r24
 773 03be 01F0      		breq .L68
 774               	.L72:
 775               	.LBB582:
 776               	.LBB583:
 777               	.LM123:
 778 03c0 2091 0000 		lds r18,Rs232_writeLocation
 779 03c4 3091 0000 		lds r19,(Rs232_writeLocation)+1
 780 03c8 8091 0000 		lds r24,Rs232_readLocation
 781 03cc 9091 0000 		lds r25,(Rs232_readLocation)+1
 782               	.LVL25:
 783 03d0 2817      		cp r18,r24
 784 03d2 3907      		cpc r19,r25
 785 03d4 01F0      		breq .L72
 786               	.LVL26:
 787               	.L68:
 788               	.LBE583:
 789               	.LBE582:
 790               	.LM124:
 791 03d6 E091 0000 		lds r30,Rs232_readLocation
 792 03da F091 0000 		lds r31,(Rs232_readLocation)+1
 793 03de E050      		subi r30,lo8(-(Rs232Buffer))
 794 03e0 F040      		sbci r31,hi8(-(Rs232Buffer))
 795 03e2 E081      		ld r30,Z
 796               	.LVL27:
 797               	.LM125:
 798 03e4 8091 0000 		lds r24,Rs232_readLocation
 799 03e8 9091 0000 		lds r25,(Rs232_readLocation)+1
 800               	.LVL28:
 801 03ec 0196      		adiw r24,1
 802 03ee 8093 0000 		sts Rs232_readLocation,r24
 803 03f2 9093 0000 		sts (Rs232_readLocation)+1,r25
 804               	.LM126:
 805 03f6 8091 0000 		lds r24,Rs232_readLocation
 806 03fa 9091 0000 		lds r25,(Rs232_readLocation)+1
 807 03fe 8050      		subi r24,lo8(1024)
 808 0400 9440      		sbci r25,hi8(1024)
 809 0402 00F0      		brlo .L70
 810               	.LM127:
 811 0404 1092 0000 		sts Rs232_readLocation,__zero_reg__
 812 0408 1092 0000 		sts (Rs232_readLocation)+1,__zero_reg__
 813               	.L70:
 814               	.LM128:
 815 040c 8E2F      		mov r24,r30
 816               	/* epilogue start */
 817 040e 0895      		ret
 818               	.LFE33:
 820               	.global	Rs232_SendByte
 822               	Rs232_SendByte:
 823               	.LFB34:
 824               	.LM129:
 825               	.LVL29:
 826               	/* prologue: function */
 827               	/* frame size = 0 */
 828 0410 982F      		mov r25,r24
 829               	.LVL30:
 830               	.L75:
 831               	.LM130:
 832 0412 8091 A109 		lds r24,2465
 833 0416 85FF      		sbrs r24,5
 834 0418 00C0      		rjmp .L75
 835               	.LM131:
 836 041a 9093 A009 		sts 2464,r25
 837               	/* epilogue start */
 838               	.LM132:
 839 041e 0895      		ret
 840               	.LFE34:
 842               	.global	__vector_88
 844               	__vector_88:
 845               	.LFB36:
 846               	.LM133:
 847 0420 1F92      		push __zero_reg__
 848 0422 0F92      		push r0
 849 0424 0FB6      		in r0,__SREG__
 850 0426 0F92      		push r0
 851 0428 0BB6      		in r0,59-0
 852 042a 0F92      		push r0
 853 042c 1124      		clr __zero_reg__
 854 042e 2F93      		push r18
 855 0430 8F93      		push r24
 856 0432 9F93      		push r25
 857 0434 EF93      		push r30
 858 0436 FF93      		push r31
 859               	/* prologue: Signal */
 860               	/* frame size = 0 */
 861               	.LM134:
 862 0438 E091 0000 		lds r30,Rs232_writeLocation
 863 043c F091 0000 		lds r31,(Rs232_writeLocation)+1
 864 0440 8091 A009 		lds r24,2464
 865 0444 E050      		subi r30,lo8(-(Rs232Buffer))
 866 0446 F040      		sbci r31,hi8(-(Rs232Buffer))
 867 0448 8083      		st Z,r24
 868               	.LM135:
 869 044a 8091 0000 		lds r24,Rs232_writeLocation
 870 044e 9091 0000 		lds r25,(Rs232_writeLocation)+1
 871 0452 0196      		adiw r24,1
 872 0454 8093 0000 		sts Rs232_writeLocation,r24
 873 0458 9093 0000 		sts (Rs232_writeLocation)+1,r25
 874               	.LM136:
 875 045c 8091 0000 		lds r24,Rs232_writeLocation
 876 0460 9091 0000 		lds r25,(Rs232_writeLocation)+1
 877 0464 8050      		subi r24,lo8(1024)
 878 0466 9440      		sbci r25,hi8(1024)
 879 0468 00F0      		brlo .L80
 880               	.LM137:
 881 046a 1092 0000 		sts Rs232_writeLocation,__zero_reg__
 882 046e 1092 0000 		sts (Rs232_writeLocation)+1,__zero_reg__
 883               	.L80:
 884               	/* epilogue start */
 885               	.LM138:
 886 0472 FF91      		pop r31
 887 0474 EF91      		pop r30
 888 0476 9F91      		pop r25
 889 0478 8F91      		pop r24
 890 047a 2F91      		pop r18
 891 047c 0F90      		pop r0
 892 047e 0BBE      		out 59-0,r0
 893 0480 0F90      		pop r0
 894 0482 0FBE      		out __SREG__,r0
 895 0484 0F90      		pop r0
 896 0486 1F90      		pop __zero_reg__
 897 0488 1895      		reti
 898               	.LFE36:
 901               	wait_ready:
 902               	.LFB38:
 903               	.LM139:
 904               	/* prologue: function */
 905               	/* frame size = 0 */
 906               	.LM140:
 907 048a 82E3      		ldi r24,lo8(50)
 908 048c 8093 0000 		sts Timer2,r24
 909               	.LBB584:
 910               	.LBB585:
 911               	.LM141:
 912 0490 8FEF      		ldi r24,lo8(-1)
 913 0492 E0EC      		ldi r30,lo8(2496)
 914 0494 F9E0      		ldi r31,hi8(2496)
 915 0496 8383      		std Z+3,r24
 916               	.L82:
 917               	.LM142:
 918 0498 8091 C209 		lds r24,2498
 919 049c 87FF      		sbrs r24,7
 920 049e 00C0      		rjmp .L82
 921               	.LM143:
 922 04a0 8091 C309 		lds r24,2499
 923               	.LBE585:
 924               	.LBE584:
 925               	.LBB586:
 926               	.LBB587:
 927               	.LM144:
 928 04a4 E0EC      		ldi r30,lo8(2496)
 929 04a6 F9E0      		ldi r31,hi8(2496)
 930 04a8 2FEF      		ldi r18,lo8(-1)
 931               	.LVL31:
 932               	.L85:
 933 04aa 2383      		std Z+3,r18
 934               	.L83:
 935               	.LM145:
 936 04ac 8091 C209 		lds r24,2498
 937 04b0 87FF      		sbrs r24,7
 938 04b2 00C0      		rjmp .L83
 939               	.LM146:
 940 04b4 9091 C309 		lds r25,2499
 941               	.LBE587:
 942               	.LBE586:
 943               	.LM147:
 944 04b8 9F3F      		cpi r25,lo8(-1)
 945 04ba 01F0      		breq .L84
 946 04bc 8091 0000 		lds r24,Timer2
 947 04c0 8823      		tst r24
 948 04c2 01F4      		brne .L85
 949               	.L84:
 950               	.LM148:
 951 04c4 892F      		mov r24,r25
 952               	/* epilogue start */
 953 04c6 0895      		ret
 954               	.LFE38:
 957               	select:
 958               	.LFB40:
 959               	.LM149:
 960 04c8 1F93      		push r17
 961 04ca CF93      		push r28
 962 04cc DF93      		push r29
 963               	/* prologue: function */
 964               	/* frame size = 0 */
 965               	.LM150:
 966 04ce C0E6      		ldi r28,lo8(1632)
 967 04d0 D6E0      		ldi r29,hi8(1632)
 968 04d2 10E1      		ldi r17,lo8(16)
 969 04d4 1E83      		std Y+6,r17
 970               	.LM151:
 971 04d6 0E94 0000 		call wait_ready
 972 04da 8F3F      		cpi r24,lo8(-1)
 973 04dc 01F4      		brne .L91
 974 04de 81E0      		ldi r24,lo8(1)
 975 04e0 00C0      		rjmp .L92
 976               	.L91:
 977               	.LBB588:
 978               	.LBB589:
 979               	.LM152:
 980 04e2 1D83      		std Y+5,r17
 981               	.LBB590:
 982               	.LBB591:
 983               	.LM153:
 984 04e4 8FEF      		ldi r24,lo8(-1)
 985 04e6 E0EC      		ldi r30,lo8(2496)
 986 04e8 F9E0      		ldi r31,hi8(2496)
 987 04ea 8383      		std Z+3,r24
 988               	.L93:
 989               	.LM154:
 990 04ec 8091 C209 		lds r24,2498
 991 04f0 87FF      		sbrs r24,7
 992 04f2 00C0      		rjmp .L93
 993               	.LM155:
 994 04f4 8091 C309 		lds r24,2499
 995 04f8 80E0      		ldi r24,lo8(0)
 996               	.L92:
 997               	/* epilogue start */
 998               	.LBE591:
 999               	.LBE590:
 1000               	.LBE589:
 1001               	.LBE588:
 1002               	.LM156:
 1003 04fa DF91      		pop r29
 1004 04fc CF91      		pop r28
 1005 04fe 1F91      		pop r17
 1006 0500 0895      		ret
 1007               	.LFE40:
 1010               	rcvr_datablock:
 1011               	.LFB44:
 1012               	.LM157:
 1013               	.LVL32:
 1014               	/* prologue: function */
 1015               	/* frame size = 0 */
 1016 0502 FC01      		movw r30,r24
 1017               	.LM158:
 1018 0504 84E1      		ldi r24,lo8(20)
 1019               	.LVL33:
 1020 0506 8093 0000 		sts Timer1,r24
 1021               	.LBB592:
 1022               	.LBB593:
 1023               	.LM159:
 1024 050a A0EC      		ldi r26,lo8(2496)
 1025 050c B9E0      		ldi r27,hi8(2496)
 1026 050e 9FEF      		ldi r25,lo8(-1)
 1027               	.L99:
 1028 0510 1396      		adiw r26,3
 1029 0512 9C93      		st X,r25
 1030 0514 1397      		sbiw r26,3
 1031               	.L97:
 1032               	.LM160:
 1033 0516 8091 C209 		lds r24,2498
 1034 051a 87FF      		sbrs r24,7
 1035 051c 00C0      		rjmp .L97
 1036               	.LM161:
 1037 051e 8091 C309 		lds r24,2499
 1038               	.LVL34:
 1039               	.LBE593:
 1040               	.LBE592:
 1041               	.LM162:
 1042 0522 8F3F      		cpi r24,lo8(-1)
 1043 0524 01F4      		brne .L98
 1044 0526 8091 0000 		lds r24,Timer1
 1045               	.LVL35:
 1046 052a 8823      		tst r24
 1047 052c 01F4      		brne .L99
 1048 052e 00C0      		rjmp .L100
 1049               	.LVL36:
 1050               	.L98:
 1051               	.LM163:
 1052 0530 8E3F      		cpi r24,lo8(-2)
 1053 0532 01F0      		breq .+2
 1054 0534 00C0      		rjmp .L100
 1055               	.LM164:
 1056 0536 A0EC      		ldi r26,lo8(2496)
 1057 0538 B9E0      		ldi r27,hi8(2496)
 1058 053a 9FEF      		ldi r25,lo8(-1)
 1059               	.L119:
 1060 053c 1396      		adiw r26,3
 1061 053e 9C93      		st X,r25
 1062 0540 1397      		sbiw r26,3
 1063               	.L101:
 1064 0542 8091 C209 		lds r24,2498
 1065               	.LVL37:
 1066 0546 87FF      		sbrs r24,7
 1067 0548 00C0      		rjmp .L101
 1068 054a 8091 C309 		lds r24,2499
 1069 054e 8083      		st Z,r24
 1070               	.LM165:
 1071 0550 1396      		adiw r26,3
 1072 0552 9C93      		st X,r25
 1073 0554 1397      		sbiw r26,3
 1074               	.L102:
 1075 0556 8091 C209 		lds r24,2498
 1076 055a 87FF      		sbrs r24,7
 1077 055c 00C0      		rjmp .L102
 1078 055e 8091 C309 		lds r24,2499
 1079 0562 8183      		std Z+1,r24
 1080               	.LM166:
 1081 0564 1396      		adiw r26,3
 1082 0566 9C93      		st X,r25
 1083 0568 1397      		sbiw r26,3
 1084               	.L103:
 1085 056a 8091 C209 		lds r24,2498
 1086 056e 87FF      		sbrs r24,7
 1087 0570 00C0      		rjmp .L103
 1088 0572 8091 C309 		lds r24,2499
 1089 0576 8283      		std Z+2,r24
 1090               	.LM167:
 1091 0578 1396      		adiw r26,3
 1092 057a 9C93      		st X,r25
 1093 057c 1397      		sbiw r26,3
 1094               	.L104:
 1095 057e 8091 C209 		lds r24,2498
 1096 0582 87FF      		sbrs r24,7
 1097 0584 00C0      		rjmp .L104
 1098 0586 8091 C309 		lds r24,2499
 1099 058a 8383      		std Z+3,r24
 1100               	.LM168:
 1101 058c 6450      		subi r22,lo8(-(-4))
 1102 058e 7040      		sbci r23,hi8(-(-4))
 1103               	.LVL38:
 1104 0590 01F0      		breq .L105
 1105               	.LM169:
 1106 0592 3496      		adiw r30,4
 1107 0594 00C0      		rjmp .L119
 1108               	.L105:
 1109               	.LBB594:
 1110               	.LBB595:
 1111               	.LM170:
 1112 0596 8FEF      		ldi r24,lo8(-1)
 1113 0598 E0EC      		ldi r30,lo8(2496)
 1114 059a F9E0      		ldi r31,hi8(2496)
 1115               	.LVL39:
 1116 059c 8383      		std Z+3,r24
 1117               	.L107:
 1118               	.LM171:
 1119 059e 8091 C209 		lds r24,2498
 1120 05a2 87FF      		sbrs r24,7
 1121 05a4 00C0      		rjmp .L107
 1122               	.LM172:
 1123 05a6 8091 C309 		lds r24,2499
 1124               	.LBE595:
 1125               	.LBE594:
 1126               	.LBB596:
 1127               	.LBB597:
 1128               	.LM173:
 1129 05aa 8FEF      		ldi r24,lo8(-1)
 1130 05ac E0EC      		ldi r30,lo8(2496)
 1131 05ae F9E0      		ldi r31,hi8(2496)
 1132 05b0 8383      		std Z+3,r24
 1133               	.L108:
 1134               	.LM174:
 1135 05b2 8091 C209 		lds r24,2498
 1136 05b6 87FF      		sbrs r24,7
 1137 05b8 00C0      		rjmp .L108
 1138               	.LM175:
 1139 05ba 8091 C309 		lds r24,2499
 1140 05be 81E0      		ldi r24,lo8(1)
 1141 05c0 0895      		ret
 1142               	.LVL40:
 1143               	.L100:
 1144               	.LM176:
 1145 05c2 80E0      		ldi r24,lo8(0)
 1146               	.LVL41:
 1147               	.LBE597:
 1148               	.LBE596:
 1149               	.LM177:
 1150 05c4 0895      		ret
 1151               	.LFE44:
 1154               	xmit_datablock:
 1155               	.LFB45:
 1156               	.LM178:
 1157               	.LVL42:
 1158 05c6 1F93      		push r17
 1159 05c8 CF93      		push r28
 1160 05ca DF93      		push r29
 1161               	/* prologue: function */
 1162               	/* frame size = 0 */
 1163 05cc EC01      		movw r28,r24
 1164 05ce 162F      		mov r17,r22
 1165               	.LM179:
 1166 05d0 0E94 0000 		call wait_ready
 1167               	.LVL43:
 1168 05d4 8F3F      		cpi r24,lo8(-1)
 1169 05d6 01F0      		breq .L121
 1170 05d8 90E0      		ldi r25,lo8(0)
 1171 05da 00C0      		rjmp .L122
 1172               	.L121:
 1173               	.LM180:
 1174 05dc E0EC      		ldi r30,lo8(2496)
 1175 05de F9E0      		ldi r31,hi8(2496)
 1176 05e0 1383      		std Z+3,r17
 1177               	.L123:
 1178 05e2 8091 C209 		lds r24,2498
 1179 05e6 87FF      		sbrs r24,7
 1180 05e8 00C0      		rjmp .L123
 1181               	.LM181:
 1182 05ea 1D3F      		cpi r17,lo8(-3)
 1183 05ec 01F4      		brne .L124
 1184 05ee 91E0      		ldi r25,lo8(1)
 1185 05f0 00C0      		rjmp .L122
 1186               	.L124:
 1187 05f2 90E0      		ldi r25,lo8(0)
 1188               	.LVL44:
 1189               	.LM182:
 1190 05f4 E0EC      		ldi r30,lo8(2496)
 1191 05f6 F9E0      		ldi r31,hi8(2496)
 1192               	.L128:
 1193 05f8 8881      		ld r24,Y
 1194 05fa 8383      		std Z+3,r24
 1195               	.L125:
 1196 05fc 8091 C209 		lds r24,2498
 1197 0600 87FF      		sbrs r24,7
 1198 0602 00C0      		rjmp .L125
 1199               	.LM183:
 1200 0604 8981      		ldd r24,Y+1
 1201 0606 8383      		std Z+3,r24
 1202               	.L126:
 1203 0608 8091 C209 		lds r24,2498
 1204 060c 87FF      		sbrs r24,7
 1205 060e 00C0      		rjmp .L126
 1206               	.LM184:
 1207 0610 9150      		subi r25,lo8(-(-1))
 1208 0612 01F0      		breq .L127
 1209               	.LM185:
 1210 0614 2296      		adiw r28,2
 1211 0616 00C0      		rjmp .L128
 1212               	.L127:
 1213               	.LM186:
 1214 0618 8FEF      		ldi r24,lo8(-1)
 1215 061a E0EC      		ldi r30,lo8(2496)
 1216 061c F9E0      		ldi r31,hi8(2496)
 1217 061e 8383      		std Z+3,r24
 1218               	.L129:
 1219 0620 8091 C209 		lds r24,2498
 1220 0624 87FF      		sbrs r24,7
 1221 0626 00C0      		rjmp .L129
 1222               	.LM187:
 1223 0628 8FEF      		ldi r24,lo8(-1)
 1224 062a E0EC      		ldi r30,lo8(2496)
 1225 062c F9E0      		ldi r31,hi8(2496)
 1226 062e 8383      		std Z+3,r24
 1227               	.L130:
 1228 0630 8091 C209 		lds r24,2498
 1229 0634 87FF      		sbrs r24,7
 1230 0636 00C0      		rjmp .L130
 1231               	.LBB598:
 1232               	.LBB599:
 1233               	.LM188:
 1234 0638 8FEF      		ldi r24,lo8(-1)
 1235 063a E0EC      		ldi r30,lo8(2496)
 1236 063c F9E0      		ldi r31,hi8(2496)
 1237 063e 8383      		std Z+3,r24
 1238               	.L131:
 1239               	.LM189:
 1240 0640 8091 C209 		lds r24,2498
 1241 0644 87FF      		sbrs r24,7
 1242 0646 00C0      		rjmp .L131
 1243               	.LM190:
 1244 0648 8091 C309 		lds r24,2499
 1245               	.LVL45:
 1246 064c 90E0      		ldi r25,lo8(0)
 1247               	.LVL46:
 1248 064e 8F71      		andi r24,lo8(31)
 1249 0650 8530      		cpi r24,lo8(5)
 1250 0652 01F0      		breq .L132
 1251 0654 91E0      		ldi r25,lo8(1)
 1252               	.L132:
 1253 0656 81E0      		ldi r24,lo8(1)
 1254               	.LVL47:
 1255 0658 9827      		eor r25,r24
 1256               	.L122:
 1257               	.LBE599:
 1258               	.LBE598:
 1259               	.LM191:
 1260 065a 892F      		mov r24,r25
 1261               	/* epilogue start */
 1262 065c DF91      		pop r29
 1263 065e CF91      		pop r28
 1264               	.LVL48:
 1265 0660 1F91      		pop r17
 1266               	.LVL49:
 1267 0662 0895      		ret
 1268               	.LFE45:
 1271               	send_cmd:
 1272               	.LFB46:
 1273               	.LM192:
 1274               	.LVL50:
 1275 0664 DF92      		push r13
 1276 0666 EF92      		push r14
 1277 0668 FF92      		push r15
 1278 066a 0F93      		push r16
 1279 066c 1F93      		push r17
 1280               	/* prologue: function */
 1281               	/* frame size = 0 */
 1282 066e D82E      		mov r13,r24
 1283 0670 7A01      		movw r14,r20
 1284 0672 8B01      		movw r16,r22
 1285               	.LM193:
 1286 0674 87FF      		sbrs r24,7
 1287 0676 00C0      		rjmp .L141
 1288               	.LVL51:
 1289               	.LM194:
 1290 0678 87E7      		ldi r24,lo8(119)
 1291               	.LVL52:
 1292 067a 40E0      		ldi r20,lo8(0)
 1293 067c 50E0      		ldi r21,hi8(0)
 1294 067e 60E0      		ldi r22,hlo8(0)
 1295 0680 70E0      		ldi r23,hhi8(0)
 1296 0682 0E94 0000 		call send_cmd
 1297               	.LM195:
 1298 0686 8230      		cpi r24,lo8(2)
 1299               	.LVL53:
 1300 0688 00F0      		brlo .+2
 1301 068a 00C0      		rjmp .L142
 1302               	.LM196:
 1303 068c 8FE7      		ldi r24,lo8(127)
 1304               	.LVL54:
 1305 068e D822      		and r13,r24
 1306               	.LVL55:
 1307               	.L141:
 1308               	.LBB600:
 1309               	.LBB601:
 1310               	.LM197:
 1311 0690 80E1      		ldi r24,lo8(16)
 1312 0692 E0E6      		ldi r30,lo8(1632)
 1313 0694 F6E0      		ldi r31,hi8(1632)
 1314 0696 8583      		std Z+5,r24
 1315               	.LBB602:
 1316               	.LBB603:
 1317               	.LM198:
 1318 0698 8FEF      		ldi r24,lo8(-1)
 1319 069a E0EC      		ldi r30,lo8(2496)
 1320 069c F9E0      		ldi r31,hi8(2496)
 1321 069e 8383      		std Z+3,r24
 1322               	.L143:
 1323               	.LM199:
 1324 06a0 8091 C209 		lds r24,2498
 1325 06a4 87FF      		sbrs r24,7
 1326 06a6 00C0      		rjmp .L143
 1327               	.LM200:
 1328 06a8 8091 C309 		lds r24,2499
 1329               	.LBE603:
 1330               	.LBE602:
 1331               	.LBE601:
 1332               	.LBE600:
 1333               	.LM201:
 1334 06ac 0E94 0000 		call select
 1335 06b0 8823      		tst r24
 1336 06b2 01F4      		brne .L144
 1337 06b4 8FEF      		ldi r24,lo8(-1)
 1338               	.LVL56:
 1339 06b6 00C0      		rjmp .L142
 1340               	.LVL57:
 1341               	.L144:
 1342               	.LM202:
 1343 06b8 E0EC      		ldi r30,lo8(2496)
 1344 06ba F9E0      		ldi r31,hi8(2496)
 1345 06bc D382      		std Z+3,r13
 1346               	.L145:
 1347 06be 8091 C209 		lds r24,2498
 1348 06c2 87FF      		sbrs r24,7
 1349 06c4 00C0      		rjmp .L145
 1350               	.LM203:
 1351 06c6 812F      		mov r24,r17
 1352 06c8 9927      		clr r25
 1353 06ca AA27      		clr r26
 1354 06cc BB27      		clr r27
 1355 06ce E0EC      		ldi r30,lo8(2496)
 1356 06d0 F9E0      		ldi r31,hi8(2496)
 1357 06d2 8383      		std Z+3,r24
 1358               	.L146:
 1359 06d4 8091 C209 		lds r24,2498
 1360 06d8 87FF      		sbrs r24,7
 1361 06da 00C0      		rjmp .L146
 1362               	.LM204:
 1363 06dc C801      		movw r24,r16
 1364 06de AA27      		clr r26
 1365 06e0 BB27      		clr r27
 1366 06e2 E0EC      		ldi r30,lo8(2496)
 1367 06e4 F9E0      		ldi r31,hi8(2496)
 1368 06e6 8383      		std Z+3,r24
 1369               	.L147:
 1370 06e8 8091 C209 		lds r24,2498
 1371 06ec 87FF      		sbrs r24,7
 1372 06ee 00C0      		rjmp .L147
 1373               	.LM205:
 1374 06f0 BB27      		clr r27
 1375 06f2 A12F      		mov r26,r17
 1376 06f4 902F      		mov r25,r16
 1377 06f6 8F2D      		mov r24,r15
 1378 06f8 E0EC      		ldi r30,lo8(2496)
 1379 06fa F9E0      		ldi r31,hi8(2496)
 1380 06fc 8383      		std Z+3,r24
 1381               	.L148:
 1382 06fe 8091 C209 		lds r24,2498
 1383 0702 87FF      		sbrs r24,7
 1384 0704 00C0      		rjmp .L148
 1385               	.LM206:
 1386 0706 E0EC      		ldi r30,lo8(2496)
 1387 0708 F9E0      		ldi r31,hi8(2496)
 1388 070a E382      		std Z+3,r14
 1389               	.L149:
 1390 070c 8091 C209 		lds r24,2498
 1391 0710 87FF      		sbrs r24,7
 1392 0712 00C0      		rjmp .L149
 1393               	.LM207:
 1394 0714 80E4      		ldi r24,lo8(64)
 1395 0716 D816      		cp r13,r24
 1396 0718 01F4      		brne .L150
 1397 071a 85E9      		ldi r24,lo8(-107)
 1398               	.LVL58:
 1399 071c 00C0      		rjmp .L151
 1400               	.LVL59:
 1401               	.L150:
 1402               	.LM208:
 1403 071e 88E4      		ldi r24,lo8(72)
 1404 0720 D816      		cp r13,r24
 1405 0722 01F4      		brne .L152
 1406 0724 87E8      		ldi r24,lo8(-121)
 1407               	.LVL60:
 1408 0726 00C0      		rjmp .L151
 1409               	.LVL61:
 1410               	.L152:
 1411 0728 81E0      		ldi r24,lo8(1)
 1412               	.LVL62:
 1413               	.L151:
 1414               	.LM209:
 1415 072a E0EC      		ldi r30,lo8(2496)
 1416 072c F9E0      		ldi r31,hi8(2496)
 1417 072e 8383      		std Z+3,r24
 1418               	.L153:
 1419 0730 8091 C209 		lds r24,2498
 1420               	.LVL63:
 1421 0734 87FF      		sbrs r24,7
 1422 0736 00C0      		rjmp .L153
 1423               	.LM210:
 1424 0738 8CE4      		ldi r24,lo8(76)
 1425 073a D816      		cp r13,r24
 1426 073c 01F4      		brne .L170
 1427               	.L154:
 1428               	.LBB604:
 1429               	.LBB605:
 1430               	.LM211:
 1431 073e 8FEF      		ldi r24,lo8(-1)
 1432 0740 E0EC      		ldi r30,lo8(2496)
 1433 0742 F9E0      		ldi r31,hi8(2496)
 1434 0744 8383      		std Z+3,r24
 1435               	.L156:
 1436               	.LM212:
 1437 0746 8091 C209 		lds r24,2498
 1438 074a 87FF      		sbrs r24,7
 1439 074c 00C0      		rjmp .L156
 1440               	.LM213:
 1441 074e 8091 C309 		lds r24,2499
 1442               	.L170:
 1443 0752 9AE0      		ldi r25,lo8(10)
 1444               	.LVL64:
 1445               	.LBE605:
 1446               	.LBE604:
 1447               	.LBB606:
 1448               	.LBB607:
 1449               	.LM214:
 1450 0754 E0EC      		ldi r30,lo8(2496)
 1451 0756 F9E0      		ldi r31,hi8(2496)
 1452 0758 2FEF      		ldi r18,lo8(-1)
 1453               	.LVL65:
 1454               	.L159:
 1455 075a 2383      		std Z+3,r18
 1456               	.L157:
 1457               	.LM215:
 1458 075c 8091 C209 		lds r24,2498
 1459               	.LVL66:
 1460 0760 87FF      		sbrs r24,7
 1461 0762 00C0      		rjmp .L157
 1462               	.LM216:
 1463 0764 8091 C309 		lds r24,2499
 1464               	.LVL67:
 1465               	.LBE607:
 1466               	.LBE606:
 1467               	.LM217:
 1468 0768 87FF      		sbrs r24,7
 1469 076a 00C0      		rjmp .L142
 1470 076c 9150      		subi r25,lo8(-(-1))
 1471 076e 01F4      		brne .L159
 1472               	.L142:
 1473               	.LVL68:
 1474               	/* epilogue start */
 1475               	.LM218:
 1476 0770 1F91      		pop r17
 1477 0772 0F91      		pop r16
 1478 0774 FF90      		pop r15
 1479 0776 EF90      		pop r14
 1480               	.LVL69:
 1481 0778 DF90      		pop r13
 1482               	.LVL70:
 1483 077a 0895      		ret
 1484               	.LFE46:
 1486               	.global	disk_initialize
 1488               	disk_initialize:
 1489               	.LFB47:
 1490               	.LM219:
 1491               	.LVL71:
 1492 077c EF92      		push r14
 1493 077e FF92      		push r15
 1494 0780 0F93      		push r16
 1495 0782 1F93      		push r17
 1496 0784 DF93      		push r29
 1497 0786 CF93      		push r28
 1498 0788 CDB7      		in r28,__SP_L__
 1499 078a DEB7      		in r29,__SP_H__
 1500 078c 2597      		sbiw r28,5
 1501 078e CDBF      		out __SP_L__,r28
 1502 0790 DEBF      		out __SP_H__,r29
 1503               	/* prologue: function */
 1504               	/* frame size = 5 */
 1505               	.LM220:
 1506 0792 8823      		tst r24
 1507 0794 01F0      		breq .L172
 1508 0796 81E0      		ldi r24,lo8(1)
 1509               	.LVL72:
 1510 0798 00C0      		rjmp .L173
 1511               	.LVL73:
 1512               	.L172:
 1513               	.LM221:
 1514 079a 8091 0000 		lds r24,Stat
 1515               	.LVL74:
 1516 079e 81FD      		sbrc r24,1
 1517 07a0 00C0      		rjmp .L207
 1518               	.L174:
 1519               	.LBB608:
 1520               	.LBB609:
 1521               	.LM222:
 1522 07a2 E0E6      		ldi r30,lo8(1632)
 1523 07a4 F6E0      		ldi r31,hi8(1632)
 1524 07a6 80EB      		ldi r24,lo8(-80)
 1525 07a8 8183      		std Z+1,r24
 1526               	.LM223:
 1527 07aa 88E3      		ldi r24,lo8(56)
 1528 07ac 868B      		std Z+22,r24
 1529               	.LM224:
 1530 07ae 1482      		std Z+4,__zero_reg__
 1531 07b0 8CE2      		ldi r24,lo8(300)
 1532 07b2 91E0      		ldi r25,hi8(300)
 1533               	.LVL75:
 1534               	.LBB610:
 1535               	.LBB611:
 1536               	.LBB612:
 1537               	.LBB613:
 1538               	.LM225:
 1539 07b4 20E9      		ldi r18,lo8(400)
 1540 07b6 31E0      		ldi r19,hi8(400)
 1541               	.L175:
 1542 07b8 F901      		movw r30,r18
 1543               	.LVL76:
 1544               	/* #APP */
 1545               	 ;  105 "/usr/local/CrossPack-AVR-20100115/lib/gcc/avr/4.3.3/../../../../avr/include/util/delay_bas
 1546 07ba 3197      		1: sbiw r30,1
 1547 07bc 01F4      		brne 1b
 1548               	 ;  0 "" 2
 1549               	/* #NOAPP */
 1550               	.LBE613:
 1551               	.LBE612:
 1552               	.LM226:
 1553 07be 0197      		sbiw r24,1
 1554               	.LM227:
 1555 07c0 01F4      		brne .L175
 1556               	.LBE611:
 1557               	.LBE610:
 1558               	.LBE609:
 1559               	.LBE608:
 1560               	.LBB614:
 1561               	.LBB615:
 1562               	.LM228:
 1563 07c2 8FB7      		in r24,__SREG__
 1564               	.LVL77:
 1565 07c4 8983      		std Y+1,r24
 1566               	.LVL78:
 1567               	.LM229:
 1568               	/* #APP */
 1569               	 ;  214 "sd.c" 1
 1570 07c6 F894      		cli
 1571               	 ;  0 "" 2
 1572               	.LM230:
 1573               	/* #NOAPP */
 1574 07c8 1BBE      		out 59-0,__zero_reg__
 1575               	.LM231:
 1576 07ca 24E0      		ldi r18,lo8(4)
 1577 07cc 81E4      		ldi r24,lo8(65)
 1578 07ce 90E0      		ldi r25,hi8(65)
 1579               	/* #APP */
 1580               	 ;  236 "sd.c" 1
 1581 07d0 FC01      		movw r30,  r24
 1582 07d2 08ED      		ldi  r16,  216
 1583 07d4 04BF      		out   52, r16
 1584 07d6 2083      		st     Z,  r18
 1585               		
 1586               	 ;  0 "" 2
 1587               	.LVL79:
 1588               	.LM232:
 1589               	/* #NOAPP */
 1590 07d8 8981      		ldd r24,Y+1
 1591 07da 8FBF      		out __SREG__,r24
 1592               	.LBE615:
 1593               	.LBE614:
 1594               	.LM233:
 1595 07dc 83E5      		ldi r24,lo8(83)
 1596 07de 8093 C009 		sts 2496,r24
 1597 07e2 9AE0      		ldi r25,lo8(10)
 1598               	.LVL80:
 1599               	.LBB616:
 1600               	.LBB617:
 1601               	.LM234:
 1602 07e4 E0EC      		ldi r30,lo8(2496)
 1603 07e6 F9E0      		ldi r31,hi8(2496)
 1604 07e8 2FEF      		ldi r18,lo8(-1)
 1605               	.L177:
 1606 07ea 2383      		std Z+3,r18
 1607               	.L176:
 1608               	.LM235:
 1609 07ec 8091 C209 		lds r24,2498
 1610 07f0 87FF      		sbrs r24,7
 1611 07f2 00C0      		rjmp .L176
 1612               	.LM236:
 1613 07f4 8091 C309 		lds r24,2499
 1614               	.LBE617:
 1615               	.LBE616:
 1616               	.LM237:
 1617 07f8 9150      		subi r25,lo8(-(-1))
 1618 07fa 01F4      		brne .L177
 1619               	.LM238:
 1620 07fc 80E4      		ldi r24,lo8(64)
 1621 07fe 40E0      		ldi r20,lo8(0)
 1622 0800 50E0      		ldi r21,hi8(0)
 1623 0802 60E0      		ldi r22,hlo8(0)
 1624 0804 70E0      		ldi r23,hhi8(0)
 1625 0806 0E94 0000 		call send_cmd
 1626               	.LVL81:
 1627 080a 8130      		cpi r24,lo8(1)
 1628 080c 01F0      		breq .+2
 1629 080e 00C0      		rjmp .L178
 1630               	.LM239:
 1631 0810 84E6      		ldi r24,lo8(100)
 1632 0812 8093 0000 		sts Timer1,r24
 1633               	.LM240:
 1634 0816 88E4      		ldi r24,lo8(72)
 1635 0818 4AEA      		ldi r20,lo8(426)
 1636 081a 51E0      		ldi r21,hi8(426)
 1637 081c 60E0      		ldi r22,hlo8(426)
 1638 081e 70E0      		ldi r23,hhi8(426)
 1639 0820 0E94 0000 		call send_cmd
 1640 0824 8130      		cpi r24,lo8(1)
 1641 0826 01F0      		breq .+2
 1642 0828 00C0      		rjmp .L179
 1643 082a 32E0      		ldi r19,lo8(2)
 1644 082c E32E      		mov r14,r19
 1645 082e F12C      		mov r15,__zero_reg__
 1646 0830 EC0E      		add r14,r28
 1647 0832 FD1E      		adc r15,r29
 1648 0834 8701      		movw r16,r14
 1649               	.LBB618:
 1650               	.LBB619:
 1651               	.LM241:
 1652 0836 E0EC      		ldi r30,lo8(2496)
 1653 0838 F9E0      		ldi r31,hi8(2496)
 1654 083a 9FEF      		ldi r25,lo8(-1)
 1655               	.LBE619:
 1656               	.LBE618:
 1657               	.LM242:
 1658 083c 9E01      		movw r18,r28
 1659 083e 2A5F      		subi r18,lo8(-(6))
 1660 0840 3F4F      		sbci r19,hi8(-(6))
 1661               	.L181:
 1662               	.LBB621:
 1663               	.LBB620:
 1664               	.LM243:
 1665 0842 9383      		std Z+3,r25
 1666               	.L180:
 1667               	.LM244:
 1668 0844 8091 C209 		lds r24,2498
 1669 0848 87FF      		sbrs r24,7
 1670 084a 00C0      		rjmp .L180
 1671               	.LM245:
 1672 084c 8091 C309 		lds r24,2499
 1673               	.LBE620:
 1674               	.LBE621:
 1675               	.LM246:
 1676 0850 D801      		movw r26,r16
 1677 0852 8D93      		st X+,r24
 1678 0854 8D01      		movw r16,r26
 1679 0856 A217      		cp r26,r18
 1680 0858 B307      		cpc r27,r19
 1681 085a 01F4      		brne .L181
 1682               	.LM247:
 1683 085c 8C81      		ldd r24,Y+4
 1684 085e 8130      		cpi r24,lo8(1)
 1685 0860 01F0      		breq .+2
 1686 0862 00C0      		rjmp .L178
 1687 0864 8D81      		ldd r24,Y+5
 1688 0866 8A3A      		cpi r24,lo8(-86)
 1689 0868 01F0      		breq .+2
 1690 086a 00C0      		rjmp .L178
 1691               	.L195:
 1692               	.LM248:
 1693 086c 8091 0000 		lds r24,Timer1
 1694 0870 8823      		tst r24
 1695 0872 01F0      		breq .L182
 1696 0874 89EE      		ldi r24,lo8(-23)
 1697 0876 40E0      		ldi r20,lo8(1073741824)
 1698 0878 50E0      		ldi r21,hi8(1073741824)
 1699 087a 60E0      		ldi r22,hlo8(1073741824)
 1700 087c 70E4      		ldi r23,hhi8(1073741824)
 1701 087e 0E94 0000 		call send_cmd
 1702 0882 8823      		tst r24
 1703 0884 01F4      		brne .L195
 1704               	.L182:
 1705               	.LM249:
 1706 0886 8091 0000 		lds r24,Timer1
 1707 088a 8823      		tst r24
 1708 088c 01F4      		brne .+2
 1709 088e 00C0      		rjmp .L178
 1710 0890 8AE7      		ldi r24,lo8(122)
 1711 0892 40E0      		ldi r20,lo8(0)
 1712 0894 50E0      		ldi r21,hi8(0)
 1713 0896 60E0      		ldi r22,hlo8(0)
 1714 0898 70E0      		ldi r23,hhi8(0)
 1715 089a 0E94 0000 		call send_cmd
 1716 089e 8823      		tst r24
 1717 08a0 01F0      		breq .+2
 1718 08a2 00C0      		rjmp .L178
 1719               	.LBB622:
 1720               	.LBB623:
 1721               	.LM250:
 1722 08a4 E0EC      		ldi r30,lo8(2496)
 1723 08a6 F9E0      		ldi r31,hi8(2496)
 1724 08a8 9FEF      		ldi r25,lo8(-1)
 1725               	.L194:
 1726 08aa 9383      		std Z+3,r25
 1727               	.L184:
 1728               	.LM251:
 1729 08ac 8091 C209 		lds r24,2498
 1730 08b0 87FF      		sbrs r24,7
 1731 08b2 00C0      		rjmp .L184
 1732               	.LM252:
 1733 08b4 8091 C309 		lds r24,2499
 1734               	.LBE623:
 1735               	.LBE622:
 1736               	.LM253:
 1737 08b8 D701      		movw r26,r14
 1738 08ba 8D93      		st X+,r24
 1739 08bc 7D01      		movw r14,r26
 1740 08be A017      		cp r26,r16
 1741 08c0 B107      		cpc r27,r17
 1742 08c2 01F4      		brne .L194
 1743               	.LM254:
 1744 08c4 8A81      		ldd r24,Y+2
 1745 08c6 86FD      		sbrc r24,6
 1746 08c8 00C0      		rjmp .L186
 1747 08ca 14E0      		ldi r17,lo8(4)
 1748               	.LVL82:
 1749 08cc 00C0      		rjmp .L187
 1750               	.LVL83:
 1751               	.L186:
 1752 08ce 1CE0      		ldi r17,lo8(12)
 1753               	.LVL84:
 1754 08d0 00C0      		rjmp .L187
 1755               	.LVL85:
 1756               	.L179:
 1757               	.LM255:
 1758 08d2 89EE      		ldi r24,lo8(-23)
 1759 08d4 40E0      		ldi r20,lo8(0)
 1760 08d6 50E0      		ldi r21,hi8(0)
 1761 08d8 60E0      		ldi r22,hlo8(0)
 1762 08da 70E0      		ldi r23,hhi8(0)
 1763 08dc 0E94 0000 		call send_cmd
 1764 08e0 8230      		cpi r24,lo8(2)
 1765 08e2 00F0      		brlo .L188
 1766 08e4 01E4      		ldi r16,lo8(65)
 1767               	.LVL86:
 1768 08e6 11E0      		ldi r17,lo8(1)
 1769               	.LVL87:
 1770 08e8 00C0      		rjmp .L196
 1771               	.LVL88:
 1772               	.L188:
 1773 08ea 09EE      		ldi r16,lo8(-23)
 1774               	.LVL89:
 1775 08ec 12E0      		ldi r17,lo8(2)
 1776               	.LVL90:
 1777               	.L196:
 1778               	.LM256:
 1779 08ee 8091 0000 		lds r24,Timer1
 1780 08f2 8823      		tst r24
 1781 08f4 01F0      		breq .L190
 1782 08f6 802F      		mov r24,r16
 1783 08f8 40E0      		ldi r20,lo8(0)
 1784 08fa 50E0      		ldi r21,hi8(0)
 1785 08fc 60E0      		ldi r22,hlo8(0)
 1786 08fe 70E0      		ldi r23,hhi8(0)
 1787 0900 0E94 0000 		call send_cmd
 1788 0904 8823      		tst r24
 1789 0906 01F4      		brne .L196
 1790               	.L190:
 1791               	.LM257:
 1792 0908 8091 0000 		lds r24,Timer1
 1793 090c 8823      		tst r24
 1794 090e 01F0      		breq .L178
 1795 0910 80E5      		ldi r24,lo8(80)
 1796 0912 40E0      		ldi r20,lo8(512)
 1797 0914 52E0      		ldi r21,hi8(512)
 1798 0916 60E0      		ldi r22,hlo8(512)
 1799 0918 70E0      		ldi r23,hhi8(512)
 1800 091a 0E94 0000 		call send_cmd
 1801 091e 8111      		cpse r24,__zero_reg__
 1802               	.L178:
 1803 0920 10E0      		ldi r17,lo8(0)
 1804               	.L187:
 1805               	.LM258:
 1806 0922 1093 0000 		sts CardType,r17
 1807               	.LBB624:
 1808               	.LBB625:
 1809               	.LM259:
 1810 0926 80E1      		ldi r24,lo8(16)
 1811 0928 E0E6      		ldi r30,lo8(1632)
 1812 092a F6E0      		ldi r31,hi8(1632)
 1813 092c 8583      		std Z+5,r24
 1814               	.LBB626:
 1815               	.LBB627:
 1816               	.LM260:
 1817 092e 8FEF      		ldi r24,lo8(-1)
 1818 0930 E0EC      		ldi r30,lo8(2496)
 1819 0932 F9E0      		ldi r31,hi8(2496)
 1820 0934 8383      		std Z+3,r24
 1821               	.L191:
 1822               	.LM261:
 1823 0936 8091 C209 		lds r24,2498
 1824 093a 87FF      		sbrs r24,7
 1825 093c 00C0      		rjmp .L191
 1826               	.LM262:
 1827 093e 8091 C309 		lds r24,2499
 1828               	.LBE627:
 1829               	.LBE626:
 1830               	.LBE625:
 1831               	.LBE624:
 1832               	.LM263:
 1833 0942 1123      		tst r17
 1834 0944 01F0      		breq .L192
 1835               	.LM264:
 1836 0946 8091 0000 		lds r24,Stat
 1837 094a 8E7F      		andi r24,lo8(-2)
 1838 094c 8093 0000 		sts Stat,r24
 1839               	.LM265:
 1840 0950 80ED      		ldi r24,lo8(-48)
 1841 0952 8093 C009 		sts 2496,r24
 1842               	.L192:
 1843               	.LBB628:
 1844               	.LBB629:
 1845               	.LM266:
 1846 0956 8FB7      		in r24,__SREG__
 1847 0958 8983      		std Y+1,r24
 1848               	.LVL91:
 1849               	.LM267:
 1850               	/* #APP */
 1851               	 ;  214 "sd.c" 1
 1852 095a F894      		cli
 1853               	 ;  0 "" 2
 1854               	.LM268:
 1855               	/* #NOAPP */
 1856 095c 1BBE      		out 59-0,__zero_reg__
 1857               	.LM269:
 1858 095e 20E0      		ldi r18,lo8(0)
 1859 0960 81E4      		ldi r24,lo8(65)
 1860 0962 90E0      		ldi r25,hi8(65)
 1861               	/* #APP */
 1862               	 ;  236 "sd.c" 1
 1863 0964 FC01      		movw r30,  r24
 1864 0966 08ED      		ldi  r16,  216
 1865 0968 04BF      		out   52, r16
 1866 096a 2083      		st     Z,  r18
 1867               		
 1868               	 ;  0 "" 2
 1869               	.LVL92:
 1870               	.LM270:
 1871               	/* #NOAPP */
 1872 096c 8981      		ldd r24,Y+1
 1873 096e 8FBF      		out __SREG__,r24
 1874               	.L207:
 1875               	.LBE629:
 1876               	.LBE628:
 1877               	.LM271:
 1878 0970 8091 0000 		lds r24,Stat
 1879               	.L173:
 1880               	/* epilogue start */
 1881               	.LM272:
 1882 0974 2596      		adiw r28,5
 1883 0976 CDBF      		out __SP_L__,r28
 1884 0978 DEBF      		out __SP_H__,r29
 1885 097a CF91      		pop r28
 1886 097c DF91      		pop r29
 1887 097e 1F91      		pop r17
 1888               	.LVL93:
 1889 0980 0F91      		pop r16
 1890 0982 FF90      		pop r15
 1891 0984 EF90      		pop r14
 1892 0986 0895      		ret
 1893               	.LFE47:
 1895               	.global	disk_status
 1897               	disk_status:
 1898               	.LFB48:
 1899               	.LM273:
 1900               	.LVL94:
 1901               	/* prologue: function */
 1902               	/* frame size = 0 */
 1903               	.LM274:
 1904 0988 8823      		tst r24
 1905 098a 01F0      		breq .L209
 1906 098c 81E0      		ldi r24,lo8(1)
 1907               	.LVL95:
 1908 098e 0895      		ret
 1909               	.LVL96:
 1910               	.L209:
 1911               	.LM275:
 1912 0990 8091 0000 		lds r24,Stat
 1913               	.LVL97:
 1914               	.LM276:
 1915 0994 0895      		ret
 1916               	.LFE48:
 1918               	.global	disk_read
 1920               	disk_read:
 1921               	.LFB49:
 1922               	.LM277:
 1923               	.LVL98:
 1924 0996 0F93      		push r16
 1925               	.LVL99:
 1926 0998 CF93      		push r28
 1927 099a DF93      		push r29
 1928               	/* prologue: function */
 1929               	/* frame size = 0 */
 1930 099c EB01      		movw r28,r22
 1931               	.LM278:
 1932 099e 8823      		tst r24
 1933 09a0 01F0      		breq .+2
 1934 09a2 00C0      		rjmp .L213
 1935               	.LVL100:
 1936 09a4 0023      		tst r16
 1937               	.LVL101:
 1938 09a6 01F4      		brne .+2
 1939 09a8 00C0      		rjmp .L213
 1940               	.LM279:
 1941 09aa 8091 0000 		lds r24,Stat
 1942               	.LVL102:
 1943 09ae 80FF      		sbrs r24,0
 1944 09b0 00C0      		rjmp .L214
 1945 09b2 03E0      		ldi r16,lo8(3)
 1946               	.LVL103:
 1947 09b4 00C0      		rjmp .L215
 1948               	.LVL104:
 1949               	.L214:
 1950               	.LM280:
 1951 09b6 8091 0000 		lds r24,CardType
 1952 09ba 83FD      		sbrc r24,3
 1953 09bc 00C0      		rjmp .L216
 1954 09be 69E0      		ldi r22,9
 1955 09c0 220F      	1:	lsl r18
 1956 09c2 331F      		rol r19
 1957 09c4 441F      		rol r20
 1958 09c6 551F      		rol r21
 1959 09c8 6A95      		dec r22
 1960 09ca 01F4      		brne 1b
 1961               	.LVL105:
 1962               	.L216:
 1963               	.LM281:
 1964 09cc 0130      		cpi r16,lo8(1)
 1965 09ce 01F4      		brne .L217
 1966               	.LM282:
 1967 09d0 81E5      		ldi r24,lo8(81)
 1968 09d2 BA01      		movw r22,r20
 1969 09d4 A901      		movw r20,r18
 1970 09d6 0E94 0000 		call send_cmd
 1971               	.LVL106:
 1972 09da 8823      		tst r24
 1973 09dc 01F4      		brne .L218
 1974 09de CE01      		movw r24,r28
 1975 09e0 60E0      		ldi r22,lo8(512)
 1976 09e2 72E0      		ldi r23,hi8(512)
 1977 09e4 0E94 0000 		call rcvr_datablock
 1978 09e8 00E0      		ldi r16,lo8(0)
 1979 09ea 8823      		tst r24
 1980 09ec 01F4      		brne .L218
 1981 09ee 01E0      		ldi r16,lo8(1)
 1982 09f0 00C0      		rjmp .L218
 1983               	.LVL107:
 1984               	.L217:
 1985               	.LM283:
 1986 09f2 82E5      		ldi r24,lo8(82)
 1987 09f4 BA01      		movw r22,r20
 1988 09f6 A901      		movw r20,r18
 1989 09f8 0E94 0000 		call send_cmd
 1990               	.LVL108:
 1991 09fc 8823      		tst r24
 1992 09fe 01F4      		brne .L218
 1993               	.L226:
 1994               	.LM284:
 1995 0a00 CE01      		movw r24,r28
 1996 0a02 60E0      		ldi r22,lo8(512)
 1997 0a04 72E0      		ldi r23,hi8(512)
 1998 0a06 0E94 0000 		call rcvr_datablock
 1999 0a0a 8823      		tst r24
 2000 0a0c 01F0      		breq .L220
 2001               	.LM285:
 2002 0a0e 0150      		subi r16,lo8(-(-1))
 2003 0a10 01F0      		breq .L220
 2004               	.LM286:
 2005 0a12 C050      		subi r28,lo8(-(512))
 2006 0a14 DE4F      		sbci r29,hi8(-(512))
 2007 0a16 00C0      		rjmp .L226
 2008               	.L220:
 2009               	.LM287:
 2010 0a18 8CE4      		ldi r24,lo8(76)
 2011 0a1a 40E0      		ldi r20,lo8(0)
 2012 0a1c 50E0      		ldi r21,hi8(0)
 2013 0a1e 60E0      		ldi r22,hlo8(0)
 2014 0a20 70E0      		ldi r23,hhi8(0)
 2015 0a22 0E94 0000 		call send_cmd
 2016               	.L218:
 2017               	.LBB630:
 2018               	.LBB631:
 2019               	.LM288:
 2020 0a26 80E1      		ldi r24,lo8(16)
 2021 0a28 E0E6      		ldi r30,lo8(1632)
 2022 0a2a F6E0      		ldi r31,hi8(1632)
 2023 0a2c 8583      		std Z+5,r24
 2024               	.LBB632:
 2025               	.LBB633:
 2026               	.LM289:
 2027 0a2e 8FEF      		ldi r24,lo8(-1)
 2028 0a30 E0EC      		ldi r30,lo8(2496)
 2029 0a32 F9E0      		ldi r31,hi8(2496)
 2030 0a34 8383      		std Z+3,r24
 2031               	.L222:
 2032               	.LM290:
 2033 0a36 8091 C209 		lds r24,2498
 2034 0a3a 87FF      		sbrs r24,7
 2035 0a3c 00C0      		rjmp .L222
 2036               	.LM291:
 2037 0a3e 8091 C309 		lds r24,2499
 2038               	.LBE633:
 2039               	.LBE632:
 2040               	.LBE631:
 2041               	.LBE630:
 2042               	.LM292:
 2043 0a42 0023      		tst r16
 2044 0a44 01F0      		breq .L215
 2045 0a46 01E0      		ldi r16,lo8(1)
 2046               	.LVL109:
 2047 0a48 00C0      		rjmp .L215
 2048               	.LVL110:
 2049               	.L213:
 2050 0a4a 04E0      		ldi r16,lo8(4)
 2051               	.LVL111:
 2052               	.L215:
 2053               	.LM293:
 2054 0a4c 802F      		mov r24,r16
 2055               	.LVL112:
 2056               	/* epilogue start */
 2057 0a4e DF91      		pop r29
 2058 0a50 CF91      		pop r28
 2059               	.LVL113:
 2060 0a52 0F91      		pop r16
 2061 0a54 0895      		ret
 2062               	.LFE49:
 2064               	.global	disk_write
 2066               	disk_write:
 2067               	.LFB50:
 2068               	.LM294:
 2069               	.LVL114:
 2070 0a56 CF92      		push r12
 2071 0a58 DF92      		push r13
 2072 0a5a EF92      		push r14
 2073 0a5c FF92      		push r15
 2074 0a5e 0F93      		push r16
 2075               	.LVL115:
 2076 0a60 CF93      		push r28
 2077 0a62 DF93      		push r29
 2078               	/* prologue: function */
 2079               	/* frame size = 0 */
 2080 0a64 EB01      		movw r28,r22
 2081 0a66 6901      		movw r12,r18
 2082 0a68 7A01      		movw r14,r20
 2083               	.LM295:
 2084 0a6a 8823      		tst r24
 2085 0a6c 01F0      		breq .+2
 2086 0a6e 00C0      		rjmp .L228
 2087               	.LVL116:
 2088 0a70 0023      		tst r16
 2089               	.LVL117:
 2090 0a72 01F4      		brne .+2
 2091 0a74 00C0      		rjmp .L228
 2092               	.LM296:
 2093 0a76 8091 0000 		lds r24,Stat
 2094               	.LVL118:
 2095 0a7a 80FF      		sbrs r24,0
 2096 0a7c 00C0      		rjmp .L229
 2097 0a7e 03E0      		ldi r16,lo8(3)
 2098               	.LVL119:
 2099 0a80 00C0      		rjmp .L230
 2100               	.LVL120:
 2101               	.L229:
 2102               	.LM297:
 2103 0a82 8091 0000 		lds r24,Stat
 2104 0a86 82FF      		sbrs r24,2
 2105 0a88 00C0      		rjmp .L231
 2106 0a8a 02E0      		ldi r16,lo8(2)
 2107               	.LVL121:
 2108 0a8c 00C0      		rjmp .L230
 2109               	.LVL122:
 2110               	.L231:
 2111               	.LM298:
 2112 0a8e 8091 0000 		lds r24,CardType
 2113 0a92 90E0      		ldi r25,lo8(0)
 2114 0a94 83FD      		sbrc r24,3
 2115 0a96 00C0      		rjmp .L232
 2116 0a98 79E0      		ldi r23,9
 2117 0a9a CC0C      	1:	lsl r12
 2118 0a9c DD1C      		rol r13
 2119 0a9e EE1C      		rol r14
 2120 0aa0 FF1C      		rol r15
 2121 0aa2 7A95      		dec r23
 2122 0aa4 01F4      		brne 1b
 2123               	.LVL123:
 2124               	.L232:
 2125               	.LM299:
 2126 0aa6 0130      		cpi r16,lo8(1)
 2127 0aa8 01F4      		brne .L233
 2128               	.LM300:
 2129 0aaa 88E5      		ldi r24,lo8(88)
 2130 0aac B701      		movw r22,r14
 2131 0aae A601      		movw r20,r12
 2132 0ab0 0E94 0000 		call send_cmd
 2133 0ab4 8823      		tst r24
 2134 0ab6 01F4      		brne .L234
 2135 0ab8 CE01      		movw r24,r28
 2136 0aba 6EEF      		ldi r22,lo8(-2)
 2137 0abc 0E94 0000 		call xmit_datablock
 2138 0ac0 00E0      		ldi r16,lo8(0)
 2139 0ac2 00C0      		rjmp .L245
 2140               	.LVL124:
 2141               	.L233:
 2142               	.LM301:
 2143 0ac4 8670      		andi r24,lo8(6)
 2144 0ac6 9070      		andi r25,hi8(6)
 2145 0ac8 892B      		or r24,r25
 2146 0aca 01F0      		breq .L236
 2147 0acc 402F      		mov r20,r16
 2148 0ace 50E0      		ldi r21,lo8(0)
 2149               	.LVL125:
 2150 0ad0 60E0      		ldi r22,lo8(0)
 2151 0ad2 70E0      		ldi r23,hi8(0)
 2152               	.LVL126:
 2153 0ad4 87ED      		ldi r24,lo8(-41)
 2154 0ad6 0E94 0000 		call send_cmd
 2155               	.LVL127:
 2156               	.L236:
 2157               	.LM302:
 2158 0ada 89E5      		ldi r24,lo8(89)
 2159 0adc B701      		movw r22,r14
 2160 0ade A601      		movw r20,r12
 2161 0ae0 0E94 0000 		call send_cmd
 2162 0ae4 8823      		tst r24
 2163 0ae6 01F4      		brne .L234
 2164               	.L243:
 2165               	.LM303:
 2166 0ae8 CE01      		movw r24,r28
 2167 0aea 6CEF      		ldi r22,lo8(-4)
 2168 0aec 0E94 0000 		call xmit_datablock
 2169 0af0 8823      		tst r24
 2170 0af2 01F0      		breq .L237
 2171               	.LM304:
 2172 0af4 0150      		subi r16,lo8(-(-1))
 2173 0af6 01F0      		breq .L237
 2174               	.LM305:
 2175 0af8 C050      		subi r28,lo8(-(512))
 2176 0afa DE4F      		sbci r29,hi8(-(512))
 2177 0afc 00C0      		rjmp .L243
 2178               	.L237:
 2179               	.LM306:
 2180 0afe 80E0      		ldi r24,lo8(0)
 2181 0b00 90E0      		ldi r25,hi8(0)
 2182 0b02 6DEF      		ldi r22,lo8(-3)
 2183 0b04 0E94 0000 		call xmit_datablock
 2184               	.L245:
 2185 0b08 8823      		tst r24
 2186 0b0a 01F4      		brne .L234
 2187 0b0c 01E0      		ldi r16,lo8(1)
 2188               	.L234:
 2189               	.LBB634:
 2190               	.LBB635:
 2191               	.LM307:
 2192 0b0e 80E1      		ldi r24,lo8(16)
 2193 0b10 E0E6      		ldi r30,lo8(1632)
 2194 0b12 F6E0      		ldi r31,hi8(1632)
 2195 0b14 8583      		std Z+5,r24
 2196               	.LBB636:
 2197               	.LBB637:
 2198               	.LM308:
 2199 0b16 8FEF      		ldi r24,lo8(-1)
 2200 0b18 E0EC      		ldi r30,lo8(2496)
 2201 0b1a F9E0      		ldi r31,hi8(2496)
 2202 0b1c 8383      		std Z+3,r24
 2203               	.L239:
 2204               	.LM309:
 2205 0b1e 8091 C209 		lds r24,2498
 2206 0b22 87FF      		sbrs r24,7
 2207 0b24 00C0      		rjmp .L239
 2208               	.LM310:
 2209 0b26 8091 C309 		lds r24,2499
 2210               	.LBE637:
 2211               	.LBE636:
 2212               	.LBE635:
 2213               	.LBE634:
 2214               	.LM311:
 2215 0b2a 0023      		tst r16
 2216 0b2c 01F0      		breq .L230
 2217 0b2e 01E0      		ldi r16,lo8(1)
 2218               	.LVL128:
 2219 0b30 00C0      		rjmp .L230
 2220               	.LVL129:
 2221               	.L228:
 2222 0b32 04E0      		ldi r16,lo8(4)
 2223               	.LVL130:
 2224               	.L230:
 2225               	.LM312:
 2226 0b34 802F      		mov r24,r16
 2227               	.LVL131:
 2228               	/* epilogue start */
 2229 0b36 DF91      		pop r29
 2230 0b38 CF91      		pop r28
 2231               	.LVL132:
 2232 0b3a 0F91      		pop r16
 2233 0b3c FF90      		pop r15
 2234 0b3e EF90      		pop r14
 2235 0b40 DF90      		pop r13
 2236 0b42 CF90      		pop r12
 2237               	.LVL133:
 2238 0b44 0895      		ret
 2239               	.LFE50:
 2241               	.global	disk_ioctl
 2243               	disk_ioctl:
 2244               	.LFB51:
 2245               	.LM313:
 2246               	.LVL134:
 2247 0b46 FF92      		push r15
 2248 0b48 0F93      		push r16
 2249 0b4a 1F93      		push r17
 2250 0b4c DF93      		push r29
 2251 0b4e CF93      		push r28
 2252 0b50 CDB7      		in r28,__SP_L__
 2253 0b52 DEB7      		in r29,__SP_H__
 2254 0b54 6097      		sbiw r28,16
 2255 0b56 CDBF      		out __SP_L__,r28
 2256 0b58 DEBF      		out __SP_H__,r29
 2257               	/* prologue: function */
 2258               	/* frame size = 16 */
 2259 0b5a 8A01      		movw r16,r20
 2260               	.LM314:
 2261 0b5c 8823      		tst r24
 2262 0b5e 01F0      		breq .+2
 2263 0b60 00C0      		rjmp .L247
 2264               	.LVL135:
 2265               	.LM315:
 2266 0b62 6430      		cpi r22,lo8(4)
 2267 0b64 01F4      		brne .L248
 2268               	.LM316:
 2269 0b66 FA01      		movw r30,r20
 2270 0b68 8081      		ld r24,Z
 2271               	.LVL136:
 2272 0b6a 8130      		cpi r24,lo8(1)
 2273 0b6c 01F0      		breq .L250
 2274               	.LVL137:
 2275 0b6e 8130      		cpi r24,lo8(1)
 2276 0b70 00F4      		brsh .+2
 2277 0b72 00C0      		rjmp .L249
 2278 0b74 8230      		cpi r24,lo8(2)
 2279 0b76 01F0      		breq .+2
 2280 0b78 00C0      		rjmp .L247
 2281 0b7a 00C0      		rjmp .L299
 2282               	.L250:
 2283               	.LBB638:
 2284               	.LBB639:
 2285               	.LM317:
 2286 0b7c E0E6      		ldi r30,lo8(1632)
 2287 0b7e F6E0      		ldi r31,hi8(1632)
 2288 0b80 80EB      		ldi r24,lo8(-80)
 2289 0b82 8183      		std Z+1,r24
 2290               	.LM318:
 2291 0b84 88E3      		ldi r24,lo8(56)
 2292 0b86 868B      		std Z+22,r24
 2293               	.LM319:
 2294 0b88 1482      		std Z+4,__zero_reg__
 2295 0b8a 8CE2      		ldi r24,lo8(300)
 2296 0b8c 91E0      		ldi r25,hi8(300)
 2297               	.LVL138:
 2298               	.LBB640:
 2299               	.LBB641:
 2300               	.LBB642:
 2301               	.LBB643:
 2302               	.LM320:
 2303 0b8e 20E9      		ldi r18,lo8(400)
 2304 0b90 31E0      		ldi r19,hi8(400)
 2305               	.L252:
 2306 0b92 F901      		movw r30,r18
 2307               	.LVL139:
 2308               	/* #APP */
 2309               	 ;  105 "/usr/local/CrossPack-AVR-20100115/lib/gcc/avr/4.3.3/../../../../avr/include/util/delay_bas
 2310 0b94 3197      		1: sbiw r30,1
 2311 0b96 01F4      		brne 1b
 2312               	 ;  0 "" 2
 2313               	/* #NOAPP */
 2314               	.LBE643:
 2315               	.LBE642:
 2316               	.LM321:
 2317 0b98 0197      		sbiw r24,1
 2318               	.LM322:
 2319 0b9a 01F4      		brne .L252
 2320 0b9c 00C0      		rjmp .L249
 2321               	.LVL140:
 2322               	.L299:
 2323               	.LBE641:
 2324               	.LBE640:
 2325               	.LBE639:
 2326               	.LBE638:
 2327               	.LM323:
 2328 0b9e 81E0      		ldi r24,lo8(1)
 2329 0ba0 FA01      		movw r30,r20
 2330 0ba2 8183      		std Z+1,r24
 2331 0ba4 00C0      		rjmp .L249
 2332               	.LVL141:
 2333               	.L248:
 2334               	.LM324:
 2335 0ba6 8091 0000 		lds r24,Stat
 2336               	.LVL142:
 2337 0baa 80FF      		sbrs r24,0
 2338 0bac 00C0      		rjmp .L254
 2339 0bae 93E0      		ldi r25,lo8(3)
 2340               	.LVL143:
 2341 0bb0 00C0      		rjmp .L253
 2342               	.LVL144:
 2343               	.L254:
 2344               	.LM325:
 2345 0bb2 6A30      		cpi r22,lo8(10)
 2346 0bb4 01F4      		brne .+2
 2347 0bb6 00C0      		rjmp .L260
 2348 0bb8 6B30      		cpi r22,lo8(11)
 2349 0bba 00F4      		brsh .L265
 2350 0bbc 6130      		cpi r22,lo8(1)
 2351 0bbe 01F0      		breq .L257
 2352 0bc0 6130      		cpi r22,lo8(1)
 2353 0bc2 00F0      		brlo .L256
 2354 0bc4 6230      		cpi r22,lo8(2)
 2355 0bc6 01F4      		brne .+2
 2356 0bc8 00C0      		rjmp .L258
 2357 0bca 6330      		cpi r22,lo8(3)
 2358 0bcc 01F4      		brne .L255
 2359 0bce 00C0      		rjmp .L300
 2360               	.L265:
 2361 0bd0 6C30      		cpi r22,lo8(12)
 2362 0bd2 01F4      		brne .+2
 2363 0bd4 00C0      		rjmp .L262
 2364 0bd6 6C30      		cpi r22,lo8(12)
 2365 0bd8 00F4      		brsh .+2
 2366 0bda 00C0      		rjmp .L261
 2367 0bdc 6D30      		cpi r22,lo8(13)
 2368 0bde 01F4      		brne .+2
 2369 0be0 00C0      		rjmp .L263
 2370 0be2 6E30      		cpi r22,lo8(14)
 2371 0be4 01F4      		brne .+2
 2372 0be6 00C0      		rjmp .L264
 2373               	.L255:
 2374 0be8 94E0      		ldi r25,lo8(4)
 2375               	.LVL145:
 2376 0bea 00C0      		rjmp .L266
 2377               	.LVL146:
 2378               	.L256:
 2379               	.LM326:
 2380 0bec 0E94 0000 		call select
 2381               	.LVL147:
 2382 0bf0 8823      		tst r24
 2383 0bf2 01F4      		brne .+2
 2384 0bf4 00C0      		rjmp .L267
 2385               	.LBB644:
 2386               	.LBB645:
 2387               	.LM327:
 2388 0bf6 80E1      		ldi r24,lo8(16)
 2389 0bf8 E0E6      		ldi r30,lo8(1632)
 2390 0bfa F6E0      		ldi r31,hi8(1632)
 2391 0bfc 8583      		std Z+5,r24
 2392               	.LBB646:
 2393               	.LBB647:
 2394               	.LM328:
 2395 0bfe 8FEF      		ldi r24,lo8(-1)
 2396 0c00 E0EC      		ldi r30,lo8(2496)
 2397 0c02 F9E0      		ldi r31,hi8(2496)
 2398 0c04 8383      		std Z+3,r24
 2399               	.L268:
 2400               	.LM329:
 2401 0c06 8091 C209 		lds r24,2498
 2402 0c0a 87FF      		sbrs r24,7
 2403 0c0c 00C0      		rjmp .L268
 2404               	.LM330:
 2405 0c0e 8091 C309 		lds r24,2499
 2406 0c12 00C0      		rjmp .L292
 2407               	.LVL148:
 2408               	.L257:
 2409               	.LBE647:
 2410               	.LBE646:
 2411               	.LBE645:
 2412               	.LBE644:
 2413               	.LM331:
 2414 0c14 89E4      		ldi r24,lo8(73)
 2415 0c16 40E0      		ldi r20,lo8(0)
 2416 0c18 50E0      		ldi r21,hi8(0)
 2417 0c1a 60E0      		ldi r22,hlo8(0)
 2418 0c1c 70E0      		ldi r23,hhi8(0)
 2419 0c1e 0E94 0000 		call send_cmd
 2420               	.LVL149:
 2421 0c22 8823      		tst r24
 2422 0c24 01F0      		breq .+2
 2423 0c26 00C0      		rjmp .L267
 2424 0c28 CE01      		movw r24,r28
 2425 0c2a 0196      		adiw r24,1
 2426 0c2c 60E1      		ldi r22,lo8(16)
 2427 0c2e 70E0      		ldi r23,hi8(16)
 2428 0c30 0E94 0000 		call rcvr_datablock
 2429 0c34 8823      		tst r24
 2430 0c36 01F4      		brne .+2
 2431 0c38 00C0      		rjmp .L267
 2432               	.LM332:
 2433 0c3a 8981      		ldd r24,Y+1
 2434 0c3c 8295      		swap r24
 2435 0c3e 8695      		lsr r24
 2436 0c40 8695      		lsr r24
 2437 0c42 8370      		andi r24,lo8(3)
 2438 0c44 7A85      		ldd r23,Y+10
 2439 0c46 4985      		ldd r20,Y+9
 2440 0c48 8130      		cpi r24,lo8(1)
 2441 0c4a 01F4      		brne .L269
 2442               	.LM333:
 2443 0c4c 872F      		mov r24,r23
 2444 0c4e 90E0      		ldi r25,lo8(0)
 2445 0c50 0196      		adiw r24,1
 2446 0c52 342F      		mov r19,r20
 2447 0c54 20E0      		ldi r18,lo8(0)
 2448 0c56 820F      		add r24,r18
 2449 0c58 931F      		adc r25,r19
 2450 0c5a A0E0      		ldi r26,lo8(0)
 2451 0c5c B0E0      		ldi r27,hi8(0)
 2452 0c5e 2AE0      		ldi r18,10
 2453 0c60 880F      	1:	lsl r24
 2454 0c62 991F      		rol r25
 2455 0c64 AA1F      		rol r26
 2456 0c66 BB1F      		rol r27
 2457 0c68 2A95      		dec r18
 2458 0c6a 01F4      		brne 1b
 2459 0c6c 00C0      		rjmp .L294
 2460               	.L269:
 2461               	.LM334:
 2462 0c6e 4295      		swap r20
 2463 0c70 4695      		lsr r20
 2464 0c72 4695      		lsr r20
 2465 0c74 4370      		andi r20,lo8(3)
 2466 0c76 2885      		ldd r18,Y+8
 2467 0c78 30E0      		ldi r19,lo8(0)
 2468 0c7a 220F      		lsl r18
 2469 0c7c 331F      		rol r19
 2470 0c7e 220F      		lsl r18
 2471 0c80 331F      		rol r19
 2472 0c82 240F      		add r18,r20
 2473 0c84 311D      		adc r19,__zero_reg__
 2474 0c86 2F5F      		subi r18,lo8(-(1))
 2475 0c88 3F4F      		sbci r19,hi8(-(1))
 2476 0c8a 8F81      		ldd r24,Y+7
 2477 0c8c 90E0      		ldi r25,lo8(0)
 2478 0c8e 8370      		andi r24,lo8(3)
 2479 0c90 9070      		andi r25,hi8(3)
 2480 0c92 982F      		mov r25,r24
 2481 0c94 8827      		clr r24
 2482 0c96 990F      		lsl r25
 2483 0c98 990F      		lsl r25
 2484 0c9a 280F      		add r18,r24
 2485 0c9c 391F      		adc r19,r25
 2486 0c9e 40E0      		ldi r20,lo8(0)
 2487 0ca0 50E0      		ldi r21,hi8(0)
 2488 0ca2 8E81      		ldd r24,Y+6
 2489 0ca4 8F70      		andi r24,lo8(15)
 2490 0ca6 6B85      		ldd r22,Y+11
 2491 0ca8 661F      		rol r22
 2492 0caa 6627      		clr r22
 2493 0cac 661F      		rol r22
 2494 0cae 860F      		add r24,r22
 2495 0cb0 8E5F      		subi r24,lo8(-(2))
 2496 0cb2 7370      		andi r23,lo8(3)
 2497 0cb4 770F      		lsl r23
 2498 0cb6 870F      		add r24,r23
 2499 0cb8 90E0      		ldi r25,lo8(0)
 2500 0cba 0997      		sbiw r24,9
 2501 0cbc 00C0      		rjmp 2f
 2502 0cbe 220F      	1:	lsl r18
 2503 0cc0 331F      		rol r19
 2504 0cc2 441F      		rol r20
 2505 0cc4 551F      		rol r21
 2506 0cc6 8A95      	2:	dec r24
 2507 0cc8 02F4      		brpl 1b
 2508 0cca F801      		movw r30,r16
 2509 0ccc 2083      		st Z,r18
 2510 0cce 3183      		std Z+1,r19
 2511 0cd0 4283      		std Z+2,r20
 2512 0cd2 5383      		std Z+3,r21
 2513 0cd4 00C0      		rjmp .L292
 2514               	.LVL150:
 2515               	.L258:
 2516               	.LM335:
 2517 0cd6 80E0      		ldi r24,lo8(512)
 2518 0cd8 92E0      		ldi r25,hi8(512)
 2519 0cda FA01      		movw r30,r20
 2520 0cdc 8083      		st Z,r24
 2521 0cde 9183      		std Z+1,r25
 2522 0ce0 00C0      		rjmp .L292
 2523               	.L300:
 2524               	.LM336:
 2525 0ce2 8091 0000 		lds r24,CardType
 2526 0ce6 F82E      		mov r15,r24
 2527 0ce8 82FF      		sbrs r24,2
 2528 0cea 00C0      		rjmp .L270
 2529               	.LM337:
 2530 0cec 8DEC      		ldi r24,lo8(-51)
 2531 0cee 40E0      		ldi r20,lo8(0)
 2532 0cf0 50E0      		ldi r21,hi8(0)
 2533 0cf2 60E0      		ldi r22,hlo8(0)
 2534 0cf4 70E0      		ldi r23,hhi8(0)
 2535 0cf6 0E94 0000 		call send_cmd
 2536               	.LVL151:
 2537 0cfa 8823      		tst r24
 2538 0cfc 01F0      		breq .+2
 2539 0cfe 00C0      		rjmp .L267
 2540               	.LBB648:
 2541               	.LBB649:
 2542               	.LM338:
 2543 0d00 8FEF      		ldi r24,lo8(-1)
 2544 0d02 E0EC      		ldi r30,lo8(2496)
 2545 0d04 F9E0      		ldi r31,hi8(2496)
 2546 0d06 8383      		std Z+3,r24
 2547               	.L271:
 2548               	.LM339:
 2549 0d08 8091 C209 		lds r24,2498
 2550 0d0c 87FF      		sbrs r24,7
 2551 0d0e 00C0      		rjmp .L271
 2552               	.LM340:
 2553 0d10 8091 C309 		lds r24,2499
 2554               	.LBE649:
 2555               	.LBE648:
 2556               	.LM341:
 2557 0d14 CE01      		movw r24,r28
 2558 0d16 0196      		adiw r24,1
 2559 0d18 60E1      		ldi r22,lo8(16)
 2560 0d1a 70E0      		ldi r23,hi8(16)
 2561 0d1c 0E94 0000 		call rcvr_datablock
 2562 0d20 8823      		tst r24
 2563 0d22 01F4      		brne .+2
 2564 0d24 00C0      		rjmp .L267
 2565 0d26 90E3      		ldi r25,lo8(48)
 2566               	.LVL152:
 2567               	.LBB650:
 2568               	.LBB651:
 2569               	.LM342:
 2570 0d28 E0EC      		ldi r30,lo8(2496)
 2571 0d2a F9E0      		ldi r31,hi8(2496)
 2572 0d2c 2FEF      		ldi r18,lo8(-1)
 2573               	.L273:
 2574 0d2e 2383      		std Z+3,r18
 2575               	.L272:
 2576               	.LM343:
 2577 0d30 8091 C209 		lds r24,2498
 2578 0d34 87FF      		sbrs r24,7
 2579 0d36 00C0      		rjmp .L272
 2580               	.LM344:
 2581 0d38 8091 C309 		lds r24,2499
 2582               	.LBE651:
 2583               	.LBE650:
 2584               	.LM345:
 2585 0d3c 9150      		subi r25,lo8(-(-1))
 2586 0d3e 01F4      		brne .L273
 2587               	.LM346:
 2588 0d40 2B85      		ldd r18,Y+11
 2589 0d42 2295      		swap r18
 2590 0d44 2F70      		andi r18,lo8(15)
 2591 0d46 80E1      		ldi r24,lo8(16)
 2592 0d48 90E0      		ldi r25,hi8(16)
 2593 0d4a A0E0      		ldi r26,hlo8(16)
 2594 0d4c B0E0      		ldi r27,hhi8(16)
 2595 0d4e 00C0      		rjmp 2f
 2596 0d50 880F      	1:	lsl r24
 2597 0d52 991F      		rol r25
 2598 0d54 AA1F      		rol r26
 2599 0d56 BB1F      		rol r27
 2600 0d58 2A95      	2:	dec r18
 2601 0d5a 02F4      		brpl 1b
 2602 0d5c 00C0      		rjmp .L294
 2603               	.LVL153:
 2604               	.L270:
 2605               	.LM347:
 2606 0d5e 89E4      		ldi r24,lo8(73)
 2607 0d60 40E0      		ldi r20,lo8(0)
 2608 0d62 50E0      		ldi r21,hi8(0)
 2609 0d64 60E0      		ldi r22,hlo8(0)
 2610 0d66 70E0      		ldi r23,hhi8(0)
 2611 0d68 0E94 0000 		call send_cmd
 2612               	.LVL154:
 2613 0d6c 8823      		tst r24
 2614 0d6e 01F0      		breq .+2
 2615 0d70 00C0      		rjmp .L267
 2616 0d72 CE01      		movw r24,r28
 2617 0d74 0196      		adiw r24,1
 2618 0d76 60E1      		ldi r22,lo8(16)
 2619 0d78 70E0      		ldi r23,hi8(16)
 2620 0d7a 0E94 0000 		call rcvr_datablock
 2621 0d7e 8823      		tst r24
 2622 0d80 01F4      		brne .+2
 2623 0d82 00C0      		rjmp .L267
 2624 0d84 4B85      		ldd r20,Y+11
 2625 0d86 8C85      		ldd r24,Y+12
 2626               	.LM348:
 2627 0d88 F1FE      		sbrs r15,1
 2628 0d8a 00C0      		rjmp .L274
 2629               	.LM349:
 2630 0d8c 881F      		rol r24
 2631 0d8e 8827      		clr r24
 2632 0d90 881F      		rol r24
 2633 0d92 90E0      		ldi r25,lo8(0)
 2634 0d94 0196      		adiw r24,1
 2635 0d96 242F      		mov r18,r20
 2636 0d98 30E0      		ldi r19,lo8(0)
 2637 0d9a 2F73      		andi r18,lo8(63)
 2638 0d9c 3070      		andi r19,hi8(63)
 2639 0d9e 220F      		lsl r18
 2640 0da0 331F      		rol r19
 2641 0da2 820F      		add r24,r18
 2642 0da4 931F      		adc r25,r19
 2643 0da6 2E85      		ldd r18,Y+14
 2644 0da8 2295      		swap r18
 2645 0daa 2695      		lsr r18
 2646 0dac 2695      		lsr r18
 2647 0dae 2370      		andi r18,lo8(3)
 2648 0db0 30E0      		ldi r19,lo8(0)
 2649 0db2 2150      		subi r18,lo8(-(-1))
 2650 0db4 3040      		sbci r19,hi8(-(-1))
 2651 0db6 00C0      		rjmp 2f
 2652 0db8 880F      	1:	lsl r24
 2653 0dba 991F      		rol r25
 2654 0dbc 2A95      	2:	dec r18
 2655 0dbe 02F4      		brpl 1b
 2656 0dc0 00C0      		rjmp .L296
 2657               	.L274:
 2658               	.LM350:
 2659 0dc2 282F      		mov r18,r24
 2660 0dc4 30E0      		ldi r19,lo8(0)
 2661 0dc6 2370      		andi r18,lo8(3)
 2662 0dc8 3070      		andi r19,hi8(3)
 2663 0dca F3E0      		ldi r31,3
 2664 0dcc 220F      	1:	lsl r18
 2665 0dce 331F      		rol r19
 2666 0dd0 FA95      		dec r31
 2667 0dd2 01F4      		brne 1b
 2668 0dd4 8295      		swap r24
 2669 0dd6 8695      		lsr r24
 2670 0dd8 8770      		andi r24,lo8(7)
 2671 0dda 280F      		add r18,r24
 2672 0ddc 311D      		adc r19,__zero_reg__
 2673 0dde 2F5F      		subi r18,lo8(-(1))
 2674 0de0 3F4F      		sbci r19,hi8(-(1))
 2675 0de2 842F      		mov r24,r20
 2676 0de4 90E0      		ldi r25,lo8(0)
 2677 0de6 8C77      		andi r24,lo8(124)
 2678 0de8 9070      		andi r25,hi8(124)
 2679 0dea 9595      		asr r25
 2680 0dec 8795      		ror r24
 2681 0dee 9595      		asr r25
 2682 0df0 8795      		ror r24
 2683 0df2 0196      		adiw r24,1
 2684 0df4 AC01      		movw r20,r24
 2685 0df6 249F      		mul r18,r20
 2686 0df8 C001      		movw r24,r0
 2687 0dfa 259F      		mul r18,r21
 2688 0dfc 900D      		add r25,r0
 2689 0dfe 349F      		mul r19,r20
 2690 0e00 900D      		add r25,r0
 2691 0e02 1124      		clr r1
 2692               	.L296:
 2693 0e04 A0E0      		ldi r26,lo8(0)
 2694 0e06 B0E0      		ldi r27,hi8(0)
 2695               	.LVL155:
 2696               	.L294:
 2697 0e08 F801      		movw r30,r16
 2698 0e0a 8083      		st Z,r24
 2699 0e0c 9183      		std Z+1,r25
 2700 0e0e A283      		std Z+2,r26
 2701 0e10 B383      		std Z+3,r27
 2702               	.LVL156:
 2703               	.L292:
 2704 0e12 90E0      		ldi r25,lo8(0)
 2705               	.LVL157:
 2706 0e14 00C0      		rjmp .L266
 2707               	.LVL158:
 2708               	.L260:
 2709               	.LM351:
 2710 0e16 8091 0000 		lds r24,CardType
 2711 0e1a FA01      		movw r30,r20
 2712 0e1c 8083      		st Z,r24
 2713 0e1e 00C0      		rjmp .L292
 2714               	.L261:
 2715               	.LM352:
 2716 0e20 89E4      		ldi r24,lo8(73)
 2717 0e22 00C0      		rjmp .L298
 2718               	.L262:
 2719               	.LM353:
 2720 0e24 8AE4      		ldi r24,lo8(74)
 2721               	.L298:
 2722 0e26 40E0      		ldi r20,lo8(0)
 2723 0e28 50E0      		ldi r21,hi8(0)
 2724 0e2a 60E0      		ldi r22,hlo8(0)
 2725 0e2c 70E0      		ldi r23,hhi8(0)
 2726 0e2e 0E94 0000 		call send_cmd
 2727               	.LVL159:
 2728 0e32 8823      		tst r24
 2729 0e34 01F4      		brne .L267
 2730 0e36 C801      		movw r24,r16
 2731 0e38 60E1      		ldi r22,lo8(16)
 2732 0e3a 70E0      		ldi r23,hi8(16)
 2733 0e3c 00C0      		rjmp .L293
 2734               	.LVL160:
 2735               	.L263:
 2736               	.LM354:
 2737 0e3e 8AE7      		ldi r24,lo8(122)
 2738 0e40 40E0      		ldi r20,lo8(0)
 2739 0e42 50E0      		ldi r21,hi8(0)
 2740 0e44 60E0      		ldi r22,hlo8(0)
 2741 0e46 70E0      		ldi r23,hhi8(0)
 2742 0e48 0E94 0000 		call send_cmd
 2743               	.LVL161:
 2744 0e4c 8823      		tst r24
 2745 0e4e 01F4      		brne .L267
 2746 0e50 F801      		movw r30,r16
 2747               	.LVL162:
 2748               	.LBB652:
 2749               	.LBB653:
 2750               	.LM355:
 2751 0e52 A0EC      		ldi r26,lo8(2496)
 2752 0e54 B9E0      		ldi r27,hi8(2496)
 2753 0e56 9FEF      		ldi r25,lo8(-1)
 2754               	.LBE653:
 2755               	.LBE652:
 2756               	.LM356:
 2757 0e58 9801      		movw r18,r16
 2758 0e5a 2D5F      		subi r18,lo8(-(3))
 2759 0e5c 3F4F      		sbci r19,hi8(-(3))
 2760               	.L279:
 2761               	.LBB655:
 2762               	.LBB654:
 2763               	.LM357:
 2764 0e5e 1396      		adiw r26,3
 2765 0e60 9C93      		st X,r25
 2766 0e62 1397      		sbiw r26,3
 2767               	.LVL163:
 2768               	.L277:
 2769               	.LM358:
 2770 0e64 8091 C209 		lds r24,2498
 2771 0e68 87FF      		sbrs r24,7
 2772 0e6a 00C0      		rjmp .L277
 2773               	.LM359:
 2774 0e6c 8091 C309 		lds r24,2499
 2775               	.LBE654:
 2776               	.LBE655:
 2777               	.LM360:
 2778 0e70 8083      		st Z,r24
 2779 0e72 E217      		cp r30,r18
 2780 0e74 F307      		cpc r31,r19
 2781 0e76 01F0      		breq .L292
 2782               	.LVL164:
 2783               	.L278:
 2784 0e78 3196      		adiw r30,1
 2785 0e7a 00C0      		rjmp .L279
 2786               	.LVL165:
 2787               	.L264:
 2788               	.LM361:
 2789 0e7c 8DEC      		ldi r24,lo8(-51)
 2790 0e7e 40E0      		ldi r20,lo8(0)
 2791 0e80 50E0      		ldi r21,hi8(0)
 2792 0e82 60E0      		ldi r22,hlo8(0)
 2793 0e84 70E0      		ldi r23,hhi8(0)
 2794 0e86 0E94 0000 		call send_cmd
 2795               	.LVL166:
 2796 0e8a 8823      		tst r24
 2797 0e8c 01F4      		brne .L267
 2798               	.LBB656:
 2799               	.LBB657:
 2800               	.LM362:
 2801 0e8e 8FEF      		ldi r24,lo8(-1)
 2802 0e90 E0EC      		ldi r30,lo8(2496)
 2803 0e92 F9E0      		ldi r31,hi8(2496)
 2804 0e94 8383      		std Z+3,r24
 2805               	.L280:
 2806               	.LM363:
 2807 0e96 8091 C209 		lds r24,2498
 2808 0e9a 87FF      		sbrs r24,7
 2809 0e9c 00C0      		rjmp .L280
 2810               	.LM364:
 2811 0e9e 8091 C309 		lds r24,2499
 2812               	.LBE657:
 2813               	.LBE656:
 2814               	.LM365:
 2815 0ea2 C801      		movw r24,r16
 2816 0ea4 60E4      		ldi r22,lo8(64)
 2817 0ea6 70E0      		ldi r23,hi8(64)
 2818               	.L293:
 2819 0ea8 0E94 0000 		call rcvr_datablock
 2820 0eac 90E0      		ldi r25,lo8(0)
 2821               	.LVL167:
 2822 0eae 8823      		tst r24
 2823 0eb0 01F4      		brne .L266
 2824               	.L267:
 2825 0eb2 91E0      		ldi r25,lo8(1)
 2826               	.LVL168:
 2827               	.L266:
 2828               	.LBB658:
 2829               	.LBB659:
 2830               	.LM366:
 2831 0eb4 80E1      		ldi r24,lo8(16)
 2832 0eb6 E0E6      		ldi r30,lo8(1632)
 2833 0eb8 F6E0      		ldi r31,hi8(1632)
 2834               	.LVL169:
 2835 0eba 8583      		std Z+5,r24
 2836               	.LBB660:
 2837               	.LBB661:
 2838               	.LM367:
 2839 0ebc 8FEF      		ldi r24,lo8(-1)
 2840 0ebe E0EC      		ldi r30,lo8(2496)
 2841 0ec0 F9E0      		ldi r31,hi8(2496)
 2842 0ec2 8383      		std Z+3,r24
 2843               	.L282:
 2844               	.LM368:
 2845 0ec4 8091 C209 		lds r24,2498
 2846 0ec8 87FF      		sbrs r24,7
 2847 0eca 00C0      		rjmp .L282
 2848               	.LM369:
 2849 0ecc 8091 C309 		lds r24,2499
 2850 0ed0 00C0      		rjmp .L253
 2851               	.LVL170:
 2852               	.L247:
 2853 0ed2 94E0      		ldi r25,lo8(4)
 2854               	.LVL171:
 2855 0ed4 00C0      		rjmp .L253
 2856               	.LVL172:
 2857               	.L249:
 2858 0ed6 90E0      		ldi r25,lo8(0)
 2859               	.LVL173:
 2860               	.L253:
 2861               	.LBE661:
 2862               	.LBE660:
 2863               	.LBE659:
 2864               	.LBE658:
 2865               	.LM370:
 2866 0ed8 892F      		mov r24,r25
 2867               	.LVL174:
 2868               	/* epilogue start */
 2869 0eda 6096      		adiw r28,16
 2870 0edc CDBF      		out __SP_L__,r28
 2871 0ede DEBF      		out __SP_H__,r29
 2872 0ee0 CF91      		pop r28
 2873 0ee2 DF91      		pop r29
 2874 0ee4 1F91      		pop r17
 2875 0ee6 0F91      		pop r16
 2876               	.LVL175:
 2877 0ee8 FF90      		pop r15
 2878 0eea 0895      		ret
 2879               	.LFE51:
 2881               	.global	disk_timerproc
 2883               	disk_timerproc:
 2884               	.LFB52:
 2885               	.LM371:
 2886               	/* prologue: function */
 2887               	/* frame size = 0 */
 2888               	.LM372:
 2889 0eec 8091 0000 		lds r24,Timer1
 2890               	.LVL176:
 2891               	.LM373:
 2892 0ef0 8823      		tst r24
 2893 0ef2 01F0      		breq .L302
 2894 0ef4 8150      		subi r24,lo8(-(-1))
 2895 0ef6 8093 0000 		sts Timer1,r24
 2896               	.L302:
 2897               	.LM374:
 2898 0efa 8091 0000 		lds r24,Timer2
 2899               	.LVL177:
 2900               	.LM375:
 2901 0efe 8823      		tst r24
 2902 0f00 01F0      		breq .L303
 2903 0f02 8150      		subi r24,lo8(-(-1))
 2904 0f04 8093 0000 		sts Timer2,r24
 2905               	.L303:
 2906               	.LM376:
 2907 0f08 8091 0000 		lds r24,Stat
 2908               	.LVL178:
 2909               	.LM377:
 2910 0f0c 897F      		andi r24,lo8(-7)
 2911               	.LM378:
 2912 0f0e 8093 0000 		sts Stat,r24
 2913               	/* epilogue start */
 2914               	.LM379:
 2915 0f12 0895      		ret
 2916               	.LFE52:
 2918               	.global	get_fattime
 2920               	get_fattime:
 2921               	.LFB53:
 2922               	.LM380:
 2923               	/* prologue: function */
 2924               	/* frame size = 0 */
 2925               	.LM381:
 2926 0f14 60E0      		ldi r22,lo8(0)
 2927 0f16 70E0      		ldi r23,hi8(0)
 2928 0f18 80E0      		ldi r24,hlo8(0)
 2929 0f1a 90E0      		ldi r25,hhi8(0)
 2930               	/* epilogue start */
 2931 0f1c 0895      		ret
 2932               	.LFE53:
 2935               	move_window:
 2936               	.LFB58:
 2937               	.LM382:
 2938               	.LVL179:
 2939 0f1e 6F92      		push r6
 2940 0f20 7F92      		push r7
 2941 0f22 8F92      		push r8
 2942 0f24 9F92      		push r9
 2943 0f26 AF92      		push r10
 2944 0f28 BF92      		push r11
 2945 0f2a CF92      		push r12
 2946 0f2c DF92      		push r13
 2947 0f2e EF92      		push r14
 2948 0f30 FF92      		push r15
 2949 0f32 0F93      		push r16
 2950 0f34 1F93      		push r17
 2951 0f36 CF93      		push r28
 2952 0f38 DF93      		push r29
 2953               	/* prologue: function */
 2954               	/* frame size = 0 */
 2955 0f3a EC01      		movw r28,r24
 2956 0f3c 4A01      		movw r8,r20
 2957 0f3e 5B01      		movw r10,r22
 2958               	.LM383:
 2959 0f40 CAA4      		ldd r12,Y+42
 2960 0f42 DBA4      		ldd r13,Y+43
 2961 0f44 ECA4      		ldd r14,Y+44
 2962 0f46 FDA4      		ldd r15,Y+45
 2963               	.LVL180:
 2964               	.LM384:
 2965 0f48 C416      		cp r12,r20
 2966 0f4a D506      		cpc r13,r21
 2967 0f4c E606      		cpc r14,r22
 2968 0f4e F706      		cpc r15,r23
 2969 0f50 01F4      		brne .+2
 2970 0f52 00C0      		rjmp .L308
 2971               	.LVL181:
 2972               	.LM385:
 2973 0f54 8C81      		ldd r24,Y+4
 2974 0f56 8823      		tst r24
 2975 0f58 01F0      		breq .L309
 2976               	.LM386:
 2977 0f5a 3EE2      		ldi r19,lo8(46)
 2978 0f5c 632E      		mov r6,r19
 2979 0f5e 712C      		mov r7,__zero_reg__
 2980 0f60 6C0E      		add r6,r28
 2981 0f62 7D1E      		adc r7,r29
 2982 0f64 8981      		ldd r24,Y+1
 2983 0f66 B301      		movw r22,r6
 2984 0f68 A701      		movw r20,r14
 2985 0f6a 9601      		movw r18,r12
 2986 0f6c 01E0      		ldi r16,lo8(1)
 2987 0f6e 0E94 0000 		call disk_write
 2988               	.LVL182:
 2989 0f72 8823      		tst r24
 2990 0f74 01F4      		brne .L310
 2991               	.LM387:
 2992 0f76 1C82      		std Y+4,__zero_reg__
 2993               	.LM388:
 2994 0f78 8E89      		ldd r24,Y+22
 2995 0f7a 9F89      		ldd r25,Y+23
 2996 0f7c A88D      		ldd r26,Y+24
 2997 0f7e B98D      		ldd r27,Y+25
 2998 0f80 2E8D      		ldd r18,Y+30
 2999 0f82 3F8D      		ldd r19,Y+31
 3000 0f84 48A1      		ldd r20,Y+32
 3001 0f86 59A1      		ldd r21,Y+33
 3002 0f88 820F      		add r24,r18
 3003 0f8a 931F      		adc r25,r19
 3004 0f8c A41F      		adc r26,r20
 3005 0f8e B51F      		adc r27,r21
 3006 0f90 C816      		cp r12,r24
 3007 0f92 D906      		cpc r13,r25
 3008 0f94 EA06      		cpc r14,r26
 3009 0f96 FB06      		cpc r15,r27
 3010 0f98 00F4      		brsh .L309
 3011               	.LBB662:
 3012               	.LM389:
 3013 0f9a 1B81      		ldd r17,Y+3
 3014               	.LVL183:
 3015 0f9c 00C0      		rjmp .L311
 3016               	.L312:
 3017               	.LM390:
 3018 0f9e 8E89      		ldd r24,Y+22
 3019 0fa0 9F89      		ldd r25,Y+23
 3020 0fa2 A88D      		ldd r26,Y+24
 3021 0fa4 B98D      		ldd r27,Y+25
 3022 0fa6 C80E      		add r12,r24
 3023 0fa8 D91E      		adc r13,r25
 3024 0faa EA1E      		adc r14,r26
 3025 0fac FB1E      		adc r15,r27
 3026               	.LM391:
 3027 0fae 8981      		ldd r24,Y+1
 3028 0fb0 B301      		movw r22,r6
 3029 0fb2 A701      		movw r20,r14
 3030 0fb4 9601      		movw r18,r12
 3031 0fb6 01E0      		ldi r16,lo8(1)
 3032 0fb8 0E94 0000 		call disk_write
 3033               	.LM392:
 3034 0fbc 1150      		subi r17,lo8(-(-1))
 3035               	.L311:
 3036 0fbe 1230      		cpi r17,lo8(2)
 3037 0fc0 00F4      		brsh .L312
 3038               	.LVL184:
 3039               	.L309:
 3040               	.LBE662:
 3041               	.LM393:
 3042 0fc2 8114      		cp r8,__zero_reg__
 3043 0fc4 9104      		cpc r9,__zero_reg__
 3044 0fc6 A104      		cpc r10,__zero_reg__
 3045 0fc8 B104      		cpc r11,__zero_reg__
 3046 0fca 01F0      		breq .L308
 3047               	.LM394:
 3048 0fcc BE01      		movw r22,r28
 3049 0fce 625D      		subi r22,lo8(-(46))
 3050 0fd0 7F4F      		sbci r23,hi8(-(46))
 3051 0fd2 8981      		ldd r24,Y+1
 3052 0fd4 A501      		movw r20,r10
 3053 0fd6 9401      		movw r18,r8
 3054 0fd8 01E0      		ldi r16,lo8(1)
 3055 0fda 0E94 0000 		call disk_read
 3056 0fde 8823      		tst r24
 3057 0fe0 01F4      		brne .L310
 3058               	.LM395:
 3059 0fe2 8AA6      		std Y+42,r8
 3060 0fe4 9BA6      		std Y+43,r9
 3061 0fe6 ACA6      		std Y+44,r10
 3062 0fe8 BDA6      		std Y+45,r11
 3063 0fea 00C0      		rjmp .L313
 3064               	.L310:
 3065 0fec 81E0      		ldi r24,lo8(1)
 3066 0fee 00C0      		rjmp .L313
 3067               	.LVL185:
 3068               	.L308:
 3069 0ff0 80E0      		ldi r24,lo8(0)
 3070               	.LVL186:
 3071               	.L313:
 3072               	/* epilogue start */
 3073               	.LM396:
 3074 0ff2 DF91      		pop r29
 3075 0ff4 CF91      		pop r28
 3076               	.LVL187:
 3077 0ff6 1F91      		pop r17
 3078               	.LVL188:
 3079 0ff8 0F91      		pop r16
 3080 0ffa FF90      		pop r15
 3081 0ffc EF90      		pop r14
 3082 0ffe DF90      		pop r13
 3083 1000 CF90      		pop r12
 3084               	.LVL189:
 3085 1002 BF90      		pop r11
 3086 1004 AF90      		pop r10
 3087 1006 9F90      		pop r9
 3088 1008 8F90      		pop r8
 3089               	.LVL190:
 3090 100a 7F90      		pop r7
 3091 100c 6F90      		pop r6
 3092 100e 0895      		ret
 3093               	.LFE58:
 3096               	sync:
 3097               	.LFB59:
 3098               	.LM397:
 3099               	.LVL191:
 3100 1010 0F93      		push r16
 3101 1012 CF93      		push r28
 3102 1014 DF93      		push r29
 3103               	/* prologue: function */
 3104               	/* frame size = 0 */
 3105 1016 EC01      		movw r28,r24
 3106               	.LM398:
 3107 1018 40E0      		ldi r20,lo8(0)
 3108 101a 50E0      		ldi r21,hi8(0)
 3109 101c 60E0      		ldi r22,hlo8(0)
 3110 101e 70E0      		ldi r23,hhi8(0)
 3111 1020 0E94 0000 		call move_window
 3112               	.LVL192:
 3113               	.LM399:
 3114 1024 8823      		tst r24
 3115               	.LVL193:
 3116 1026 01F0      		breq .+2
 3117 1028 00C0      		rjmp .L316
 3118               	.LM400:
 3119 102a 8881      		ld r24,Y
 3120               	.LVL194:
 3121 102c 8330      		cpi r24,lo8(3)
 3122 102e 01F0      		breq .+2
 3123 1030 00C0      		rjmp .L317
 3124 1032 8D81      		ldd r24,Y+5
 3125 1034 8823      		tst r24
 3126 1036 01F4      		brne .+2
 3127 1038 00C0      		rjmp .L317
 3128               	.LM401:
 3129 103a 1AA6      		std Y+42,__zero_reg__
 3130 103c 1BA6      		std Y+43,__zero_reg__
 3131 103e 1CA6      		std Y+44,__zero_reg__
 3132 1040 1DA6      		std Y+45,__zero_reg__
 3133               	.LBB663:
 3134               	.LBB664:
 3135               	.LM402:
 3136 1042 BE01      		movw r22,r28
 3137               	.LVL195:
 3138 1044 625D      		subi r22,lo8(-(46))
 3139 1046 7F4F      		sbci r23,hi8(-(46))
 3140 1048 FB01      		movw r30,r22
 3141 104a 80E0      		ldi r24,lo8(512)
 3142 104c 92E0      		ldi r25,hi8(512)
 3143               	.LVL196:
 3144 104e 00C0      		rjmp .L318
 3145               	.LVL197:
 3146               	.L319:
 3147               	.LM403:
 3148 1050 1192      		st Z+,__zero_reg__
 3149               	.L318:
 3150 1052 0197      		sbiw r24,1
 3151 1054 2FEF      		ldi r18,hi8(-1)
 3152 1056 8F3F      		cpi r24,lo8(-1)
 3153 1058 9207      		cpc r25,r18
 3154 105a 01F4      		brne .L319
 3155               	.LBE664:
 3156               	.LBE663:
 3157               	.LM404:
 3158 105c C45D      		subi r28,lo8(-(556))
 3159 105e DD4F      		sbci r29,hi8(-(556))
 3160 1060 85E5      		ldi r24,lo8(85)
 3161               	.LVL198:
 3162 1062 8993      		st Y+,r24
 3163 1064 8AEA      		ldi r24,lo8(-86)
 3164 1066 8883      		st Y,r24
 3165 1068 CD52      		subi r28,lo8(-(-557))
 3166 106a D240      		sbci r29,hi8(-(-557))
 3167               	.LM405:
 3168 106c 82E5      		ldi r24,lo8(82)
 3169 106e 8EA7      		std Y+46,r24
 3170 1070 8FA7      		std Y+47,r24
 3171 1072 21E6      		ldi r18,lo8(97)
 3172 1074 28AB      		std Y+48,r18
 3173 1076 91E4      		ldi r25,lo8(65)
 3174 1078 99AB      		std Y+49,r25
 3175               	.LM406:
 3176 107a CE5E      		subi r28,lo8(-(530))
 3177 107c DD4F      		sbci r29,hi8(-(530))
 3178 107e 82E7      		ldi r24,lo8(114)
 3179 1080 8993      		st Y+,r24
 3180 1082 8993      		st Y+,r24
 3181 1084 9993      		st Y+,r25
 3182 1086 2883      		st Y,r18
 3183 1088 C551      		subi r28,lo8(-(-533))
 3184 108a D240      		sbci r29,hi8(-(-533))
 3185               	.LM407:
 3186 108c 8E85      		ldd r24,Y+14
 3187 108e CA5E      		subi r28,lo8(-(534))
 3188 1090 DD4F      		sbci r29,hi8(-(534))
 3189 1092 8883      		st Y,r24
 3190 1094 C651      		subi r28,lo8(-(-534))
 3191 1096 D240      		sbci r29,hi8(-(-534))
 3192 1098 8F85      		ldd r24,Y+15
 3193 109a C95E      		subi r28,lo8(-(535))
 3194 109c DD4F      		sbci r29,hi8(-(535))
 3195 109e 8883      		st Y,r24
 3196 10a0 C751      		subi r28,lo8(-(-535))
 3197 10a2 D240      		sbci r29,hi8(-(-535))
 3198 10a4 8E85      		ldd r24,Y+14
 3199 10a6 9F85      		ldd r25,Y+15
 3200 10a8 A889      		ldd r26,Y+16
 3201 10aa B989      		ldd r27,Y+17
 3202 10ac 9D01      		movw r18,r26
 3203 10ae 4427      		clr r20
 3204 10b0 5527      		clr r21
 3205 10b2 C85E      		subi r28,lo8(-(536))
 3206 10b4 DD4F      		sbci r29,hi8(-(536))
 3207 10b6 2883      		st Y,r18
 3208 10b8 2196      		adiw r28,1
 3209 10ba 8B2F      		mov r24,r27
 3210 10bc 9927      		clr r25
 3211 10be AA27      		clr r26
 3212 10c0 BB27      		clr r27
 3213               	.LVL199:
 3214 10c2 8883      		st Y,r24
 3215 10c4 C951      		subi r28,lo8(-(-537))
 3216 10c6 D240      		sbci r29,hi8(-(-537))
 3217               	.LM408:
 3218 10c8 8A85      		ldd r24,Y+10
 3219 10ca C65E      		subi r28,lo8(-(538))
 3220 10cc DD4F      		sbci r29,hi8(-(538))
 3221 10ce 8883      		st Y,r24
 3222 10d0 CA51      		subi r28,lo8(-(-538))
 3223 10d2 D240      		sbci r29,hi8(-(-538))
 3224 10d4 8B85      		ldd r24,Y+11
 3225 10d6 C55E      		subi r28,lo8(-(539))
 3226 10d8 DD4F      		sbci r29,hi8(-(539))
 3227 10da 8883      		st Y,r24
 3228 10dc CB51      		subi r28,lo8(-(-539))
 3229 10de D240      		sbci r29,hi8(-(-539))
 3230 10e0 8A85      		ldd r24,Y+10
 3231 10e2 9B85      		ldd r25,Y+11
 3232 10e4 AC85      		ldd r26,Y+12
 3233 10e6 BD85      		ldd r27,Y+13
 3234 10e8 9D01      		movw r18,r26
 3235 10ea 4427      		clr r20
 3236 10ec 5527      		clr r21
 3237 10ee C45E      		subi r28,lo8(-(540))
 3238 10f0 DD4F      		sbci r29,hi8(-(540))
 3239 10f2 2883      		st Y,r18
 3240 10f4 2196      		adiw r28,1
 3241 10f6 8B2F      		mov r24,r27
 3242 10f8 9927      		clr r25
 3243 10fa AA27      		clr r26
 3244 10fc BB27      		clr r27
 3245 10fe 8883      		st Y,r24
 3246 1100 CD51      		subi r28,lo8(-(-541))
 3247 1102 D240      		sbci r29,hi8(-(-541))
 3248               	.LM409:
 3249 1104 2A89      		ldd r18,Y+18
 3250 1106 3B89      		ldd r19,Y+19
 3251 1108 4C89      		ldd r20,Y+20
 3252 110a 5D89      		ldd r21,Y+21
 3253 110c 8981      		ldd r24,Y+1
 3254 110e 01E0      		ldi r16,lo8(1)
 3255 1110 0E94 0000 		call disk_write
 3256               	.LVL200:
 3257               	.LM410:
 3258 1114 1D82      		std Y+5,__zero_reg__
 3259               	.L317:
 3260               	.LM411:
 3261 1116 8981      		ldd r24,Y+1
 3262 1118 60E0      		ldi r22,lo8(0)
 3263 111a 40E0      		ldi r20,lo8(0)
 3264 111c 50E0      		ldi r21,hi8(0)
 3265 111e 0E94 0000 		call disk_ioctl
 3266 1122 8111      		cpse r24,__zero_reg__
 3267 1124 81E0      		ldi r24,lo8(1)
 3268               	.LVL201:
 3269               	.L316:
 3270               	.LVL202:
 3271               	/* epilogue start */
 3272               	.LM412:
 3273 1126 DF91      		pop r29
 3274 1128 CF91      		pop r28
 3275               	.LVL203:
 3276 112a 0F91      		pop r16
 3277 112c 0895      		ret
 3278               	.LFE59:
 3280               	.global	get_fat
 3282               	get_fat:
 3283               	.LFB60:
 3284               	.LM413:
 3285               	.LVL204:
 3286 112e 7F92      		push r7
 3287 1130 8F92      		push r8
 3288 1132 9F92      		push r9
 3289 1134 AF92      		push r10
 3290 1136 BF92      		push r11
 3291 1138 CF92      		push r12
 3292 113a DF92      		push r13
 3293 113c EF92      		push r14
 3294 113e FF92      		push r15
 3295 1140 0F93      		push r16
 3296 1142 1F93      		push r17
 3297 1144 CF93      		push r28
 3298 1146 DF93      		push r29
 3299               	/* prologue: function */
 3300               	/* frame size = 0 */
 3301 1148 4C01      		movw r8,r24
 3302 114a 7A01      		movw r14,r20
 3303 114c 8B01      		movw r16,r22
 3304               	.LM414:
 3305 114e 4230      		cpi r20,lo8(2)
 3306 1150 5105      		cpc r21,__zero_reg__
 3307 1152 6105      		cpc r22,__zero_reg__
 3308 1154 7105      		cpc r23,__zero_reg__
 3309               	.LVL205:
 3310 1156 00F4      		brsh .+2
 3311 1158 00C0      		rjmp .L323
 3312 115a F401      		movw r30,r8
 3313 115c 828D      		ldd r24,Z+26
 3314 115e 938D      		ldd r25,Z+27
 3315 1160 A48D      		ldd r26,Z+28
 3316 1162 B58D      		ldd r27,Z+29
 3317 1164 4817      		cp r20,r24
 3318 1166 5907      		cpc r21,r25
 3319 1168 6A07      		cpc r22,r26
 3320 116a 7B07      		cpc r23,r27
 3321 116c 00F0      		brlo .+2
 3322 116e 00C0      		rjmp .L323
 3323               	.LM415:
 3324 1170 A68C      		ldd r10,Z+30
 3325 1172 B78C      		ldd r11,Z+31
 3326 1174 C0A0      		ldd r12,Z+32
 3327 1176 D1A0      		ldd r13,Z+33
 3328               	.LVL206:
 3329               	.LM416:
 3330 1178 8081      		ld r24,Z
 3331 117a 8230      		cpi r24,lo8(2)
 3332 117c 01F4      		brne .+2
 3333 117e 00C0      		rjmp .L326
 3334 1180 8330      		cpi r24,lo8(3)
 3335 1182 01F4      		brne .+2
 3336 1184 00C0      		rjmp .L327
 3337 1186 8130      		cpi r24,lo8(1)
 3338 1188 01F0      		breq .+2
 3339 118a 00C0      		rjmp .L324
 3340               	.LM417:
 3341 118c EA01      		movw r28,r20
 3342               	.LVL207:
 3343 118e D695      		lsr r29
 3344 1190 C795      		ror r28
 3345               	.LVL208:
 3346 1192 C40F      		add r28,r20
 3347 1194 D51F      		adc r29,r21
 3348               	.LM418:
 3349 1196 AE01      		movw r20,r28
 3350               	.LVL209:
 3351 1198 452F      		mov r20,r21
 3352 119a 5527      		clr r21
 3353 119c 4695      		lsr r20
 3354 119e 60E0      		ldi r22,lo8(0)
 3355 11a0 70E0      		ldi r23,hi8(0)
 3356 11a2 4A0D      		add r20,r10
 3357 11a4 5B1D      		adc r21,r11
 3358 11a6 6C1D      		adc r22,r12
 3359 11a8 7D1D      		adc r23,r13
 3360 11aa C401      		movw r24,r8
 3361 11ac 0E94 0000 		call move_window
 3362 11b0 8823      		tst r24
 3363 11b2 01F0      		breq .+2
 3364 11b4 00C0      		rjmp .L324
 3365               	.LM419:
 3366 11b6 FE01      		movw r30,r28
 3367 11b8 F170      		andi r31,hi8(511)
 3368 11ba E80D      		add r30,r8
 3369 11bc F91D      		adc r31,r9
 3370 11be 76A4      		ldd r7,Z+46
 3371 11c0 2196      		adiw r28,1
 3372               	.LVL210:
 3373               	.LM420:
 3374 11c2 AE01      		movw r20,r28
 3375 11c4 452F      		mov r20,r21
 3376 11c6 5527      		clr r21
 3377 11c8 4695      		lsr r20
 3378 11ca 60E0      		ldi r22,lo8(0)
 3379 11cc 70E0      		ldi r23,hi8(0)
 3380 11ce 4A0D      		add r20,r10
 3381 11d0 5B1D      		adc r21,r11
 3382 11d2 6C1D      		adc r22,r12
 3383 11d4 7D1D      		adc r23,r13
 3384 11d6 C401      		movw r24,r8
 3385 11d8 0E94 0000 		call move_window
 3386 11dc 8823      		tst r24
 3387 11de 01F0      		breq .+2
 3388 11e0 00C0      		rjmp .L324
 3389               	.LM421:
 3390 11e2 672D      		mov r22,r7
 3391               	.LVL211:
 3392 11e4 70E0      		ldi r23,lo8(0)
 3393               	.LVL212:
 3394               	.LM422:
 3395 11e6 D170      		andi r29,hi8(511)
 3396 11e8 C80D      		add r28,r8
 3397 11ea D91D      		adc r29,r9
 3398 11ec 9EA5      		ldd r25,Y+46
 3399 11ee 80E0      		ldi r24,lo8(0)
 3400 11f0 682B      		or r22,r24
 3401 11f2 792B      		or r23,r25
 3402               	.LVL213:
 3403               	.LM423:
 3404 11f4 C701      		movw r24,r14
 3405               	.LVL214:
 3406 11f6 8170      		andi r24,lo8(1)
 3407 11f8 9070      		andi r25,hi8(1)
 3408 11fa 892B      		or r24,r25
 3409 11fc 01F0      		breq .L328
 3410 11fe 44E0      		ldi r20,4
 3411 1200 7695      	1:	lsr r23
 3412 1202 6795      		ror r22
 3413 1204 4A95      		dec r20
 3414 1206 01F4      		brne 1b
 3415 1208 9B01      		movw r18,r22
 3416 120a 00C0      		rjmp .L331
 3417               	.L328:
 3418 120c 9B01      		movw r18,r22
 3419 120e 40E0      		ldi r20,lo8(0)
 3420 1210 50E0      		ldi r21,hi8(0)
 3421 1212 3F70      		andi r19,hi8(4095)
 3422 1214 4070      		andi r20,hlo8(4095)
 3423 1216 5070      		andi r21,hhi8(4095)
 3424 1218 00C0      		rjmp .L329
 3425               	.LVL215:
 3426               	.L326:
 3427               	.LM424:
 3428 121a 452F      		mov r20,r21
 3429 121c 562F      		mov r21,r22
 3430 121e 672F      		mov r22,r23
 3431 1220 7727      		clr r23
 3432               	.LVL216:
 3433 1222 4A0D      		add r20,r10
 3434 1224 5B1D      		adc r21,r11
 3435 1226 6C1D      		adc r22,r12
 3436 1228 7D1D      		adc r23,r13
 3437 122a C401      		movw r24,r8
 3438 122c 0E94 0000 		call move_window
 3439 1230 8823      		tst r24
 3440 1232 01F0      		breq .+2
 3441 1234 00C0      		rjmp .L324
 3442               	.LM425:
 3443 1236 F701      		movw r30,r14
 3444               	.LVL217:
 3445 1238 EE0F      		lsl r30
 3446 123a FF1F      		rol r31
 3447 123c F170      		andi r31,hi8(511)
 3448 123e E80D      		add r30,r8
 3449 1240 F91D      		adc r31,r9
 3450 1242 97A5      		ldd r25,Z+47
 3451 1244 80E0      		ldi r24,lo8(0)
 3452 1246 26A5      		ldd r18,Z+46
 3453 1248 30E0      		ldi r19,lo8(0)
 3454 124a 822B      		or r24,r18
 3455 124c 932B      		or r25,r19
 3456 124e 9C01      		movw r18,r24
 3457               	.LVL218:
 3458               	.L331:
 3459 1250 40E0      		ldi r20,lo8(0)
 3460 1252 50E0      		ldi r21,hi8(0)
 3461 1254 00C0      		rjmp .L329
 3462               	.LVL219:
 3463               	.L327:
 3464               	.LM426:
 3465 1256 97E0      		ldi r25,7
 3466 1258 7695      	1:	lsr r23
 3467 125a 6795      		ror r22
 3468 125c 5795      		ror r21
 3469 125e 4795      		ror r20
 3470 1260 9A95      		dec r25
 3471 1262 01F4      		brne 1b
 3472               	.LVL220:
 3473 1264 4A0D      		add r20,r10
 3474 1266 5B1D      		adc r21,r11
 3475 1268 6C1D      		adc r22,r12
 3476 126a 7D1D      		adc r23,r13
 3477 126c C401      		movw r24,r8
 3478 126e 0E94 0000 		call move_window
 3479 1272 8823      		tst r24
 3480 1274 01F4      		brne .L324
 3481               	.LM427:
 3482 1276 F701      		movw r30,r14
 3483               	.LVL221:
 3484 1278 EE0F      		lsl r30
 3485 127a FF1F      		rol r31
 3486 127c EE0F      		lsl r30
 3487 127e FF1F      		rol r31
 3488 1280 F170      		andi r31,hi8(511)
 3489 1282 E80D      		add r30,r8
 3490 1284 F91D      		adc r31,r9
 3491 1286 81A9      		ldd r24,Z+49
 3492 1288 90E0      		ldi r25,lo8(0)
 3493 128a A0E0      		ldi r26,lo8(0)
 3494 128c B0E0      		ldi r27,hi8(0)
 3495 128e 582F      		mov r21,r24
 3496 1290 4427      		clr r20
 3497 1292 3327      		clr r19
 3498 1294 2227      		clr r18
 3499 1296 80A9      		ldd r24,Z+48
 3500 1298 90E0      		ldi r25,lo8(0)
 3501 129a A0E0      		ldi r26,lo8(0)
 3502 129c B0E0      		ldi r27,hi8(0)
 3503 129e DC01      		movw r26,r24
 3504 12a0 9927      		clr r25
 3505 12a2 8827      		clr r24
 3506 12a4 282B      		or r18,r24
 3507 12a6 392B      		or r19,r25
 3508 12a8 4A2B      		or r20,r26
 3509 12aa 5B2B      		or r21,r27
 3510 12ac 86A5      		ldd r24,Z+46
 3511 12ae 90E0      		ldi r25,lo8(0)
 3512 12b0 A0E0      		ldi r26,lo8(0)
 3513 12b2 B0E0      		ldi r27,hi8(0)
 3514 12b4 282B      		or r18,r24
 3515 12b6 392B      		or r19,r25
 3516 12b8 4A2B      		or r20,r26
 3517 12ba 5B2B      		or r21,r27
 3518 12bc 97A5      		ldd r25,Z+47
 3519 12be 80E0      		ldi r24,lo8(0)
 3520 12c0 A0E0      		ldi r26,lo8(0)
 3521 12c2 B0E0      		ldi r27,hi8(0)
 3522 12c4 282B      		or r18,r24
 3523 12c6 392B      		or r19,r25
 3524 12c8 4A2B      		or r20,r26
 3525 12ca 5B2B      		or r21,r27
 3526 12cc 5F70      		andi r21,hhi8(268435455)
 3527 12ce 00C0      		rjmp .L329
 3528               	.LVL222:
 3529               	.L323:
 3530 12d0 21E0      		ldi r18,lo8(1)
 3531 12d2 30E0      		ldi r19,hi8(1)
 3532 12d4 40E0      		ldi r20,hlo8(1)
 3533 12d6 50E0      		ldi r21,hhi8(1)
 3534 12d8 00C0      		rjmp .L329
 3535               	.LVL223:
 3536               	.L324:
 3537 12da 2FEF      		ldi r18,lo8(-1)
 3538 12dc 3FEF      		ldi r19,hi8(-1)
 3539 12de 4FEF      		ldi r20,hlo8(-1)
 3540 12e0 5FEF      		ldi r21,hhi8(-1)
 3541               	.LVL224:
 3542               	.L329:
 3543               	.LM428:
 3544 12e2 B901      		movw r22,r18
 3545               	.LVL225:
 3546 12e4 CA01      		movw r24,r20
 3547               	/* epilogue start */
 3548 12e6 DF91      		pop r29
 3549 12e8 CF91      		pop r28
 3550               	.LVL226:
 3551 12ea 1F91      		pop r17
 3552 12ec 0F91      		pop r16
 3553 12ee FF90      		pop r15
 3554 12f0 EF90      		pop r14
 3555               	.LVL227:
 3556 12f2 DF90      		pop r13
 3557 12f4 CF90      		pop r12
 3558 12f6 BF90      		pop r11
 3559 12f8 AF90      		pop r10
 3560               	.LVL228:
 3561 12fa 9F90      		pop r9
 3562 12fc 8F90      		pop r8
 3563               	.LVL229:
 3564 12fe 7F90      		pop r7
 3565 1300 0895      		ret
 3566               	.LFE60:
 3568               	.global	put_fat
 3570               	put_fat:
 3571               	.LFB61:
 3572               	.LM429:
 3573               	.LVL230:
 3574 1302 2F92      		push r2
 3575 1304 3F92      		push r3
 3576 1306 4F92      		push r4
 3577 1308 5F92      		push r5
 3578 130a 6F92      		push r6
 3579 130c 7F92      		push r7
 3580 130e 8F92      		push r8
 3581 1310 9F92      		push r9
 3582 1312 AF92      		push r10
 3583 1314 BF92      		push r11
 3584 1316 CF92      		push r12
 3585 1318 DF92      		push r13
 3586 131a EF92      		push r14
 3587 131c FF92      		push r15
 3588 131e 0F93      		push r16
 3589               	.LVL231:
 3590 1320 1F93      		push r17
 3591 1322 CF93      		push r28
 3592 1324 DF93      		push r29
 3593               	/* prologue: function */
 3594               	/* frame size = 0 */
 3595 1326 3C01      		movw r6,r24
 3596 1328 6A01      		movw r12,r20
 3597 132a 7B01      		movw r14,r22
 3598 132c 4801      		movw r8,r16
 3599 132e 5901      		movw r10,r18
 3600               	.LVL232:
 3601               	.LM430:
 3602 1330 4230      		cpi r20,lo8(2)
 3603 1332 5105      		cpc r21,__zero_reg__
 3604 1334 6105      		cpc r22,__zero_reg__
 3605 1336 7105      		cpc r23,__zero_reg__
 3606               	.LVL233:
 3607 1338 00F4      		brsh .+2
 3608 133a 00C0      		rjmp .L333
 3609               	.LVL234:
 3610 133c F301      		movw r30,r6
 3611 133e 828D      		ldd r24,Z+26
 3612 1340 938D      		ldd r25,Z+27
 3613 1342 A48D      		ldd r26,Z+28
 3614 1344 B58D      		ldd r27,Z+29
 3615 1346 4817      		cp r20,r24
 3616 1348 5907      		cpc r21,r25
 3617 134a 6A07      		cpc r22,r26
 3618 134c 7B07      		cpc r23,r27
 3619 134e 00F0      		brlo .+2
 3620 1350 00C0      		rjmp .L333
 3621               	.LM431:
 3622 1352 268C      		ldd r2,Z+30
 3623 1354 378C      		ldd r3,Z+31
 3624 1356 40A0      		ldd r4,Z+32
 3625 1358 51A0      		ldd r5,Z+33
 3626               	.LVL235:
 3627               	.LM432:
 3628 135a 8081      		ld r24,Z
 3629 135c 8230      		cpi r24,lo8(2)
 3630 135e 01F4      		brne .+2
 3631 1360 00C0      		rjmp .L336
 3632 1362 8330      		cpi r24,lo8(3)
 3633 1364 01F4      		brne .+2
 3634 1366 00C0      		rjmp .L337
 3635 1368 8130      		cpi r24,lo8(1)
 3636 136a 01F0      		breq .L335
 3637 136c 22E0      		ldi r18,lo8(2)
 3638               	.LVL236:
 3639 136e 00C0      		rjmp .L338
 3640               	.LVL237:
 3641               	.L335:
 3642               	.LM433:
 3643 1370 EA01      		movw r28,r20
 3644               	.LVL238:
 3645 1372 D695      		lsr r29
 3646 1374 C795      		ror r28
 3647               	.LVL239:
 3648 1376 C40F      		add r28,r20
 3649 1378 D51F      		adc r29,r21
 3650               	.LM434:
 3651 137a AE01      		movw r20,r28
 3652               	.LVL240:
 3653 137c 452F      		mov r20,r21
 3654 137e 5527      		clr r21
 3655 1380 4695      		lsr r20
 3656 1382 60E0      		ldi r22,lo8(0)
 3657 1384 70E0      		ldi r23,hi8(0)
 3658 1386 420D      		add r20,r2
 3659 1388 531D      		adc r21,r3
 3660 138a 641D      		adc r22,r4
 3661 138c 751D      		adc r23,r5
 3662 138e C301      		movw r24,r6
 3663 1390 0E94 0000 		call move_window
 3664 1394 282F      		mov r18,r24
 3665               	.LVL241:
 3666               	.LM435:
 3667 1396 8823      		tst r24
 3668 1398 01F0      		breq .+2
 3669 139a 00C0      		rjmp .L338
 3670               	.LVL242:
 3671               	.LM436:
 3672 139c DE01      		movw r26,r28
 3673 139e B170      		andi r27,hi8(511)
 3674               	.LM437:
 3675 13a0 8601      		movw r16,r12
 3676               	.LVL243:
 3677 13a2 0170      		andi r16,lo8(1)
 3678 13a4 1070      		andi r17,hi8(1)
 3679 13a6 0115      		cp r16,__zero_reg__
 3680 13a8 1105      		cpc r17,__zero_reg__
 3681 13aa 01F0      		breq .L339
 3682 13ac F301      		movw r30,r6
 3683 13ae EA0F      		add r30,r26
 3684 13b0 FB1F      		adc r31,r27
 3685 13b2 86A5      		ldd r24,Z+46
 3686               	.LVL244:
 3687 13b4 8F70      		andi r24,lo8(15)
 3688 13b6 982D      		mov r25,r8
 3689               	.LVL245:
 3690 13b8 9295      		swap r25
 3691 13ba 907F      		andi r25,lo8(-16)
 3692 13bc 982B      		or r25,r24
 3693 13be 00C0      		rjmp .L340
 3694               	.LVL246:
 3695               	.L339:
 3696 13c0 982D      		mov r25,r8
 3697               	.LVL247:
 3698               	.L340:
 3699 13c2 A60D      		add r26,r6
 3700 13c4 B71D      		adc r27,r7
 3701 13c6 9E96      		adiw r26,46
 3702 13c8 9C93      		st X,r25
 3703               	.LM438:
 3704 13ca 2196      		adiw r28,1
 3705               	.LVL248:
 3706               	.LM439:
 3707 13cc 81E0      		ldi r24,lo8(1)
 3708 13ce F301      		movw r30,r6
 3709 13d0 8483      		std Z+4,r24
 3710               	.LM440:
 3711 13d2 AE01      		movw r20,r28
 3712 13d4 452F      		mov r20,r21
 3713 13d6 5527      		clr r21
 3714 13d8 4695      		lsr r20
 3715 13da 60E0      		ldi r22,lo8(0)
 3716 13dc 70E0      		ldi r23,hi8(0)
 3717 13de 420D      		add r20,r2
 3718 13e0 531D      		adc r21,r3
 3719 13e2 641D      		adc r22,r4
 3720 13e4 751D      		adc r23,r5
 3721 13e6 C301      		movw r24,r6
 3722 13e8 0E94 0000 		call move_window
 3723               	.LVL249:
 3724 13ec 282F      		mov r18,r24
 3725               	.LVL250:
 3726               	.LM441:
 3727 13ee 8823      		tst r24
 3728 13f0 01F0      		breq .+2
 3729 13f2 00C0      		rjmp .L338
 3730               	.LVL251:
 3731               	.LM442:
 3732 13f4 D170      		andi r29,hi8(511)
 3733               	.LVL252:
 3734               	.LM443:
 3735 13f6 012B      		or r16,r17
 3736 13f8 01F0      		breq .L341
 3737 13fa 64E0      		ldi r22,4
 3738 13fc B694      	1:	lsr r11
 3739 13fe A794      		ror r10
 3740 1400 9794      		ror r9
 3741 1402 8794      		ror r8
 3742 1404 6A95      		dec r22
 3743 1406 01F4      		brne 1b
 3744 1408 482D      		mov r20,r8
 3745 140a 00C0      		rjmp .L342
 3746               	.L341:
 3747 140c F301      		movw r30,r6
 3748 140e EC0F      		add r30,r28
 3749 1410 FD1F      		adc r31,r29
 3750 1412 46A5      		ldd r20,Z+46
 3751 1414 407F      		andi r20,lo8(-16)
 3752 1416 BB27      		clr r27
 3753 1418 AB2D      		mov r26,r11
 3754 141a 9A2D      		mov r25,r10
 3755 141c 892D      		mov r24,r9
 3756               	.LVL253:
 3757 141e 8F70      		andi r24,lo8(15)
 3758 1420 482B      		or r20,r24
 3759               	.LVL254:
 3760               	.L342:
 3761 1422 C60D      		add r28,r6
 3762 1424 D71D      		adc r29,r7
 3763 1426 4EA7      		std Y+46,r20
 3764 1428 00C0      		rjmp .L338
 3765               	.LVL255:
 3766               	.L336:
 3767               	.LM444:
 3768 142a 7727      		clr r23
 3769 142c 6F2D      		mov r22,r15
 3770 142e 5E2D      		mov r21,r14
 3771 1430 4D2D      		mov r20,r13
 3772               	.LVL256:
 3773 1432 420D      		add r20,r2
 3774 1434 531D      		adc r21,r3
 3775 1436 641D      		adc r22,r4
 3776 1438 751D      		adc r23,r5
 3777 143a C301      		movw r24,r6
 3778 143c 0E94 0000 		call move_window
 3779 1440 282F      		mov r18,r24
 3780               	.LVL257:
 3781               	.LM445:
 3782 1442 8823      		tst r24
 3783 1444 01F4      		brne .L338
 3784               	.LVL258:
 3785               	.LM446:
 3786 1446 F601      		movw r30,r12
 3787               	.LVL259:
 3788 1448 EE0F      		lsl r30
 3789 144a FF1F      		rol r31
 3790 144c F170      		andi r31,hi8(511)
 3791 144e E60D      		add r30,r6
 3792 1450 F71D      		adc r31,r7
 3793 1452 86A6      		std Z+46,r8
 3794 1454 892D      		mov r24,r9
 3795 1456 9927      		clr r25
 3796               	.LVL260:
 3797 1458 87A7      		std Z+47,r24
 3798 145a 00C0      		rjmp .L338
 3799               	.LVL261:
 3800               	.L337:
 3801               	.LM447:
 3802 145c 87E0      		ldi r24,7
 3803 145e 7695      	1:	lsr r23
 3804 1460 6795      		ror r22
 3805 1462 5795      		ror r21
 3806 1464 4795      		ror r20
 3807 1466 8A95      		dec r24
 3808 1468 01F4      		brne 1b
 3809               	.LVL262:
 3810 146a 420D      		add r20,r2
 3811 146c 531D      		adc r21,r3
 3812 146e 641D      		adc r22,r4
 3813 1470 751D      		adc r23,r5
 3814 1472 C301      		movw r24,r6
 3815 1474 0E94 0000 		call move_window
 3816 1478 282F      		mov r18,r24
 3817               	.LVL263:
 3818               	.LM448:
 3819 147a 8823      		tst r24
 3820 147c 01F4      		brne .L338
 3821               	.LVL264:
 3822               	.LM449:
 3823 147e F601      		movw r30,r12
 3824               	.LVL265:
 3825 1480 EE0F      		lsl r30
 3826 1482 FF1F      		rol r31
 3827 1484 EE0F      		lsl r30
 3828 1486 FF1F      		rol r31
 3829 1488 F170      		andi r31,hi8(511)
 3830 148a E60D      		add r30,r6
 3831 148c F71D      		adc r31,r7
 3832 148e 86A6      		std Z+46,r8
 3833 1490 892D      		mov r24,r9
 3834 1492 9927      		clr r25
 3835               	.LVL266:
 3836 1494 87A7      		std Z+47,r24
 3837 1496 C501      		movw r24,r10
 3838 1498 AA27      		clr r26
 3839 149a BB27      		clr r27
 3840 149c 80AB      		std Z+48,r24
 3841 149e 8B2D      		mov r24,r11
 3842 14a0 9927      		clr r25
 3843 14a2 AA27      		clr r26
 3844 14a4 BB27      		clr r27
 3845 14a6 81AB      		std Z+49,r24
 3846               	.LVL267:
 3847               	.L338:
 3848               	.LM450:
 3849 14a8 81E0      		ldi r24,lo8(1)
 3850 14aa F301      		movw r30,r6
 3851 14ac 8483      		std Z+4,r24
 3852 14ae 00C0      		rjmp .L343
 3853               	.LVL268:
 3854               	.L333:
 3855 14b0 22E0      		ldi r18,lo8(2)
 3856               	.LVL269:
 3857               	.L343:
 3858               	.LM451:
 3859 14b2 822F      		mov r24,r18
 3860               	/* epilogue start */
 3861 14b4 DF91      		pop r29
 3862 14b6 CF91      		pop r28
 3863               	.LVL270:
 3864 14b8 1F91      		pop r17
 3865 14ba 0F91      		pop r16
 3866 14bc FF90      		pop r15
 3867 14be EF90      		pop r14
 3868 14c0 DF90      		pop r13
 3869 14c2 CF90      		pop r12
 3870 14c4 BF90      		pop r11
 3871 14c6 AF90      		pop r10
 3872 14c8 9F90      		pop r9
 3873 14ca 8F90      		pop r8
 3874               	.LVL271:
 3875 14cc 7F90      		pop r7
 3876 14ce 6F90      		pop r6
 3877               	.LVL272:
 3878 14d0 5F90      		pop r5
 3879 14d2 4F90      		pop r4
 3880 14d4 3F90      		pop r3
 3881 14d6 2F90      		pop r2
 3882               	.LVL273:
 3883 14d8 0895      		ret
 3884               	.LFE61:
 3887               	remove_chain:
 3888               	.LFB62:
 3889               	.LM452:
 3890               	.LVL274:
 3891 14da 9F92      		push r9
 3892 14dc AF92      		push r10
 3893 14de BF92      		push r11
 3894 14e0 CF92      		push r12
 3895 14e2 DF92      		push r13
 3896 14e4 EF92      		push r14
 3897 14e6 FF92      		push r15
 3898 14e8 0F93      		push r16
 3899 14ea 1F93      		push r17
 3900 14ec CF93      		push r28
 3901 14ee DF93      		push r29
 3902               	/* prologue: function */
 3903               	/* frame size = 0 */
 3904 14f0 EC01      		movw r28,r24
 3905 14f2 7A01      		movw r14,r20
 3906 14f4 8B01      		movw r16,r22
 3907               	.LM453:
 3908 14f6 4230      		cpi r20,lo8(2)
 3909 14f8 5105      		cpc r21,__zero_reg__
 3910 14fa 6105      		cpc r22,__zero_reg__
 3911 14fc 7105      		cpc r23,__zero_reg__
 3912 14fe 00F4      		brsh .+2
 3913 1500 00C0      		rjmp .L346
 3914               	.LVL275:
 3915 1502 8A8D      		ldd r24,Y+26
 3916 1504 9B8D      		ldd r25,Y+27
 3917 1506 AC8D      		ldd r26,Y+28
 3918 1508 BD8D      		ldd r27,Y+29
 3919 150a 4817      		cp r20,r24
 3920 150c 5907      		cpc r21,r25
 3921 150e 6A07      		cpc r22,r26
 3922 1510 7B07      		cpc r23,r27
 3923 1512 00F4      		brsh .+2
 3924 1514 00C0      		rjmp .L354
 3925 1516 00C0      		rjmp .L346
 3926               	.LVL276:
 3927               	.L352:
 3928               	.LM454:
 3929 1518 CE01      		movw r24,r28
 3930 151a B801      		movw r22,r16
 3931 151c A701      		movw r20,r14
 3932 151e 0E94 0000 		call get_fat
 3933 1522 5B01      		movw r10,r22
 3934 1524 6C01      		movw r12,r24
 3935               	.LM455:
 3936 1526 6115      		cp r22,__zero_reg__
 3937 1528 7105      		cpc r23,__zero_reg__
 3938 152a 8105      		cpc r24,__zero_reg__
 3939 152c 9105      		cpc r25,__zero_reg__
 3940 152e 01F4      		brne .+2
 3941 1530 00C0      		rjmp .L348
 3942               	.LVL277:
 3943               	.LM456:
 3944 1532 81E0      		ldi r24,lo8(1)
 3945 1534 A816      		cp r10,r24
 3946 1536 B104      		cpc r11,__zero_reg__
 3947 1538 C104      		cpc r12,__zero_reg__
 3948 153a D104      		cpc r13,__zero_reg__
 3949 153c 01F0      		breq .L346
 3950               	.LVL278:
 3951               	.LM457:
 3952 153e 2FEF      		ldi r18,lo8(-1)
 3953 1540 A216      		cp r10,r18
 3954 1542 2FEF      		ldi r18,hi8(-1)
 3955 1544 B206      		cpc r11,r18
 3956 1546 2FEF      		ldi r18,hlo8(-1)
 3957 1548 C206      		cpc r12,r18
 3958 154a 2FEF      		ldi r18,hhi8(-1)
 3959 154c D206      		cpc r13,r18
 3960 154e 01F4      		brne .L349
 3961 1550 81E0      		ldi r24,lo8(1)
 3962               	.LVL279:
 3963 1552 00C0      		rjmp .L350
 3964               	.LVL280:
 3965               	.L349:
 3966               	.LM458:
 3967 1554 CE01      		movw r24,r28
 3968 1556 B801      		movw r22,r16
 3969 1558 A701      		movw r20,r14
 3970 155a 00E0      		ldi r16,lo8(0)
 3971 155c 10E0      		ldi r17,hi8(0)
 3972 155e 20E0      		ldi r18,hlo8(0)
 3973 1560 30E0      		ldi r19,hhi8(0)
 3974 1562 0E94 0000 		call put_fat
 3975               	.LM459:
 3976 1566 8823      		tst r24
 3977               	.LVL281:
 3978 1568 01F4      		brne .L350
 3979               	.LM460:
 3980 156a 8E85      		ldd r24,Y+14
 3981 156c 9F85      		ldd r25,Y+15
 3982 156e A889      		ldd r26,Y+16
 3983 1570 B989      		ldd r27,Y+17
 3984               	.LVL282:
 3985 1572 8F3F      		cpi r24,lo8(-1)
 3986 1574 2FEF      		ldi r18,hi8(-1)
 3987 1576 9207      		cpc r25,r18
 3988 1578 2FEF      		ldi r18,hlo8(-1)
 3989 157a A207      		cpc r26,r18
 3990 157c 2FEF      		ldi r18,hhi8(-1)
 3991 157e B207      		cpc r27,r18
 3992 1580 01F0      		breq .L351
 3993               	.LM461:
 3994 1582 0196      		adiw r24,1
 3995 1584 A11D      		adc r26,__zero_reg__
 3996 1586 B11D      		adc r27,__zero_reg__
 3997 1588 8E87      		std Y+14,r24
 3998 158a 9F87      		std Y+15,r25
 3999 158c A88B      		std Y+16,r26
 4000 158e B98B      		std Y+17,r27
 4001               	.LM462:
 4002 1590 9D82      		std Y+5,r9
 4003               	.L351:
 4004 1592 8601      		movw r16,r12
 4005 1594 7501      		movw r14,r10
 4006 1596 00C0      		rjmp .L355
 4007               	.LVL283:
 4008               	.L354:
 4009 1598 9924      		clr r9
 4010 159a 9394      		inc r9
 4011               	.LVL284:
 4012               	.L355:
 4013               	.LM463:
 4014 159c 8A8D      		ldd r24,Y+26
 4015 159e 9B8D      		ldd r25,Y+27
 4016 15a0 AC8D      		ldd r26,Y+28
 4017 15a2 BD8D      		ldd r27,Y+29
 4018 15a4 E816      		cp r14,r24
 4019 15a6 F906      		cpc r15,r25
 4020 15a8 0A07      		cpc r16,r26
 4021 15aa 1B07      		cpc r17,r27
 4022 15ac 00F4      		brsh .+2
 4023 15ae 00C0      		rjmp .L352
 4024 15b0 00C0      		rjmp .L348
 4025               	.LVL285:
 4026               	.L346:
 4027 15b2 82E0      		ldi r24,lo8(2)
 4028               	.LVL286:
 4029 15b4 00C0      		rjmp .L350
 4030               	.LVL287:
 4031               	.L348:
 4032 15b6 80E0      		ldi r24,lo8(0)
 4033               	.LVL288:
 4034               	.L350:
 4035               	.LVL289:
 4036               	/* epilogue start */
 4037               	.LM464:
 4038 15b8 DF91      		pop r29
 4039 15ba CF91      		pop r28
 4040               	.LVL290:
 4041 15bc 1F91      		pop r17
 4042 15be 0F91      		pop r16
 4043 15c0 FF90      		pop r15
 4044 15c2 EF90      		pop r14
 4045               	.LVL291:
 4046 15c4 DF90      		pop r13
 4047 15c6 CF90      		pop r12
 4048 15c8 BF90      		pop r11
 4049 15ca AF90      		pop r10
 4050               	.LVL292:
 4051 15cc 9F90      		pop r9
 4052 15ce 0895      		ret
 4053               	.LFE62:
 4056               	create_chain:
 4057               	.LFB63:
 4058               	.LM465:
 4059               	.LVL293:
 4060 15d0 2F92      		push r2
 4061 15d2 3F92      		push r3
 4062 15d4 4F92      		push r4
 4063 15d6 5F92      		push r5
 4064 15d8 6F92      		push r6
 4065 15da 7F92      		push r7
 4066 15dc 8F92      		push r8
 4067 15de 9F92      		push r9
 4068 15e0 AF92      		push r10
 4069 15e2 BF92      		push r11
 4070 15e4 CF92      		push r12
 4071 15e6 DF92      		push r13
 4072 15e8 EF92      		push r14
 4073 15ea FF92      		push r15
 4074 15ec 0F93      		push r16
 4075 15ee 1F93      		push r17
 4076 15f0 DF93      		push r29
 4077 15f2 CF93      		push r28
 4078 15f4 00D0      		rcall .
 4079 15f6 0F92      		push __tmp_reg__
 4080 15f8 CDB7      		in r28,__SP_L__
 4081 15fa DEB7      		in r29,__SP_H__
 4082               	/* prologue: function */
 4083               	/* frame size = 4 */
 4084 15fc 1C01      		movw r2,r24
 4085 15fe 2A01      		movw r4,r20
 4086 1600 3B01      		movw r6,r22
 4087               	.LM466:
 4088 1602 DC01      		movw r26,r24
 4089 1604 5A96      		adiw r26,26
 4090 1606 8D91      		ld r24,X+
 4091 1608 9D91      		ld r25,X+
 4092 160a 0D90      		ld __tmp_reg__,X+
 4093 160c BC91      		ld r27,X
 4094 160e A02D      		mov r26,__tmp_reg__
 4095               	.LVL294:
 4096 1610 8983      		std Y+1,r24
 4097 1612 9A83      		std Y+2,r25
 4098 1614 AB83      		std Y+3,r26
 4099 1616 BC83      		std Y+4,r27
 4100               	.LVL295:
 4101               	.LM467:
 4102 1618 4115      		cp r20,__zero_reg__
 4103 161a 5105      		cpc r21,__zero_reg__
 4104 161c 6105      		cpc r22,__zero_reg__
 4105 161e 7105      		cpc r23,__zero_reg__
 4106 1620 01F4      		brne .L357
 4107               	.LM468:
 4108 1622 F101      		movw r30,r2
 4109 1624 8284      		ldd r8,Z+10
 4110 1626 9384      		ldd r9,Z+11
 4111 1628 A484      		ldd r10,Z+12
 4112 162a B584      		ldd r11,Z+13
 4113               	.LVL296:
 4114               	.LM469:
 4115 162c 8114      		cp r8,__zero_reg__
 4116 162e 9104      		cpc r9,__zero_reg__
 4117 1630 A104      		cpc r10,__zero_reg__
 4118 1632 B104      		cpc r11,__zero_reg__
 4119 1634 01F0      		breq .L358
 4120 1636 8816      		cp r8,r24
 4121 1638 9906      		cpc r9,r25
 4122 163a AA06      		cpc r10,r26
 4123 163c BB06      		cpc r11,r27
 4124 163e 00F4      		brsh .L358
 4125 1640 00C0      		rjmp .L359
 4126               	.LVL297:
 4127               	.L357:
 4128               	.LM470:
 4129 1642 C101      		movw r24,r2
 4130 1644 0E94 0000 		call get_fat
 4131               	.LVL298:
 4132 1648 9B01      		movw r18,r22
 4133 164a AC01      		movw r20,r24
 4134               	.LVL299:
 4135               	.LM471:
 4136 164c 6230      		cpi r22,lo8(2)
 4137 164e 7105      		cpc r23,__zero_reg__
 4138 1650 8105      		cpc r24,__zero_reg__
 4139 1652 9105      		cpc r25,__zero_reg__
 4140 1654 00F4      		brsh .L360
 4141               	.LVL300:
 4142 1656 21E0      		ldi r18,lo8(1)
 4143 1658 30E0      		ldi r19,hi8(1)
 4144 165a 40E0      		ldi r20,hlo8(1)
 4145 165c 50E0      		ldi r21,hhi8(1)
 4146               	.LVL301:
 4147 165e 00C0      		rjmp .L361
 4148               	.LVL302:
 4149               	.L360:
 4150               	.LM472:
 4151 1660 8981      		ldd r24,Y+1
 4152 1662 9A81      		ldd r25,Y+2
 4153 1664 AB81      		ldd r26,Y+3
 4154 1666 BC81      		ldd r27,Y+4
 4155 1668 2817      		cp r18,r24
 4156 166a 3907      		cpc r19,r25
 4157 166c 4A07      		cpc r20,r26
 4158 166e 5B07      		cpc r21,r27
 4159 1670 00F4      		brsh .+2
 4160 1672 00C0      		rjmp .L361
 4161               	.LVL303:
 4162 1674 5301      		movw r10,r6
 4163 1676 4201      		movw r8,r4
 4164               	.LVL304:
 4165 1678 00C0      		rjmp .L359
 4166               	.LVL305:
 4167               	.L358:
 4168 167a B1E0      		ldi r27,lo8(1)
 4169 167c 8B2E      		mov r8,r27
 4170 167e 912C      		mov r9,__zero_reg__
 4171 1680 A12C      		mov r10,__zero_reg__
 4172 1682 B12C      		mov r11,__zero_reg__
 4173               	.LVL306:
 4174               	.L359:
 4175 1684 7501      		movw r14,r10
 4176 1686 6401      		movw r12,r8
 4177               	.LVL307:
 4178               	.L365:
 4179               	.LM473:
 4180 1688 0894      		sec
 4181 168a C11C      		adc r12,__zero_reg__
 4182 168c D11C      		adc r13,__zero_reg__
 4183 168e E11C      		adc r14,__zero_reg__
 4184 1690 F11C      		adc r15,__zero_reg__
 4185               	.LM474:
 4186 1692 8981      		ldd r24,Y+1
 4187 1694 9A81      		ldd r25,Y+2
 4188 1696 AB81      		ldd r26,Y+3
 4189 1698 BC81      		ldd r27,Y+4
 4190 169a C816      		cp r12,r24
 4191 169c D906      		cpc r13,r25
 4192 169e EA06      		cpc r14,r26
 4193 16a0 FB06      		cpc r15,r27
 4194 16a2 00F0      		brlo .L362
 4195               	.LM475:
 4196 16a4 92E0      		ldi r25,lo8(2)
 4197 16a6 8916      		cp r8,r25
 4198 16a8 9104      		cpc r9,__zero_reg__
 4199 16aa A104      		cpc r10,__zero_reg__
 4200 16ac B104      		cpc r11,__zero_reg__
 4201 16ae 00F4      		brsh .+2
 4202 16b0 00C0      		rjmp .L363
 4203 16b2 A2E0      		ldi r26,lo8(2)
 4204 16b4 CA2E      		mov r12,r26
 4205 16b6 D12C      		mov r13,__zero_reg__
 4206 16b8 E12C      		mov r14,__zero_reg__
 4207 16ba F12C      		mov r15,__zero_reg__
 4208               	.L362:
 4209               	.LM476:
 4210 16bc C101      		movw r24,r2
 4211 16be B701      		movw r22,r14
 4212 16c0 A601      		movw r20,r12
 4213 16c2 0E94 0000 		call get_fat
 4214               	.LVL308:
 4215 16c6 9B01      		movw r18,r22
 4216 16c8 AC01      		movw r20,r24
 4217               	.LVL309:
 4218               	.LM477:
 4219 16ca 6115      		cp r22,__zero_reg__
 4220 16cc 7105      		cpc r23,__zero_reg__
 4221 16ce 8105      		cpc r24,__zero_reg__
 4222 16d0 9105      		cpc r25,__zero_reg__
 4223 16d2 01F0      		breq .L364
 4224               	.LVL310:
 4225               	.LM478:
 4226 16d4 6F3F      		cpi r22,lo8(-1)
 4227 16d6 AFEF      		ldi r26,hi8(-1)
 4228 16d8 7A07      		cpc r23,r26
 4229 16da AFEF      		ldi r26,hlo8(-1)
 4230 16dc 8A07      		cpc r24,r26
 4231 16de AFEF      		ldi r26,hhi8(-1)
 4232 16e0 9A07      		cpc r25,r26
 4233 16e2 01F4      		brne .+2
 4234 16e4 00C0      		rjmp .L361
 4235 16e6 6130      		cpi r22,lo8(1)
 4236 16e8 7105      		cpc r23,__zero_reg__
 4237 16ea 8105      		cpc r24,__zero_reg__
 4238 16ec 9105      		cpc r25,__zero_reg__
 4239 16ee 01F4      		brne .+2
 4240 16f0 00C0      		rjmp .L361
 4241               	.LM479:
 4242 16f2 C814      		cp r12,r8
 4243 16f4 D904      		cpc r13,r9
 4244 16f6 EA04      		cpc r14,r10
 4245 16f8 FB04      		cpc r15,r11
 4246 16fa 01F4      		brne .L365
 4247 16fc 00C0      		rjmp .L363
 4248               	.L364:
 4249 16fe BC2C      		mov r11,r12
 4250 1700 AD2C      		mov r10,r13
 4251               	.LVL311:
 4252 1702 9E2C      		mov r9,r14
 4253               	.LVL312:
 4254 1704 8F2C      		mov r8,r15
 4255               	.LVL313:
 4256               	.LM480:
 4257 1706 C101      		movw r24,r2
 4258 1708 A601      		movw r20,r12
 4259               	.LVL314:
 4260 170a B701      		movw r22,r14
 4261               	.LVL315:
 4262 170c 0FEF      		ldi r16,lo8(268435455)
 4263 170e 1FEF      		ldi r17,hi8(268435455)
 4264 1710 2FEF      		ldi r18,hlo8(268435455)
 4265 1712 3FE0      		ldi r19,hhi8(268435455)
 4266 1714 0E94 0000 		call put_fat
 4267               	.LVL316:
 4268 1718 8823      		tst r24
 4269 171a 01F4      		brne .L366
 4270               	.LVL317:
 4271               	.LM481:
 4272 171c 4114      		cp r4,__zero_reg__
 4273 171e 5104      		cpc r5,__zero_reg__
 4274 1720 6104      		cpc r6,__zero_reg__
 4275 1722 7104      		cpc r7,__zero_reg__
 4276 1724 01F0      		breq .L367
 4277               	.LM482:
 4278 1726 C101      		movw r24,r2
 4279 1728 B301      		movw r22,r6
 4280 172a A201      		movw r20,r4
 4281 172c 8601      		movw r16,r12
 4282 172e 9701      		movw r18,r14
 4283 1730 0E94 0000 		call put_fat
 4284 1734 8823      		tst r24
 4285 1736 01F4      		brne .L366
 4286               	.L367:
 4287               	.LM483:
 4288 1738 F101      		movw r30,r2
 4289 173a B286      		std Z+10,r11
 4290 173c A386      		std Z+11,r10
 4291 173e 9486      		std Z+12,r9
 4292 1740 8586      		std Z+13,r8
 4293               	.LM484:
 4294 1742 8685      		ldd r24,Z+14
 4295 1744 9785      		ldd r25,Z+15
 4296 1746 A089      		ldd r26,Z+16
 4297 1748 B189      		ldd r27,Z+17
 4298 174a 8F3F      		cpi r24,lo8(-1)
 4299 174c FFEF      		ldi r31,hi8(-1)
 4300 174e 9F07      		cpc r25,r31
 4301 1750 FFEF      		ldi r31,hlo8(-1)
 4302 1752 AF07      		cpc r26,r31
 4303 1754 FFEF      		ldi r31,hhi8(-1)
 4304 1756 BF07      		cpc r27,r31
 4305 1758 01F0      		breq .L370
 4306               	.L368:
 4307               	.LM485:
 4308 175a 0197      		sbiw r24,1
 4309 175c A109      		sbc r26,__zero_reg__
 4310 175e B109      		sbc r27,__zero_reg__
 4311 1760 F101      		movw r30,r2
 4312 1762 8687      		std Z+14,r24
 4313 1764 9787      		std Z+15,r25
 4314 1766 A08B      		std Z+16,r26
 4315 1768 B18B      		std Z+17,r27
 4316               	.LM486:
 4317 176a 81E0      		ldi r24,lo8(1)
 4318 176c 8583      		std Z+5,r24
 4319               	.L370:
 4320 176e A701      		movw r20,r14
 4321 1770 9601      		movw r18,r12
 4322               	.LVL318:
 4323 1772 00C0      		rjmp .L361
 4324               	.LVL319:
 4325               	.L363:
 4326 1774 20E0      		ldi r18,lo8(0)
 4327 1776 30E0      		ldi r19,hi8(0)
 4328 1778 40E0      		ldi r20,hlo8(0)
 4329 177a 50E0      		ldi r21,hhi8(0)
 4330 177c 00C0      		rjmp .L361
 4331               	.LVL320:
 4332               	.L366:
 4333 177e 2FEF      		ldi r18,lo8(-1)
 4334 1780 3FEF      		ldi r19,hi8(-1)
 4335 1782 4FEF      		ldi r20,hlo8(-1)
 4336 1784 5FEF      		ldi r21,hhi8(-1)
 4337               	.LVL321:
 4338               	.L361:
 4339               	.LM487:
 4340 1786 B901      		movw r22,r18
 4341               	.LVL322:
 4342 1788 CA01      		movw r24,r20
 4343               	/* epilogue start */
 4344 178a 2496      		adiw r28,4
 4345 178c CDBF      		out __SP_L__,r28
 4346 178e DEBF      		out __SP_H__,r29
 4347 1790 CF91      		pop r28
 4348 1792 DF91      		pop r29
 4349 1794 1F91      		pop r17
 4350 1796 0F91      		pop r16
 4351 1798 FF90      		pop r15
 4352 179a EF90      		pop r14
 4353 179c DF90      		pop r13
 4354 179e CF90      		pop r12
 4355               	.LVL323:
 4356 17a0 BF90      		pop r11
 4357               	.LVL324:
 4358 17a2 AF90      		pop r10
 4359               	.LVL325:
 4360 17a4 9F90      		pop r9
 4361               	.LVL326:
 4362 17a6 8F90      		pop r8
 4363               	.LVL327:
 4364 17a8 7F90      		pop r7
 4365 17aa 6F90      		pop r6
 4366 17ac 5F90      		pop r5
 4367 17ae 4F90      		pop r4
 4368               	.LVL328:
 4369 17b0 3F90      		pop r3
 4370 17b2 2F90      		pop r2
 4371               	.LVL329:
 4372 17b4 0895      		ret
 4373               	.LFE63:
 4375               	.global	clust2sect
 4377               	clust2sect:
 4378               	.LFB64:
 4379               	.LM488:
 4380               	.LVL330:
 4381 17b6 EF92      		push r14
 4382 17b8 FF92      		push r15
 4383 17ba 0F93      		push r16
 4384 17bc 1F93      		push r17
 4385 17be CF93      		push r28
 4386 17c0 DF93      		push r29
 4387               	/* prologue: function */
 4388               	/* frame size = 0 */
 4389 17c2 EC01      		movw r28,r24
 4390 17c4 7A01      		movw r14,r20
 4391 17c6 8B01      		movw r16,r22
 4392               	.LM489:
 4393 17c8 8EEF      		ldi r24,lo8(-2)
 4394 17ca 9FEF      		ldi r25,hi8(-2)
 4395 17cc AFEF      		ldi r26,hlo8(-2)
 4396 17ce BFEF      		ldi r27,hhi8(-2)
 4397               	.LVL331:
 4398 17d0 E80E      		add r14,r24
 4399 17d2 F91E      		adc r15,r25
 4400 17d4 0A1F      		adc r16,r26
 4401 17d6 1B1F      		adc r17,r27
 4402               	.LVL332:
 4403               	.LM490:
 4404 17d8 8A8D      		ldd r24,Y+26
 4405 17da 9B8D      		ldd r25,Y+27
 4406 17dc AC8D      		ldd r26,Y+28
 4407 17de BD8D      		ldd r27,Y+29
 4408 17e0 0297      		sbiw r24,2
 4409 17e2 A109      		sbc r26,__zero_reg__
 4410 17e4 B109      		sbc r27,__zero_reg__
 4411 17e6 E816      		cp r14,r24
 4412 17e8 F906      		cpc r15,r25
 4413 17ea 0A07      		cpc r16,r26
 4414 17ec 1B07      		cpc r17,r27
 4415 17ee 00F0      		brlo .L372
 4416 17f0 20E0      		ldi r18,lo8(0)
 4417 17f2 30E0      		ldi r19,hi8(0)
 4418 17f4 40E0      		ldi r20,hlo8(0)
 4419 17f6 50E0      		ldi r21,hhi8(0)
 4420 17f8 00C0      		rjmp .L373
 4421               	.L372:
 4422               	.LM491:
 4423 17fa 2A81      		ldd r18,Y+2
 4424 17fc 30E0      		ldi r19,lo8(0)
 4425 17fe 40E0      		ldi r20,lo8(0)
 4426 1800 50E0      		ldi r21,hi8(0)
 4427 1802 C801      		movw r24,r16
 4428 1804 B701      		movw r22,r14
 4429 1806 0E94 0000 		call __mulsi3
 4430 180a 9B01      		movw r18,r22
 4431 180c AC01      		movw r20,r24
 4432 180e 8EA1      		ldd r24,Y+38
 4433 1810 9FA1      		ldd r25,Y+39
 4434 1812 A8A5      		ldd r26,Y+40
 4435 1814 B9A5      		ldd r27,Y+41
 4436 1816 280F      		add r18,r24
 4437 1818 391F      		adc r19,r25
 4438 181a 4A1F      		adc r20,r26
 4439 181c 5B1F      		adc r21,r27
 4440               	.L373:
 4441               	.LM492:
 4442 181e B901      		movw r22,r18
 4443 1820 CA01      		movw r24,r20
 4444               	/* epilogue start */
 4445 1822 DF91      		pop r29
 4446 1824 CF91      		pop r28
 4447               	.LVL333:
 4448 1826 1F91      		pop r17
 4449 1828 0F91      		pop r16
 4450 182a FF90      		pop r15
 4451 182c EF90      		pop r14
 4452               	.LVL334:
 4453 182e 0895      		ret
 4454               	.LFE64:
 4457               	dir_seek:
 4458               	.LFB65:
 4459               	.LM493:
 4460               	.LVL335:
 4461 1830 AF92      		push r10
 4462 1832 BF92      		push r11
 4463 1834 CF92      		push r12
 4464 1836 DF92      		push r13
 4465 1838 EF92      		push r14
 4466 183a FF92      		push r15
 4467 183c 0F93      		push r16
 4468 183e 1F93      		push r17
 4469 1840 CF93      		push r28
 4470 1842 DF93      		push r29
 4471               	/* prologue: function */
 4472               	/* frame size = 0 */
 4473 1844 5C01      		movw r10,r24
 4474 1846 6B01      		movw r12,r22
 4475               	.LM494:
 4476 1848 DC01      		movw r26,r24
 4477 184a 1496      		adiw r26,4
 4478 184c 6D93      		st X+,r22
 4479 184e 7C93      		st X,r23
 4480 1850 1597      		sbiw r26,4+1
 4481               	.LM495:
 4482 1852 1696      		adiw r26,6
 4483 1854 4D91      		ld r20,X+
 4484 1856 5D91      		ld r21,X+
 4485 1858 6D91      		ld r22,X+
 4486 185a 7C91      		ld r23,X
 4487 185c 1997      		sbiw r26,6+3
 4488               	.LVL336:
 4489               	.LM496:
 4490 185e 4130      		cpi r20,lo8(1)
 4491 1860 5105      		cpc r21,__zero_reg__
 4492 1862 6105      		cpc r22,__zero_reg__
 4493 1864 7105      		cpc r23,__zero_reg__
 4494 1866 01F4      		brne .+2
 4495 1868 00C0      		rjmp .L376
 4496 186a ED91      		ld r30,X+
 4497 186c FC91      		ld r31,X
 4498 186e 828D      		ldd r24,Z+26
 4499 1870 938D      		ldd r25,Z+27
 4500 1872 A48D      		ldd r26,Z+28
 4501 1874 B58D      		ldd r27,Z+29
 4502               	.LVL337:
 4503 1876 4817      		cp r20,r24
 4504 1878 5907      		cpc r21,r25
 4505 187a 6A07      		cpc r22,r26
 4506 187c 7B07      		cpc r23,r27
 4507 187e 00F0      		brlo .+2
 4508 1880 00C0      		rjmp .L376
 4509               	.LM497:
 4510 1882 4115      		cp r20,__zero_reg__
 4511 1884 5105      		cpc r21,__zero_reg__
 4512 1886 6105      		cpc r22,__zero_reg__
 4513 1888 7105      		cpc r23,__zero_reg__
 4514 188a 01F4      		brne .L377
 4515 188c 8081      		ld r24,Z
 4516 188e 8330      		cpi r24,lo8(3)
 4517 1890 01F4      		brne .L378
 4518               	.LM498:
 4519 1892 42A1      		ldd r20,Z+34
 4520 1894 53A1      		ldd r21,Z+35
 4521 1896 64A1      		ldd r22,Z+36
 4522 1898 75A1      		ldd r23,Z+37
 4523               	.LM499:
 4524 189a 4115      		cp r20,__zero_reg__
 4525 189c 5105      		cpc r21,__zero_reg__
 4526 189e 6105      		cpc r22,__zero_reg__
 4527 18a0 7105      		cpc r23,__zero_reg__
 4528 18a2 01F4      		brne .L377
 4529               	.L378:
 4530               	.LM500:
 4531 18a4 F501      		movw r30,r10
 4532 18a6 1286      		std Z+10,__zero_reg__
 4533 18a8 1386      		std Z+11,__zero_reg__
 4534 18aa 1486      		std Z+12,__zero_reg__
 4535 18ac 1586      		std Z+13,__zero_reg__
 4536               	.LM501:
 4537 18ae 0190      		ld __tmp_reg__,Z+
 4538 18b0 F081      		ld r31,Z
 4539 18b2 E02D      		mov r30,__tmp_reg__
 4540 18b4 8085      		ldd r24,Z+8
 4541 18b6 9185      		ldd r25,Z+9
 4542 18b8 C816      		cp r12,r24
 4543 18ba D906      		cpc r13,r25
 4544 18bc 00F0      		brlo .+2
 4545 18be 00C0      		rjmp .L376
 4546               	.LVL338:
 4547               	.LM502:
 4548 18c0 C601      		movw r24,r12
 4549 18c2 24E0      		ldi r18,4
 4550 18c4 9695      	1:	lsr r25
 4551 18c6 8795      		ror r24
 4552 18c8 2A95      		dec r18
 4553 18ca 01F4      		brne 1b
 4554 18cc A0E0      		ldi r26,lo8(0)
 4555 18ce B0E0      		ldi r27,hi8(0)
 4556 18d0 22A1      		ldd r18,Z+34
 4557 18d2 33A1      		ldd r19,Z+35
 4558 18d4 44A1      		ldd r20,Z+36
 4559 18d6 55A1      		ldd r21,Z+37
 4560 18d8 820F      		add r24,r18
 4561 18da 931F      		adc r25,r19
 4562 18dc A41F      		adc r26,r20
 4563 18de B51F      		adc r27,r21
 4564 18e0 F501      		movw r30,r10
 4565 18e2 8687      		std Z+14,r24
 4566 18e4 9787      		std Z+15,r25
 4567 18e6 A08B      		std Z+16,r26
 4568 18e8 B18B      		std Z+17,r27
 4569 18ea 00C0      		rjmp .L379
 4570               	.LVL339:
 4571               	.L377:
 4572               	.LM503:
 4573 18ec 8281      		ldd r24,Z+2
 4574 18ee 082F      		mov r16,r24
 4575               	.LVL340:
 4576 18f0 10E0      		ldi r17,lo8(0)
 4577               	.LVL341:
 4578 18f2 94E0      		ldi r25,4
 4579 18f4 000F      	1:	lsl r16
 4580 18f6 111F      		rol r17
 4581 18f8 9A95      		dec r25
 4582 18fa 01F4      		brne 1b
 4583               	.LVL342:
 4584 18fc 00C0      		rjmp .L380
 4585               	.LVL343:
 4586               	.L383:
 4587               	.LM504:
 4588 18fe CE01      		movw r24,r28
 4589 1900 0E94 0000 		call get_fat
 4590               	.LVL344:
 4591 1904 AB01      		movw r20,r22
 4592 1906 BC01      		movw r22,r24
 4593               	.LVL345:
 4594               	.LM505:
 4595 1908 4F3F      		cpi r20,lo8(-1)
 4596 190a FFEF      		ldi r31,hi8(-1)
 4597 190c 5F07      		cpc r21,r31
 4598 190e FFEF      		ldi r31,hlo8(-1)
 4599 1910 6F07      		cpc r22,r31
 4600 1912 FFEF      		ldi r31,hhi8(-1)
 4601 1914 7F07      		cpc r23,r31
 4602 1916 01F4      		brne .L381
 4603 1918 81E0      		ldi r24,lo8(1)
 4604 191a 00C0      		rjmp .L382
 4605               	.L381:
 4606               	.LM506:
 4607 191c 4230      		cpi r20,lo8(2)
 4608 191e 5105      		cpc r21,__zero_reg__
 4609 1920 6105      		cpc r22,__zero_reg__
 4610 1922 7105      		cpc r23,__zero_reg__
 4611 1924 00F4      		brsh .+2
 4612 1926 00C0      		rjmp .L376
 4613 1928 D501      		movw r26,r10
 4614 192a ED91      		ld r30,X+
 4615 192c FC91      		ld r31,X
 4616 192e 828D      		ldd r24,Z+26
 4617 1930 938D      		ldd r25,Z+27
 4618 1932 A48D      		ldd r26,Z+28
 4619 1934 B58D      		ldd r27,Z+29
 4620 1936 4817      		cp r20,r24
 4621 1938 5907      		cpc r21,r25
 4622 193a 6A07      		cpc r22,r26
 4623 193c 7B07      		cpc r23,r27
 4624 193e 00F0      		brlo .+2
 4625 1940 00C0      		rjmp .L376
 4626               	.LM507:
 4627 1942 C01A      		sub r12,r16
 4628 1944 D10A      		sbc r13,r17
 4629               	.LVL346:
 4630               	.L380:
 4631 1946 F501      		movw r30,r10
 4632 1948 C081      		ld r28,Z
 4633 194a D181      		ldd r29,Z+1
 4634               	.LM508:
 4635 194c C016      		cp r12,r16
 4636 194e D106      		cpc r13,r17
 4637 1950 00F4      		brsh .L383
 4638               	.LM509:
 4639 1952 D501      		movw r26,r10
 4640 1954 1A96      		adiw r26,10
 4641 1956 4D93      		st X+,r20
 4642 1958 5D93      		st X+,r21
 4643 195a 6D93      		st X+,r22
 4644 195c 7C93      		st X,r23
 4645 195e 1D97      		sbiw r26,10+3
 4646               	.LBB665:
 4647               	.LBB666:
 4648               	.LM510:
 4649 1960 8EEF      		ldi r24,lo8(-2)
 4650 1962 E82E      		mov r14,r24
 4651 1964 8FEF      		ldi r24,hi8(-2)
 4652 1966 F82E      		mov r15,r24
 4653 1968 8FEF      		ldi r24,hlo8(-2)
 4654 196a 082F      		mov r16,r24
 4655 196c 8FEF      		ldi r24,hhi8(-2)
 4656 196e 182F      		mov r17,r24
 4657               	.LVL347:
 4658 1970 E40E      		add r14,r20
 4659 1972 F51E      		adc r15,r21
 4660 1974 061F      		adc r16,r22
 4661 1976 171F      		adc r17,r23
 4662               	.LM511:
 4663 1978 8A8D      		ldd r24,Y+26
 4664 197a 9B8D      		ldd r25,Y+27
 4665 197c AC8D      		ldd r26,Y+28
 4666 197e BD8D      		ldd r27,Y+29
 4667 1980 0297      		sbiw r24,2
 4668 1982 A109      		sbc r26,__zero_reg__
 4669 1984 B109      		sbc r27,__zero_reg__
 4670 1986 E816      		cp r14,r24
 4671 1988 F906      		cpc r15,r25
 4672 198a 0A07      		cpc r16,r26
 4673 198c 1B07      		cpc r17,r27
 4674 198e 00F0      		brlo .L384
 4675 1990 20E0      		ldi r18,lo8(0)
 4676 1992 30E0      		ldi r19,hi8(0)
 4677 1994 40E0      		ldi r20,hlo8(0)
 4678 1996 50E0      		ldi r21,hhi8(0)
 4679 1998 00C0      		rjmp .L385
 4680               	.L384:
 4681               	.LM512:
 4682 199a 2A81      		ldd r18,Y+2
 4683 199c 30E0      		ldi r19,lo8(0)
 4684 199e 40E0      		ldi r20,lo8(0)
 4685 19a0 50E0      		ldi r21,hi8(0)
 4686               	.LVL348:
 4687 19a2 C801      		movw r24,r16
 4688 19a4 B701      		movw r22,r14
 4689 19a6 0E94 0000 		call __mulsi3
 4690 19aa 9B01      		movw r18,r22
 4691 19ac AC01      		movw r20,r24
 4692 19ae 8EA1      		ldd r24,Y+38
 4693 19b0 9FA1      		ldd r25,Y+39
 4694 19b2 A8A5      		ldd r26,Y+40
 4695 19b4 B9A5      		ldd r27,Y+41
 4696 19b6 280F      		add r18,r24
 4697 19b8 391F      		adc r19,r25
 4698 19ba 4A1F      		adc r20,r26
 4699 19bc 5B1F      		adc r21,r27
 4700               	.LVL349:
 4701               	.L385:
 4702               	.LBE666:
 4703               	.LBE665:
 4704               	.LM513:
 4705 19be C601      		movw r24,r12
 4706 19c0 04E0      		ldi r16,4
 4707 19c2 9695      	1:	lsr r25
 4708 19c4 8795      		ror r24
 4709 19c6 0A95      		dec r16
 4710 19c8 01F4      		brne 1b
 4711               	.LVL350:
 4712 19ca A0E0      		ldi r26,lo8(0)
 4713 19cc B0E0      		ldi r27,hi8(0)
 4714 19ce 280F      		add r18,r24
 4715 19d0 391F      		adc r19,r25
 4716 19d2 4A1F      		adc r20,r26
 4717 19d4 5B1F      		adc r21,r27
 4718 19d6 F501      		movw r30,r10
 4719 19d8 2687      		std Z+14,r18
 4720 19da 3787      		std Z+15,r19
 4721 19dc 408B      		std Z+16,r20
 4722 19de 518B      		std Z+17,r21
 4723               	.L379:
 4724               	.LM514:
 4725 19e0 FFE0      		ldi r31,lo8(15)
 4726 19e2 CF22      		and r12,r31
 4727 19e4 DD24      		clr r13
 4728 19e6 15E0      		ldi r17,5
 4729 19e8 CC0C      	1:	lsl r12
 4730 19ea DD1C      		rol r13
 4731 19ec 1A95      		dec r17
 4732 19ee 01F4      		brne 1b
 4733               	.LVL351:
 4734 19f0 8EE2      		ldi r24,lo8(46)
 4735 19f2 90E0      		ldi r25,hi8(46)
 4736 19f4 C80E      		add r12,r24
 4737 19f6 D91E      		adc r13,r25
 4738 19f8 D501      		movw r26,r10
 4739 19fa 8D91      		ld r24,X+
 4740 19fc 9C91      		ld r25,X
 4741 19fe 1197      		sbiw r26,1
 4742 1a00 8C0D      		add r24,r12
 4743 1a02 9D1D      		adc r25,r13
 4744 1a04 5296      		adiw r26,18
 4745 1a06 8D93      		st X+,r24
 4746 1a08 9C93      		st X,r25
 4747 1a0a 5397      		sbiw r26,18+1
 4748 1a0c 80E0      		ldi r24,lo8(0)
 4749 1a0e 00C0      		rjmp .L382
 4750               	.LVL352:
 4751               	.L376:
 4752               	.LM515:
 4753 1a10 82E0      		ldi r24,lo8(2)
 4754               	.LVL353:
 4755               	.L382:
 4756               	/* epilogue start */
 4757               	.LM516:
 4758 1a12 DF91      		pop r29
 4759 1a14 CF91      		pop r28
 4760 1a16 1F91      		pop r17
 4761               	.LVL354:
 4762 1a18 0F91      		pop r16
 4763               	.LVL355:
 4764 1a1a FF90      		pop r15
 4765 1a1c EF90      		pop r14
 4766               	.LVL356:
 4767 1a1e DF90      		pop r13
 4768 1a20 CF90      		pop r12
 4769               	.LVL357:
 4770 1a22 BF90      		pop r11
 4771 1a24 AF90      		pop r10
 4772               	.LVL358:
 4773 1a26 0895      		ret
 4774               	.LFE65:
 4777               	dir_next:
 4778               	.LFB66:
 4779               	.LM517:
 4780               	.LVL359:
 4781 1a28 4F92      		push r4
 4782 1a2a 5F92      		push r5
 4783 1a2c 6F92      		push r6
 4784 1a2e 7F92      		push r7
 4785 1a30 8F92      		push r8
 4786 1a32 9F92      		push r9
 4787 1a34 AF92      		push r10
 4788 1a36 BF92      		push r11
 4789 1a38 CF92      		push r12
 4790 1a3a DF92      		push r13
 4791 1a3c EF92      		push r14
 4792 1a3e FF92      		push r15
 4793 1a40 0F93      		push r16
 4794 1a42 1F93      		push r17
 4795 1a44 CF93      		push r28
 4796 1a46 DF93      		push r29
 4797               	/* prologue: function */
 4798               	/* frame size = 0 */
 4799 1a48 EC01      		movw r28,r24
 4800 1a4a D62E      		mov r13,r22
 4801               	.LM518:
 4802 1a4c 6C80      		ldd r6,Y+4
 4803 1a4e 7D80      		ldd r7,Y+5
 4804               	.LVL360:
 4805 1a50 0894      		sec
 4806 1a52 611C      		adc r6,__zero_reg__
 4807 1a54 711C      		adc r7,__zero_reg__
 4808               	.LM519:
 4809 1a56 6114      		cp r6,__zero_reg__
 4810 1a58 7104      		cpc r7,__zero_reg__
 4811 1a5a 01F4      		brne .+2
 4812 1a5c 00C0      		rjmp .L388
 4813               	.LVL361:
 4814 1a5e 8E85      		ldd r24,Y+14
 4815 1a60 9F85      		ldd r25,Y+15
 4816 1a62 A889      		ldd r26,Y+16
 4817 1a64 B989      		ldd r27,Y+17
 4818 1a66 0097      		sbiw r24,0
 4819 1a68 A105      		cpc r26,__zero_reg__
 4820 1a6a B105      		cpc r27,__zero_reg__
 4821 1a6c 01F4      		brne .+2
 4822 1a6e 00C0      		rjmp .L388
 4823               	.LM520:
 4824 1a70 1FE0      		ldi r17,lo8(15)
 4825 1a72 412E      		mov r4,r17
 4826 1a74 512C      		mov r5,__zero_reg__
 4827 1a76 4620      		and r4,r6
 4828 1a78 5720      		and r5,r7
 4829 1a7a 4114      		cp r4,__zero_reg__
 4830 1a7c 5104      		cpc r5,__zero_reg__
 4831 1a7e 01F0      		breq .+2
 4832 1a80 00C0      		rjmp .L389
 4833               	.LM521:
 4834 1a82 0196      		adiw r24,1
 4835 1a84 A11D      		adc r26,__zero_reg__
 4836 1a86 B11D      		adc r27,__zero_reg__
 4837 1a88 8E87      		std Y+14,r24
 4838 1a8a 9F87      		std Y+15,r25
 4839 1a8c A88B      		std Y+16,r26
 4840 1a8e B98B      		std Y+17,r27
 4841               	.LM522:
 4842 1a90 4A85      		ldd r20,Y+10
 4843 1a92 5B85      		ldd r21,Y+11
 4844 1a94 6C85      		ldd r22,Y+12
 4845 1a96 7D85      		ldd r23,Y+13
 4846 1a98 E881      		ld r30,Y
 4847 1a9a F981      		ldd r31,Y+1
 4848 1a9c 4115      		cp r20,__zero_reg__
 4849 1a9e 5105      		cpc r21,__zero_reg__
 4850 1aa0 6105      		cpc r22,__zero_reg__
 4851 1aa2 7105      		cpc r23,__zero_reg__
 4852 1aa4 01F4      		brne .L390
 4853               	.LM523:
 4854 1aa6 8085      		ldd r24,Z+8
 4855 1aa8 9185      		ldd r25,Z+9
 4856 1aaa 6816      		cp r6,r24
 4857 1aac 7906      		cpc r7,r25
 4858 1aae 00F4      		brsh .+2
 4859 1ab0 00C0      		rjmp .L389
 4860 1ab2 00C0      		rjmp .L388
 4861               	.L390:
 4862               	.LM524:
 4863 1ab4 8281      		ldd r24,Z+2
 4864 1ab6 90E0      		ldi r25,lo8(0)
 4865 1ab8 0197      		sbiw r24,1
 4866 1aba 9301      		movw r18,r6
 4867 1abc A4E0      		ldi r26,4
 4868 1abe 3695      	1:	lsr r19
 4869 1ac0 2795      		ror r18
 4870 1ac2 AA95      		dec r26
 4871 1ac4 01F4      		brne 1b
 4872 1ac6 8223      		and r24,r18
 4873 1ac8 9323      		and r25,r19
 4874 1aca 892B      		or r24,r25
 4875 1acc 01F0      		breq .+2
 4876 1ace 00C0      		rjmp .L389
 4877               	.LM525:
 4878 1ad0 CF01      		movw r24,r30
 4879 1ad2 0E94 0000 		call get_fat
 4880 1ad6 7B01      		movw r14,r22
 4881 1ad8 8C01      		movw r16,r24
 4882               	.LVL362:
 4883               	.LM526:
 4884 1ada 6230      		cpi r22,lo8(2)
 4885 1adc 7105      		cpc r23,__zero_reg__
 4886 1ade 8105      		cpc r24,__zero_reg__
 4887 1ae0 9105      		cpc r25,__zero_reg__
 4888 1ae2 00F4      		brsh .+2
 4889 1ae4 00C0      		rjmp .L391
 4890               	.LVL363:
 4891               	.LM527:
 4892 1ae6 8FEF      		ldi r24,lo8(-1)
 4893 1ae8 E816      		cp r14,r24
 4894 1aea 8FEF      		ldi r24,hi8(-1)
 4895 1aec F806      		cpc r15,r24
 4896 1aee 8FEF      		ldi r24,hlo8(-1)
 4897 1af0 0807      		cpc r16,r24
 4898 1af2 8FEF      		ldi r24,hhi8(-1)
 4899 1af4 1807      		cpc r17,r24
 4900 1af6 01F4      		brne .+2
 4901 1af8 00C0      		rjmp .L392
 4902               	.LVL364:
 4903               	.LM528:
 4904 1afa E881      		ld r30,Y
 4905 1afc F981      		ldd r31,Y+1
 4906 1afe 828D      		ldd r24,Z+26
 4907 1b00 938D      		ldd r25,Z+27
 4908 1b02 A48D      		ldd r26,Z+28
 4909 1b04 B58D      		ldd r27,Z+29
 4910 1b06 E816      		cp r14,r24
 4911 1b08 F906      		cpc r15,r25
 4912 1b0a 0A07      		cpc r16,r26
 4913 1b0c 1B07      		cpc r17,r27
 4914 1b0e 00F4      		brsh .+2
 4915 1b10 00C0      		rjmp .L393
 4916               	.LBB667:
 4917               	.LM529:
 4918 1b12 DD20      		tst r13
 4919 1b14 01F4      		brne .+2
 4920 1b16 00C0      		rjmp .L388
 4921               	.LM530:
 4922 1b18 4A85      		ldd r20,Y+10
 4923 1b1a 5B85      		ldd r21,Y+11
 4924 1b1c 6C85      		ldd r22,Y+12
 4925 1b1e 7D85      		ldd r23,Y+13
 4926 1b20 CF01      		movw r24,r30
 4927 1b22 0E94 0000 		call create_chain
 4928 1b26 7B01      		movw r14,r22
 4929 1b28 8C01      		movw r16,r24
 4930               	.LM531:
 4931 1b2a 6115      		cp r22,__zero_reg__
 4932 1b2c 7105      		cpc r23,__zero_reg__
 4933 1b2e 8105      		cpc r24,__zero_reg__
 4934 1b30 9105      		cpc r25,__zero_reg__
 4935 1b32 01F4      		brne .L394
 4936               	.LVL365:
 4937 1b34 87E0      		ldi r24,lo8(7)
 4938 1b36 00C0      		rjmp .L395
 4939               	.L394:
 4940               	.LM532:
 4941 1b38 91E0      		ldi r25,lo8(1)
 4942 1b3a E916      		cp r14,r25
 4943 1b3c F104      		cpc r15,__zero_reg__
 4944 1b3e 0105      		cpc r16,__zero_reg__
 4945 1b40 1105      		cpc r17,__zero_reg__
 4946 1b42 01F4      		brne .+2
 4947 1b44 00C0      		rjmp .L391
 4948               	.LVL366:
 4949               	.LM533:
 4950 1b46 AFEF      		ldi r26,lo8(-1)
 4951 1b48 EA16      		cp r14,r26
 4952 1b4a AFEF      		ldi r26,hi8(-1)
 4953 1b4c FA06      		cpc r15,r26
 4954 1b4e AFEF      		ldi r26,hlo8(-1)
 4955 1b50 0A07      		cpc r16,r26
 4956 1b52 AFEF      		ldi r26,hhi8(-1)
 4957 1b54 1A07      		cpc r17,r26
 4958 1b56 01F4      		brne .+2
 4959 1b58 00C0      		rjmp .L392
 4960               	.LM534:
 4961 1b5a 8881      		ld r24,Y
 4962 1b5c 9981      		ldd r25,Y+1
 4963 1b5e 40E0      		ldi r20,lo8(0)
 4964 1b60 50E0      		ldi r21,hi8(0)
 4965 1b62 60E0      		ldi r22,hlo8(0)
 4966 1b64 70E0      		ldi r23,hhi8(0)
 4967 1b66 0E94 0000 		call move_window
 4968 1b6a 8823      		tst r24
 4969 1b6c 01F0      		breq .+2
 4970 1b6e 00C0      		rjmp .L392
 4971               	.LBB668:
 4972               	.LBB669:
 4973               	.LM535:
 4974 1b70 E881      		ld r30,Y
 4975 1b72 F981      		ldd r31,Y+1
 4976               	.LVL367:
 4977 1b74 BE96      		adiw r30,46
 4978 1b76 80E0      		ldi r24,lo8(512)
 4979 1b78 92E0      		ldi r25,hi8(512)
 4980               	.LVL368:
 4981 1b7a 00C0      		rjmp .L396
 4982               	.L397:
 4983               	.LM536:
 4984 1b7c 1192      		st Z+,__zero_reg__
 4985               	.L396:
 4986 1b7e 0197      		sbiw r24,1
 4987 1b80 BFEF      		ldi r27,hi8(-1)
 4988 1b82 8F3F      		cpi r24,lo8(-1)
 4989 1b84 9B07      		cpc r25,r27
 4990 1b86 01F4      		brne .L397
 4991               	.LBE669:
 4992               	.LBE668:
 4993               	.LM537:
 4994 1b88 8880      		ld r8,Y
 4995 1b8a 9980      		ldd r9,Y+1
 4996               	.LBB670:
 4997               	.LBB671:
 4998               	.LM538:
 4999 1b8c 4EEF      		ldi r20,lo8(-2)
 5000 1b8e A42E      		mov r10,r20
 5001 1b90 4FEF      		ldi r20,hi8(-2)
 5002 1b92 B42E      		mov r11,r20
 5003 1b94 4FEF      		ldi r20,hlo8(-2)
 5004 1b96 C42E      		mov r12,r20
 5005 1b98 4FEF      		ldi r20,hhi8(-2)
 5006 1b9a D42E      		mov r13,r20
 5007               	.LVL369:
 5008 1b9c AE0C      		add r10,r14
 5009 1b9e BF1C      		adc r11,r15
 5010 1ba0 C01E      		adc r12,r16
 5011 1ba2 D11E      		adc r13,r17
 5012               	.LM539:
 5013 1ba4 F401      		movw r30,r8
 5014               	.LVL370:
 5015 1ba6 828D      		ldd r24,Z+26
 5016 1ba8 938D      		ldd r25,Z+27
 5017 1baa A48D      		ldd r26,Z+28
 5018 1bac B58D      		ldd r27,Z+29
 5019               	.LVL371:
 5020 1bae 0297      		sbiw r24,2
 5021 1bb0 A109      		sbc r26,__zero_reg__
 5022 1bb2 B109      		sbc r27,__zero_reg__
 5023 1bb4 A816      		cp r10,r24
 5024 1bb6 B906      		cpc r11,r25
 5025 1bb8 CA06      		cpc r12,r26
 5026 1bba DB06      		cpc r13,r27
 5027 1bbc 00F0      		brlo .L398
 5028 1bbe 20E0      		ldi r18,lo8(0)
 5029 1bc0 30E0      		ldi r19,hi8(0)
 5030 1bc2 40E0      		ldi r20,hlo8(0)
 5031 1bc4 50E0      		ldi r21,hhi8(0)
 5032 1bc6 00C0      		rjmp .L399
 5033               	.L398:
 5034               	.LM540:
 5035 1bc8 D401      		movw r26,r8
 5036 1bca 1296      		adiw r26,2
 5037 1bcc 2C91      		ld r18,X
 5038 1bce 30E0      		ldi r19,lo8(0)
 5039 1bd0 40E0      		ldi r20,lo8(0)
 5040 1bd2 50E0      		ldi r21,hi8(0)
 5041 1bd4 C601      		movw r24,r12
 5042 1bd6 B501      		movw r22,r10
 5043 1bd8 0E94 0000 		call __mulsi3
 5044 1bdc 9B01      		movw r18,r22
 5045 1bde AC01      		movw r20,r24
 5046 1be0 F401      		movw r30,r8
 5047 1be2 86A1      		ldd r24,Z+38
 5048 1be4 97A1      		ldd r25,Z+39
 5049 1be6 A0A5      		ldd r26,Z+40
 5050 1be8 B1A5      		ldd r27,Z+41
 5051 1bea 280F      		add r18,r24
 5052 1bec 391F      		adc r19,r25
 5053 1bee 4A1F      		adc r20,r26
 5054 1bf0 5B1F      		adc r21,r27
 5055               	.L399:
 5056               	.LBE671:
 5057               	.LBE670:
 5058               	.LM541:
 5059 1bf2 D401      		movw r26,r8
 5060 1bf4 9A96      		adiw r26,42
 5061 1bf6 2D93      		st X+,r18
 5062 1bf8 3D93      		st X+,r19
 5063 1bfa 4D93      		st X+,r20
 5064 1bfc 5C93      		st X,r21
 5065 1bfe 9D97      		sbiw r26,42+3
 5066 1c00 DD24      		clr r13
 5067               	.LVL372:
 5068               	.LM542:
 5069 1c02 CC24      		clr r12
 5070 1c04 C394      		inc r12
 5071 1c06 00C0      		rjmp .L400
 5072               	.L401:
 5073 1c08 C482      		std Z+4,r12
 5074               	.LM543:
 5075 1c0a 8881      		ld r24,Y
 5076 1c0c 9981      		ldd r25,Y+1
 5077 1c0e 40E0      		ldi r20,lo8(0)
 5078 1c10 50E0      		ldi r21,hi8(0)
 5079 1c12 60E0      		ldi r22,hlo8(0)
 5080 1c14 70E0      		ldi r23,hhi8(0)
 5081 1c16 0E94 0000 		call move_window
 5082 1c1a 8823      		tst r24
 5083 1c1c 01F0      		breq .+2
 5084 1c1e 00C0      		rjmp .L392
 5085               	.LM544:
 5086 1c20 E881      		ld r30,Y
 5087 1c22 F981      		ldd r31,Y+1
 5088 1c24 82A5      		ldd r24,Z+42
 5089 1c26 93A5      		ldd r25,Z+43
 5090 1c28 A4A5      		ldd r26,Z+44
 5091 1c2a B5A5      		ldd r27,Z+45
 5092 1c2c 0196      		adiw r24,1
 5093 1c2e A11D      		adc r26,__zero_reg__
 5094 1c30 B11D      		adc r27,__zero_reg__
 5095 1c32 82A7      		std Z+42,r24
 5096 1c34 93A7      		std Z+43,r25
 5097 1c36 A4A7      		std Z+44,r26
 5098 1c38 B5A7      		std Z+45,r27
 5099               	.LM545:
 5100 1c3a D394      		inc r13
 5101               	.L400:
 5102 1c3c E881      		ld r30,Y
 5103 1c3e F981      		ldd r31,Y+1
 5104 1c40 8281      		ldd r24,Z+2
 5105 1c42 D816      		cp r13,r24
 5106 1c44 00F0      		brlo .L401
 5107               	.LM546:
 5108 1c46 82A5      		ldd r24,Z+42
 5109 1c48 93A5      		ldd r25,Z+43
 5110 1c4a A4A5      		ldd r26,Z+44
 5111 1c4c B5A5      		ldd r27,Z+45
 5112 1c4e 8D19      		sub r24,r13
 5113 1c50 9109      		sbc r25,__zero_reg__
 5114 1c52 A109      		sbc r26,__zero_reg__
 5115 1c54 B109      		sbc r27,__zero_reg__
 5116 1c56 82A7      		std Z+42,r24
 5117 1c58 93A7      		std Z+43,r25
 5118 1c5a A4A7      		std Z+44,r26
 5119 1c5c B5A7      		std Z+45,r27
 5120               	.LVL373:
 5121               	.L393:
 5122               	.LBE667:
 5123               	.LM547:
 5124 1c5e EA86      		std Y+10,r14
 5125 1c60 FB86      		std Y+11,r15
 5126 1c62 0C87      		std Y+12,r16
 5127 1c64 1D87      		std Y+13,r17
 5128               	.LM548:
 5129 1c66 C880      		ld r12,Y
 5130 1c68 D980      		ldd r13,Y+1
 5131               	.LBB672:
 5132               	.LBB673:
 5133               	.LM549:
 5134 1c6a 8EEF      		ldi r24,lo8(-2)
 5135 1c6c 9FEF      		ldi r25,hi8(-2)
 5136 1c6e AFEF      		ldi r26,hlo8(-2)
 5137 1c70 BFEF      		ldi r27,hhi8(-2)
 5138 1c72 E80E      		add r14,r24
 5139 1c74 F91E      		adc r15,r25
 5140 1c76 0A1F      		adc r16,r26
 5141 1c78 1B1F      		adc r17,r27
 5142               	.LVL374:
 5143               	.LM550:
 5144 1c7a F601      		movw r30,r12
 5145 1c7c 828D      		ldd r24,Z+26
 5146 1c7e 938D      		ldd r25,Z+27
 5147 1c80 A48D      		ldd r26,Z+28
 5148 1c82 B58D      		ldd r27,Z+29
 5149 1c84 0297      		sbiw r24,2
 5150 1c86 A109      		sbc r26,__zero_reg__
 5151 1c88 B109      		sbc r27,__zero_reg__
 5152 1c8a E816      		cp r14,r24
 5153 1c8c F906      		cpc r15,r25
 5154 1c8e 0A07      		cpc r16,r26
 5155 1c90 1B07      		cpc r17,r27
 5156 1c92 00F0      		brlo .L402
 5157 1c94 20E0      		ldi r18,lo8(0)
 5158 1c96 30E0      		ldi r19,hi8(0)
 5159 1c98 40E0      		ldi r20,hlo8(0)
 5160 1c9a 50E0      		ldi r21,hhi8(0)
 5161 1c9c 00C0      		rjmp .L403
 5162               	.L402:
 5163               	.LM551:
 5164 1c9e D601      		movw r26,r12
 5165 1ca0 1296      		adiw r26,2
 5166 1ca2 2C91      		ld r18,X
 5167 1ca4 30E0      		ldi r19,lo8(0)
 5168 1ca6 40E0      		ldi r20,lo8(0)
 5169 1ca8 50E0      		ldi r21,hi8(0)
 5170 1caa C801      		movw r24,r16
 5171 1cac B701      		movw r22,r14
 5172               	.LVL375:
 5173 1cae 0E94 0000 		call __mulsi3
 5174 1cb2 9B01      		movw r18,r22
 5175 1cb4 AC01      		movw r20,r24
 5176 1cb6 F601      		movw r30,r12
 5177 1cb8 86A1      		ldd r24,Z+38
 5178 1cba 97A1      		ldd r25,Z+39
 5179 1cbc A0A5      		ldd r26,Z+40
 5180 1cbe B1A5      		ldd r27,Z+41
 5181 1cc0 280F      		add r18,r24
 5182 1cc2 391F      		adc r19,r25
 5183 1cc4 4A1F      		adc r20,r26
 5184 1cc6 5B1F      		adc r21,r27
 5185               	.LVL376:
 5186               	.L403:
 5187               	.LBE673:
 5188               	.LBE672:
 5189               	.LM552:
 5190 1cc8 2E87      		std Y+14,r18
 5191 1cca 3F87      		std Y+15,r19
 5192 1ccc 488B      		std Y+16,r20
 5193 1cce 598B      		std Y+17,r21
 5194               	.LVL377:
 5195               	.L389:
 5196               	.LM553:
 5197 1cd0 6C82      		std Y+4,r6
 5198 1cd2 7D82      		std Y+5,r7
 5199               	.LM554:
 5200 1cd4 35E0      		ldi r19,5
 5201 1cd6 440C      	1:	lsl r4
 5202 1cd8 551C      		rol r5
 5203 1cda 3A95      		dec r19
 5204 1cdc 01F4      		brne 1b
 5205 1cde 8EE2      		ldi r24,lo8(46)
 5206 1ce0 90E0      		ldi r25,hi8(46)
 5207 1ce2 480E      		add r4,r24
 5208 1ce4 591E      		adc r5,r25
 5209 1ce6 8881      		ld r24,Y
 5210 1ce8 9981      		ldd r25,Y+1
 5211 1cea 840D      		add r24,r4
 5212 1cec 951D      		adc r25,r5
 5213 1cee 8A8B      		std Y+18,r24
 5214 1cf0 9B8B      		std Y+19,r25
 5215 1cf2 80E0      		ldi r24,lo8(0)
 5216 1cf4 00C0      		rjmp .L395
 5217               	.LVL378:
 5218               	.L388:
 5219               	.LM555:
 5220 1cf6 84E0      		ldi r24,lo8(4)
 5221 1cf8 00C0      		rjmp .L395
 5222               	.LVL379:
 5223               	.L391:
 5224 1cfa 82E0      		ldi r24,lo8(2)
 5225 1cfc 00C0      		rjmp .L395
 5226               	.LVL380:
 5227               	.L392:
 5228 1cfe 81E0      		ldi r24,lo8(1)
 5229               	.LVL381:
 5230               	.L395:
 5231               	/* epilogue start */
 5232               	.LM556:
 5233 1d00 DF91      		pop r29
 5234 1d02 CF91      		pop r28
 5235               	.LVL382:
 5236 1d04 1F91      		pop r17
 5237 1d06 0F91      		pop r16
 5238 1d08 FF90      		pop r15
 5239 1d0a EF90      		pop r14
 5240               	.LVL383:
 5241 1d0c DF90      		pop r13
 5242               	.LVL384:
 5243 1d0e CF90      		pop r12
 5244 1d10 BF90      		pop r11
 5245 1d12 AF90      		pop r10
 5246               	.LVL385:
 5247 1d14 9F90      		pop r9
 5248 1d16 8F90      		pop r8
 5249 1d18 7F90      		pop r7
 5250 1d1a 6F90      		pop r6
 5251               	.LVL386:
 5252 1d1c 5F90      		pop r5
 5253 1d1e 4F90      		pop r4
 5254 1d20 0895      		ret
 5255               	.LFE66:
 5258               	dir_read:
 5259               	.LFB68:
 5260               	.LM557:
 5261               	.LVL387:
 5262 1d22 CF93      		push r28
 5263 1d24 DF93      		push r29
 5264               	/* prologue: function */
 5265               	/* frame size = 0 */
 5266 1d26 EC01      		movw r28,r24
 5267               	.LM558:
 5268 1d28 94E0      		ldi r25,lo8(4)
 5269               	.LVL388:
 5270 1d2a 00C0      		rjmp .L406
 5271               	.LVL389:
 5272               	.L411:
 5273               	.LM559:
 5274 1d2c 8881      		ld r24,Y
 5275 1d2e 9981      		ldd r25,Y+1
 5276 1d30 0E94 0000 		call move_window
 5277               	.LVL390:
 5278 1d34 982F      		mov r25,r24
 5279               	.LVL391:
 5280               	.LM560:
 5281 1d36 8823      		tst r24
 5282 1d38 01F4      		brne .L407
 5283               	.LVL392:
 5284               	.LM561:
 5285 1d3a EA89      		ldd r30,Y+18
 5286 1d3c FB89      		ldd r31,Y+19
 5287               	.LVL393:
 5288               	.LM562:
 5289 1d3e 8081      		ld r24,Z
 5290               	.LVL394:
 5291               	.LM563:
 5292 1d40 8823      		tst r24
 5293 1d42 01F0      		breq .L408
 5294               	.LM564:
 5295 1d44 853E      		cpi r24,lo8(-27)
 5296 1d46 01F0      		breq .L409
 5297 1d48 8E32      		cpi r24,lo8(46)
 5298 1d4a 01F0      		breq .L409
 5299 1d4c 8385      		ldd r24,Z+11
 5300               	.LVL395:
 5301 1d4e 83FF      		sbrs r24,3
 5302 1d50 00C0      		rjmp .L410
 5303               	.LVL396:
 5304               	.L409:
 5305               	.LM565:
 5306 1d52 CE01      		movw r24,r28
 5307               	.LVL397:
 5308 1d54 60E0      		ldi r22,lo8(0)
 5309 1d56 0E94 0000 		call dir_next
 5310               	.LVL398:
 5311 1d5a 982F      		mov r25,r24
 5312               	.LVL399:
 5313               	.LM566:
 5314 1d5c 8823      		tst r24
 5315 1d5e 01F4      		brne .L407
 5316               	.LVL400:
 5317               	.L406:
 5318               	.LM567:
 5319 1d60 4E85      		ldd r20,Y+14
 5320 1d62 5F85      		ldd r21,Y+15
 5321 1d64 6889      		ldd r22,Y+16
 5322 1d66 7989      		ldd r23,Y+17
 5323 1d68 4115      		cp r20,__zero_reg__
 5324 1d6a 5105      		cpc r21,__zero_reg__
 5325 1d6c 6105      		cpc r22,__zero_reg__
 5326 1d6e 7105      		cpc r23,__zero_reg__
 5327 1d70 01F4      		brne .L411
 5328               	.LM568:
 5329 1d72 9923      		tst r25
 5330 1d74 01F0      		breq .L410
 5331               	.LVL401:
 5332               	.L407:
 5333 1d76 1E86      		std Y+14,__zero_reg__
 5334 1d78 1F86      		std Y+15,__zero_reg__
 5335 1d7a 188A      		std Y+16,__zero_reg__
 5336 1d7c 198A      		std Y+17,__zero_reg__
 5337               	.L410:
 5338               	.LM569:
 5339 1d7e 892F      		mov r24,r25
 5340               	.LVL402:
 5341               	/* epilogue start */
 5342 1d80 DF91      		pop r29
 5343 1d82 CF91      		pop r28
 5344               	.LVL403:
 5345 1d84 0895      		ret
 5346               	.LVL404:
 5347               	.L408:
 5348               	.LM570:
 5349 1d86 94E0      		ldi r25,lo8(4)
 5350 1d88 00C0      		rjmp .L407
 5351               	.LFE68:
 5354               	dir_register:
 5355               	.LFB69:
 5356               	.LM571:
 5357               	.LVL405:
 5358 1d8a CF93      		push r28
 5359 1d8c DF93      		push r29
 5360               	/* prologue: function */
 5361               	/* frame size = 0 */
 5362 1d8e EC01      		movw r28,r24
 5363               	.LM572:
 5364 1d90 60E0      		ldi r22,lo8(0)
 5365 1d92 70E0      		ldi r23,hi8(0)
 5366 1d94 0E94 0000 		call dir_seek
 5367               	.LVL406:
 5368               	.L425:
 5369 1d98 482F      		mov r20,r24
 5370               	.LVL407:
 5371               	.LM573:
 5372 1d9a 8823      		tst r24
 5373 1d9c 01F4      		brne .L414
 5374               	.LVL408:
 5375               	.LM574:
 5376 1d9e 4E85      		ldd r20,Y+14
 5377 1da0 5F85      		ldd r21,Y+15
 5378 1da2 6889      		ldd r22,Y+16
 5379 1da4 7989      		ldd r23,Y+17
 5380 1da6 8881      		ld r24,Y
 5381 1da8 9981      		ldd r25,Y+1
 5382               	.LVL409:
 5383 1daa 0E94 0000 		call move_window
 5384 1dae 482F      		mov r20,r24
 5385               	.LVL410:
 5386               	.LM575:
 5387 1db0 8823      		tst r24
 5388 1db2 01F4      		brne .L414
 5389               	.LVL411:
 5390               	.LM576:
 5391 1db4 EA89      		ldd r30,Y+18
 5392 1db6 FB89      		ldd r31,Y+19
 5393 1db8 E081      		ld r30,Z
 5394               	.LVL412:
 5395               	.LM577:
 5396 1dba E53E      		cpi r30,lo8(-27)
 5397 1dbc 01F0      		breq .L415
 5398 1dbe EE23      		tst r30
 5399 1dc0 01F0      		breq .L415
 5400               	.LM578:
 5401 1dc2 CE01      		movw r24,r28
 5402               	.LVL413:
 5403 1dc4 61E0      		ldi r22,lo8(1)
 5404 1dc6 0E94 0000 		call dir_next
 5405               	.LVL414:
 5406 1dca 00C0      		rjmp .L425
 5407               	.LVL415:
 5408               	.L421:
 5409               	.LM579:
 5410 1dcc 6A89      		ldd r22,Y+18
 5411 1dce 7B89      		ldd r23,Y+19
 5412               	.LVL416:
 5413 1dd0 FB01      		movw r30,r22
 5414 1dd2 80E2      		ldi r24,lo8(32)
 5415 1dd4 90E0      		ldi r25,hi8(32)
 5416               	.LVL417:
 5417 1dd6 00C0      		rjmp .L417
 5418               	.LVL418:
 5419               	.L418:
 5420               	.LBB674:
 5421               	.LBB675:
 5422               	.LM580:
 5423 1dd8 1192      		st Z+,__zero_reg__
 5424               	.L417:
 5425 1dda 0197      		sbiw r24,1
 5426 1ddc 2FEF      		ldi r18,hi8(-1)
 5427 1dde 8F3F      		cpi r24,lo8(-1)
 5428 1de0 9207      		cpc r25,r18
 5429 1de2 01F4      		brne .L418
 5430               	.LBE675:
 5431               	.LBE674:
 5432               	.LM581:
 5433 1de4 8C89      		ldd r24,Y+20
 5434               	.LVL419:
 5435 1de6 9D89      		ldd r25,Y+21
 5436               	.LVL420:
 5437 1de8 9C01      		movw r18,r24
 5438               	.LVL421:
 5439 1dea D901      		movw r26,r18
 5440               	.LVL422:
 5441 1dec FB01      		movw r30,r22
 5442 1dee 2BE0      		ldi r18,lo8(11)
 5443 1df0 30E0      		ldi r19,hi8(11)
 5444               	.LVL423:
 5445 1df2 00C0      		rjmp .L419
 5446               	.L420:
 5447               	.LBB676:
 5448               	.LBB677:
 5449               	.LM582:
 5450 1df4 8D91      		ld r24,X+
 5451 1df6 8193      		st Z+,r24
 5452               	.L419:
 5453 1df8 2150      		subi r18,lo8(-(-1))
 5454 1dfa 3040      		sbci r19,hi8(-(-1))
 5455 1dfc 8FEF      		ldi r24,hi8(-1)
 5456 1dfe 2F3F      		cpi r18,lo8(-1)
 5457 1e00 3807      		cpc r19,r24
 5458 1e02 01F4      		brne .L420
 5459               	.LBE677:
 5460               	.LBE676:
 5461               	.LM583:
 5462 1e04 EC89      		ldd r30,Y+20
 5463 1e06 FD89      		ldd r31,Y+21
 5464               	.LVL424:
 5465 1e08 8385      		ldd r24,Z+11
 5466 1e0a 8871      		andi r24,lo8(24)
 5467 1e0c FB01      		movw r30,r22
 5468 1e0e 8487      		std Z+12,r24
 5469               	.LM584:
 5470 1e10 E881      		ld r30,Y
 5471 1e12 F981      		ldd r31,Y+1
 5472 1e14 81E0      		ldi r24,lo8(1)
 5473 1e16 8483      		std Z+4,r24
 5474               	.LVL425:
 5475               	.L414:
 5476               	.LM585:
 5477 1e18 842F      		mov r24,r20
 5478               	/* epilogue start */
 5479 1e1a DF91      		pop r29
 5480 1e1c CF91      		pop r28
 5481               	.LVL426:
 5482 1e1e 0895      		ret
 5483               	.LVL427:
 5484               	.L415:
 5485               	.LM586:
 5486 1e20 4E85      		ldd r20,Y+14
 5487 1e22 5F85      		ldd r21,Y+15
 5488 1e24 6889      		ldd r22,Y+16
 5489 1e26 7989      		ldd r23,Y+17
 5490 1e28 8881      		ld r24,Y
 5491 1e2a 9981      		ldd r25,Y+1
 5492               	.LVL428:
 5493 1e2c 0E94 0000 		call move_window
 5494               	.LVL429:
 5495 1e30 482F      		mov r20,r24
 5496               	.LVL430:
 5497               	.LM587:
 5498 1e32 8823      		tst r24
 5499 1e34 01F0      		breq .L421
 5500               	.LVL431:
 5501 1e36 00C0      		rjmp .L414
 5502               	.LFE69:
 5505               	dir_remove:
 5506               	.LFB70:
 5507               	.LM588:
 5508               	.LVL432:
 5509 1e38 CF93      		push r28
 5510 1e3a DF93      		push r29
 5511               	/* prologue: function */
 5512               	/* frame size = 0 */
 5513 1e3c EC01      		movw r28,r24
 5514               	.LM589:
 5515 1e3e 6C81      		ldd r22,Y+4
 5516 1e40 7D81      		ldd r23,Y+5
 5517 1e42 0E94 0000 		call dir_seek
 5518               	.LVL433:
 5519 1e46 982F      		mov r25,r24
 5520               	.LVL434:
 5521               	.LM590:
 5522 1e48 8823      		tst r24
 5523 1e4a 01F4      		brne .L427
 5524               	.LVL435:
 5525               	.LM591:
 5526 1e4c 4E85      		ldd r20,Y+14
 5527 1e4e 5F85      		ldd r21,Y+15
 5528 1e50 6889      		ldd r22,Y+16
 5529 1e52 7989      		ldd r23,Y+17
 5530 1e54 8881      		ld r24,Y
 5531 1e56 9981      		ldd r25,Y+1
 5532               	.LVL436:
 5533 1e58 0E94 0000 		call move_window
 5534               	.LVL437:
 5535 1e5c 982F      		mov r25,r24
 5536               	.LVL438:
 5537               	.LM592:
 5538 1e5e 8823      		tst r24
 5539 1e60 01F4      		brne .L427
 5540               	.LVL439:
 5541               	.LM593:
 5542 1e62 EA89      		ldd r30,Y+18
 5543 1e64 FB89      		ldd r31,Y+19
 5544 1e66 85EE      		ldi r24,lo8(-27)
 5545               	.LVL440:
 5546 1e68 8083      		st Z,r24
 5547               	.LM594:
 5548 1e6a E881      		ld r30,Y
 5549 1e6c F981      		ldd r31,Y+1
 5550 1e6e 81E0      		ldi r24,lo8(1)
 5551 1e70 8483      		std Z+4,r24
 5552               	.LVL441:
 5553               	.L427:
 5554               	.LM595:
 5555 1e72 892F      		mov r24,r25
 5556               	/* epilogue start */
 5557 1e74 DF91      		pop r29
 5558 1e76 CF91      		pop r28
 5559               	.LVL442:
 5560 1e78 0895      		ret
 5561               	.LFE70:
 5564               	get_fileinfo:
 5565               	.LFB72:
 5566               	.LM596:
 5567               	.LVL443:
 5568 1e7a EF92      		push r14
 5569 1e7c FF92      		push r15
 5570 1e7e 0F93      		push r16
 5571 1e80 1F93      		push r17
 5572 1e82 CF93      		push r28
 5573 1e84 DF93      		push r29
 5574               	/* prologue: function */
 5575               	/* frame size = 0 */
 5576 1e86 FC01      		movw r30,r24
 5577 1e88 7B01      		movw r14,r22
 5578               	.LM597:
 5579 1e8a EB01      		movw r28,r22
 5580               	.LVL444:
 5581 1e8c 2996      		adiw r28,9
 5582               	.LM598:
 5583 1e8e 8685      		ldd r24,Z+14
 5584 1e90 9785      		ldd r25,Z+15
 5585 1e92 A089      		ldd r26,Z+16
 5586 1e94 B189      		ldd r27,Z+17
 5587               	.LVL445:
 5588 1e96 0097      		sbiw r24,0
 5589 1e98 A105      		cpc r26,__zero_reg__
 5590 1e9a B105      		cpc r27,__zero_reg__
 5591 1e9c 01F4      		brne .+2
 5592 1e9e 00C0      		rjmp .L430
 5593               	.LM599:
 5594 1ea0 6289      		ldd r22,Z+18
 5595 1ea2 7389      		ldd r23,Z+19
 5596               	.LVL446:
 5597 1ea4 80E0      		ldi r24,lo8(0)
 5598 1ea6 90E0      		ldi r25,hi8(0)
 5599               	.LVL447:
 5600               	.L433:
 5601               	.LM600:
 5602 1ea8 FB01      		movw r30,r22
 5603               	.LVL448:
 5604 1eaa E80F      		add r30,r24
 5605 1eac F91F      		adc r31,r25
 5606 1eae E081      		ld r30,Z
 5607               	.LVL449:
 5608               	.LM601:
 5609 1eb0 E032      		cpi r30,lo8(32)
 5610 1eb2 01F0      		breq .L431
 5611               	.LM602:
 5612 1eb4 E530      		cpi r30,lo8(5)
 5613 1eb6 01F4      		brne .L432
 5614 1eb8 E5EE      		ldi r30,lo8(-27)
 5615               	.L432:
 5616               	.LM603:
 5617 1eba E993      		st Y+,r30
 5618               	.LM604:
 5619 1ebc 0196      		adiw r24,1
 5620 1ebe 8830      		cpi r24,8
 5621 1ec0 9105      		cpc r25,__zero_reg__
 5622 1ec2 01F4      		brne .L433
 5623               	.L431:
 5624               	.LM605:
 5625 1ec4 DB01      		movw r26,r22
 5626 1ec6 1896      		adiw r26,8
 5627 1ec8 8C91      		ld r24,X
 5628               	.LVL450:
 5629 1eca 8032      		cpi r24,lo8(32)
 5630 1ecc 01F4      		brne .L434
 5631 1ece 8E01      		movw r16,r28
 5632 1ed0 00C0      		rjmp .L435
 5633               	.LVL451:
 5634               	.L434:
 5635               	.LM606:
 5636 1ed2 8EE2      		ldi r24,lo8(46)
 5637 1ed4 FE01      		movw r30,r28
 5638               	.LVL452:
 5639 1ed6 8193      		st Z+,r24
 5640 1ed8 8F01      		movw r16,r30
 5641               	.LVL453:
 5642 1eda FB01      		movw r30,r22
 5643               	.LM607:
 5644 1edc 9E01      		movw r18,r28
 5645 1ede 2C5F      		subi r18,lo8(-(4))
 5646 1ee0 3F4F      		sbci r19,hi8(-(4))
 5647               	.LVL454:
 5648               	.L436:
 5649               	.LM608:
 5650 1ee2 8085      		ldd r24,Z+8
 5651               	.LM609:
 5652 1ee4 8032      		cpi r24,lo8(32)
 5653 1ee6 01F0      		breq .L435
 5654               	.LM610:
 5655 1ee8 D801      		movw r26,r16
 5656 1eea 8D93      		st X+,r24
 5657 1eec 8D01      		movw r16,r26
 5658 1eee 3196      		adiw r30,1
 5659               	.LM611:
 5660 1ef0 A217      		cp r26,r18
 5661 1ef2 B307      		cpc r27,r19
 5662 1ef4 01F4      		brne .L436
 5663               	.LVL455:
 5664               	.L435:
 5665               	.LM612:
 5666 1ef6 FB01      		movw r30,r22
 5667 1ef8 8385      		ldd r24,Z+11
 5668               	.LVL456:
 5669 1efa D701      		movw r26,r14
 5670 1efc 1896      		adiw r26,8
 5671 1efe 8C93      		st X,r24
 5672               	.LM613:
 5673 1f00 278D      		ldd r18,Z+31
 5674 1f02 30E0      		ldi r19,lo8(0)
 5675 1f04 40E0      		ldi r20,lo8(0)
 5676 1f06 50E0      		ldi r21,hi8(0)
 5677 1f08 522F      		mov r21,r18
 5678 1f0a 4427      		clr r20
 5679 1f0c 3327      		clr r19
 5680 1f0e 2227      		clr r18
 5681 1f10 868D      		ldd r24,Z+30
 5682 1f12 90E0      		ldi r25,lo8(0)
 5683 1f14 A0E0      		ldi r26,lo8(0)
 5684 1f16 B0E0      		ldi r27,hi8(0)
 5685 1f18 DC01      		movw r26,r24
 5686 1f1a 9927      		clr r25
 5687 1f1c 8827      		clr r24
 5688 1f1e 282B      		or r18,r24
 5689 1f20 392B      		or r19,r25
 5690 1f22 4A2B      		or r20,r26
 5691 1f24 5B2B      		or r21,r27
 5692 1f26 848D      		ldd r24,Z+28
 5693 1f28 90E0      		ldi r25,lo8(0)
 5694 1f2a A0E0      		ldi r26,lo8(0)
 5695 1f2c B0E0      		ldi r27,hi8(0)
 5696 1f2e 282B      		or r18,r24
 5697 1f30 392B      		or r19,r25
 5698 1f32 4A2B      		or r20,r26
 5699 1f34 5B2B      		or r21,r27
 5700 1f36 958D      		ldd r25,Z+29
 5701 1f38 80E0      		ldi r24,lo8(0)
 5702 1f3a A0E0      		ldi r26,lo8(0)
 5703 1f3c B0E0      		ldi r27,hi8(0)
 5704 1f3e 282B      		or r18,r24
 5705 1f40 392B      		or r19,r25
 5706 1f42 4A2B      		or r20,r26
 5707 1f44 5B2B      		or r21,r27
 5708 1f46 F701      		movw r30,r14
 5709 1f48 2083      		st Z,r18
 5710 1f4a 3183      		std Z+1,r19
 5711 1f4c 4283      		std Z+2,r20
 5712 1f4e 5383      		std Z+3,r21
 5713               	.LM614:
 5714 1f50 DB01      		movw r26,r22
 5715 1f52 5996      		adiw r26,25
 5716 1f54 9C91      		ld r25,X
 5717 1f56 5997      		sbiw r26,25
 5718 1f58 80E0      		ldi r24,lo8(0)
 5719 1f5a 5896      		adiw r26,24
 5720 1f5c 2C91      		ld r18,X
 5721 1f5e 5897      		sbiw r26,24
 5722 1f60 30E0      		ldi r19,lo8(0)
 5723 1f62 822B      		or r24,r18
 5724 1f64 932B      		or r25,r19
 5725 1f66 8483      		std Z+4,r24
 5726 1f68 9583      		std Z+5,r25
 5727               	.LM615:
 5728 1f6a 5796      		adiw r26,23
 5729 1f6c 9C91      		ld r25,X
 5730 1f6e 5797      		sbiw r26,23
 5731 1f70 80E0      		ldi r24,lo8(0)
 5732 1f72 5696      		adiw r26,22
 5733 1f74 2C91      		ld r18,X
 5734 1f76 30E0      		ldi r19,lo8(0)
 5735 1f78 822B      		or r24,r18
 5736 1f7a 932B      		or r25,r19
 5737 1f7c 8683      		std Z+6,r24
 5738 1f7e 9783      		std Z+7,r25
 5739 1f80 E801      		movw r28,r16
 5740               	.LVL457:
 5741               	.L430:
 5742               	.LM616:
 5743 1f82 1882      		st Y,__zero_reg__
 5744               	/* epilogue start */
 5745               	.LM617:
 5746 1f84 DF91      		pop r29
 5747 1f86 CF91      		pop r28
 5748               	.LVL458:
 5749 1f88 1F91      		pop r17
 5750 1f8a 0F91      		pop r16
 5751               	.LVL459:
 5752 1f8c FF90      		pop r15
 5753 1f8e EF90      		pop r14
 5754               	.LVL460:
 5755 1f90 0895      		ret
 5756               	.LFE72:
 5758               		.data
 5759               	.LC0:
 5760 0000 2022 2A2B 		.string	" \"*+,[=]|\177"
 5760      2C5B 3D5D 
 5760      7C7F 00
 5761               		.text
 5763               	follow_path:
 5764               	.LFB73:
 5765               	.LM618:
 5766               	.LVL461:
 5767 1f92 5F92      		push r5
 5768 1f94 6F92      		push r6
 5769 1f96 7F92      		push r7
 5770 1f98 8F92      		push r8
 5771 1f9a 9F92      		push r9
 5772 1f9c AF92      		push r10
 5773 1f9e BF92      		push r11
 5774 1fa0 CF92      		push r12
 5775 1fa2 DF92      		push r13
 5776 1fa4 EF92      		push r14
 5777 1fa6 FF92      		push r15
 5778 1fa8 0F93      		push r16
 5779 1faa 1F93      		push r17
 5780 1fac CF93      		push r28
 5781 1fae DF93      		push r29
 5782               	/* prologue: function */
 5783               	/* frame size = 0 */
 5784 1fb0 EC01      		movw r28,r24
 5785 1fb2 7B01      		movw r14,r22
 5786 1fb4 00C0      		rjmp .L441
 5787               	.LVL462:
 5788               	.L442:
 5789               	.LM619:
 5790 1fb6 0894      		sec
 5791 1fb8 E11C      		adc r14,__zero_reg__
 5792 1fba F11C      		adc r15,__zero_reg__
 5793               	.LVL463:
 5794               	.L441:
 5795 1fbc F701      		movw r30,r14
 5796 1fbe 8081      		ld r24,Z
 5797 1fc0 8032      		cpi r24,lo8(32)
 5798 1fc2 01F0      		breq .L442
 5799               	.LM620:
 5800 1fc4 8F32      		cpi r24,lo8(47)
 5801 1fc6 01F0      		breq .L443
 5802 1fc8 8C35      		cpi r24,lo8(92)
 5803 1fca 01F4      		brne .L444
 5804               	.L443:
 5805               	.LM621:
 5806 1fcc 0894      		sec
 5807 1fce E11C      		adc r14,__zero_reg__
 5808 1fd0 F11C      		adc r15,__zero_reg__
 5809               	.LVL464:
 5810               	.L444:
 5811               	.LM622:
 5812 1fd2 1E82      		std Y+6,__zero_reg__
 5813 1fd4 1F82      		std Y+7,__zero_reg__
 5814 1fd6 1886      		std Y+8,__zero_reg__
 5815 1fd8 1986      		std Y+9,__zero_reg__
 5816               	.LM623:
 5817 1fda F701      		movw r30,r14
 5818 1fdc 8081      		ld r24,Z
 5819 1fde 8032      		cpi r24,lo8(32)
 5820 1fe0 00F4      		brsh .L445
 5821               	.LM624:
 5822 1fe2 CE01      		movw r24,r28
 5823 1fe4 60E0      		ldi r22,lo8(0)
 5824 1fe6 70E0      		ldi r23,hi8(0)
 5825 1fe8 0E94 0000 		call dir_seek
 5826               	.LM625:
 5827 1fec 1A8A      		std Y+18,__zero_reg__
 5828 1fee 1B8A      		std Y+19,__zero_reg__
 5829 1ff0 00C0      		rjmp .L446
 5830               	.LVL465:
 5831               	.L445:
 5832               	.LBB678:
 5833               	.LBB679:
 5834               	.LBB683:
 5835               	.LBB684:
 5836               	.LM626:
 5837 1ff2 00E2      		ldi r16,lo8(32)
 5838               	.LBE684:
 5839               	.LBE683:
 5840               	.LM627:
 5841 1ff4 45E0      		ldi r20,lo8(5)
 5842 1ff6 542E      		mov r5,r20
 5843               	.LVL466:
 5844               	.L481:
 5845               	.LM628:
 5846 1ff8 AC89      		ldd r26,Y+20
 5847 1ffa BD89      		ldd r27,Y+21
 5848               	.LVL467:
 5849 1ffc FD01      		movw r30,r26
 5850               	.LVL468:
 5851 1ffe 8BE0      		ldi r24,lo8(11)
 5852 2000 90E0      		ldi r25,hi8(11)
 5853               	.LVL469:
 5854 2002 00C0      		rjmp .L447
 5855               	.LVL470:
 5856               	.L448:
 5857               	.LBB682:
 5858               	.LBB685:
 5859               	.LM629:
 5860 2004 0193      		st Z+,r16
 5861               	.L447:
 5862 2006 0197      		sbiw r24,1
 5863 2008 2FEF      		ldi r18,hi8(-1)
 5864 200a 8F3F      		cpi r24,lo8(-1)
 5865 200c 9207      		cpc r25,r18
 5866 200e 01F4      		brne .L448
 5867 2010 40E0      		ldi r20,lo8(0)
 5868 2012 50E0      		ldi r21,hi8(0)
 5869               	.LVL471:
 5870 2014 CC24      		clr r12
 5871 2016 DD24      		clr r13
 5872 2018 38E0      		ldi r19,lo8(8)
 5873 201a A32E      		mov r10,r19
 5874 201c B12C      		mov r11,__zero_reg__
 5875 201e 10E0      		ldi r17,lo8(0)
 5876               	.LVL472:
 5877               	.L480:
 5878               	.LBE685:
 5879               	.LBE682:
 5880               	.LM630:
 5881 2020 F701      		movw r30,r14
 5882 2022 EC0D      		add r30,r12
 5883 2024 FD1D      		adc r31,r13
 5884 2026 2081      		ld r18,Z
 5885 2028 0894      		sec
 5886 202a C11C      		adc r12,__zero_reg__
 5887 202c D11C      		adc r13,__zero_reg__
 5888               	.LM631:
 5889 202e 2132      		cpi r18,lo8(33)
 5890 2030 00F4      		brsh .+2
 5891 2032 00C0      		rjmp .L449
 5892 2034 2F32      		cpi r18,lo8(47)
 5893 2036 01F4      		brne .+2
 5894 2038 00C0      		rjmp .L450
 5895 203a 2C35      		cpi r18,lo8(92)
 5896 203c 01F4      		brne .+2
 5897 203e 00C0      		rjmp .L450
 5898               	.LM632:
 5899 2040 2E32      		cpi r18,lo8(46)
 5900 2042 01F0      		breq .L451
 5901 2044 4A15      		cp r20,r10
 5902 2046 5B05      		cpc r21,r11
 5903 2048 04F0      		brlt .L452
 5904               	.L451:
 5905               	.LM633:
 5906 204a 88E0      		ldi r24,lo8(8)
 5907 204c A816      		cp r10,r24
 5908 204e B104      		cpc r11,__zero_reg__
 5909               	.LVL473:
 5910 2050 01F0      		breq .+2
 5911 2052 00C0      		rjmp .L453
 5912 2054 2E32      		cpi r18,lo8(46)
 5913 2056 01F0      		breq .+2
 5914 2058 00C0      		rjmp .L453
 5915               	.LM634:
 5916 205a 110F      		lsl r17
 5917 205c 110F      		lsl r17
 5918 205e 48E0      		ldi r20,lo8(8)
 5919 2060 50E0      		ldi r21,hi8(8)
 5920 2062 2BE0      		ldi r18,lo8(11)
 5921 2064 A22E      		mov r10,r18
 5922 2066 B12C      		mov r11,__zero_reg__
 5923               	.LVL474:
 5924 2068 00C0      		rjmp .L480
 5925               	.LVL475:
 5926               	.L452:
 5927               	.LM635:
 5928 206a 27FD      		sbrc r18,7
 5929               	.LM636:
 5930 206c 1360      		ori r17,lo8(3)
 5931               	.L455:
 5932               	.LM637:
 5933 206e 822F      		mov r24,r18
 5934               	.LVL476:
 5935 2070 8158      		subi r24,lo8(-(127))
 5936 2072 8F31      		cpi r24,lo8(31)
 5937 2074 00F0      		brlo .L456
 5938 2076 8F55      		subi r24,lo8(-(-95))
 5939 2078 8D31      		cpi r24,lo8(29)
 5940 207a 00F4      		brsh .L457
 5941               	.L456:
 5942               	.LM638:
 5943 207c F701      		movw r30,r14
 5944 207e EC0D      		add r30,r12
 5945 2080 FD1D      		adc r31,r13
 5946 2082 3081      		ld r19,Z
 5947               	.LM639:
 5948 2084 832F      		mov r24,r19
 5949 2086 8054      		subi r24,lo8(-(-64))
 5950 2088 8F33      		cpi r24,lo8(63)
 5951 208a 00F0      		brlo .L458
 5952 208c 8054      		subi r24,lo8(-(-64))
 5953 208e 8D37      		cpi r24,lo8(125)
 5954 2090 00F0      		brlo .+2
 5955 2092 00C0      		rjmp .L453
 5956               	.L458:
 5957 2094 C501      		movw r24,r10
 5958 2096 0197      		sbiw r24,1
 5959 2098 4817      		cp r20,r24
 5960 209a 5907      		cpc r21,r25
 5961 209c 04F0      		brlt .+2
 5962 209e 00C0      		rjmp .L453
 5963               	.LM640:
 5964 20a0 0894      		sec
 5965 20a2 C11C      		adc r12,__zero_reg__
 5966 20a4 D11C      		adc r13,__zero_reg__
 5967               	.LM641:
 5968 20a6 FD01      		movw r30,r26
 5969 20a8 E40F      		add r30,r20
 5970 20aa F51F      		adc r31,r21
 5971 20ac 2083      		st Z,r18
 5972 20ae CA01      		movw r24,r20
 5973 20b0 0196      		adiw r24,1
 5974               	.LVL477:
 5975               	.LM642:
 5976 20b2 FD01      		movw r30,r26
 5977 20b4 E80F      		add r30,r24
 5978 20b6 F91F      		adc r31,r25
 5979 20b8 3083      		st Z,r19
 5980 20ba AC01      		movw r20,r24
 5981 20bc 00C0      		rjmp .L482
 5982               	.LVL478:
 5983               	.L457:
 5984               	.LM643:
 5985 20be 622F      		mov r22,r18
 5986 20c0 70E0      		ldi r23,lo8(0)
 5987 20c2 E0E0      		ldi r30,lo8(.LC0)
 5988 20c4 F0E0      		ldi r31,hi8(.LC0)
 5989               	.LVL479:
 5990 20c6 00C0      		rjmp .L459
 5991               	.L461:
 5992               	.LBB680:
 5993               	.LBB681:
 5994               	.LM644:
 5995 20c8 3196      		adiw r30,1
 5996               	.L459:
 5997 20ca 8081      		ld r24,Z
 5998 20cc 8823      		tst r24
 5999 20ce 01F0      		breq .L460
 6000 20d0 90E0      		ldi r25,lo8(0)
 6001 20d2 8617      		cp r24,r22
 6002 20d4 9707      		cpc r25,r23
 6003 20d6 01F4      		brne .L461
 6004 20d8 00C0      		rjmp .L453
 6005               	.L460:
 6006               	.LBE681:
 6007               	.LBE680:
 6008               	.LM645:
 6009 20da 822F      		mov r24,r18
 6010 20dc 8154      		subi r24,lo8(-(-65))
 6011 20de 8A31      		cpi r24,lo8(26)
 6012 20e0 00F4      		brsh .L462
 6013               	.LM646:
 6014 20e2 1260      		ori r17,lo8(2)
 6015 20e4 00C0      		rjmp .L463
 6016               	.L462:
 6017               	.LM647:
 6018 20e6 822F      		mov r24,r18
 6019 20e8 8156      		subi r24,lo8(-(-97))
 6020 20ea 8A31      		cpi r24,lo8(26)
 6021 20ec 00F4      		brsh .L463
 6022               	.LM648:
 6023 20ee 1160      		ori r17,lo8(1)
 6024 20f0 2052      		subi r18,lo8(-(-32))
 6025               	.L463:
 6026               	.LM649:
 6027 20f2 FD01      		movw r30,r26
 6028               	.LVL480:
 6029 20f4 E40F      		add r30,r20
 6030 20f6 F51F      		adc r31,r21
 6031 20f8 2083      		st Z,r18
 6032               	.LVL481:
 6033               	.L482:
 6034 20fa 4F5F      		subi r20,lo8(-(1))
 6035 20fc 5F4F      		sbci r21,hi8(-(1))
 6036 20fe 00C0      		rjmp .L480
 6037               	.LVL482:
 6038               	.L449:
 6039 2100 912F      		mov r25,r17
 6040 2102 64E0      		ldi r22,lo8(4)
 6041               	.LVL483:
 6042               	.L476:
 6043               	.LM650:
 6044 2104 452B      		or r20,r21
 6045 2106 01F4      		brne .+2
 6046 2108 00C0      		rjmp .L453
 6047               	.LM651:
 6048 210a 8C91      		ld r24,X
 6049               	.LVL484:
 6050 210c 853E      		cpi r24,lo8(-27)
 6051 210e 01F4      		brne .L464
 6052 2110 5C92      		st X,r5
 6053               	.L464:
 6054               	.LM652:
 6055 2112 E8E0      		ldi r30,lo8(8)
 6056 2114 AE16      		cp r10,r30
 6057 2116 B104      		cpc r11,__zero_reg__
 6058 2118 01F4      		brne .L465
 6059 211a 912F      		mov r25,r17
 6060 211c 990F      		lsl r25
 6061 211e 990F      		lsl r25
 6062               	.LVL485:
 6063               	.L465:
 6064               	.LM653:
 6065 2120 292F      		mov r18,r25
 6066 2122 30E0      		ldi r19,lo8(0)
 6067               	.LVL486:
 6068 2124 C901      		movw r24,r18
 6069 2126 8370      		andi r24,lo8(3)
 6070 2128 9070      		andi r25,hi8(3)
 6071 212a 0197      		sbiw r24,1
 6072 212c 01F4      		brne .L466
 6073 212e 6061      		ori r22,lo8(16)
 6074               	.L466:
 6075               	.LM654:
 6076 2130 2C70      		andi r18,lo8(12)
 6077 2132 3070      		andi r19,hi8(12)
 6078 2134 2430      		cpi r18,4
 6079 2136 3105      		cpc r19,__zero_reg__
 6080 2138 01F4      		brne .L467
 6081 213a 6860      		ori r22,lo8(8)
 6082               	.L467:
 6083               	.LM655:
 6084 213c 1B96      		adiw r26,11
 6085 213e 6C93      		st X,r22
 6086               	.LBE679:
 6087               	.LBE678:
 6088               	.LBB687:
 6089               	.LM656:
 6090 2140 CE01      		movw r24,r28
 6091 2142 60E0      		ldi r22,lo8(0)
 6092 2144 70E0      		ldi r23,hi8(0)
 6093               	.LVL487:
 6094 2146 0E94 0000 		call dir_seek
 6095               	.LVL488:
 6096               	.L483:
 6097 214a 482F      		mov r20,r24
 6098               	.LVL489:
 6099               	.LBB688:
 6100               	.LM657:
 6101 214c 8823      		tst r24
 6102 214e 01F4      		brne .L468
 6103               	.LVL490:
 6104               	.LBE688:
 6105               	.LM658:
 6106 2150 4E85      		ldd r20,Y+14
 6107 2152 5F85      		ldd r21,Y+15
 6108 2154 6889      		ldd r22,Y+16
 6109 2156 7989      		ldd r23,Y+17
 6110 2158 8881      		ld r24,Y
 6111 215a 9981      		ldd r25,Y+1
 6112               	.LVL491:
 6113 215c 0E94 0000 		call move_window
 6114 2160 482F      		mov r20,r24
 6115               	.LVL492:
 6116               	.LBB691:
 6117               	.LM659:
 6118 2162 8823      		tst r24
 6119 2164 01F4      		brne .L468
 6120               	.LVL493:
 6121               	.LM660:
 6122 2166 EA89      		ldd r30,Y+18
 6123 2168 FB89      		ldd r31,Y+19
 6124               	.LVL494:
 6125               	.LM661:
 6126 216a 8081      		ld r24,Z
 6127               	.LVL495:
 6128 216c 8823      		tst r24
 6129 216e 01F4      		brne .L469
 6130 2170 44E0      		ldi r20,lo8(4)
 6131 2172 00C0      		rjmp .L468
 6132               	.L469:
 6133               	.LM662:
 6134 2174 8385      		ldd r24,Z+11
 6135 2176 83FD      		sbrc r24,3
 6136 2178 00C0      		rjmp .L470
 6137 217a DF01      		movw r26,r30
 6138               	.LVL496:
 6139 217c 8C89      		ldd r24,Y+20
 6140               	.LVL497:
 6141 217e 9D89      		ldd r25,Y+21
 6142               	.LVL498:
 6143 2180 9C01      		movw r18,r24
 6144               	.LVL499:
 6145 2182 F901      		movw r30,r18
 6146               	.LVL500:
 6147 2184 2BE0      		ldi r18,lo8(11)
 6148 2186 30E0      		ldi r19,hi8(11)
 6149               	.LVL501:
 6150               	.L471:
 6151               	.LBB689:
 6152               	.LBB690:
 6153               	.LM663:
 6154 2188 2150      		subi r18,lo8(-(-1))
 6155 218a 3040      		sbci r19,hi8(-(-1))
 6156 218c 8FEF      		ldi r24,hi8(-1)
 6157 218e 2F3F      		cpi r18,lo8(-1)
 6158 2190 3807      		cpc r19,r24
 6159 2192 01F0      		breq .L468
 6160 2194 9C91      		ld r25,X
 6161               	.LVL502:
 6162 2196 8081      		ld r24,Z
 6163 2198 9817      		cp r25,r24
 6164 219a 01F4      		brne .L470
 6165 219c 1196      		adiw r26,1
 6166 219e 3196      		adiw r30,1
 6167 21a0 00C0      		rjmp .L471
 6168               	.LVL503:
 6169               	.L470:
 6170               	.LBE690:
 6171               	.LBE689:
 6172               	.LBE691:
 6173               	.LM664:
 6174 21a2 CE01      		movw r24,r28
 6175 21a4 60E0      		ldi r22,lo8(0)
 6176 21a6 0E94 0000 		call dir_next
 6177               	.LVL504:
 6178 21aa 00C0      		rjmp .L483
 6179               	.LVL505:
 6180               	.L468:
 6181               	.LBE687:
 6182               	.LM665:
 6183 21ac EC89      		ldd r30,Y+20
 6184 21ae FD89      		ldd r31,Y+21
 6185               	.LVL506:
 6186 21b0 9385      		ldd r25,Z+11
 6187               	.LVL507:
 6188 21b2 9470      		andi r25,lo8(4)
 6189               	.LM666:
 6190 21b4 4423      		tst r20
 6191 21b6 01F0      		breq .L473
 6192 21b8 842F      		mov r24,r20
 6193               	.LM667:
 6194 21ba 4430      		cpi r20,lo8(4)
 6195 21bc 01F4      		brne .L474
 6196 21be 9923      		tst r25
 6197 21c0 01F0      		breq .L475
 6198 21c2 00C0      		rjmp .L446
 6199               	.L473:
 6200               	.LM668:
 6201 21c4 9923      		tst r25
 6202 21c6 01F4      		brne .L474
 6203               	.LM669:
 6204 21c8 EA89      		ldd r30,Y+18
 6205 21ca FB89      		ldd r31,Y+19
 6206               	.LVL508:
 6207               	.LM670:
 6208 21cc 8385      		ldd r24,Z+11
 6209 21ce 84FF      		sbrs r24,4
 6210 21d0 00C0      		rjmp .L475
 6211               	.LBB692:
 6212               	.LBB686:
 6213               	.LM671:
 6214 21d2 EC0C      		add r14,r12
 6215 21d4 FD1C      		adc r15,r13
 6216               	.LBE686:
 6217               	.LBE692:
 6218               	.LM672:
 6219 21d6 7588      		ldd r7,Z+21
 6220 21d8 6624      		clr r6
 6221 21da 2489      		ldd r18,Z+20
 6222               	.LVL509:
 6223 21dc 30E0      		ldi r19,lo8(0)
 6224 21de 2629      		or r18,r6
 6225 21e0 3729      		or r19,r7
 6226 21e2 40E0      		ldi r20,lo8(0)
 6227 21e4 50E0      		ldi r21,hi8(0)
 6228               	.LVL510:
 6229 21e6 A901      		movw r20,r18
 6230 21e8 3327      		clr r19
 6231 21ea 2227      		clr r18
 6232               	.LVL511:
 6233 21ec 938C      		ldd r9,Z+27
 6234 21ee 8824      		clr r8
 6235 21f0 828D      		ldd r24,Z+26
 6236 21f2 90E0      		ldi r25,lo8(0)
 6237 21f4 8829      		or r24,r8
 6238 21f6 9929      		or r25,r9
 6239 21f8 A0E0      		ldi r26,lo8(0)
 6240 21fa B0E0      		ldi r27,hi8(0)
 6241               	.LVL512:
 6242 21fc 282B      		or r18,r24
 6243 21fe 392B      		or r19,r25
 6244 2200 4A2B      		or r20,r26
 6245 2202 5B2B      		or r21,r27
 6246 2204 2E83      		std Y+6,r18
 6247 2206 3F83      		std Y+7,r19
 6248 2208 4887      		std Y+8,r20
 6249 220a 5987      		std Y+9,r21
 6250 220c 00C0      		rjmp .L481
 6251               	.LVL513:
 6252               	.L453:
 6253               	.LM673:
 6254 220e 86E0      		ldi r24,lo8(6)
 6255               	.LVL514:
 6256 2210 00C0      		rjmp .L446
 6257               	.LVL515:
 6258               	.L474:
 6259 2212 842F      		mov r24,r20
 6260 2214 00C0      		rjmp .L446
 6261               	.LVL516:
 6262               	.L475:
 6263 2216 85E0      		ldi r24,lo8(5)
 6264               	.LVL517:
 6265               	.L446:
 6266               	.LVL518:
 6267               	/* epilogue start */
 6268               	.LM674:
 6269 2218 DF91      		pop r29
 6270 221a CF91      		pop r28
 6271               	.LVL519:
 6272 221c 1F91      		pop r17
 6273               	.LVL520:
 6274 221e 0F91      		pop r16
 6275 2220 FF90      		pop r15
 6276 2222 EF90      		pop r14
 6277               	.LVL521:
 6278 2224 DF90      		pop r13
 6279 2226 CF90      		pop r12
 6280               	.LVL522:
 6281 2228 BF90      		pop r11
 6282 222a AF90      		pop r10
 6283               	.LVL523:
 6284 222c 9F90      		pop r9
 6285 222e 8F90      		pop r8
 6286 2230 7F90      		pop r7
 6287 2232 6F90      		pop r6
 6288 2234 5F90      		pop r5
 6289 2236 0895      		ret
 6290               	.LVL524:
 6291               	.L450:
 6292               	.LM675:
 6293 2238 912F      		mov r25,r17
 6294 223a 60E0      		ldi r22,lo8(0)
 6295               	.LVL525:
 6296 223c 00C0      		rjmp .L476
 6297               	.LFE73:
 6300               	check_fs:
 6301               	.LFB74:
 6302               	.LM676:
 6303               	.LVL526:
 6304 223e 0F93      		push r16
 6305 2240 CF93      		push r28
 6306 2242 DF93      		push r29
 6307               	/* prologue: function */
 6308               	/* frame size = 0 */
 6309 2244 EC01      		movw r28,r24
 6310 2246 9A01      		movw r18,r20
 6311 2248 AB01      		movw r20,r22
 6312               	.LM677:
 6313 224a BC01      		movw r22,r24
 6314 224c 625D      		subi r22,lo8(-(46))
 6315 224e 7F4F      		sbci r23,hi8(-(46))
 6316 2250 8981      		ldd r24,Y+1
 6317               	.LVL527:
 6318 2252 01E0      		ldi r16,lo8(1)
 6319 2254 0E94 0000 		call disk_read
 6320               	.LVL528:
 6321 2258 8823      		tst r24
 6322 225a 01F0      		breq .L485
 6323 225c 63E0      		ldi r22,lo8(3)
 6324 225e 00C0      		rjmp .L486
 6325               	.L485:
 6326               	.LM678:
 6327 2260 C35D      		subi r28,lo8(-(557))
 6328 2262 DD4F      		sbci r29,hi8(-(557))
 6329 2264 9881      		ld r25,Y
 6330 2266 80E0      		ldi r24,lo8(0)
 6331 2268 2A91      		ld r18,-Y
 6332 226a CC52      		subi r28,lo8(-(-556))
 6333 226c D240      		sbci r29,hi8(-(-556))
 6334 226e 30E0      		ldi r19,lo8(0)
 6335 2270 822B      		or r24,r18
 6336 2272 932B      		or r25,r19
 6337 2274 8555      		subi r24,lo8(-21931)
 6338 2276 9A4A      		sbci r25,hi8(-21931)
 6339 2278 01F0      		breq .L487
 6340 227a 62E0      		ldi r22,lo8(2)
 6341 227c 00C0      		rjmp .L486
 6342               	.L487:
 6343               	.LM679:
 6344 227e C959      		subi r28,lo8(-(103))
 6345 2280 DF4F      		sbci r29,hi8(-(103))
 6346 2282 2881      		ld r18,Y
 6347 2284 30E0      		ldi r19,lo8(0)
 6348 2286 40E0      		ldi r20,lo8(0)
 6349 2288 50E0      		ldi r21,hi8(0)
 6350 228a 522F      		mov r21,r18
 6351 228c 4427      		clr r20
 6352 228e 3327      		clr r19
 6353 2290 2227      		clr r18
 6354 2292 8A91      		ld r24,-Y
 6355 2294 90E0      		ldi r25,lo8(0)
 6356 2296 A0E0      		ldi r26,lo8(0)
 6357 2298 B0E0      		ldi r27,hi8(0)
 6358 229a DC01      		movw r26,r24
 6359 229c 9927      		clr r25
 6360 229e 8827      		clr r24
 6361 22a0 282B      		or r18,r24
 6362 22a2 392B      		or r19,r25
 6363 22a4 4A2B      		or r20,r26
 6364 22a6 5B2B      		or r21,r27
 6365 22a8 2297      		sbiw r28,2
 6366 22aa 8991      		ld r24,Y+
 6367 22ac 90E0      		ldi r25,lo8(0)
 6368 22ae A0E0      		ldi r26,lo8(0)
 6369 22b0 B0E0      		ldi r27,hi8(0)
 6370 22b2 282B      		or r18,r24
 6371 22b4 392B      		or r19,r25
 6372 22b6 4A2B      		or r20,r26
 6373 22b8 5B2B      		or r21,r27
 6374 22ba 9881      		ld r25,Y
 6375 22bc C556      		subi r28,lo8(-(-101))
 6376 22be D040      		sbci r29,hi8(-(-101))
 6377 22c0 80E0      		ldi r24,lo8(0)
 6378 22c2 A0E0      		ldi r26,lo8(0)
 6379 22c4 B0E0      		ldi r27,hi8(0)
 6380 22c6 282B      		or r18,r24
 6381 22c8 392B      		or r19,r25
 6382 22ca 4A2B      		or r20,r26
 6383 22cc 5B2B      		or r21,r27
 6384 22ce 5070      		andi r21,hhi8(16777215)
 6385 22d0 2654      		subi r18,lo8(5521734)
 6386 22d2 3144      		sbci r19,hi8(5521734)
 6387 22d4 4445      		sbci r20,hlo8(5521734)
 6388 22d6 5040      		sbci r21,hhi8(5521734)
 6389 22d8 01F4      		brne .L488
 6390 22da 60E0      		ldi r22,lo8(0)
 6391 22dc 00C0      		rjmp .L486
 6392               	.L488:
 6393 22de 60E0      		ldi r22,lo8(0)
 6394 22e0 CD57      		subi r28,lo8(-(131))
 6395 22e2 DF4F      		sbci r29,hi8(-(131))
 6396 22e4 2881      		ld r18,Y
 6397 22e6 30E0      		ldi r19,lo8(0)
 6398 22e8 40E0      		ldi r20,lo8(0)
 6399 22ea 50E0      		ldi r21,hi8(0)
 6400 22ec 522F      		mov r21,r18
 6401 22ee 4427      		clr r20
 6402 22f0 3327      		clr r19
 6403 22f2 2227      		clr r18
 6404 22f4 8A91      		ld r24,-Y
 6405 22f6 90E0      		ldi r25,lo8(0)
 6406 22f8 A0E0      		ldi r26,lo8(0)
 6407 22fa B0E0      		ldi r27,hi8(0)
 6408 22fc DC01      		movw r26,r24
 6409 22fe 9927      		clr r25
 6410 2300 8827      		clr r24
 6411 2302 282B      		or r18,r24
 6412 2304 392B      		or r19,r25
 6413 2306 4A2B      		or r20,r26
 6414 2308 5B2B      		or r21,r27
 6415 230a 2297      		sbiw r28,2
 6416 230c 8991      		ld r24,Y+
 6417 230e 90E0      		ldi r25,lo8(0)
 6418 2310 A0E0      		ldi r26,lo8(0)
 6419 2312 B0E0      		ldi r27,hi8(0)
 6420 2314 282B      		or r18,r24
 6421 2316 392B      		or r19,r25
 6422 2318 4A2B      		or r20,r26
 6423 231a 5B2B      		or r21,r27
 6424 231c 9881      		ld r25,Y
 6425               	.LVL529:
 6426 231e 80E0      		ldi r24,lo8(0)
 6427 2320 A0E0      		ldi r26,lo8(0)
 6428 2322 B0E0      		ldi r27,hi8(0)
 6429 2324 282B      		or r18,r24
 6430 2326 392B      		or r19,r25
 6431 2328 4A2B      		or r20,r26
 6432 232a 5B2B      		or r21,r27
 6433 232c 5070      		andi r21,hhi8(16777215)
 6434 232e 2654      		subi r18,lo8(5521734)
 6435 2330 3144      		sbci r19,hi8(5521734)
 6436 2332 4445      		sbci r20,hlo8(5521734)
 6437 2334 5040      		sbci r21,hhi8(5521734)
 6438 2336 01F0      		breq .L486
 6439 2338 61E0      		ldi r22,lo8(1)
 6440               	.LVL530:
 6441               	.L486:
 6442               	.LM680:
 6443 233a 862F      		mov r24,r22
 6444               	/* epilogue start */
 6445 233c DF91      		pop r29
 6446 233e CF91      		pop r28
 6447               	.LVL531:
 6448 2340 0F91      		pop r16
 6449 2342 0895      		ret
 6450               	.LFE74:
 6452               	.global	chk_mounted
 6454               	chk_mounted:
 6455               	.LFB75:
 6456               	.LM681:
 6457               	.LVL532:
 6458 2344 6F92      		push r6
 6459 2346 7F92      		push r7
 6460 2348 8F92      		push r8
 6461 234a 9F92      		push r9
 6462 234c AF92      		push r10
 6463 234e BF92      		push r11
 6464 2350 CF92      		push r12
 6465 2352 DF92      		push r13
 6466 2354 EF92      		push r14
 6467 2356 FF92      		push r15
 6468 2358 0F93      		push r16
 6469 235a 1F93      		push r17
 6470 235c CF93      		push r28
 6471 235e DF93      		push r29
 6472               	/* prologue: function */
 6473               	/* frame size = 0 */
 6474 2360 DC01      		movw r26,r24
 6475 2362 142F      		mov r17,r20
 6476               	.LM682:
 6477 2364 ED91      		ld r30,X+
 6478 2366 FC91      		ld r31,X
 6479 2368 1197      		sbiw r26,1
 6480               	.LVL533:
 6481               	.LM683:
 6482 236a 8081      		ld r24,Z
 6483               	.LVL534:
 6484 236c 282F      		mov r18,r24
 6485               	.LVL535:
 6486 236e 30E0      		ldi r19,lo8(0)
 6487               	.LVL536:
 6488 2370 2053      		subi r18,lo8(-(-48))
 6489 2372 3040      		sbci r19,hi8(-(-48))
 6490               	.LVL537:
 6491               	.LM684:
 6492 2374 2A30      		cpi r18,10
 6493 2376 3105      		cpc r19,__zero_reg__
 6494 2378 00F4      		brsh .L492
 6495               	.LVL538:
 6496 237a 8181      		ldd r24,Z+1
 6497 237c 8A33      		cpi r24,lo8(58)
 6498 237e 01F4      		brne .L492
 6499               	.LM685:
 6500 2380 3296      		adiw r30,2
 6501 2382 ED93      		st X+,r30
 6502 2384 FC93      		st X,r31
 6503               	.LM686:
 6504 2386 232B      		or r18,r19
 6505 2388 01F0      		breq .L492
 6506 238a 8BE0      		ldi r24,lo8(11)
 6507 238c 00C0      		rjmp .L493
 6508               	.L492:
 6509               	.LM687:
 6510 238e C091 0000 		lds r28,FatFs
 6511 2392 D091 0000 		lds r29,(FatFs)+1
 6512               	.LVL539:
 6513 2396 FB01      		movw r30,r22
 6514               	.LVL540:
 6515 2398 C083      		st Z,r28
 6516 239a D183      		std Z+1,r29
 6517               	.LM688:
 6518 239c 2097      		sbiw r28,0
 6519 239e 01F4      		brne .L494
 6520 23a0 8CE0      		ldi r24,lo8(12)
 6521 23a2 00C0      		rjmp .L493
 6522               	.L494:
 6523               	.LM689:
 6524 23a4 8881      		ld r24,Y
 6525 23a6 8823      		tst r24
 6526 23a8 01F0      		breq .L495
 6527               	.LBB693:
 6528               	.LBB694:
 6529               	.LM690:
 6530 23aa 8981      		ldd r24,Y+1
 6531 23ac 8823      		tst r24
 6532 23ae 01F0      		breq .L496
 6533 23b0 81E0      		ldi r24,lo8(1)
 6534               	.LVL541:
 6535 23b2 00C0      		rjmp .L497
 6536               	.LVL542:
 6537               	.L496:
 6538               	.LM691:
 6539 23b4 8091 0000 		lds r24,Stat
 6540               	.LVL543:
 6541               	.L497:
 6542               	.LBE694:
 6543               	.LBE693:
 6544               	.LM692:
 6545 23b8 80FD      		sbrc r24,0
 6546 23ba 00C0      		rjmp .L495
 6547               	.LVL544:
 6548               	.LM693:
 6549 23bc 1123      		tst r17
 6550 23be 01F4      		brne .+2
 6551 23c0 00C0      		rjmp .L498
 6552 23c2 82FD      		sbrc r24,2
 6553 23c4 00C0      		rjmp .L499
 6554 23c6 00C0      		rjmp .L498
 6555               	.L495:
 6556               	.LM694:
 6557 23c8 1882      		st Y,__zero_reg__
 6558               	.LM695:
 6559 23ca 1982      		std Y+1,__zero_reg__
 6560               	.LM696:
 6561 23cc 80E0      		ldi r24,lo8(0)
 6562 23ce 0E94 0000 		call disk_initialize
 6563               	.LVL545:
 6564               	.LM697:
 6565 23d2 80FF      		sbrs r24,0
 6566 23d4 00C0      		rjmp .L500
 6567 23d6 83E0      		ldi r24,lo8(3)
 6568 23d8 00C0      		rjmp .L493
 6569               	.L500:
 6570               	.LM698:
 6571 23da 1123      		tst r17
 6572 23dc 01F0      		breq .L501
 6573 23de 82FD      		sbrc r24,2
 6574 23e0 00C0      		rjmp .L499
 6575               	.L501:
 6576               	.LM699:
 6577 23e2 CE01      		movw r24,r28
 6578 23e4 40E0      		ldi r20,lo8(0)
 6579 23e6 50E0      		ldi r21,hi8(0)
 6580 23e8 60E0      		ldi r22,hlo8(0)
 6581 23ea 70E0      		ldi r23,hhi8(0)
 6582 23ec 0E94 0000 		call check_fs
 6583               	.LM700:
 6584 23f0 8130      		cpi r24,lo8(1)
 6585               	.LVL546:
 6586 23f2 01F0      		breq .L502
 6587 23f4 AA24      		clr r10
 6588 23f6 BB24      		clr r11
 6589 23f8 6501      		movw r12,r10
 6590               	.LVL547:
 6591 23fa 00C0      		rjmp .L503
 6592               	.LVL548:
 6593               	.L502:
 6594               	.LM701:
 6595 23fc FE01      		movw r30,r28
 6596               	.LVL549:
 6597 23fe E451      		subi r30,lo8(-(492))
 6598 2400 FE4F      		sbci r31,hi8(-(492))
 6599               	.LM702:
 6600 2402 8481      		ldd r24,Z+4
 6601               	.LVL550:
 6602 2404 8823      		tst r24
 6603 2406 01F4      		brne .+2
 6604 2408 00C0      		rjmp .L504
 6605               	.LM703:
 6606 240a 8385      		ldd r24,Z+11
 6607 240c 90E0      		ldi r25,lo8(0)
 6608 240e A0E0      		ldi r26,lo8(0)
 6609 2410 B0E0      		ldi r27,hi8(0)
 6610 2412 D82E      		mov r13,r24
 6611 2414 CC24      		clr r12
 6612 2416 BB24      		clr r11
 6613 2418 AA24      		clr r10
 6614               	.LVL551:
 6615 241a 8285      		ldd r24,Z+10
 6616 241c 90E0      		ldi r25,lo8(0)
 6617 241e A0E0      		ldi r26,lo8(0)
 6618 2420 B0E0      		ldi r27,hi8(0)
 6619 2422 DC01      		movw r26,r24
 6620 2424 9927      		clr r25
 6621 2426 8827      		clr r24
 6622 2428 A82A      		or r10,r24
 6623 242a B92A      		or r11,r25
 6624 242c CA2A      		or r12,r26
 6625 242e DB2A      		or r13,r27
 6626 2430 8085      		ldd r24,Z+8
 6627 2432 90E0      		ldi r25,lo8(0)
 6628 2434 A0E0      		ldi r26,lo8(0)
 6629 2436 B0E0      		ldi r27,hi8(0)
 6630 2438 A82A      		or r10,r24
 6631 243a B92A      		or r11,r25
 6632 243c CA2A      		or r12,r26
 6633 243e DB2A      		or r13,r27
 6634 2440 9185      		ldd r25,Z+9
 6635 2442 80E0      		ldi r24,lo8(0)
 6636 2444 A0E0      		ldi r26,lo8(0)
 6637 2446 B0E0      		ldi r27,hi8(0)
 6638 2448 A82A      		or r10,r24
 6639 244a B92A      		or r11,r25
 6640 244c CA2A      		or r12,r26
 6641 244e DB2A      		or r13,r27
 6642               	.LM704:
 6643 2450 CE01      		movw r24,r28
 6644 2452 B601      		movw r22,r12
 6645 2454 A501      		movw r20,r10
 6646 2456 0E94 0000 		call check_fs
 6647               	.LVL552:
 6648               	.L503:
 6649               	.LM705:
 6650 245a 8330      		cpi r24,lo8(3)
 6651 245c 01F4      		brne .L505
 6652 245e 81E0      		ldi r24,lo8(1)
 6653               	.LVL553:
 6654 2460 00C0      		rjmp .L493
 6655               	.LVL554:
 6656               	.L505:
 6657               	.LM706:
 6658 2462 8823      		tst r24
 6659 2464 01F0      		breq .+2
 6660 2466 00C0      		rjmp .L504
 6661 2468 9AAD      		ldd r25,Y+58
 6662 246a 80E0      		ldi r24,lo8(0)
 6663               	.LVL555:
 6664 246c 29AD      		ldd r18,Y+57
 6665 246e 30E0      		ldi r19,lo8(0)
 6666 2470 822B      		or r24,r18
 6667 2472 932B      		or r25,r19
 6668 2474 8050      		subi r24,lo8(512)
 6669 2476 9240      		sbci r25,hi8(512)
 6670 2478 01F0      		breq .+2
 6671 247a 00C0      		rjmp .L504
 6672               	.LM707:
 6673 247c CB5B      		subi r28,lo8(-(69))
 6674 247e DF4F      		sbci r29,hi8(-(69))
 6675 2480 9881      		ld r25,Y
 6676 2482 80E0      		ldi r24,lo8(0)
 6677 2484 2A91      		ld r18,-Y
 6678 2486 C454      		subi r28,lo8(-(-68))
 6679 2488 D040      		sbci r29,hi8(-(-68))
 6680 248a 30E0      		ldi r19,lo8(0)
 6681 248c 822B      		or r24,r18
 6682 248e 932B      		or r25,r19
 6683 2490 7C01      		movw r14,r24
 6684               	.LVL556:
 6685 2492 00E0      		ldi r16,lo8(0)
 6686 2494 10E0      		ldi r17,hi8(0)
 6687               	.LVL557:
 6688               	.LM708:
 6689 2496 E114      		cp r14,__zero_reg__
 6690 2498 F104      		cpc r15,__zero_reg__
 6691 249a 0105      		cpc r16,__zero_reg__
 6692 249c 1105      		cpc r17,__zero_reg__
 6693 249e 01F4      		brne .L506
 6694 24a0 CB5A      		subi r28,lo8(-(85))
 6695 24a2 DF4F      		sbci r29,hi8(-(85))
 6696 24a4 8881      		ld r24,Y
 6697 24a6 90E0      		ldi r25,lo8(0)
 6698 24a8 A0E0      		ldi r26,lo8(0)
 6699 24aa B0E0      		ldi r27,hi8(0)
 6700 24ac 182F      		mov r17,r24
 6701 24ae 0027      		clr r16
 6702 24b0 FF24      		clr r15
 6703 24b2 EE24      		clr r14
 6704               	.LVL558:
 6705 24b4 8A91      		ld r24,-Y
 6706 24b6 90E0      		ldi r25,lo8(0)
 6707 24b8 A0E0      		ldi r26,lo8(0)
 6708 24ba B0E0      		ldi r27,hi8(0)
 6709 24bc DC01      		movw r26,r24
 6710 24be 9927      		clr r25
 6711 24c0 8827      		clr r24
 6712 24c2 E82A      		or r14,r24
 6713 24c4 F92A      		or r15,r25
 6714 24c6 0A2B      		or r16,r26
 6715 24c8 1B2B      		or r17,r27
 6716 24ca 2297      		sbiw r28,2
 6717 24cc 8991      		ld r24,Y+
 6718 24ce 90E0      		ldi r25,lo8(0)
 6719 24d0 A0E0      		ldi r26,lo8(0)
 6720 24d2 B0E0      		ldi r27,hi8(0)
 6721 24d4 E82A      		or r14,r24
 6722 24d6 F92A      		or r15,r25
 6723 24d8 0A2B      		or r16,r26
 6724 24da 1B2B      		or r17,r27
 6725 24dc 9881      		ld r25,Y
 6726 24de C355      		subi r28,lo8(-(-83))
 6727 24e0 D040      		sbci r29,hi8(-(-83))
 6728 24e2 80E0      		ldi r24,lo8(0)
 6729 24e4 A0E0      		ldi r26,lo8(0)
 6730 24e6 B0E0      		ldi r27,hi8(0)
 6731 24e8 E82A      		or r14,r24
 6732 24ea F92A      		or r15,r25
 6733 24ec 0A2B      		or r16,r26
 6734 24ee 1B2B      		or r17,r27
 6735               	.L506:
 6736               	.LM709:
 6737 24f0 EE8A      		std Y+22,r14
 6738 24f2 FF8A      		std Y+23,r15
 6739 24f4 088F      		std Y+24,r16
 6740 24f6 198F      		std Y+25,r17
 6741               	.LM710:
 6742 24f8 2EAD      		ldd r18,Y+62
 6743 24fa 2B83      		std Y+3,r18
 6744               	.LM711:
 6745 24fc 30E0      		ldi r19,lo8(0)
 6746 24fe 40E0      		ldi r20,lo8(0)
 6747 2500 50E0      		ldi r21,hi8(0)
 6748 2502 C801      		movw r24,r16
 6749 2504 B701      		movw r22,r14
 6750 2506 0E94 0000 		call __mulsi3
 6751 250a 3B01      		movw r6,r22
 6752 250c 4C01      		movw r8,r24
 6753               	.LVL559:
 6754               	.LM712:
 6755 250e 9DAD      		ldd r25,Y+61
 6756 2510 80E0      		ldi r24,lo8(0)
 6757 2512 2CAD      		ldd r18,Y+60
 6758 2514 30E0      		ldi r19,lo8(0)
 6759 2516 822B      		or r24,r18
 6760 2518 932B      		or r25,r19
 6761 251a A0E0      		ldi r26,lo8(0)
 6762 251c B0E0      		ldi r27,hi8(0)
 6763 251e 8A0D      		add r24,r10
 6764 2520 9B1D      		adc r25,r11
 6765 2522 AC1D      		adc r26,r12
 6766 2524 BD1D      		adc r27,r13
 6767 2526 8E8F      		std Y+30,r24
 6768 2528 9F8F      		std Y+31,r25
 6769 252a A8A3      		std Y+32,r26
 6770 252c B9A3      		std Y+33,r27
 6771               	.LM713:
 6772 252e 8BAD      		ldd r24,Y+59
 6773 2530 8A83      		std Y+2,r24
 6774               	.LM714:
 6775 2532 C05C      		subi r28,lo8(-(64))
 6776 2534 DF4F      		sbci r29,hi8(-(64))
 6777 2536 9881      		ld r25,Y
 6778 2538 C054      		subi r28,lo8(-(-64))
 6779 253a D040      		sbci r29,hi8(-(-64))
 6780 253c 80E0      		ldi r24,lo8(0)
 6781 253e 2FAD      		ldd r18,Y+63
 6782 2540 422F      		mov r20,r18
 6783 2542 50E0      		ldi r21,lo8(0)
 6784 2544 482B      		or r20,r24
 6785 2546 592B      		or r21,r25
 6786 2548 4887      		std Y+8,r20
 6787 254a 5987      		std Y+9,r21
 6788               	.LM715:
 6789 254c CE5B      		subi r28,lo8(-(66))
 6790 254e DF4F      		sbci r29,hi8(-(66))
 6791 2550 9881      		ld r25,Y
 6792 2552 80E0      		ldi r24,lo8(0)
 6793 2554 2A91      		ld r18,-Y
 6794 2556 C154      		subi r28,lo8(-(-65))
 6795 2558 D040      		sbci r29,hi8(-(-65))
 6796 255a 30E0      		ldi r19,lo8(0)
 6797 255c 822B      		or r24,r18
 6798 255e 932B      		or r25,r19
 6799 2560 7C01      		movw r14,r24
 6800               	.LVL560:
 6801 2562 00E0      		ldi r16,lo8(0)
 6802 2564 10E0      		ldi r17,hi8(0)
 6803               	.LVL561:
 6804               	.LM716:
 6805 2566 E114      		cp r14,__zero_reg__
 6806 2568 F104      		cpc r15,__zero_reg__
 6807 256a 0105      		cpc r16,__zero_reg__
 6808 256c 1105      		cpc r17,__zero_reg__
 6809 256e 01F4      		brne .L507
 6810 2570 CF5A      		subi r28,lo8(-(81))
 6811 2572 DF4F      		sbci r29,hi8(-(81))
 6812 2574 8881      		ld r24,Y
 6813 2576 90E0      		ldi r25,lo8(0)
 6814 2578 A0E0      		ldi r26,lo8(0)
 6815 257a B0E0      		ldi r27,hi8(0)
 6816 257c 182F      		mov r17,r24
 6817 257e 0027      		clr r16
 6818 2580 FF24      		clr r15
 6819 2582 EE24      		clr r14
 6820               	.LVL562:
 6821 2584 8A91      		ld r24,-Y
 6822 2586 90E0      		ldi r25,lo8(0)
 6823 2588 A0E0      		ldi r26,lo8(0)
 6824 258a B0E0      		ldi r27,hi8(0)
 6825 258c DC01      		movw r26,r24
 6826 258e 9927      		clr r25
 6827 2590 8827      		clr r24
 6828 2592 E82A      		or r14,r24
 6829 2594 F92A      		or r15,r25
 6830 2596 0A2B      		or r16,r26
 6831 2598 1B2B      		or r17,r27
 6832 259a 2297      		sbiw r28,2
 6833 259c 8991      		ld r24,Y+
 6834 259e 90E0      		ldi r25,lo8(0)
 6835 25a0 A0E0      		ldi r26,lo8(0)
 6836 25a2 B0E0      		ldi r27,hi8(0)
 6837 25a4 E82A      		or r14,r24
 6838 25a6 F92A      		or r15,r25
 6839 25a8 0A2B      		or r16,r26
 6840 25aa 1B2B      		or r17,r27
 6841 25ac 9881      		ld r25,Y
 6842 25ae CF54      		subi r28,lo8(-(-79))
 6843 25b0 D040      		sbci r29,hi8(-(-79))
 6844 25b2 80E0      		ldi r24,lo8(0)
 6845 25b4 A0E0      		ldi r26,lo8(0)
 6846 25b6 B0E0      		ldi r27,hi8(0)
 6847 25b8 E82A      		or r14,r24
 6848 25ba F92A      		or r15,r25
 6849 25bc 0A2B      		or r16,r26
 6850 25be 1B2B      		or r17,r27
 6851               	.L507:
 6852               	.LM717:
 6853 25c0 9DAD      		ldd r25,Y+61
 6854 25c2 80E0      		ldi r24,lo8(0)
 6855 25c4 2CAD      		ldd r18,Y+60
 6856 25c6 30E0      		ldi r19,lo8(0)
 6857 25c8 822B      		or r24,r18
 6858 25ca 932B      		or r25,r19
 6859 25cc A0E0      		ldi r26,lo8(0)
 6860 25ce B0E0      		ldi r27,hi8(0)
 6861 25d0 E81A      		sub r14,r24
 6862 25d2 F90A      		sbc r15,r25
 6863 25d4 0A0B      		sbc r16,r26
 6864 25d6 1B0B      		sbc r17,r27
 6865               	.LVL563:
 6866 25d8 E618      		sub r14,r6
 6867 25da F708      		sbc r15,r7
 6868 25dc 0809      		sbc r16,r8
 6869 25de 1909      		sbc r17,r9
 6870 25e0 F4E0      		ldi r31,4
 6871 25e2 5695      	1:	lsr r21
 6872 25e4 4795      		ror r20
 6873 25e6 FA95      		dec r31
 6874 25e8 01F4      		brne 1b
 6875 25ea CA01      		movw r24,r20
 6876 25ec A0E0      		ldi r26,lo8(0)
 6877 25ee B0E0      		ldi r27,hi8(0)
 6878 25f0 E81A      		sub r14,r24
 6879 25f2 F90A      		sbc r15,r25
 6880 25f4 0A0B      		sbc r16,r26
 6881 25f6 1B0B      		sbc r17,r27
 6882 25f8 2A81      		ldd r18,Y+2
 6883 25fa 30E0      		ldi r19,lo8(0)
 6884 25fc 40E0      		ldi r20,lo8(0)
 6885 25fe 50E0      		ldi r21,hi8(0)
 6886 2600 C801      		movw r24,r16
 6887 2602 B701      		movw r22,r14
 6888 2604 0E94 0000 		call __udivmodsi4
 6889 2608 2E5F      		subi r18,lo8(-(2))
 6890 260a 3F4F      		sbci r19,hi8(-(2))
 6891 260c 4F4F      		sbci r20,hlo8(-(2))
 6892 260e 5F4F      		sbci r21,hhi8(-(2))
 6893               	.LVL564:
 6894 2610 2A8F      		std Y+26,r18
 6895 2612 3B8F      		std Y+27,r19
 6896 2614 4C8F      		std Y+28,r20
 6897 2616 5D8F      		std Y+29,r21
 6898               	.LM718:
 6899 2618 273F      		cpi r18,lo8(4087)
 6900 261a 8FE0      		ldi r24,hi8(4087)
 6901 261c 3807      		cpc r19,r24
 6902 261e 80E0      		ldi r24,hlo8(4087)
 6903 2620 4807      		cpc r20,r24
 6904 2622 80E0      		ldi r24,hhi8(4087)
 6905 2624 5807      		cpc r21,r24
 6906 2626 00F4      		brsh .L508
 6907 2628 11E0      		ldi r17,lo8(1)
 6908               	.LVL565:
 6909 262a 00C0      		rjmp .L509
 6910               	.LVL566:
 6911               	.L508:
 6912               	.LM719:
 6913 262c 275F      		subi r18,lo8(65527)
 6914 262e 3F4F      		sbci r19,hi8(65527)
 6915 2630 4040      		sbci r20,hlo8(65527)
 6916 2632 5040      		sbci r21,hhi8(65527)
 6917 2634 00F0      		brlo .+2
 6918 2636 00C0      		rjmp .L510
 6919 2638 12E0      		ldi r17,lo8(2)
 6920               	.LVL567:
 6921               	.L509:
 6922               	.LM720:
 6923 263a 8E8D      		ldd r24,Y+30
 6924 263c 9F8D      		ldd r25,Y+31
 6925 263e A8A1      		ldd r26,Y+32
 6926 2640 B9A1      		ldd r27,Y+33
 6927 2642 860D      		add r24,r6
 6928 2644 971D      		adc r25,r7
 6929 2646 A81D      		adc r26,r8
 6930 2648 B91D      		adc r27,r9
 6931 264a 8AA3      		std Y+34,r24
 6932 264c 9BA3      		std Y+35,r25
 6933 264e ACA3      		std Y+36,r26
 6934 2650 BDA3      		std Y+37,r27
 6935               	.L512:
 6936               	.LM721:
 6937 2652 8885      		ldd r24,Y+8
 6938 2654 9985      		ldd r25,Y+9
 6939 2656 E4E0      		ldi r30,4
 6940 2658 9695      	1:	lsr r25
 6941 265a 8795      		ror r24
 6942 265c EA95      		dec r30
 6943 265e 01F4      		brne 1b
 6944 2660 A0E0      		ldi r26,lo8(0)
 6945 2662 B0E0      		ldi r27,hi8(0)
 6946 2664 2E8D      		ldd r18,Y+30
 6947 2666 3F8D      		ldd r19,Y+31
 6948 2668 48A1      		ldd r20,Y+32
 6949 266a 59A1      		ldd r21,Y+33
 6950               	.LVL568:
 6951 266c 820F      		add r24,r18
 6952 266e 931F      		adc r25,r19
 6953 2670 A41F      		adc r26,r20
 6954 2672 B51F      		adc r27,r21
 6955 2674 860D      		add r24,r6
 6956 2676 971D      		adc r25,r7
 6957 2678 A81D      		adc r26,r8
 6958 267a B91D      		adc r27,r9
 6959 267c 8EA3      		std Y+38,r24
 6960 267e 9FA3      		std Y+39,r25
 6961 2680 A8A7      		std Y+40,r26
 6962 2682 B9A7      		std Y+41,r27
 6963               	.LM722:
 6964 2684 8FEF      		ldi r24,lo8(-1)
 6965 2686 9FEF      		ldi r25,hi8(-1)
 6966 2688 AFEF      		ldi r26,hlo8(-1)
 6967 268a BFEF      		ldi r27,hhi8(-1)
 6968 268c 8E87      		std Y+14,r24
 6969 268e 9F87      		std Y+15,r25
 6970 2690 A88B      		std Y+16,r26
 6971 2692 B98B      		std Y+17,r27
 6972               	.LM723:
 6973 2694 1C82      		std Y+4,__zero_reg__
 6974               	.LM724:
 6975 2696 1330      		cpi r17,lo8(3)
 6976 2698 01F0      		breq .+2
 6977 269a 00C0      		rjmp .L511
 6978               	.LM725:
 6979 269c 1D82      		std Y+5,__zero_reg__
 6980               	.LM726:
 6981 269e C15A      		subi r28,lo8(-(95))
 6982 26a0 DF4F      		sbci r29,hi8(-(95))
 6983 26a2 3881      		ld r19,Y
 6984 26a4 20E0      		ldi r18,lo8(0)
 6985 26a6 8A91      		ld r24,-Y
 6986 26a8 CE55      		subi r28,lo8(-(-94))
 6987 26aa D040      		sbci r29,hi8(-(-94))
 6988 26ac 90E0      		ldi r25,lo8(0)
 6989 26ae 282B      		or r18,r24
 6990 26b0 392B      		or r19,r25
 6991 26b2 40E0      		ldi r20,lo8(0)
 6992 26b4 50E0      		ldi r21,hi8(0)
 6993 26b6 2A0D      		add r18,r10
 6994 26b8 3B1D      		adc r19,r11
 6995 26ba 4C1D      		adc r20,r12
 6996 26bc 5D1D      		adc r21,r13
 6997 26be 2A8B      		std Y+18,r18
 6998 26c0 3B8B      		std Y+19,r19
 6999 26c2 4C8B      		std Y+20,r20
 7000 26c4 5D8B      		std Y+21,r21
 7001               	.LM727:
 7002 26c6 BE01      		movw r22,r28
 7003 26c8 625D      		subi r22,lo8(-(46))
 7004 26ca 7F4F      		sbci r23,hi8(-(46))
 7005 26cc 8981      		ldd r24,Y+1
 7006 26ce 01E0      		ldi r16,lo8(1)
 7007               	.LVL569:
 7008 26d0 0E94 0000 		call disk_read
 7009 26d4 8823      		tst r24
 7010 26d6 01F0      		breq .+2
 7011 26d8 00C0      		rjmp .L511
 7012 26da C35D      		subi r28,lo8(-(557))
 7013 26dc DD4F      		sbci r29,hi8(-(557))
 7014 26de 9881      		ld r25,Y
 7015 26e0 80E0      		ldi r24,lo8(0)
 7016 26e2 2A91      		ld r18,-Y
 7017 26e4 CC52      		subi r28,lo8(-(-556))
 7018 26e6 D240      		sbci r29,hi8(-(-556))
 7019 26e8 30E0      		ldi r19,lo8(0)
 7020 26ea 822B      		or r24,r18
 7021 26ec 932B      		or r25,r19
 7022 26ee 8555      		subi r24,lo8(-21931)
 7023 26f0 9A4A      		sbci r25,hi8(-21931)
 7024 26f2 01F0      		breq .+2
 7025 26f4 00C0      		rjmp .L511
 7026 26f6 29A9      		ldd r18,Y+49
 7027 26f8 30E0      		ldi r19,lo8(0)
 7028 26fa 40E0      		ldi r20,lo8(0)
 7029 26fc 50E0      		ldi r21,hi8(0)
 7030 26fe 522F      		mov r21,r18
 7031 2700 4427      		clr r20
 7032 2702 3327      		clr r19
 7033 2704 2227      		clr r18
 7034 2706 88A9      		ldd r24,Y+48
 7035 2708 90E0      		ldi r25,lo8(0)
 7036 270a A0E0      		ldi r26,lo8(0)
 7037 270c B0E0      		ldi r27,hi8(0)
 7038 270e DC01      		movw r26,r24
 7039 2710 9927      		clr r25
 7040 2712 8827      		clr r24
 7041 2714 282B      		or r18,r24
 7042 2716 392B      		or r19,r25
 7043 2718 4A2B      		or r20,r26
 7044 271a 5B2B      		or r21,r27
 7045 271c 8EA5      		ldd r24,Y+46
 7046 271e 90E0      		ldi r25,lo8(0)
 7047 2720 A0E0      		ldi r26,lo8(0)
 7048 2722 B0E0      		ldi r27,hi8(0)
 7049 2724 282B      		or r18,r24
 7050 2726 392B      		or r19,r25
 7051 2728 4A2B      		or r20,r26
 7052 272a 5B2B      		or r21,r27
 7053 272c 9FA5      		ldd r25,Y+47
 7054 272e 80E0      		ldi r24,lo8(0)
 7055 2730 A0E0      		ldi r26,lo8(0)
 7056 2732 B0E0      		ldi r27,hi8(0)
 7057 2734 282B      		or r18,r24
 7058 2736 392B      		or r19,r25
 7059 2738 4A2B      		or r20,r26
 7060 273a 5B2B      		or r21,r27
 7061 273c 2255      		subi r18,lo8(1096897106)
 7062 273e 3245      		sbci r19,hi8(1096897106)
 7063 2740 4146      		sbci r20,hlo8(1096897106)
 7064 2742 5144      		sbci r21,hhi8(1096897106)
 7065 2744 01F0      		breq .+2
 7066 2746 00C0      		rjmp .L511
 7067 2748 CB5E      		subi r28,lo8(-(533))
 7068 274a DD4F      		sbci r29,hi8(-(533))
 7069 274c 2881      		ld r18,Y
 7070 274e 30E0      		ldi r19,lo8(0)
 7071 2750 40E0      		ldi r20,lo8(0)
 7072 2752 50E0      		ldi r21,hi8(0)
 7073 2754 522F      		mov r21,r18
 7074 2756 4427      		clr r20
 7075 2758 3327      		clr r19
 7076 275a 2227      		clr r18
 7077 275c 8A91      		ld r24,-Y
 7078 275e 90E0      		ldi r25,lo8(0)
 7079 2760 A0E0      		ldi r26,lo8(0)
 7080 2762 B0E0      		ldi r27,hi8(0)
 7081 2764 DC01      		movw r26,r24
 7082 2766 9927      		clr r25
 7083 2768 8827      		clr r24
 7084 276a 282B      		or r18,r24
 7085 276c 392B      		or r19,r25
 7086 276e 4A2B      		or r20,r26
 7087 2770 5B2B      		or r21,r27
 7088 2772 2297      		sbiw r28,2
 7089 2774 8991      		ld r24,Y+
 7090 2776 90E0      		ldi r25,lo8(0)
 7091 2778 A0E0      		ldi r26,lo8(0)
 7092 277a B0E0      		ldi r27,hi8(0)
 7093 277c 282B      		or r18,r24
 7094 277e 392B      		or r19,r25
 7095 2780 4A2B      		or r20,r26
 7096 2782 5B2B      		or r21,r27
 7097 2784 9881      		ld r25,Y
 7098 2786 C351      		subi r28,lo8(-(-531))
 7099 2788 D240      		sbci r29,hi8(-(-531))
 7100 278a 80E0      		ldi r24,lo8(0)
 7101 278c A0E0      		ldi r26,lo8(0)
 7102 278e B0E0      		ldi r27,hi8(0)
 7103 2790 282B      		or r18,r24
 7104 2792 392B      		or r19,r25
 7105 2794 4A2B      		or r20,r26
 7106 2796 5B2B      		or r21,r27
 7107 2798 2257      		subi r18,lo8(1631679090)
 7108 279a 3247      		sbci r19,hi8(1631679090)
 7109 279c 4144      		sbci r20,hlo8(1631679090)
 7110 279e 5146      		sbci r21,hhi8(1631679090)
 7111 27a0 01F0      		breq .+2
 7112 27a2 00C0      		rjmp .L511
 7113               	.LM728:
 7114 27a4 C35E      		subi r28,lo8(-(541))
 7115 27a6 DD4F      		sbci r29,hi8(-(541))
 7116 27a8 2881      		ld r18,Y
 7117 27aa 30E0      		ldi r19,lo8(0)
 7118 27ac 40E0      		ldi r20,lo8(0)
 7119 27ae 50E0      		ldi r21,hi8(0)
 7120 27b0 522F      		mov r21,r18
 7121 27b2 4427      		clr r20
 7122 27b4 3327      		clr r19
 7123 27b6 2227      		clr r18
 7124 27b8 8A91      		ld r24,-Y
 7125 27ba 90E0      		ldi r25,lo8(0)
 7126 27bc A0E0      		ldi r26,lo8(0)
 7127 27be B0E0      		ldi r27,hi8(0)
 7128 27c0 DC01      		movw r26,r24
 7129 27c2 9927      		clr r25
 7130 27c4 8827      		clr r24
 7131 27c6 282B      		or r18,r24
 7132 27c8 392B      		or r19,r25
 7133 27ca 4A2B      		or r20,r26
 7134 27cc 5B2B      		or r21,r27
 7135 27ce 2297      		sbiw r28,2
 7136 27d0 8991      		ld r24,Y+
 7137 27d2 90E0      		ldi r25,lo8(0)
 7138 27d4 A0E0      		ldi r26,lo8(0)
 7139 27d6 B0E0      		ldi r27,hi8(0)
 7140 27d8 282B      		or r18,r24
 7141 27da 392B      		or r19,r25
 7142 27dc 4A2B      		or r20,r26
 7143 27de 5B2B      		or r21,r27
 7144 27e0 9881      		ld r25,Y
 7145 27e2 CB51      		subi r28,lo8(-(-539))
 7146 27e4 D240      		sbci r29,hi8(-(-539))
 7147 27e6 80E0      		ldi r24,lo8(0)
 7148 27e8 A0E0      		ldi r26,lo8(0)
 7149 27ea B0E0      		ldi r27,hi8(0)
 7150 27ec 282B      		or r18,r24
 7151 27ee 392B      		or r19,r25
 7152 27f0 4A2B      		or r20,r26
 7153 27f2 5B2B      		or r21,r27
 7154 27f4 2A87      		std Y+10,r18
 7155 27f6 3B87      		std Y+11,r19
 7156 27f8 4C87      		std Y+12,r20
 7157 27fa 5D87      		std Y+13,r21
 7158               	.LM729:
 7159 27fc C75E      		subi r28,lo8(-(537))
 7160 27fe DD4F      		sbci r29,hi8(-(537))
 7161 2800 2881      		ld r18,Y
 7162 2802 30E0      		ldi r19,lo8(0)
 7163 2804 40E0      		ldi r20,lo8(0)
 7164 2806 50E0      		ldi r21,hi8(0)
 7165 2808 522F      		mov r21,r18
 7166 280a 4427      		clr r20
 7167 280c 3327      		clr r19
 7168 280e 2227      		clr r18
 7169 2810 8A91      		ld r24,-Y
 7170 2812 90E0      		ldi r25,lo8(0)
 7171 2814 A0E0      		ldi r26,lo8(0)
 7172 2816 B0E0      		ldi r27,hi8(0)
 7173 2818 DC01      		movw r26,r24
 7174 281a 9927      		clr r25
 7175 281c 8827      		clr r24
 7176 281e 282B      		or r18,r24
 7177 2820 392B      		or r19,r25
 7178 2822 4A2B      		or r20,r26
 7179 2824 5B2B      		or r21,r27
 7180 2826 2297      		sbiw r28,2
 7181 2828 8991      		ld r24,Y+
 7182 282a 90E0      		ldi r25,lo8(0)
 7183 282c A0E0      		ldi r26,lo8(0)
 7184 282e B0E0      		ldi r27,hi8(0)
 7185 2830 282B      		or r18,r24
 7186 2832 392B      		or r19,r25
 7187 2834 4A2B      		or r20,r26
 7188 2836 5B2B      		or r21,r27
 7189 2838 9881      		ld r25,Y
 7190 283a C751      		subi r28,lo8(-(-535))
 7191 283c D240      		sbci r29,hi8(-(-535))
 7192 283e 80E0      		ldi r24,lo8(0)
 7193 2840 A0E0      		ldi r26,lo8(0)
 7194 2842 B0E0      		ldi r27,hi8(0)
 7195 2844 282B      		or r18,r24
 7196 2846 392B      		or r19,r25
 7197 2848 4A2B      		or r20,r26
 7198 284a 5B2B      		or r21,r27
 7199 284c 2E87      		std Y+14,r18
 7200 284e 3F87      		std Y+15,r19
 7201 2850 488B      		std Y+16,r20
 7202 2852 598B      		std Y+17,r21
 7203               	.LVL570:
 7204               	.L511:
 7205               	.LM730:
 7206 2854 1883      		st Y,r17
 7207               	.LM731:
 7208 2856 1AA6      		std Y+42,__zero_reg__
 7209 2858 1BA6      		std Y+43,__zero_reg__
 7210 285a 1CA6      		std Y+44,__zero_reg__
 7211 285c 1DA6      		std Y+45,__zero_reg__
 7212               	.LM732:
 7213 285e 8091 0000 		lds r24,Fsid
 7214 2862 9091 0000 		lds r25,(Fsid)+1
 7215 2866 0196      		adiw r24,1
 7216 2868 8093 0000 		sts Fsid,r24
 7217 286c 9093 0000 		sts (Fsid)+1,r25
 7218 2870 8E83      		std Y+6,r24
 7219 2872 9F83      		std Y+7,r25
 7220 2874 00C0      		rjmp .L498
 7221               	.LVL571:
 7222               	.L499:
 7223               	.LM733:
 7224 2876 8AE0      		ldi r24,lo8(10)
 7225 2878 00C0      		rjmp .L493
 7226               	.LVL572:
 7227               	.L498:
 7228 287a 80E0      		ldi r24,lo8(0)
 7229 287c 00C0      		rjmp .L493
 7230               	.LVL573:
 7231               	.L504:
 7232 287e 8DE0      		ldi r24,lo8(13)
 7233               	.LVL574:
 7234               	.L493:
 7235               	/* epilogue start */
 7236               	.LM734:
 7237 2880 DF91      		pop r29
 7238 2882 CF91      		pop r28
 7239               	.LVL575:
 7240 2884 1F91      		pop r17
 7241               	.LVL576:
 7242 2886 0F91      		pop r16
 7243               	.LVL577:
 7244 2888 FF90      		pop r15
 7245 288a EF90      		pop r14
 7246               	.LVL578:
 7247 288c DF90      		pop r13
 7248 288e CF90      		pop r12
 7249 2890 BF90      		pop r11
 7250 2892 AF90      		pop r10
 7251               	.LVL579:
 7252 2894 9F90      		pop r9
 7253 2896 8F90      		pop r8
 7254 2898 7F90      		pop r7
 7255 289a 6F90      		pop r6
 7256               	.LVL580:
 7257 289c 0895      		ret
 7258               	.LVL581:
 7259               	.L510:
 7260               	.LM735:
 7261 289e C35A      		subi r28,lo8(-(93))
 7262 28a0 DF4F      		sbci r29,hi8(-(93))
 7263 28a2 2881      		ld r18,Y
 7264               	.LVL582:
 7265 28a4 30E0      		ldi r19,lo8(0)
 7266 28a6 40E0      		ldi r20,lo8(0)
 7267 28a8 50E0      		ldi r21,hi8(0)
 7268 28aa 522F      		mov r21,r18
 7269 28ac 4427      		clr r20
 7270 28ae 3327      		clr r19
 7271 28b0 2227      		clr r18
 7272               	.LVL583:
 7273 28b2 8A91      		ld r24,-Y
 7274 28b4 90E0      		ldi r25,lo8(0)
 7275 28b6 A0E0      		ldi r26,lo8(0)
 7276 28b8 B0E0      		ldi r27,hi8(0)
 7277 28ba DC01      		movw r26,r24
 7278 28bc 9927      		clr r25
 7279 28be 8827      		clr r24
 7280               	.LVL584:
 7281 28c0 282B      		or r18,r24
 7282 28c2 392B      		or r19,r25
 7283 28c4 4A2B      		or r20,r26
 7284 28c6 5B2B      		or r21,r27
 7285 28c8 2297      		sbiw r28,2
 7286 28ca 8991      		ld r24,Y+
 7287 28cc 90E0      		ldi r25,lo8(0)
 7288 28ce A0E0      		ldi r26,lo8(0)
 7289 28d0 B0E0      		ldi r27,hi8(0)
 7290 28d2 282B      		or r18,r24
 7291 28d4 392B      		or r19,r25
 7292 28d6 4A2B      		or r20,r26
 7293 28d8 5B2B      		or r21,r27
 7294 28da 9881      		ld r25,Y
 7295 28dc CB55      		subi r28,lo8(-(-91))
 7296 28de D040      		sbci r29,hi8(-(-91))
 7297 28e0 80E0      		ldi r24,lo8(0)
 7298 28e2 A0E0      		ldi r26,lo8(0)
 7299 28e4 B0E0      		ldi r27,hi8(0)
 7300 28e6 282B      		or r18,r24
 7301 28e8 392B      		or r19,r25
 7302 28ea 4A2B      		or r20,r26
 7303 28ec 5B2B      		or r21,r27
 7304 28ee 2AA3      		std Y+34,r18
 7305 28f0 3BA3      		std Y+35,r19
 7306 28f2 4CA3      		std Y+36,r20
 7307 28f4 5DA3      		std Y+37,r21
 7308 28f6 13E0      		ldi r17,lo8(3)
 7309               	.LVL585:
 7310 28f8 00C0      		rjmp .L512
 7311               	.LFE75:
 7314               	validate:
 7315               	.LFB76:
 7316               	.LM736:
 7317               	.LVL586:
 7318               	/* prologue: function */
 7319               	/* frame size = 0 */
 7320 28fa FC01      		movw r30,r24
 7321               	.LM737:
 7322 28fc 0097      		sbiw r24,0
 7323 28fe 01F0      		breq .L515
 7324 2900 8081      		ld r24,Z
 7325               	.LVL587:
 7326 2902 8823      		tst r24
 7327 2904 01F0      		breq .L515
 7328 2906 8681      		ldd r24,Z+6
 7329 2908 9781      		ldd r25,Z+7
 7330 290a 8617      		cp r24,r22
 7331 290c 9707      		cpc r25,r23
 7332 290e 01F4      		brne .L515
 7333               	.LBB695:
 7334               	.LBB696:
 7335               	.LM738:
 7336 2910 8181      		ldd r24,Z+1
 7337 2912 8823      		tst r24
 7338 2914 01F0      		breq .L516
 7339 2916 81E0      		ldi r24,lo8(1)
 7340 2918 00C0      		rjmp .L517
 7341               	.L516:
 7342               	.LM739:
 7343 291a 8091 0000 		lds r24,Stat
 7344               	.L517:
 7345               	.LBE696:
 7346               	.LBE695:
 7347               	.LM740:
 7348 291e 80FD      		sbrc r24,0
 7349 2920 00C0      		rjmp .L518
 7350 2922 80E0      		ldi r24,lo8(0)
 7351 2924 0895      		ret
 7352               	.L518:
 7353 2926 83E0      		ldi r24,lo8(3)
 7354 2928 0895      		ret
 7355               	.LVL588:
 7356               	.L515:
 7357 292a 89E0      		ldi r24,lo8(9)
 7358               	.LM741:
 7359 292c 0895      		ret
 7360               	.LFE76:
 7362               	.global	f_mount
 7364               	f_mount:
 7365               	.LFB77:
 7366               	.LM742:
 7367               	.LVL589:
 7368               	/* prologue: function */
 7369               	/* frame size = 0 */
 7370 292e DB01      		movw r26,r22
 7371               	.LM743:
 7372 2930 8823      		tst r24
 7373 2932 01F0      		breq .L522
 7374               	.LVL590:
 7375 2934 8BE0      		ldi r24,lo8(11)
 7376               	.LVL591:
 7377 2936 0895      		ret
 7378               	.LVL592:
 7379               	.L522:
 7380               	.LM744:
 7381 2938 E091 0000 		lds r30,FatFs
 7382 293c F091 0000 		lds r31,(FatFs)+1
 7383               	.LVL593:
 7384               	.LM745:
 7385 2940 3097      		sbiw r30,0
 7386 2942 01F0      		breq .L524
 7387               	.LM746:
 7388 2944 1082      		st Z,__zero_reg__
 7389               	.L524:
 7390               	.LM747:
 7391 2946 1097      		sbiw r26,0
 7392 2948 01F0      		breq .L525
 7393               	.LM748:
 7394 294a 1C92      		st X,__zero_reg__
 7395               	.L525:
 7396               	.LM749:
 7397 294c A093 0000 		sts FatFs,r26
 7398 2950 B093 0000 		sts (FatFs)+1,r27
 7399 2954 80E0      		ldi r24,lo8(0)
 7400               	.LVL594:
 7401               	.LM750:
 7402 2956 0895      		ret
 7403               	.LFE77:
 7405               	.global	f_open
 7407               	f_open:
 7408               	.LFB78:
 7409               	.LM751:
 7410               	.LVL595:
 7411 2958 5F92      		push r5
 7412 295a 6F92      		push r6
 7413 295c 7F92      		push r7
 7414 295e 8F92      		push r8
 7415 2960 9F92      		push r9
 7416 2962 AF92      		push r10
 7417 2964 BF92      		push r11
 7418 2966 CF92      		push r12
 7419 2968 DF92      		push r13
 7420 296a EF92      		push r14
 7421 296c FF92      		push r15
 7422 296e 0F93      		push r16
 7423 2970 1F93      		push r17
 7424 2972 DF93      		push r29
 7425 2974 CF93      		push r28
 7426 2976 CDB7      		in r28,__SP_L__
 7427 2978 DEB7      		in r29,__SP_H__
 7428 297a A497      		sbiw r28,36
 7429 297c CDBF      		out __SP_L__,r28
 7430 297e DEBF      		out __SP_H__,r29
 7431               	/* prologue: function */
 7432               	/* frame size = 36 */
 7433 2980 3C01      		movw r6,r24
 7434 2982 6BA3      		std Y+35,r22
 7435 2984 7CA3      		std Y+36,r23
 7436               	.LM752:
 7437 2986 DC01      		movw r26,r24
 7438 2988 1D92      		st X+,__zero_reg__
 7439 298a 1C92      		st X,__zero_reg__
 7440               	.LM753:
 7441 298c 3FE1      		ldi r19,lo8(31)
 7442 298e 532E      		mov r5,r19
 7443               	.LVL596:
 7444 2990 5422      		and r5,r20
 7445               	.LM754:
 7446 2992 8E01      		movw r16,r28
 7447 2994 035F      		subi r16,lo8(-(13))
 7448 2996 1F4F      		sbci r17,hi8(-(13))
 7449 2998 4E71      		andi r20,lo8(30)
 7450               	.LVL597:
 7451 299a CE01      		movw r24,r28
 7452               	.LVL598:
 7453 299c 8396      		adiw r24,35
 7454 299e B801      		movw r22,r16
 7455               	.LVL599:
 7456 29a0 0E94 0000 		call chk_mounted
 7457               	.LVL600:
 7458               	.LM755:
 7459 29a4 8823      		tst r24
 7460               	.LVL601:
 7461 29a6 01F0      		breq .L528
 7462 29a8 282F      		mov r18,r24
 7463 29aa 00C0      		rjmp .L529
 7464               	.LVL602:
 7465               	.L528:
 7466               	.LM756:
 7467 29ac CE01      		movw r24,r28
 7468               	.LVL603:
 7469 29ae 0196      		adiw r24,1
 7470 29b0 89A3      		std Y+33,r24
 7471 29b2 9AA3      		std Y+34,r25
 7472               	.LM757:
 7473 29b4 6BA1      		ldd r22,Y+35
 7474 29b6 7CA1      		ldd r23,Y+36
 7475 29b8 C801      		movw r24,r16
 7476 29ba 0E94 0000 		call follow_path
 7477 29be 282F      		mov r18,r24
 7478               	.LVL604:
 7479               	.LM758:
 7480 29c0 452D      		mov r20,r5
 7481               	.LVL605:
 7482 29c2 50E0      		ldi r21,lo8(0)
 7483 29c4 CA01      		movw r24,r20
 7484 29c6 8C71      		andi r24,lo8(28)
 7485 29c8 9070      		andi r25,hi8(28)
 7486 29ca 892B      		or r24,r25
 7487 29cc 01F4      		brne .+2
 7488 29ce 00C0      		rjmp .L530
 7489               	.LBB697:
 7490               	.LM759:
 7491 29d0 2223      		tst r18
 7492 29d2 01F0      		breq .L531
 7493               	.LM760:
 7494 29d4 2430      		cpi r18,lo8(4)
 7495 29d6 01F0      		breq .+2
 7496 29d8 00C0      		rjmp .L529
 7497               	.LM761:
 7498 29da C801      		movw r24,r16
 7499 29dc 0E94 0000 		call dir_register
 7500               	.LVL606:
 7501 29e0 282F      		mov r18,r24
 7502               	.LVL607:
 7503               	.LM762:
 7504 29e2 8823      		tst r24
 7505 29e4 01F0      		breq .+2
 7506 29e6 00C0      		rjmp .L529
 7507               	.LVL608:
 7508               	.LM763:
 7509 29e8 B8E0      		ldi r27,lo8(8)
 7510 29ea 5B2A      		or r5,r27
 7511               	.LM764:
 7512 29ec 0F8D      		ldd r16,Y+31
 7513 29ee 18A1      		ldd r17,Y+32
 7514               	.LVL609:
 7515 29f0 00C0      		rjmp .L532
 7516               	.LVL610:
 7517               	.L531:
 7518               	.LM765:
 7519 29f2 52FE      		sbrs r5,2
 7520 29f4 00C0      		rjmp .L533
 7521               	.LVL611:
 7522 29f6 28E0      		ldi r18,lo8(8)
 7523 29f8 00C0      		rjmp .L529
 7524               	.L533:
 7525               	.LM766:
 7526 29fa 0F8D      		ldd r16,Y+31
 7527 29fc 18A1      		ldd r17,Y+32
 7528               	.LVL612:
 7529               	.LM767:
 7530 29fe 0115      		cp r16,__zero_reg__
 7531 2a00 1105      		cpc r17,__zero_reg__
 7532 2a02 01F4      		brne .+2
 7533 2a04 00C0      		rjmp .L534
 7534 2a06 F801      		movw r30,r16
 7535 2a08 8385      		ldd r24,Z+11
 7536 2a0a 8171      		andi r24,lo8(17)
 7537 2a0c 01F0      		breq .+2
 7538 2a0e 00C0      		rjmp .L534
 7539               	.LM768:
 7540 2a10 53FE      		sbrs r5,3
 7541 2a12 00C0      		rjmp .L532
 7542               	.LM769:
 7543 2a14 9589      		ldd r25,Z+21
 7544 2a16 80E0      		ldi r24,lo8(0)
 7545 2a18 2489      		ldd r18,Z+20
 7546               	.LVL613:
 7547 2a1a 30E0      		ldi r19,lo8(0)
 7548 2a1c 822B      		or r24,r18
 7549 2a1e 932B      		or r25,r19
 7550 2a20 A0E0      		ldi r26,lo8(0)
 7551 2a22 B0E0      		ldi r27,hi8(0)
 7552 2a24 7C01      		movw r14,r24
 7553 2a26 DD24      		clr r13
 7554 2a28 CC24      		clr r12
 7555               	.LVL614:
 7556 2a2a 938D      		ldd r25,Z+27
 7557 2a2c 80E0      		ldi r24,lo8(0)
 7558 2a2e 228D      		ldd r18,Z+26
 7559 2a30 30E0      		ldi r19,lo8(0)
 7560 2a32 822B      		or r24,r18
 7561 2a34 932B      		or r25,r19
 7562 2a36 A0E0      		ldi r26,lo8(0)
 7563 2a38 B0E0      		ldi r27,hi8(0)
 7564 2a3a C82A      		or r12,r24
 7565 2a3c D92A      		or r13,r25
 7566 2a3e EA2A      		or r14,r26
 7567 2a40 FB2A      		or r15,r27
 7568               	.LM770:
 7569 2a42 148A      		std Z+20,__zero_reg__
 7570 2a44 158A      		std Z+21,__zero_reg__
 7571               	.LM771:
 7572 2a46 128E      		std Z+26,__zero_reg__
 7573 2a48 138E      		std Z+27,__zero_reg__
 7574               	.LM772:
 7575 2a4a 148E      		std Z+28,__zero_reg__
 7576 2a4c 158E      		std Z+29,__zero_reg__
 7577 2a4e 168E      		std Z+30,__zero_reg__
 7578 2a50 178E      		std Z+31,__zero_reg__
 7579               	.LM773:
 7580 2a52 ED85      		ldd r30,Y+13
 7581 2a54 FE85      		ldd r31,Y+14
 7582 2a56 81E0      		ldi r24,lo8(1)
 7583 2a58 8483      		std Z+4,r24
 7584               	.LM774:
 7585 2a5a 82A4      		ldd r8,Z+42
 7586 2a5c 93A4      		ldd r9,Z+43
 7587 2a5e A4A4      		ldd r10,Z+44
 7588 2a60 B5A4      		ldd r11,Z+45
 7589               	.LVL615:
 7590               	.LM775:
 7591 2a62 C114      		cp r12,__zero_reg__
 7592 2a64 D104      		cpc r13,__zero_reg__
 7593 2a66 E104      		cpc r14,__zero_reg__
 7594 2a68 F104      		cpc r15,__zero_reg__
 7595 2a6a 01F0      		breq .L535
 7596               	.LM776:
 7597 2a6c CF01      		movw r24,r30
 7598 2a6e B701      		movw r22,r14
 7599 2a70 A601      		movw r20,r12
 7600 2a72 0E94 0000 		call remove_chain
 7601 2a76 282F      		mov r18,r24
 7602               	.LVL616:
 7603               	.LM777:
 7604 2a78 8823      		tst r24
 7605 2a7a 01F0      		breq .+2
 7606 2a7c 00C0      		rjmp .L529
 7607               	.LVL617:
 7608               	.LM778:
 7609 2a7e ED85      		ldd r30,Y+13
 7610 2a80 FE85      		ldd r31,Y+14
 7611 2a82 0894      		sec
 7612 2a84 C108      		sbc r12,__zero_reg__
 7613 2a86 D108      		sbc r13,__zero_reg__
 7614 2a88 E108      		sbc r14,__zero_reg__
 7615 2a8a F108      		sbc r15,__zero_reg__
 7616 2a8c C286      		std Z+10,r12
 7617 2a8e D386      		std Z+11,r13
 7618 2a90 E486      		std Z+12,r14
 7619 2a92 F586      		std Z+13,r15
 7620               	.L535:
 7621               	.LM779:
 7622 2a94 8D85      		ldd r24,Y+13
 7623 2a96 9E85      		ldd r25,Y+14
 7624               	.LVL618:
 7625 2a98 B501      		movw r22,r10
 7626 2a9a A401      		movw r20,r8
 7627 2a9c 0E94 0000 		call move_window
 7628               	.LVL619:
 7629 2aa0 282F      		mov r18,r24
 7630               	.LVL620:
 7631               	.LM780:
 7632 2aa2 8823      		tst r24
 7633 2aa4 01F0      		breq .+2
 7634 2aa6 00C0      		rjmp .L529
 7635               	.LVL621:
 7636               	.L532:
 7637               	.LM781:
 7638 2aa8 53FE      		sbrs r5,3
 7639 2aaa 00C0      		rjmp .L536
 7640               	.LM782:
 7641 2aac D801      		movw r26,r16
 7642 2aae 1B96      		adiw r26,11
 7643 2ab0 1C92      		st X,__zero_reg__
 7644 2ab2 1B97      		sbiw r26,11
 7645               	.LM783:
 7646 2ab4 1E96      		adiw r26,14
 7647 2ab6 1C92      		st X,__zero_reg__
 7648 2ab8 1E97      		sbiw r26,14
 7649 2aba 1F96      		adiw r26,15
 7650 2abc 1C92      		st X,__zero_reg__
 7651 2abe 1F97      		sbiw r26,15
 7652 2ac0 5096      		adiw r26,16
 7653 2ac2 1C92      		st X,__zero_reg__
 7654 2ac4 5097      		sbiw r26,16
 7655 2ac6 5196      		adiw r26,17
 7656 2ac8 1C92      		st X,__zero_reg__
 7657               	.LM784:
 7658 2aca ED85      		ldd r30,Y+13
 7659 2acc FE85      		ldd r31,Y+14
 7660 2ace 81E0      		ldi r24,lo8(1)
 7661 2ad0 8483      		std Z+4,r24
 7662               	.LM785:
 7663 2ad2 B0E2      		ldi r27,lo8(32)
 7664 2ad4 5B2A      		or r5,r27
 7665 2ad6 00C0      		rjmp .L536
 7666               	.LVL622:
 7667               	.L530:
 7668               	.LBE697:
 7669               	.LM786:
 7670 2ad8 2223      		tst r18
 7671 2ada 01F0      		breq .+2
 7672 2adc 00C0      		rjmp .L529
 7673               	.LM787:
 7674 2ade 0F8D      		ldd r16,Y+31
 7675 2ae0 18A1      		ldd r17,Y+32
 7676               	.LVL623:
 7677               	.LM788:
 7678 2ae2 0115      		cp r16,__zero_reg__
 7679 2ae4 1105      		cpc r17,__zero_reg__
 7680 2ae6 01F4      		brne .+2
 7681 2ae8 00C0      		rjmp .L537
 7682 2aea F801      		movw r30,r16
 7683 2aec 8385      		ldd r24,Z+11
 7684 2aee 84FD      		sbrc r24,4
 7685 2af0 00C0      		rjmp .L537
 7686               	.LM789:
 7687 2af2 51FE      		sbrs r5,1
 7688 2af4 00C0      		rjmp .L536
 7689               	.LVL624:
 7690 2af6 80FD      		sbrc r24,0
 7691 2af8 00C0      		rjmp .L534
 7692               	.LVL625:
 7693               	.L536:
 7694               	.LM790:
 7695 2afa ED85      		ldd r30,Y+13
 7696 2afc FE85      		ldd r31,Y+14
 7697 2afe 22A5      		ldd r18,Z+42
 7698 2b00 33A5      		ldd r19,Z+43
 7699 2b02 44A5      		ldd r20,Z+44
 7700 2b04 55A5      		ldd r21,Z+45
 7701               	.LVL626:
 7702 2b06 D301      		movw r26,r6
 7703 2b08 5A96      		adiw r26,26
 7704 2b0a 2D93      		st X+,r18
 7705 2b0c 3D93      		st X+,r19
 7706 2b0e 4D93      		st X+,r20
 7707 2b10 5C93      		st X,r21
 7708 2b12 5D97      		sbiw r26,26+3
 7709               	.LM791:
 7710 2b14 8F8D      		ldd r24,Y+31
 7711 2b16 98A1      		ldd r25,Y+32
 7712               	.LVL627:
 7713 2b18 5E96      		adiw r26,30
 7714 2b1a 8D93      		st X+,r24
 7715 2b1c 9C93      		st X,r25
 7716 2b1e 5F97      		sbiw r26,30+1
 7717               	.LM792:
 7718 2b20 1496      		adiw r26,4
 7719 2b22 5C92      		st X,r5
 7720               	.LM793:
 7721 2b24 D801      		movw r26,r16
 7722 2b26 5596      		adiw r26,21
 7723 2b28 3C91      		ld r19,X
 7724 2b2a 5597      		sbiw r26,21
 7725 2b2c 20E0      		ldi r18,lo8(0)
 7726 2b2e 5496      		adiw r26,20
 7727 2b30 8C91      		ld r24,X
 7728 2b32 5497      		sbiw r26,20
 7729 2b34 90E0      		ldi r25,lo8(0)
 7730 2b36 282B      		or r18,r24
 7731 2b38 392B      		or r19,r25
 7732 2b3a 40E0      		ldi r20,lo8(0)
 7733 2b3c 50E0      		ldi r21,hi8(0)
 7734 2b3e A901      		movw r20,r18
 7735 2b40 3327      		clr r19
 7736 2b42 2227      		clr r18
 7737 2b44 5B96      		adiw r26,27
 7738 2b46 9C91      		ld r25,X
 7739 2b48 5B97      		sbiw r26,27
 7740 2b4a 80E0      		ldi r24,lo8(0)
 7741 2b4c 5A96      		adiw r26,26
 7742 2b4e 6C91      		ld r22,X
 7743 2b50 70E0      		ldi r23,lo8(0)
 7744 2b52 862B      		or r24,r22
 7745 2b54 972B      		or r25,r23
 7746 2b56 A0E0      		ldi r26,lo8(0)
 7747 2b58 B0E0      		ldi r27,hi8(0)
 7748 2b5a 282B      		or r18,r24
 7749 2b5c 392B      		or r19,r25
 7750 2b5e 4A2B      		or r20,r26
 7751 2b60 5B2B      		or r21,r27
 7752 2b62 D301      		movw r26,r6
 7753 2b64 1E96      		adiw r26,14
 7754 2b66 2D93      		st X+,r18
 7755 2b68 3D93      		st X+,r19
 7756 2b6a 4D93      		st X+,r20
 7757 2b6c 5C93      		st X,r21
 7758 2b6e 5197      		sbiw r26,14+3
 7759               	.LM794:
 7760 2b70 D801      		movw r26,r16
 7761 2b72 5F96      		adiw r26,31
 7762 2b74 2C91      		ld r18,X
 7763 2b76 5F97      		sbiw r26,31
 7764 2b78 30E0      		ldi r19,lo8(0)
 7765 2b7a 40E0      		ldi r20,lo8(0)
 7766 2b7c 50E0      		ldi r21,hi8(0)
 7767 2b7e 522F      		mov r21,r18
 7768 2b80 4427      		clr r20
 7769 2b82 3327      		clr r19
 7770 2b84 2227      		clr r18
 7771 2b86 5E96      		adiw r26,30
 7772 2b88 8C91      		ld r24,X
 7773 2b8a 90E0      		ldi r25,lo8(0)
 7774 2b8c A0E0      		ldi r26,lo8(0)
 7775 2b8e B0E0      		ldi r27,hi8(0)
 7776 2b90 DC01      		movw r26,r24
 7777 2b92 9927      		clr r25
 7778 2b94 8827      		clr r24
 7779 2b96 282B      		or r18,r24
 7780 2b98 392B      		or r19,r25
 7781 2b9a 4A2B      		or r20,r26
 7782 2b9c 5B2B      		or r21,r27
 7783 2b9e D801      		movw r26,r16
 7784 2ba0 5C96      		adiw r26,28
 7785 2ba2 8C91      		ld r24,X
 7786 2ba4 90E0      		ldi r25,lo8(0)
 7787 2ba6 A0E0      		ldi r26,lo8(0)
 7788 2ba8 B0E0      		ldi r27,hi8(0)
 7789 2baa 282B      		or r18,r24
 7790 2bac 392B      		or r19,r25
 7791 2bae 4A2B      		or r20,r26
 7792 2bb0 5B2B      		or r21,r27
 7793 2bb2 D801      		movw r26,r16
 7794 2bb4 5D96      		adiw r26,29
 7795 2bb6 9C91      		ld r25,X
 7796 2bb8 80E0      		ldi r24,lo8(0)
 7797 2bba A0E0      		ldi r26,lo8(0)
 7798 2bbc B0E0      		ldi r27,hi8(0)
 7799 2bbe 282B      		or r18,r24
 7800 2bc0 392B      		or r19,r25
 7801 2bc2 4A2B      		or r20,r26
 7802 2bc4 5B2B      		or r21,r27
 7803 2bc6 D301      		movw r26,r6
 7804 2bc8 1A96      		adiw r26,10
 7805 2bca 2D93      		st X+,r18
 7806 2bcc 3D93      		st X+,r19
 7807 2bce 4D93      		st X+,r20
 7808 2bd0 5C93      		st X,r21
 7809 2bd2 1D97      		sbiw r26,10+3
 7810               	.LM795:
 7811 2bd4 1696      		adiw r26,6
 7812 2bd6 1D92      		st X+,__zero_reg__
 7813 2bd8 1D92      		st X+,__zero_reg__
 7814 2bda 1D92      		st X+,__zero_reg__
 7815 2bdc 1C92      		st X,__zero_reg__
 7816 2bde 1997      		sbiw r26,6+3
 7817 2be0 8FEF      		ldi r24,lo8(-1)
 7818 2be2 1596      		adiw r26,5
 7819 2be4 8C93      		st X,r24
 7820 2be6 1597      		sbiw r26,5
 7821               	.LM796:
 7822 2be8 5696      		adiw r26,22
 7823 2bea 1D92      		st X+,__zero_reg__
 7824 2bec 1D92      		st X+,__zero_reg__
 7825 2bee 1D92      		st X+,__zero_reg__
 7826 2bf0 1C92      		st X,__zero_reg__
 7827 2bf2 5997      		sbiw r26,22+3
 7828               	.LM797:
 7829 2bf4 ED93      		st X+,r30
 7830 2bf6 FC93      		st X,r31
 7831 2bf8 1197      		sbiw r26,1
 7832 2bfa 8681      		ldd r24,Z+6
 7833 2bfc 9781      		ldd r25,Z+7
 7834 2bfe 1296      		adiw r26,2
 7835 2c00 8D93      		st X+,r24
 7836 2c02 9C93      		st X,r25
 7837 2c04 1397      		sbiw r26,2+1
 7838 2c06 20E0      		ldi r18,lo8(0)
 7839               	.LVL628:
 7840 2c08 00C0      		rjmp .L529
 7841               	.LVL629:
 7842               	.L534:
 7843               	.LM798:
 7844 2c0a 27E0      		ldi r18,lo8(7)
 7845 2c0c 00C0      		rjmp .L529
 7846               	.LVL630:
 7847               	.L537:
 7848 2c0e 24E0      		ldi r18,lo8(4)
 7849               	.LVL631:
 7850               	.L529:
 7851               	.LM799:
 7852 2c10 822F      		mov r24,r18
 7853               	/* epilogue start */
 7854 2c12 A496      		adiw r28,36
 7855 2c14 CDBF      		out __SP_L__,r28
 7856 2c16 DEBF      		out __SP_H__,r29
 7857 2c18 CF91      		pop r28
 7858 2c1a DF91      		pop r29
 7859 2c1c 1F91      		pop r17
 7860 2c1e 0F91      		pop r16
 7861               	.LVL632:
 7862 2c20 FF90      		pop r15
 7863 2c22 EF90      		pop r14
 7864 2c24 DF90      		pop r13
 7865 2c26 CF90      		pop r12
 7866               	.LVL633:
 7867 2c28 BF90      		pop r11
 7868 2c2a AF90      		pop r10
 7869 2c2c 9F90      		pop r9
 7870 2c2e 8F90      		pop r8
 7871               	.LVL634:
 7872 2c30 7F90      		pop r7
 7873 2c32 6F90      		pop r6
 7874               	.LVL635:
 7875 2c34 5F90      		pop r5
 7876               	.LVL636:
 7877 2c36 0895      		ret
 7878               	.LFE78:
 7880               	.global	f_read
 7882               	f_read:
 7883               	.LFB79:
 7884               	.LM800:
 7885               	.LVL637:
 7886 2c38 2F92      		push r2
 7887 2c3a 3F92      		push r3
 7888 2c3c 4F92      		push r4
 7889 2c3e 5F92      		push r5
 7890 2c40 6F92      		push r6
 7891 2c42 7F92      		push r7
 7892 2c44 8F92      		push r8
 7893 2c46 9F92      		push r9
 7894 2c48 AF92      		push r10
 7895 2c4a BF92      		push r11
 7896 2c4c CF92      		push r12
 7897 2c4e DF92      		push r13
 7898 2c50 EF92      		push r14
 7899 2c52 FF92      		push r15
 7900 2c54 0F93      		push r16
 7901 2c56 1F93      		push r17
 7902 2c58 DF93      		push r29
 7903 2c5a CF93      		push r28
 7904 2c5c 00D0      		rcall .
 7905 2c5e 0F92      		push __tmp_reg__
 7906 2c60 CDB7      		in r28,__SP_L__
 7907 2c62 DEB7      		in r29,__SP_H__
 7908               	/* prologue: function */
 7909               	/* frame size = 4 */
 7910 2c64 8B83      		std Y+3,r24
 7911 2c66 9C83      		std Y+4,r25
 7912 2c68 162F      		mov r17,r22
 7913 2c6a 072F      		mov r16,r23
 7914               	.LVL638:
 7915 2c6c 4A01      		movw r8,r20
 7916 2c6e 2983      		std Y+1,r18
 7917 2c70 3A83      		std Y+2,r19
 7918               	.LM801:
 7919 2c72 D901      		movw r26,r18
 7920 2c74 1D92      		st X+,__zero_reg__
 7921 2c76 1C92      		st X,__zero_reg__
 7922               	.LM802:
 7923 2c78 FC01      		movw r30,r24
 7924 2c7a 6281      		ldd r22,Z+2
 7925 2c7c 7381      		ldd r23,Z+3
 7926               	.LVL639:
 7927 2c7e 8081      		ld r24,Z
 7928 2c80 9181      		ldd r25,Z+1
 7929               	.LVL640:
 7930 2c82 0E94 0000 		call validate
 7931               	.LVL641:
 7932 2c86 782E      		mov r7,r24
 7933               	.LVL642:
 7934               	.LM803:
 7935 2c88 8823      		tst r24
 7936 2c8a 01F0      		breq .+2
 7937 2c8c 00C0      		rjmp .L540
 7938               	.LVL643:
 7939               	.LM804:
 7940 2c8e AB81      		ldd r26,Y+3
 7941 2c90 BC81      		ldd r27,Y+4
 7942 2c92 1496      		adiw r26,4
 7943 2c94 8C91      		ld r24,X
 7944               	.LVL644:
 7945 2c96 87FD      		sbrc r24,7
 7946 2c98 00C0      		rjmp .L568
 7947               	.L541:
 7948               	.LM805:
 7949 2c9a 80FD      		sbrc r24,0
 7950 2c9c 00C0      		rjmp .L542
 7951 2c9e A7E0      		ldi r26,lo8(7)
 7952 2ca0 7A2E      		mov r7,r26
 7953 2ca2 00C0      		rjmp .L540
 7954               	.L542:
 7955               	.LM806:
 7956 2ca4 EB81      		ldd r30,Y+3
 7957 2ca6 FC81      		ldd r31,Y+4
 7958 2ca8 2285      		ldd r18,Z+10
 7959 2caa 3385      		ldd r19,Z+11
 7960 2cac 4485      		ldd r20,Z+12
 7961 2cae 5585      		ldd r21,Z+13
 7962               	.LVL645:
 7963 2cb0 8681      		ldd r24,Z+6
 7964 2cb2 9781      		ldd r25,Z+7
 7965 2cb4 A085      		ldd r26,Z+8
 7966 2cb6 B185      		ldd r27,Z+9
 7967 2cb8 281B      		sub r18,r24
 7968 2cba 390B      		sbc r19,r25
 7969 2cbc 4A0B      		sbc r20,r26
 7970 2cbe 5B0B      		sbc r21,r27
 7971               	.LM807:
 7972 2cc0 C401      		movw r24,r8
 7973 2cc2 A0E0      		ldi r26,lo8(0)
 7974 2cc4 B0E0      		ldi r27,hi8(0)
 7975               	.LVL646:
 7976 2cc6 2817      		cp r18,r24
 7977 2cc8 3907      		cpc r19,r25
 7978 2cca 4A07      		cpc r20,r26
 7979 2ccc 5B07      		cpc r21,r27
 7980 2cce 00F4      		brsh .L543
 7981               	.LVL647:
 7982 2cd0 4901      		movw r8,r18
 7983               	.LVL648:
 7984               	.L543:
 7985               	.LM808:
 7986 2cd2 812F      		mov r24,r17
 7987               	.LVL649:
 7988 2cd4 902F      		mov r25,r16
 7989               	.LVL650:
 7990 2cd6 9C01      		movw r18,r24
 7991               	.LVL651:
 7992 2cd8 2901      		movw r4,r18
 7993               	.LVL652:
 7994               	.LBB698:
 7995               	.LBB699:
 7996               	.LM809:
 7997 2cda F0E2      		ldi r31,lo8(32)
 7998 2cdc 2F2E      		mov r2,r31
 7999 2cde 312C      		mov r3,__zero_reg__
 8000               	.LVL653:
 8001 2ce0 6B81      		ldd r22,Y+3
 8002 2ce2 7C81      		ldd r23,Y+4
 8003 2ce4 260E      		add r2,r22
 8004 2ce6 371E      		adc r3,r23
 8005 2ce8 00C0      		rjmp .L544
 8006               	.LVL654:
 8007               	.L566:
 8008               	.LBE699:
 8009               	.LBE698:
 8010               	.LM810:
 8011 2cea AB81      		ldd r26,Y+3
 8012 2cec BC81      		ldd r27,Y+4
 8013               	.LVL655:
 8014 2cee 1696      		adiw r26,6
 8015 2cf0 2D91      		ld r18,X+
 8016 2cf2 3D91      		ld r19,X+
 8017 2cf4 4D91      		ld r20,X+
 8018 2cf6 5C91      		ld r21,X
 8019 2cf8 1997      		sbiw r26,6+3
 8020 2cfa DA01      		movw r26,r20
 8021 2cfc C901      		movw r24,r18
 8022 2cfe 9170      		andi r25,hi8(511)
 8023 2d00 A070      		andi r26,hlo8(511)
 8024 2d02 B070      		andi r27,hhi8(511)
 8025 2d04 0097      		sbiw r24,0
 8026 2d06 A105      		cpc r26,__zero_reg__
 8027 2d08 B105      		cpc r27,__zero_reg__
 8028 2d0a 01F0      		breq .+2
 8029 2d0c 00C0      		rjmp .L545
 8030               	.LM811:
 8031 2d0e AB81      		ldd r26,Y+3
 8032 2d10 BC81      		ldd r27,Y+4
 8033 2d12 ED91      		ld r30,X+
 8034 2d14 FC91      		ld r31,X
 8035 2d16 1197      		sbiw r26,1
 8036 2d18 1596      		adiw r26,5
 8037 2d1a 9C91      		ld r25,X
 8038 2d1c 1597      		sbiw r26,5
 8039               	.LVL656:
 8040 2d1e 8281      		ldd r24,Z+2
 8041 2d20 9817      		cp r25,r24
 8042 2d22 00F0      		brlo .L546
 8043               	.LM812:
 8044 2d24 2115      		cp r18,__zero_reg__
 8045 2d26 3105      		cpc r19,__zero_reg__
 8046 2d28 4105      		cpc r20,__zero_reg__
 8047 2d2a 5105      		cpc r21,__zero_reg__
 8048 2d2c 01F4      		brne .L547
 8049 2d2e 1E96      		adiw r26,14
 8050 2d30 6D91      		ld r22,X+
 8051 2d32 7D91      		ld r23,X+
 8052 2d34 8D91      		ld r24,X+
 8053 2d36 9C91      		ld r25,X
 8054 2d38 5197      		sbiw r26,14+3
 8055               	.LVL657:
 8056 2d3a 00C0      		rjmp .L548
 8057               	.LVL658:
 8058               	.L547:
 8059 2d3c AB81      		ldd r26,Y+3
 8060 2d3e BC81      		ldd r27,Y+4
 8061 2d40 5296      		adiw r26,18
 8062 2d42 4D91      		ld r20,X+
 8063 2d44 5D91      		ld r21,X+
 8064 2d46 6D91      		ld r22,X+
 8065 2d48 7C91      		ld r23,X
 8066 2d4a 5597      		sbiw r26,18+3
 8067 2d4c CF01      		movw r24,r30
 8068 2d4e 0E94 0000 		call get_fat
 8069               	.LVL659:
 8070               	.L548:
 8071               	.LM813:
 8072 2d52 6230      		cpi r22,lo8(2)
 8073 2d54 7105      		cpc r23,__zero_reg__
 8074 2d56 8105      		cpc r24,__zero_reg__
 8075 2d58 9105      		cpc r25,__zero_reg__
 8076 2d5a 00F4      		brsh .L549
 8077 2d5c EB81      		ldd r30,Y+3
 8078 2d5e FC81      		ldd r31,Y+4
 8079 2d60 8481      		ldd r24,Z+4
 8080 2d62 8068      		ori r24,lo8(-128)
 8081 2d64 8483      		std Z+4,r24
 8082               	.LVL660:
 8083               	.L568:
 8084 2d66 E2E0      		ldi r30,lo8(2)
 8085 2d68 7E2E      		mov r7,r30
 8086 2d6a 00C0      		rjmp .L540
 8087               	.LVL661:
 8088               	.L549:
 8089               	.LM814:
 8090 2d6c 6F3F      		cpi r22,lo8(-1)
 8091 2d6e FFEF      		ldi r31,hi8(-1)
 8092 2d70 7F07      		cpc r23,r31
 8093 2d72 FFEF      		ldi r31,hlo8(-1)
 8094 2d74 8F07      		cpc r24,r31
 8095 2d76 FFEF      		ldi r31,hhi8(-1)
 8096 2d78 9F07      		cpc r25,r31
 8097 2d7a 01F4      		brne .+2
 8098 2d7c 00C0      		rjmp .L569
 8099               	.L550:
 8100               	.LM815:
 8101 2d7e EB81      		ldd r30,Y+3
 8102 2d80 FC81      		ldd r31,Y+4
 8103 2d82 628B      		std Z+18,r22
 8104 2d84 738B      		std Z+19,r23
 8105 2d86 848B      		std Z+20,r24
 8106 2d88 958B      		std Z+21,r25
 8107               	.LM816:
 8108 2d8a 1582      		std Z+5,__zero_reg__
 8109               	.LVL662:
 8110               	.L546:
 8111               	.LM817:
 8112 2d8c AB81      		ldd r26,Y+3
 8113 2d8e BC81      		ldd r27,Y+4
 8114 2d90 0D91      		ld r16,X+
 8115 2d92 1C91      		ld r17,X
 8116 2d94 1197      		sbiw r26,1
 8117               	.LVL663:
 8118               	.LBB701:
 8119               	.LBB702:
 8120               	.LM818:
 8121 2d96 5296      		adiw r26,18
 8122 2d98 2D91      		ld r18,X+
 8123 2d9a 3D91      		ld r19,X+
 8124 2d9c 4D91      		ld r20,X+
 8125 2d9e 5C91      		ld r21,X
 8126 2da0 5597      		sbiw r26,18+3
 8127               	.LVL664:
 8128 2da2 2250      		subi r18,lo8(-(-2))
 8129 2da4 3040      		sbci r19,hi8(-(-2))
 8130 2da6 4040      		sbci r20,hlo8(-(-2))
 8131 2da8 5040      		sbci r21,hhi8(-(-2))
 8132               	.LM819:
 8133 2daa F801      		movw r30,r16
 8134 2dac 828D      		ldd r24,Z+26
 8135 2dae 938D      		ldd r25,Z+27
 8136 2db0 A48D      		ldd r26,Z+28
 8137 2db2 B58D      		ldd r27,Z+29
 8138 2db4 0297      		sbiw r24,2
 8139 2db6 A109      		sbc r26,__zero_reg__
 8140 2db8 B109      		sbc r27,__zero_reg__
 8141 2dba 2817      		cp r18,r24
 8142 2dbc 3907      		cpc r19,r25
 8143 2dbe 4A07      		cpc r20,r26
 8144 2dc0 5B07      		cpc r21,r27
 8145 2dc2 00F4      		brsh .L551
 8146               	.LM820:
 8147 2dc4 6280      		ldd r6,Z+2
 8148 2dc6 662D      		mov r22,r6
 8149               	.LVL665:
 8150 2dc8 70E0      		ldi r23,lo8(0)
 8151 2dca 80E0      		ldi r24,lo8(0)
 8152 2dcc 90E0      		ldi r25,hi8(0)
 8153 2dce 0E94 0000 		call __mulsi3
 8154               	.LVL666:
 8155 2dd2 9B01      		movw r18,r22
 8156 2dd4 AC01      		movw r20,r24
 8157               	.LVL667:
 8158 2dd6 F801      		movw r30,r16
 8159 2dd8 86A1      		ldd r24,Z+38
 8160 2dda 97A1      		ldd r25,Z+39
 8161 2ddc A0A5      		ldd r26,Z+40
 8162 2dde B1A5      		ldd r27,Z+41
 8163 2de0 280F      		add r18,r24
 8164 2de2 391F      		adc r19,r25
 8165 2de4 4A1F      		adc r20,r26
 8166 2de6 5B1F      		adc r21,r27
 8167               	.LBE702:
 8168               	.LBE701:
 8169               	.LM821:
 8170 2de8 2115      		cp r18,__zero_reg__
 8171 2dea 3105      		cpc r19,__zero_reg__
 8172 2dec 4105      		cpc r20,__zero_reg__
 8173 2dee 5105      		cpc r21,__zero_reg__
 8174 2df0 01F4      		brne .L552
 8175               	.LVL668:
 8176               	.L551:
 8177 2df2 AB81      		ldd r26,Y+3
 8178 2df4 BC81      		ldd r27,Y+4
 8179 2df6 1496      		adiw r26,4
 8180 2df8 8C91      		ld r24,X
 8181 2dfa 1497      		sbiw r26,4
 8182 2dfc 8068      		ori r24,lo8(-128)
 8183 2dfe 1496      		adiw r26,4
 8184 2e00 8C93      		st X,r24
 8185 2e02 00C0      		rjmp .L568
 8186               	.LVL669:
 8187               	.L552:
 8188               	.LM822:
 8189 2e04 EB81      		ldd r30,Y+3
 8190 2e06 FC81      		ldd r31,Y+4
 8191 2e08 8581      		ldd r24,Z+5
 8192 2e0a 5901      		movw r10,r18
 8193 2e0c 6A01      		movw r12,r20
 8194 2e0e A80E      		add r10,r24
 8195 2e10 B11C      		adc r11,__zero_reg__
 8196 2e12 C11C      		adc r12,__zero_reg__
 8197 2e14 D11C      		adc r13,__zero_reg__
 8198               	.LVL670:
 8199               	.LM823:
 8200 2e16 7401      		movw r14,r8
 8201 2e18 EF2C      		mov r14,r15
 8202 2e1a FF24      		clr r15
 8203 2e1c E694      		lsr r14
 8204               	.LM824:
 8205 2e1e E114      		cp r14,__zero_reg__
 8206 2e20 F104      		cpc r15,__zero_reg__
 8207 2e22 01F4      		brne .+2
 8208 2e24 00C0      		rjmp .L553
 8209               	.LM825:
 8210 2e26 282F      		mov r18,r24
 8211 2e28 30E0      		ldi r19,lo8(0)
 8212 2e2a C701      		movw r24,r14
 8213 2e2c 820F      		add r24,r18
 8214 2e2e 931F      		adc r25,r19
 8215 2e30 662D      		mov r22,r6
 8216 2e32 70E0      		ldi r23,lo8(0)
 8217 2e34 6817      		cp r22,r24
 8218 2e36 7907      		cpc r23,r25
 8219 2e38 00F4      		brsh .L554
 8220               	.LM826:
 8221 2e3a 7B01      		movw r14,r22
 8222 2e3c E21A      		sub r14,r18
 8223 2e3e F30A      		sbc r15,r19
 8224               	.L554:
 8225               	.LM827:
 8226 2e40 D801      		movw r26,r16
 8227 2e42 1196      		adiw r26,1
 8228 2e44 8C91      		ld r24,X
 8229 2e46 B201      		movw r22,r4
 8230 2e48 A601      		movw r20,r12
 8231 2e4a 9501      		movw r18,r10
 8232 2e4c 0E2D      		mov r16,r14
 8233 2e4e 0E94 0000 		call disk_read
 8234 2e52 EB81      		ldd r30,Y+3
 8235 2e54 FC81      		ldd r31,Y+4
 8236 2e56 9481      		ldd r25,Z+4
 8237 2e58 8823      		tst r24
 8238 2e5a 01F0      		breq .L555
 8239               	.LM828:
 8240 2e5c 9068      		ori r25,lo8(-128)
 8241 2e5e 9483      		std Z+4,r25
 8242 2e60 00C0      		rjmp .L570
 8243               	.L555:
 8244               	.LM829:
 8245 2e62 96FF      		sbrs r25,6
 8246 2e64 00C0      		rjmp .L556
 8247 2e66 AB81      		ldd r26,Y+3
 8248 2e68 BC81      		ldd r27,Y+4
 8249 2e6a 5696      		adiw r26,22
 8250 2e6c 2D91      		ld r18,X+
 8251 2e6e 3D91      		ld r19,X+
 8252 2e70 4D91      		ld r20,X+
 8253 2e72 5C91      		ld r21,X
 8254 2e74 5997      		sbiw r26,22+3
 8255 2e76 2A19      		sub r18,r10
 8256 2e78 3B09      		sbc r19,r11
 8257 2e7a 4C09      		sbc r20,r12
 8258 2e7c 5D09      		sbc r21,r13
 8259 2e7e C701      		movw r24,r14
 8260 2e80 A0E0      		ldi r26,lo8(0)
 8261 2e82 B0E0      		ldi r27,hi8(0)
 8262               	.LVL671:
 8263 2e84 2817      		cp r18,r24
 8264 2e86 3907      		cpc r19,r25
 8265 2e88 4A07      		cpc r20,r26
 8266 2e8a 5B07      		cpc r21,r27
 8267 2e8c 00F4      		brsh .L556
 8268               	.LVL672:
 8269               	.LBB703:
 8270               	.LBB700:
 8271               	.LM830:
 8272 2e8e 69E0      		ldi r22,9
 8273 2e90 220F      	1:	lsl r18
 8274 2e92 331F      		rol r19
 8275 2e94 441F      		rol r20
 8276 2e96 551F      		rol r21
 8277 2e98 6A95      		dec r22
 8278 2e9a 01F4      		brne 1b
 8279 2e9c C201      		movw r24,r4
 8280               	.LVL673:
 8281 2e9e 820F      		add r24,r18
 8282 2ea0 931F      		adc r25,r19
 8283 2ea2 D101      		movw r26,r2
 8284               	.LVL674:
 8285 2ea4 FC01      		movw r30,r24
 8286               	.LM831:
 8287 2ea6 9C01      		movw r18,r24
 8288 2ea8 2050      		subi r18,lo8(-(512))
 8289 2eaa 3E4F      		sbci r19,hi8(-(512))
 8290 2eac 00C0      		rjmp .L557
 8291               	.LVL675:
 8292               	.L558:
 8293 2eae 8D91      		ld r24,X+
 8294 2eb0 8193      		st Z+,r24
 8295               	.LVL676:
 8296               	.L557:
 8297 2eb2 E217      		cp r30,r18
 8298 2eb4 F307      		cpc r31,r19
 8299 2eb6 01F4      		brne .L558
 8300               	.LVL677:
 8301               	.L556:
 8302               	.LBE700:
 8303               	.LBE703:
 8304               	.LM832:
 8305 2eb8 EB81      		ldd r30,Y+3
 8306 2eba FC81      		ldd r31,Y+4
 8307               	.LVL678:
 8308 2ebc 8581      		ldd r24,Z+5
 8309               	.LVL679:
 8310 2ebe 8E0D      		add r24,r14
 8311 2ec0 8583      		std Z+5,r24
 8312               	.LM833:
 8313 2ec2 B701      		movw r22,r14
 8314               	.LVL680:
 8315 2ec4 762F      		mov r23,r22
 8316 2ec6 6627      		clr r22
 8317 2ec8 770F      		lsl r23
 8318 2eca 00C0      		rjmp .L559
 8319               	.LVL681:
 8320               	.L553:
 8321               	.LM834:
 8322 2ecc AB81      		ldd r26,Y+3
 8323 2ece BC81      		ldd r27,Y+4
 8324 2ed0 1496      		adiw r26,4
 8325 2ed2 8C91      		ld r24,X
 8326 2ed4 1497      		sbiw r26,4
 8327 2ed6 86FF      		sbrs r24,6
 8328 2ed8 00C0      		rjmp .L560
 8329               	.LM835:
 8330 2eda 5696      		adiw r26,22
 8331 2edc 2D91      		ld r18,X+
 8332 2ede 3D91      		ld r19,X+
 8333 2ee0 4D91      		ld r20,X+
 8334 2ee2 5C91      		ld r21,X
 8335 2ee4 5997      		sbiw r26,22+3
 8336 2ee6 F801      		movw r30,r16
 8337 2ee8 8181      		ldd r24,Z+1
 8338 2eea B101      		movw r22,r2
 8339 2eec 01E0      		ldi r16,lo8(1)
 8340 2eee 0E94 0000 		call disk_write
 8341 2ef2 AB81      		ldd r26,Y+3
 8342 2ef4 BC81      		ldd r27,Y+4
 8343 2ef6 1496      		adiw r26,4
 8344 2ef8 9C91      		ld r25,X
 8345 2efa 1497      		sbiw r26,4
 8346 2efc 8823      		tst r24
 8347 2efe 01F0      		breq .L561
 8348               	.LM836:
 8349 2f00 9068      		ori r25,lo8(-128)
 8350 2f02 1496      		adiw r26,4
 8351 2f04 9C93      		st X,r25
 8352 2f06 00C0      		rjmp .L570
 8353               	.L561:
 8354               	.LM837:
 8355 2f08 9F7B      		andi r25,lo8(-65)
 8356 2f0a EB81      		ldd r30,Y+3
 8357 2f0c FC81      		ldd r31,Y+4
 8358 2f0e 9483      		std Z+4,r25
 8359               	.L560:
 8360               	.LM838:
 8361 2f10 EB81      		ldd r30,Y+3
 8362 2f12 FC81      		ldd r31,Y+4
 8363 2f14 8689      		ldd r24,Z+22
 8364 2f16 9789      		ldd r25,Z+23
 8365 2f18 A08D      		ldd r26,Z+24
 8366 2f1a B18D      		ldd r27,Z+25
 8367 2f1c 8A15      		cp r24,r10
 8368 2f1e 9B05      		cpc r25,r11
 8369 2f20 AC05      		cpc r26,r12
 8370 2f22 BD05      		cpc r27,r13
 8371 2f24 01F0      		breq .L562
 8372               	.LM839:
 8373 2f26 0190      		ld __tmp_reg__,Z+
 8374 2f28 F081      		ld r31,Z
 8375 2f2a E02D      		mov r30,__tmp_reg__
 8376 2f2c 8181      		ldd r24,Z+1
 8377 2f2e B101      		movw r22,r2
 8378 2f30 A601      		movw r20,r12
 8379 2f32 9501      		movw r18,r10
 8380 2f34 01E0      		ldi r16,lo8(1)
 8381 2f36 0E94 0000 		call disk_read
 8382 2f3a 8823      		tst r24
 8383 2f3c 01F0      		breq .L562
 8384               	.LVL682:
 8385               	.L569:
 8386               	.LM840:
 8387 2f3e AB81      		ldd r26,Y+3
 8388 2f40 BC81      		ldd r27,Y+4
 8389 2f42 1496      		adiw r26,4
 8390 2f44 8C91      		ld r24,X
 8391 2f46 1497      		sbiw r26,4
 8392 2f48 8068      		ori r24,lo8(-128)
 8393 2f4a 1496      		adiw r26,4
 8394 2f4c 8C93      		st X,r24
 8395               	.L570:
 8396 2f4e 7724      		clr r7
 8397 2f50 7394      		inc r7
 8398 2f52 00C0      		rjmp .L540
 8399               	.LVL683:
 8400               	.L562:
 8401               	.LM841:
 8402 2f54 EB81      		ldd r30,Y+3
 8403 2f56 FC81      		ldd r31,Y+4
 8404 2f58 A68A      		std Z+22,r10
 8405 2f5a B78A      		std Z+23,r11
 8406 2f5c C08E      		std Z+24,r12
 8407 2f5e D18E      		std Z+25,r13
 8408               	.LM842:
 8409 2f60 8581      		ldd r24,Z+5
 8410 2f62 8F5F      		subi r24,lo8(-(1))
 8411 2f64 8583      		std Z+5,r24
 8412               	.LVL684:
 8413               	.L545:
 8414               	.LM843:
 8415 2f66 AB81      		ldd r26,Y+3
 8416 2f68 BC81      		ldd r27,Y+4
 8417 2f6a 1696      		adiw r26,6
 8418 2f6c 2D91      		ld r18,X+
 8419 2f6e 3D91      		ld r19,X+
 8420 2f70 4D91      		ld r20,X+
 8421 2f72 5C91      		ld r21,X
 8422 2f74 1997      		sbiw r26,6+3
 8423 2f76 C901      		movw r24,r18
 8424 2f78 9170      		andi r25,hi8(511)
 8425 2f7a E0E0      		ldi r30,lo8(512)
 8426 2f7c F2E0      		ldi r31,hi8(512)
 8427 2f7e E81B      		sub r30,r24
 8428 2f80 F90B      		sbc r31,r25
 8429 2f82 B401      		movw r22,r8
 8430 2f84 E815      		cp r30,r8
 8431 2f86 F905      		cpc r31,r9
 8432 2f88 00F4      		brsh .L563
 8433               	.LVL685:
 8434 2f8a BF01      		movw r22,r30
 8435               	.L563:
 8436               	.LM844:
 8437 2f8c 8B01      		movw r16,r22
 8438               	.LVL686:
 8439               	.LBB704:
 8440               	.LBB705:
 8441               	.LM845:
 8442 2f8e F901      		movw r30,r18
 8443               	.LVL687:
 8444 2f90 F170      		andi r31,hi8(511)
 8445 2f92 B096      		adiw r30,32
 8446 2f94 8B81      		ldd r24,Y+3
 8447 2f96 9C81      		ldd r25,Y+4
 8448 2f98 E80F      		add r30,r24
 8449 2f9a F91F      		adc r31,r25
 8450 2f9c 9201      		movw r18,r4
 8451 2f9e 00C0      		rjmp .L564
 8452               	.LVL688:
 8453               	.L565:
 8454               	.LM846:
 8455 2fa0 8191      		ld r24,Z+
 8456 2fa2 D901      		movw r26,r18
 8457 2fa4 8D93      		st X+,r24
 8458 2fa6 9D01      		movw r18,r26
 8459               	.LVL689:
 8460               	.L564:
 8461 2fa8 0150      		subi r16,lo8(-(-1))
 8462 2faa 1040      		sbci r17,hi8(-(-1))
 8463 2fac BFEF      		ldi r27,hi8(-1)
 8464 2fae 0F3F      		cpi r16,lo8(-1)
 8465 2fb0 1B07      		cpc r17,r27
 8466 2fb2 01F4      		brne .L565
 8467               	.LVL690:
 8468               	.L559:
 8469               	.LBE705:
 8470               	.LBE704:
 8471               	.LM847:
 8472 2fb4 460E      		add r4,r22
 8473 2fb6 571E      		adc r5,r23
 8474 2fb8 CB01      		movw r24,r22
 8475 2fba A0E0      		ldi r26,lo8(0)
 8476 2fbc B0E0      		ldi r27,hi8(0)
 8477               	.LVL691:
 8478 2fbe EB81      		ldd r30,Y+3
 8479 2fc0 FC81      		ldd r31,Y+4
 8480               	.LVL692:
 8481 2fc2 2681      		ldd r18,Z+6
 8482 2fc4 3781      		ldd r19,Z+7
 8483 2fc6 4085      		ldd r20,Z+8
 8484 2fc8 5185      		ldd r21,Z+9
 8485 2fca 280F      		add r18,r24
 8486 2fcc 391F      		adc r19,r25
 8487 2fce 4A1F      		adc r20,r26
 8488 2fd0 5B1F      		adc r21,r27
 8489 2fd2 2683      		std Z+6,r18
 8490 2fd4 3783      		std Z+7,r19
 8491 2fd6 4087      		std Z+8,r20
 8492 2fd8 5187      		std Z+9,r21
 8493 2fda E981      		ldd r30,Y+1
 8494 2fdc FA81      		ldd r31,Y+2
 8495 2fde 8081      		ld r24,Z
 8496 2fe0 9181      		ldd r25,Z+1
 8497 2fe2 860F      		add r24,r22
 8498 2fe4 971F      		adc r25,r23
 8499 2fe6 8083      		st Z,r24
 8500 2fe8 9183      		std Z+1,r25
 8501 2fea 861A      		sub r8,r22
 8502 2fec 970A      		sbc r9,r23
 8503               	.LVL693:
 8504               	.L544:
 8505               	.LM848:
 8506 2fee 8114      		cp r8,__zero_reg__
 8507 2ff0 9104      		cpc r9,__zero_reg__
 8508 2ff2 01F0      		breq .+2
 8509 2ff4 00C0      		rjmp .L566
 8510               	.LVL694:
 8511               	.L540:
 8512               	.LM849:
 8513 2ff6 872D      		mov r24,r7
 8514               	/* epilogue start */
 8515 2ff8 2496      		adiw r28,4
 8516 2ffa CDBF      		out __SP_L__,r28
 8517 2ffc DEBF      		out __SP_H__,r29
 8518 2ffe CF91      		pop r28
 8519 3000 DF91      		pop r29
 8520 3002 1F91      		pop r17
 8521               	.LVL695:
 8522 3004 0F91      		pop r16
 8523               	.LVL696:
 8524 3006 FF90      		pop r15
 8525 3008 EF90      		pop r14
 8526               	.LVL697:
 8527 300a DF90      		pop r13
 8528 300c CF90      		pop r12
 8529 300e BF90      		pop r11
 8530 3010 AF90      		pop r10
 8531               	.LVL698:
 8532 3012 9F90      		pop r9
 8533 3014 8F90      		pop r8
 8534               	.LVL699:
 8535 3016 7F90      		pop r7
 8536               	.LVL700:
 8537 3018 6F90      		pop r6
 8538 301a 5F90      		pop r5
 8539 301c 4F90      		pop r4
 8540               	.LVL701:
 8541 301e 3F90      		pop r3
 8542 3020 2F90      		pop r2
 8543               	.LVL702:
 8544 3022 0895      		ret
 8545               	.LFE79:
 8547               	.global	f_write
 8549               	f_write:
 8550               	.LFB80:
 8551               	.LM850:
 8552               	.LVL703:
 8553 3024 2F92      		push r2
 8554 3026 3F92      		push r3
 8555 3028 4F92      		push r4
 8556 302a 5F92      		push r5
 8557 302c 6F92      		push r6
 8558 302e 7F92      		push r7
 8559 3030 8F92      		push r8
 8560 3032 9F92      		push r9
 8561 3034 AF92      		push r10
 8562 3036 BF92      		push r11
 8563 3038 CF92      		push r12
 8564 303a DF92      		push r13
 8565 303c EF92      		push r14
 8566 303e FF92      		push r15
 8567 3040 0F93      		push r16
 8568 3042 1F93      		push r17
 8569 3044 DF93      		push r29
 8570 3046 CF93      		push r28
 8571 3048 00D0      		rcall .
 8572 304a 0F92      		push __tmp_reg__
 8573 304c CDB7      		in r28,__SP_L__
 8574 304e DEB7      		in r29,__SP_H__
 8575               	/* prologue: function */
 8576               	/* frame size = 4 */
 8577 3050 8B83      		std Y+3,r24
 8578 3052 9C83      		std Y+4,r25
 8579 3054 162F      		mov r17,r22
 8580 3056 072F      		mov r16,r23
 8581               	.LVL704:
 8582 3058 4A01      		movw r8,r20
 8583 305a 2983      		std Y+1,r18
 8584 305c 3A83      		std Y+2,r19
 8585               	.LM851:
 8586 305e D901      		movw r26,r18
 8587 3060 1D92      		st X+,__zero_reg__
 8588 3062 1C92      		st X,__zero_reg__
 8589               	.LM852:
 8590 3064 FC01      		movw r30,r24
 8591 3066 6281      		ldd r22,Z+2
 8592 3068 7381      		ldd r23,Z+3
 8593               	.LVL705:
 8594 306a 8081      		ld r24,Z
 8595 306c 9181      		ldd r25,Z+1
 8596               	.LVL706:
 8597 306e 0E94 0000 		call validate
 8598               	.LVL707:
 8599 3072 682E      		mov r6,r24
 8600               	.LVL708:
 8601               	.LM853:
 8602 3074 8823      		tst r24
 8603 3076 01F0      		breq .+2
 8604 3078 00C0      		rjmp .L572
 8605               	.LVL709:
 8606               	.LM854:
 8607 307a AB81      		ldd r26,Y+3
 8608 307c BC81      		ldd r27,Y+4
 8609 307e 1496      		adiw r26,4
 8610 3080 8C91      		ld r24,X
 8611               	.LVL710:
 8612 3082 87FD      		sbrc r24,7
 8613 3084 00C0      		rjmp .L603
 8614               	.L573:
 8615               	.LM855:
 8616 3086 81FD      		sbrc r24,1
 8617 3088 00C0      		rjmp .L574
 8618 308a 47E0      		ldi r20,lo8(7)
 8619 308c 642E      		mov r6,r20
 8620 308e 00C0      		rjmp .L572
 8621               	.L574:
 8622               	.LM856:
 8623 3090 EB81      		ldd r30,Y+3
 8624 3092 FC81      		ldd r31,Y+4
 8625 3094 2285      		ldd r18,Z+10
 8626 3096 3385      		ldd r19,Z+11
 8627 3098 4485      		ldd r20,Z+12
 8628 309a 5585      		ldd r21,Z+13
 8629 309c C401      		movw r24,r8
 8630 309e A0E0      		ldi r26,lo8(0)
 8631 30a0 B0E0      		ldi r27,hi8(0)
 8632               	.LVL711:
 8633 30a2 820F      		add r24,r18
 8634 30a4 931F      		adc r25,r19
 8635 30a6 A41F      		adc r26,r20
 8636 30a8 B51F      		adc r27,r21
 8637               	.LVL712:
 8638 30aa 8217      		cp r24,r18
 8639 30ac 9307      		cpc r25,r19
 8640 30ae A407      		cpc r26,r20
 8641 30b0 B507      		cpc r27,r21
 8642 30b2 00F4      		brsh .L575
 8643 30b4 8824      		clr r8
 8644 30b6 9924      		clr r9
 8645               	.LVL713:
 8646               	.L575:
 8647               	.LM857:
 8648 30b8 812F      		mov r24,r17
 8649               	.LVL714:
 8650 30ba 902F      		mov r25,r16
 8651               	.LVL715:
 8652 30bc 9C01      		movw r18,r24
 8653               	.LVL716:
 8654 30be 2901      		movw r4,r18
 8655               	.LVL717:
 8656               	.LM858:
 8657 30c0 30E2      		ldi r19,lo8(32)
 8658 30c2 232E      		mov r2,r19
 8659 30c4 312C      		mov r3,__zero_reg__
 8660               	.LVL718:
 8661 30c6 6B81      		ldd r22,Y+3
 8662 30c8 7C81      		ldd r23,Y+4
 8663 30ca 260E      		add r2,r22
 8664 30cc 371E      		adc r3,r23
 8665 30ce 00C0      		rjmp .L576
 8666               	.LVL719:
 8667               	.L600:
 8668               	.LM859:
 8669 30d0 AB81      		ldd r26,Y+3
 8670 30d2 BC81      		ldd r27,Y+4
 8671               	.LVL720:
 8672 30d4 1696      		adiw r26,6
 8673 30d6 2D91      		ld r18,X+
 8674 30d8 3D91      		ld r19,X+
 8675 30da 4D91      		ld r20,X+
 8676 30dc 5C91      		ld r21,X
 8677 30de 1997      		sbiw r26,6+3
 8678 30e0 DA01      		movw r26,r20
 8679 30e2 C901      		movw r24,r18
 8680 30e4 9170      		andi r25,hi8(511)
 8681 30e6 A070      		andi r26,hlo8(511)
 8682 30e8 B070      		andi r27,hhi8(511)
 8683 30ea 0097      		sbiw r24,0
 8684 30ec A105      		cpc r26,__zero_reg__
 8685 30ee B105      		cpc r27,__zero_reg__
 8686 30f0 01F0      		breq .+2
 8687 30f2 00C0      		rjmp .L577
 8688               	.LM860:
 8689 30f4 AB81      		ldd r26,Y+3
 8690 30f6 BC81      		ldd r27,Y+4
 8691 30f8 ED91      		ld r30,X+
 8692 30fa FC91      		ld r31,X
 8693 30fc 1197      		sbiw r26,1
 8694 30fe 1596      		adiw r26,5
 8695 3100 9C91      		ld r25,X
 8696 3102 1597      		sbiw r26,5
 8697               	.LVL721:
 8698 3104 8281      		ldd r24,Z+2
 8699 3106 9817      		cp r25,r24
 8700 3108 00F4      		brsh .+2
 8701 310a 00C0      		rjmp .L578
 8702               	.LM861:
 8703 310c 2115      		cp r18,__zero_reg__
 8704 310e 3105      		cpc r19,__zero_reg__
 8705 3110 4105      		cpc r20,__zero_reg__
 8706 3112 5105      		cpc r21,__zero_reg__
 8707 3114 01F4      		brne .L579
 8708               	.LM862:
 8709 3116 1E96      		adiw r26,14
 8710 3118 6D91      		ld r22,X+
 8711 311a 7D91      		ld r23,X+
 8712 311c 8D91      		ld r24,X+
 8713 311e 9C91      		ld r25,X
 8714 3120 5197      		sbiw r26,14+3
 8715               	.LVL722:
 8716               	.LM863:
 8717 3122 6115      		cp r22,__zero_reg__
 8718 3124 7105      		cpc r23,__zero_reg__
 8719 3126 8105      		cpc r24,__zero_reg__
 8720 3128 9105      		cpc r25,__zero_reg__
 8721 312a 01F4      		brne .L580
 8722               	.LM864:
 8723 312c CF01      		movw r24,r30
 8724 312e 40E0      		ldi r20,lo8(0)
 8725 3130 50E0      		ldi r21,hi8(0)
 8726 3132 60E0      		ldi r22,hlo8(0)
 8727 3134 70E0      		ldi r23,hhi8(0)
 8728 3136 0E94 0000 		call create_chain
 8729               	.LVL723:
 8730 313a EB81      		ldd r30,Y+3
 8731 313c FC81      		ldd r31,Y+4
 8732 313e 6687      		std Z+14,r22
 8733 3140 7787      		std Z+15,r23
 8734 3142 808B      		std Z+16,r24
 8735 3144 918B      		std Z+17,r25
 8736               	.LVL724:
 8737 3146 00C0      		rjmp .L581
 8738               	.LVL725:
 8739               	.L579:
 8740               	.LM865:
 8741 3148 AB81      		ldd r26,Y+3
 8742 314a BC81      		ldd r27,Y+4
 8743 314c 5296      		adiw r26,18
 8744 314e 4D91      		ld r20,X+
 8745 3150 5D91      		ld r21,X+
 8746 3152 6D91      		ld r22,X+
 8747 3154 7C91      		ld r23,X
 8748 3156 5597      		sbiw r26,18+3
 8749 3158 CF01      		movw r24,r30
 8750 315a 0E94 0000 		call create_chain
 8751               	.LVL726:
 8752               	.L581:
 8753               	.LM866:
 8754 315e 6115      		cp r22,__zero_reg__
 8755 3160 7105      		cpc r23,__zero_reg__
 8756 3162 8105      		cpc r24,__zero_reg__
 8757 3164 9105      		cpc r25,__zero_reg__
 8758 3166 01F4      		brne .+2
 8759 3168 00C0      		rjmp .L582
 8760               	.L580:
 8761               	.LM867:
 8762 316a 6130      		cpi r22,lo8(1)
 8763 316c 7105      		cpc r23,__zero_reg__
 8764 316e 8105      		cpc r24,__zero_reg__
 8765 3170 9105      		cpc r25,__zero_reg__
 8766 3172 01F4      		brne .L583
 8767 3174 EB81      		ldd r30,Y+3
 8768 3176 FC81      		ldd r31,Y+4
 8769 3178 8481      		ldd r24,Z+4
 8770 317a 8068      		ori r24,lo8(-128)
 8771 317c 8483      		std Z+4,r24
 8772               	.LVL727:
 8773               	.L603:
 8774 317e 22E0      		ldi r18,lo8(2)
 8775 3180 622E      		mov r6,r18
 8776               	.LVL728:
 8777 3182 00C0      		rjmp .L572
 8778               	.LVL729:
 8779               	.L583:
 8780               	.LM868:
 8781 3184 6F3F      		cpi r22,lo8(-1)
 8782 3186 FFEF      		ldi r31,hi8(-1)
 8783 3188 7F07      		cpc r23,r31
 8784 318a FFEF      		ldi r31,hlo8(-1)
 8785 318c 8F07      		cpc r24,r31
 8786 318e FFEF      		ldi r31,hhi8(-1)
 8787 3190 9F07      		cpc r25,r31
 8788 3192 01F4      		brne .L584
 8789 3194 AB81      		ldd r26,Y+3
 8790 3196 BC81      		ldd r27,Y+4
 8791 3198 1496      		adiw r26,4
 8792 319a 8C91      		ld r24,X
 8793 319c 1497      		sbiw r26,4
 8794 319e 8068      		ori r24,lo8(-128)
 8795 31a0 1496      		adiw r26,4
 8796 31a2 8C93      		st X,r24
 8797 31a4 00C0      		rjmp .L604
 8798               	.L584:
 8799               	.LM869:
 8800 31a6 EB81      		ldd r30,Y+3
 8801 31a8 FC81      		ldd r31,Y+4
 8802 31aa 628B      		std Z+18,r22
 8803 31ac 738B      		std Z+19,r23
 8804 31ae 848B      		std Z+20,r24
 8805 31b0 958B      		std Z+21,r25
 8806               	.LM870:
 8807 31b2 1582      		std Z+5,__zero_reg__
 8808               	.LVL730:
 8809               	.L578:
 8810               	.LM871:
 8811 31b4 AB81      		ldd r26,Y+3
 8812 31b6 BC81      		ldd r27,Y+4
 8813 31b8 1496      		adiw r26,4
 8814 31ba 8C91      		ld r24,X
 8815 31bc 1497      		sbiw r26,4
 8816 31be 86FF      		sbrs r24,6
 8817 31c0 00C0      		rjmp .L585
 8818               	.LM872:
 8819 31c2 ED91      		ld r30,X+
 8820 31c4 FC91      		ld r31,X
 8821 31c6 1197      		sbiw r26,1
 8822 31c8 5696      		adiw r26,22
 8823 31ca 2D91      		ld r18,X+
 8824 31cc 3D91      		ld r19,X+
 8825 31ce 4D91      		ld r20,X+
 8826 31d0 5C91      		ld r21,X
 8827 31d2 5997      		sbiw r26,22+3
 8828 31d4 8181      		ldd r24,Z+1
 8829 31d6 B101      		movw r22,r2
 8830               	.LVL731:
 8831 31d8 01E0      		ldi r16,lo8(1)
 8832               	.LVL732:
 8833 31da 0E94 0000 		call disk_write
 8834 31de EB81      		ldd r30,Y+3
 8835 31e0 FC81      		ldd r31,Y+4
 8836 31e2 9481      		ldd r25,Z+4
 8837 31e4 8823      		tst r24
 8838 31e6 01F0      		breq .L586
 8839               	.LM873:
 8840 31e8 9068      		ori r25,lo8(-128)
 8841 31ea 9483      		std Z+4,r25
 8842 31ec 00C0      		rjmp .L604
 8843               	.L586:
 8844               	.LM874:
 8845 31ee 9F7B      		andi r25,lo8(-65)
 8846 31f0 AB81      		ldd r26,Y+3
 8847 31f2 BC81      		ldd r27,Y+4
 8848 31f4 1496      		adiw r26,4
 8849 31f6 9C93      		st X,r25
 8850               	.LVL733:
 8851               	.L585:
 8852               	.LM875:
 8853 31f8 EB81      		ldd r30,Y+3
 8854 31fa FC81      		ldd r31,Y+4
 8855 31fc 0081      		ld r16,Z
 8856 31fe 1181      		ldd r17,Z+1
 8857               	.LVL734:
 8858               	.LBB706:
 8859               	.LBB707:
 8860               	.LM876:
 8861 3200 2289      		ldd r18,Z+18
 8862 3202 3389      		ldd r19,Z+19
 8863 3204 4489      		ldd r20,Z+20
 8864 3206 5589      		ldd r21,Z+21
 8865               	.LVL735:
 8866 3208 2250      		subi r18,lo8(-(-2))
 8867 320a 3040      		sbci r19,hi8(-(-2))
 8868 320c 4040      		sbci r20,hlo8(-(-2))
 8869 320e 5040      		sbci r21,hhi8(-(-2))
 8870               	.LM877:
 8871 3210 F801      		movw r30,r16
 8872 3212 828D      		ldd r24,Z+26
 8873 3214 938D      		ldd r25,Z+27
 8874 3216 A48D      		ldd r26,Z+28
 8875 3218 B58D      		ldd r27,Z+29
 8876 321a 0297      		sbiw r24,2
 8877 321c A109      		sbc r26,__zero_reg__
 8878 321e B109      		sbc r27,__zero_reg__
 8879 3220 2817      		cp r18,r24
 8880 3222 3907      		cpc r19,r25
 8881 3224 4A07      		cpc r20,r26
 8882 3226 5B07      		cpc r21,r27
 8883 3228 00F4      		brsh .L587
 8884               	.LM878:
 8885 322a 7280      		ldd r7,Z+2
 8886 322c 672D      		mov r22,r7
 8887               	.LVL736:
 8888 322e 70E0      		ldi r23,lo8(0)
 8889 3230 80E0      		ldi r24,lo8(0)
 8890 3232 90E0      		ldi r25,hi8(0)
 8891 3234 0E94 0000 		call __mulsi3
 8892               	.LVL737:
 8893 3238 9B01      		movw r18,r22
 8894 323a AC01      		movw r20,r24
 8895               	.LVL738:
 8896 323c F801      		movw r30,r16
 8897 323e 86A1      		ldd r24,Z+38
 8898 3240 97A1      		ldd r25,Z+39
 8899 3242 A0A5      		ldd r26,Z+40
 8900 3244 B1A5      		ldd r27,Z+41
 8901 3246 280F      		add r18,r24
 8902 3248 391F      		adc r19,r25
 8903 324a 4A1F      		adc r20,r26
 8904 324c 5B1F      		adc r21,r27
 8905               	.LBE707:
 8906               	.LBE706:
 8907               	.LM879:
 8908 324e 2115      		cp r18,__zero_reg__
 8909 3250 3105      		cpc r19,__zero_reg__
 8910 3252 4105      		cpc r20,__zero_reg__
 8911 3254 5105      		cpc r21,__zero_reg__
 8912 3256 01F4      		brne .L588
 8913               	.LVL739:
 8914               	.L587:
 8915 3258 AB81      		ldd r26,Y+3
 8916 325a BC81      		ldd r27,Y+4
 8917 325c 1496      		adiw r26,4
 8918 325e 8C91      		ld r24,X
 8919 3260 1497      		sbiw r26,4
 8920 3262 8068      		ori r24,lo8(-128)
 8921 3264 1496      		adiw r26,4
 8922 3266 8C93      		st X,r24
 8923 3268 00C0      		rjmp .L603
 8924               	.LVL740:
 8925               	.L588:
 8926               	.LM880:
 8927 326a EB81      		ldd r30,Y+3
 8928 326c FC81      		ldd r31,Y+4
 8929 326e 8581      		ldd r24,Z+5
 8930 3270 6901      		movw r12,r18
 8931 3272 7A01      		movw r14,r20
 8932 3274 C80E      		add r12,r24
 8933 3276 D11C      		adc r13,__zero_reg__
 8934 3278 E11C      		adc r14,__zero_reg__
 8935 327a F11C      		adc r15,__zero_reg__
 8936               	.LVL741:
 8937               	.LM881:
 8938 327c 5401      		movw r10,r8
 8939 327e AB2C      		mov r10,r11
 8940 3280 BB24      		clr r11
 8941 3282 A694      		lsr r10
 8942               	.LM882:
 8943 3284 A114      		cp r10,__zero_reg__
 8944 3286 B104      		cpc r11,__zero_reg__
 8945 3288 01F4      		brne .+2
 8946 328a 00C0      		rjmp .L589
 8947               	.LM883:
 8948 328c 282F      		mov r18,r24
 8949 328e 30E0      		ldi r19,lo8(0)
 8950 3290 C501      		movw r24,r10
 8951 3292 820F      		add r24,r18
 8952 3294 931F      		adc r25,r19
 8953 3296 672D      		mov r22,r7
 8954 3298 70E0      		ldi r23,lo8(0)
 8955 329a 6817      		cp r22,r24
 8956 329c 7907      		cpc r23,r25
 8957 329e 00F4      		brsh .L590
 8958               	.LM884:
 8959 32a0 5B01      		movw r10,r22
 8960 32a2 A21A      		sub r10,r18
 8961 32a4 B30A      		sbc r11,r19
 8962               	.L590:
 8963               	.LM885:
 8964 32a6 D801      		movw r26,r16
 8965 32a8 1196      		adiw r26,1
 8966 32aa 8C91      		ld r24,X
 8967 32ac B201      		movw r22,r4
 8968 32ae A701      		movw r20,r14
 8969 32b0 9601      		movw r18,r12
 8970 32b2 0A2D      		mov r16,r10
 8971 32b4 0E94 0000 		call disk_write
 8972 32b8 8823      		tst r24
 8973 32ba 01F0      		breq .+2
 8974 32bc 00C0      		rjmp .L605
 8975               	.L591:
 8976               	.LM886:
 8977 32be AB81      		ldd r26,Y+3
 8978 32c0 BC81      		ldd r27,Y+4
 8979 32c2 5696      		adiw r26,22
 8980 32c4 2D91      		ld r18,X+
 8981 32c6 3D91      		ld r19,X+
 8982 32c8 4D91      		ld r20,X+
 8983 32ca 5C91      		ld r21,X
 8984 32cc 5997      		sbiw r26,22+3
 8985 32ce 2C19      		sub r18,r12
 8986 32d0 3D09      		sbc r19,r13
 8987 32d2 4E09      		sbc r20,r14
 8988 32d4 5F09      		sbc r21,r15
 8989 32d6 C501      		movw r24,r10
 8990 32d8 A0E0      		ldi r26,lo8(0)
 8991 32da B0E0      		ldi r27,hi8(0)
 8992               	.LVL742:
 8993 32dc 2817      		cp r18,r24
 8994 32de 3907      		cpc r19,r25
 8995 32e0 4A07      		cpc r20,r26
 8996 32e2 5B07      		cpc r21,r27
 8997 32e4 00F4      		brsh .L592
 8998               	.LVL743:
 8999               	.LBB708:
 9000               	.LBB709:
 9001               	.LM887:
 9002 32e6 19E0      		ldi r17,9
 9003 32e8 220F      	1:	lsl r18
 9004 32ea 331F      		rol r19
 9005 32ec 441F      		rol r20
 9006 32ee 551F      		rol r21
 9007 32f0 1A95      		dec r17
 9008 32f2 01F4      		brne 1b
 9009               	.LVL744:
 9010 32f4 F201      		movw r30,r4
 9011               	.LVL745:
 9012 32f6 E20F      		add r30,r18
 9013 32f8 F31F      		adc r31,r19
 9014 32fa D101      		movw r26,r2
 9015               	.LVL746:
 9016               	.LM888:
 9017 32fc 9F01      		movw r18,r30
 9018 32fe 2050      		subi r18,lo8(-(512))
 9019 3300 3E4F      		sbci r19,hi8(-(512))
 9020 3302 00C0      		rjmp .L593
 9021               	.LVL747:
 9022               	.L594:
 9023 3304 8191      		ld r24,Z+
 9024               	.LVL748:
 9025 3306 8D93      		st X+,r24
 9026               	.LVL749:
 9027               	.L593:
 9028 3308 E217      		cp r30,r18
 9029 330a F307      		cpc r31,r19
 9030 330c 01F4      		brne .L594
 9031               	.LVL750:
 9032               	.LBE709:
 9033               	.LBE708:
 9034               	.LM889:
 9035 330e EB81      		ldd r30,Y+3
 9036 3310 FC81      		ldd r31,Y+4
 9037               	.LVL751:
 9038 3312 8481      		ldd r24,Z+4
 9039               	.LVL752:
 9040 3314 8F7B      		andi r24,lo8(-65)
 9041 3316 8483      		std Z+4,r24
 9042               	.LVL753:
 9043               	.L592:
 9044               	.LM890:
 9045 3318 AB81      		ldd r26,Y+3
 9046 331a BC81      		ldd r27,Y+4
 9047               	.LVL754:
 9048 331c 1596      		adiw r26,5
 9049 331e 8C91      		ld r24,X
 9050 3320 1597      		sbiw r26,5
 9051 3322 8A0D      		add r24,r10
 9052 3324 1596      		adiw r26,5
 9053 3326 8C93      		st X,r24
 9054               	.LM891:
 9055 3328 B501      		movw r22,r10
 9056               	.LVL755:
 9057 332a 762F      		mov r23,r22
 9058 332c 6627      		clr r22
 9059 332e 770F      		lsl r23
 9060 3330 00C0      		rjmp .L595
 9061               	.LVL756:
 9062               	.L589:
 9063               	.LM892:
 9064 3332 EB81      		ldd r30,Y+3
 9065 3334 FC81      		ldd r31,Y+4
 9066 3336 8689      		ldd r24,Z+22
 9067 3338 9789      		ldd r25,Z+23
 9068 333a A08D      		ldd r26,Z+24
 9069 333c B18D      		ldd r27,Z+25
 9070 333e 8C15      		cp r24,r12
 9071 3340 9D05      		cpc r25,r13
 9072 3342 AE05      		cpc r26,r14
 9073 3344 BF05      		cpc r27,r15
 9074 3346 01F0      		breq .L596
 9075               	.LM893:
 9076 3348 2681      		ldd r18,Z+6
 9077 334a 3781      		ldd r19,Z+7
 9078 334c 4085      		ldd r20,Z+8
 9079 334e 5185      		ldd r21,Z+9
 9080 3350 8285      		ldd r24,Z+10
 9081 3352 9385      		ldd r25,Z+11
 9082 3354 A485      		ldd r26,Z+12
 9083 3356 B585      		ldd r27,Z+13
 9084 3358 2817      		cp r18,r24
 9085 335a 3907      		cpc r19,r25
 9086 335c 4A07      		cpc r20,r26
 9087 335e 5B07      		cpc r21,r27
 9088 3360 00F4      		brsh .L596
 9089 3362 D801      		movw r26,r16
 9090 3364 1196      		adiw r26,1
 9091 3366 8C91      		ld r24,X
 9092 3368 B101      		movw r22,r2
 9093 336a A701      		movw r20,r14
 9094 336c 9601      		movw r18,r12
 9095 336e 01E0      		ldi r16,lo8(1)
 9096 3370 0E94 0000 		call disk_read
 9097 3374 8823      		tst r24
 9098 3376 01F0      		breq .L596
 9099               	.L605:
 9100               	.LM894:
 9101 3378 EB81      		ldd r30,Y+3
 9102 337a FC81      		ldd r31,Y+4
 9103 337c 8481      		ldd r24,Z+4
 9104 337e 8068      		ori r24,lo8(-128)
 9105 3380 8483      		std Z+4,r24
 9106               	.LVL757:
 9107               	.L604:
 9108 3382 6624      		clr r6
 9109 3384 6394      		inc r6
 9110 3386 00C0      		rjmp .L572
 9111               	.LVL758:
 9112               	.L596:
 9113               	.LM895:
 9114 3388 AB81      		ldd r26,Y+3
 9115 338a BC81      		ldd r27,Y+4
 9116 338c 5696      		adiw r26,22
 9117 338e CD92      		st X+,r12
 9118 3390 DD92      		st X+,r13
 9119 3392 ED92      		st X+,r14
 9120 3394 FC92      		st X,r15
 9121 3396 5997      		sbiw r26,22+3
 9122               	.LM896:
 9123 3398 1596      		adiw r26,5
 9124 339a 8C91      		ld r24,X
 9125 339c 1597      		sbiw r26,5
 9126 339e 8F5F      		subi r24,lo8(-(1))
 9127 33a0 1596      		adiw r26,5
 9128 33a2 8C93      		st X,r24
 9129               	.LVL759:
 9130               	.L577:
 9131               	.LM897:
 9132 33a4 EB81      		ldd r30,Y+3
 9133 33a6 FC81      		ldd r31,Y+4
 9134 33a8 2681      		ldd r18,Z+6
 9135 33aa 3781      		ldd r19,Z+7
 9136 33ac 4085      		ldd r20,Z+8
 9137 33ae 5185      		ldd r21,Z+9
 9138 33b0 C901      		movw r24,r18
 9139 33b2 9170      		andi r25,hi8(511)
 9140 33b4 60E0      		ldi r22,lo8(512)
 9141 33b6 72E0      		ldi r23,hi8(512)
 9142               	.LVL760:
 9143 33b8 681B      		sub r22,r24
 9144 33ba 790B      		sbc r23,r25
 9145 33bc CB01      		movw r24,r22
 9146               	.LVL761:
 9147 33be B401      		movw r22,r8
 9148               	.LVL762:
 9149 33c0 8815      		cp r24,r8
 9150 33c2 9905      		cpc r25,r9
 9151 33c4 00F4      		brsh .L597
 9152               	.LVL763:
 9153 33c6 BC01      		movw r22,r24
 9154               	.L597:
 9155               	.LM898:
 9156 33c8 8B01      		movw r16,r22
 9157               	.LVL764:
 9158               	.LBB710:
 9159               	.LBB711:
 9160               	.LM899:
 9161 33ca F901      		movw r30,r18
 9162               	.LVL765:
 9163 33cc F170      		andi r31,hi8(511)
 9164 33ce B096      		adiw r30,32
 9165 33d0 8B81      		ldd r24,Y+3
 9166 33d2 9C81      		ldd r25,Y+4
 9167               	.LVL766:
 9168 33d4 E80F      		add r30,r24
 9169 33d6 F91F      		adc r31,r25
 9170 33d8 9201      		movw r18,r4
 9171 33da 00C0      		rjmp .L598
 9172               	.LVL767:
 9173               	.L599:
 9174               	.LM900:
 9175 33dc D901      		movw r26,r18
 9176 33de 8D91      		ld r24,X+
 9177 33e0 9D01      		movw r18,r26
 9178 33e2 8193      		st Z+,r24
 9179               	.LVL768:
 9180               	.L598:
 9181 33e4 0150      		subi r16,lo8(-(-1))
 9182 33e6 1040      		sbci r17,hi8(-(-1))
 9183 33e8 BFEF      		ldi r27,hi8(-1)
 9184 33ea 0F3F      		cpi r16,lo8(-1)
 9185 33ec 1B07      		cpc r17,r27
 9186 33ee 01F4      		brne .L599
 9187               	.LBE711:
 9188               	.LBE710:
 9189               	.LM901:
 9190 33f0 EB81      		ldd r30,Y+3
 9191 33f2 FC81      		ldd r31,Y+4
 9192               	.LVL769:
 9193 33f4 8481      		ldd r24,Z+4
 9194 33f6 8064      		ori r24,lo8(64)
 9195 33f8 8483      		std Z+4,r24
 9196               	.LVL770:
 9197               	.L595:
 9198               	.LM902:
 9199 33fa 460E      		add r4,r22
 9200 33fc 571E      		adc r5,r23
 9201 33fe CB01      		movw r24,r22
 9202 3400 A0E0      		ldi r26,lo8(0)
 9203 3402 B0E0      		ldi r27,hi8(0)
 9204               	.LVL771:
 9205 3404 EB81      		ldd r30,Y+3
 9206 3406 FC81      		ldd r31,Y+4
 9207 3408 2681      		ldd r18,Z+6
 9208 340a 3781      		ldd r19,Z+7
 9209 340c 4085      		ldd r20,Z+8
 9210 340e 5185      		ldd r21,Z+9
 9211 3410 280F      		add r18,r24
 9212 3412 391F      		adc r19,r25
 9213 3414 4A1F      		adc r20,r26
 9214 3416 5B1F      		adc r21,r27
 9215 3418 2683      		std Z+6,r18
 9216 341a 3783      		std Z+7,r19
 9217 341c 4087      		std Z+8,r20
 9218 341e 5187      		std Z+9,r21
 9219 3420 E981      		ldd r30,Y+1
 9220 3422 FA81      		ldd r31,Y+2
 9221 3424 8081      		ld r24,Z
 9222 3426 9181      		ldd r25,Z+1
 9223 3428 860F      		add r24,r22
 9224 342a 971F      		adc r25,r23
 9225 342c 8083      		st Z,r24
 9226 342e 9183      		std Z+1,r25
 9227 3430 861A      		sub r8,r22
 9228 3432 970A      		sbc r9,r23
 9229               	.LVL772:
 9230               	.L576:
 9231               	.LM903:
 9232 3434 8114      		cp r8,__zero_reg__
 9233 3436 9104      		cpc r9,__zero_reg__
 9234 3438 01F0      		breq .+2
 9235 343a 00C0      		rjmp .L600
 9236               	.LVL773:
 9237               	.L582:
 9238               	.LM904:
 9239 343c AB81      		ldd r26,Y+3
 9240 343e BC81      		ldd r27,Y+4
 9241               	.LVL774:
 9242 3440 1696      		adiw r26,6
 9243 3442 2D91      		ld r18,X+
 9244 3444 3D91      		ld r19,X+
 9245 3446 4D91      		ld r20,X+
 9246 3448 5C91      		ld r21,X
 9247 344a 1997      		sbiw r26,6+3
 9248 344c 1A96      		adiw r26,10
 9249 344e 8D91      		ld r24,X+
 9250 3450 9D91      		ld r25,X+
 9251 3452 0D90      		ld __tmp_reg__,X+
 9252 3454 BC91      		ld r27,X
 9253 3456 A02D      		mov r26,__tmp_reg__
 9254 3458 8217      		cp r24,r18
 9255 345a 9307      		cpc r25,r19
 9256 345c A407      		cpc r26,r20
 9257 345e B507      		cpc r27,r21
 9258 3460 00F4      		brsh .L601
 9259 3462 EB81      		ldd r30,Y+3
 9260 3464 FC81      		ldd r31,Y+4
 9261 3466 2287      		std Z+10,r18
 9262 3468 3387      		std Z+11,r19
 9263 346a 4487      		std Z+12,r20
 9264 346c 5587      		std Z+13,r21
 9265               	.L601:
 9266               	.LM905:
 9267 346e AB81      		ldd r26,Y+3
 9268 3470 BC81      		ldd r27,Y+4
 9269 3472 1496      		adiw r26,4
 9270 3474 8C91      		ld r24,X
 9271 3476 1497      		sbiw r26,4
 9272 3478 8062      		ori r24,lo8(32)
 9273 347a 1496      		adiw r26,4
 9274 347c 8C93      		st X,r24
 9275               	.LVL775:
 9276               	.L572:
 9277               	.LM906:
 9278 347e 862D      		mov r24,r6
 9279               	/* epilogue start */
 9280 3480 2496      		adiw r28,4
 9281 3482 CDBF      		out __SP_L__,r28
 9282 3484 DEBF      		out __SP_H__,r29
 9283 3486 CF91      		pop r28
 9284 3488 DF91      		pop r29
 9285 348a 1F91      		pop r17
 9286               	.LVL776:
 9287 348c 0F91      		pop r16
 9288               	.LVL777:
 9289 348e FF90      		pop r15
 9290 3490 EF90      		pop r14
 9291 3492 DF90      		pop r13
 9292 3494 CF90      		pop r12
 9293               	.LVL778:
 9294 3496 BF90      		pop r11
 9295 3498 AF90      		pop r10
 9296               	.LVL779:
 9297 349a 9F90      		pop r9
 9298 349c 8F90      		pop r8
 9299               	.LVL780:
 9300 349e 7F90      		pop r7
 9301 34a0 6F90      		pop r6
 9302               	.LVL781:
 9303 34a2 5F90      		pop r5
 9304 34a4 4F90      		pop r4
 9305               	.LVL782:
 9306 34a6 3F90      		pop r3
 9307 34a8 2F90      		pop r2
 9308               	.LVL783:
 9309 34aa 0895      		ret
 9310               	.LFE80:
 9312               	.global	f_sync
 9314               	f_sync:
 9315               	.LFB81:
 9316               	.LM907:
 9317               	.LVL784:
 9318 34ac 0F93      		push r16
 9319 34ae CF93      		push r28
 9320 34b0 DF93      		push r29
 9321               	/* prologue: function */
 9322               	/* frame size = 0 */
 9323 34b2 EC01      		movw r28,r24
 9324               	.LM908:
 9325 34b4 6A81      		ldd r22,Y+2
 9326 34b6 7B81      		ldd r23,Y+3
 9327 34b8 8881      		ld r24,Y
 9328 34ba 9981      		ldd r25,Y+1
 9329               	.LVL785:
 9330 34bc 0E94 0000 		call validate
 9331 34c0 982F      		mov r25,r24
 9332               	.LVL786:
 9333               	.LM909:
 9334 34c2 8823      		tst r24
 9335 34c4 01F0      		breq .+2
 9336 34c6 00C0      		rjmp .L607
 9337               	.LVL787:
 9338               	.LM910:
 9339 34c8 8C81      		ldd r24,Y+4
 9340               	.LVL788:
 9341 34ca 85FF      		sbrs r24,5
 9342 34cc 00C0      		rjmp .L607
 9343               	.LM911:
 9344 34ce 86FF      		sbrs r24,6
 9345 34d0 00C0      		rjmp .L608
 9346               	.LM912:
 9347 34d2 E881      		ld r30,Y
 9348 34d4 F981      		ldd r31,Y+1
 9349 34d6 BE01      		movw r22,r28
 9350 34d8 605E      		subi r22,lo8(-(32))
 9351 34da 7F4F      		sbci r23,hi8(-(32))
 9352 34dc 2E89      		ldd r18,Y+22
 9353 34de 3F89      		ldd r19,Y+23
 9354 34e0 488D      		ldd r20,Y+24
 9355 34e2 598D      		ldd r21,Y+25
 9356 34e4 8181      		ldd r24,Z+1
 9357 34e6 01E0      		ldi r16,lo8(1)
 9358 34e8 0E94 0000 		call disk_write
 9359               	.LVL789:
 9360 34ec 8823      		tst r24
 9361 34ee 01F0      		breq .L609
 9362 34f0 91E0      		ldi r25,lo8(1)
 9363               	.LVL790:
 9364 34f2 00C0      		rjmp .L607
 9365               	.LVL791:
 9366               	.L609:
 9367               	.LM913:
 9368 34f4 8C81      		ldd r24,Y+4
 9369 34f6 8F7B      		andi r24,lo8(-65)
 9370 34f8 8C83      		std Y+4,r24
 9371               	.LVL792:
 9372               	.L608:
 9373               	.LM914:
 9374 34fa 4A8D      		ldd r20,Y+26
 9375 34fc 5B8D      		ldd r21,Y+27
 9376 34fe 6C8D      		ldd r22,Y+28
 9377 3500 7D8D      		ldd r23,Y+29
 9378 3502 8881      		ld r24,Y
 9379 3504 9981      		ldd r25,Y+1
 9380 3506 0E94 0000 		call move_window
 9381               	.LVL793:
 9382 350a 982F      		mov r25,r24
 9383               	.LVL794:
 9384               	.LM915:
 9385 350c 8823      		tst r24
 9386 350e 01F0      		breq .+2
 9387 3510 00C0      		rjmp .L607
 9388               	.LVL795:
 9389               	.LM916:
 9390 3512 EE8D      		ldd r30,Y+30
 9391 3514 FF8D      		ldd r31,Y+31
 9392               	.LVL796:
 9393               	.LM917:
 9394 3516 8385      		ldd r24,Z+11
 9395               	.LVL797:
 9396 3518 8062      		ori r24,lo8(32)
 9397 351a 8387      		std Z+11,r24
 9398               	.LM918:
 9399 351c 8A85      		ldd r24,Y+10
 9400 351e 848F      		std Z+28,r24
 9401 3520 8B85      		ldd r24,Y+11
 9402 3522 858F      		std Z+29,r24
 9403 3524 8A85      		ldd r24,Y+10
 9404 3526 9B85      		ldd r25,Y+11
 9405 3528 AC85      		ldd r26,Y+12
 9406 352a BD85      		ldd r27,Y+13
 9407 352c CD01      		movw r24,r26
 9408 352e AA27      		clr r26
 9409 3530 BB27      		clr r27
 9410 3532 868F      		std Z+30,r24
 9411 3534 8A85      		ldd r24,Y+10
 9412 3536 9B85      		ldd r25,Y+11
 9413 3538 AC85      		ldd r26,Y+12
 9414 353a BD85      		ldd r27,Y+13
 9415 353c 8B2F      		mov r24,r27
 9416 353e 9927      		clr r25
 9417 3540 AA27      		clr r26
 9418 3542 BB27      		clr r27
 9419 3544 878F      		std Z+31,r24
 9420               	.LM919:
 9421 3546 8E85      		ldd r24,Y+14
 9422 3548 828F      		std Z+26,r24
 9423 354a 8F85      		ldd r24,Y+15
 9424 354c 838F      		std Z+27,r24
 9425               	.LM920:
 9426 354e 8E85      		ldd r24,Y+14
 9427 3550 9F85      		ldd r25,Y+15
 9428 3552 A889      		ldd r26,Y+16
 9429 3554 B989      		ldd r27,Y+17
 9430 3556 CD01      		movw r24,r26
 9431 3558 AA27      		clr r26
 9432 355a BB27      		clr r27
 9433 355c 848B      		std Z+20,r24
 9434 355e 8E85      		ldd r24,Y+14
 9435 3560 9F85      		ldd r25,Y+15
 9436 3562 A889      		ldd r26,Y+16
 9437 3564 B989      		ldd r27,Y+17
 9438 3566 CD01      		movw r24,r26
 9439 3568 AA27      		clr r26
 9440 356a BB27      		clr r27
 9441 356c 892F      		mov r24,r25
 9442 356e 9927      		clr r25
 9443 3570 858B      		std Z+21,r24
 9444               	.LM921:
 9445 3572 168A      		std Z+22,__zero_reg__
 9446 3574 178A      		std Z+23,__zero_reg__
 9447 3576 108E      		std Z+24,__zero_reg__
 9448 3578 118E      		std Z+25,__zero_reg__
 9449               	.LM922:
 9450 357a 8C81      		ldd r24,Y+4
 9451 357c 8F7D      		andi r24,lo8(-33)
 9452 357e 8C83      		std Y+4,r24
 9453               	.LM923:
 9454 3580 E881      		ld r30,Y
 9455 3582 F981      		ldd r31,Y+1
 9456               	.LVL798:
 9457 3584 81E0      		ldi r24,lo8(1)
 9458 3586 8483      		std Z+4,r24
 9459               	.LM924:
 9460 3588 8881      		ld r24,Y
 9461 358a 9981      		ldd r25,Y+1
 9462 358c 0E94 0000 		call sync
 9463               	.LVL799:
 9464 3590 982F      		mov r25,r24
 9465               	.LVL800:
 9466               	.L607:
 9467               	.LM925:
 9468 3592 892F      		mov r24,r25
 9469               	/* epilogue start */
 9470 3594 DF91      		pop r29
 9471 3596 CF91      		pop r28
 9472               	.LVL801:
 9473 3598 0F91      		pop r16
 9474 359a 0895      		ret
 9475               	.LFE81:
 9477               	.global	f_close
 9479               	f_close:
 9480               	.LFB82:
 9481               	.LM926:
 9482               	.LVL802:
 9483 359c CF93      		push r28
 9484 359e DF93      		push r29
 9485               	/* prologue: function */
 9486               	/* frame size = 0 */
 9487 35a0 EC01      		movw r28,r24
 9488               	.LM927:
 9489 35a2 0E94 0000 		call f_sync
 9490               	.LVL803:
 9491               	.LM928:
 9492 35a6 8823      		tst r24
 9493               	.LVL804:
 9494 35a8 01F4      		brne .L612
 9495 35aa 1882      		st Y,__zero_reg__
 9496 35ac 1982      		std Y+1,__zero_reg__
 9497               	.L612:
 9498               	.LVL805:
 9499               	/* epilogue start */
 9500               	.LM929:
 9501 35ae DF91      		pop r29
 9502 35b0 CF91      		pop r28
 9503               	.LVL806:
 9504 35b2 0895      		ret
 9505               	.LFE82:
 9507               	.global	f_lseek
 9509               	f_lseek:
 9510               	.LFB83:
 9511               	.LM930:
 9512               	.LVL807:
 9513 35b4 2F92      		push r2
 9514 35b6 3F92      		push r3
 9515 35b8 4F92      		push r4
 9516 35ba 5F92      		push r5
 9517 35bc 6F92      		push r6
 9518 35be 7F92      		push r7
 9519 35c0 8F92      		push r8
 9520 35c2 9F92      		push r9
 9521 35c4 AF92      		push r10
 9522 35c6 BF92      		push r11
 9523 35c8 CF92      		push r12
 9524 35ca DF92      		push r13
 9525 35cc 0F93      		push r16
 9526 35ce 1F93      		push r17
 9527 35d0 DF93      		push r29
 9528 35d2 CF93      		push r28
 9529 35d4 CDB7      		in r28,__SP_L__
 9530 35d6 DEB7      		in r29,__SP_H__
 9531 35d8 2897      		sbiw r28,8
 9532 35da CDBF      		out __SP_L__,r28
 9533 35dc DEBF      		out __SP_H__,r29
 9534               	/* prologue: function */
 9535               	/* frame size = 8 */
 9536 35de 8F83      		std Y+7,r24
 9537 35e0 9887      		std Y+8,r25
 9538 35e2 3A01      		movw r6,r20
 9539 35e4 4B01      		movw r8,r22
 9540               	.LM931:
 9541 35e6 DC01      		movw r26,r24
 9542 35e8 1296      		adiw r26,2
 9543 35ea 6D91      		ld r22,X+
 9544 35ec 7C91      		ld r23,X
 9545 35ee 1397      		sbiw r26,2+1
 9546 35f0 8D91      		ld r24,X+
 9547 35f2 9C91      		ld r25,X
 9548               	.LVL808:
 9549 35f4 0E94 0000 		call validate
 9550               	.LVL809:
 9551 35f8 182F      		mov r17,r24
 9552               	.LVL810:
 9553               	.LM932:
 9554 35fa 8823      		tst r24
 9555 35fc 01F0      		breq .+2
 9556 35fe 00C0      		rjmp .L615
 9557               	.LVL811:
 9558               	.LM933:
 9559 3600 EF81      		ldd r30,Y+7
 9560 3602 F885      		ldd r31,Y+8
 9561 3604 8481      		ldd r24,Z+4
 9562               	.LVL812:
 9563 3606 87FD      		sbrc r24,7
 9564 3608 00C0      		rjmp .L642
 9565               	.L616:
 9566               	.LM934:
 9567 360a AF81      		ldd r26,Y+7
 9568 360c B885      		ldd r27,Y+8
 9569 360e 1A96      		adiw r26,10
 9570 3610 AD90      		ld r10,X+
 9571 3612 BD90      		ld r11,X+
 9572 3614 CD90      		ld r12,X+
 9573 3616 DC90      		ld r13,X
 9574 3618 1D97      		sbiw r26,10+3
 9575               	.LVL813:
 9576 361a A614      		cp r10,r6
 9577 361c B704      		cpc r11,r7
 9578 361e C804      		cpc r12,r8
 9579 3620 D904      		cpc r13,r9
 9580 3622 00F4      		brsh .L617
 9581 3624 81FF      		sbrs r24,1
 9582 3626 00C0      		rjmp .L618
 9583               	.L617:
 9584 3628 6401      		movw r12,r8
 9585 362a 5301      		movw r10,r6
 9586               	.L618:
 9587               	.LM935:
 9588 362c EF81      		ldd r30,Y+7
 9589 362e F885      		ldd r31,Y+8
 9590 3630 2681      		ldd r18,Z+6
 9591 3632 3781      		ldd r19,Z+7
 9592 3634 4085      		ldd r20,Z+8
 9593 3636 5185      		ldd r21,Z+9
 9594               	.LVL814:
 9595               	.LM936:
 9596 3638 1682      		std Z+6,__zero_reg__
 9597 363a 1782      		std Z+7,__zero_reg__
 9598 363c 1086      		std Z+8,__zero_reg__
 9599 363e 1186      		std Z+9,__zero_reg__
 9600 3640 8FEF      		ldi r24,lo8(-1)
 9601 3642 8583      		std Z+5,r24
 9602               	.LM937:
 9603 3644 A114      		cp r10,__zero_reg__
 9604 3646 B104      		cpc r11,__zero_reg__
 9605 3648 C104      		cpc r12,__zero_reg__
 9606 364a D104      		cpc r13,__zero_reg__
 9607 364c 01F4      		brne .+2
 9608 364e 00C0      		rjmp .L619
 9609               	.LM938:
 9610 3650 0190      		ld __tmp_reg__,Z+
 9611 3652 F081      		ld r31,Z
 9612 3654 E02D      		mov r30,__tmp_reg__
 9613 3656 E983      		std Y+1,r30
 9614 3658 FA83      		std Y+2,r31
 9615 365a 8281      		ldd r24,Z+2
 9616 365c 682E      		mov r6,r24
 9617               	.LVL815:
 9618 365e 7724      		clr r7
 9619               	.LVL816:
 9620 3660 8824      		clr r8
 9621 3662 9924      		clr r9
 9622               	.LVL817:
 9623 3664 89E0      		ldi r24,9
 9624 3666 660C      	1:	lsl r6
 9625 3668 771C      		rol r7
 9626 366a 881C      		rol r8
 9627 366c 991C      		rol r9
 9628 366e 8A95      		dec r24
 9629 3670 01F4      		brne 1b
 9630               	.LVL818:
 9631               	.LM939:
 9632 3672 2115      		cp r18,__zero_reg__
 9633 3674 3105      		cpc r19,__zero_reg__
 9634 3676 4105      		cpc r20,__zero_reg__
 9635 3678 5105      		cpc r21,__zero_reg__
 9636 367a 01F0      		breq .L620
 9637 367c 1901      		movw r2,r18
 9638 367e 2A01      		movw r4,r20
 9639 3680 0894      		sec
 9640 3682 2108      		sbc r2,__zero_reg__
 9641 3684 3108      		sbc r3,__zero_reg__
 9642 3686 4108      		sbc r4,__zero_reg__
 9643 3688 5108      		sbc r5,__zero_reg__
 9644 368a C601      		movw r24,r12
 9645 368c B501      		movw r22,r10
 9646 368e 6150      		subi r22,lo8(-(-1))
 9647 3690 7040      		sbci r23,hi8(-(-1))
 9648 3692 8040      		sbci r24,hlo8(-(-1))
 9649 3694 9040      		sbci r25,hhi8(-(-1))
 9650 3696 A401      		movw r20,r8
 9651 3698 9301      		movw r18,r6
 9652               	.LVL819:
 9653 369a 0E94 0000 		call __udivmodsi4
 9654 369e 2B83      		std Y+3,r18
 9655 36a0 3C83      		std Y+4,r19
 9656 36a2 4D83      		std Y+5,r20
 9657 36a4 5E83      		std Y+6,r21
 9658 36a6 C201      		movw r24,r4
 9659 36a8 B101      		movw r22,r2
 9660 36aa A401      		movw r20,r8
 9661 36ac 9301      		movw r18,r6
 9662 36ae 0E94 0000 		call __udivmodsi4
 9663 36b2 8B81      		ldd r24,Y+3
 9664 36b4 9C81      		ldd r25,Y+4
 9665 36b6 AD81      		ldd r26,Y+5
 9666 36b8 BE81      		ldd r27,Y+6
 9667 36ba 8217      		cp r24,r18
 9668 36bc 9307      		cpc r25,r19
 9669 36be A407      		cpc r26,r20
 9670 36c0 B507      		cpc r27,r21
 9671 36c2 00F0      		brlo .L620
 9672               	.LM940:
 9673 36c4 8827      		clr r24
 9674 36c6 9927      		clr r25
 9675 36c8 DC01      		movw r26,r24
 9676 36ca 8619      		sub r24,r6
 9677 36cc 9709      		sbc r25,r7
 9678 36ce A809      		sbc r26,r8
 9679 36d0 B909      		sbc r27,r9
 9680 36d2 8221      		and r24,r2
 9681 36d4 9321      		and r25,r3
 9682 36d6 A421      		and r26,r4
 9683 36d8 B521      		and r27,r5
 9684 36da EF81      		ldd r30,Y+7
 9685 36dc F885      		ldd r31,Y+8
 9686 36de 8683      		std Z+6,r24
 9687 36e0 9783      		std Z+7,r25
 9688 36e2 A087      		std Z+8,r26
 9689 36e4 B187      		std Z+9,r27
 9690               	.LM941:
 9691 36e6 A81A      		sub r10,r24
 9692 36e8 B90A      		sbc r11,r25
 9693 36ea CA0A      		sbc r12,r26
 9694 36ec DB0A      		sbc r13,r27
 9695               	.LM942:
 9696 36ee 4289      		ldd r20,Z+18
 9697 36f0 5389      		ldd r21,Z+19
 9698 36f2 6489      		ldd r22,Z+20
 9699 36f4 7589      		ldd r23,Z+21
 9700               	.LVL820:
 9701 36f6 00C0      		rjmp .L621
 9702               	.LVL821:
 9703               	.L620:
 9704               	.LM943:
 9705 36f8 AF81      		ldd r26,Y+7
 9706 36fa B885      		ldd r27,Y+8
 9707 36fc 1E96      		adiw r26,14
 9708 36fe 4D91      		ld r20,X+
 9709 3700 5D91      		ld r21,X+
 9710 3702 6D91      		ld r22,X+
 9711 3704 7C91      		ld r23,X
 9712 3706 5197      		sbiw r26,14+3
 9713               	.LVL822:
 9714               	.LM944:
 9715 3708 4115      		cp r20,__zero_reg__
 9716 370a 5105      		cpc r21,__zero_reg__
 9717 370c 6105      		cpc r22,__zero_reg__
 9718 370e 7105      		cpc r23,__zero_reg__
 9719 3710 01F4      		brne .L622
 9720               	.LM945:
 9721 3712 8981      		ldd r24,Y+1
 9722 3714 9A81      		ldd r25,Y+2
 9723 3716 40E0      		ldi r20,lo8(0)
 9724 3718 50E0      		ldi r21,hi8(0)
 9725 371a 60E0      		ldi r22,hlo8(0)
 9726 371c 70E0      		ldi r23,hhi8(0)
 9727               	.LVL823:
 9728 371e 0E94 0000 		call create_chain
 9729               	.LVL824:
 9730 3722 AB01      		movw r20,r22
 9731 3724 BC01      		movw r22,r24
 9732               	.LVL825:
 9733               	.LM946:
 9734 3726 4130      		cpi r20,lo8(1)
 9735 3728 5105      		cpc r21,__zero_reg__
 9736 372a 6105      		cpc r22,__zero_reg__
 9737 372c 7105      		cpc r23,__zero_reg__
 9738 372e 01F4      		brne .L623
 9739               	.L644:
 9740 3730 EF81      		ldd r30,Y+7
 9741 3732 F885      		ldd r31,Y+8
 9742 3734 8481      		ldd r24,Z+4
 9743 3736 8068      		ori r24,lo8(-128)
 9744 3738 8483      		std Z+4,r24
 9745               	.LVL826:
 9746               	.L642:
 9747 373a 12E0      		ldi r17,lo8(2)
 9748 373c 00C0      		rjmp .L615
 9749               	.LVL827:
 9750               	.L623:
 9751               	.LM947:
 9752 373e 4F3F      		cpi r20,lo8(-1)
 9753 3740 FFEF      		ldi r31,hi8(-1)
 9754 3742 5F07      		cpc r21,r31
 9755 3744 FFEF      		ldi r31,hlo8(-1)
 9756 3746 6F07      		cpc r22,r31
 9757 3748 FFEF      		ldi r31,hhi8(-1)
 9758 374a 7F07      		cpc r23,r31
 9759 374c 01F0      		breq .L645
 9760               	.L624:
 9761               	.LM948:
 9762 374e EF81      		ldd r30,Y+7
 9763 3750 F885      		ldd r31,Y+8
 9764 3752 4687      		std Z+14,r20
 9765 3754 5787      		std Z+15,r21
 9766 3756 608B      		std Z+16,r22
 9767 3758 718B      		std Z+17,r23
 9768               	.LVL828:
 9769               	.L622:
 9770               	.LM949:
 9771 375a AF81      		ldd r26,Y+7
 9772 375c B885      		ldd r27,Y+8
 9773 375e 5296      		adiw r26,18
 9774 3760 4D93      		st X+,r20
 9775 3762 5D93      		st X+,r21
 9776 3764 6D93      		st X+,r22
 9777 3766 7C93      		st X,r23
 9778 3768 5597      		sbiw r26,18+3
 9779               	.L621:
 9780               	.LM950:
 9781 376a 4115      		cp r20,__zero_reg__
 9782 376c 5105      		cpc r21,__zero_reg__
 9783 376e 6105      		cpc r22,__zero_reg__
 9784 3770 7105      		cpc r23,__zero_reg__
 9785 3772 01F0      		breq .+2
 9786 3774 00C0      		rjmp .L641
 9787 3776 00C0      		rjmp .L619
 9788               	.L632:
 9789               	.LM951:
 9790 3778 EF81      		ldd r30,Y+7
 9791 377a F885      		ldd r31,Y+8
 9792 377c 8481      		ldd r24,Z+4
 9793 377e 2081      		ld r18,Z
 9794 3780 3181      		ldd r19,Z+1
 9795               	.LVL829:
 9796 3782 81FF      		sbrs r24,1
 9797 3784 00C0      		rjmp .L626
 9798               	.LM952:
 9799 3786 C901      		movw r24,r18
 9800 3788 0E94 0000 		call create_chain
 9801               	.LVL830:
 9802 378c AB01      		movw r20,r22
 9803 378e BC01      		movw r22,r24
 9804               	.LVL831:
 9805               	.LM953:
 9806 3790 4115      		cp r20,__zero_reg__
 9807 3792 5105      		cpc r21,__zero_reg__
 9808 3794 6105      		cpc r22,__zero_reg__
 9809 3796 7105      		cpc r23,__zero_reg__
 9810 3798 01F4      		brne .L627
 9811 379a 6401      		movw r12,r8
 9812 379c 5301      		movw r10,r6
 9813 379e 00C0      		rjmp .L628
 9814               	.L626:
 9815               	.LM954:
 9816 37a0 C901      		movw r24,r18
 9817 37a2 0E94 0000 		call get_fat
 9818               	.LVL832:
 9819 37a6 AB01      		movw r20,r22
 9820 37a8 BC01      		movw r22,r24
 9821               	.LVL833:
 9822               	.L627:
 9823               	.LM955:
 9824 37aa 4F3F      		cpi r20,lo8(-1)
 9825 37ac FFEF      		ldi r31,hi8(-1)
 9826 37ae 5F07      		cpc r21,r31
 9827 37b0 FFEF      		ldi r31,hlo8(-1)
 9828 37b2 6F07      		cpc r22,r31
 9829 37b4 FFEF      		ldi r31,hhi8(-1)
 9830 37b6 7F07      		cpc r23,r31
 9831 37b8 01F4      		brne .L629
 9832               	.L645:
 9833 37ba AF81      		ldd r26,Y+7
 9834 37bc B885      		ldd r27,Y+8
 9835 37be 1496      		adiw r26,4
 9836 37c0 8C91      		ld r24,X
 9837 37c2 1497      		sbiw r26,4
 9838 37c4 8068      		ori r24,lo8(-128)
 9839 37c6 1496      		adiw r26,4
 9840 37c8 8C93      		st X,r24
 9841 37ca 00C0      		rjmp .L643
 9842               	.L629:
 9843               	.LM956:
 9844 37cc 4230      		cpi r20,lo8(2)
 9845 37ce 5105      		cpc r21,__zero_reg__
 9846 37d0 6105      		cpc r22,__zero_reg__
 9847 37d2 7105      		cpc r23,__zero_reg__
 9848 37d4 00F4      		brsh .+2
 9849 37d6 00C0      		rjmp .L644
 9850 37d8 AF81      		ldd r26,Y+7
 9851 37da B885      		ldd r27,Y+8
 9852 37dc ED91      		ld r30,X+
 9853 37de FC91      		ld r31,X
 9854 37e0 828D      		ldd r24,Z+26
 9855 37e2 938D      		ldd r25,Z+27
 9856 37e4 A48D      		ldd r26,Z+28
 9857 37e6 B58D      		ldd r27,Z+29
 9858 37e8 4817      		cp r20,r24
 9859 37ea 5907      		cpc r21,r25
 9860 37ec 6A07      		cpc r22,r26
 9861 37ee 7B07      		cpc r23,r27
 9862 37f0 00F0      		brlo .+2
 9863 37f2 00C0      		rjmp .L644
 9864               	.L631:
 9865               	.LM957:
 9866 37f4 AF81      		ldd r26,Y+7
 9867 37f6 B885      		ldd r27,Y+8
 9868 37f8 5296      		adiw r26,18
 9869 37fa 4D93      		st X+,r20
 9870 37fc 5D93      		st X+,r21
 9871 37fe 6D93      		st X+,r22
 9872 3800 7C93      		st X,r23
 9873 3802 5597      		sbiw r26,18+3
 9874               	.LM958:
 9875 3804 FD01      		movw r30,r26
 9876 3806 8681      		ldd r24,Z+6
 9877 3808 9781      		ldd r25,Z+7
 9878 380a A085      		ldd r26,Z+8
 9879 380c B185      		ldd r27,Z+9
 9880 380e 860D      		add r24,r6
 9881 3810 971D      		adc r25,r7
 9882 3812 A81D      		adc r26,r8
 9883 3814 B91D      		adc r27,r9
 9884 3816 8683      		std Z+6,r24
 9885 3818 9783      		std Z+7,r25
 9886 381a A087      		std Z+8,r26
 9887 381c B187      		std Z+9,r27
 9888               	.LM959:
 9889 381e A618      		sub r10,r6
 9890 3820 B708      		sbc r11,r7
 9891 3822 C808      		sbc r12,r8
 9892 3824 D908      		sbc r13,r9
 9893               	.LVL834:
 9894               	.L641:
 9895               	.LM960:
 9896 3826 6A14      		cp r6,r10
 9897 3828 7B04      		cpc r7,r11
 9898 382a 8C04      		cpc r8,r12
 9899 382c 9D04      		cpc r9,r13
 9900 382e 00F4      		brsh .+2
 9901 3830 00C0      		rjmp .L632
 9902               	.L628:
 9903               	.LM961:
 9904 3832 EF81      		ldd r30,Y+7
 9905 3834 F885      		ldd r31,Y+8
 9906 3836 8681      		ldd r24,Z+6
 9907 3838 9781      		ldd r25,Z+7
 9908 383a A085      		ldd r26,Z+8
 9909 383c B185      		ldd r27,Z+9
 9910 383e 8A0D      		add r24,r10
 9911 3840 9B1D      		adc r25,r11
 9912 3842 AC1D      		adc r26,r12
 9913 3844 BD1D      		adc r27,r13
 9914 3846 8683      		std Z+6,r24
 9915 3848 9783      		std Z+7,r25
 9916 384a A087      		std Z+8,r26
 9917 384c B187      		std Z+9,r27
 9918               	.LM962:
 9919 384e D601      		movw r26,r12
 9920 3850 C501      		movw r24,r10
 9921 3852 09E0      		ldi r16,9
 9922 3854 B695      	1:	lsr r27
 9923 3856 A795      		ror r26
 9924 3858 9795      		ror r25
 9925 385a 8795      		ror r24
 9926 385c 0A95      		dec r16
 9927 385e 01F4      		brne 1b
 9928 3860 082F      		mov r16,r24
 9929 3862 8583      		std Z+5,r24
 9930               	.LM963:
 9931 3864 8FEF      		ldi r24,lo8(511)
 9932 3866 91E0      		ldi r25,hi8(511)
 9933 3868 A0E0      		ldi r26,hlo8(511)
 9934 386a B0E0      		ldi r27,hhi8(511)
 9935 386c A822      		and r10,r24
 9936 386e B922      		and r11,r25
 9937 3870 CA22      		and r12,r26
 9938 3872 DB22      		and r13,r27
 9939 3874 A114      		cp r10,__zero_reg__
 9940 3876 B104      		cpc r11,__zero_reg__
 9941 3878 C104      		cpc r12,__zero_reg__
 9942 387a D104      		cpc r13,__zero_reg__
 9943 387c 01F4      		brne .+2
 9944 387e 00C0      		rjmp .L619
 9945               	.LM964:
 9946 3880 8080      		ld r8,Z
 9947 3882 9180      		ldd r9,Z+1
 9948               	.LVL835:
 9949               	.LBB712:
 9950               	.LBB713:
 9951               	.LM965:
 9952 3884 3EEF      		ldi r19,lo8(-2)
 9953 3886 A32E      		mov r10,r19
 9954 3888 3FEF      		ldi r19,hi8(-2)
 9955 388a B32E      		mov r11,r19
 9956 388c 3FEF      		ldi r19,hlo8(-2)
 9957 388e C32E      		mov r12,r19
 9958 3890 3FEF      		ldi r19,hhi8(-2)
 9959 3892 D32E      		mov r13,r19
 9960               	.LVL836:
 9961 3894 A40E      		add r10,r20
 9962 3896 B51E      		adc r11,r21
 9963 3898 C61E      		adc r12,r22
 9964 389a D71E      		adc r13,r23
 9965               	.LM966:
 9966 389c F401      		movw r30,r8
 9967 389e 828D      		ldd r24,Z+26
 9968 38a0 938D      		ldd r25,Z+27
 9969 38a2 A48D      		ldd r26,Z+28
 9970 38a4 B58D      		ldd r27,Z+29
 9971 38a6 0297      		sbiw r24,2
 9972 38a8 A109      		sbc r26,__zero_reg__
 9973 38aa B109      		sbc r27,__zero_reg__
 9974 38ac A816      		cp r10,r24
 9975 38ae B906      		cpc r11,r25
 9976 38b0 CA06      		cpc r12,r26
 9977 38b2 DB06      		cpc r13,r27
 9978 38b4 00F4      		brsh .L633
 9979               	.LM967:
 9980 38b6 2281      		ldd r18,Z+2
 9981               	.LVL837:
 9982 38b8 30E0      		ldi r19,lo8(0)
 9983 38ba 40E0      		ldi r20,lo8(0)
 9984 38bc 50E0      		ldi r21,hi8(0)
 9985               	.LVL838:
 9986 38be C601      		movw r24,r12
 9987 38c0 B501      		movw r22,r10
 9988 38c2 0E94 0000 		call __mulsi3
 9989 38c6 9B01      		movw r18,r22
 9990 38c8 AC01      		movw r20,r24
 9991               	.LVL839:
 9992 38ca F401      		movw r30,r8
 9993 38cc 86A1      		ldd r24,Z+38
 9994 38ce 97A1      		ldd r25,Z+39
 9995 38d0 A0A5      		ldd r26,Z+40
 9996 38d2 B1A5      		ldd r27,Z+41
 9997 38d4 280F      		add r18,r24
 9998 38d6 391F      		adc r19,r25
 9999 38d8 4A1F      		adc r20,r26
 10000 38da 5B1F      		adc r21,r27
 10001               	.LBE713:
 10002               	.LBE712:
 10003               	.LM968:
 10004 38dc 2115      		cp r18,__zero_reg__
 10005 38de 3105      		cpc r19,__zero_reg__
 10006 38e0 4105      		cpc r20,__zero_reg__
 10007 38e2 5105      		cpc r21,__zero_reg__
 10008 38e4 01F4      		brne .L634
 10009               	.LVL840:
 10010               	.L633:
 10011 38e6 AF81      		ldd r26,Y+7
 10012 38e8 B885      		ldd r27,Y+8
 10013 38ea 1496      		adiw r26,4
 10014 38ec 8C91      		ld r24,X
 10015 38ee 1497      		sbiw r26,4
 10016 38f0 8068      		ori r24,lo8(-128)
 10017 38f2 1496      		adiw r26,4
 10018 38f4 8C93      		st X,r24
 10019 38f6 00C0      		rjmp .L642
 10020               	.LVL841:
 10021               	.L634:
 10022               	.LM969:
 10023 38f8 5901      		movw r10,r18
 10024 38fa 6A01      		movw r12,r20
 10025               	.LVL842:
 10026 38fc A00E      		add r10,r16
 10027 38fe B11C      		adc r11,__zero_reg__
 10028 3900 C11C      		adc r12,__zero_reg__
 10029 3902 D11C      		adc r13,__zero_reg__
 10030               	.LVL843:
 10031               	.LM970:
 10032 3904 0F5F      		subi r16,lo8(-(1))
 10033 3906 EF81      		ldd r30,Y+7
 10034 3908 F885      		ldd r31,Y+8
 10035 390a 0583      		std Z+5,r16
 10036 390c 00C0      		rjmp .L635
 10037               	.LVL844:
 10038               	.L619:
 10039 390e AA24      		clr r10
 10040 3910 BB24      		clr r11
 10041 3912 6501      		movw r12,r10
 10042               	.LVL845:
 10043               	.L635:
 10044               	.LM971:
 10045 3914 EF81      		ldd r30,Y+7
 10046 3916 F885      		ldd r31,Y+8
 10047 3918 8681      		ldd r24,Z+6
 10048 391a 9781      		ldd r25,Z+7
 10049 391c A085      		ldd r26,Z+8
 10050 391e B185      		ldd r27,Z+9
 10051 3920 9170      		andi r25,hi8(511)
 10052 3922 A070      		andi r26,hlo8(511)
 10053 3924 B070      		andi r27,hhi8(511)
 10054 3926 0097      		sbiw r24,0
 10055 3928 A105      		cpc r26,__zero_reg__
 10056 392a B105      		cpc r27,__zero_reg__
 10057 392c 01F4      		brne .+2
 10058 392e 00C0      		rjmp .L636
 10059 3930 2689      		ldd r18,Z+22
 10060 3932 3789      		ldd r19,Z+23
 10061 3934 408D      		ldd r20,Z+24
 10062 3936 518D      		ldd r21,Z+25
 10063               	.LVL846:
 10064 3938 A216      		cp r10,r18
 10065 393a B306      		cpc r11,r19
 10066 393c C406      		cpc r12,r20
 10067 393e D506      		cpc r13,r21
 10068 3940 01F0      		breq .L636
 10069               	.LM972:
 10070 3942 8481      		ldd r24,Z+4
 10071 3944 86FF      		sbrs r24,6
 10072 3946 00C0      		rjmp .L637
 10073               	.LM973:
 10074 3948 0190      		ld __tmp_reg__,Z+
 10075 394a F081      		ld r31,Z
 10076 394c E02D      		mov r30,__tmp_reg__
 10077 394e 6F81      		ldd r22,Y+7
 10078 3950 7885      		ldd r23,Y+8
 10079 3952 605E      		subi r22,lo8(-(32))
 10080 3954 7F4F      		sbci r23,hi8(-(32))
 10081 3956 8181      		ldd r24,Z+1
 10082 3958 01E0      		ldi r16,lo8(1)
 10083 395a 0E94 0000 		call disk_write
 10084               	.LVL847:
 10085 395e AF81      		ldd r26,Y+7
 10086 3960 B885      		ldd r27,Y+8
 10087 3962 1496      		adiw r26,4
 10088 3964 9C91      		ld r25,X
 10089 3966 1497      		sbiw r26,4
 10090 3968 8823      		tst r24
 10091 396a 01F0      		breq .L638
 10092               	.LM974:
 10093 396c 9068      		ori r25,lo8(-128)
 10094 396e 1496      		adiw r26,4
 10095 3970 9C93      		st X,r25
 10096 3972 00C0      		rjmp .L643
 10097               	.L638:
 10098               	.LM975:
 10099 3974 9F7B      		andi r25,lo8(-65)
 10100 3976 EF81      		ldd r30,Y+7
 10101 3978 F885      		ldd r31,Y+8
 10102 397a 9483      		std Z+4,r25
 10103               	.LVL848:
 10104               	.L637:
 10105               	.LM976:
 10106 397c AF81      		ldd r26,Y+7
 10107 397e B885      		ldd r27,Y+8
 10108 3980 ED91      		ld r30,X+
 10109 3982 FC91      		ld r31,X
 10110 3984 1197      		sbiw r26,1
 10111 3986 BD01      		movw r22,r26
 10112 3988 605E      		subi r22,lo8(-(32))
 10113 398a 7F4F      		sbci r23,hi8(-(32))
 10114 398c 8181      		ldd r24,Z+1
 10115 398e A601      		movw r20,r12
 10116 3990 9501      		movw r18,r10
 10117 3992 01E0      		ldi r16,lo8(1)
 10118 3994 0E94 0000 		call disk_read
 10119               	.LVL849:
 10120 3998 8823      		tst r24
 10121 399a 01F0      		breq .L639
 10122               	.LM977:
 10123 399c EF81      		ldd r30,Y+7
 10124 399e F885      		ldd r31,Y+8
 10125 39a0 8481      		ldd r24,Z+4
 10126 39a2 8068      		ori r24,lo8(-128)
 10127 39a4 8483      		std Z+4,r24
 10128               	.LVL850:
 10129               	.L643:
 10130 39a6 11E0      		ldi r17,lo8(1)
 10131 39a8 00C0      		rjmp .L615
 10132               	.LVL851:
 10133               	.L639:
 10134               	.LM978:
 10135 39aa AF81      		ldd r26,Y+7
 10136 39ac B885      		ldd r27,Y+8
 10137 39ae 5696      		adiw r26,22
 10138 39b0 AD92      		st X+,r10
 10139 39b2 BD92      		st X+,r11
 10140 39b4 CD92      		st X+,r12
 10141 39b6 DC92      		st X,r13
 10142 39b8 5997      		sbiw r26,22+3
 10143               	.LVL852:
 10144               	.L636:
 10145               	.LM979:
 10146 39ba EF81      		ldd r30,Y+7
 10147 39bc F885      		ldd r31,Y+8
 10148 39be 2681      		ldd r18,Z+6
 10149 39c0 3781      		ldd r19,Z+7
 10150 39c2 4085      		ldd r20,Z+8
 10151 39c4 5185      		ldd r21,Z+9
 10152               	.LVL853:
 10153 39c6 8285      		ldd r24,Z+10
 10154 39c8 9385      		ldd r25,Z+11
 10155 39ca A485      		ldd r26,Z+12
 10156 39cc B585      		ldd r27,Z+13
 10157 39ce 8217      		cp r24,r18
 10158 39d0 9307      		cpc r25,r19
 10159 39d2 A407      		cpc r26,r20
 10160 39d4 B507      		cpc r27,r21
 10161 39d6 00F4      		brsh .L615
 10162               	.LM980:
 10163 39d8 2287      		std Z+10,r18
 10164 39da 3387      		std Z+11,r19
 10165 39dc 4487      		std Z+12,r20
 10166 39de 5587      		std Z+13,r21
 10167               	.LM981:
 10168 39e0 8481      		ldd r24,Z+4
 10169 39e2 8062      		ori r24,lo8(32)
 10170 39e4 8483      		std Z+4,r24
 10171               	.LVL854:
 10172               	.L615:
 10173               	.LM982:
 10174 39e6 812F      		mov r24,r17
 10175               	/* epilogue start */
 10176 39e8 2896      		adiw r28,8
 10177 39ea CDBF      		out __SP_L__,r28
 10178 39ec DEBF      		out __SP_H__,r29
 10179 39ee CF91      		pop r28
 10180 39f0 DF91      		pop r29
 10181 39f2 1F91      		pop r17
 10182               	.LVL855:
 10183 39f4 0F91      		pop r16
 10184 39f6 DF90      		pop r13
 10185 39f8 CF90      		pop r12
 10186 39fa BF90      		pop r11
 10187 39fc AF90      		pop r10
 10188               	.LVL856:
 10189 39fe 9F90      		pop r9
 10190 3a00 8F90      		pop r8
 10191               	.LVL857:
 10192 3a02 7F90      		pop r7
 10193               	.LVL858:
 10194 3a04 6F90      		pop r6
 10195               	.LVL859:
 10196 3a06 5F90      		pop r5
 10197 3a08 4F90      		pop r4
 10198 3a0a 3F90      		pop r3
 10199 3a0c 2F90      		pop r2
 10200 3a0e 0895      		ret
 10201               	.LFE83:
 10203               	.global	f_opendir
 10205               	f_opendir:
 10206               	.LFB84:
 10207               	.LM983:
 10208               	.LVL860:
 10209 3a10 0F93      		push r16
 10210 3a12 1F93      		push r17
 10211 3a14 DF93      		push r29
 10212 3a16 CF93      		push r28
 10213 3a18 CDB7      		in r28,__SP_L__
 10214 3a1a DEB7      		in r29,__SP_H__
 10215 3a1c 2E97      		sbiw r28,14
 10216 3a1e CDBF      		out __SP_L__,r28
 10217 3a20 DEBF      		out __SP_H__,r29
 10218               	/* prologue: function */
 10219               	/* frame size = 14 */
 10220 3a22 8C01      		movw r16,r24
 10221 3a24 6D87      		std Y+13,r22
 10222 3a26 7E87      		std Y+14,r23
 10223               	.LM984:
 10224 3a28 CE01      		movw r24,r28
 10225               	.LVL861:
 10226 3a2a 0D96      		adiw r24,13
 10227 3a2c B801      		movw r22,r16
 10228               	.LVL862:
 10229 3a2e 40E0      		ldi r20,lo8(0)
 10230 3a30 0E94 0000 		call chk_mounted
 10231               	.LM985:
 10232 3a34 8823      		tst r24
 10233               	.LVL863:
 10234 3a36 01F0      		breq .+2
 10235 3a38 00C0      		rjmp .L647
 10236               	.LM986:
 10237 3a3a CE01      		movw r24,r28
 10238               	.LVL864:
 10239 3a3c 0196      		adiw r24,1
 10240 3a3e D801      		movw r26,r16
 10241 3a40 5496      		adiw r26,20
 10242 3a42 8D93      		st X+,r24
 10243 3a44 9C93      		st X,r25
 10244 3a46 5597      		sbiw r26,20+1
 10245               	.LM987:
 10246 3a48 6D85      		ldd r22,Y+13
 10247 3a4a 7E85      		ldd r23,Y+14
 10248 3a4c C801      		movw r24,r16
 10249 3a4e 0E94 0000 		call follow_path
 10250               	.LM988:
 10251 3a52 8823      		tst r24
 10252               	.LVL865:
 10253 3a54 01F4      		brne .L648
 10254               	.LM989:
 10255 3a56 D801      		movw r26,r16
 10256 3a58 5296      		adiw r26,18
 10257 3a5a ED91      		ld r30,X+
 10258 3a5c FC91      		ld r31,X
 10259 3a5e 5397      		sbiw r26,18+1
 10260               	.LVL866:
 10261               	.LM990:
 10262 3a60 3097      		sbiw r30,0
 10263 3a62 01F0      		breq .L649
 10264               	.LM991:
 10265 3a64 8385      		ldd r24,Z+11
 10266               	.LVL867:
 10267 3a66 84FF      		sbrs r24,4
 10268 3a68 00C0      		rjmp .L652
 10269               	.L650:
 10270               	.LM992:
 10271 3a6a 3589      		ldd r19,Z+21
 10272 3a6c 20E0      		ldi r18,lo8(0)
 10273 3a6e 8489      		ldd r24,Z+20
 10274 3a70 90E0      		ldi r25,lo8(0)
 10275 3a72 282B      		or r18,r24
 10276 3a74 392B      		or r19,r25
 10277 3a76 40E0      		ldi r20,lo8(0)
 10278 3a78 50E0      		ldi r21,hi8(0)
 10279 3a7a A901      		movw r20,r18
 10280 3a7c 3327      		clr r19
 10281 3a7e 2227      		clr r18
 10282 3a80 938D      		ldd r25,Z+27
 10283 3a82 80E0      		ldi r24,lo8(0)
 10284 3a84 628D      		ldd r22,Z+26
 10285 3a86 70E0      		ldi r23,lo8(0)
 10286 3a88 862B      		or r24,r22
 10287 3a8a 972B      		or r25,r23
 10288 3a8c A0E0      		ldi r26,lo8(0)
 10289 3a8e B0E0      		ldi r27,hi8(0)
 10290 3a90 282B      		or r18,r24
 10291 3a92 392B      		or r19,r25
 10292 3a94 4A2B      		or r20,r26
 10293 3a96 5B2B      		or r21,r27
 10294 3a98 F801      		movw r30,r16
 10295               	.LVL868:
 10296 3a9a 2683      		std Z+6,r18
 10297 3a9c 3783      		std Z+7,r19
 10298 3a9e 4087      		std Z+8,r20
 10299 3aa0 5187      		std Z+9,r21
 10300               	.LVL869:
 10301               	.L649:
 10302               	.LM993:
 10303 3aa2 D801      		movw r26,r16
 10304 3aa4 ED91      		ld r30,X+
 10305 3aa6 FC91      		ld r31,X
 10306 3aa8 1197      		sbiw r26,1
 10307               	.LVL870:
 10308 3aaa 8681      		ldd r24,Z+6
 10309 3aac 9781      		ldd r25,Z+7
 10310               	.LVL871:
 10311 3aae 1296      		adiw r26,2
 10312 3ab0 8D93      		st X+,r24
 10313 3ab2 9C93      		st X,r25
 10314 3ab4 1397      		sbiw r26,2+1
 10315               	.LM994:
 10316 3ab6 C801      		movw r24,r16
 10317 3ab8 60E0      		ldi r22,lo8(0)
 10318 3aba 70E0      		ldi r23,hi8(0)
 10319 3abc 0E94 0000 		call dir_seek
 10320               	.LVL872:
 10321               	.L648:
 10322               	.LM995:
 10323 3ac0 8430      		cpi r24,lo8(4)
 10324 3ac2 01F4      		brne .L647
 10325               	.LVL873:
 10326               	.L652:
 10327 3ac4 85E0      		ldi r24,lo8(5)
 10328               	.L647:
 10329               	.LVL874:
 10330               	/* epilogue start */
 10331               	.LM996:
 10332 3ac6 2E96      		adiw r28,14
 10333 3ac8 CDBF      		out __SP_L__,r28
 10334 3aca DEBF      		out __SP_H__,r29
 10335 3acc CF91      		pop r28
 10336 3ace DF91      		pop r29
 10337 3ad0 1F91      		pop r17
 10338 3ad2 0F91      		pop r16
 10339               	.LVL875:
 10340 3ad4 0895      		ret
 10341               	.LFE84:
 10343               	.global	f_readdir
 10345               	f_readdir:
 10346               	.LFB85:
 10347               	.LM997:
 10348               	.LVL876:
 10349 3ad6 EF92      		push r14
 10350 3ad8 FF92      		push r15
 10351 3ada 0F93      		push r16
 10352 3adc 1F93      		push r17
 10353 3ade DF93      		push r29
 10354 3ae0 CF93      		push r28
 10355 3ae2 CDB7      		in r28,__SP_L__
 10356 3ae4 DEB7      		in r29,__SP_H__
 10357 3ae6 2C97      		sbiw r28,12
 10358 3ae8 CDBF      		out __SP_L__,r28
 10359 3aea DEBF      		out __SP_H__,r29
 10360               	/* prologue: function */
 10361               	/* frame size = 12 */
 10362 3aec 8C01      		movw r16,r24
 10363 3aee 7B01      		movw r14,r22
 10364               	.LM998:
 10365 3af0 FC01      		movw r30,r24
 10366 3af2 6281      		ldd r22,Z+2
 10367 3af4 7381      		ldd r23,Z+3
 10368               	.LVL877:
 10369 3af6 8081      		ld r24,Z
 10370 3af8 9181      		ldd r25,Z+1
 10371               	.LVL878:
 10372 3afa 0E94 0000 		call validate
 10373               	.LM999:
 10374 3afe 8823      		tst r24
 10375               	.LVL879:
 10376 3b00 01F4      		brne .L655
 10377               	.LM1000:
 10378 3b02 CE01      		movw r24,r28
 10379               	.LVL880:
 10380 3b04 0196      		adiw r24,1
 10381 3b06 F801      		movw r30,r16
 10382 3b08 848B      		std Z+20,r24
 10383 3b0a 958B      		std Z+21,r25
 10384               	.LM1001:
 10385 3b0c E114      		cp r14,__zero_reg__
 10386 3b0e F104      		cpc r15,__zero_reg__
 10387 3b10 01F4      		brne .L656
 10388               	.LM1002:
 10389 3b12 C801      		movw r24,r16
 10390 3b14 60E0      		ldi r22,lo8(0)
 10391 3b16 70E0      		ldi r23,hi8(0)
 10392 3b18 0E94 0000 		call dir_seek
 10393 3b1c 00C0      		rjmp .L655
 10394               	.L656:
 10395               	.LM1003:
 10396 3b1e C801      		movw r24,r16
 10397 3b20 0E94 0000 		call dir_read
 10398               	.LM1004:
 10399 3b24 8430      		cpi r24,lo8(4)
 10400               	.LVL881:
 10401 3b26 01F4      		brne .L657
 10402               	.LM1005:
 10403 3b28 F801      		movw r30,r16
 10404 3b2a 1686      		std Z+14,__zero_reg__
 10405 3b2c 1786      		std Z+15,__zero_reg__
 10406 3b2e 108A      		std Z+16,__zero_reg__
 10407 3b30 118A      		std Z+17,__zero_reg__
 10408 3b32 00C0      		rjmp .L658
 10409               	.L657:
 10410               	.LM1006:
 10411 3b34 8823      		tst r24
 10412 3b36 01F4      		brne .L655
 10413               	.L658:
 10414               	.LM1007:
 10415 3b38 C801      		movw r24,r16
 10416               	.LVL882:
 10417 3b3a B701      		movw r22,r14
 10418 3b3c 0E94 0000 		call get_fileinfo
 10419               	.LM1008:
 10420 3b40 C801      		movw r24,r16
 10421 3b42 60E0      		ldi r22,lo8(0)
 10422 3b44 0E94 0000 		call dir_next
 10423               	.LM1009:
 10424 3b48 8430      		cpi r24,lo8(4)
 10425               	.LVL883:
 10426 3b4a 01F4      		brne .L655
 10427               	.LM1010:
 10428 3b4c F801      		movw r30,r16
 10429 3b4e 1686      		std Z+14,__zero_reg__
 10430 3b50 1786      		std Z+15,__zero_reg__
 10431 3b52 108A      		std Z+16,__zero_reg__
 10432 3b54 118A      		std Z+17,__zero_reg__
 10433 3b56 80E0      		ldi r24,lo8(0)
 10434               	.L655:
 10435               	.LVL884:
 10436               	/* epilogue start */
 10437               	.LM1011:
 10438 3b58 2C96      		adiw r28,12
 10439 3b5a CDBF      		out __SP_L__,r28
 10440 3b5c DEBF      		out __SP_H__,r29
 10441 3b5e CF91      		pop r28
 10442 3b60 DF91      		pop r29
 10443 3b62 1F91      		pop r17
 10444 3b64 0F91      		pop r16
 10445               	.LVL885:
 10446 3b66 FF90      		pop r15
 10447 3b68 EF90      		pop r14
 10448               	.LVL886:
 10449 3b6a 0895      		ret
 10450               	.LFE85:
 10452               	.global	f_stat
 10454               	f_stat:
 10455               	.LFB86:
 10456               	.LM1012:
 10457               	.LVL887:
 10458 3b6c CF92      		push r12
 10459 3b6e DF92      		push r13
 10460 3b70 EF92      		push r14
 10461 3b72 FF92      		push r15
 10462 3b74 1F93      		push r17
 10463 3b76 DF93      		push r29
 10464 3b78 CF93      		push r28
 10465 3b7a CDB7      		in r28,__SP_L__
 10466 3b7c DEB7      		in r29,__SP_H__
 10467 3b7e A497      		sbiw r28,36
 10468 3b80 CDBF      		out __SP_L__,r28
 10469 3b82 DEBF      		out __SP_H__,r29
 10470               	/* prologue: function */
 10471               	/* frame size = 36 */
 10472 3b84 8BA3      		std Y+35,r24
 10473 3b86 9CA3      		std Y+36,r25
 10474 3b88 6B01      		movw r12,r22
 10475               	.LM1013:
 10476 3b8a 2DE0      		ldi r18,lo8(13)
 10477 3b8c E22E      		mov r14,r18
 10478 3b8e F12C      		mov r15,__zero_reg__
 10479 3b90 EC0E      		add r14,r28
 10480 3b92 FD1E      		adc r15,r29
 10481 3b94 CE01      		movw r24,r28
 10482               	.LVL888:
 10483 3b96 8396      		adiw r24,35
 10484 3b98 B701      		movw r22,r14
 10485               	.LVL889:
 10486 3b9a 40E0      		ldi r20,lo8(0)
 10487 3b9c 0E94 0000 		call chk_mounted
 10488 3ba0 182F      		mov r17,r24
 10489               	.LVL890:
 10490               	.LM1014:
 10491 3ba2 8823      		tst r24
 10492 3ba4 01F4      		brne .L661
 10493               	.LVL891:
 10494               	.LM1015:
 10495 3ba6 CE01      		movw r24,r28
 10496               	.LVL892:
 10497 3ba8 0196      		adiw r24,1
 10498 3baa 89A3      		std Y+33,r24
 10499 3bac 9AA3      		std Y+34,r25
 10500               	.LM1016:
 10501 3bae 6BA1      		ldd r22,Y+35
 10502 3bb0 7CA1      		ldd r23,Y+36
 10503 3bb2 C701      		movw r24,r14
 10504 3bb4 0E94 0000 		call follow_path
 10505 3bb8 182F      		mov r17,r24
 10506               	.LM1017:
 10507 3bba 8823      		tst r24
 10508 3bbc 01F4      		brne .L661
 10509               	.LVL893:
 10510               	.LM1018:
 10511 3bbe 8F8D      		ldd r24,Y+31
 10512 3bc0 98A1      		ldd r25,Y+32
 10513               	.LVL894:
 10514 3bc2 892B      		or r24,r25
 10515 3bc4 01F4      		brne .L662
 10516 3bc6 16E0      		ldi r17,lo8(6)
 10517 3bc8 00C0      		rjmp .L661
 10518               	.L662:
 10519               	.LM1019:
 10520 3bca C701      		movw r24,r14
 10521 3bcc B601      		movw r22,r12
 10522 3bce 0E94 0000 		call get_fileinfo
 10523               	.LVL895:
 10524               	.L661:
 10525               	.LM1020:
 10526 3bd2 812F      		mov r24,r17
 10527               	/* epilogue start */
 10528 3bd4 A496      		adiw r28,36
 10529 3bd6 CDBF      		out __SP_L__,r28
 10530 3bd8 DEBF      		out __SP_H__,r29
 10531 3bda CF91      		pop r28
 10532 3bdc DF91      		pop r29
 10533 3bde 1F91      		pop r17
 10534               	.LVL896:
 10535 3be0 FF90      		pop r15
 10536 3be2 EF90      		pop r14
 10537 3be4 DF90      		pop r13
 10538 3be6 CF90      		pop r12
 10539               	.LVL897:
 10540 3be8 0895      		ret
 10541               	.LFE86:
 10543               	.global	f_getfree
 10545               	f_getfree:
 10546               	.LFB87:
 10547               	.LM1021:
 10548               	.LVL898:
 10549 3bea 2F92      		push r2
 10550 3bec 3F92      		push r3
 10551 3bee 4F92      		push r4
 10552 3bf0 5F92      		push r5
 10553 3bf2 6F92      		push r6
 10554 3bf4 7F92      		push r7
 10555 3bf6 8F92      		push r8
 10556 3bf8 9F92      		push r9
 10557 3bfa AF92      		push r10
 10558 3bfc BF92      		push r11
 10559 3bfe CF92      		push r12
 10560 3c00 DF92      		push r13
 10561 3c02 EF92      		push r14
 10562 3c04 FF92      		push r15
 10563 3c06 0F93      		push r16
 10564 3c08 1F93      		push r17
 10565 3c0a DF93      		push r29
 10566 3c0c CF93      		push r28
 10567 3c0e CDB7      		in r28,__SP_L__
 10568 3c10 DEB7      		in r29,__SP_H__
 10569 3c12 2997      		sbiw r28,9
 10570 3c14 CDBF      		out __SP_L__,r28
 10571 3c16 DEBF      		out __SP_H__,r29
 10572               	/* prologue: function */
 10573               	/* frame size = 9 */
 10574 3c18 8983      		std Y+1,r24
 10575 3c1a 9A83      		std Y+2,r25
 10576 3c1c 6C83      		std Y+4,r22
 10577 3c1e 7D83      		std Y+5,r23
 10578 3c20 2A01      		movw r4,r20
 10579               	.LM1022:
 10580 3c22 CE01      		movw r24,r28
 10581               	.LVL899:
 10582 3c24 0196      		adiw r24,1
 10583 3c26 BA01      		movw r22,r20
 10584               	.LVL900:
 10585 3c28 40E0      		ldi r20,lo8(0)
 10586               	.LVL901:
 10587 3c2a 0E94 0000 		call chk_mounted
 10588               	.LM1023:
 10589 3c2e 8823      		tst r24
 10590               	.LVL902:
 10591 3c30 01F0      		breq .+2
 10592 3c32 00C0      		rjmp .L666
 10593               	.LM1024:
 10594 3c34 D201      		movw r26,r4
 10595 3c36 ED91      		ld r30,X+
 10596 3c38 FC91      		ld r31,X
 10597 3c3a 2685      		ldd r18,Z+14
 10598 3c3c 3785      		ldd r19,Z+15
 10599 3c3e 4089      		ldd r20,Z+16
 10600 3c40 5189      		ldd r21,Z+17
 10601 3c42 E28C      		ldd r14,Z+26
 10602 3c44 F38C      		ldd r15,Z+27
 10603 3c46 048D      		ldd r16,Z+28
 10604 3c48 158D      		ldd r17,Z+29
 10605               	.LVL903:
 10606 3c4a D801      		movw r26,r16
 10607 3c4c C701      		movw r24,r14
 10608               	.LVL904:
 10609 3c4e 0297      		sbiw r24,2
 10610 3c50 A109      		sbc r26,__zero_reg__
 10611 3c52 B109      		sbc r27,__zero_reg__
 10612 3c54 8217      		cp r24,r18
 10613 3c56 9307      		cpc r25,r19
 10614 3c58 A407      		cpc r26,r20
 10615 3c5a B507      		cpc r27,r21
 10616 3c5c 00F0      		brlo .L667
 10617               	.LM1025:
 10618 3c5e EC81      		ldd r30,Y+4
 10619 3c60 FD81      		ldd r31,Y+5
 10620 3c62 2083      		st Z,r18
 10621 3c64 3183      		std Z+1,r19
 10622 3c66 4283      		std Z+2,r20
 10623 3c68 5383      		std Z+3,r21
 10624 3c6a 00C0      		rjmp .L684
 10625               	.L667:
 10626               	.LM1026:
 10627 3c6c 3080      		ld r3,Z
 10628 3c6e 3B82      		std Y+3,r3
 10629               	.LVL905:
 10630               	.LM1027:
 10631 3c70 232D      		mov r18,r3
 10632 3c72 2130      		cpi r18,lo8(1)
 10633 3c74 01F4      		brne .L668
 10634 3c76 AA24      		clr r10
 10635 3c78 BB24      		clr r11
 10636 3c7a 6501      		movw r12,r10
 10637               	.LVL906:
 10638 3c7c 92E0      		ldi r25,lo8(2)
 10639 3c7e E92E      		mov r14,r25
 10640 3c80 F12C      		mov r15,__zero_reg__
 10641 3c82 012D      		mov r16,__zero_reg__
 10642 3c84 112D      		mov r17,__zero_reg__
 10643               	.LVL907:
 10644               	.L672:
 10645               	.LM1028:
 10646 3c86 D201      		movw r26,r4
 10647 3c88 8D91      		ld r24,X+
 10648 3c8a 9C91      		ld r25,X
 10649 3c8c B801      		movw r22,r16
 10650 3c8e A701      		movw r20,r14
 10651 3c90 0E94 0000 		call get_fat
 10652               	.LVL908:
 10653               	.LM1029:
 10654 3c94 6F3F      		cpi r22,lo8(-1)
 10655 3c96 BFEF      		ldi r27,hi8(-1)
 10656 3c98 7B07      		cpc r23,r27
 10657 3c9a BFEF      		ldi r27,hlo8(-1)
 10658 3c9c 8B07      		cpc r24,r27
 10659 3c9e BFEF      		ldi r27,hhi8(-1)
 10660 3ca0 9B07      		cpc r25,r27
 10661               	.LVL909:
 10662 3ca2 01F4      		brne .L669
 10663 3ca4 81E0      		ldi r24,lo8(1)
 10664               	.LVL910:
 10665 3ca6 00C0      		rjmp .L666
 10666               	.LVL911:
 10667               	.L669:
 10668               	.LM1030:
 10669 3ca8 6130      		cpi r22,lo8(1)
 10670 3caa 7105      		cpc r23,__zero_reg__
 10671 3cac 8105      		cpc r24,__zero_reg__
 10672 3cae 9105      		cpc r25,__zero_reg__
 10673 3cb0 01F4      		brne .L670
 10674 3cb2 82E0      		ldi r24,lo8(2)
 10675               	.LVL912:
 10676 3cb4 00C0      		rjmp .L666
 10677               	.LVL913:
 10678               	.L670:
 10679               	.LM1031:
 10680 3cb6 6115      		cp r22,__zero_reg__
 10681 3cb8 7105      		cpc r23,__zero_reg__
 10682 3cba 8105      		cpc r24,__zero_reg__
 10683 3cbc 9105      		cpc r25,__zero_reg__
 10684 3cbe 01F4      		brne .L671
 10685 3cc0 0894      		sec
 10686 3cc2 A11C      		adc r10,__zero_reg__
 10687 3cc4 B11C      		adc r11,__zero_reg__
 10688 3cc6 C11C      		adc r12,__zero_reg__
 10689 3cc8 D11C      		adc r13,__zero_reg__
 10690               	.L671:
 10691               	.LM1032:
 10692 3cca 0894      		sec
 10693 3ccc E11C      		adc r14,__zero_reg__
 10694 3cce F11C      		adc r15,__zero_reg__
 10695 3cd0 011D      		adc r16,__zero_reg__
 10696 3cd2 111D      		adc r17,__zero_reg__
 10697 3cd4 D201      		movw r26,r4
 10698 3cd6 ED91      		ld r30,X+
 10699 3cd8 FC91      		ld r31,X
 10700 3cda 828D      		ldd r24,Z+26
 10701 3cdc 938D      		ldd r25,Z+27
 10702 3cde A48D      		ldd r26,Z+28
 10703 3ce0 B58D      		ldd r27,Z+29
 10704 3ce2 E816      		cp r14,r24
 10705 3ce4 F906      		cpc r15,r25
 10706 3ce6 0A07      		cpc r16,r26
 10707 3ce8 1B07      		cpc r17,r27
 10708 3cea 00F0      		brlo .L672
 10709 3cec 00C0      		rjmp .L673
 10710               	.LVL914:
 10711               	.L668:
 10712               	.LM1033:
 10713 3cee 668C      		ldd r6,Z+30
 10714 3cf0 778C      		ldd r7,Z+31
 10715 3cf2 80A0      		ldd r8,Z+32
 10716 3cf4 91A0      		ldd r9,Z+33
 10717               	.LVL915:
 10718 3cf6 AA24      		clr r10
 10719 3cf8 BB24      		clr r11
 10720 3cfa 6501      		movw r12,r10
 10721               	.LVL916:
 10722 3cfc 60E0      		ldi r22,lo8(0)
 10723 3cfe 70E0      		ldi r23,hi8(0)
 10724               	.LVL917:
 10725 3d00 E0E0      		ldi r30,lo8(0)
 10726 3d02 F0E0      		ldi r31,hi8(0)
 10727               	.LVL918:
 10728               	.L679:
 10729               	.LM1034:
 10730 3d04 6115      		cp r22,__zero_reg__
 10731 3d06 7105      		cpc r23,__zero_reg__
 10732 3d08 01F4      		brne .L674
 10733               	.LM1035:
 10734 3d0a F201      		movw r30,r4
 10735               	.LVL919:
 10736 3d0c 8081      		ld r24,Z
 10737 3d0e 9181      		ldd r25,Z+1
 10738 3d10 B401      		movw r22,r8
 10739 3d12 A301      		movw r20,r6
 10740 3d14 0E94 0000 		call move_window
 10741               	.LVL920:
 10742               	.LM1036:
 10743 3d18 8823      		tst r24
 10744               	.LVL921:
 10745 3d1a 01F0      		breq .+2
 10746 3d1c 00C0      		rjmp .L666
 10747               	.LM1037:
 10748 3d1e 0894      		sec
 10749 3d20 611C      		adc r6,__zero_reg__
 10750 3d22 711C      		adc r7,__zero_reg__
 10751 3d24 811C      		adc r8,__zero_reg__
 10752 3d26 911C      		adc r9,__zero_reg__
 10753               	.LM1038:
 10754 3d28 D201      		movw r26,r4
 10755 3d2a ED91      		ld r30,X+
 10756 3d2c FC91      		ld r31,X
 10757               	.LVL922:
 10758 3d2e BE96      		adiw r30,46
 10759 3d30 60E0      		ldi r22,lo8(512)
 10760 3d32 72E0      		ldi r23,hi8(512)
 10761               	.LVL923:
 10762               	.L674:
 10763 3d34 B181      		ldd r27,Z+1
 10764 3d36 B887      		std Y+8,r27
 10765 3d38 2081      		ld r18,Z
 10766 3d3a 2987      		std Y+9,r18
 10767               	.LM1039:
 10768 3d3c 3B81      		ldd r19,Y+3
 10769 3d3e 3230      		cpi r19,lo8(2)
 10770 3d40 01F4      		brne .L675
 10771               	.LM1040:
 10772 3d42 BF83      		std Y+7,r27
 10773 3d44 1E82      		std Y+6,__zero_reg__
 10774 3d46 822F      		mov r24,r18
 10775               	.LVL924:
 10776 3d48 90E0      		ldi r25,lo8(0)
 10777 3d4a AE81      		ldd r26,Y+6
 10778 3d4c BF81      		ldd r27,Y+7
 10779 3d4e 8A2B      		or r24,r26
 10780 3d50 9B2B      		or r25,r27
 10781 3d52 892B      		or r24,r25
 10782 3d54 01F4      		brne .L676
 10783 3d56 0894      		sec
 10784 3d58 A11C      		adc r10,__zero_reg__
 10785 3d5a B11C      		adc r11,__zero_reg__
 10786 3d5c C11C      		adc r12,__zero_reg__
 10787 3d5e D11C      		adc r13,__zero_reg__
 10788               	.L676:
 10789               	.LM1041:
 10790 3d60 3296      		adiw r30,2
 10791 3d62 6250      		subi r22,lo8(-(-2))
 10792 3d64 7040      		sbci r23,hi8(-(-2))
 10793 3d66 00C0      		rjmp .L677
 10794               	.LVL925:
 10795               	.L675:
 10796               	.LM1042:
 10797 3d68 2381      		ldd r18,Z+3
 10798 3d6a 30E0      		ldi r19,lo8(0)
 10799 3d6c 40E0      		ldi r20,lo8(0)
 10800 3d6e 50E0      		ldi r21,hi8(0)
 10801 3d70 522F      		mov r21,r18
 10802 3d72 4427      		clr r20
 10803 3d74 3327      		clr r19
 10804 3d76 2227      		clr r18
 10805               	.LVL926:
 10806 3d78 8281      		ldd r24,Z+2
 10807 3d7a 90E0      		ldi r25,lo8(0)
 10808 3d7c A0E0      		ldi r26,lo8(0)
 10809 3d7e B0E0      		ldi r27,hi8(0)
 10810 3d80 DC01      		movw r26,r24
 10811 3d82 9927      		clr r25
 10812 3d84 8827      		clr r24
 10813 3d86 282B      		or r18,r24
 10814 3d88 392B      		or r19,r25
 10815 3d8a 4A2B      		or r20,r26
 10816 3d8c 5B2B      		or r21,r27
 10817 3d8e 3984      		ldd r3,Y+9
 10818 3d90 832D      		mov r24,r3
 10819 3d92 90E0      		ldi r25,lo8(0)
 10820 3d94 A0E0      		ldi r26,lo8(0)
 10821 3d96 B0E0      		ldi r27,hi8(0)
 10822 3d98 282B      		or r18,r24
 10823 3d9a 392B      		or r19,r25
 10824 3d9c 4A2B      		or r20,r26
 10825 3d9e 5B2B      		or r21,r27
 10826 3da0 3884      		ldd r3,Y+8
 10827 3da2 2224      		clr r2
 10828 3da4 C101      		movw r24,r2
 10829 3da6 A0E0      		ldi r26,lo8(0)
 10830 3da8 B0E0      		ldi r27,hi8(0)
 10831 3daa 282B      		or r18,r24
 10832 3dac 392B      		or r19,r25
 10833 3dae 4A2B      		or r20,r26
 10834 3db0 5B2B      		or r21,r27
 10835 3db2 5F70      		andi r21,hhi8(268435455)
 10836 3db4 2115      		cp r18,__zero_reg__
 10837 3db6 3105      		cpc r19,__zero_reg__
 10838 3db8 4105      		cpc r20,__zero_reg__
 10839 3dba 5105      		cpc r21,__zero_reg__
 10840 3dbc 01F4      		brne .L678
 10841 3dbe 0894      		sec
 10842 3dc0 A11C      		adc r10,__zero_reg__
 10843 3dc2 B11C      		adc r11,__zero_reg__
 10844 3dc4 C11C      		adc r12,__zero_reg__
 10845 3dc6 D11C      		adc r13,__zero_reg__
 10846               	.L678:
 10847               	.LM1043:
 10848 3dc8 3496      		adiw r30,4
 10849 3dca 6450      		subi r22,lo8(-(-4))
 10850 3dcc 7040      		sbci r23,hi8(-(-4))
 10851               	.L677:
 10852               	.LM1044:
 10853 3dce 0894      		sec
 10854 3dd0 E108      		sbc r14,__zero_reg__
 10855 3dd2 F108      		sbc r15,__zero_reg__
 10856 3dd4 0109      		sbc r16,__zero_reg__
 10857 3dd6 1109      		sbc r17,__zero_reg__
 10858 3dd8 E114      		cp r14,__zero_reg__
 10859 3dda F104      		cpc r15,__zero_reg__
 10860 3ddc 0105      		cpc r16,__zero_reg__
 10861 3dde 1105      		cpc r17,__zero_reg__
 10862 3de0 01F0      		breq .+2
 10863 3de2 00C0      		rjmp .L679
 10864               	.LVL927:
 10865               	.L673:
 10866               	.LM1045:
 10867 3de4 D201      		movw r26,r4
 10868 3de6 ED91      		ld r30,X+
 10869 3de8 FC91      		ld r31,X
 10870               	.LVL928:
 10871 3dea A686      		std Z+14,r10
 10872 3dec B786      		std Z+15,r11
 10873 3dee C08A      		std Z+16,r12
 10874 3df0 D18A      		std Z+17,r13
 10875               	.LM1046:
 10876 3df2 BB81      		ldd r27,Y+3
 10877 3df4 B330      		cpi r27,lo8(3)
 10878 3df6 01F4      		brne .L680
 10879 3df8 81E0      		ldi r24,lo8(1)
 10880 3dfa 8583      		std Z+5,r24
 10881               	.L680:
 10882               	.LM1047:
 10883 3dfc EC81      		ldd r30,Y+4
 10884 3dfe FD81      		ldd r31,Y+5
 10885 3e00 A082      		st Z,r10
 10886 3e02 B182      		std Z+1,r11
 10887 3e04 C282      		std Z+2,r12
 10888 3e06 D382      		std Z+3,r13
 10889               	.L684:
 10890 3e08 80E0      		ldi r24,lo8(0)
 10891               	.LVL929:
 10892               	.L666:
 10893               	.LVL930:
 10894               	/* epilogue start */
 10895               	.LM1048:
 10896 3e0a 2996      		adiw r28,9
 10897 3e0c CDBF      		out __SP_L__,r28
 10898 3e0e DEBF      		out __SP_H__,r29
 10899 3e10 CF91      		pop r28
 10900 3e12 DF91      		pop r29
 10901 3e14 1F91      		pop r17
 10902 3e16 0F91      		pop r16
 10903 3e18 FF90      		pop r15
 10904 3e1a EF90      		pop r14
 10905               	.LVL931:
 10906 3e1c DF90      		pop r13
 10907 3e1e CF90      		pop r12
 10908 3e20 BF90      		pop r11
 10909 3e22 AF90      		pop r10
 10910               	.LVL932:
 10911 3e24 9F90      		pop r9
 10912 3e26 8F90      		pop r8
 10913 3e28 7F90      		pop r7
 10914 3e2a 6F90      		pop r6
 10915               	.LVL933:
 10916 3e2c 5F90      		pop r5
 10917 3e2e 4F90      		pop r4
 10918               	.LVL934:
 10919 3e30 3F90      		pop r3
 10920 3e32 2F90      		pop r2
 10921 3e34 0895      		ret
 10922               	.LFE87:
 10924               	.global	f_truncate
 10926               	f_truncate:
 10927               	.LFB88:
 10928               	.LM1049:
 10929               	.LVL935:
 10930 3e36 CF92      		push r12
 10931 3e38 DF92      		push r13
 10932 3e3a EF92      		push r14
 10933 3e3c FF92      		push r15
 10934 3e3e 0F93      		push r16
 10935 3e40 1F93      		push r17
 10936 3e42 CF93      		push r28
 10937 3e44 DF93      		push r29
 10938               	/* prologue: function */
 10939               	/* frame size = 0 */
 10940 3e46 EC01      		movw r28,r24
 10941               	.LM1050:
 10942 3e48 6A81      		ldd r22,Y+2
 10943 3e4a 7B81      		ldd r23,Y+3
 10944 3e4c 8881      		ld r24,Y
 10945 3e4e 9981      		ldd r25,Y+1
 10946               	.LVL936:
 10947 3e50 0E94 0000 		call validate
 10948 3e54 182F      		mov r17,r24
 10949               	.LVL937:
 10950               	.LM1051:
 10951 3e56 8823      		tst r24
 10952 3e58 01F0      		breq .+2
 10953 3e5a 00C0      		rjmp .L686
 10954               	.LVL938:
 10955               	.LM1052:
 10956 3e5c 6C81      		ldd r22,Y+4
 10957 3e5e 67FF      		sbrs r22,7
 10958 3e60 00C0      		rjmp .L687
 10959 3e62 12E0      		ldi r17,lo8(2)
 10960               	.LVL939:
 10961 3e64 00C0      		rjmp .L686
 10962               	.LVL940:
 10963               	.L687:
 10964               	.LM1053:
 10965 3e66 61FD      		sbrc r22,1
 10966 3e68 00C0      		rjmp .L688
 10967 3e6a 17E0      		ldi r17,lo8(7)
 10968               	.LVL941:
 10969 3e6c 00C0      		rjmp .L686
 10970               	.LVL942:
 10971               	.L688:
 10972               	.LM1054:
 10973 3e6e 2E81      		ldd r18,Y+6
 10974 3e70 3F81      		ldd r19,Y+7
 10975 3e72 4885      		ldd r20,Y+8
 10976 3e74 5985      		ldd r21,Y+9
 10977 3e76 8A85      		ldd r24,Y+10
 10978 3e78 9B85      		ldd r25,Y+11
 10979 3e7a AC85      		ldd r26,Y+12
 10980 3e7c BD85      		ldd r27,Y+13
 10981               	.LVL943:
 10982 3e7e 2817      		cp r18,r24
 10983 3e80 3907      		cpc r19,r25
 10984 3e82 4A07      		cpc r20,r26
 10985 3e84 5B07      		cpc r21,r27
 10986 3e86 00F0      		brlo .+2
 10987 3e88 00C0      		rjmp .L686
 10988               	.LM1055:
 10989 3e8a 2A87      		std Y+10,r18
 10990 3e8c 3B87      		std Y+11,r19
 10991 3e8e 4C87      		std Y+12,r20
 10992 3e90 5D87      		std Y+13,r21
 10993               	.LM1056:
 10994 3e92 6062      		ori r22,lo8(32)
 10995 3e94 6C83      		std Y+4,r22
 10996 3e96 8881      		ld r24,Y
 10997 3e98 9981      		ldd r25,Y+1
 10998               	.LM1057:
 10999 3e9a 2115      		cp r18,__zero_reg__
 11000 3e9c 3105      		cpc r19,__zero_reg__
 11001 3e9e 4105      		cpc r20,__zero_reg__
 11002 3ea0 5105      		cpc r21,__zero_reg__
 11003 3ea2 01F4      		brne .L689
 11004               	.LM1058:
 11005 3ea4 4E85      		ldd r20,Y+14
 11006 3ea6 5F85      		ldd r21,Y+15
 11007 3ea8 6889      		ldd r22,Y+16
 11008 3eaa 7989      		ldd r23,Y+17
 11009 3eac 0E94 0000 		call remove_chain
 11010 3eb0 182F      		mov r17,r24
 11011               	.LM1059:
 11012 3eb2 1E86      		std Y+14,__zero_reg__
 11013 3eb4 1F86      		std Y+15,__zero_reg__
 11014 3eb6 188A      		std Y+16,__zero_reg__
 11015 3eb8 198A      		std Y+17,__zero_reg__
 11016 3eba 00C0      		rjmp .L690
 11017               	.L689:
 11018               	.LM1060:
 11019 3ebc 4A89      		ldd r20,Y+18
 11020 3ebe 5B89      		ldd r21,Y+19
 11021 3ec0 6C89      		ldd r22,Y+20
 11022 3ec2 7D89      		ldd r23,Y+21
 11023 3ec4 0E94 0000 		call get_fat
 11024 3ec8 6B01      		movw r12,r22
 11025 3eca 7C01      		movw r14,r24
 11026               	.LVL944:
 11027               	.LM1061:
 11028 3ecc 8FEF      		ldi r24,lo8(-1)
 11029 3ece C816      		cp r12,r24
 11030 3ed0 8FEF      		ldi r24,hi8(-1)
 11031 3ed2 D806      		cpc r13,r24
 11032 3ed4 8FEF      		ldi r24,hlo8(-1)
 11033 3ed6 E806      		cpc r14,r24
 11034 3ed8 8FEF      		ldi r24,hhi8(-1)
 11035 3eda F806      		cpc r15,r24
 11036 3edc 01F0      		breq .L691
 11037               	.LM1062:
 11038 3ede 81E0      		ldi r24,lo8(1)
 11039 3ee0 C816      		cp r12,r24
 11040 3ee2 D104      		cpc r13,__zero_reg__
 11041 3ee4 E104      		cpc r14,__zero_reg__
 11042 3ee6 F104      		cpc r15,__zero_reg__
 11043 3ee8 01F4      		brne .L692
 11044 3eea 12E0      		ldi r17,lo8(2)
 11045 3eec 00C0      		rjmp .L693
 11046               	.L692:
 11047               	.LM1063:
 11048 3eee E881      		ld r30,Y
 11049 3ef0 F981      		ldd r31,Y+1
 11050 3ef2 828D      		ldd r24,Z+26
 11051 3ef4 938D      		ldd r25,Z+27
 11052 3ef6 A48D      		ldd r26,Z+28
 11053 3ef8 B58D      		ldd r27,Z+29
 11054 3efa C816      		cp r12,r24
 11055 3efc D906      		cpc r13,r25
 11056 3efe EA06      		cpc r14,r26
 11057 3f00 FB06      		cpc r15,r27
 11058 3f02 00F4      		brsh .L686
 11059               	.LM1064:
 11060 3f04 4A89      		ldd r20,Y+18
 11061 3f06 5B89      		ldd r21,Y+19
 11062 3f08 6C89      		ldd r22,Y+20
 11063 3f0a 7D89      		ldd r23,Y+21
 11064 3f0c CF01      		movw r24,r30
 11065 3f0e 0FEF      		ldi r16,lo8(268435455)
 11066 3f10 1FEF      		ldi r17,hi8(268435455)
 11067 3f12 2FEF      		ldi r18,hlo8(268435455)
 11068 3f14 3FE0      		ldi r19,hhi8(268435455)
 11069 3f16 0E94 0000 		call put_fat
 11070 3f1a 182F      		mov r17,r24
 11071               	.LM1065:
 11072 3f1c 8823      		tst r24
 11073 3f1e 01F4      		brne .L693
 11074               	.LVL945:
 11075 3f20 8881      		ld r24,Y
 11076 3f22 9981      		ldd r25,Y+1
 11077               	.LVL946:
 11078 3f24 B701      		movw r22,r14
 11079 3f26 A601      		movw r20,r12
 11080 3f28 0E94 0000 		call remove_chain
 11081 3f2c 182F      		mov r17,r24
 11082               	.L690:
 11083               	.LM1066:
 11084 3f2e 1123      		tst r17
 11085 3f30 01F0      		breq .L686
 11086               	.LVL947:
 11087               	.L693:
 11088 3f32 8C81      		ldd r24,Y+4
 11089 3f34 8068      		ori r24,lo8(-128)
 11090 3f36 8C83      		std Y+4,r24
 11091               	.LVL948:
 11092               	.L686:
 11093               	.LM1067:
 11094 3f38 812F      		mov r24,r17
 11095               	/* epilogue start */
 11096 3f3a DF91      		pop r29
 11097 3f3c CF91      		pop r28
 11098               	.LVL949:
 11099 3f3e 1F91      		pop r17
 11100               	.LVL950:
 11101 3f40 0F91      		pop r16
 11102 3f42 FF90      		pop r15
 11103 3f44 EF90      		pop r14
 11104 3f46 DF90      		pop r13
 11105 3f48 CF90      		pop r12
 11106               	.LVL951:
 11107 3f4a 0895      		ret
 11108               	.LVL952:
 11109               	.L691:
 11110               	.LM1068:
 11111 3f4c 11E0      		ldi r17,lo8(1)
 11112 3f4e 00C0      		rjmp .L693
 11113               	.LFE88:
 11115               	.global	f_unlink
 11117               	f_unlink:
 11118               	.LFB89:
 11119               	.LM1069:
 11120               	.LVL953:
 11121 3f50 CF92      		push r12
 11122 3f52 DF92      		push r13
 11123 3f54 EF92      		push r14
 11124 3f56 FF92      		push r15
 11125 3f58 0F93      		push r16
 11126 3f5a 1F93      		push r17
 11127 3f5c DF93      		push r29
 11128 3f5e CF93      		push r28
 11129 3f60 CDB7      		in r28,__SP_L__
 11130 3f62 DEB7      		in r29,__SP_H__
 11131 3f64 EA97      		sbiw r28,58
 11132 3f66 CDBF      		out __SP_L__,r28
 11133 3f68 DEBF      		out __SP_H__,r29
 11134               	/* prologue: function */
 11135               	/* frame size = 58 */
 11136 3f6a 89AF      		std Y+57,r24
 11137 3f6c 9AAF      		std Y+58,r25
 11138               	.LM1070:
 11139 3f6e 4DE0      		ldi r20,lo8(13)
 11140 3f70 C42E      		mov r12,r20
 11141 3f72 D12C      		mov r13,__zero_reg__
 11142 3f74 CC0E      		add r12,r28
 11143 3f76 DD1E      		adc r13,r29
 11144 3f78 CE01      		movw r24,r28
 11145               	.LVL954:
 11146 3f7a C996      		adiw r24,57
 11147 3f7c B601      		movw r22,r12
 11148 3f7e 41E0      		ldi r20,lo8(1)
 11149 3f80 0E94 0000 		call chk_mounted
 11150               	.LM1071:
 11151 3f84 8823      		tst r24
 11152               	.LVL955:
 11153 3f86 01F0      		breq .+2
 11154 3f88 00C0      		rjmp .L696
 11155               	.LM1072:
 11156 3f8a CE01      		movw r24,r28
 11157               	.LVL956:
 11158 3f8c 0196      		adiw r24,1
 11159 3f8e 89A3      		std Y+33,r24
 11160 3f90 9AA3      		std Y+34,r25
 11161               	.LM1073:
 11162 3f92 69AD      		ldd r22,Y+57
 11163 3f94 7AAD      		ldd r23,Y+58
 11164 3f96 C601      		movw r24,r12
 11165 3f98 0E94 0000 		call follow_path
 11166               	.LM1074:
 11167 3f9c 8823      		tst r24
 11168               	.LVL957:
 11169 3f9e 01F0      		breq .+2
 11170 3fa0 00C0      		rjmp .L696
 11171               	.LM1075:
 11172 3fa2 EF8D      		ldd r30,Y+31
 11173 3fa4 F8A1      		ldd r31,Y+32
 11174               	.LVL958:
 11175               	.LM1076:
 11176 3fa6 3097      		sbiw r30,0
 11177 3fa8 01F4      		brne .L697
 11178 3faa 86E0      		ldi r24,lo8(6)
 11179 3fac 00C0      		rjmp .L696
 11180               	.L697:
 11181               	.LM1077:
 11182 3fae 8385      		ldd r24,Z+11
 11183               	.LVL959:
 11184 3fb0 482F      		mov r20,r24
 11185 3fb2 80FD      		sbrc r24,0
 11186 3fb4 00C0      		rjmp .L698
 11187               	.LM1078:
 11188 3fb6 9589      		ldd r25,Z+21
 11189 3fb8 80E0      		ldi r24,lo8(0)
 11190 3fba 2489      		ldd r18,Z+20
 11191 3fbc 30E0      		ldi r19,lo8(0)
 11192 3fbe 822B      		or r24,r18
 11193 3fc0 932B      		or r25,r19
 11194 3fc2 A0E0      		ldi r26,lo8(0)
 11195 3fc4 B0E0      		ldi r27,hi8(0)
 11196 3fc6 8C01      		movw r16,r24
 11197 3fc8 FF24      		clr r15
 11198 3fca EE24      		clr r14
 11199               	.LVL960:
 11200 3fcc 938D      		ldd r25,Z+27
 11201 3fce 80E0      		ldi r24,lo8(0)
 11202 3fd0 228D      		ldd r18,Z+26
 11203 3fd2 30E0      		ldi r19,lo8(0)
 11204 3fd4 822B      		or r24,r18
 11205 3fd6 932B      		or r25,r19
 11206 3fd8 A0E0      		ldi r26,lo8(0)
 11207 3fda B0E0      		ldi r27,hi8(0)
 11208 3fdc E82A      		or r14,r24
 11209 3fde F92A      		or r15,r25
 11210 3fe0 0A2B      		or r16,r26
 11211 3fe2 1B2B      		or r17,r27
 11212               	.LM1079:
 11213 3fe4 44FF      		sbrs r20,4
 11214 3fe6 00C0      		rjmp .L699
 11215               	.LM1080:
 11216 3fe8 82E0      		ldi r24,lo8(2)
 11217 3fea E816      		cp r14,r24
 11218 3fec F104      		cpc r15,__zero_reg__
 11219 3fee 0105      		cpc r16,__zero_reg__
 11220 3ff0 1105      		cpc r17,__zero_reg__
 11221 3ff2 00F4      		brsh .L700
 11222 3ff4 82E0      		ldi r24,lo8(2)
 11223               	.LVL961:
 11224 3ff6 00C0      		rjmp .L696
 11225               	.LVL962:
 11226               	.L700:
 11227               	.LBB714:
 11228               	.LBB715:
 11229               	.LM1081:
 11230 3ff8 DE01      		movw r26,r28
 11231               	.LVL963:
 11232 3ffa 9396      		adiw r26,35
 11233               	.LM1082:
 11234 3ffc F601      		movw r30,r12
 11235               	.LVL964:
 11236               	.LM1083:
 11237 3ffe 9D01      		movw r18,r26
 11238 4000 00C0      		rjmp .L701
 11239               	.L702:
 11240 4002 8191      		ld r24,Z+
 11241 4004 8D93      		st X+,r24
 11242               	.L701:
 11243 4006 E217      		cp r30,r18
 11244 4008 F307      		cpc r31,r19
 11245 400a 01F4      		brne .L702
 11246               	.LBE715:
 11247               	.LBE714:
 11248               	.LM1084:
 11249 400c E9A6      		std Y+41,r14
 11250 400e FAA6      		std Y+42,r15
 11251 4010 0BA7      		std Y+43,r16
 11252 4012 1CA7      		std Y+44,r17
 11253               	.LM1085:
 11254 4014 23E2      		ldi r18,lo8(35)
 11255 4016 C22E      		mov r12,r18
 11256 4018 D12C      		mov r13,__zero_reg__
 11257 401a CC0E      		add r12,r28
 11258 401c DD1E      		adc r13,r29
 11259 401e C601      		movw r24,r12
 11260 4020 62E0      		ldi r22,lo8(2)
 11261 4022 70E0      		ldi r23,hi8(2)
 11262 4024 0E94 0000 		call dir_seek
 11263               	.LVL965:
 11264               	.LM1086:
 11265 4028 8823      		tst r24
 11266               	.LVL966:
 11267 402a 01F4      		brne .L696
 11268               	.LM1087:
 11269 402c C601      		movw r24,r12
 11270               	.LVL967:
 11271 402e 0E94 0000 		call dir_read
 11272               	.LM1088:
 11273 4032 8823      		tst r24
 11274               	.LVL968:
 11275 4034 01F0      		breq .L698
 11276               	.LM1089:
 11277 4036 8430      		cpi r24,lo8(4)
 11278 4038 01F4      		brne .L696
 11279               	.LVL969:
 11280               	.L699:
 11281               	.LM1090:
 11282 403a CE01      		movw r24,r28
 11283               	.LVL970:
 11284 403c 0D96      		adiw r24,13
 11285 403e 0E94 0000 		call dir_remove
 11286               	.LVL971:
 11287               	.LM1091:
 11288 4042 8823      		tst r24
 11289               	.LVL972:
 11290 4044 01F4      		brne .L696
 11291               	.LM1092:
 11292 4046 E114      		cp r14,__zero_reg__
 11293 4048 F104      		cpc r15,__zero_reg__
 11294 404a 0105      		cpc r16,__zero_reg__
 11295 404c 1105      		cpc r17,__zero_reg__
 11296 404e 01F0      		breq .L703
 11297               	.LM1093:
 11298 4050 8D85      		ldd r24,Y+13
 11299 4052 9E85      		ldd r25,Y+14
 11300               	.LVL973:
 11301 4054 B801      		movw r22,r16
 11302 4056 A701      		movw r20,r14
 11303 4058 0E94 0000 		call remove_chain
 11304               	.LM1094:
 11305 405c 8823      		tst r24
 11306               	.LVL974:
 11307 405e 01F4      		brne .L696
 11308               	.L703:
 11309 4060 8D85      		ldd r24,Y+13
 11310 4062 9E85      		ldd r25,Y+14
 11311               	.LVL975:
 11312 4064 0E94 0000 		call sync
 11313 4068 00C0      		rjmp .L696
 11314               	.LVL976:
 11315               	.L698:
 11316 406a 87E0      		ldi r24,lo8(7)
 11317               	.L696:
 11318               	.LVL977:
 11319               	/* epilogue start */
 11320               	.LM1095:
 11321 406c EA96      		adiw r28,58
 11322 406e CDBF      		out __SP_L__,r28
 11323 4070 DEBF      		out __SP_H__,r29
 11324 4072 CF91      		pop r28
 11325 4074 DF91      		pop r29
 11326 4076 1F91      		pop r17
 11327 4078 0F91      		pop r16
 11328 407a FF90      		pop r15
 11329 407c EF90      		pop r14
 11330               	.LVL978:
 11331 407e DF90      		pop r13
 11332 4080 CF90      		pop r12
 11333 4082 0895      		ret
 11334               	.LFE89:
 11336               	.global	f_mkdir
 11338               	f_mkdir:
 11339               	.LFB90:
 11340               	.LM1096:
 11341               	.LVL979:
 11342 4084 2F92      		push r2
 11343 4086 3F92      		push r3
 11344 4088 4F92      		push r4
 11345 408a 5F92      		push r5
 11346 408c 6F92      		push r6
 11347 408e 7F92      		push r7
 11348 4090 8F92      		push r8
 11349 4092 9F92      		push r9
 11350 4094 AF92      		push r10
 11351 4096 BF92      		push r11
 11352 4098 CF92      		push r12
 11353 409a DF92      		push r13
 11354 409c EF92      		push r14
 11355 409e FF92      		push r15
 11356 40a0 0F93      		push r16
 11357 40a2 1F93      		push r17
 11358 40a4 DF93      		push r29
 11359 40a6 CF93      		push r28
 11360 40a8 CDB7      		in r28,__SP_L__
 11361 40aa DEB7      		in r29,__SP_H__
 11362 40ac A897      		sbiw r28,40
 11363 40ae CDBF      		out __SP_L__,r28
 11364 40b0 DEBF      		out __SP_H__,r29
 11365               	/* prologue: function */
 11366               	/* frame size = 40 */
 11367 40b2 8BA3      		std Y+35,r24
 11368 40b4 9CA3      		std Y+36,r25
 11369               	.LM1097:
 11370 40b6 3DE0      		ldi r19,lo8(13)
 11371 40b8 E32E      		mov r14,r19
 11372 40ba F12C      		mov r15,__zero_reg__
 11373 40bc EC0E      		add r14,r28
 11374 40be FD1E      		adc r15,r29
 11375 40c0 CE01      		movw r24,r28
 11376               	.LVL980:
 11377 40c2 8396      		adiw r24,35
 11378 40c4 B701      		movw r22,r14
 11379 40c6 41E0      		ldi r20,lo8(1)
 11380 40c8 0E94 0000 		call chk_mounted
 11381 40cc 182F      		mov r17,r24
 11382               	.LVL981:
 11383               	.LM1098:
 11384 40ce 8823      		tst r24
 11385 40d0 01F0      		breq .+2
 11386 40d2 00C0      		rjmp .L706
 11387               	.LVL982:
 11388               	.LM1099:
 11389 40d4 CE01      		movw r24,r28
 11390               	.LVL983:
 11391 40d6 0196      		adiw r24,1
 11392 40d8 89A3      		std Y+33,r24
 11393 40da 9AA3      		std Y+34,r25
 11394               	.LM1100:
 11395 40dc 6BA1      		ldd r22,Y+35
 11396 40de 7CA1      		ldd r23,Y+36
 11397 40e0 C701      		movw r24,r14
 11398 40e2 0E94 0000 		call follow_path
 11399 40e6 182F      		mov r17,r24
 11400               	.LM1101:
 11401 40e8 8823      		tst r24
 11402 40ea 01F4      		brne .L707
 11403               	.LVL984:
 11404 40ec 18E0      		ldi r17,lo8(8)
 11405               	.LVL985:
 11406 40ee 00C0      		rjmp .L706
 11407               	.LVL986:
 11408               	.L707:
 11409               	.LM1102:
 11410 40f0 8430      		cpi r24,lo8(4)
 11411 40f2 01F0      		breq .+2
 11412 40f4 00C0      		rjmp .L706
 11413               	.LM1103:
 11414 40f6 8D85      		ldd r24,Y+13
 11415 40f8 9E85      		ldd r25,Y+14
 11416               	.LVL987:
 11417 40fa 40E0      		ldi r20,lo8(0)
 11418 40fc 50E0      		ldi r21,hi8(0)
 11419 40fe 60E0      		ldi r22,hlo8(0)
 11420 4100 70E0      		ldi r23,hhi8(0)
 11421 4102 0E94 0000 		call create_chain
 11422 4106 4B01      		movw r8,r22
 11423 4108 5C01      		movw r10,r24
 11424               	.LVL988:
 11425               	.LM1104:
 11426 410a 6115      		cp r22,__zero_reg__
 11427 410c 7105      		cpc r23,__zero_reg__
 11428 410e 8105      		cpc r24,__zero_reg__
 11429 4110 9105      		cpc r25,__zero_reg__
 11430 4112 01F4      		brne .L708
 11431               	.LVL989:
 11432 4114 17E0      		ldi r17,lo8(7)
 11433 4116 00C0      		rjmp .L706
 11434               	.L708:
 11435               	.LM1105:
 11436 4118 6130      		cpi r22,lo8(1)
 11437 411a 7105      		cpc r23,__zero_reg__
 11438 411c 8105      		cpc r24,__zero_reg__
 11439 411e 9105      		cpc r25,__zero_reg__
 11440 4120 01F4      		brne .L709
 11441 4122 12E0      		ldi r17,lo8(2)
 11442 4124 00C0      		rjmp .L706
 11443               	.L709:
 11444               	.LM1106:
 11445 4126 6F3F      		cpi r22,lo8(-1)
 11446 4128 3FEF      		ldi r19,hi8(-1)
 11447 412a 7307      		cpc r23,r19
 11448 412c 3FEF      		ldi r19,hlo8(-1)
 11449 412e 8307      		cpc r24,r19
 11450 4130 3FEF      		ldi r19,hhi8(-1)
 11451 4132 9307      		cpc r25,r19
 11452 4134 01F4      		brne .+2
 11453 4136 00C0      		rjmp .L710
 11454               	.LM1107:
 11455 4138 8D85      		ldd r24,Y+13
 11456 413a 9E85      		ldd r25,Y+14
 11457 413c 40E0      		ldi r20,lo8(0)
 11458 413e 50E0      		ldi r21,hi8(0)
 11459 4140 60E0      		ldi r22,hlo8(0)
 11460 4142 70E0      		ldi r23,hhi8(0)
 11461 4144 0E94 0000 		call move_window
 11462               	.LVL990:
 11463 4148 182F      		mov r17,r24
 11464               	.LM1108:
 11465 414a 8823      		tst r24
 11466 414c 01F0      		breq .+2
 11467 414e 00C0      		rjmp .L706
 11468               	.LVL991:
 11469               	.LM1109:
 11470 4150 0D85      		ldd r16,Y+13
 11471 4152 1E85      		ldd r17,Y+14
 11472               	.LBB716:
 11473               	.LBB717:
 11474               	.LM1110:
 11475 4154 2EEF      		ldi r18,lo8(-2)
 11476 4156 C22E      		mov r12,r18
 11477 4158 2FEF      		ldi r18,hi8(-2)
 11478 415a D22E      		mov r13,r18
 11479 415c 2FEF      		ldi r18,hlo8(-2)
 11480 415e E22E      		mov r14,r18
 11481 4160 2FEF      		ldi r18,hhi8(-2)
 11482 4162 F22E      		mov r15,r18
 11483               	.LVL992:
 11484 4164 C80C      		add r12,r8
 11485 4166 D91C      		adc r13,r9
 11486 4168 EA1C      		adc r14,r10
 11487 416a FB1C      		adc r15,r11
 11488               	.LM1111:
 11489 416c F801      		movw r30,r16
 11490 416e 828D      		ldd r24,Z+26
 11491 4170 938D      		ldd r25,Z+27
 11492 4172 A48D      		ldd r26,Z+28
 11493 4174 B58D      		ldd r27,Z+29
 11494               	.LVL993:
 11495 4176 0297      		sbiw r24,2
 11496 4178 A109      		sbc r26,__zero_reg__
 11497 417a B109      		sbc r27,__zero_reg__
 11498 417c C816      		cp r12,r24
 11499 417e D906      		cpc r13,r25
 11500 4180 EA06      		cpc r14,r26
 11501 4182 FB06      		cpc r15,r27
 11502 4184 00F0      		brlo .L711
 11503 4186 4424      		clr r4
 11504 4188 5524      		clr r5
 11505 418a 3201      		movw r6,r4
 11506               	.LVL994:
 11507 418c 00C0      		rjmp .L712
 11508               	.LVL995:
 11509               	.L711:
 11510               	.LM1112:
 11511 418e F801      		movw r30,r16
 11512 4190 2281      		ldd r18,Z+2
 11513 4192 30E0      		ldi r19,lo8(0)
 11514 4194 40E0      		ldi r20,lo8(0)
 11515 4196 50E0      		ldi r21,hi8(0)
 11516 4198 C701      		movw r24,r14
 11517 419a B601      		movw r22,r12
 11518 419c 0E94 0000 		call __mulsi3
 11519 41a0 2B01      		movw r4,r22
 11520 41a2 3C01      		movw r6,r24
 11521               	.LVL996:
 11522 41a4 F801      		movw r30,r16
 11523 41a6 86A1      		ldd r24,Z+38
 11524 41a8 97A1      		ldd r25,Z+39
 11525 41aa A0A5      		ldd r26,Z+40
 11526 41ac B1A5      		ldd r27,Z+41
 11527 41ae 480E      		add r4,r24
 11528 41b0 591E      		adc r5,r25
 11529 41b2 6A1E      		adc r6,r26
 11530 41b4 7B1E      		adc r7,r27
 11531               	.L712:
 11532               	.LBE717:
 11533               	.LBE716:
 11534               	.LM1113:
 11535 41b6 9EE2      		ldi r25,lo8(46)
 11536 41b8 292E      		mov r2,r25
 11537 41ba 312C      		mov r3,__zero_reg__
 11538               	.LVL997:
 11539 41bc 200E      		add r2,r16
 11540 41be 311E      		adc r3,r17
 11541 41c0 F101      		movw r30,r2
 11542 41c2 80E0      		ldi r24,lo8(512)
 11543 41c4 92E0      		ldi r25,hi8(512)
 11544               	.LVL998:
 11545 41c6 00C0      		rjmp .L713
 11546               	.LVL999:
 11547               	.L714:
 11548               	.LBB718:
 11549               	.LBB719:
 11550               	.LM1114:
 11551 41c8 1192      		st Z+,__zero_reg__
 11552               	.L713:
 11553 41ca 0197      		sbiw r24,1
 11554 41cc 2FEF      		ldi r18,hi8(-1)
 11555 41ce 8F3F      		cpi r24,lo8(-1)
 11556 41d0 9207      		cpc r25,r18
 11557 41d2 01F4      		brne .L714
 11558 41d4 F101      		movw r30,r2
 11559 41d6 8BE0      		ldi r24,lo8(11)
 11560 41d8 90E0      		ldi r25,hi8(11)
 11561               	.LVL1000:
 11562               	.LBE719:
 11563               	.LBE718:
 11564               	.LBB720:
 11565               	.LBB721:
 11566 41da 20E2      		ldi r18,lo8(32)
 11567 41dc 00C0      		rjmp .L715
 11568               	.L716:
 11569 41de 2193      		st Z+,r18
 11570               	.L715:
 11571 41e0 0197      		sbiw r24,1
 11572 41e2 3FEF      		ldi r19,hi8(-1)
 11573 41e4 8F3F      		cpi r24,lo8(-1)
 11574 41e6 9307      		cpc r25,r19
 11575 41e8 01F4      		brne .L716
 11576               	.LBE721:
 11577               	.LBE720:
 11578               	.LM1115:
 11579 41ea 8EE2      		ldi r24,lo8(46)
 11580               	.LVL1001:
 11581 41ec F801      		movw r30,r16
 11582               	.LVL1002:
 11583 41ee 86A7      		std Z+46,r24
 11584               	.LM1116:
 11585 41f0 80E1      		ldi r24,lo8(16)
 11586 41f2 81AF      		std Z+57,r24
 11587               	.LM1117:
 11588 41f4 0C5B      		subi r16,lo8(-(68))
 11589 41f6 1F4F      		sbci r17,hi8(-(68))
 11590 41f8 F801      		movw r30,r16
 11591 41fa 1192      		st Z+,__zero_reg__
 11592 41fc 1192      		st Z+,__zero_reg__
 11593 41fe 1192      		st Z+,__zero_reg__
 11594 4200 1192      		st Z+,__zero_reg__
 11595               	.LM1118:
 11596 4202 88A6      		std Y+40,r8
 11597 4204 8192      		st Z+,r8
 11598 4206 8F01      		movw r16,r30
 11599 4208 892D      		mov r24,r9
 11600 420a 9927      		clr r25
 11601 420c 8FA3      		std Y+39,r24
 11602 420e 8083      		st Z,r24
 11603               	.LM1119:
 11604 4210 C501      		movw r24,r10
 11605 4212 AA27      		clr r26
 11606 4214 BB27      		clr r27
 11607 4216 8EA3      		std Y+38,r24
 11608 4218 0750      		subi r16,lo8(-(-7))
 11609 421a 1040      		sbci r17,hi8(-(-7))
 11610 421c F801      		movw r30,r16
 11611 421e 8193      		st Z+,r24
 11612 4220 8F01      		movw r16,r30
 11613 4222 892F      		mov r24,r25
 11614 4224 9927      		clr r25
 11615 4226 8DA3      		std Y+37,r24
 11616 4228 8083      		st Z,r24
 11617 422a 0354      		subi r16,lo8(-(-67))
 11618 422c 1040      		sbci r17,hi8(-(-67))
 11619 422e F101      		movw r30,r2
 11620               	.LVL1003:
 11621 4230 20E2      		ldi r18,lo8(32)
 11622 4232 30E0      		ldi r19,hi8(32)
 11623               	.LVL1004:
 11624 4234 00C0      		rjmp .L717
 11625               	.L718:
 11626               	.LBB722:
 11627               	.LBB723:
 11628               	.LM1120:
 11629 4236 8081      		ld r24,Z
 11630 4238 80A3      		std Z+32,r24
 11631 423a 3196      		adiw r30,1
 11632               	.L717:
 11633 423c 2150      		subi r18,lo8(-(-1))
 11634 423e 3040      		sbci r19,hi8(-(-1))
 11635 4240 8FEF      		ldi r24,hi8(-1)
 11636 4242 2F3F      		cpi r18,lo8(-1)
 11637 4244 3807      		cpc r19,r24
 11638 4246 01F4      		brne .L718
 11639               	.LBE723:
 11640               	.LBE722:
 11641               	.LM1121:
 11642 4248 015B      		subi r16,lo8(-(79))
 11643 424a 1F4F      		sbci r17,hi8(-(79))
 11644 424c 8EE2      		ldi r24,lo8(46)
 11645 424e F801      		movw r30,r16
 11646               	.LVL1005:
 11647 4250 8083      		st Z,r24
 11648 4252 0F54      		subi r16,lo8(-(-79))
 11649 4254 1040      		sbci r17,hi8(-(-79))
 11650               	.LM1122:
 11651 4256 2B89      		ldd r18,Y+19
 11652 4258 3C89      		ldd r19,Y+20
 11653 425a 4D89      		ldd r20,Y+21
 11654 425c 5E89      		ldd r21,Y+22
 11655               	.LVL1006:
 11656               	.LM1123:
 11657 425e ED85      		ldd r30,Y+13
 11658 4260 FE85      		ldd r31,Y+14
 11659 4262 8081      		ld r24,Z
 11660 4264 8330      		cpi r24,lo8(3)
 11661 4266 01F4      		brne .L719
 11662 4268 82A1      		ldd r24,Z+34
 11663 426a 93A1      		ldd r25,Z+35
 11664 426c A4A1      		ldd r26,Z+36
 11665 426e B5A1      		ldd r27,Z+37
 11666 4270 2817      		cp r18,r24
 11667 4272 3907      		cpc r19,r25
 11668 4274 4A07      		cpc r20,r26
 11669 4276 5B07      		cpc r21,r27
 11670 4278 01F4      		brne .L719
 11671 427a 20E0      		ldi r18,lo8(0)
 11672 427c 30E0      		ldi r19,hi8(0)
 11673 427e 40E0      		ldi r20,hlo8(0)
 11674 4280 50E0      		ldi r21,hhi8(0)
 11675               	.L719:
 11676               	.LM1124:
 11677 4282 0859      		subi r16,lo8(-(104))
 11678 4284 1F4F      		sbci r17,hi8(-(104))
 11679 4286 F801      		movw r30,r16
 11680 4288 2193      		st Z+,r18
 11681 428a 8F01      		movw r16,r30
 11682 428c 832F      		mov r24,r19
 11683 428e 9927      		clr r25
 11684 4290 8083      		st Z,r24
 11685               	.LM1125:
 11686 4292 CA01      		movw r24,r20
 11687 4294 AA27      		clr r26
 11688 4296 BB27      		clr r27
 11689 4298 0750      		subi r16,lo8(-(-7))
 11690 429a 1040      		sbci r17,hi8(-(-7))
 11691 429c F801      		movw r30,r16
 11692 429e 8193      		st Z+,r24
 11693 42a0 892F      		mov r24,r25
 11694 42a2 9927      		clr r25
 11695 42a4 8083      		st Z,r24
 11696 42a6 7301      		movw r14,r6
 11697 42a8 6201      		movw r12,r4
 11698               	.LVL1007:
 11699               	.LM1126:
 11700 42aa 01E0      		ldi r16,lo8(1)
 11701 42ac 00C0      		rjmp .L720
 11702               	.LVL1008:
 11703               	.L723:
 11704               	.LM1127:
 11705 42ae C2A6      		std Z+42,r12
 11706 42b0 D3A6      		std Z+43,r13
 11707 42b2 E4A6      		std Z+44,r14
 11708 42b4 F5A6      		std Z+45,r15
 11709               	.LM1128:
 11710 42b6 0483      		std Z+4,r16
 11711               	.LM1129:
 11712 42b8 CF01      		movw r24,r30
 11713 42ba 40E0      		ldi r20,lo8(0)
 11714 42bc 50E0      		ldi r21,hi8(0)
 11715 42be 60E0      		ldi r22,hlo8(0)
 11716 42c0 70E0      		ldi r23,hhi8(0)
 11717 42c2 0E94 0000 		call move_window
 11718               	.LVL1009:
 11719 42c6 182F      		mov r17,r24
 11720               	.LM1130:
 11721 42c8 8823      		tst r24
 11722 42ca 01F4      		brne .L706
 11723               	.LVL1010:
 11724 42cc F101      		movw r30,r2
 11725 42ce 80E0      		ldi r24,lo8(512)
 11726 42d0 92E0      		ldi r25,hi8(512)
 11727               	.LVL1011:
 11728 42d2 00C0      		rjmp .L721
 11729               	.LVL1012:
 11730               	.L722:
 11731               	.LBB724:
 11732               	.LBB725:
 11733               	.LM1131:
 11734 42d4 1192      		st Z+,__zero_reg__
 11735               	.L721:
 11736 42d6 0197      		sbiw r24,1
 11737 42d8 2FEF      		ldi r18,hi8(-1)
 11738 42da 8F3F      		cpi r24,lo8(-1)
 11739 42dc 9207      		cpc r25,r18
 11740 42de 01F4      		brne .L722
 11741               	.LBE725:
 11742               	.LBE724:
 11743               	.LM1132:
 11744 42e0 0894      		sec
 11745 42e2 C11C      		adc r12,__zero_reg__
 11746 42e4 D11C      		adc r13,__zero_reg__
 11747 42e6 E11C      		adc r14,__zero_reg__
 11748 42e8 F11C      		adc r15,__zero_reg__
 11749               	.LVL1013:
 11750               	.L720:
 11751               	.LM1133:
 11752 42ea ED85      		ldd r30,Y+13
 11753 42ec FE85      		ldd r31,Y+14
 11754 42ee 9C2D      		mov r25,r12
 11755               	.LVL1014:
 11756 42f0 9419      		sub r25,r4
 11757 42f2 8281      		ldd r24,Z+2
 11758               	.LVL1015:
 11759 42f4 9817      		cp r25,r24
 11760 42f6 00F0      		brlo .L723
 11761               	.LM1134:
 11762 42f8 CE01      		movw r24,r28
 11763 42fa 0D96      		adiw r24,13
 11764 42fc 0E94 0000 		call dir_register
 11765               	.LVL1016:
 11766 4300 182F      		mov r17,r24
 11767               	.LM1135:
 11768 4302 8823      		tst r24
 11769 4304 01F0      		breq .L724
 11770               	.LVL1017:
 11771               	.LM1136:
 11772 4306 8D85      		ldd r24,Y+13
 11773 4308 9E85      		ldd r25,Y+14
 11774               	.LVL1018:
 11775 430a B501      		movw r22,r10
 11776 430c A401      		movw r20,r8
 11777 430e 0E94 0000 		call remove_chain
 11778 4312 00C0      		rjmp .L706
 11779               	.LVL1019:
 11780               	.L724:
 11781               	.LM1137:
 11782 4314 EF8D      		ldd r30,Y+31
 11783 4316 F8A1      		ldd r31,Y+32
 11784               	.LVL1020:
 11785               	.LM1138:
 11786 4318 80E1      		ldi r24,lo8(16)
 11787               	.LVL1021:
 11788 431a 8387      		std Z+11,r24
 11789               	.LM1139:
 11790 431c 168A      		std Z+22,__zero_reg__
 11791 431e 178A      		std Z+23,__zero_reg__
 11792 4320 108E      		std Z+24,__zero_reg__
 11793 4322 118E      		std Z+25,__zero_reg__
 11794               	.LM1140:
 11795 4324 38A5      		ldd r19,Y+40
 11796 4326 328F      		std Z+26,r19
 11797 4328 8FA1      		ldd r24,Y+39
 11798 432a 838F      		std Z+27,r24
 11799               	.LM1141:
 11800 432c 2EA1      		ldd r18,Y+38
 11801 432e 248B      		std Z+20,r18
 11802 4330 3DA1      		ldd r19,Y+37
 11803 4332 358B      		std Z+21,r19
 11804               	.LM1142:
 11805 4334 ED85      		ldd r30,Y+13
 11806 4336 FE85      		ldd r31,Y+14
 11807               	.LVL1022:
 11808 4338 81E0      		ldi r24,lo8(1)
 11809 433a 8483      		std Z+4,r24
 11810               	.LM1143:
 11811 433c CF01      		movw r24,r30
 11812 433e 0E94 0000 		call sync
 11813 4342 182F      		mov r17,r24
 11814               	.LVL1023:
 11815               	.L706:
 11816               	.LM1144:
 11817 4344 812F      		mov r24,r17
 11818               	/* epilogue start */
 11819 4346 A896      		adiw r28,40
 11820 4348 CDBF      		out __SP_L__,r28
 11821 434a DEBF      		out __SP_H__,r29
 11822 434c CF91      		pop r28
 11823 434e DF91      		pop r29
 11824 4350 1F91      		pop r17
 11825               	.LVL1024:
 11826 4352 0F91      		pop r16
 11827 4354 FF90      		pop r15
 11828 4356 EF90      		pop r14
 11829 4358 DF90      		pop r13
 11830 435a CF90      		pop r12
 11831 435c BF90      		pop r11
 11832 435e AF90      		pop r10
 11833 4360 9F90      		pop r9
 11834 4362 8F90      		pop r8
 11835               	.LVL1025:
 11836 4364 7F90      		pop r7
 11837 4366 6F90      		pop r6
 11838 4368 5F90      		pop r5
 11839 436a 4F90      		pop r4
 11840               	.LVL1026:
 11841 436c 3F90      		pop r3
 11842 436e 2F90      		pop r2
 11843               	.LVL1027:
 11844 4370 0895      		ret
 11845               	.LVL1028:
 11846               	.L710:
 11847               	.LM1145:
 11848 4372 11E0      		ldi r17,lo8(1)
 11849 4374 00C0      		rjmp .L706
 11850               	.LFE90:
 11852               	.global	f_chmod
 11854               	f_chmod:
 11855               	.LFB91:
 11856               	.LM1146:
 11857               	.LVL1029:
 11858 4376 EF92      		push r14
 11859 4378 FF92      		push r15
 11860 437a 0F93      		push r16
 11861 437c 1F93      		push r17
 11862 437e DF93      		push r29
 11863 4380 CF93      		push r28
 11864 4382 CDB7      		in r28,__SP_L__
 11865 4384 DEB7      		in r29,__SP_H__
 11866 4386 A497      		sbiw r28,36
 11867 4388 CDBF      		out __SP_L__,r28
 11868 438a DEBF      		out __SP_H__,r29
 11869               	/* prologue: function */
 11870               	/* frame size = 36 */
 11871 438c 8BA3      		std Y+35,r24
 11872 438e 9CA3      		std Y+36,r25
 11873 4390 E62E      		mov r14,r22
 11874 4392 F42E      		mov r15,r20
 11875               	.LM1147:
 11876 4394 8E01      		movw r16,r28
 11877 4396 035F      		subi r16,lo8(-(13))
 11878 4398 1F4F      		sbci r17,hi8(-(13))
 11879 439a CE01      		movw r24,r28
 11880               	.LVL1030:
 11881 439c 8396      		adiw r24,35
 11882 439e B801      		movw r22,r16
 11883               	.LVL1031:
 11884 43a0 41E0      		ldi r20,lo8(1)
 11885               	.LVL1032:
 11886 43a2 0E94 0000 		call chk_mounted
 11887               	.LM1148:
 11888 43a6 8823      		tst r24
 11889               	.LVL1033:
 11890 43a8 01F4      		brne .L727
 11891               	.LM1149:
 11892 43aa CE01      		movw r24,r28
 11893               	.LVL1034:
 11894 43ac 0196      		adiw r24,1
 11895 43ae 89A3      		std Y+33,r24
 11896 43b0 9AA3      		std Y+34,r25
 11897               	.LM1150:
 11898 43b2 6BA1      		ldd r22,Y+35
 11899 43b4 7CA1      		ldd r23,Y+36
 11900 43b6 C801      		movw r24,r16
 11901 43b8 0E94 0000 		call follow_path
 11902               	.LM1151:
 11903 43bc 8823      		tst r24
 11904               	.LVL1035:
 11905 43be 01F4      		brne .L727
 11906               	.LM1152:
 11907 43c0 EF8D      		ldd r30,Y+31
 11908 43c2 F8A1      		ldd r31,Y+32
 11909               	.LVL1036:
 11910               	.LM1153:
 11911 43c4 3097      		sbiw r30,0
 11912 43c6 01F4      		brne .L728
 11913 43c8 86E0      		ldi r24,lo8(6)
 11914 43ca 00C0      		rjmp .L727
 11915               	.L728:
 11916               	.LM1154:
 11917 43cc 9F2D      		mov r25,r15
 11918 43ce 9772      		andi r25,lo8(39)
 11919               	.LVL1037:
 11920               	.LM1155:
 11921 43d0 892F      		mov r24,r25
 11922               	.LVL1038:
 11923 43d2 8095      		com r24
 11924 43d4 2385      		ldd r18,Z+11
 11925 43d6 8223      		and r24,r18
 11926 43d8 9E21      		and r25,r14
 11927 43da 892B      		or r24,r25
 11928 43dc 8387      		std Z+11,r24
 11929               	.LM1156:
 11930 43de ED85      		ldd r30,Y+13
 11931 43e0 FE85      		ldd r31,Y+14
 11932               	.LVL1039:
 11933 43e2 81E0      		ldi r24,lo8(1)
 11934 43e4 8483      		std Z+4,r24
 11935               	.LM1157:
 11936 43e6 CF01      		movw r24,r30
 11937 43e8 0E94 0000 		call sync
 11938               	.LVL1040:
 11939               	.L727:
 11940               	.LVL1041:
 11941               	/* epilogue start */
 11942               	.LM1158:
 11943 43ec A496      		adiw r28,36
 11944 43ee CDBF      		out __SP_L__,r28
 11945 43f0 DEBF      		out __SP_H__,r29
 11946 43f2 CF91      		pop r28
 11947 43f4 DF91      		pop r29
 11948 43f6 1F91      		pop r17
 11949 43f8 0F91      		pop r16
 11950 43fa FF90      		pop r15
 11951               	.LVL1042:
 11952 43fc EF90      		pop r14
 11953               	.LVL1043:
 11954 43fe 0895      		ret
 11955               	.LFE91:
 11957               	.global	f_utime
 11959               	f_utime:
 11960               	.LFB92:
 11961               	.LM1159:
 11962               	.LVL1044:
 11963 4400 EF92      		push r14
 11964 4402 FF92      		push r15
 11965 4404 0F93      		push r16
 11966 4406 1F93      		push r17
 11967 4408 DF93      		push r29
 11968 440a CF93      		push r28
 11969 440c CDB7      		in r28,__SP_L__
 11970 440e DEB7      		in r29,__SP_H__
 11971 4410 A497      		sbiw r28,36
 11972 4412 CDBF      		out __SP_L__,r28
 11973 4414 DEBF      		out __SP_H__,r29
 11974               	/* prologue: function */
 11975               	/* frame size = 36 */
 11976 4416 8BA3      		std Y+35,r24
 11977 4418 9CA3      		std Y+36,r25
 11978 441a 8B01      		movw r16,r22
 11979               	.LM1160:
 11980 441c 4DE0      		ldi r20,lo8(13)
 11981 441e E42E      		mov r14,r20
 11982 4420 F12C      		mov r15,__zero_reg__
 11983 4422 EC0E      		add r14,r28
 11984 4424 FD1E      		adc r15,r29
 11985 4426 CE01      		movw r24,r28
 11986               	.LVL1045:
 11987 4428 8396      		adiw r24,35
 11988 442a B701      		movw r22,r14
 11989               	.LVL1046:
 11990 442c 41E0      		ldi r20,lo8(1)
 11991 442e 0E94 0000 		call chk_mounted
 11992               	.LM1161:
 11993 4432 8823      		tst r24
 11994               	.LVL1047:
 11995 4434 01F4      		brne .L731
 11996               	.LM1162:
 11997 4436 CE01      		movw r24,r28
 11998               	.LVL1048:
 11999 4438 0196      		adiw r24,1
 12000 443a 89A3      		std Y+33,r24
 12001 443c 9AA3      		std Y+34,r25
 12002               	.LM1163:
 12003 443e 6BA1      		ldd r22,Y+35
 12004 4440 7CA1      		ldd r23,Y+36
 12005 4442 C701      		movw r24,r14
 12006 4444 0E94 0000 		call follow_path
 12007               	.LM1164:
 12008 4448 8823      		tst r24
 12009               	.LVL1049:
 12010 444a 01F4      		brne .L731
 12011               	.LM1165:
 12012 444c EF8D      		ldd r30,Y+31
 12013 444e F8A1      		ldd r31,Y+32
 12014               	.LVL1050:
 12015               	.LM1166:
 12016 4450 3097      		sbiw r30,0
 12017 4452 01F4      		brne .L732
 12018 4454 86E0      		ldi r24,lo8(6)
 12019 4456 00C0      		rjmp .L731
 12020               	.L732:
 12021               	.LM1167:
 12022 4458 D801      		movw r26,r16
 12023 445a 1696      		adiw r26,6
 12024 445c 8C91      		ld r24,X
 12025 445e 1697      		sbiw r26,6
 12026               	.LVL1051:
 12027 4460 868B      		std Z+22,r24
 12028 4462 1796      		adiw r26,7
 12029 4464 8C91      		ld r24,X
 12030 4466 1797      		sbiw r26,7
 12031 4468 878B      		std Z+23,r24
 12032               	.LM1168:
 12033 446a 1496      		adiw r26,4
 12034 446c 8C91      		ld r24,X
 12035 446e 1497      		sbiw r26,4
 12036 4470 808F      		std Z+24,r24
 12037 4472 1596      		adiw r26,5
 12038 4474 8C91      		ld r24,X
 12039 4476 818F      		std Z+25,r24
 12040               	.LM1169:
 12041 4478 ED85      		ldd r30,Y+13
 12042 447a FE85      		ldd r31,Y+14
 12043               	.LVL1052:
 12044 447c 81E0      		ldi r24,lo8(1)
 12045 447e 8483      		std Z+4,r24
 12046               	.LM1170:
 12047 4480 CF01      		movw r24,r30
 12048 4482 0E94 0000 		call sync
 12049               	.LVL1053:
 12050               	.L731:
 12051               	.LVL1054:
 12052               	/* epilogue start */
 12053               	.LM1171:
 12054 4486 A496      		adiw r28,36
 12055 4488 CDBF      		out __SP_L__,r28
 12056 448a DEBF      		out __SP_H__,r29
 12057 448c CF91      		pop r28
 12058 448e DF91      		pop r29
 12059 4490 1F91      		pop r17
 12060 4492 0F91      		pop r16
 12061               	.LVL1055:
 12062 4494 FF90      		pop r15
 12063 4496 EF90      		pop r14
 12064 4498 0895      		ret
 12065               	.LFE92:
 12067               	.global	f_rename
 12069               	f_rename:
 12070               	.LFB93:
 12071               	.LM1172:
 12072               	.LVL1056:
 12073 449a CF92      		push r12
 12074 449c DF92      		push r13
 12075 449e EF92      		push r14
 12076 44a0 FF92      		push r15
 12077 44a2 0F93      		push r16
 12078 44a4 1F93      		push r17
 12079 44a6 DF93      		push r29
 12080 44a8 CF93      		push r28
 12081 44aa CDB7      		in r28,__SP_L__
 12082 44ac DEB7      		in r29,__SP_H__
 12083 44ae CF54      		subi r28,lo8(-(-79))
 12084 44b0 D040      		sbci r29,hi8(-(-79))
 12085 44b2 CDBF      		out __SP_L__,r28
 12086 44b4 DEBF      		out __SP_H__,r29
 12087               	/* prologue: function */
 12088               	/* frame size = 79 */
 12089 44b6 8E01      		movw r16,r28
 12090 44b8 025B      		subi r16,lo8(-(78))
 12091 44ba 1F4F      		sbci r17,hi8(-(78))
 12092 44bc D801      		movw r26,r16
 12093 44be 8D93      		st X+,r24
 12094 44c0 9C93      		st X,r25
 12095 44c2 6B01      		movw r12,r22
 12096               	.LM1173:
 12097 44c4 CE01      		movw r24,r28
 12098               	.LVL1057:
 12099 44c6 0196      		adiw r24,1
 12100 44c8 8EAB      		std Y+54,r24
 12101 44ca 9FAB      		std Y+55,r25
 12102               	.LM1174:
 12103 44cc A2E2      		ldi r26,lo8(34)
 12104 44ce EA2E      		mov r14,r26
 12105 44d0 F12C      		mov r15,__zero_reg__
 12106 44d2 EC0E      		add r14,r28
 12107 44d4 FD1E      		adc r15,r29
 12108 44d6 C801      		movw r24,r16
 12109 44d8 B701      		movw r22,r14
 12110               	.LVL1058:
 12111 44da 41E0      		ldi r20,lo8(1)
 12112 44dc 0E94 0000 		call chk_mounted
 12113               	.LM1175:
 12114 44e0 8823      		tst r24
 12115               	.LVL1059:
 12116 44e2 01F0      		breq .+2
 12117 44e4 00C0      		rjmp .L735
 12118               	.LM1176:
 12119 44e6 8AA1      		ldd r24,Y+34
 12120 44e8 9BA1      		ldd r25,Y+35
 12121               	.LVL1060:
 12122 44ea 88AF      		std Y+56,r24
 12123 44ec 99AF      		std Y+57,r25
 12124               	.LM1177:
 12125 44ee F801      		movw r30,r16
 12126 44f0 6081      		ld r22,Z
 12127 44f2 7181      		ldd r23,Z+1
 12128 44f4 C701      		movw r24,r14
 12129 44f6 0E94 0000 		call follow_path
 12130               	.LM1178:
 12131 44fa 8823      		tst r24
 12132               	.LVL1061:
 12133 44fc 01F0      		breq .+2
 12134 44fe 00C0      		rjmp .L735
 12135               	.LVL1062:
 12136               	.LM1179:
 12137 4500 8CA9      		ldd r24,Y+52
 12138 4502 9DA9      		ldd r25,Y+53
 12139               	.LVL1063:
 12140 4504 0097      		sbiw r24,0
 12141 4506 01F4      		brne .L736
 12142 4508 84E0      		ldi r24,lo8(4)
 12143               	.LVL1064:
 12144 450a 00C0      		rjmp .L735
 12145               	.LVL1065:
 12146               	.L736:
 12147 450c DC01      		movw r26,r24
 12148 450e FE01      		movw r30,r28
 12149               	.LVL1066:
 12150 4510 3D96      		adiw r30,13
 12151 4512 00C0      		rjmp .L737
 12152               	.L738:
 12153               	.LBB726:
 12154               	.LBB727:
 12155               	.LM1180:
 12156 4514 1A96      		adiw r26,10
 12157 4516 8C91      		ld r24,X
 12158 4518 1A97      		sbiw r26,10
 12159 451a 8193      		st Z+,r24
 12160               	.L737:
 12161 451c 1196      		adiw r26,1
 12162 451e EE15      		cp r30,r14
 12163 4520 FF05      		cpc r31,r15
 12164 4522 01F4      		brne .L738
 12165               	.LBE727:
 12166               	.LBE726:
 12167               	.LBB728:
 12168               	.LBB729:
 12169               	.LM1181:
 12170 4524 DE01      		movw r26,r28
 12171               	.LVL1067:
 12172 4526 D896      		adiw r26,56
 12173               	.LM1182:
 12174 4528 F701      		movw r30,r14
 12175               	.LVL1068:
 12176               	.LM1183:
 12177 452a 9D01      		movw r18,r26
 12178 452c 00C0      		rjmp .L739
 12179               	.L740:
 12180 452e 8191      		ld r24,Z+
 12181 4530 8D93      		st X+,r24
 12182               	.L739:
 12183 4532 E217      		cp r30,r18
 12184 4534 F307      		cpc r31,r19
 12185 4536 01F4      		brne .L740
 12186               	.LBE729:
 12187               	.LBE728:
 12188               	.LM1184:
 12189 4538 8E01      		movw r16,r28
 12190 453a 085C      		subi r16,lo8(-(56))
 12191 453c 1F4F      		sbci r17,hi8(-(56))
 12192 453e C801      		movw r24,r16
 12193 4540 B601      		movw r22,r12
 12194 4542 0E94 0000 		call follow_path
 12195               	.LVL1069:
 12196               	.LM1185:
 12197 4546 8823      		tst r24
 12198               	.LVL1070:
 12199 4548 01F4      		brne .L741
 12200 454a 88E0      		ldi r24,lo8(8)
 12201 454c 00C0      		rjmp .L735
 12202               	.L741:
 12203               	.LM1186:
 12204 454e 8430      		cpi r24,lo8(4)
 12205 4550 01F0      		breq .+2
 12206 4552 00C0      		rjmp .L735
 12207               	.LM1187:
 12208 4554 C801      		movw r24,r16
 12209               	.LVL1071:
 12210 4556 0E94 0000 		call dir_register
 12211               	.LM1188:
 12212 455a 8823      		tst r24
 12213               	.LVL1072:
 12214 455c 01F0      		breq .+2
 12215 455e 00C0      		rjmp .L735
 12216               	.LM1189:
 12217 4560 FE01      		movw r30,r28
 12218 4562 E65B      		subi r30,lo8(-(74))
 12219 4564 FF4F      		sbci r31,hi8(-(74))
 12220 4566 4081      		ld r20,Z
 12221 4568 5181      		ldd r21,Z+1
 12222               	.LVL1073:
 12223 456a DA01      		movw r26,r20
 12224 456c FE01      		movw r30,r28
 12225               	.LVL1074:
 12226 456e 3F96      		adiw r30,15
 12227 4570 00C0      		rjmp .L742
 12228               	.L743:
 12229               	.LBB730:
 12230               	.LBB731:
 12231               	.LM1190:
 12232 4572 8191      		ld r24,Z+
 12233               	.LVL1075:
 12234 4574 1C96      		adiw r26,12
 12235 4576 8C93      		st X,r24
 12236 4578 1C97      		sbiw r26,12
 12237               	.LVL1076:
 12238               	.L742:
 12239 457a 1196      		adiw r26,1
 12240 457c EE15      		cp r30,r14
 12241 457e FF05      		cpc r31,r15
 12242 4580 01F4      		brne .L743
 12243               	.LBE731:
 12244               	.LBE730:
 12245               	.LM1191:
 12246 4582 8D85      		ldd r24,Y+13
 12247               	.LVL1077:
 12248 4584 8062      		ori r24,lo8(32)
 12249 4586 DA01      		movw r26,r20
 12250 4588 1B96      		adiw r26,11
 12251 458a 8C93      		st X,r24
 12252 458c 1B97      		sbiw r26,11
 12253               	.LM1192:
 12254 458e EAA1      		ldd r30,Y+34
 12255 4590 FBA1      		ldd r31,Y+35
 12256               	.LVL1078:
 12257 4592 81E0      		ldi r24,lo8(1)
 12258 4594 8483      		std Z+4,r24
 12259               	.LM1193:
 12260 4596 1B96      		adiw r26,11
 12261 4598 8C91      		ld r24,X
 12262 459a 1B97      		sbiw r26,11
 12263 459c 84FF      		sbrs r24,4
 12264 459e 00C0      		rjmp .L744
 12265               	.LM1194:
 12266 45a0 C8AC      		ldd r12,Y+56
 12267 45a2 D9AC      		ldd r13,Y+57
 12268               	.LVL1079:
 12269               	.LBB732:
 12270               	.LBB733:
 12271               	.LM1195:
 12272 45a4 5A96      		adiw r26,26
 12273 45a6 2C91      		ld r18,X
 12274 45a8 5A97      		sbiw r26,26
 12275 45aa 30E0      		ldi r19,lo8(0)
 12276 45ac 5496      		adiw r26,20
 12277 45ae 8C91      		ld r24,X
 12278 45b0 5497      		sbiw r26,20
 12279 45b2 90E0      		ldi r25,lo8(0)
 12280 45b4 282B      		or r18,r24
 12281 45b6 392B      		or r19,r25
 12282 45b8 5596      		adiw r26,21
 12283 45ba 9C91      		ld r25,X
 12284 45bc 5597      		sbiw r26,21
 12285 45be 80E0      		ldi r24,lo8(0)
 12286 45c0 282B      		or r18,r24
 12287 45c2 392B      		or r19,r25
 12288 45c4 5B96      		adiw r26,27
 12289 45c6 9C91      		ld r25,X
 12290 45c8 80E0      		ldi r24,lo8(0)
 12291 45ca 282B      		or r18,r24
 12292 45cc 392B      		or r19,r25
 12293 45ce 7901      		movw r14,r18
 12294               	.LVL1080:
 12295 45d0 00E0      		ldi r16,lo8(0)
 12296 45d2 10E0      		ldi r17,hi8(0)
 12297               	.LVL1081:
 12298 45d4 8EEF      		ldi r24,lo8(-2)
 12299 45d6 9FEF      		ldi r25,hi8(-2)
 12300 45d8 AFEF      		ldi r26,hlo8(-2)
 12301 45da BFEF      		ldi r27,hhi8(-2)
 12302 45dc E80E      		add r14,r24
 12303 45de F91E      		adc r15,r25
 12304 45e0 0A1F      		adc r16,r26
 12305 45e2 1B1F      		adc r17,r27
 12306               	.LVL1082:
 12307               	.LM1196:
 12308 45e4 F601      		movw r30,r12
 12309 45e6 828D      		ldd r24,Z+26
 12310 45e8 938D      		ldd r25,Z+27
 12311 45ea A48D      		ldd r26,Z+28
 12312 45ec B58D      		ldd r27,Z+29
 12313 45ee 0297      		sbiw r24,2
 12314 45f0 A109      		sbc r26,__zero_reg__
 12315 45f2 B109      		sbc r27,__zero_reg__
 12316 45f4 E816      		cp r14,r24
 12317 45f6 F906      		cpc r15,r25
 12318 45f8 0A07      		cpc r16,r26
 12319 45fa 1B07      		cpc r17,r27
 12320 45fc 00F0      		brlo .+2
 12321 45fe 00C0      		rjmp .L745
 12322               	.LM1197:
 12323 4600 2281      		ldd r18,Z+2
 12324 4602 30E0      		ldi r19,lo8(0)
 12325 4604 40E0      		ldi r20,lo8(0)
 12326 4606 50E0      		ldi r21,hi8(0)
 12327               	.LVL1083:
 12328 4608 C801      		movw r24,r16
 12329 460a B701      		movw r22,r14
 12330 460c 0E94 0000 		call __mulsi3
 12331 4610 AB01      		movw r20,r22
 12332 4612 BC01      		movw r22,r24
 12333               	.LVL1084:
 12334 4614 F601      		movw r30,r12
 12335 4616 86A1      		ldd r24,Z+38
 12336 4618 97A1      		ldd r25,Z+39
 12337 461a A0A5      		ldd r26,Z+40
 12338 461c B1A5      		ldd r27,Z+41
 12339 461e 480F      		add r20,r24
 12340 4620 591F      		adc r21,r25
 12341 4622 6A1F      		adc r22,r26
 12342 4624 7B1F      		adc r23,r27
 12343               	.LBE733:
 12344               	.LBE732:
 12345               	.LM1198:
 12346 4626 4115      		cp r20,__zero_reg__
 12347 4628 5105      		cpc r21,__zero_reg__
 12348 462a 6105      		cpc r22,__zero_reg__
 12349 462c 7105      		cpc r23,__zero_reg__
 12350 462e 01F4      		brne .+2
 12351 4630 00C0      		rjmp .L745
 12352               	.LM1199:
 12353 4632 C601      		movw r24,r12
 12354 4634 0E94 0000 		call move_window
 12355               	.LVL1085:
 12356               	.LM1200:
 12357 4638 A8AD      		ldd r26,Y+56
 12358 463a B9AD      		ldd r27,Y+57
 12359               	.LM1201:
 12360 463c 8823      		tst r24
 12361               	.LVL1086:
 12362 463e 01F0      		breq .+2
 12363 4640 00C0      		rjmp .L735
 12364               	.LM1202:
 12365 4642 BD01      		movw r22,r26
 12366               	.LVL1087:
 12367 4644 625B      		subi r22,lo8(-(78))
 12368 4646 7F4F      		sbci r23,hi8(-(78))
 12369               	.LM1203:
 12370 4648 FB01      		movw r30,r22
 12371 464a 8181      		ldd r24,Z+1
 12372               	.LVL1088:
 12373 464c 8E32      		cpi r24,lo8(46)
 12374 464e 01F4      		brne .L744
 12375               	.LM1204:
 12376 4650 8C91      		ld r24,X
 12377 4652 8330      		cpi r24,lo8(3)
 12378 4654 01F4      		brne .L746
 12379 4656 FE01      		movw r30,r28
 12380 4658 FE96      		adiw r30,62
 12381 465a 2081      		ld r18,Z
 12382 465c 3181      		ldd r19,Z+1
 12383 465e 4281      		ldd r20,Z+2
 12384 4660 5381      		ldd r21,Z+3
 12385 4662 9296      		adiw r26,34
 12386 4664 8D91      		ld r24,X+
 12387 4666 9D91      		ld r25,X+
 12388 4668 0D90      		ld __tmp_reg__,X+
 12389 466a BC91      		ld r27,X
 12390 466c A02D      		mov r26,__tmp_reg__
 12391 466e 2817      		cp r18,r24
 12392 4670 3907      		cpc r19,r25
 12393 4672 4A07      		cpc r20,r26
 12394 4674 5B07      		cpc r21,r27
 12395 4676 01F4      		brne .L746
 12396 4678 20E0      		ldi r18,lo8(0)
 12397 467a 30E0      		ldi r19,hi8(0)
 12398 467c 40E0      		ldi r20,hlo8(0)
 12399 467e 50E0      		ldi r21,hhi8(0)
 12400               	.LVL1089:
 12401 4680 00C0      		rjmp .L747
 12402               	.LVL1090:
 12403               	.L746:
 12404 4682 FE01      		movw r30,r28
 12405 4684 FE96      		adiw r30,62
 12406 4686 2081      		ld r18,Z
 12407 4688 3181      		ldd r19,Z+1
 12408 468a 4281      		ldd r20,Z+2
 12409 468c 5381      		ldd r21,Z+3
 12410               	.LVL1091:
 12411               	.L747:
 12412               	.LM1205:
 12413 468e DB01      		movw r26,r22
 12414 4690 5A96      		adiw r26,26
 12415 4692 2C93      		st X,r18
 12416 4694 5A97      		sbiw r26,26
 12417 4696 832F      		mov r24,r19
 12418 4698 9927      		clr r25
 12419 469a 5B96      		adiw r26,27
 12420 469c 8C93      		st X,r24
 12421               	.LM1206:
 12422 469e CA01      		movw r24,r20
 12423 46a0 AA27      		clr r26
 12424 46a2 BB27      		clr r27
 12425 46a4 FB01      		movw r30,r22
 12426 46a6 848B      		std Z+20,r24
 12427 46a8 892F      		mov r24,r25
 12428 46aa 9927      		clr r25
 12429 46ac 858B      		std Z+21,r24
 12430               	.LM1207:
 12431 46ae E8AD      		ldd r30,Y+56
 12432 46b0 F9AD      		ldd r31,Y+57
 12433 46b2 81E0      		ldi r24,lo8(1)
 12434 46b4 8483      		std Z+4,r24
 12435               	.LVL1092:
 12436               	.L744:
 12437               	.LM1208:
 12438 46b6 CE01      		movw r24,r28
 12439 46b8 8296      		adiw r24,34
 12440 46ba 0E94 0000 		call dir_remove
 12441               	.LVL1093:
 12442               	.LM1209:
 12443 46be 8823      		tst r24
 12444               	.LVL1094:
 12445 46c0 01F4      		brne .L735
 12446               	.LM1210:
 12447 46c2 8AA1      		ldd r24,Y+34
 12448 46c4 9BA1      		ldd r25,Y+35
 12449               	.LVL1095:
 12450 46c6 0E94 0000 		call sync
 12451 46ca 00C0      		rjmp .L735
 12452               	.LVL1096:
 12453               	.L745:
 12454 46cc 82E0      		ldi r24,lo8(2)
 12455               	.LVL1097:
 12456               	.L735:
 12457               	.LVL1098:
 12458               	/* epilogue start */
 12459               	.LM1211:
 12460 46ce C15B      		subi r28,lo8(-(79))
 12461 46d0 DF4F      		sbci r29,hi8(-(79))
 12462 46d2 CDBF      		out __SP_L__,r28
 12463 46d4 DEBF      		out __SP_H__,r29
 12464 46d6 CF91      		pop r28
 12465 46d8 DF91      		pop r29
 12466 46da 1F91      		pop r17
 12467 46dc 0F91      		pop r16
 12468               	.LVL1099:
 12469 46de FF90      		pop r15
 12470 46e0 EF90      		pop r14
 12471               	.LVL1100:
 12472 46e2 DF90      		pop r13
 12473 46e4 CF90      		pop r12
 12474               	.LVL1101:
 12475 46e6 0895      		ret
 12476               	.LFE93:
 12478               	.global	f_gets
 12480               	f_gets:
 12481               	.LFB94:
 12482               	.LM1212:
 12483               	.LVL1102:
 12484 46e8 6F92      		push r6
 12485 46ea 7F92      		push r7
 12486 46ec 8F92      		push r8
 12487 46ee 9F92      		push r9
 12488 46f0 AF92      		push r10
 12489 46f2 BF92      		push r11
 12490 46f4 CF92      		push r12
 12491 46f6 DF92      		push r13
 12492 46f8 EF92      		push r14
 12493 46fa FF92      		push r15
 12494 46fc 0F93      		push r16
 12495 46fe 1F93      		push r17
 12496 4700 DF93      		push r29
 12497 4702 CF93      		push r28
 12498 4704 0F92      		push __tmp_reg__
 12499 4706 0F92      		push __tmp_reg__
 12500 4708 CDB7      		in r28,__SP_L__
 12501 470a DEB7      		in r29,__SP_H__
 12502               	/* prologue: function */
 12503               	/* frame size = 2 */
 12504 470c 5C01      		movw r10,r24
 12505 470e 6B01      		movw r12,r22
 12506 4710 4A01      		movw r8,r20
 12507               	.LM1213:
 12508 4712 8C01      		movw r16,r24
 12509               	.LVL1103:
 12510 4714 EE24      		clr r14
 12511 4716 FF24      		clr r15
 12512               	.LVL1104:
 12513               	.LM1214:
 12514 4718 0894      		sec
 12515 471a C108      		sbc r12,__zero_reg__
 12516 471c D108      		sbc r13,__zero_reg__
 12517               	.LM1215:
 12518 471e 3E01      		movw r6,r28
 12519 4720 0894      		sec
 12520 4722 611C      		adc r6,__zero_reg__
 12521 4724 711C      		adc r7,__zero_reg__
 12522 4726 00C0      		rjmp .L750
 12523               	.LVL1105:
 12524               	.L752:
 12525 4728 C401      		movw r24,r8
 12526 472a B801      		movw r22,r16
 12527               	.LVL1106:
 12528 472c 41E0      		ldi r20,lo8(1)
 12529 472e 50E0      		ldi r21,hi8(1)
 12530 4730 9301      		movw r18,r6
 12531 4732 0E94 0000 		call f_read
 12532               	.LM1216:
 12533 4736 8981      		ldd r24,Y+1
 12534 4738 9A81      		ldd r25,Y+2
 12535 473a 0197      		sbiw r24,1
 12536 473c 01F4      		brne .L751
 12537               	.LVL1107:
 12538               	.LM1217:
 12539 473e 0894      		sec
 12540 4740 E11C      		adc r14,__zero_reg__
 12541 4742 F11C      		adc r15,__zero_reg__
 12542               	.LM1218:
 12543 4744 F801      		movw r30,r16
 12544 4746 8191      		ld r24,Z+
 12545               	.LVL1108:
 12546 4748 8F01      		movw r16,r30
 12547 474a 8A30      		cpi r24,lo8(10)
 12548 474c 01F0      		breq .L751
 12549               	.LVL1109:
 12550               	.L750:
 12551               	.LM1219:
 12552 474e EC14      		cp r14,r12
 12553 4750 FD04      		cpc r15,r13
 12554 4752 04F0      		brlt .L752
 12555               	.LVL1110:
 12556               	.L751:
 12557               	.LM1220:
 12558 4754 F801      		movw r30,r16
 12559 4756 1082      		st Z,__zero_reg__
 12560               	.LM1221:
 12561 4758 EF28      		or r14,r15
 12562 475a 01F4      		brne .L753
 12563 475c AA24      		clr r10
 12564 475e BB24      		clr r11
 12565               	.LVL1111:
 12566               	.L753:
 12567               	.LM1222:
 12568 4760 C501      		movw r24,r10
 12569               	.LVL1112:
 12570               	/* epilogue start */
 12571 4762 0F90      		pop __tmp_reg__
 12572 4764 0F90      		pop __tmp_reg__
 12573 4766 CF91      		pop r28
 12574 4768 DF91      		pop r29
 12575 476a 1F91      		pop r17
 12576 476c 0F91      		pop r16
 12577               	.LVL1113:
 12578 476e FF90      		pop r15
 12579 4770 EF90      		pop r14
 12580               	.LVL1114:
 12581 4772 DF90      		pop r13
 12582 4774 CF90      		pop r12
 12583 4776 BF90      		pop r11
 12584 4778 AF90      		pop r10
 12585 477a 9F90      		pop r9
 12586 477c 8F90      		pop r8
 12587               	.LVL1115:
 12588 477e 7F90      		pop r7
 12589 4780 6F90      		pop r6
 12590 4782 0895      		ret
 12591               	.LFE94:
 12593               	.global	f_putc
 12595               	f_putc:
 12596               	.LFB95:
 12597               	.LM1223:
 12598               	.LVL1116:
 12599 4784 0F93      		push r16
 12600 4786 1F93      		push r17
 12601 4788 DF93      		push r29
 12602 478a CF93      		push r28
 12603 478c 00D0      		rcall .
 12604 478e CDB7      		in r28,__SP_L__
 12605 4790 DEB7      		in r29,__SP_H__
 12606               	/* prologue: function */
 12607               	/* frame size = 3 */
 12608 4792 8C01      		movw r16,r24
 12609               	.LM1224:
 12610 4794 6115      		cp r22,__zero_reg__
 12611 4796 7105      		cpc r23,__zero_reg__
 12612 4798 01F0      		breq .L756
 12613               	.LVL1117:
 12614               	.LM1225:
 12615 479a 8983      		std Y+1,r24
 12616               	.LVL1118:
 12617               	.LM1226:
 12618 479c CB01      		movw r24,r22
 12619 479e BE01      		movw r22,r28
 12620               	.LVL1119:
 12621 47a0 6F5F      		subi r22,lo8(-(1))
 12622 47a2 7F4F      		sbci r23,hi8(-(1))
 12623 47a4 41E0      		ldi r20,lo8(1)
 12624 47a6 50E0      		ldi r21,hi8(1)
 12625 47a8 9E01      		movw r18,r28
 12626 47aa 2E5F      		subi r18,lo8(-(2))
 12627 47ac 3F4F      		sbci r19,hi8(-(2))
 12628 47ae 0E94 0000 		call f_write
 12629               	.LM1227:
 12630 47b2 8A81      		ldd r24,Y+2
 12631 47b4 9B81      		ldd r25,Y+3
 12632               	.LVL1120:
 12633 47b6 892B      		or r24,r25
 12634 47b8 01F4      		brne .L756
 12635               	.LVL1121:
 12636 47ba 0FEF      		ldi r16,lo8(-1)
 12637 47bc 1FEF      		ldi r17,hi8(-1)
 12638               	.LVL1122:
 12639               	.L756:
 12640               	.LM1228:
 12641 47be C801      		movw r24,r16
 12642               	.LVL1123:
 12643               	/* epilogue start */
 12644 47c0 2396      		adiw r28,3
 12645 47c2 CDBF      		out __SP_L__,r28
 12646 47c4 DEBF      		out __SP_H__,r29
 12647 47c6 CF91      		pop r28
 12648 47c8 DF91      		pop r29
 12649 47ca 1F91      		pop r17
 12650 47cc 0F91      		pop r16
 12651 47ce 0895      		ret
 12652               	.LFE95:
 12654               	.global	f_puts
 12656               	f_puts:
 12657               	.LFB96:
 12658               	.LM1229:
 12659               	.LVL1124:
 12660 47d0 EF92      		push r14
 12661 47d2 FF92      		push r15
 12662 47d4 0F93      		push r16
 12663 47d6 1F93      		push r17
 12664 47d8 CF93      		push r28
 12665 47da DF93      		push r29
 12666               	/* prologue: function */
 12667               	/* frame size = 0 */
 12668 47dc 8C01      		movw r16,r24
 12669 47de 7B01      		movw r14,r22
 12670               	.LM1230:
 12671 47e0 C0E0      		ldi r28,lo8(0)
 12672 47e2 D0E0      		ldi r29,hi8(0)
 12673               	.LVL1125:
 12674 47e4 00C0      		rjmp .L759
 12675               	.LVL1126:
 12676               	.L762:
 12677               	.LM1231:
 12678 47e6 90E0      		ldi r25,lo8(0)
 12679 47e8 B701      		movw r22,r14
 12680 47ea 0E94 0000 		call f_putc
 12681 47ee 8F5F      		subi r24,lo8(-1)
 12682 47f0 9F4F      		sbci r25,hi8(-1)
 12683 47f2 01F4      		brne .L760
 12684 47f4 CFEF      		ldi r28,lo8(-1)
 12685 47f6 DFEF      		ldi r29,hi8(-1)
 12686 47f8 00C0      		rjmp .L761
 12687               	.L760:
 12688               	.LM1232:
 12689 47fa 0F5F      		subi r16,lo8(-(1))
 12690 47fc 1F4F      		sbci r17,hi8(-(1))
 12691 47fe 2196      		adiw r28,1
 12692               	.LVL1127:
 12693               	.L759:
 12694 4800 F801      		movw r30,r16
 12695 4802 8081      		ld r24,Z
 12696 4804 8823      		tst r24
 12697 4806 01F4      		brne .L762
 12698               	.L761:
 12699               	.LM1233:
 12700 4808 CE01      		movw r24,r28
 12701               	.LVL1128:
 12702               	/* epilogue start */
 12703 480a DF91      		pop r29
 12704 480c CF91      		pop r28
 12705 480e 1F91      		pop r17
 12706 4810 0F91      		pop r16
 12707               	.LVL1129:
 12708 4812 FF90      		pop r15
 12709 4814 EF90      		pop r14
 12710               	.LVL1130:
 12711 4816 0895      		ret
 12712               	.LFE96:
 12714               	.global	SD_Close
 12716               	SD_Close:
 12717               	.LFB100:
 12718               	.LM1234:
 12719               	/* prologue: function */
 12720               	/* frame size = 0 */
 12721               	.LM1235:
 12722 4818 80E0      		ldi r24,lo8(Log_File)
 12723 481a 90E0      		ldi r25,hi8(Log_File)
 12724 481c 0E94 0000 		call f_close
 12725               	/* epilogue start */
 12726               	.LM1236:
 12727 4820 0895      		ret
 12728               	.LFE100:
 12730               	.global	SD_Inserted
 12732               	SD_Inserted:
 12733               	.LFB101:
 12734               	.LM1237:
 12735               	/* prologue: function */
 12736               	/* frame size = 0 */
 12737               	.LM1238:
 12738 4822 8091 A806 		lds r24,1704
 12739 4826 90E0      		ldi r25,lo8(0)
 12740 4828 80FF      		sbrs r24,0
 12741 482a 91E0      		ldi r25,lo8(1)
 12742               	.L767:
 12743               	.LM1239:
 12744 482c 892F      		mov r24,r25
 12745               	/* epilogue start */
 12746 482e 0895      		ret
 12747               	.LFE101:
 12749               	.global	SD_WriteBuffer
 12751               	SD_WriteBuffer:
 12752               	.LFB106:
 12753               	.LM1240:
 12754               	.LVL1131:
 12755 4830 8F92      		push r8
 12756 4832 9F92      		push r9
 12757 4834 AF92      		push r10
 12758 4836 BF92      		push r11
 12759 4838 CF92      		push r12
 12760 483a DF92      		push r13
 12761 483c EF92      		push r14
 12762 483e FF92      		push r15
 12763 4840 0F93      		push r16
 12764 4842 1F93      		push r17
 12765 4844 DF93      		push r29
 12766 4846 CF93      		push r28
 12767 4848 0F92      		push __tmp_reg__
 12768 484a 0F92      		push __tmp_reg__
 12769 484c CDB7      		in r28,__SP_L__
 12770 484e DEB7      		in r29,__SP_H__
 12771               	/* prologue: function */
 12772               	/* frame size = 2 */
 12773 4850 4C01      		movw r8,r24
 12774 4852 5B01      		movw r10,r22
 12775               	.LM1241:
 12776 4854 80E0      		ldi r24,lo8(Log_File)
 12777 4856 90E0      		ldi r25,hi8(Log_File)
 12778               	.LVL1132:
 12779 4858 B401      		movw r22,r8
 12780               	.LVL1133:
 12781 485a A501      		movw r20,r10
 12782 485c 9E01      		movw r18,r28
 12783 485e 2F5F      		subi r18,lo8(-(1))
 12784 4860 3F4F      		sbci r19,hi8(-(1))
 12785 4862 0E94 0000 		call f_write
 12786 4866 CC24      		clr r12
 12787               	.LVL1134:
 12788 4868 00C0      		rjmp .L770
 12789               	.LVL1135:
 12790               	.L772:
 12791               	.LBB734:
 12792               	.LM1242:
 12793 486a 2091 0000 		lds r18,CRC
 12794 486e 3091 0000 		lds r19,(CRC)+1
 12795 4872 4091 0000 		lds r20,(CRC)+2
 12796 4876 5091 0000 		lds r21,(CRC)+3
 12797 487a E80D      		add r30,r8
 12798 487c F91D      		adc r31,r9
 12799 487e 8081      		ld r24,Z
 12800 4880 90E0      		ldi r25,lo8(0)
 12801 4882 A0E0      		ldi r26,lo8(0)
 12802 4884 B0E0      		ldi r27,hi8(0)
 12803 4886 8227      		eor r24,r18
 12804 4888 9327      		eor r25,r19
 12805 488a A427      		eor r26,r20
 12806 488c B527      		eor r27,r21
 12807 488e 8093 0000 		sts CRC,r24
 12808 4892 9093 0000 		sts (CRC)+1,r25
 12809 4896 A093 0000 		sts (CRC)+2,r26
 12810 489a B093 0000 		sts (CRC)+3,r27
 12811 489e DD24      		clr r13
 12812               	.L771:
 12813               	.LBB735:
 12814               	.LM1243:
 12815 48a0 E090 0000 		lds r14,CRC
 12816 48a4 F090 0000 		lds r15,(CRC)+1
 12817 48a8 0091 0000 		lds r16,(CRC)+2
 12818 48ac 1091 0000 		lds r17,(CRC)+3
 12819 48b0 6091 0000 		lds r22,CRC
 12820 48b4 7091 0000 		lds r23,(CRC)+1
 12821 48b8 8091 0000 		lds r24,(CRC)+2
 12822 48bc 9091 0000 		lds r25,(CRC)+3
 12823 48c0 6170      		andi r22,lo8(1)
 12824 48c2 7070      		andi r23,hi8(1)
 12825 48c4 8070      		andi r24,hlo8(1)
 12826 48c6 9070      		andi r25,hhi8(1)
 12827 48c8 20E2      		ldi r18,lo8(-306674912)
 12828 48ca 33E8      		ldi r19,hi8(-306674912)
 12829 48cc 48EB      		ldi r20,hlo8(-306674912)
 12830 48ce 5DEE      		ldi r21,hhi8(-306674912)
 12831 48d0 0E94 0000 		call __mulsi3
 12832 48d4 1695      		lsr r17
 12833 48d6 0795      		ror r16
 12834 48d8 F794      		ror r15
 12835 48da E794      		ror r14
 12836 48dc E626      		eor r14,r22
 12837 48de F726      		eor r15,r23
 12838 48e0 0827      		eor r16,r24
 12839 48e2 1927      		eor r17,r25
 12840 48e4 E092 0000 		sts CRC,r14
 12841 48e8 F092 0000 		sts (CRC)+1,r15
 12842 48ec 0093 0000 		sts (CRC)+2,r16
 12843 48f0 1093 0000 		sts (CRC)+3,r17
 12844               	.LM1244:
 12845 48f4 D394      		inc r13
 12846 48f6 88E0      		ldi r24,lo8(8)
 12847 48f8 D816      		cp r13,r24
 12848 48fa 01F4      		brne .L771
 12849               	.LBE735:
 12850               	.LM1245:
 12851 48fc C394      		inc r12
 12852               	.L770:
 12853 48fe EC2D      		mov r30,r12
 12854 4900 F0E0      		ldi r31,lo8(0)
 12855 4902 EA15      		cp r30,r10
 12856 4904 FB05      		cpc r31,r11
 12857 4906 00F4      		brsh .+2
 12858 4908 00C0      		rjmp .L772
 12859               	/* epilogue start */
 12860               	.LBE734:
 12861               	.LM1246:
 12862 490a 0F90      		pop __tmp_reg__
 12863 490c 0F90      		pop __tmp_reg__
 12864 490e CF91      		pop r28
 12865 4910 DF91      		pop r29
 12866 4912 1F91      		pop r17
 12867 4914 0F91      		pop r16
 12868 4916 FF90      		pop r15
 12869 4918 EF90      		pop r14
 12870 491a DF90      		pop r13
 12871               	.LVL1136:
 12872 491c CF90      		pop r12
 12873               	.LVL1137:
 12874 491e BF90      		pop r11
 12875 4920 AF90      		pop r10
 12876               	.LVL1138:
 12877 4922 9F90      		pop r9
 12878 4924 8F90      		pop r8
 12879               	.LVL1139:
 12880 4926 0895      		ret
 12881               	.LFE106:
 12883               	.global	SD_Write32
 12885               	SD_Write32:
 12886               	.LFB104:
 12887               	.LM1247:
 12888               	.LVL1140:
 12889               	/* prologue: function */
 12890               	/* frame size = 0 */
 12891               	.LM1248:
 12892 4928 6093 0000 		sts tmp32,r22
 12893               	.LM1249:
 12894 492c 272F      		mov r18,r23
 12895 492e 382F      		mov r19,r24
 12896 4930 492F      		mov r20,r25
 12897 4932 5527      		clr r21
 12898 4934 2093 0000 		sts tmp32+1,r18
 12899               	.LM1250:
 12900 4938 9C01      		movw r18,r24
 12901 493a 4427      		clr r20
 12902 493c 5527      		clr r21
 12903 493e 2093 0000 		sts tmp32+2,r18
 12904               	.LM1251:
 12905 4942 692F      		mov r22,r25
 12906 4944 7727      		clr r23
 12907 4946 8827      		clr r24
 12908 4948 9927      		clr r25
 12909               	.LVL1141:
 12910 494a 6093 0000 		sts tmp32+3,r22
 12911               	.LM1252:
 12912 494e 80E0      		ldi r24,lo8(tmp32)
 12913 4950 90E0      		ldi r25,hi8(tmp32)
 12914 4952 64E0      		ldi r22,lo8(4)
 12915 4954 70E0      		ldi r23,hi8(4)
 12916 4956 0E94 0000 		call SD_WriteBuffer
 12917               	/* epilogue start */
 12918               	.LM1253:
 12919 495a 0895      		ret
 12920               	.LFE104:
 12922               	.global	SD_Write16
 12924               	SD_Write16:
 12925               	.LFB103:
 12926               	.LM1254:
 12927               	.LVL1142:
 12928               	/* prologue: function */
 12929               	/* frame size = 0 */
 12930               	.LM1255:
 12931 495c 8093 0000 		sts tmp16,r24
 12932               	.LM1256:
 12933 4960 9093 0000 		sts tmp16+1,r25
 12934               	.LVL1143:
 12935               	.LM1257:
 12936 4964 80E0      		ldi r24,lo8(tmp16)
 12937 4966 90E0      		ldi r25,hi8(tmp16)
 12938               	.LVL1144:
 12939 4968 62E0      		ldi r22,lo8(2)
 12940 496a 70E0      		ldi r23,hi8(2)
 12941 496c 0E94 0000 		call SD_WriteBuffer
 12942               	.LVL1145:
 12943               	/* epilogue start */
 12944               	.LM1258:
 12945 4970 0895      		ret
 12946               	.LFE103:
 12948               	.global	SD_Write8
 12950               	SD_Write8:
 12951               	.LFB102:
 12952               	.LM1259:
 12953               	.LVL1146:
 12954               	/* prologue: function */
 12955               	/* frame size = 0 */
 12956               	.LM1260:
 12957 4972 8093 0000 		sts tmp8,r24
 12958               	.LM1261:
 12959 4976 80E0      		ldi r24,lo8(tmp8)
 12960 4978 90E0      		ldi r25,hi8(tmp8)
 12961               	.LVL1147:
 12962 497a 61E0      		ldi r22,lo8(1)
 12963 497c 70E0      		ldi r23,hi8(1)
 12964 497e 0E94 0000 		call SD_WriteBuffer
 12965               	/* epilogue start */
 12966               	.LM1262:
 12967 4982 0895      		ret
 12968               	.LFE102:
 12970               	.global	SD_ClearCRC
 12972               	SD_ClearCRC:
 12973               	.LFB107:
 12974               	.LM1263:
 12975               	/* prologue: function */
 12976               	/* frame size = 0 */
 12977               	.LM1264:
 12978 4984 8FEF      		ldi r24,lo8(-1)
 12979 4986 9FEF      		ldi r25,hi8(-1)
 12980 4988 AFEF      		ldi r26,hlo8(-1)
 12981 498a BFEF      		ldi r27,hhi8(-1)
 12982 498c 8093 0000 		sts CRC,r24
 12983 4990 9093 0000 		sts (CRC)+1,r25
 12984 4994 A093 0000 		sts (CRC)+2,r26
 12985 4998 B093 0000 		sts (CRC)+3,r27
 12986               	/* epilogue start */
 12987               	.LM1265:
 12988 499c 0895      		ret
 12989               	.LFE107:
 12991               	.global	SD_WriteCRC
 12993               	SD_WriteCRC:
 12994               	.LFB108:
 12995               	.LM1266:
 12996               	/* prologue: function */
 12997               	/* frame size = 0 */
 12998               	.LM1267:
 12999 499e 6091 0000 		lds r22,CRC
 13000 49a2 7091 0000 		lds r23,(CRC)+1
 13001 49a6 8091 0000 		lds r24,(CRC)+2
 13002 49aa 9091 0000 		lds r25,(CRC)+3
 13003 49ae 6095      		com r22
 13004 49b0 7095      		com r23
 13005 49b2 8095      		com r24
 13006 49b4 9095      		com r25
 13007 49b6 0E94 0000 		call SD_Write32
 13008               	/* epilogue start */
 13009               	.LM1268:
 13010 49ba 0895      		ret
 13011               	.LFE108:
 13013               	.global	SD_Timer_Init
 13015               	SD_Timer_Init:
 13016               	.LFB111:
 13017               	.LM1269:
 13018               	/* prologue: function */
 13019               	/* frame size = 0 */
 13020               	.LM1270:
 13021 49bc E0E0      		ldi r30,lo8(2560)
 13022 49be FAE0      		ldi r31,hi8(2560)
 13023 49c0 81E7      		ldi r24,lo8(625)
 13024 49c2 92E0      		ldi r25,hi8(625)
 13025 49c4 86A3      		std Z+38,r24
 13026 49c6 97A3      		std Z+39,r25
 13027               	.LM1271:
 13028 49c8 8081      		ld r24,Z
 13029 49ca 807F      		andi r24,lo8(-16)
 13030 49cc 8660      		ori r24,lo8(6)
 13031 49ce 8083      		st Z,r24
 13032               	.LM1272:
 13033 49d0 8681      		ldd r24,Z+6
 13034 49d2 8C7F      		andi r24,lo8(-4)
 13035 49d4 8260      		ori r24,lo8(2)
 13036 49d6 8683      		std Z+6,r24
 13037               	/* epilogue start */
 13038               	.LM1273:
 13039 49d8 0895      		ret
 13040               	.LFE111:
 13042               	.global	SD_Init
 13044               	SD_Init:
 13045               	.LFB98:
 13046               	.LM1274:
 13047               	/* prologue: function */
 13048               	/* frame size = 0 */
 13049               	.LM1275:
 13050 49da 88E1      		ldi r24,lo8(24)
 13051 49dc E0EA      		ldi r30,lo8(1696)
 13052 49de F6E0      		ldi r31,hi8(1696)
 13053 49e0 808B      		std Z+16,r24
 13054               	.LM1276:
 13055 49e2 0E94 0000 		call SD_Timer_Init
 13056               	.LM1277:
 13057 49e6 80E0      		ldi r24,lo8(0)
 13058 49e8 0E94 0000 		call disk_initialize
 13059               	.LM1278:
 13060 49ec 80E0      		ldi r24,lo8(0)
 13061 49ee 60E0      		ldi r22,lo8(file_system_object)
 13062 49f0 70E0      		ldi r23,hi8(file_system_object)
 13063 49f2 0E94 0000 		call f_mount
 13064               	/* epilogue start */
 13065               	.LM1279:
 13066 49f6 0895      		ret
 13067               	.LFE98:
 13069               	.global	__vector_47
 13071               	__vector_47:
 13072               	.LFB112:
 13073               	.LM1280:
 13074 49f8 1F92      		push __zero_reg__
 13075 49fa 0F92      		push r0
 13076 49fc 0FB6      		in r0,__SREG__
 13077 49fe 0F92      		push r0
 13078 4a00 0BB6      		in r0,59-0
 13079 4a02 0F92      		push r0
 13080 4a04 1124      		clr __zero_reg__
 13081 4a06 2F93      		push r18
 13082 4a08 3F93      		push r19
 13083 4a0a 4F93      		push r20
 13084 4a0c 5F93      		push r21
 13085 4a0e 6F93      		push r22
 13086 4a10 7F93      		push r23
 13087 4a12 8F93      		push r24
 13088 4a14 9F93      		push r25
 13089 4a16 AF93      		push r26
 13090 4a18 BF93      		push r27
 13091 4a1a EF93      		push r30
 13092 4a1c FF93      		push r31
 13093               	/* prologue: Signal */
 13094               	/* frame size = 0 */
 13095               	.LM1281:
 13096 4a1e 0E94 0000 		call disk_timerproc
 13097               	/* epilogue start */
 13098               	.LM1282:
 13099 4a22 FF91      		pop r31
 13100 4a24 EF91      		pop r30
 13101 4a26 BF91      		pop r27
 13102 4a28 AF91      		pop r26
 13103 4a2a 9F91      		pop r25
 13104 4a2c 8F91      		pop r24
 13105 4a2e 7F91      		pop r23
 13106 4a30 6F91      		pop r22
 13107 4a32 5F91      		pop r21
 13108 4a34 4F91      		pop r20
 13109 4a36 3F91      		pop r19
 13110 4a38 2F91      		pop r18
 13111 4a3a 0F90      		pop r0
 13112 4a3c 0BBE      		out 59-0,r0
 13113 4a3e 0F90      		pop r0
 13114 4a40 0FBE      		out __SREG__,r0
 13115 4a42 0F90      		pop r0
 13116 4a44 1F90      		pop __zero_reg__
 13117 4a46 1895      		reti
 13118               	.LFE112:
 13120               	.global	CCPWrite
 13122               	CCPWrite:
 13123               	.LFB113:
 13124               	.LM1283:
 13125               	.LVL1148:
 13126 4a48 0F93      		push r16
 13127 4a4a DF93      		push r29
 13128 4a4c CF93      		push r28
 13129 4a4e 0F92      		push __tmp_reg__
 13130 4a50 CDB7      		in r28,__SP_L__
 13131 4a52 DEB7      		in r29,__SP_H__
 13132               	/* prologue: function */
 13133               	/* frame size = 1 */
 13134               	.LM1284:
 13135 4a54 2FB7      		in r18,__SREG__
 13136               	.LVL1149:
 13137 4a56 2983      		std Y+1,r18
 13138               	.LM1285:
 13139               	/* #APP */
 13140               	 ;  214 "sd.c" 1
 13141 4a58 F894      		cli
 13142               	 ;  0 "" 2
 13143               	.LM1286:
 13144               	/* #NOAPP */
 13145 4a5a 1BBE      		out 59-0,__zero_reg__
 13146               	.LM1287:
 13147               	/* #APP */
 13148               	 ;  236 "sd.c" 1
 13149 4a5c FC01      		movw r30,  r24
 13150 4a5e 08ED      		ldi  r16,  216
 13151 4a60 04BF      		out   52, r16
 13152 4a62 6083      		st     Z,  r22
 13153               		
 13154               	 ;  0 "" 2
 13155               	.LM1288:
 13156               	/* #NOAPP */
 13157 4a64 8981      		ldd r24,Y+1
 13158               	.LVL1150:
 13159 4a66 8FBF      		out __SREG__,r24
 13160               	/* epilogue start */
 13161               	.LM1289:
 13162 4a68 0F90      		pop __tmp_reg__
 13163 4a6a CF91      		pop r28
 13164 4a6c DF91      		pop r29
 13165 4a6e 0F91      		pop r16
 13166 4a70 0895      		ret
 13167               	.LFE113:
 13169               	.global	display_sendCommand
 13171               	display_sendCommand:
 13172               	.LFB115:
 13173               	.LM1290:
 13174               	.LVL1151:
 13175               	/* prologue: function */
 13176               	/* frame size = 0 */
 13177               	.LM1291:
 13178 4a72 94E0      		ldi r25,lo8(4)
 13179 4a74 E0E2      		ldi r30,lo8(1568)
 13180 4a76 F6E0      		ldi r31,hi8(1568)
 13181 4a78 9683      		std Z+6,r25
 13182               	.LM1292:
 13183 4a7a E0EC      		ldi r30,lo8(2240)
 13184 4a7c F8E0      		ldi r31,hi8(2240)
 13185 4a7e 8383      		std Z+3,r24
 13186               	.L794:
 13187               	.LM1293:
 13188 4a80 8091 C208 		lds r24,2242
 13189               	.LVL1152:
 13190 4a84 87FF      		sbrs r24,7
 13191 4a86 00C0      		rjmp .L794
 13192               	/* epilogue start */
 13193               	.LM1294:
 13194 4a88 0895      		ret
 13195               	.LFE115:
 13197               	.global	display_sendData
 13199               	display_sendData:
 13200               	.LFB116:
 13201               	.LM1295:
 13202               	.LVL1153:
 13203               	/* prologue: function */
 13204               	/* frame size = 0 */
 13205               	.LM1296:
 13206 4a8a 94E0      		ldi r25,lo8(4)
 13207 4a8c E0E2      		ldi r30,lo8(1568)
 13208 4a8e F6E0      		ldi r31,hi8(1568)
 13209 4a90 9583      		std Z+5,r25
 13210               	.LM1297:
 13211 4a92 E0EC      		ldi r30,lo8(2240)
 13212 4a94 F8E0      		ldi r31,hi8(2240)
 13213 4a96 8383      		std Z+3,r24
 13214               	.L798:
 13215               	.LM1298:
 13216 4a98 8091 C208 		lds r24,2242
 13217               	.LVL1154:
 13218 4a9c 87FF      		sbrs r24,7
 13219 4a9e 00C0      		rjmp .L798
 13220               	/* epilogue start */
 13221               	.LM1299:
 13222 4aa0 0895      		ret
 13223               	.LFE116:
 13225               	.global	display_setCursor
 13227               	display_setCursor:
 13228               	.LFB117:
 13229               	.LM1300:
 13230               	.LVL1155:
 13231               	/* prologue: function */
 13232               	/* frame size = 0 */
 13233               	.LM1301:
 13234 4aa2 806B      		ori r24,lo8(-80)
 13235               	.LVL1156:
 13236               	.LBB736:
 13237               	.LBB737:
 13238               	.LM1302:
 13239 4aa4 94E0      		ldi r25,lo8(4)
 13240 4aa6 E0E2      		ldi r30,lo8(1568)
 13241 4aa8 F6E0      		ldi r31,hi8(1568)
 13242 4aaa 9683      		std Z+6,r25
 13243               	.LM1303:
 13244 4aac E0EC      		ldi r30,lo8(2240)
 13245 4aae F8E0      		ldi r31,hi8(2240)
 13246 4ab0 8383      		std Z+3,r24
 13247               	.L802:
 13248               	.LM1304:
 13249 4ab2 8091 C208 		lds r24,2242
 13250 4ab6 87FF      		sbrs r24,7
 13251 4ab8 00C0      		rjmp .L802
 13252               	.LBE737:
 13253               	.LBE736:
 13254               	.LM1305:
 13255 4aba 962F      		mov r25,r22
 13256 4abc 9F70      		andi r25,lo8(15)
 13257               	.LBB738:
 13258               	.LBB739:
 13259               	.LM1306:
 13260 4abe 84E0      		ldi r24,lo8(4)
 13261 4ac0 E0E2      		ldi r30,lo8(1568)
 13262 4ac2 F6E0      		ldi r31,hi8(1568)
 13263 4ac4 8683      		std Z+6,r24
 13264               	.LM1307:
 13265 4ac6 E0EC      		ldi r30,lo8(2240)
 13266 4ac8 F8E0      		ldi r31,hi8(2240)
 13267 4aca 9383      		std Z+3,r25
 13268               	.L803:
 13269               	.LM1308:
 13270 4acc 8091 C208 		lds r24,2242
 13271 4ad0 87FF      		sbrs r24,7
 13272 4ad2 00C0      		rjmp .L803
 13273               	.LBE739:
 13274               	.LBE738:
 13275               	.LM1309:
 13276 4ad4 6295      		swap r22
 13277               	.LVL1157:
 13278 4ad6 6F70      		andi r22,lo8(15)
 13279 4ad8 6061      		ori r22,lo8(16)
 13280               	.LBB740:
 13281               	.LBB741:
 13282               	.LM1310:
 13283 4ada 84E0      		ldi r24,lo8(4)
 13284 4adc E0E2      		ldi r30,lo8(1568)
 13285 4ade F6E0      		ldi r31,hi8(1568)
 13286 4ae0 8683      		std Z+6,r24
 13287               	.LM1311:
 13288 4ae2 E0EC      		ldi r30,lo8(2240)
 13289 4ae4 F8E0      		ldi r31,hi8(2240)
 13290 4ae6 6383      		std Z+3,r22
 13291               	.L804:
 13292               	.LM1312:
 13293 4ae8 8091 C208 		lds r24,2242
 13294 4aec 87FF      		sbrs r24,7
 13295 4aee 00C0      		rjmp .L804
 13296               	/* epilogue start */
 13297               	.LBE741:
 13298               	.LBE740:
 13299               	.LM1313:
 13300 4af0 0895      		ret
 13301               	.LFE117:
 13303               	.global	display_writeBufferToScreen
 13305               	display_writeBufferToScreen:
 13306               	.LFB118:
 13307               	.LM1314:
 13308 4af2 BF92      		push r11
 13309 4af4 CF92      		push r12
 13310 4af6 DF92      		push r13
 13311 4af8 EF92      		push r14
 13312 4afa FF92      		push r15
 13313 4afc 0F93      		push r16
 13314 4afe 1F93      		push r17
 13315 4b00 CF93      		push r28
 13316 4b02 DF93      		push r29
 13317               	/* prologue: function */
 13318               	/* frame size = 0 */
 13319               	.LM1315:
 13320 4b04 C0E0      		ldi r28,lo8(0)
 13321 4b06 D0E0      		ldi r29,hi8(0)
 13322               	.LM1316:
 13323 4b08 76E6      		ldi r23,lo8(102)
 13324 4b0a C72E      		mov r12,r23
 13325 4b0c D12C      		mov r13,__zero_reg__
 13326               	.LBB742:
 13327               	.LBB743:
 13328               	.LM1317:
 13329 4b0e 60E2      		ldi r22,lo8(1568)
 13330 4b10 E62E      		mov r14,r22
 13331 4b12 66E0      		ldi r22,hi8(1568)
 13332 4b14 F62E      		mov r15,r22
 13333 4b16 54E0      		ldi r21,lo8(4)
 13334 4b18 B52E      		mov r11,r21
 13335               	.LM1318:
 13336 4b1a 00EC      		ldi r16,lo8(2240)
 13337 4b1c 18E0      		ldi r17,hi8(2240)
 13338               	.L812:
 13339               	.LBE743:
 13340               	.LBE742:
 13341               	.LM1319:
 13342 4b1e 8C2F      		mov r24,r28
 13343 4b20 60E0      		ldi r22,lo8(0)
 13344 4b22 0E94 0000 		call display_setCursor
 13345 4b26 20E0      		ldi r18,lo8(0)
 13346 4b28 30E0      		ldi r19,hi8(0)
 13347               	.LM1320:
 13348 4b2a CC9D      		mul r28,r12
 13349 4b2c A001      		movw r20,r0
 13350 4b2e CD9D      		mul r28,r13
 13351 4b30 500D      		add r21,r0
 13352 4b32 DC9D      		mul r29,r12
 13353 4b34 500D      		add r21,r0
 13354 4b36 1124      		clr r1
 13355               	.L811:
 13356 4b38 FA01      		movw r30,r20
 13357 4b3a E20F      		add r30,r18
 13358 4b3c F31F      		adc r31,r19
 13359 4b3e E050      		subi r30,lo8(-(displayBuffer))
 13360 4b40 F040      		sbci r31,hi8(-(displayBuffer))
 13361 4b42 8081      		ld r24,Z
 13362               	.LBB745:
 13363               	.LBB744:
 13364               	.LM1321:
 13365 4b44 F701      		movw r30,r14
 13366 4b46 B582      		std Z+5,r11
 13367               	.LM1322:
 13368 4b48 F801      		movw r30,r16
 13369 4b4a 8383      		std Z+3,r24
 13370               	.L810:
 13371               	.LM1323:
 13372 4b4c 8091 C208 		lds r24,2242
 13373 4b50 87FF      		sbrs r24,7
 13374 4b52 00C0      		rjmp .L810
 13375 4b54 2F5F      		subi r18,lo8(-(1))
 13376 4b56 3F4F      		sbci r19,hi8(-(1))
 13377               	.LBE744:
 13378               	.LBE745:
 13379               	.LM1324:
 13380 4b58 2636      		cpi r18,102
 13381 4b5a 3105      		cpc r19,__zero_reg__
 13382 4b5c 01F4      		brne .L811
 13383 4b5e 2196      		adiw r28,1
 13384               	.LM1325:
 13385 4b60 C830      		cpi r28,8
 13386 4b62 D105      		cpc r29,__zero_reg__
 13387 4b64 01F4      		brne .L812
 13388               	/* epilogue start */
 13389               	.LM1326:
 13390 4b66 DF91      		pop r29
 13391 4b68 CF91      		pop r28
 13392 4b6a 1F91      		pop r17
 13393 4b6c 0F91      		pop r16
 13394 4b6e FF90      		pop r15
 13395 4b70 EF90      		pop r14
 13396 4b72 DF90      		pop r13
 13397 4b74 CF90      		pop r12
 13398 4b76 BF90      		pop r11
 13399 4b78 0895      		ret
 13400               	.LFE118:
 13402               	.global	display_clearPage
 13404               	display_clearPage:
 13405               	.LFB119:
 13406               	.LM1327:
 13407               	.LVL1158:
 13408               	/* prologue: function */
 13409               	/* frame size = 0 */
 13410               	.LM1328:
 13411 4b7a 40E0      		ldi r20,lo8(0)
 13412 4b7c 50E0      		ldi r21,hi8(0)
 13413               	.LM1329:
 13414 4b7e 90E0      		ldi r25,lo8(0)
 13415 4b80 26E6      		ldi r18,lo8(102)
 13416 4b82 30E0      		ldi r19,hi8(102)
 13417 4b84 829F      		mul r24,r18
 13418 4b86 B001      		movw r22,r0
 13419 4b88 839F      		mul r24,r19
 13420 4b8a 700D      		add r23,r0
 13421 4b8c 929F      		mul r25,r18
 13422 4b8e 700D      		add r23,r0
 13423 4b90 1124      		clr r1
 13424               	.LVL1159:
 13425 4b92 8AE0      		ldi r24,lo8(10)
 13426               	.L818:
 13427 4b94 FB01      		movw r30,r22
 13428 4b96 E40F      		add r30,r20
 13429 4b98 F51F      		adc r31,r21
 13430 4b9a E050      		subi r30,lo8(-(displayBuffer))
 13431 4b9c F040      		sbci r31,hi8(-(displayBuffer))
 13432 4b9e 8083      		st Z,r24
 13433 4ba0 4F5F      		subi r20,lo8(-(1))
 13434 4ba2 5F4F      		sbci r21,hi8(-(1))
 13435 4ba4 4636      		cpi r20,102
 13436 4ba6 5105      		cpc r21,__zero_reg__
 13437 4ba8 01F4      		brne .L818
 13438               	/* epilogue start */
 13439               	.LM1330:
 13440 4baa 0895      		ret
 13441               	.LFE119:
 13443               	.global	display_clearBuffer
 13445               	display_clearBuffer:
 13446               	.LFB120:
 13447               	.LM1331:
 13448               	/* prologue: function */
 13449               	/* frame size = 0 */
 13450               	.LM1332:
 13451 4bac 20E0      		ldi r18,lo8(0)
 13452 4bae 30E0      		ldi r19,hi8(0)
 13453               	.LM1333:
 13454 4bb0 66E6      		ldi r22,lo8(102)
 13455 4bb2 70E0      		ldi r23,hi8(102)
 13456 4bb4 00C0      		rjmp .L822
 13457               	.L823:
 13458 4bb6 FA01      		movw r30,r20
 13459 4bb8 E80F      		add r30,r24
 13460 4bba F91F      		adc r31,r25
 13461 4bbc E050      		subi r30,lo8(-(displayBuffer))
 13462 4bbe F040      		sbci r31,hi8(-(displayBuffer))
 13463 4bc0 1082      		st Z,__zero_reg__
 13464 4bc2 0196      		adiw r24,1
 13465               	.LM1334:
 13466 4bc4 8636      		cpi r24,102
 13467 4bc6 9105      		cpc r25,__zero_reg__
 13468 4bc8 01F4      		brne .L823
 13469 4bca 2F5F      		subi r18,lo8(-(1))
 13470 4bcc 3F4F      		sbci r19,hi8(-(1))
 13471               	.LM1335:
 13472 4bce 2830      		cpi r18,8
 13473 4bd0 3105      		cpc r19,__zero_reg__
 13474 4bd2 01F0      		breq .L825
 13475               	.L822:
 13476 4bd4 80E0      		ldi r24,lo8(0)
 13477 4bd6 90E0      		ldi r25,hi8(0)
 13478               	.LM1336:
 13479 4bd8 269F      		mul r18,r22
 13480 4bda A001      		movw r20,r0
 13481 4bdc 279F      		mul r18,r23
 13482 4bde 500D      		add r21,r0
 13483 4be0 369F      		mul r19,r22
 13484 4be2 500D      		add r21,r0
 13485 4be4 1124      		clr r1
 13486 4be6 00C0      		rjmp .L823
 13487               	.L825:
 13488 4be8 0895      		ret
 13489               	.LFE120:
 13491               	.global	display_init
 13493               	display_init:
 13494               	.LFB114:
 13495               	.LM1337:
 13496               	/* prologue: function */
 13497               	/* frame size = 0 */
 13498               	.LM1338:
 13499 4bea E0E6      		ldi r30,lo8(1632)
 13500 4bec F6E0      		ldi r31,hi8(1632)
 13501 4bee 21E0      		ldi r18,lo8(1)
 13502 4bf0 2183      		std Z+1,r18
 13503               	.LM1339:
 13504 4bf2 2583      		std Z+5,r18
 13505               	.LBB746:
 13506               	.LBB747:
 13507               	.LBB748:
 13508               	.LBB749:
 13509               	.LM1340:
 13510 4bf4 80E4      		ldi r24,lo8(-25536)
 13511 4bf6 9CE9      		ldi r25,hi8(-25536)
 13512 4bf8 DC01      		movw r26,r24
 13513               	.LVL1160:
 13514               	/* #APP */
 13515               	 ;  105 "/usr/local/CrossPack-AVR-20100115/lib/gcc/avr/4.3.3/../../../../avr/include/util/delay_bas
 13516 4bfa 1197      		1: sbiw r26,1
 13517 4bfc 01F4      		brne 1b
 13518               	 ;  0 "" 2
 13519               	/* #NOAPP */
 13520               	.LBE749:
 13521               	.LBE748:
 13522               	.LBE747:
 13523               	.LBE746:
 13524               	.LM1341:
 13525 4bfe 2683      		std Z+6,r18
 13526               	.LBB750:
 13527               	.LBB751:
 13528               	.LBB752:
 13529               	.LBB753:
 13530               	.LM1342:
 13531 4c00 DC01      		movw r26,r24
 13532               	.LVL1161:
 13533               	/* #APP */
 13534               	 ;  105 "/usr/local/CrossPack-AVR-20100115/lib/gcc/avr/4.3.3/../../../../avr/include/util/delay_bas
 13535 4c02 1197      		1: sbiw r26,1
 13536 4c04 01F4      		brne 1b
 13537               	 ;  0 "" 2
 13538               	/* #NOAPP */
 13539               	.LBE753:
 13540               	.LBE752:
 13541               	.LBE751:
 13542               	.LBE750:
 13543               	.LM1343:
 13544 4c06 2583      		std Z+5,r18
 13545               	.LBB754:
 13546               	.LBB755:
 13547               	.LBB756:
 13548               	.LBB757:
 13549               	.LM1344:
 13550               	/* #APP */
 13551               	 ;  105 "/usr/local/CrossPack-AVR-20100115/lib/gcc/avr/4.3.3/../../../../avr/include/util/delay_bas
 13552 4c08 0197      		1: sbiw r24,1
 13553 4c0a 01F4      		brne 1b
 13554               	 ;  0 "" 2
 13555               	.LVL1162:
 13556               	/* #NOAPP */
 13557               	.LBE757:
 13558               	.LBE756:
 13559               	.LBE755:
 13560               	.LBE754:
 13561               	.LM1345:
 13562 4c0c 8EED      		ldi r24,lo8(-34)
 13563               	.LVL1163:
 13564 4c0e 8093 C008 		sts 2240,r24
 13565               	.LM1346:
 13566 4c12 E0E4      		ldi r30,lo8(1600)
 13567 4c14 F6E0      		ldi r31,hi8(1600)
 13568 4c16 80EB      		ldi r24,lo8(-80)
 13569 4c18 8183      		std Z+1,r24
 13570               	.LM1347:
 13571 4c1a A0E2      		ldi r26,lo8(1568)
 13572 4c1c B6E0      		ldi r27,hi8(1568)
 13573               	.LVL1164:
 13574 4c1e 94E0      		ldi r25,lo8(4)
 13575 4c20 1196      		adiw r26,1
 13576 4c22 9C93      		st X,r25
 13577 4c24 1197      		sbiw r26,1
 13578               	.LM1348:
 13579 4c26 88E3      		ldi r24,lo8(56)
 13580 4c28 848B      		std Z+20,r24
 13581               	.LM1349:
 13582 4c2a 80E1      		ldi r24,lo8(16)
 13583 4c2c 8683      		std Z+6,r24
 13584               	.LBB758:
 13585               	.LBB759:
 13586               	.LM1350:
 13587 4c2e 1696      		adiw r26,6
 13588 4c30 9C93      		st X,r25
 13589               	.LM1351:
 13590 4c32 80E4      		ldi r24,lo8(64)
 13591 4c34 E0EC      		ldi r30,lo8(2240)
 13592 4c36 F8E0      		ldi r31,hi8(2240)
 13593 4c38 8383      		std Z+3,r24
 13594               	.L828:
 13595               	.LM1352:
 13596 4c3a 8091 C208 		lds r24,2242
 13597 4c3e 87FF      		sbrs r24,7
 13598 4c40 00C0      		rjmp .L828
 13599               	.LBE759:
 13600               	.LBE758:
 13601               	.LBB760:
 13602               	.LBB761:
 13603               	.LM1353:
 13604 4c42 84E0      		ldi r24,lo8(4)
 13605 4c44 E0E2      		ldi r30,lo8(1568)
 13606 4c46 F6E0      		ldi r31,hi8(1568)
 13607 4c48 8683      		std Z+6,r24
 13608               	.LM1354:
 13609 4c4a 81EA      		ldi r24,lo8(-95)
 13610 4c4c E0EC      		ldi r30,lo8(2240)
 13611 4c4e F8E0      		ldi r31,hi8(2240)
 13612 4c50 8383      		std Z+3,r24
 13613               	.L829:
 13614               	.LM1355:
 13615 4c52 8091 C208 		lds r24,2242
 13616 4c56 87FF      		sbrs r24,7
 13617 4c58 00C0      		rjmp .L829
 13618               	.LBE761:
 13619               	.LBE760:
 13620               	.LBB762:
 13621               	.LBB763:
 13622               	.LM1356:
 13623 4c5a 84E0      		ldi r24,lo8(4)
 13624 4c5c E0E2      		ldi r30,lo8(1568)
 13625 4c5e F6E0      		ldi r31,hi8(1568)
 13626 4c60 8683      		std Z+6,r24
 13627               	.LM1357:
 13628 4c62 80EC      		ldi r24,lo8(-64)
 13629 4c64 E0EC      		ldi r30,lo8(2240)
 13630 4c66 F8E0      		ldi r31,hi8(2240)
 13631 4c68 8383      		std Z+3,r24
 13632               	.L830:
 13633               	.LM1358:
 13634 4c6a 8091 C208 		lds r24,2242
 13635 4c6e 87FF      		sbrs r24,7
 13636 4c70 00C0      		rjmp .L830
 13637               	.LBE763:
 13638               	.LBE762:
 13639               	.LBB764:
 13640               	.LBB765:
 13641               	.LM1359:
 13642 4c72 84E0      		ldi r24,lo8(4)
 13643 4c74 E0E2      		ldi r30,lo8(1568)
 13644 4c76 F6E0      		ldi r31,hi8(1568)
 13645 4c78 8683      		std Z+6,r24
 13646               	.LM1360:
 13647 4c7a 84EA      		ldi r24,lo8(-92)
 13648 4c7c E0EC      		ldi r30,lo8(2240)
 13649 4c7e F8E0      		ldi r31,hi8(2240)
 13650 4c80 8383      		std Z+3,r24
 13651               	.L831:
 13652               	.LM1361:
 13653 4c82 8091 C208 		lds r24,2242
 13654 4c86 87FF      		sbrs r24,7
 13655 4c88 00C0      		rjmp .L831
 13656               	.LBE765:
 13657               	.LBE764:
 13658               	.LBB766:
 13659               	.LBB767:
 13660               	.LM1362:
 13661 4c8a 84E0      		ldi r24,lo8(4)
 13662 4c8c E0E2      		ldi r30,lo8(1568)
 13663 4c8e F6E0      		ldi r31,hi8(1568)
 13664 4c90 8683      		std Z+6,r24
 13665               	.LM1363:
 13666 4c92 86EA      		ldi r24,lo8(-90)
 13667 4c94 E0EC      		ldi r30,lo8(2240)
 13668 4c96 F8E0      		ldi r31,hi8(2240)
 13669 4c98 8383      		std Z+3,r24
 13670               	.L832:
 13671               	.LM1364:
 13672 4c9a 8091 C208 		lds r24,2242
 13673 4c9e 87FF      		sbrs r24,7
 13674 4ca0 00C0      		rjmp .L832
 13675               	.LBE767:
 13676               	.LBE766:
 13677               	.LBB768:
 13678               	.LBB769:
 13679               	.LM1365:
 13680 4ca2 84E0      		ldi r24,lo8(4)
 13681 4ca4 E0E2      		ldi r30,lo8(1568)
 13682 4ca6 F6E0      		ldi r31,hi8(1568)
 13683 4ca8 8683      		std Z+6,r24
 13684               	.LM1366:
 13685 4caa 8FE2      		ldi r24,lo8(47)
 13686 4cac E0EC      		ldi r30,lo8(2240)
 13687 4cae F8E0      		ldi r31,hi8(2240)
 13688 4cb0 8383      		std Z+3,r24
 13689               	.L833:
 13690               	.LM1367:
 13691 4cb2 8091 C208 		lds r24,2242
 13692 4cb6 87FF      		sbrs r24,7
 13693 4cb8 00C0      		rjmp .L833
 13694               	.LBE769:
 13695               	.LBE768:
 13696               	.LBB770:
 13697               	.LBB771:
 13698               	.LM1368:
 13699 4cba 84E0      		ldi r24,lo8(4)
 13700 4cbc E0E2      		ldi r30,lo8(1568)
 13701 4cbe F6E0      		ldi r31,hi8(1568)
 13702 4cc0 8683      		std Z+6,r24
 13703               	.LM1369:
 13704 4cc2 87E2      		ldi r24,lo8(39)
 13705 4cc4 E0EC      		ldi r30,lo8(2240)
 13706 4cc6 F8E0      		ldi r31,hi8(2240)
 13707 4cc8 8383      		std Z+3,r24
 13708               	.L834:
 13709               	.LM1370:
 13710 4cca 8091 C208 		lds r24,2242
 13711 4cce 87FF      		sbrs r24,7
 13712 4cd0 00C0      		rjmp .L834
 13713               	.LBE771:
 13714               	.LBE770:
 13715               	.LBB772:
 13716               	.LBB773:
 13717               	.LM1371:
 13718 4cd2 84E0      		ldi r24,lo8(4)
 13719 4cd4 E0E2      		ldi r30,lo8(1568)
 13720 4cd6 F6E0      		ldi r31,hi8(1568)
 13721 4cd8 8683      		std Z+6,r24
 13722               	.LM1372:
 13723 4cda 8AEF      		ldi r24,lo8(-6)
 13724 4cdc E0EC      		ldi r30,lo8(2240)
 13725 4cde F8E0      		ldi r31,hi8(2240)
 13726 4ce0 8383      		std Z+3,r24
 13727               	.L835:
 13728               	.LM1373:
 13729 4ce2 8091 C208 		lds r24,2242
 13730 4ce6 87FF      		sbrs r24,7
 13731 4ce8 00C0      		rjmp .L835
 13732               	.LBE773:
 13733               	.LBE772:
 13734               	.LBB774:
 13735               	.LBB775:
 13736               	.LM1374:
 13737 4cea 84E0      		ldi r24,lo8(4)
 13738 4cec E0E2      		ldi r30,lo8(1568)
 13739 4cee F6E0      		ldi r31,hi8(1568)
 13740 4cf0 8683      		std Z+6,r24
 13741               	.LM1375:
 13742 4cf2 80E9      		ldi r24,lo8(-112)
 13743 4cf4 E0EC      		ldi r30,lo8(2240)
 13744 4cf6 F8E0      		ldi r31,hi8(2240)
 13745 4cf8 8383      		std Z+3,r24
 13746               	.L836:
 13747               	.LM1376:
 13748 4cfa 8091 C208 		lds r24,2242
 13749 4cfe 87FF      		sbrs r24,7
 13750 4d00 00C0      		rjmp .L836
 13751               	.LBE775:
 13752               	.LBE774:
 13753               	.LBB776:
 13754               	.LBB777:
 13755               	.LM1377:
 13756 4d02 84E0      		ldi r24,lo8(4)
 13757 4d04 E0E2      		ldi r30,lo8(1568)
 13758 4d06 F6E0      		ldi r31,hi8(1568)
 13759 4d08 8683      		std Z+6,r24
 13760               	.LM1378:
 13761 4d0a 80E4      		ldi r24,lo8(64)
 13762 4d0c E0EC      		ldi r30,lo8(2240)
 13763 4d0e F8E0      		ldi r31,hi8(2240)
 13764 4d10 8383      		std Z+3,r24
 13765               	.L837:
 13766               	.LM1379:
 13767 4d12 8091 C208 		lds r24,2242
 13768 4d16 87FF      		sbrs r24,7
 13769 4d18 00C0      		rjmp .L837
 13770 4d1a 8CED      		ldi r24,lo8(1500)
 13771 4d1c 95E0      		ldi r25,hi8(1500)
 13772               	.LVL1165:
 13773               	.LBE777:
 13774               	.LBE776:
 13775               	.LBB778:
 13776               	.LBB779:
 13777               	.LBB780:
 13778               	.LBB781:
 13779               	.LM1380:
 13780 4d1e 20E9      		ldi r18,lo8(400)
 13781 4d20 31E0      		ldi r19,hi8(400)
 13782               	.L838:
 13783 4d22 F901      		movw r30,r18
 13784               	.LVL1166:
 13785               	/* #APP */
 13786               	 ;  105 "/usr/local/CrossPack-AVR-20100115/lib/gcc/avr/4.3.3/../../../../avr/include/util/delay_bas
 13787 4d24 3197      		1: sbiw r30,1
 13788 4d26 01F4      		brne 1b
 13789               	 ;  0 "" 2
 13790               	/* #NOAPP */
 13791               	.LBE781:
 13792               	.LBE780:
 13793               	.LM1381:
 13794 4d28 0197      		sbiw r24,1
 13795               	.LM1382:
 13796 4d2a 01F4      		brne .L838
 13797               	.LBE779:
 13798               	.LBE778:
 13799               	.LBB782:
 13800               	.LBB783:
 13801               	.LM1383:
 13802 4d2c 84E0      		ldi r24,lo8(4)
 13803               	.LVL1167:
 13804 4d2e E0E2      		ldi r30,lo8(1568)
 13805 4d30 F6E0      		ldi r31,hi8(1568)
 13806               	.LVL1168:
 13807 4d32 8683      		std Z+6,r24
 13808               	.LM1384:
 13809 4d34 82EA      		ldi r24,lo8(-94)
 13810 4d36 E0EC      		ldi r30,lo8(2240)
 13811 4d38 F8E0      		ldi r31,hi8(2240)
 13812 4d3a 8383      		std Z+3,r24
 13813               	.L839:
 13814               	.LM1385:
 13815 4d3c 8091 C208 		lds r24,2242
 13816 4d40 87FF      		sbrs r24,7
 13817 4d42 00C0      		rjmp .L839
 13818               	.LBE783:
 13819               	.LBE782:
 13820               	.LBB784:
 13821               	.LBB785:
 13822               	.LM1386:
 13823 4d44 84E0      		ldi r24,lo8(4)
 13824 4d46 E0E2      		ldi r30,lo8(1568)
 13825 4d48 F6E0      		ldi r31,hi8(1568)
 13826 4d4a 8683      		std Z+6,r24
 13827               	.LM1387:
 13828 4d4c 81E8      		ldi r24,lo8(-127)
 13829 4d4e E0EC      		ldi r30,lo8(2240)
 13830 4d50 F8E0      		ldi r31,hi8(2240)
 13831 4d52 8383      		std Z+3,r24
 13832               	.L840:
 13833               	.LM1388:
 13834 4d54 8091 C208 		lds r24,2242
 13835 4d58 87FF      		sbrs r24,7
 13836 4d5a 00C0      		rjmp .L840
 13837               	.LBE785:
 13838               	.LBE784:
 13839               	.LBB786:
 13840               	.LBB787:
 13841               	.LM1389:
 13842 4d5c 84E0      		ldi r24,lo8(4)
 13843 4d5e E0E2      		ldi r30,lo8(1568)
 13844 4d60 F6E0      		ldi r31,hi8(1568)
 13845 4d62 8683      		std Z+6,r24
 13846               	.LM1390:
 13847 4d64 88E0      		ldi r24,lo8(8)
 13848 4d66 E0EC      		ldi r30,lo8(2240)
 13849 4d68 F8E0      		ldi r31,hi8(2240)
 13850 4d6a 8383      		std Z+3,r24
 13851               	.L841:
 13852               	.LM1391:
 13853 4d6c 8091 C208 		lds r24,2242
 13854 4d70 87FF      		sbrs r24,7
 13855 4d72 00C0      		rjmp .L841
 13856               	.LBE787:
 13857               	.LBE786:
 13858               	.LBB788:
 13859               	.LBB789:
 13860               	.LM1392:
 13861 4d74 84E0      		ldi r24,lo8(4)
 13862 4d76 E0E2      		ldi r30,lo8(1568)
 13863 4d78 F6E0      		ldi r31,hi8(1568)
 13864 4d7a 8683      		std Z+6,r24
 13865               	.LM1393:
 13866 4d7c 8FEA      		ldi r24,lo8(-81)
 13867 4d7e E0EC      		ldi r30,lo8(2240)
 13868 4d80 F8E0      		ldi r31,hi8(2240)
 13869 4d82 8383      		std Z+3,r24
 13870               	.L842:
 13871               	.LM1394:
 13872 4d84 8091 C208 		lds r24,2242
 13873 4d88 87FF      		sbrs r24,7
 13874 4d8a 00C0      		rjmp .L842
 13875               	.LBE789:
 13876               	.LBE788:
 13877               	.LM1395:
 13878 4d8c 0E94 0000 		call display_clearBuffer
 13879               	.LM1396:
 13880 4d90 0E94 0000 		call display_writeBufferToScreen
 13881               	/* epilogue start */
 13882               	.LM1397:
 13883 4d94 0895      		ret
 13884               	.LFE114:
 13886               	.global	display_putString
 13888               	display_putString:
 13889               	.LFB121:
 13890               	.LM1398:
 13891               	.LVL1169:
 13892 4d96 2F92      		push r2
 13893 4d98 3F92      		push r3
 13894 4d9a 4F92      		push r4
 13895 4d9c 5F92      		push r5
 13896 4d9e 6F92      		push r6
 13897 4da0 7F92      		push r7
 13898 4da2 8F92      		push r8
 13899 4da4 9F92      		push r9
 13900 4da6 AF92      		push r10
 13901 4da8 BF92      		push r11
 13902 4daa CF92      		push r12
 13903 4dac DF92      		push r13
 13904 4dae EF92      		push r14
 13905 4db0 FF92      		push r15
 13906 4db2 0F93      		push r16
 13907 4db4 1F93      		push r17
 13908 4db6 DF93      		push r29
 13909 4db8 CF93      		push r28
 13910 4dba CDB7      		in r28,__SP_L__
 13911 4dbc DEB7      		in r29,__SP_H__
 13912 4dbe 2897      		sbiw r28,8
 13913 4dc0 CDBF      		out __SP_L__,r28
 13914 4dc2 DEBF      		out __SP_H__,r29
 13915               	/* prologue: function */
 13916               	/* frame size = 8 */
 13917 4dc4 1C01      		movw r2,r24
 13918 4dc6 4C83      		std Y+4,r20
 13919 4dc8 2F83      		std Y+7,r18
 13920 4dca 3887      		std Y+8,r19
 13921               	.LM1399:
 13922 4dcc D901      		movw r26,r18
 13923 4dce 1396      		adiw r26,3
 13924 4dd0 BC91      		ld r27,X
 13925 4dd2 BB83      		std Y+3,r27
 13926               	.LVL1170:
 13927               	.LM1400:
 13928 4dd4 F901      		movw r30,r18
 13929 4dd6 F481      		ldd r31,Z+4
 13930 4dd8 FA83      		std Y+2,r31
 13931               	.LVL1171:
 13932               	.LM1401:
 13933 4dda D901      		movw r26,r18
 13934 4ddc 1596      		adiw r26,5
 13935 4dde 2C91      		ld r18,X
 13936               	.LVL1172:
 13937               	.LM1402:
 13938 4de0 BB81      		ldd r27,Y+3
 13939 4de2 0B2F      		mov r16,r27
 13940 4de4 10E0      		ldi r17,lo8(0)
 13941 4de6 C801      		movw r24,r16
 13942               	.LVL1173:
 13943 4de8 0796      		adiw r24,7
 13944 4dea A3E0      		ldi r26,3
 13945 4dec 9595      	1:	asr r25
 13946 4dee 8795      		ror r24
 13947 4df0 AA95      		dec r26
 13948 4df2 01F4      		brne 1b
 13949 4df4 8983      		std Y+1,r24
 13950               	.LVL1174:
 13951 4df6 CC24      		clr r12
 13952               	.LVL1175:
 13953               	.LM1403:
 13954 4df8 E22E      		mov r14,r18
 13955 4dfa FF24      		clr r15
 13956 4dfc E6E0      		ldi r30,lo8(6)
 13957 4dfe F0E0      		ldi r31,hi8(6)
 13958 4e00 EE0E      		add r14,r30
 13959 4e02 FF1E      		adc r15,r31
 13960               	.LM1404:
 13961 4e04 462E      		mov r4,r22
 13962 4e06 5524      		clr r5
 13963               	.LVL1176:
 13964 4e08 00C0      		rjmp .L860
 13965               	.LVL1177:
 13966               	.L868:
 13967               	.LM1405:
 13968 4e0a 7E2F      		mov r23,r30
 13969               	.LVL1178:
 13970 4e0c FA81      		ldd r31,Y+2
 13971 4e0e 7F1B      		sub r23,r31
 13972               	.LM1406:
 13973 4e10 AF81      		ldd r26,Y+7
 13974 4e12 B885      		ldd r27,Y+8
 13975 4e14 8C91      		ld r24,X
 13976 4e16 8823      		tst r24
 13977 4e18 01F4      		brne .L861
 13978               	.LM1407:
 13979 4e1a 1296      		adiw r26,2
 13980 4e1c 4C91      		ld r20,X
 13981               	.LM1408:
 13982 4e1e 749F      		mul r23,r20
 13983 4e20 F001      		movw r30,r0
 13984 4e22 1124      		clr r1
 13985               	.LVL1179:
 13986 4e24 3696      		adiw r30,6
 13987 4e26 00C0      		rjmp .L862
 13988               	.LVL1180:
 13989               	.L861:
 13990               	.LM1409:
 13991 4e28 EF81      		ldd r30,Y+7
 13992 4e2a F885      		ldd r31,Y+8
 13993 4e2c E70F      		add r30,r23
 13994 4e2e F11D      		adc r31,__zero_reg__
 13995 4e30 4681      		ldd r20,Z+6
 13996 4e32 EF81      		ldd r30,Y+7
 13997 4e34 F885      		ldd r31,Y+8
 13998 4e36 ED83      		std Y+5,r30
 13999 4e38 FE83      		std Y+6,r31
 14000 4e3a 50E0      		ldi r21,lo8(0)
 14001               	.LVL1181:
 14002 4e3c A0E0      		ldi r26,lo8(0)
 14003 4e3e B0E0      		ldi r27,hi8(0)
 14004               	.LVL1182:
 14005 4e40 00C0      		rjmp .L863
 14006               	.L864:
 14007               	.LM1410:
 14008 4e42 ED81      		ldd r30,Y+5
 14009 4e44 FE81      		ldd r31,Y+6
 14010 4e46 8581      		ldd r24,Z+5
 14011 4e48 F981      		ldd r31,Y+1
 14012 4e4a F89F      		mul r31,r24
 14013 4e4c C001      		movw r24,r0
 14014 4e4e 1124      		clr r1
 14015 4e50 A80F      		add r26,r24
 14016 4e52 B91F      		adc r27,r25
 14017               	.LM1411:
 14018 4e54 5F5F      		subi r21,lo8(-(1))
 14019               	.L863:
 14020 4e56 8D81      		ldd r24,Y+5
 14021 4e58 9E81      		ldd r25,Y+6
 14022 4e5a 0196      		adiw r24,1
 14023 4e5c 8D83      		std Y+5,r24
 14024 4e5e 9E83      		std Y+6,r25
 14025 4e60 5717      		cp r21,r23
 14026 4e62 00F0      		brlo .L864
 14027               	.LM1412:
 14028 4e64 842F      		mov r24,r20
 14029 4e66 90E0      		ldi r25,lo8(0)
 14030               	.LVL1183:
 14031 4e68 829F      		mul r24,r18
 14032 4e6a F001      		movw r30,r0
 14033 4e6c 839F      		mul r24,r19
 14034 4e6e F00D      		add r31,r0
 14035 4e70 929F      		mul r25,r18
 14036 4e72 F00D      		add r31,r0
 14037 4e74 1124      		clr r1
 14038               	.LVL1184:
 14039 4e76 EE0D      		add r30,r14
 14040 4e78 FF1D      		adc r31,r15
 14041 4e7a EA0F      		add r30,r26
 14042 4e7c FB1F      		adc r31,r27
 14043               	.LVL1185:
 14044               	.L862:
 14045 4e7e AF81      		ldd r26,Y+7
 14046 4e80 B885      		ldd r27,Y+8
 14047 4e82 AE0F      		add r26,r30
 14048 4e84 BF1F      		adc r27,r31
 14049 4e86 50E0      		ldi r21,lo8(0)
 14050               	.LVL1186:
 14051 4e88 00C0      		rjmp .L865
 14052               	.LVL1187:
 14053               	.L867:
 14054               	.LM1413:
 14055 4e8a 8C91      		ld r24,X
 14056               	.LM1414:
 14057 4e8c 9B81      		ldd r25,Y+3
 14058               	.LVL1188:
 14059 4e8e 9930      		cpi r25,lo8(9)
 14060 4e90 00F0      		brlo .L866
 14061 4e92 0815      		cp r16,r8
 14062 4e94 1905      		cpc r17,r9
 14063 4e96 04F4      		brge .L866
 14064               	.LM1415:
 14065 4e98 90E0      		ldi r25,lo8(0)
 14066               	.LVL1189:
 14067 4e9a 062C      		mov r0,r6
 14068 4e9c 00C0      		rjmp 2f
 14069 4e9e 9595      	1:	asr r25
 14070 4ea0 8795      		ror r24
 14071 4ea2 0A94      	2:	dec r0
 14072 4ea4 02F4      		brpl 1b
 14073               	.LVL1190:
 14074               	.L866:
 14075               	.LM1416:
 14076 4ea6 F501      		movw r30,r10
 14077               	.LVL1191:
 14078 4ea8 E70F      		add r30,r23
 14079 4eaa F11D      		adc r31,__zero_reg__
 14080 4eac E050      		subi r30,lo8(-(displayBuffer))
 14081 4eae F040      		sbci r31,hi8(-(displayBuffer))
 14082 4eb0 8083      		st Z,r24
 14083               	.LM1417:
 14084 4eb2 5F5F      		subi r21,lo8(-(1))
 14085 4eb4 1196      		adiw r26,1
 14086               	.LVL1192:
 14087               	.L865:
 14088 4eb6 752F      		mov r23,r21
 14089               	.LVL1193:
 14090 4eb8 760F      		add r23,r22
 14091 4eba 5417      		cp r21,r20
 14092 4ebc 00F0      		brlo .L867
 14093 4ebe 842F      		mov r24,r20
 14094               	.LVL1194:
 14095 4ec0 860F      		add r24,r22
 14096               	.LM1418:
 14097 4ec2 F501      		movw r30,r10
 14098               	.LVL1195:
 14099 4ec4 E80F      		add r30,r24
 14100 4ec6 F11D      		adc r31,__zero_reg__
 14101 4ec8 E050      		subi r30,lo8(-(displayBuffer+1))
 14102 4eca F040      		sbci r31,hi8(-(displayBuffer+1))
 14103 4ecc 1082      		st Z,__zero_reg__
 14104               	.LM1419:
 14105 4ece 682F      		mov r22,r24
 14106 4ed0 6F5F      		subi r22,lo8(-(1))
 14107               	.LVL1196:
 14108               	.LM1420:
 14109 4ed2 D394      		inc r13
 14110               	.LVL1197:
 14111               	.L870:
 14112               	.LM1421:
 14113 4ed4 F101      		movw r30,r2
 14114 4ed6 ED0D      		add r30,r13
 14115 4ed8 F11D      		adc r31,__zero_reg__
 14116 4eda E081      		ld r30,Z
 14117 4edc EE23      		tst r30
 14118 4ede 01F0      		breq .+2
 14119 4ee0 00C0      		rjmp .L868
 14120               	.LM1422:
 14121 4ee2 C394      		inc r12
 14122               	.LVL1198:
 14123               	.L860:
 14124               	.LM1423:
 14125 4ee4 2C2D      		mov r18,r12
 14126               	.LVL1199:
 14127 4ee6 30E0      		ldi r19,lo8(0)
 14128 4ee8 C901      		movw r24,r18
 14129 4eea F3E0      		ldi r31,3
 14130 4eec 880F      	1:	lsl r24
 14131 4eee 991F      		rol r25
 14132 4ef0 FA95      		dec r31
 14133 4ef2 01F4      		brne 1b
 14134 4ef4 8017      		cp r24,r16
 14135 4ef6 9107      		cpc r25,r17
 14136 4ef8 04F4      		brge .L871
 14137               	.LM1424:
 14138 4efa 2F5F      		subi r18,lo8(-(1))
 14139 4efc 3F4F      		sbci r19,hi8(-(1))
 14140 4efe 4901      		movw r8,r18
 14141 4f00 E3E0      		ldi r30,3
 14142 4f02 880C      	1:	lsl r8
 14143 4f04 991C      		rol r9
 14144 4f06 EA95      		dec r30
 14145 4f08 01F4      		brne 1b
 14146 4f0a 2150      		subi r18,lo8(-(-1))
 14147 4f0c 3040      		sbci r19,hi8(-(-1))
 14148               	.LM1425:
 14149 4f0e 3401      		movw r6,r8
 14150 4f10 601A      		sub r6,r16
 14151 4f12 710A      		sbc r7,r17
 14152 4f14 6C81      		ldd r22,Y+4
 14153 4f16 DD24      		clr r13
 14154               	.LM1426:
 14155 4f18 C901      		movw r24,r18
 14156 4f1a 840D      		add r24,r4
 14157 4f1c 951D      		adc r25,r5
 14158 4f1e A6E6      		ldi r26,lo8(102)
 14159 4f20 B0E0      		ldi r27,hi8(102)
 14160 4f22 8A9F      		mul r24,r26
 14161 4f24 5001      		movw r10,r0
 14162 4f26 8B9F      		mul r24,r27
 14163 4f28 B00C      		add r11,r0
 14164 4f2a 9A9F      		mul r25,r26
 14165 4f2c B00C      		add r11,r0
 14166 4f2e 1124      		clr r1
 14167 4f30 00C0      		rjmp .L870
 14168               	.LVL1200:
 14169               	.L871:
 14170               	/* epilogue start */
 14171               	.LM1427:
 14172 4f32 2896      		adiw r28,8
 14173 4f34 CDBF      		out __SP_L__,r28
 14174 4f36 DEBF      		out __SP_H__,r29
 14175 4f38 CF91      		pop r28
 14176 4f3a DF91      		pop r29
 14177 4f3c 1F91      		pop r17
 14178 4f3e 0F91      		pop r16
 14179 4f40 FF90      		pop r15
 14180 4f42 EF90      		pop r14
 14181 4f44 DF90      		pop r13
 14182               	.LVL1201:
 14183 4f46 CF90      		pop r12
 14184               	.LVL1202:
 14185 4f48 BF90      		pop r11
 14186 4f4a AF90      		pop r10
 14187 4f4c 9F90      		pop r9
 14188 4f4e 8F90      		pop r8
 14189 4f50 7F90      		pop r7
 14190 4f52 6F90      		pop r6
 14191 4f54 5F90      		pop r5
 14192               	.LVL1203:
 14193 4f56 4F90      		pop r4
 14194               	.LVL1204:
 14195 4f58 3F90      		pop r3
 14196 4f5a 2F90      		pop r2
 14197               	.LVL1205:
 14198 4f5c 0895      		ret
 14199               	.LFE121:
 14201               	.global	display_drawPixel
 14203               	display_drawPixel:
 14204               	.LFB122:
 14205               	.LM1428:
 14206               	.LVL1206:
 14207               	/* prologue: function */
 14208               	/* frame size = 0 */
 14209 4f5e 282F      		mov r18,r24
 14210 4f60 2695      		lsr r18
 14211 4f62 2695      		lsr r18
 14212 4f64 2695      		lsr r18
 14213 4f66 70E0      		ldi r23,lo8(0)
 14214 4f68 A82F      		mov r26,r24
 14215 4f6a B0E0      		ldi r27,lo8(0)
 14216               	.LVL1207:
 14217               	.LM1429:
 14218 4f6c 4423      		tst r20
 14219 4f6e 01F0      		breq .L873
 14220               	.LVL1208:
 14221 4f70 30E0      		ldi r19,lo8(0)
 14222 4f72 86E6      		ldi r24,lo8(102)
 14223 4f74 90E0      		ldi r25,hi8(102)
 14224 4f76 289F      		mul r18,r24
 14225 4f78 F001      		movw r30,r0
 14226 4f7a 299F      		mul r18,r25
 14227 4f7c F00D      		add r31,r0
 14228 4f7e 389F      		mul r19,r24
 14229 4f80 F00D      		add r31,r0
 14230 4f82 1124      		clr r1
 14231 4f84 E60F      		add r30,r22
 14232 4f86 F71F      		adc r31,r23
 14233               	.LVL1209:
 14234 4f88 E050      		subi r30,lo8(-(displayBuffer))
 14235 4f8a F040      		sbci r31,hi8(-(displayBuffer))
 14236 4f8c 2081      		ld r18,Z
 14237 4f8e A770      		andi r26,lo8(7)
 14238 4f90 B070      		andi r27,hi8(7)
 14239               	.LVL1210:
 14240 4f92 81E0      		ldi r24,lo8(1)
 14241 4f94 90E0      		ldi r25,hi8(1)
 14242 4f96 00C0      		rjmp 2f
 14243 4f98 880F      	1:	lsl r24
 14244 4f9a 991F      		rol r25
 14245 4f9c AA95      	2:	dec r26
 14246 4f9e 02F4      		brpl 1b
 14247 4fa0 282B      		or r18,r24
 14248 4fa2 2083      		st Z,r18
 14249 4fa4 0895      		ret
 14250               	.LVL1211:
 14251               	.L873:
 14252               	.LM1430:
 14253 4fa6 30E0      		ldi r19,lo8(0)
 14254 4fa8 86E6      		ldi r24,lo8(102)
 14255 4faa 90E0      		ldi r25,hi8(102)
 14256 4fac 289F      		mul r18,r24
 14257 4fae F001      		movw r30,r0
 14258 4fb0 299F      		mul r18,r25
 14259 4fb2 F00D      		add r31,r0
 14260 4fb4 389F      		mul r19,r24
 14261 4fb6 F00D      		add r31,r0
 14262 4fb8 1124      		clr r1
 14263 4fba E60F      		add r30,r22
 14264 4fbc F71F      		adc r31,r23
 14265               	.LVL1212:
 14266 4fbe E050      		subi r30,lo8(-(displayBuffer))
 14267 4fc0 F040      		sbci r31,hi8(-(displayBuffer))
 14268 4fc2 2081      		ld r18,Z
 14269 4fc4 A770      		andi r26,lo8(7)
 14270 4fc6 B070      		andi r27,hi8(7)
 14271               	.LVL1213:
 14272 4fc8 81E0      		ldi r24,lo8(1)
 14273 4fca 90E0      		ldi r25,hi8(1)
 14274 4fcc 00C0      		rjmp 2f
 14275 4fce 880F      	1:	lsl r24
 14276 4fd0 991F      		rol r25
 14277 4fd2 AA95      	2:	dec r26
 14278 4fd4 02F4      		brpl 1b
 14279 4fd6 8095      		com r24
 14280 4fd8 8223      		and r24,r18
 14281 4fda 8083      		st Z,r24
 14282 4fdc 0895      		ret
 14283               	.LFE122:
 14285               	.global	swap
 14287               	swap:
 14288               	.LFB123:
 14289               	.LM1431:
 14290               	.LVL1214:
 14291               	/* prologue: function */
 14292               	/* frame size = 0 */
 14293 4fde DC01      		movw r26,r24
 14294 4fe0 FB01      		movw r30,r22
 14295               	.LM1432:
 14296 4fe2 9081      		ld r25,Z
 14297               	.LVL1215:
 14298               	.LM1433:
 14299 4fe4 8C91      		ld r24,X
 14300               	.LVL1216:
 14301 4fe6 8083      		st Z,r24
 14302               	.LM1434:
 14303 4fe8 9C93      		st X,r25
 14304               	/* epilogue start */
 14305               	.LM1435:
 14306 4fea 0895      		ret
 14307               	.LFE123:
 14309               	.global	display_drawLine
 14311               	display_drawLine:
 14312               	.LFB124:
 14313               	.LM1436:
 14314               	.LVL1217:
 14315 4fec DF92      		push r13
 14316 4fee EF92      		push r14
 14317 4ff0 FF92      		push r15
 14318 4ff2 0F93      		push r16
 14319               	.LVL1218:
 14320 4ff4 1F93      		push r17
 14321 4ff6 CF93      		push r28
 14322 4ff8 DF93      		push r29
 14323               	/* prologue: function */
 14324               	/* frame size = 0 */
 14325 4ffa F82E      		mov r15,r24
 14326 4ffc E62E      		mov r14,r22
 14327               	.LM1437:
 14328 4ffe 8417      		cp r24,r20
 14329 5000 01F4      		brne .L879
 14330               	.LVL1219:
 14331               	.LM1438:
 14332 5002 2617      		cp r18,r22
 14333 5004 00F4      		brsh .L880
 14334               	.LVL1220:
 14335 5006 DD24      		clr r13
 14336 5008 DA94      		dec r13
 14337               	.LVL1221:
 14338 500a 00C0      		rjmp .L881
 14339               	.LVL1222:
 14340               	.L880:
 14341 500c DD24      		clr r13
 14342 500e D394      		inc r13
 14343               	.LVL1223:
 14344               	.L881:
 14345               	.LM1439:
 14346 5010 1E2D      		mov r17,r14
 14347               	.LVL1224:
 14348               	.LM1440:
 14349 5012 C22F      		mov r28,r18
 14350 5014 D0E0      		ldi r29,lo8(0)
 14351               	.LVL1225:
 14352 5016 00C0      		rjmp .L882
 14353               	.LVL1226:
 14354               	.L883:
 14355               	.LM1441:
 14356 5018 8F2D      		mov r24,r15
 14357               	.LVL1227:
 14358 501a 612F      		mov r22,r17
 14359               	.LVL1228:
 14360 501c 402F      		mov r20,r16
 14361               	.LVL1229:
 14362 501e 0E94 0000 		call display_drawPixel
 14363 5022 1D0D      		add r17,r13
 14364               	.LVL1230:
 14365               	.L882:
 14366               	.LM1442:
 14367 5024 812F      		mov r24,r17
 14368 5026 9927      		clr r25
 14369 5028 87FD      		sbrc r24,7
 14370 502a 9095      		com r25
 14371               	.LVL1231:
 14372 502c 8C17      		cp r24,r28
 14373 502e 9D07      		cpc r25,r29
 14374 5030 01F4      		brne .L883
 14375               	.LM1443:
 14376 5032 8F2D      		mov r24,r15
 14377               	.LVL1232:
 14378 5034 612F      		mov r22,r17
 14379               	.LVL1233:
 14380 5036 00C0      		rjmp .L890
 14381               	.LVL1234:
 14382               	.L879:
 14383               	.LM1444:
 14384 5038 6217      		cp r22,r18
 14385 503a 01F4      		brne .L889
 14386               	.LVL1235:
 14387               	.LM1445:
 14388 503c 4817      		cp r20,r24
 14389 503e 00F4      		brsh .L885
 14390 5040 DD24      		clr r13
 14391 5042 DA94      		dec r13
 14392               	.LVL1236:
 14393 5044 00C0      		rjmp .L886
 14394               	.LVL1237:
 14395               	.L885:
 14396 5046 DD24      		clr r13
 14397 5048 D394      		inc r13
 14398               	.LVL1238:
 14399               	.L886:
 14400               	.LM1446:
 14401 504a 1F2D      		mov r17,r15
 14402               	.LVL1239:
 14403               	.LM1447:
 14404 504c C42F      		mov r28,r20
 14405 504e D0E0      		ldi r29,lo8(0)
 14406               	.LVL1240:
 14407 5050 00C0      		rjmp .L887
 14408               	.LVL1241:
 14409               	.L888:
 14410               	.LM1448:
 14411 5052 812F      		mov r24,r17
 14412               	.LVL1242:
 14413 5054 6E2D      		mov r22,r14
 14414 5056 402F      		mov r20,r16
 14415 5058 0E94 0000 		call display_drawPixel
 14416               	.LVL1243:
 14417 505c 1D0D      		add r17,r13
 14418               	.LVL1244:
 14419               	.L887:
 14420               	.LM1449:
 14421 505e 812F      		mov r24,r17
 14422 5060 9927      		clr r25
 14423 5062 87FD      		sbrc r24,7
 14424 5064 9095      		com r25
 14425               	.LVL1245:
 14426 5066 8C17      		cp r24,r28
 14427 5068 9D07      		cpc r25,r29
 14428 506a 01F4      		brne .L888
 14429               	.LM1450:
 14430 506c 812F      		mov r24,r17
 14431               	.LVL1246:
 14432 506e 6E2D      		mov r22,r14
 14433               	.LVL1247:
 14434               	.L890:
 14435 5070 402F      		mov r20,r16
 14436               	.LVL1248:
 14437 5072 0E94 0000 		call display_drawPixel
 14438               	.LVL1249:
 14439               	.L889:
 14440               	/* epilogue start */
 14441               	.LM1451:
 14442 5076 DF91      		pop r29
 14443               	.LVL1250:
 14444 5078 CF91      		pop r28
 14445               	.LVL1251:
 14446 507a 1F91      		pop r17
 14447               	.LVL1252:
 14448 507c 0F91      		pop r16
 14449               	.LVL1253:
 14450 507e FF90      		pop r15
 14451               	.LVL1254:
 14452 5080 EF90      		pop r14
 14453               	.LVL1255:
 14454 5082 DF90      		pop r13
 14455               	.LVL1256:
 14456 5084 0895      		ret
 14457               	.LFE124:
 14459               	.global	display_drawRectangle
 14461               	display_drawRectangle:
 14462               	.LFB125:
 14463               	.LM1452:
 14464               	.LVL1257:
 14465 5086 6F92      		push r6
 14466 5088 7F92      		push r7
 14467 508a 8F92      		push r8
 14468 508c 9F92      		push r9
 14469 508e BF92      		push r11
 14470 5090 CF92      		push r12
 14471               	.LVL1258:
 14472 5092 DF92      		push r13
 14473 5094 EF92      		push r14
 14474               	.LVL1259:
 14475 5096 FF92      		push r15
 14476 5098 0F93      		push r16
 14477               	.LVL1260:
 14478 509a 1F93      		push r17
 14479 509c CF93      		push r28
 14480 509e DF93      		push r29
 14481               	/* prologue: function */
 14482               	/* frame size = 0 */
 14483 50a0 182F      		mov r17,r24
 14484 50a2 B62E      		mov r11,r22
 14485 50a4 D22E      		mov r13,r18
 14486               	.LVL1261:
 14487 50a6 D60E      		add r13,r22
 14488 50a8 F42E      		mov r15,r20
 14489               	.LVL1262:
 14490 50aa F80E      		add r15,r24
 14491               	.LM1453:
 14492 50ac 0023      		tst r16
 14493               	.LVL1263:
 14494 50ae 01F4      		brne .L892
 14495               	.LM1454:
 14496 50b0 412F      		mov r20,r17
 14497               	.LVL1264:
 14498 50b2 2D2D      		mov r18,r13
 14499               	.LVL1265:
 14500 50b4 0C2D      		mov r16,r12
 14501               	.LVL1266:
 14502 50b6 0E94 0000 		call display_drawLine
 14503               	.LVL1267:
 14504               	.LM1455:
 14505 50ba 8F2D      		mov r24,r15
 14506 50bc 6B2D      		mov r22,r11
 14507 50be 4F2D      		mov r20,r15
 14508 50c0 2D2D      		mov r18,r13
 14509 50c2 0E94 0000 		call display_drawLine
 14510               	.LM1456:
 14511 50c6 812F      		mov r24,r17
 14512 50c8 6B2D      		mov r22,r11
 14513 50ca 4F2D      		mov r20,r15
 14514 50cc 2B2D      		mov r18,r11
 14515 50ce 0E94 0000 		call display_drawLine
 14516               	.LM1457:
 14517 50d2 812F      		mov r24,r17
 14518 50d4 6D2D      		mov r22,r13
 14519 50d6 4F2D      		mov r20,r15
 14520 50d8 2D2D      		mov r18,r13
 14521 50da 0E94 0000 		call display_drawLine
 14522 50de 00C0      		rjmp .L902
 14523               	.LVL1268:
 14524               	.L892:
 14525               	.LM1458:
 14526 50e0 582F      		mov r21,r24
 14527               	.LVL1269:
 14528               	.LM1459:
 14529 50e2 082F      		mov r16,r24
 14530               	.LVL1270:
 14531 50e4 10E0      		ldi r17,lo8(0)
 14532 50e6 040F      		add r16,r20
 14533 50e8 111D      		adc r17,__zero_reg__
 14534               	.LM1460:
 14535 50ea CF2D      		mov r28,r15
 14536 50ec D0E0      		ldi r29,lo8(0)
 14537               	.LM1461:
 14538 50ee A7E0      		ldi r26,lo8(7)
 14539 50f0 B0E0      		ldi r27,hi8(7)
 14540 50f2 AC1B      		sub r26,r28
 14541 50f4 BD0B      		sbc r27,r29
 14542 50f6 3FEF      		ldi r19,lo8(255)
 14543 50f8 832E      		mov r8,r19
 14544 50fa 912C      		mov r9,__zero_reg__
 14545               	.LM1462:
 14546 50fc 26E6      		ldi r18,lo8(102)
 14547 50fe 622E      		mov r6,r18
 14548 5100 712C      		mov r7,__zero_reg__
 14549               	.LVL1271:
 14550               	.LM1463:
 14551 5102 98E0      		ldi r25,lo8(8)
 14552 5104 C92E      		mov r12,r25
 14553 5106 00C0      		rjmp .L894
 14554               	.LVL1272:
 14555               	.L901:
 14556               	.LM1464:
 14557 5108 87E0      		ldi r24,lo8(7)
 14558 510a F82E      		mov r15,r24
 14559               	.LVL1273:
 14560 510c F522      		and r15,r21
 14561               	.LM1465:
 14562 510e 6F2D      		mov r22,r15
 14563 5110 70E0      		ldi r23,lo8(0)
 14564 5112 C901      		movw r24,r18
 14565 5114 0796      		adiw r24,7
 14566 5116 861B      		sub r24,r22
 14567 5118 970B      		sbc r25,r23
 14568 511a C817      		cp r28,r24
 14569 511c D907      		cpc r29,r25
 14570 511e 04F0      		brlt .L895
 14571               	.LM1466:
 14572 5120 C401      		movw r24,r8
 14573 5122 0F2C      		mov r0,r15
 14574 5124 00C0      		rjmp 2f
 14575 5126 880F      	1:	lsl r24
 14576 5128 991F      		rol r25
 14577 512a 0A94      	2:	dec r0
 14578 512c 02F4      		brpl 1b
 14579               	.LVL1274:
 14580 512e 00C0      		rjmp .L903
 14581               	.LVL1275:
 14582               	.L895:
 14583               	.LM1467:
 14584 5130 2A0F      		add r18,r26
 14585 5132 3B1F      		adc r19,r27
 14586 5134 C401      		movw r24,r8
 14587 5136 00C0      		rjmp 2f
 14588 5138 9595      	1:	asr r25
 14589 513a 8795      		ror r24
 14590 513c 2A95      	2:	dec r18
 14591 513e 02F4      		brpl 1b
 14592               	.L903:
 14593 5140 282F      		mov r18,r24
 14594               	.LVL1276:
 14595               	.LM1468:
 14596 5142 852F      		mov r24,r21
 14597               	.LVL1277:
 14598 5144 8695      		lsr r24
 14599 5146 8695      		lsr r24
 14600 5148 8695      		lsr r24
 14601 514a 3B2D      		mov r19,r11
 14602               	.LVL1278:
 14603 514c 90E0      		ldi r25,lo8(0)
 14604               	.LM1469:
 14605 514e 869D      		mul r24,r6
 14606 5150 B001      		movw r22,r0
 14607 5152 879D      		mul r24,r7
 14608 5154 700D      		add r23,r0
 14609 5156 969D      		mul r25,r6
 14610 5158 700D      		add r23,r0
 14611 515a 1124      		clr r1
 14612               	.LVL1279:
 14613               	.LM1470:
 14614 515c 422F      		mov r20,r18
 14615               	.LVL1280:
 14616 515e 4095      		com r20
 14617 5160 00C0      		rjmp .L897
 14618               	.L900:
 14619 5162 E32F      		mov r30,r19
 14620 5164 F0E0      		ldi r31,lo8(0)
 14621               	.LM1471:
 14622 5166 EE20      		tst r14
 14623 5168 01F0      		breq .L898
 14624               	.LM1472:
 14625 516a E60F      		add r30,r22
 14626 516c F71F      		adc r31,r23
 14627 516e E050      		subi r30,lo8(-(displayBuffer))
 14628 5170 F040      		sbci r31,hi8(-(displayBuffer))
 14629 5172 8081      		ld r24,Z
 14630 5174 9081      		ld r25,Z
 14631 5176 8223      		and r24,r18
 14632 5178 8095      		com r24
 14633 517a 8223      		and r24,r18
 14634 517c 9423      		and r25,r20
 14635 517e 892B      		or r24,r25
 14636 5180 8083      		st Z,r24
 14637 5182 00C0      		rjmp .L899
 14638               	.L898:
 14639               	.LM1473:
 14640 5184 E60F      		add r30,r22
 14641 5186 F71F      		adc r31,r23
 14642 5188 E050      		subi r30,lo8(-(displayBuffer))
 14643 518a F040      		sbci r31,hi8(-(displayBuffer))
 14644 518c 2083      		st Z,r18
 14645               	.L899:
 14646               	.LM1474:
 14647 518e 3F5F      		subi r19,lo8(-(1))
 14648               	.L897:
 14649 5190 D316      		cp r13,r19
 14650 5192 00F4      		brsh .L900
 14651               	.LM1475:
 14652 5194 8C2D      		mov r24,r12
 14653 5196 8F19      		sub r24,r15
 14654 5198 580F      		add r21,r24
 14655               	.LVL1281:
 14656               	.L894:
 14657               	.LM1476:
 14658 519a 252F      		mov r18,r21
 14659               	.LVL1282:
 14660 519c 30E0      		ldi r19,lo8(0)
 14661               	.LVL1283:
 14662 519e 0217      		cp r16,r18
 14663 51a0 1307      		cpc r17,r19
 14664 51a2 04F0      		brlt .+2
 14665 51a4 00C0      		rjmp .L901
 14666               	.LVL1284:
 14667               	.L902:
 14668               	/* epilogue start */
 14669               	.LM1477:
 14670 51a6 DF91      		pop r29
 14671 51a8 CF91      		pop r28
 14672 51aa 1F91      		pop r17
 14673 51ac 0F91      		pop r16
 14674 51ae FF90      		pop r15
 14675               	.LVL1285:
 14676 51b0 EF90      		pop r14
 14677               	.LVL1286:
 14678 51b2 DF90      		pop r13
 14679               	.LVL1287:
 14680 51b4 CF90      		pop r12
 14681               	.LVL1288:
 14682 51b6 BF90      		pop r11
 14683               	.LVL1289:
 14684 51b8 9F90      		pop r9
 14685 51ba 8F90      		pop r8
 14686 51bc 7F90      		pop r7
 14687 51be 6F90      		pop r6
 14688 51c0 0895      		ret
 14689               	.LFE125:
 14691               	.global	Time_Init
 14693               	Time_Init:
 14694               	.LFB126:
 14695               	.LM1478:
 14696               	/* prologue: function */
 14697               	/* frame size = 0 */
 14698               	.LM1479:
 14699 51c2 E0E0      		ldi r30,lo8(2304)
 14700 51c4 F9E0      		ldi r31,hi8(2304)
 14701 51c6 89E0      		ldi r24,lo8(15625)
 14702 51c8 9DE3      		ldi r25,hi8(15625)
 14703 51ca 86A3      		std Z+38,r24
 14704 51cc 97A3      		std Z+39,r25
 14705               	.LM1480:
 14706 51ce 8081      		ld r24,Z
 14707 51d0 807F      		andi r24,lo8(-16)
 14708 51d2 8760      		ori r24,lo8(7)
 14709 51d4 8083      		st Z,r24
 14710               	.LM1481:
 14711 51d6 8681      		ldd r24,Z+6
 14712 51d8 8C7F      		andi r24,lo8(-4)
 14713 51da 8260      		ori r24,lo8(2)
 14714 51dc 8683      		std Z+6,r24
 14715               	.LM1482:
 14716 51de 88E0      		ldi r24,lo8(8)
 14717 51e0 8093 4008 		sts 2112,r24
 14718               	.LM1483:
 14719 51e4 80EC      		ldi r24,lo8(-64)
 14720 51e6 8093 8001 		sts 384,r24
 14721               	.LM1484:
 14722 51ea E0E0      		ldi r30,lo8(2048)
 14723 51ec F8E0      		ldi r31,hi8(2048)
 14724 51ee 8FEF      		ldi r24,lo8(-1)
 14725 51f0 9FEF      		ldi r25,hi8(-1)
 14726 51f2 86A3      		std Z+38,r24
 14727 51f4 97A3      		std Z+39,r25
 14728               	.LM1485:
 14729 51f6 84E0      		ldi r24,lo8(4)
 14730 51f8 8083      		st Z,r24
 14731               	/* epilogue start */
 14732               	.LM1486:
 14733 51fa 0895      		ret
 14734               	.LFE126:
 14736               	.global	Time_Set
 14738               	Time_Set:
 14739               	.LFB127:
 14740               	.LM1487:
 14741               	.LVL1290:
 14742               	/* prologue: function */
 14743               	/* frame size = 0 */
 14744               	.LM1488:
 14745 51fc 6093 0000 		sts UNIX_time,r22
 14746 5200 7093 0000 		sts (UNIX_time)+1,r23
 14747 5204 8093 0000 		sts (UNIX_time)+2,r24
 14748 5208 9093 0000 		sts (UNIX_time)+3,r25
 14749               	/* epilogue start */
 14750               	.LM1489:
 14751 520c 0895      		ret
 14752               	.LFE127:
 14754               	.global	Time_Get32BitTimer
 14756               	Time_Get32BitTimer:
 14757               	.LFB128:
 14758               	.LM1490:
 14759               	/* prologue: function */
 14760               	/* frame size = 0 */
 14761               	.LM1491:
 14762               	/* #APP */
 14763               	 ;  56 "time.c" 1
 14764 520e F894      		cli
 14765               	 ;  0 "" 2
 14766               	.LM1492:
 14767               	/* #NOAPP */
 14768 5210 2091 6008 		lds r18,2144
 14769 5214 3091 6108 		lds r19,(2144)+1
 14770               	.LVL1291:
 14771               	.LM1493:
 14772 5218 6091 2008 		lds r22,2080
 14773 521c 7091 2108 		lds r23,(2080)+1
 14774               	.LVL1292:
 14775               	.LM1494:
 14776 5220 8091 6008 		lds r24,2144
 14777 5224 9091 6108 		lds r25,(2144)+1
 14778 5228 2817      		cp r18,r24
 14779 522a 3907      		cpc r19,r25
 14780 522c 01F0      		breq .L909
 14781               	.LM1495:
 14782 522e 2091 6008 		lds r18,2144
 14783 5232 3091 6108 		lds r19,(2144)+1
 14784               	.LM1496:
 14785 5236 6091 2008 		lds r22,2080
 14786 523a 7091 2108 		lds r23,(2080)+1
 14787               	.L909:
 14788               	.LM1497:
 14789               	/* #APP */
 14790               	 ;  64 "time.c" 1
 14791 523e 7894      		sei
 14792               	 ;  0 "" 2
 14793               	/* #NOAPP */
 14794 5240 40E0      		ldi r20,lo8(0)
 14795 5242 50E0      		ldi r21,hi8(0)
 14796               	.LVL1293:
 14797 5244 A901      		movw r20,r18
 14798 5246 3327      		clr r19
 14799 5248 2227      		clr r18
 14800               	.LVL1294:
 14801 524a CB01      		movw r24,r22
 14802 524c A0E0      		ldi r26,lo8(0)
 14803 524e B0E0      		ldi r27,hi8(0)
 14804               	.LVL1295:
 14805 5250 280F      		add r18,r24
 14806 5252 391F      		adc r19,r25
 14807 5254 4A1F      		adc r20,r26
 14808 5256 5B1F      		adc r21,r27
 14809               	.LM1498:
 14810 5258 B901      		movw r22,r18
 14811               	.LVL1296:
 14812 525a CA01      		movw r24,r20
 14813               	.LVL1297:
 14814               	/* epilogue start */
 14815 525c 0895      		ret
 14816               	.LFE128:
 14818               	.global	__vector_77
 14820               	__vector_77:
 14821               	.LFB129:
 14822               	.LM1499:
 14823 525e 1F92      		push __zero_reg__
 14824 5260 0F92      		push r0
 14825 5262 0FB6      		in r0,__SREG__
 14826 5264 0F92      		push r0
 14827 5266 1124      		clr __zero_reg__
 14828 5268 8F93      		push r24
 14829 526a 9F93      		push r25
 14830 526c AF93      		push r26
 14831 526e BF93      		push r27
 14832               	/* prologue: Signal */
 14833               	/* frame size = 0 */
 14834               	.LM1500:
 14835 5270 8091 0000 		lds r24,UNIX_time
 14836 5274 9091 0000 		lds r25,(UNIX_time)+1
 14837 5278 A091 0000 		lds r26,(UNIX_time)+2
 14838 527c B091 0000 		lds r27,(UNIX_time)+3
 14839 5280 0196      		adiw r24,1
 14840 5282 A11D      		adc r26,__zero_reg__
 14841 5284 B11D      		adc r27,__zero_reg__
 14842 5286 8093 0000 		sts UNIX_time,r24
 14843 528a 9093 0000 		sts (UNIX_time)+1,r25
 14844 528e A093 0000 		sts (UNIX_time)+2,r26
 14845 5292 B093 0000 		sts (UNIX_time)+3,r27
 14846               	/* epilogue start */
 14847               	.LM1501:
 14848 5296 BF91      		pop r27
 14849 5298 AF91      		pop r26
 14850 529a 9F91      		pop r25
 14851 529c 8F91      		pop r24
 14852 529e 0F90      		pop r0
 14853 52a0 0FBE      		out __SREG__,r0
 14854 52a2 0F90      		pop r0
 14855 52a4 1F90      		pop __zero_reg__
 14856 52a6 1895      		reti
 14857               	.LFE129:
 14859               	.global	Sensors_Init
 14861               	Sensors_Init:
 14862               	.LFB130:
 14863               	.LM1502:
 14864               	/* prologue: function */
 14865               	/* frame size = 0 */
 14866               	.LM1503:
 14867 52a8 E0E0      		ldi r30,lo8(512)
 14868 52aa F2E0      		ldi r31,hi8(512)
 14869 52ac 91E0      		ldi r25,lo8(1)
 14870 52ae 90A3      		std Z+32,r25
 14871               	.LM1504:
 14872 52b0 88E2      		ldi r24,lo8(40)
 14873 52b2 81A3      		std Z+33,r24
 14874               	.LM1505:
 14875 52b4 90A7      		std Z+40,r25
 14876               	.LM1506:
 14877 52b6 20E2      		ldi r18,lo8(32)
 14878 52b8 21A7      		std Z+41,r18
 14879               	.LM1507:
 14880 52ba 90AB      		std Z+48,r25
 14881               	.LM1508:
 14882 52bc 88E1      		ldi r24,lo8(24)
 14883 52be 81AB      		std Z+49,r24
 14884               	.LM1509:
 14885 52c0 90AF      		std Z+56,r25
 14886               	.LM1510:
 14887 52c2 88E3      		ldi r24,lo8(56)
 14888 52c4 81AF      		std Z+57,r24
 14889               	.LM1511:
 14890 52c6 8481      		ldd r24,Z+4
 14891 52c8 887F      		andi r24,lo8(-8)
 14892 52ca 8460      		ori r24,lo8(4)
 14893 52cc 8483      		std Z+4,r24
 14894               	.LM1512:
 14895 52ce 2283      		std Z+2,r18
 14896               	.LM1513:
 14897 52d0 8381      		ldd r24,Z+3
 14898 52d2 806C      		ori r24,lo8(-64)
 14899 52d4 8383      		std Z+3,r24
 14900               	.LM1514:
 14901 52d6 8181      		ldd r24,Z+1
 14902 52d8 8860      		ori r24,lo8(8)
 14903 52da 8183      		std Z+1,r24
 14904               	.LM1515:
 14905 52dc 9083      		st Z,r25
 14906               	.LM1516:
 14907 52de 80A1      		ldd r24,Z+32
 14908 52e0 8068      		ori r24,lo8(-128)
 14909 52e2 80A3      		std Z+32,r24
 14910               	.LM1517:
 14911 52e4 80A5      		ldd r24,Z+40
 14912 52e6 8068      		ori r24,lo8(-128)
 14913 52e8 80A7      		std Z+40,r24
 14914               	.LM1518:
 14915 52ea 80A9      		ldd r24,Z+48
 14916 52ec 8068      		ori r24,lo8(-128)
 14917 52ee 80AB      		std Z+48,r24
 14918               	.LM1519:
 14919 52f0 80AD      		ldd r24,Z+56
 14920 52f2 8068      		ori r24,lo8(-128)
 14921 52f4 80AF      		std Z+56,r24
 14922               	.LM1520:
 14923 52f6 E0E4      		ldi r30,lo8(2368)
 14924 52f8 F9E0      		ldi r31,hi8(2368)
 14925 52fa 89E0      		ldi r24,lo8(15625)
 14926 52fc 9DE3      		ldi r25,hi8(15625)
 14927 52fe 86A3      		std Z+38,r24
 14928 5300 97A3      		std Z+39,r25
 14929               	.LM1521:
 14930 5302 8081      		ld r24,Z
 14931 5304 807F      		andi r24,lo8(-16)
 14932 5306 8760      		ori r24,lo8(7)
 14933 5308 8083      		st Z,r24
 14934               	.LM1522:
 14935 530a 8681      		ldd r24,Z+6
 14936 530c 8360      		ori r24,lo8(3)
 14937 530e 8683      		std Z+6,r24
 14938               	/* epilogue start */
 14939               	.LM1523:
 14940 5310 0895      		ret
 14941               	.LFE130:
 14943               	.global	Sensors_ReadTemperature
 14945               	Sensors_ReadTemperature:
 14946               	.LFB131:
 14947               	.LM1524:
 14948               	/* prologue: function */
 14949               	/* frame size = 0 */
 14950               	.LM1525:
 14951 5312 E0E0      		ldi r30,lo8(512)
 14952 5314 F2E0      		ldi r31,hi8(512)
 14953 5316 6089      		ldd r22,Z+16
 14954 5318 7189      		ldd r23,Z+17
 14955 531a 2689      		ldd r18,Z+22
 14956 531c 3789      		ldd r19,Z+23
 14957 531e 621B      		sub r22,r18
 14958 5320 730B      		sbc r23,r19
 14959 5322 80E0      		ldi r24,lo8(0)
 14960 5324 90E0      		ldi r25,hi8(0)
 14961               	.LVL1298:
 14962               	.LM1526:
 14963 5326 27E1      		ldi r18,lo8(4375)
 14964 5328 31E1      		ldi r19,hi8(4375)
 14965 532a 40E0      		ldi r20,hlo8(4375)
 14966 532c 50E0      		ldi r21,hhi8(4375)
 14967 532e 0E94 0000 		call __mulsi3
 14968               	.LM1527:
 14969 5332 6050      		subi r22,lo8(-(-2713600))
 14970 5334 7846      		sbci r23,hi8(-(-2713600))
 14971 5336 8942      		sbci r24,hlo8(-(-2713600))
 14972 5338 9040      		sbci r25,hhi8(-(-2713600))
 14973               	.LVL1299:
 14974               	.LM1528:
 14975 533a 2AE0      		ldi r18,lo8(10)
 14976 533c 30E0      		ldi r19,hi8(10)
 14977 533e 40E0      		ldi r20,hlo8(10)
 14978 5340 50E0      		ldi r21,hhi8(10)
 14979 5342 0E94 0000 		call __mulsi3
 14980               	.LVL1300:
 14981 5346 F6E0      		ldi r31,6
 14982 5348 9695      	1:	lsr r25
 14983 534a 8795      		ror r24
 14984 534c 7795      		ror r23
 14985 534e 6795      		ror r22
 14986 5350 FA95      		dec r31
 14987 5352 01F4      		brne 1b
 14988               	.LVL1301:
 14989 5354 21E7      		ldi r18,lo8(625)
 14990 5356 32E0      		ldi r19,hi8(625)
 14991 5358 40E0      		ldi r20,hlo8(625)
 14992 535a 50E0      		ldi r21,hhi8(625)
 14993 535c 0E94 0000 		call __udivmodsi4
 14994               	.LVL1302:
 14995 5360 C901      		movw r24,r18
 14996               	.LVL1303:
 14997               	/* epilogue start */
 14998               	.LM1529:
 14999 5362 0895      		ret
 15000               	.LFE131:
 15002               	.global	Sensors_ReadHumidity
 15004               	Sensors_ReadHumidity:
 15005               	.LFB132:
 15006               	.LM1530:
 15007               	/* prologue: function */
 15008               	/* frame size = 0 */
 15009               	.LM1531:
 15010 5364 E0E0      		ldi r30,lo8(512)
 15011 5366 F2E0      		ldi r31,hi8(512)
 15012 5368 6289      		ldd r22,Z+18
 15013 536a 7389      		ldd r23,Z+19
 15014 536c 2689      		ldd r18,Z+22
 15015 536e 3789      		ldd r19,Z+23
 15016 5370 621B      		sub r22,r18
 15017 5372 730B      		sbc r23,r19
 15018 5374 80E0      		ldi r24,lo8(0)
 15019 5376 90E0      		ldi r25,hi8(0)
 15020               	.LVL1304:
 15021               	.LM1532:
 15022 5378 28E8      		ldi r18,lo8(12936)
 15023 537a 32E3      		ldi r19,hi8(12936)
 15024 537c 40E0      		ldi r20,hlo8(12936)
 15025 537e 50E0      		ldi r21,hhi8(12936)
 15026 5380 0E94 0000 		call __mulsi3
 15027 5384 6050      		subi r22,lo8(-(-8888320))
 15028 5386 704A      		sbci r23,hi8(-(-8888320))
 15029 5388 8748      		sbci r24,hlo8(-(-8888320))
 15030 538a 9040      		sbci r25,hhi8(-(-8888320))
 15031               	.LVL1305:
 15032 538c 20E0      		ldi r18,lo8(409600)
 15033 538e 30E4      		ldi r19,hi8(409600)
 15034 5390 46E0      		ldi r20,hlo8(409600)
 15035 5392 50E0      		ldi r21,hhi8(409600)
 15036 5394 0E94 0000 		call __udivmodsi4
 15037               	.LVL1306:
 15038 5398 822F      		mov r24,r18
 15039               	.LVL1307:
 15040               	/* epilogue start */
 15041               	.LM1533:
 15042 539a 0895      		ret
 15043               	.LFE132:
 15045               	.global	Sensors_ReadPressure
 15047               	Sensors_ReadPressure:
 15048               	.LFB133:
 15049               	.LM1534:
 15050               	/* prologue: function */
 15051               	/* frame size = 0 */
 15052               	.LM1535:
 15053 539c E0E0      		ldi r30,lo8(512)
 15054 539e F2E0      		ldi r31,hi8(512)
 15055 53a0 6489      		ldd r22,Z+20
 15056 53a2 7589      		ldd r23,Z+21
 15057 53a4 2689      		ldd r18,Z+22
 15058 53a6 3789      		ldd r19,Z+23
 15059 53a8 621B      		sub r22,r18
 15060 53aa 730B      		sbc r23,r19
 15061 53ac 80E0      		ldi r24,lo8(0)
 15062 53ae 90E0      		ldi r25,hi8(0)
 15063               	.LVL1308:
 15064               	.LM1536:
 15065 53b0 28E1      		ldi r18,lo8(280)
 15066 53b2 31E0      		ldi r19,hi8(280)
 15067 53b4 40E0      		ldi r20,hlo8(280)
 15068 53b6 50E0      		ldi r21,hhi8(280)
 15069 53b8 0E94 0000 		call __mulsi3
 15070 53bc 6050      		subi r22,lo8(-(129024))
 15071 53be 7840      		sbci r23,hi8(-(129024))
 15072 53c0 8E4F      		sbci r24,hlo8(-(129024))
 15073 53c2 9F4F      		sbci r25,hhi8(-(129024))
 15074               	.LVL1309:
 15075 53c4 25E8      		ldi r18,lo8(12165)
 15076 53c6 3FE2      		ldi r19,hi8(12165)
 15077 53c8 40E0      		ldi r20,hlo8(12165)
 15078 53ca 50E0      		ldi r21,hhi8(12165)
 15079 53cc 0E94 0000 		call __udivmodsi4
 15080               	.LVL1310:
 15081 53d0 822F      		mov r24,r18
 15082               	.LVL1311:
 15083               	/* epilogue start */
 15084               	.LM1537:
 15085 53d2 0895      		ret
 15086               	.LFE133:
 15088               	.global	Sensors_ResetTemperatureBuffers
 15090               	Sensors_ResetTemperatureBuffers:
 15091               	.LFB134:
 15092               	.LM1538:
 15093               	/* prologue: function */
 15094               	/* frame size = 0 */
 15095               	.LM1539:
 15096 53d4 1092 0000 		sts temperatureBufferCounter,__zero_reg__
 15097               	.LM1540:
 15098 53d8 81E0      		ldi r24,lo8(1)
 15099 53da 8093 0000 		sts temperatureBufferToWriteTo,r24
 15100               	.LM1541:
 15101 53de 1092 0000 		sts okToSendTemperatureBuffer1,__zero_reg__
 15102               	.LM1542:
 15103 53e2 1092 0000 		sts okToSendTemperatureBuffer2,__zero_reg__
 15104               	/* epilogue start */
 15105               	.LM1543:
 15106 53e6 0895      		ret
 15107               	.LFE134:
 15109               	.global	Sensors_ResetPressureBuffers
 15111               	Sensors_ResetPressureBuffers:
 15112               	.LFB135:
 15113               	.LM1544:
 15114               	/* prologue: function */
 15115               	/* frame size = 0 */
 15116               	.LM1545:
 15117 53e8 1092 0000 		sts pressureBufferCounter,__zero_reg__
 15118               	.LM1546:
 15119 53ec 81E0      		ldi r24,lo8(1)
 15120 53ee 8093 0000 		sts pressureBufferToWriteTo,r24
 15121               	.LM1547:
 15122 53f2 1092 0000 		sts okToSendPressureBuffer1,__zero_reg__
 15123               	.LM1548:
 15124 53f6 1092 0000 		sts okToSendPressureBuffer2,__zero_reg__
 15125               	/* epilogue start */
 15126               	.LM1549:
 15127 53fa 0895      		ret
 15128               	.LFE135:
 15130               	.global	Sensors_ResetHumidityBuffers
 15132               	Sensors_ResetHumidityBuffers:
 15133               	.LFB136:
 15134               	.LM1550:
 15135               	/* prologue: function */
 15136               	/* frame size = 0 */
 15137               	.LM1551:
 15138 53fc 1092 0000 		sts humidityBufferCounter,__zero_reg__
 15139               	.LM1552:
 15140 5400 81E0      		ldi r24,lo8(1)
 15141 5402 8093 0000 		sts humidityBufferToWriteTo,r24
 15142               	.LM1553:
 15143 5406 1092 0000 		sts okToSendHumidityBuffer1,__zero_reg__
 15144               	.LM1554:
 15145 540a 1092 0000 		sts okToSendHumidityBuffer2,__zero_reg__
 15146               	/* epilogue start */
 15147               	.LM1555:
 15148 540e 0895      		ret
 15149               	.LFE136:
 15151               	.global	__vector_83
 15153               	__vector_83:
 15154               	.LFB137:
 15155               	.LM1556:
 15156 5410 1F92      		push __zero_reg__
 15157 5412 0F92      		push r0
 15158 5414 0FB6      		in r0,__SREG__
 15159 5416 0F92      		push r0
 15160 5418 0BB6      		in r0,59-0
 15161 541a 0F92      		push r0
 15162 541c 1124      		clr __zero_reg__
 15163 541e 2F93      		push r18
 15164 5420 3F93      		push r19
 15165 5422 4F93      		push r20
 15166 5424 5F93      		push r21
 15167 5426 6F93      		push r22
 15168 5428 7F93      		push r23
 15169 542a 8F93      		push r24
 15170 542c 9F93      		push r25
 15171 542e AF93      		push r26
 15172 5430 BF93      		push r27
 15173 5432 CF93      		push r28
 15174 5434 DF93      		push r29
 15175 5436 EF93      		push r30
 15176 5438 FF93      		push r31
 15177               	/* prologue: Signal */
 15178               	/* frame size = 0 */
 15179               	.LM1557:
 15180 543a 8091 0000 		lds r24,recording
 15181 543e 8823      		tst r24
 15182 5440 01F4      		brne .+2
 15183 5442 00C0      		rjmp .L941
 15184               	.LM1558:
 15185 5444 8091 0000 		lds r24,rtcBlockCounter
 15186 5448 8F5F      		subi r24,lo8(-(1))
 15187 544a 8093 0000 		sts rtcBlockCounter,r24
 15188               	.LM1559:
 15189 544e 8823      		tst r24
 15190 5450 01F4      		brne .L929
 15191               	.LM1560:
 15192 5452 81E0      		ldi r24,lo8(1)
 15193 5454 8093 0000 		sts okToSendRTCBlock,r24
 15194               	.L929:
 15195               	.LM1561:
 15196 5458 8091 0000 		lds r24,temperatureBufferToWriteTo
 15197 545c 8130      		cpi r24,lo8(1)
 15198 545e 01F4      		brne .L930
 15199               	.LM1562:
 15200 5460 8091 0000 		lds r24,temperatureBufferCounter
 15201 5464 8823      		tst r24
 15202 5466 01F4      		brne .L931
 15203               	.LM1563:
 15204 5468 0E94 0000 		call Time_Get32BitTimer
 15205 546c 6093 0000 		sts temperatureSampleStartTime1,r22
 15206 5470 7093 0000 		sts (temperatureSampleStartTime1)+1,r23
 15207 5474 8093 0000 		sts (temperatureSampleStartTime1)+2,r24
 15208 5478 9093 0000 		sts (temperatureSampleStartTime1)+3,r25
 15209               	.L931:
 15210               	.LM1564:
 15211 547c 8091 0000 		lds r24,temperatureBufferCounter
 15212 5480 C82F      		mov r28,r24
 15213 5482 D0E0      		ldi r29,lo8(0)
 15214 5484 0E94 0000 		call Sensors_ReadTemperature
 15215 5488 CC0F      		lsl r28
 15216 548a DD1F      		rol r29
 15217 548c C050      		subi r28,lo8(-(temperatureBuffer1))
 15218 548e D040      		sbci r29,hi8(-(temperatureBuffer1))
 15219 5490 8883      		st Y,r24
 15220 5492 9983      		std Y+1,r25
 15221               	.LM1565:
 15222 5494 8091 0000 		lds r24,temperatureBufferCounter
 15223 5498 8F5F      		subi r24,lo8(-(1))
 15224 549a 8093 0000 		sts temperatureBufferCounter,r24
 15225               	.LM1566:
 15226 549e 8A30      		cpi r24,lo8(10)
 15227 54a0 01F4      		brne .L932
 15228               	.LM1567:
 15229 54a2 1092 0000 		sts temperatureBufferCounter,__zero_reg__
 15230               	.LM1568:
 15231 54a6 82E0      		ldi r24,lo8(2)
 15232 54a8 8093 0000 		sts temperatureBufferToWriteTo,r24
 15233               	.LM1569:
 15234 54ac 81E0      		ldi r24,lo8(1)
 15235 54ae 8093 0000 		sts okToSendTemperatureBuffer1,r24
 15236 54b2 00C0      		rjmp .L932
 15237               	.L930:
 15238               	.LM1570:
 15239 54b4 8230      		cpi r24,lo8(2)
 15240 54b6 01F4      		brne .L932
 15241               	.LM1571:
 15242 54b8 8091 0000 		lds r24,temperatureBufferCounter
 15243 54bc 8823      		tst r24
 15244 54be 01F4      		brne .L933
 15245               	.LM1572:
 15246 54c0 0E94 0000 		call Time_Get32BitTimer
 15247 54c4 6093 0000 		sts temperatureSampleStartTime2,r22
 15248 54c8 7093 0000 		sts (temperatureSampleStartTime2)+1,r23
 15249 54cc 8093 0000 		sts (temperatureSampleStartTime2)+2,r24
 15250 54d0 9093 0000 		sts (temperatureSampleStartTime2)+3,r25
 15251               	.L933:
 15252               	.LM1573:
 15253 54d4 8091 0000 		lds r24,temperatureBufferCounter
 15254 54d8 C82F      		mov r28,r24
 15255 54da D0E0      		ldi r29,lo8(0)
 15256 54dc 0E94 0000 		call Sensors_ReadTemperature
 15257 54e0 CC0F      		lsl r28
 15258 54e2 DD1F      		rol r29
 15259 54e4 C050      		subi r28,lo8(-(temperatureBuffer2))
 15260 54e6 D040      		sbci r29,hi8(-(temperatureBuffer2))
 15261 54e8 8883      		st Y,r24
 15262 54ea 9983      		std Y+1,r25
 15263               	.LM1574:
 15264 54ec 8091 0000 		lds r24,temperatureBufferCounter
 15265 54f0 8F5F      		subi r24,lo8(-(1))
 15266 54f2 8093 0000 		sts temperatureBufferCounter,r24
 15267               	.LM1575:
 15268 54f6 8A30      		cpi r24,lo8(10)
 15269 54f8 01F4      		brne .L932
 15270               	.LM1576:
 15271 54fa 1092 0000 		sts temperatureBufferCounter,__zero_reg__
 15272               	.LM1577:
 15273 54fe 81E0      		ldi r24,lo8(1)
 15274 5500 8093 0000 		sts temperatureBufferToWriteTo,r24
 15275               	.LM1578:
 15276 5504 8093 0000 		sts okToSendTemperatureBuffer2,r24
 15277               	.L932:
 15278               	.LM1579:
 15279 5508 8091 0000 		lds r24,humidityBufferToWriteTo
 15280 550c 8130      		cpi r24,lo8(1)
 15281 550e 01F4      		brne .L934
 15282               	.LM1580:
 15283 5510 8091 0000 		lds r24,humidityBufferCounter
 15284 5514 8823      		tst r24
 15285 5516 01F4      		brne .L935
 15286               	.LM1581:
 15287 5518 0E94 0000 		call Time_Get32BitTimer
 15288 551c 6093 0000 		sts humiditySampleStartTime1,r22
 15289 5520 7093 0000 		sts (humiditySampleStartTime1)+1,r23
 15290 5524 8093 0000 		sts (humiditySampleStartTime1)+2,r24
 15291 5528 9093 0000 		sts (humiditySampleStartTime1)+3,r25
 15292               	.L935:
 15293               	.LM1582:
 15294 552c 8091 0000 		lds r24,humidityBufferCounter
 15295 5530 C82F      		mov r28,r24
 15296 5532 D0E0      		ldi r29,lo8(0)
 15297 5534 0E94 0000 		call Sensors_ReadHumidity
 15298 5538 C050      		subi r28,lo8(-(humidityBuffer1))
 15299 553a D040      		sbci r29,hi8(-(humidityBuffer1))
 15300 553c 8883      		st Y,r24
 15301               	.LM1583:
 15302 553e 8091 0000 		lds r24,humidityBufferCounter
 15303 5542 8F5F      		subi r24,lo8(-(1))
 15304 5544 8093 0000 		sts humidityBufferCounter,r24
 15305               	.LM1584:
 15306 5548 8A30      		cpi r24,lo8(10)
 15307 554a 01F4      		brne .L936
 15308               	.LM1585:
 15309 554c 1092 0000 		sts humidityBufferCounter,__zero_reg__
 15310               	.LM1586:
 15311 5550 82E0      		ldi r24,lo8(2)
 15312 5552 8093 0000 		sts humidityBufferToWriteTo,r24
 15313               	.LM1587:
 15314 5556 81E0      		ldi r24,lo8(1)
 15315 5558 8093 0000 		sts okToSendHumidityBuffer1,r24
 15316 555c 00C0      		rjmp .L936
 15317               	.L934:
 15318               	.LM1588:
 15319 555e 8230      		cpi r24,lo8(2)
 15320 5560 01F4      		brne .L936
 15321               	.LM1589:
 15322 5562 8091 0000 		lds r24,humidityBufferCounter
 15323 5566 8823      		tst r24
 15324 5568 01F4      		brne .L937
 15325               	.LM1590:
 15326 556a 0E94 0000 		call Time_Get32BitTimer
 15327 556e 6093 0000 		sts humiditySampleStartTime2,r22
 15328 5572 7093 0000 		sts (humiditySampleStartTime2)+1,r23
 15329 5576 8093 0000 		sts (humiditySampleStartTime2)+2,r24
 15330 557a 9093 0000 		sts (humiditySampleStartTime2)+3,r25
 15331               	.L937:
 15332               	.LM1591:
 15333 557e 8091 0000 		lds r24,humidityBufferCounter
 15334 5582 C82F      		mov r28,r24
 15335 5584 D0E0      		ldi r29,lo8(0)
 15336 5586 0E94 0000 		call Sensors_ReadHumidity
 15337 558a C050      		subi r28,lo8(-(humidityBuffer2))
 15338 558c D040      		sbci r29,hi8(-(humidityBuffer2))
 15339 558e 8883      		st Y,r24
 15340               	.LM1592:
 15341 5590 8091 0000 		lds r24,humidityBufferCounter
 15342 5594 8F5F      		subi r24,lo8(-(1))
 15343 5596 8093 0000 		sts humidityBufferCounter,r24
 15344               	.LM1593:
 15345 559a 8A30      		cpi r24,lo8(10)
 15346 559c 01F4      		brne .L936
 15347               	.LM1594:
 15348 559e 1092 0000 		sts humidityBufferCounter,__zero_reg__
 15349               	.LM1595:
 15350 55a2 81E0      		ldi r24,lo8(1)
 15351 55a4 8093 0000 		sts humidityBufferToWriteTo,r24
 15352               	.LM1596:
 15353 55a8 8093 0000 		sts okToSendHumidityBuffer2,r24
 15354               	.L936:
 15355               	.LM1597:
 15356 55ac 8091 0000 		lds r24,pressureBufferToWriteTo
 15357 55b0 8130      		cpi r24,lo8(1)
 15358 55b2 01F4      		brne .L938
 15359               	.LM1598:
 15360 55b4 8091 0000 		lds r24,pressureBufferCounter
 15361 55b8 8823      		tst r24
 15362 55ba 01F4      		brne .L939
 15363               	.LM1599:
 15364 55bc 0E94 0000 		call Time_Get32BitTimer
 15365 55c0 6093 0000 		sts pressureSampleStartTime1,r22
 15366 55c4 7093 0000 		sts (pressureSampleStartTime1)+1,r23
 15367 55c8 8093 0000 		sts (pressureSampleStartTime1)+2,r24
 15368 55cc 9093 0000 		sts (pressureSampleStartTime1)+3,r25
 15369               	.L939:
 15370               	.LM1600:
 15371 55d0 8091 0000 		lds r24,pressureBufferCounter
 15372 55d4 C82F      		mov r28,r24
 15373 55d6 D0E0      		ldi r29,lo8(0)
 15374 55d8 0E94 0000 		call Sensors_ReadPressure
 15375 55dc C050      		subi r28,lo8(-(pressureBuffer1))
 15376 55de D040      		sbci r29,hi8(-(pressureBuffer1))
 15377 55e0 8883      		st Y,r24
 15378               	.LM1601:
 15379 55e2 8091 0000 		lds r24,pressureBufferCounter
 15380 55e6 8F5F      		subi r24,lo8(-(1))
 15381 55e8 8093 0000 		sts pressureBufferCounter,r24
 15382               	.LM1602:
 15383 55ec 8A30      		cpi r24,lo8(10)
 15384 55ee 01F4      		brne .L941
 15385               	.LM1603:
 15386 55f0 1092 0000 		sts pressureBufferCounter,__zero_reg__
 15387               	.LM1604:
 15388 55f4 82E0      		ldi r24,lo8(2)
 15389 55f6 8093 0000 		sts pressureBufferToWriteTo,r24
 15390               	.LM1605:
 15391 55fa 81E0      		ldi r24,lo8(1)
 15392 55fc 8093 0000 		sts okToSendPressureBuffer1,r24
 15393 5600 00C0      		rjmp .L941
 15394               	.L938:
 15395               	.LM1606:
 15396 5602 8230      		cpi r24,lo8(2)
 15397 5604 01F4      		brne .L941
 15398               	.LM1607:
 15399 5606 8091 0000 		lds r24,pressureBufferCounter
 15400 560a 8823      		tst r24
 15401 560c 01F4      		brne .L940
 15402               	.LM1608:
 15403 560e 0E94 0000 		call Time_Get32BitTimer
 15404 5612 6093 0000 		sts pressureSampleStartTime2,r22
 15405 5616 7093 0000 		sts (pressureSampleStartTime2)+1,r23
 15406 561a 8093 0000 		sts (pressureSampleStartTime2)+2,r24
 15407 561e 9093 0000 		sts (pressureSampleStartTime2)+3,r25
 15408               	.L940:
 15409               	.LM1609:
 15410 5622 8091 0000 		lds r24,pressureBufferCounter
 15411 5626 C82F      		mov r28,r24
 15412 5628 D0E0      		ldi r29,lo8(0)
 15413 562a 0E94 0000 		call Sensors_ReadPressure
 15414 562e C050      		subi r28,lo8(-(pressureBuffer2))
 15415 5630 D040      		sbci r29,hi8(-(pressureBuffer2))
 15416 5632 8883      		st Y,r24
 15417               	.LM1610:
 15418 5634 8091 0000 		lds r24,pressureBufferCounter
 15419 5638 8F5F      		subi r24,lo8(-(1))
 15420 563a 8093 0000 		sts pressureBufferCounter,r24
 15421               	.LM1611:
 15422 563e 8A30      		cpi r24,lo8(10)
 15423 5640 01F4      		brne .L941
 15424               	.LM1612:
 15425 5642 1092 0000 		sts pressureBufferCounter,__zero_reg__
 15426               	.LM1613:
 15427 5646 81E0      		ldi r24,lo8(1)
 15428 5648 8093 0000 		sts pressureBufferToWriteTo,r24
 15429               	.LM1614:
 15430 564c 8093 0000 		sts okToSendPressureBuffer2,r24
 15431               	.L941:
 15432               	/* epilogue start */
 15433               	.LM1615:
 15434 5650 FF91      		pop r31
 15435 5652 EF91      		pop r30
 15436 5654 DF91      		pop r29
 15437 5656 CF91      		pop r28
 15438 5658 BF91      		pop r27
 15439 565a AF91      		pop r26
 15440 565c 9F91      		pop r25
 15441 565e 8F91      		pop r24
 15442 5660 7F91      		pop r23
 15443 5662 6F91      		pop r22
 15444 5664 5F91      		pop r21
 15445 5666 4F91      		pop r20
 15446 5668 3F91      		pop r19
 15447 566a 2F91      		pop r18
 15448 566c 0F90      		pop r0
 15449 566e 0BBE      		out 59-0,r0
 15450 5670 0F90      		pop r0
 15451 5672 0FBE      		out __SREG__,r0
 15452 5674 0F90      		pop r0
 15453 5676 1F90      		pop __zero_reg__
 15454 5678 1895      		reti
 15455               	.LFE137:
 15457               	.global	Clock_Init
 15459               	Clock_Init:
 15460               	.LFB139:
 15461               	.LM1616:
 15462 567a 0F93      		push r16
 15463 567c DF93      		push r29
 15464 567e CF93      		push r28
 15465 5680 0F92      		push __tmp_reg__
 15466 5682 CDB7      		in r28,__SP_L__
 15467 5684 DEB7      		in r29,__SP_H__
 15468               	/* prologue: function */
 15469               	/* frame size = 1 */
 15470               	.LM1617:
 15471 5686 80EC      		ldi r24,lo8(-64)
 15472 5688 E0E5      		ldi r30,lo8(80)
 15473 568a F0E0      		ldi r31,hi8(80)
 15474 568c 8283      		std Z+2,r24
 15475               	.LM1618:
 15476 568e 8091 5000 		lds r24,80
 15477 5692 8860      		ori r24,lo8(8)
 15478 5694 8093 5000 		sts 80,r24
 15479               	.L943:
 15480               	.LM1619:
 15481 5698 8091 5100 		lds r24,81
 15482 569c 83FF      		sbrs r24,3
 15483 569e 00C0      		rjmp .L943
 15484               	.LM1620:
 15485 56a0 2091 4000 		lds r18,64
 15486               	.LBB790:
 15487               	.LBB791:
 15488               	.LM1621:
 15489 56a4 8FB7      		in r24,__SREG__
 15490 56a6 8983      		std Y+1,r24
 15491               	.LVL1312:
 15492               	.LM1622:
 15493               	/* #APP */
 15494               	 ;  214 "sd.c" 1
 15495 56a8 F894      		cli
 15496               	 ;  0 "" 2
 15497               	.LM1623:
 15498               	/* #NOAPP */
 15499 56aa 1BBE      		out 59-0,__zero_reg__
 15500               	.LM1624:
 15501 56ac 287F      		andi r18,lo8(-8)
 15502 56ae 2360      		ori r18,lo8(3)
 15503 56b0 80E4      		ldi r24,lo8(64)
 15504 56b2 90E0      		ldi r25,hi8(64)
 15505               	/* #APP */
 15506               	 ;  236 "sd.c" 1
 15507 56b4 FC01      		movw r30,  r24
 15508 56b6 08ED      		ldi  r16,  216
 15509 56b8 04BF      		out   52, r16
 15510 56ba 2083      		st     Z,  r18
 15511               		
 15512               	 ;  0 "" 2
 15513               	.LM1625:
 15514               	/* #NOAPP */
 15515 56bc 8981      		ldd r24,Y+1
 15516 56be 8FBF      		out __SREG__,r24
 15517               	.LBE791:
 15518               	.LBE790:
 15519               	.LM1626:
 15520 56c0 8091 5000 		lds r24,80
 15521 56c4 8E7F      		andi r24,lo8(-2)
 15522 56c6 8093 5000 		sts 80,r24
 15523               	/* epilogue start */
 15524               	.LM1627:
 15525 56ca 0F90      		pop __tmp_reg__
 15526 56cc CF91      		pop r28
 15527 56ce DF91      		pop r29
 15528 56d0 0F91      		pop r16
 15529 56d2 0895      		ret
 15530               	.LFE139:
 15532               	.global	Disable_JTAG
 15534               	Disable_JTAG:
 15535               	.LFB140:
 15536               	.LM1628:
 15537 56d4 0F93      		push r16
 15538 56d6 DF93      		push r29
 15539 56d8 CF93      		push r28
 15540 56da 0F92      		push __tmp_reg__
 15541 56dc CDB7      		in r28,__SP_L__
 15542 56de DEB7      		in r29,__SP_H__
 15543               	/* prologue: function */
 15544               	/* frame size = 1 */
 15545               	.LBB792:
 15546               	.LBB793:
 15547               	.LM1629:
 15548 56e0 8FB7      		in r24,__SREG__
 15549 56e2 8983      		std Y+1,r24
 15550               	.LVL1313:
 15551               	.LM1630:
 15552               	/* #APP */
 15553               	 ;  214 "sd.c" 1
 15554 56e4 F894      		cli
 15555               	 ;  0 "" 2
 15556               	.LM1631:
 15557               	/* #NOAPP */
 15558 56e6 1BBE      		out 59-0,__zero_reg__
 15559               	.LM1632:
 15560 56e8 21E0      		ldi r18,lo8(1)
 15561 56ea 86E9      		ldi r24,lo8(150)
 15562 56ec 90E0      		ldi r25,hi8(150)
 15563               	/* #APP */
 15564               	 ;  236 "sd.c" 1
 15565 56ee FC01      		movw r30,  r24
 15566 56f0 08ED      		ldi  r16,  216
 15567 56f2 04BF      		out   52, r16
 15568 56f4 2083      		st     Z,  r18
 15569               		
 15570               	 ;  0 "" 2
 15571               	.LM1633:
 15572               	/* #NOAPP */
 15573 56f6 8981      		ldd r24,Y+1
 15574 56f8 8FBF      		out __SREG__,r24
 15575               	/* epilogue start */
 15576               	.LBE793:
 15577               	.LBE792:
 15578               	.LM1634:
 15579 56fa 0F90      		pop __tmp_reg__
 15580 56fc CF91      		pop r28
 15581 56fe DF91      		pop r29
 15582 5700 0F91      		pop r16
 15583 5702 0895      		ret
 15584               	.LFE140:
 15586               	.global	DMA_Init
 15588               	DMA_Init:
 15589               	.LFB141:
 15590               	.LM1635:
 15591               	/* prologue: function */
 15592               	/* frame size = 0 */
 15593               	.LM1636:
 15594 5704 E0E0      		ldi r30,lo8(256)
 15595 5706 F1E0      		ldi r31,hi8(256)
 15596 5708 8081      		ld r24,Z
 15597 570a 8068      		ori r24,lo8(-128)
 15598 570c 8083      		st Z,r24
 15599               	.LM1637:
 15600 570e 8289      		ldd r24,Z+18
 15601 5710 8560      		ori r24,lo8(5)
 15602 5712 828B      		std Z+18,r24
 15603               	.LM1638:
 15604 5714 8BE8      		ldi r24,lo8(-117)
 15605 5716 838B      		std Z+19,r24
 15606               	.LM1639:
 15607 5718 80E0      		ldi r24,lo8(1024)
 15608 571a 94E0      		ldi r25,hi8(1024)
 15609 571c 848B      		std Z+20,r24
 15610 571e 958B      		std Z+21,r25
 15611               	.LM1640:
 15612 5720 168A      		std Z+22,__zero_reg__
 15613               	.LM1641:
 15614 5722 80EA      		ldi r24,lo8(-96)
 15615 5724 808F      		std Z+24,r24
 15616               	.LM1642:
 15617 5726 8AE0      		ldi r24,lo8(10)
 15618 5728 818F      		std Z+25,r24
 15619               	.LM1643:
 15620 572a 128E      		std Z+26,__zero_reg__
 15621               	.LM1644:
 15622 572c 80E0      		ldi r24,lo8(WifiBuffer)
 15623 572e 90E0      		ldi r25,hi8(WifiBuffer)
 15624 5730 848F      		std Z+28,r24
 15625               	.LM1645:
 15626 5732 958F      		std Z+29,r25
 15627               	.LM1646:
 15628 5734 168E      		std Z+30,__zero_reg__
 15629               	.LM1647:
 15630 5736 8089      		ldd r24,Z+16
 15631 5738 846A      		ori r24,lo8(-92)
 15632 573a 808B      		std Z+16,r24
 15633               	/* epilogue start */
 15634               	.LM1648:
 15635 573c 0895      		ret
 15636               	.LFE141:
 15638               	.global	Interrupt_Init
 15640               	Interrupt_Init:
 15641               	.LFB142:
 15642               	.LM1649:
 15643               	/* prologue: function */
 15644               	/* frame size = 0 */
 15645               	.LM1650:
 15646 573e E0EA      		ldi r30,lo8(160)
 15647 5740 F0E0      		ldi r31,hi8(160)
 15648 5742 8281      		ldd r24,Z+2
 15649 5744 8760      		ori r24,lo8(7)
 15650 5746 8283      		std Z+2,r24
 15651               	.LM1651:
 15652               	/* #APP */
 15653               	 ;  242 "main.c" 1
 15654 5748 7894      		sei
 15655               	 ;  0 "" 2
 15656               	/* epilogue start */
 15657               	.LM1652:
 15658               	/* #NOAPP */
 15659 574a 0895      		ret
 15660               	.LFE142:
 15662               	.global	SD_BackroundWriter_Init
 15664               	SD_BackroundWriter_Init:
 15665               	.LFB143:
 15666               	.LM1653:
 15667               	/* prologue: function */
 15668               	/* frame size = 0 */
 15669               	.LM1654:
 15670 574c E0E4      		ldi r30,lo8(2624)
 15671 574e FAE0      		ldi r31,hi8(2624)
 15672 5750 84EC      		ldi r24,lo8(2500)
 15673 5752 99E0      		ldi r25,hi8(2500)
 15674 5754 86A3      		std Z+38,r24
 15675 5756 97A3      		std Z+39,r25
 15676               	.LM1655:
 15677 5758 8081      		ld r24,Z
 15678 575a 807F      		andi r24,lo8(-16)
 15679 575c 8560      		ori r24,lo8(5)
 15680 575e 8083      		st Z,r24
 15681               	.LM1656:
 15682 5760 8681      		ldd r24,Z+6
 15683 5762 8C7F      		andi r24,lo8(-4)
 15684 5764 8160      		ori r24,lo8(1)
 15685 5766 8683      		std Z+6,r24
 15686               	/* epilogue start */
 15687               	.LM1657:
 15688 5768 0895      		ret
 15689               	.LFE143:
 15691               	.global	SD_WriteRTCBlock
 15693               	SD_WriteRTCBlock:
 15694               	.LFB145:
 15695               	.LM1658:
 15696               	.LVL1314:
 15697 576a AF92      		push r10
 15698 576c BF92      		push r11
 15699 576e CF92      		push r12
 15700 5770 DF92      		push r13
 15701 5772 EF92      		push r14
 15702 5774 FF92      		push r15
 15703 5776 0F93      		push r16
 15704 5778 1F93      		push r17
 15705               	/* prologue: function */
 15706               	/* frame size = 0 */
 15707 577a 7B01      		movw r14,r22
 15708 577c 8C01      		movw r16,r24
 15709 577e 5901      		movw r10,r18
 15710 5780 6A01      		movw r12,r20
 15711               	.LBB794:
 15712               	.LBB795:
 15713               	.LM1659:
 15714 5782 8FEF      		ldi r24,lo8(-1)
 15715 5784 9FEF      		ldi r25,hi8(-1)
 15716 5786 AFEF      		ldi r26,hlo8(-1)
 15717 5788 BFEF      		ldi r27,hhi8(-1)
 15718 578a 8093 0000 		sts CRC,r24
 15719 578e 9093 0000 		sts (CRC)+1,r25
 15720 5792 A093 0000 		sts (CRC)+2,r26
 15721 5796 B093 0000 		sts (CRC)+3,r27
 15722               	.LBE795:
 15723               	.LBE794:
 15724               	.LM1660:
 15725 579a 6CE4      		ldi r22,lo8(-1327598516)
 15726 579c 74E7      		ldi r23,hi8(-1327598516)
 15727 579e 8EED      		ldi r24,hlo8(-1327598516)
 15728 57a0 90EB      		ldi r25,hhi8(-1327598516)
 15729               	.LVL1315:
 15730 57a2 0E94 0000 		call SD_Write32
 15731               	.LVL1316:
 15732               	.LM1661:
 15733 57a6 6BE1      		ldi r22,lo8(27)
 15734 57a8 70E0      		ldi r23,hi8(27)
 15735 57aa 80E0      		ldi r24,hlo8(27)
 15736 57ac 90E0      		ldi r25,hhi8(27)
 15737 57ae 0E94 0000 		call SD_Write32
 15738               	.LM1662:
 15739 57b2 82E0      		ldi r24,lo8(2)
 15740 57b4 90E0      		ldi r25,hi8(2)
 15741 57b6 0E94 0000 		call SD_Write16
 15742               	.LM1663:
 15743 57ba C801      		movw r24,r16
 15744 57bc B701      		movw r22,r14
 15745 57be 0E94 0000 		call SD_Write32
 15746               	.LM1664:
 15747 57c2 C601      		movw r24,r12
 15748 57c4 B501      		movw r22,r10
 15749 57c6 0E94 0000 		call SD_Write32
 15750               	.LM1665:
 15751 57ca 80E0      		ldi r24,lo8(0)
 15752 57cc 0E94 0000 		call SD_Write8
 15753               	.LM1666:
 15754 57d0 60E0      		ldi r22,lo8(0)
 15755 57d2 70E0      		ldi r23,hi8(0)
 15756 57d4 80E0      		ldi r24,hlo8(0)
 15757 57d6 90E0      		ldi r25,hhi8(0)
 15758 57d8 0E94 0000 		call SD_Write32
 15759               	.LM1667:
 15760 57dc 0E94 0000 		call SD_WriteCRC
 15761               	.LM1668:
 15762 57e0 80E0      		ldi r24,lo8(Log_File)
 15763 57e2 90E0      		ldi r25,hi8(Log_File)
 15764 57e4 0E94 0000 		call f_sync
 15765               	/* epilogue start */
 15766               	.LM1669:
 15767 57e8 1F91      		pop r17
 15768 57ea 0F91      		pop r16
 15769 57ec FF90      		pop r15
 15770 57ee EF90      		pop r14
 15771               	.LVL1317:
 15772 57f0 DF90      		pop r13
 15773 57f2 CF90      		pop r12
 15774 57f4 BF90      		pop r11
 15775 57f6 AF90      		pop r10
 15776               	.LVL1318:
 15777 57f8 0895      		ret
 15778               	.LFE145:
 15780               	.global	Rs232_To_Debug
 15782               	Rs232_To_Debug:
 15783               	.LFB152:
 15784               	.LM1670:
 15785               	/* prologue: function */
 15786               	/* frame size = 0 */
 15787               	.L964:
 15788               	.LBB796:
 15789               	.LBB797:
 15790               	.LM1671:
 15791 57fa 2091 0000 		lds r18,Rs232_writeLocation
 15792 57fe 3091 0000 		lds r19,(Rs232_writeLocation)+1
 15793 5802 8091 0000 		lds r24,Rs232_readLocation
 15794 5806 9091 0000 		lds r25,(Rs232_readLocation)+1
 15795 580a 2817      		cp r18,r24
 15796 580c 3907      		cpc r19,r25
 15797 580e 01F4      		brne .L965
 15798 5810 00C0      		rjmp .L964
 15799               	.L959:
 15800               	.LBE797:
 15801               	.LBE796:
 15802               	.LBB798:
 15803               	.LBB799:
 15804               	.LM1672:
 15805 5812 8091 A108 		lds r24,2209
 15806 5816 85FF      		sbrs r24,5
 15807 5818 00C0      		rjmp .L959
 15808               	.LM1673:
 15809 581a 9093 A008 		sts 2208,r25
 15810 581e 00C0      		rjmp .L964
 15811               	.L965:
 15812               	.LBE799:
 15813               	.LBE798:
 15814               	.LM1674:
 15815 5820 81E0      		ldi r24,lo8(1)
 15816 5822 0E94 0000 		call Rs232_GetByte
 15817 5826 982F      		mov r25,r24
 15818 5828 00C0      		rjmp .L959
 15819               	.LFE152:
 15821               	.global	Debug_To_Wifi
 15823               	Debug_To_Wifi:
 15824               	.LFB153:
 15825               	.LM1675:
 15826               	/* prologue: function */
 15827               	/* frame size = 0 */
 15828               	.L977:
 15829               	.LBB800:
 15830               	.LBB801:
 15831               	.LM1676:
 15832 582a 2091 0000 		lds r18,Debug_writeLocation
 15833 582e 3091 0000 		lds r19,(Debug_writeLocation)+1
 15834 5832 8091 0000 		lds r24,Debug_readLocation
 15835 5836 9091 0000 		lds r25,(Debug_readLocation)+1
 15836 583a 2817      		cp r18,r24
 15837 583c 3907      		cpc r19,r25
 15838 583e 01F4      		brne .L978
 15839 5840 00C0      		rjmp .L967
 15840               	.L969:
 15841               	.LBE801:
 15842               	.LBE800:
 15843               	.LBB802:
 15844               	.LBB803:
 15845               	.LM1677:
 15846 5842 8091 A10A 		lds r24,2721
 15847 5846 85FF      		sbrs r24,5
 15848 5848 00C0      		rjmp .L969
 15849               	.LM1678:
 15850 584a 9093 A00A 		sts 2720,r25
 15851               	.L967:
 15852               	.LBE803:
 15853               	.LBE802:
 15854               	.LM1679:
 15855 584e 0E94 0000 		call Wifi_CharReadyToRead
 15856 5852 8823      		tst r24
 15857 5854 01F0      		breq .L977
 15858               	.LM1680:
 15859 5856 81E0      		ldi r24,lo8(1)
 15860 5858 0E94 0000 		call Wifi_GetByte
 15861 585c 982F      		mov r25,r24
 15862               	.L971:
 15863               	.LBB804:
 15864               	.LBB805:
 15865               	.LM1681:
 15866 585e 8091 A108 		lds r24,2209
 15867 5862 85FF      		sbrs r24,5
 15868 5864 00C0      		rjmp .L971
 15869               	.LM1682:
 15870 5866 9093 A008 		sts 2208,r25
 15871 586a 00C0      		rjmp .L977
 15872               	.L978:
 15873               	.LBE805:
 15874               	.LBE804:
 15875               	.LM1683:
 15876 586c 81E0      		ldi r24,lo8(1)
 15877 586e 0E94 0000 		call Debug_GetByte
 15878 5872 982F      		mov r25,r24
 15879 5874 00C0      		rjmp .L969
 15880               	.LFE153:
 15882               		.data
 15883               	.LC1:
 15884 000b 2E62 7400 		.string	".bt"
 15885               		.text
 15886               	.global	SD_MakeFileName
 15888               	SD_MakeFileName:
 15889               	.LFB109:
 15890               	.LM1684:
 15891               	.LVL1319:
 15892 5876 0F93      		push r16
 15893 5878 1F93      		push r17
 15894               	/* prologue: function */
 15895               	/* frame size = 0 */
 15896               	.LM1685:
 15897 587a 00E0      		ldi r16,lo8(fileName)
 15898 587c 10E0      		ldi r17,hi8(fileName)
 15899 587e 2FE2      		ldi r18,lo8(47)
 15900 5880 2093 0000 		sts fileName,r18
 15901               	.LM1686:
 15902 5884 A801      		movw r20,r16
 15903 5886 4F5F      		subi r20,lo8(-(1))
 15904 5888 5F4F      		sbci r21,hi8(-(1))
 15905 588a 20E1      		ldi r18,lo8(16)
 15906 588c 30E0      		ldi r19,hi8(16)
 15907 588e 0E94 0000 		call ltoa
 15908               	.LVL1320:
 15909               	.LM1687:
 15910 5892 C801      		movw r24,r16
 15911 5894 60E0      		ldi r22,lo8(.LC1)
 15912 5896 70E0      		ldi r23,hi8(.LC1)
 15913 5898 0E94 0000 		call strcat
 15914               	/* epilogue start */
 15915               	.LM1688:
 15916 589c 1F91      		pop r17
 15917 589e 0F91      		pop r16
 15918 58a0 0895      		ret
 15919               	.LFE109:
 15921               	.global	SD_WriteString
 15923               	SD_WriteString:
 15924               	.LFB105:
 15925               	.LM1689:
 15926               	.LVL1321:
 15927 58a2 AF92      		push r10
 15928 58a4 BF92      		push r11
 15929 58a6 CF92      		push r12
 15930 58a8 DF92      		push r13
 15931 58aa EF92      		push r14
 15932 58ac FF92      		push r15
 15933 58ae 0F93      		push r16
 15934 58b0 1F93      		push r17
 15935 58b2 CF93      		push r28
 15936 58b4 DF93      		push r29
 15937               	/* prologue: function */
 15938               	/* frame size = 0 */
 15939 58b6 6C01      		movw r12,r24
 15940               	.LM1690:
 15941 58b8 60E0      		ldi r22,lo8(Log_File)
 15942 58ba 70E0      		ldi r23,hi8(Log_File)
 15943 58bc 0E94 0000 		call f_puts
 15944               	.LVL1322:
 15945 58c0 AA24      		clr r10
 15946               	.LVL1323:
 15947 58c2 00C0      		rjmp .L982
 15948               	.LVL1324:
 15949               	.L984:
 15950               	.LBB806:
 15951               	.LM1691:
 15952 58c4 2091 0000 		lds r18,CRC
 15953 58c8 3091 0000 		lds r19,(CRC)+1
 15954 58cc 4091 0000 		lds r20,(CRC)+2
 15955 58d0 5091 0000 		lds r21,(CRC)+3
 15956 58d4 CC0D      		add r28,r12
 15957 58d6 DD1D      		adc r29,r13
 15958 58d8 8881      		ld r24,Y
 15959 58da 90E0      		ldi r25,lo8(0)
 15960 58dc A0E0      		ldi r26,lo8(0)
 15961 58de B0E0      		ldi r27,hi8(0)
 15962 58e0 8227      		eor r24,r18
 15963 58e2 9327      		eor r25,r19
 15964 58e4 A427      		eor r26,r20
 15965 58e6 B527      		eor r27,r21
 15966 58e8 8093 0000 		sts CRC,r24
 15967 58ec 9093 0000 		sts (CRC)+1,r25
 15968 58f0 A093 0000 		sts (CRC)+2,r26
 15969 58f4 B093 0000 		sts (CRC)+3,r27
 15970 58f8 BB24      		clr r11
 15971               	.L983:
 15972               	.LBB807:
 15973               	.LM1692:
 15974 58fa E090 0000 		lds r14,CRC
 15975 58fe F090 0000 		lds r15,(CRC)+1
 15976 5902 0091 0000 		lds r16,(CRC)+2
 15977 5906 1091 0000 		lds r17,(CRC)+3
 15978 590a 6091 0000 		lds r22,CRC
 15979 590e 7091 0000 		lds r23,(CRC)+1
 15980 5912 8091 0000 		lds r24,(CRC)+2
 15981 5916 9091 0000 		lds r25,(CRC)+3
 15982 591a 6170      		andi r22,lo8(1)
 15983 591c 7070      		andi r23,hi8(1)
 15984 591e 8070      		andi r24,hlo8(1)
 15985 5920 9070      		andi r25,hhi8(1)
 15986 5922 20E2      		ldi r18,lo8(-306674912)
 15987 5924 33E8      		ldi r19,hi8(-306674912)
 15988 5926 48EB      		ldi r20,hlo8(-306674912)
 15989 5928 5DEE      		ldi r21,hhi8(-306674912)
 15990 592a 0E94 0000 		call __mulsi3
 15991 592e 1695      		lsr r17
 15992 5930 0795      		ror r16
 15993 5932 F794      		ror r15
 15994 5934 E794      		ror r14
 15995 5936 E626      		eor r14,r22
 15996 5938 F726      		eor r15,r23
 15997 593a 0827      		eor r16,r24
 15998 593c 1927      		eor r17,r25
 15999 593e E092 0000 		sts CRC,r14
 16000 5942 F092 0000 		sts (CRC)+1,r15
 16001 5946 0093 0000 		sts (CRC)+2,r16
 16002 594a 1093 0000 		sts (CRC)+3,r17
 16003               	.LM1693:
 16004 594e B394      		inc r11
 16005 5950 88E0      		ldi r24,lo8(8)
 16006 5952 B816      		cp r11,r24
 16007 5954 01F4      		brne .L983
 16008               	.LBE807:
 16009               	.LM1694:
 16010 5956 A394      		inc r10
 16011               	.L982:
 16012 5958 CA2D      		mov r28,r10
 16013 595a D0E0      		ldi r29,lo8(0)
 16014 595c F601      		movw r30,r12
 16015 595e 0190      		ld __tmp_reg__,Z+
 16016 5960 0020      		tst __tmp_reg__
 16017 5962 01F4      		brne .-6
 16018 5964 3197      		sbiw r30,1
 16019 5966 EC19      		sub r30,r12
 16020 5968 FD09      		sbc r31,r13
 16021 596a CE17      		cp r28,r30
 16022 596c DF07      		cpc r29,r31
 16023 596e 00F4      		brsh .+2
 16024 5970 00C0      		rjmp .L984
 16025               	/* epilogue start */
 16026               	.LBE806:
 16027               	.LM1695:
 16028 5972 DF91      		pop r29
 16029 5974 CF91      		pop r28
 16030 5976 1F91      		pop r17
 16031 5978 0F91      		pop r16
 16032 597a FF90      		pop r15
 16033 597c EF90      		pop r14
 16034 597e DF90      		pop r13
 16035 5980 CF90      		pop r12
 16036               	.LVL1325:
 16037 5982 BF90      		pop r11
 16038               	.LVL1326:
 16039 5984 AF90      		pop r10
 16040               	.LVL1327:
 16041 5986 0895      		ret
 16042               	.LFE105:
 16044               		.data
 16045               	.LC2:
 16046 000f 4D69 6372 		.string	"Microphone"
 16046      6F70 686F 
 16046      6E65 00
 16047               	.LC3:
 16048 001a 3800      		.string	"8"
 16049               		.text
 16050               	.global	SD_WriteMicrophoneBuffer
 16052               	SD_WriteMicrophoneBuffer:
 16053               	.LFB149:
 16054               	.LM1696:
 16055               	.LVL1328:
 16056 5988 1F93      		push r17
 16057 598a CF93      		push r28
 16058 598c DF93      		push r29
 16059               	/* prologue: function */
 16060               	/* frame size = 0 */
 16061 598e 182F      		mov r17,r24
 16062               	.LBB808:
 16063               	.LBB809:
 16064               	.LM1697:
 16065 5990 8FEF      		ldi r24,lo8(-1)
 16066 5992 9FEF      		ldi r25,hi8(-1)
 16067 5994 AFEF      		ldi r26,hlo8(-1)
 16068 5996 BFEF      		ldi r27,hhi8(-1)
 16069               	.LVL1329:
 16070 5998 8093 0000 		sts CRC,r24
 16071 599c 9093 0000 		sts (CRC)+1,r25
 16072 59a0 A093 0000 		sts (CRC)+2,r26
 16073 59a4 B093 0000 		sts (CRC)+3,r27
 16074               	.LBE809:
 16075               	.LBE808:
 16076               	.LM1698:
 16077 59a8 6CE4      		ldi r22,lo8(-1327598516)
 16078 59aa 74E7      		ldi r23,hi8(-1327598516)
 16079 59ac 8EED      		ldi r24,hlo8(-1327598516)
 16080 59ae 90EB      		ldi r25,hhi8(-1327598516)
 16081 59b0 0E94 0000 		call SD_Write32
 16082               	.LM1699:
 16083 59b4 60E1      		ldi r22,lo8(1040)
 16084 59b6 74E0      		ldi r23,hi8(1040)
 16085 59b8 80E0      		ldi r24,hlo8(1040)
 16086 59ba 90E0      		ldi r25,hhi8(1040)
 16087 59bc 0E94 0000 		call SD_Write32
 16088               	.LM1700:
 16089 59c0 83E0      		ldi r24,lo8(3)
 16090 59c2 90E0      		ldi r25,hi8(3)
 16091 59c4 0E94 0000 		call SD_Write16
 16092               	.LM1701:
 16093 59c8 1130      		cpi r17,lo8(1)
 16094 59ca 01F4      		brne .L988
 16095               	.LM1702:
 16096 59cc 6091 0000 		lds r22,temperatureSampleStartTime1
 16097 59d0 7091 0000 		lds r23,(temperatureSampleStartTime1)+1
 16098 59d4 8091 0000 		lds r24,(temperatureSampleStartTime1)+2
 16099 59d8 9091 0000 		lds r25,(temperatureSampleStartTime1)+3
 16100 59dc 00C0      		rjmp .L997
 16101               	.L988:
 16102               	.LM1703:
 16103 59de 6091 0000 		lds r22,temperatureSampleStartTime2
 16104 59e2 7091 0000 		lds r23,(temperatureSampleStartTime2)+1
 16105 59e6 8091 0000 		lds r24,(temperatureSampleStartTime2)+2
 16106 59ea 9091 0000 		lds r25,(temperatureSampleStartTime2)+3
 16107               	.L997:
 16108 59ee 0E94 0000 		call SD_Write32
 16109               	.LM1704:
 16110 59f2 68EE      		ldi r22,lo8(1000)
 16111 59f4 73E0      		ldi r23,hi8(1000)
 16112 59f6 80E0      		ldi r24,hlo8(1000)
 16113 59f8 90E0      		ldi r25,hhi8(1000)
 16114 59fa 0E94 0000 		call SD_Write32
 16115               	.LM1705:
 16116 59fe 68EE      		ldi r22,lo8(1000)
 16117 5a00 73E0      		ldi r23,hi8(1000)
 16118 5a02 80E0      		ldi r24,hlo8(1000)
 16119 5a04 90E0      		ldi r25,hhi8(1000)
 16120 5a06 0E94 0000 		call SD_Write32
 16121               	.LM1706:
 16122 5a0a 80E0      		ldi r24,lo8(.LC2)
 16123 5a0c 90E0      		ldi r25,hi8(.LC2)
 16124 5a0e 0E94 0000 		call SD_WriteString
 16125               	.LM1707:
 16126 5a12 89E0      		ldi r24,lo8(9)
 16127 5a14 0E94 0000 		call SD_Write8
 16128               	.LM1708:
 16129 5a18 80E0      		ldi r24,lo8(.LC3)
 16130 5a1a 90E0      		ldi r25,hi8(.LC3)
 16131 5a1c 0E94 0000 		call SD_WriteString
 16132               	.LM1709:
 16133 5a20 8AE0      		ldi r24,lo8(10)
 16134 5a22 0E94 0000 		call SD_Write8
 16135               	.LM1710:
 16136 5a26 80E0      		ldi r24,lo8(0)
 16137 5a28 0E94 0000 		call SD_Write8
 16138               	.LM1711:
 16139 5a2c 1130      		cpi r17,lo8(1)
 16140 5a2e 01F4      		brne .L990
 16141 5a30 C0E0      		ldi r28,lo8(microphoneBuffer1)
 16142 5a32 D0E0      		ldi r29,hi8(microphoneBuffer1)
 16143               	.L991:
 16144               	.LBB810:
 16145               	.LM1712:
 16146 5a34 8991      		ld r24,Y+
 16147 5a36 0E94 0000 		call SD_Write8
 16148               	.LM1713:
 16149 5a3a 80E0      		ldi r24,hi8(microphoneBuffer1+10)
 16150 5a3c C030      		cpi r28,lo8(microphoneBuffer1+10)
 16151 5a3e D807      		cpc r29,r24
 16152 5a40 01F4      		brne .L991
 16153 5a42 00C0      		rjmp .L992
 16154               	.L990:
 16155 5a44 C0E0      		ldi r28,lo8(microphoneBuffer2)
 16156 5a46 D0E0      		ldi r29,hi8(microphoneBuffer2)
 16157               	.L993:
 16158               	.LBE810:
 16159               	.LBB811:
 16160               	.LM1714:
 16161 5a48 8991      		ld r24,Y+
 16162 5a4a 0E94 0000 		call SD_Write8
 16163               	.LM1715:
 16164 5a4e 80E0      		ldi r24,hi8(microphoneBuffer2+10)
 16165 5a50 C030      		cpi r28,lo8(microphoneBuffer2+10)
 16166 5a52 D807      		cpc r29,r24
 16167 5a54 01F4      		brne .L993
 16168               	.L992:
 16169               	.LBE811:
 16170               	.LM1716:
 16171 5a56 0E94 0000 		call SD_WriteCRC
 16172               	.LM1717:
 16173 5a5a 80E0      		ldi r24,lo8(Log_File)
 16174 5a5c 90E0      		ldi r25,hi8(Log_File)
 16175 5a5e 0E94 0000 		call f_sync
 16176               	/* epilogue start */
 16177               	.LM1718:
 16178 5a62 DF91      		pop r29
 16179 5a64 CF91      		pop r28
 16180 5a66 1F91      		pop r17
 16181               	.LVL1330:
 16182 5a68 0895      		ret
 16183               	.LFE149:
 16185               		.data
 16186               	.LC4:
 16187 001c 5072 6573 		.string	"Pressure"
 16187      7375 7265 
 16187      00
 16188               		.text
 16189               	.global	SD_WritePressureBuffer
 16191               	SD_WritePressureBuffer:
 16192               	.LFB148:
 16193               	.LM1719:
 16194               	.LVL1331:
 16195 5a6a 1F93      		push r17
 16196 5a6c CF93      		push r28
 16197 5a6e DF93      		push r29
 16198               	/* prologue: function */
 16199               	/* frame size = 0 */
 16200 5a70 182F      		mov r17,r24
 16201               	.LBB812:
 16202               	.LBB813:
 16203               	.LM1720:
 16204 5a72 8FEF      		ldi r24,lo8(-1)
 16205 5a74 9FEF      		ldi r25,hi8(-1)
 16206 5a76 AFEF      		ldi r26,hlo8(-1)
 16207 5a78 BFEF      		ldi r27,hhi8(-1)
 16208               	.LVL1332:
 16209 5a7a 8093 0000 		sts CRC,r24
 16210 5a7e 9093 0000 		sts (CRC)+1,r25
 16211 5a82 A093 0000 		sts (CRC)+2,r26
 16212 5a86 B093 0000 		sts (CRC)+3,r27
 16213               	.LBE813:
 16214               	.LBE812:
 16215               	.LM1721:
 16216 5a8a 6CE4      		ldi r22,lo8(-1327598516)
 16217 5a8c 74E7      		ldi r23,hi8(-1327598516)
 16218 5a8e 8EED      		ldi r24,hlo8(-1327598516)
 16219 5a90 90EB      		ldi r25,hhi8(-1327598516)
 16220 5a92 0E94 0000 		call SD_Write32
 16221               	.LM1722:
 16222 5a96 60E3      		ldi r22,lo8(48)
 16223 5a98 70E0      		ldi r23,hi8(48)
 16224 5a9a 80E0      		ldi r24,hlo8(48)
 16225 5a9c 90E0      		ldi r25,hhi8(48)
 16226 5a9e 0E94 0000 		call SD_Write32
 16227               	.LM1723:
 16228 5aa2 83E0      		ldi r24,lo8(3)
 16229 5aa4 90E0      		ldi r25,hi8(3)
 16230 5aa6 0E94 0000 		call SD_Write16
 16231               	.LM1724:
 16232 5aaa 1130      		cpi r17,lo8(1)
 16233 5aac 01F4      		brne .L999
 16234               	.LM1725:
 16235 5aae 6091 0000 		lds r22,pressureSampleStartTime1
 16236 5ab2 7091 0000 		lds r23,(pressureSampleStartTime1)+1
 16237 5ab6 8091 0000 		lds r24,(pressureSampleStartTime1)+2
 16238 5aba 9091 0000 		lds r25,(pressureSampleStartTime1)+3
 16239 5abe 00C0      		rjmp .L1008
 16240               	.L999:
 16241               	.LM1726:
 16242 5ac0 6091 0000 		lds r22,pressureSampleStartTime2
 16243 5ac4 7091 0000 		lds r23,(pressureSampleStartTime2)+1
 16244 5ac8 8091 0000 		lds r24,(pressureSampleStartTime2)+2
 16245 5acc 9091 0000 		lds r25,(pressureSampleStartTime2)+3
 16246               	.L1008:
 16247 5ad0 0E94 0000 		call SD_Write32
 16248               	.LM1727:
 16249 5ad4 60E8      		ldi r22,lo8(2000000)
 16250 5ad6 74E8      		ldi r23,hi8(2000000)
 16251 5ad8 8EE1      		ldi r24,hlo8(2000000)
 16252 5ada 90E0      		ldi r25,hhi8(2000000)
 16253 5adc 0E94 0000 		call SD_Write32
 16254               	.LM1728:
 16255 5ae0 6AE0      		ldi r22,lo8(10)
 16256 5ae2 70E0      		ldi r23,hi8(10)
 16257 5ae4 80E0      		ldi r24,hlo8(10)
 16258 5ae6 90E0      		ldi r25,hhi8(10)
 16259 5ae8 0E94 0000 		call SD_Write32
 16260               	.LM1729:
 16261 5aec 80E0      		ldi r24,lo8(.LC4)
 16262 5aee 90E0      		ldi r25,hi8(.LC4)
 16263 5af0 0E94 0000 		call SD_WriteString
 16264               	.LM1730:
 16265 5af4 89E0      		ldi r24,lo8(9)
 16266 5af6 0E94 0000 		call SD_Write8
 16267               	.LM1731:
 16268 5afa 80E0      		ldi r24,lo8(.LC3)
 16269 5afc 90E0      		ldi r25,hi8(.LC3)
 16270 5afe 0E94 0000 		call SD_WriteString
 16271               	.LM1732:
 16272 5b02 8AE0      		ldi r24,lo8(10)
 16273 5b04 0E94 0000 		call SD_Write8
 16274               	.LM1733:
 16275 5b08 80E0      		ldi r24,lo8(0)
 16276 5b0a 0E94 0000 		call SD_Write8
 16277               	.LM1734:
 16278 5b0e 1130      		cpi r17,lo8(1)
 16279 5b10 01F4      		brne .L1001
 16280 5b12 C0E0      		ldi r28,lo8(pressureBuffer1)
 16281 5b14 D0E0      		ldi r29,hi8(pressureBuffer1)
 16282               	.L1002:
 16283               	.LBB814:
 16284               	.LM1735:
 16285 5b16 8991      		ld r24,Y+
 16286 5b18 0E94 0000 		call SD_Write8
 16287               	.LM1736:
 16288 5b1c 80E0      		ldi r24,hi8(pressureBuffer1+10)
 16289 5b1e C030      		cpi r28,lo8(pressureBuffer1+10)
 16290 5b20 D807      		cpc r29,r24
 16291 5b22 01F4      		brne .L1002
 16292 5b24 00C0      		rjmp .L1003
 16293               	.L1001:
 16294 5b26 C0E0      		ldi r28,lo8(pressureBuffer2)
 16295 5b28 D0E0      		ldi r29,hi8(pressureBuffer2)
 16296               	.L1004:
 16297               	.LBE814:
 16298               	.LBB815:
 16299               	.LM1737:
 16300 5b2a 8991      		ld r24,Y+
 16301 5b2c 0E94 0000 		call SD_Write8
 16302               	.LM1738:
 16303 5b30 80E0      		ldi r24,hi8(pressureBuffer2+10)
 16304 5b32 C030      		cpi r28,lo8(pressureBuffer2+10)
 16305 5b34 D807      		cpc r29,r24
 16306 5b36 01F4      		brne .L1004
 16307               	.L1003:
 16308               	.LBE815:
 16309               	.LM1739:
 16310 5b38 0E94 0000 		call SD_WriteCRC
 16311               	.LM1740:
 16312 5b3c 80E0      		ldi r24,lo8(Log_File)
 16313 5b3e 90E0      		ldi r25,hi8(Log_File)
 16314 5b40 0E94 0000 		call f_sync
 16315               	/* epilogue start */
 16316               	.LM1741:
 16317 5b44 DF91      		pop r29
 16318 5b46 CF91      		pop r28
 16319 5b48 1F91      		pop r17
 16320               	.LVL1333:
 16321 5b4a 0895      		ret
 16322               	.LFE148:
 16324               		.data
 16325               	.LC5:
 16326 0025 4875 6D69 		.string	"Humidity"
 16326      6469 7479 
 16326      00
 16327               		.text
 16328               	.global	SD_WriteHumidityBuffer
 16330               	SD_WriteHumidityBuffer:
 16331               	.LFB147:
 16332               	.LM1742:
 16333               	.LVL1334:
 16334 5b4c 1F93      		push r17
 16335 5b4e CF93      		push r28
 16336 5b50 DF93      		push r29
 16337               	/* prologue: function */
 16338               	/* frame size = 0 */
 16339 5b52 182F      		mov r17,r24
 16340               	.LBB816:
 16341               	.LBB817:
 16342               	.LM1743:
 16343 5b54 8FEF      		ldi r24,lo8(-1)
 16344 5b56 9FEF      		ldi r25,hi8(-1)
 16345 5b58 AFEF      		ldi r26,hlo8(-1)
 16346 5b5a BFEF      		ldi r27,hhi8(-1)
 16347               	.LVL1335:
 16348 5b5c 8093 0000 		sts CRC,r24
 16349 5b60 9093 0000 		sts (CRC)+1,r25
 16350 5b64 A093 0000 		sts (CRC)+2,r26
 16351 5b68 B093 0000 		sts (CRC)+3,r27
 16352               	.LBE817:
 16353               	.LBE816:
 16354               	.LM1744:
 16355 5b6c 6CE4      		ldi r22,lo8(-1327598516)
 16356 5b6e 74E7      		ldi r23,hi8(-1327598516)
 16357 5b70 8EED      		ldi r24,hlo8(-1327598516)
 16358 5b72 90EB      		ldi r25,hhi8(-1327598516)
 16359 5b74 0E94 0000 		call SD_Write32
 16360               	.LM1745:
 16361 5b78 60E3      		ldi r22,lo8(48)
 16362 5b7a 70E0      		ldi r23,hi8(48)
 16363 5b7c 80E0      		ldi r24,hlo8(48)
 16364 5b7e 90E0      		ldi r25,hhi8(48)
 16365 5b80 0E94 0000 		call SD_Write32
 16366               	.LM1746:
 16367 5b84 83E0      		ldi r24,lo8(3)
 16368 5b86 90E0      		ldi r25,hi8(3)
 16369 5b88 0E94 0000 		call SD_Write16
 16370               	.LM1747:
 16371 5b8c 1130      		cpi r17,lo8(1)
 16372 5b8e 01F4      		brne .L1010
 16373               	.LM1748:
 16374 5b90 6091 0000 		lds r22,humiditySampleStartTime1
 16375 5b94 7091 0000 		lds r23,(humiditySampleStartTime1)+1
 16376 5b98 8091 0000 		lds r24,(humiditySampleStartTime1)+2
 16377 5b9c 9091 0000 		lds r25,(humiditySampleStartTime1)+3
 16378 5ba0 00C0      		rjmp .L1019
 16379               	.L1010:
 16380               	.LM1749:
 16381 5ba2 6091 0000 		lds r22,humiditySampleStartTime2
 16382 5ba6 7091 0000 		lds r23,(humiditySampleStartTime2)+1
 16383 5baa 8091 0000 		lds r24,(humiditySampleStartTime2)+2
 16384 5bae 9091 0000 		lds r25,(humiditySampleStartTime2)+3
 16385               	.L1019:
 16386 5bb2 0E94 0000 		call SD_Write32
 16387               	.LM1750:
 16388 5bb6 60E8      		ldi r22,lo8(2000000)
 16389 5bb8 74E8      		ldi r23,hi8(2000000)
 16390 5bba 8EE1      		ldi r24,hlo8(2000000)
 16391 5bbc 90E0      		ldi r25,hhi8(2000000)
 16392 5bbe 0E94 0000 		call SD_Write32
 16393               	.LM1751:
 16394 5bc2 6AE0      		ldi r22,lo8(10)
 16395 5bc4 70E0      		ldi r23,hi8(10)
 16396 5bc6 80E0      		ldi r24,hlo8(10)
 16397 5bc8 90E0      		ldi r25,hhi8(10)
 16398 5bca 0E94 0000 		call SD_Write32
 16399               	.LM1752:
 16400 5bce 80E0      		ldi r24,lo8(.LC5)
 16401 5bd0 90E0      		ldi r25,hi8(.LC5)
 16402 5bd2 0E94 0000 		call SD_WriteString
 16403               	.LM1753:
 16404 5bd6 89E0      		ldi r24,lo8(9)
 16405 5bd8 0E94 0000 		call SD_Write8
 16406               	.LM1754:
 16407 5bdc 80E0      		ldi r24,lo8(.LC3)
 16408 5bde 90E0      		ldi r25,hi8(.LC3)
 16409 5be0 0E94 0000 		call SD_WriteString
 16410               	.LM1755:
 16411 5be4 8AE0      		ldi r24,lo8(10)
 16412 5be6 0E94 0000 		call SD_Write8
 16413               	.LM1756:
 16414 5bea 80E0      		ldi r24,lo8(0)
 16415 5bec 0E94 0000 		call SD_Write8
 16416               	.LM1757:
 16417 5bf0 1130      		cpi r17,lo8(1)
 16418 5bf2 01F4      		brne .L1012
 16419 5bf4 C0E0      		ldi r28,lo8(humidityBuffer1)
 16420 5bf6 D0E0      		ldi r29,hi8(humidityBuffer1)
 16421               	.L1013:
 16422               	.LBB818:
 16423               	.LM1758:
 16424 5bf8 8991      		ld r24,Y+
 16425 5bfa 0E94 0000 		call SD_Write8
 16426               	.LM1759:
 16427 5bfe 80E0      		ldi r24,hi8(humidityBuffer1+10)
 16428 5c00 C030      		cpi r28,lo8(humidityBuffer1+10)
 16429 5c02 D807      		cpc r29,r24
 16430 5c04 01F4      		brne .L1013
 16431 5c06 00C0      		rjmp .L1014
 16432               	.L1012:
 16433 5c08 C0E0      		ldi r28,lo8(humidityBuffer2)
 16434 5c0a D0E0      		ldi r29,hi8(humidityBuffer2)
 16435               	.L1015:
 16436               	.LBE818:
 16437               	.LBB819:
 16438               	.LM1760:
 16439 5c0c 8991      		ld r24,Y+
 16440 5c0e 0E94 0000 		call SD_Write8
 16441               	.LM1761:
 16442 5c12 80E0      		ldi r24,hi8(humidityBuffer2+10)
 16443 5c14 C030      		cpi r28,lo8(humidityBuffer2+10)
 16444 5c16 D807      		cpc r29,r24
 16445 5c18 01F4      		brne .L1015
 16446               	.L1014:
 16447               	.LBE819:
 16448               	.LM1762:
 16449 5c1a 0E94 0000 		call SD_WriteCRC
 16450               	.LM1763:
 16451 5c1e 80E0      		ldi r24,lo8(Log_File)
 16452 5c20 90E0      		ldi r25,hi8(Log_File)
 16453 5c22 0E94 0000 		call f_sync
 16454               	/* epilogue start */
 16455               	.LM1764:
 16456 5c26 DF91      		pop r29
 16457 5c28 CF91      		pop r28
 16458 5c2a 1F91      		pop r17
 16459               	.LVL1336:
 16460 5c2c 0895      		ret
 16461               	.LFE147:
 16463               		.data
 16464               	.LC6:
 16465 002e 5465 6D70 		.string	"Temperature"
 16465      6572 6174 
 16465      7572 6500 
 16466               	.LC7:
 16467 003a 3136 00   		.string	"16"
 16468               		.text
 16469               	.global	SD_WriteTemperatureBuffer
 16471               	SD_WriteTemperatureBuffer:
 16472               	.LFB146:
 16473               	.LM1765:
 16474               	.LVL1337:
 16475 5c2e 1F93      		push r17
 16476 5c30 CF93      		push r28
 16477 5c32 DF93      		push r29
 16478               	/* prologue: function */
 16479               	/* frame size = 0 */
 16480 5c34 182F      		mov r17,r24
 16481               	.LBB820:
 16482               	.LBB821:
 16483               	.LM1766:
 16484 5c36 8FEF      		ldi r24,lo8(-1)
 16485 5c38 9FEF      		ldi r25,hi8(-1)
 16486 5c3a AFEF      		ldi r26,hlo8(-1)
 16487 5c3c BFEF      		ldi r27,hhi8(-1)
 16488               	.LVL1338:
 16489 5c3e 8093 0000 		sts CRC,r24
 16490 5c42 9093 0000 		sts (CRC)+1,r25
 16491 5c46 A093 0000 		sts (CRC)+2,r26
 16492 5c4a B093 0000 		sts (CRC)+3,r27
 16493               	.LBE821:
 16494               	.LBE820:
 16495               	.LM1767:
 16496 5c4e 6CE4      		ldi r22,lo8(-1327598516)
 16497 5c50 74E7      		ldi r23,hi8(-1327598516)
 16498 5c52 8EED      		ldi r24,hlo8(-1327598516)
 16499 5c54 90EB      		ldi r25,hhi8(-1327598516)
 16500 5c56 0E94 0000 		call SD_Write32
 16501               	.LM1768:
 16502 5c5a 6EE3      		ldi r22,lo8(62)
 16503 5c5c 70E0      		ldi r23,hi8(62)
 16504 5c5e 80E0      		ldi r24,hlo8(62)
 16505 5c60 90E0      		ldi r25,hhi8(62)
 16506 5c62 0E94 0000 		call SD_Write32
 16507               	.LM1769:
 16508 5c66 83E0      		ldi r24,lo8(3)
 16509 5c68 90E0      		ldi r25,hi8(3)
 16510 5c6a 0E94 0000 		call SD_Write16
 16511               	.LM1770:
 16512 5c6e 1130      		cpi r17,lo8(1)
 16513 5c70 01F4      		brne .L1021
 16514               	.LM1771:
 16515 5c72 6091 0000 		lds r22,temperatureSampleStartTime1
 16516 5c76 7091 0000 		lds r23,(temperatureSampleStartTime1)+1
 16517 5c7a 8091 0000 		lds r24,(temperatureSampleStartTime1)+2
 16518 5c7e 9091 0000 		lds r25,(temperatureSampleStartTime1)+3
 16519 5c82 00C0      		rjmp .L1030
 16520               	.L1021:
 16521               	.LM1772:
 16522 5c84 6091 0000 		lds r22,temperatureSampleStartTime2
 16523 5c88 7091 0000 		lds r23,(temperatureSampleStartTime2)+1
 16524 5c8c 8091 0000 		lds r24,(temperatureSampleStartTime2)+2
 16525 5c90 9091 0000 		lds r25,(temperatureSampleStartTime2)+3
 16526               	.L1030:
 16527 5c94 0E94 0000 		call SD_Write32
 16528               	.LM1773:
 16529 5c98 60E8      		ldi r22,lo8(2000000)
 16530 5c9a 74E8      		ldi r23,hi8(2000000)
 16531 5c9c 8EE1      		ldi r24,hlo8(2000000)
 16532 5c9e 90E0      		ldi r25,hhi8(2000000)
 16533 5ca0 0E94 0000 		call SD_Write32
 16534               	.LM1774:
 16535 5ca4 6AE0      		ldi r22,lo8(10)
 16536 5ca6 70E0      		ldi r23,hi8(10)
 16537 5ca8 80E0      		ldi r24,hlo8(10)
 16538 5caa 90E0      		ldi r25,hhi8(10)
 16539 5cac 0E94 0000 		call SD_Write32
 16540               	.LM1775:
 16541 5cb0 80E0      		ldi r24,lo8(.LC6)
 16542 5cb2 90E0      		ldi r25,hi8(.LC6)
 16543 5cb4 0E94 0000 		call SD_WriteString
 16544               	.LM1776:
 16545 5cb8 89E0      		ldi r24,lo8(9)
 16546 5cba 0E94 0000 		call SD_Write8
 16547               	.LM1777:
 16548 5cbe 80E0      		ldi r24,lo8(.LC7)
 16549 5cc0 90E0      		ldi r25,hi8(.LC7)
 16550 5cc2 0E94 0000 		call SD_WriteString
 16551               	.LM1778:
 16552 5cc6 8AE0      		ldi r24,lo8(10)
 16553 5cc8 0E94 0000 		call SD_Write8
 16554               	.LM1779:
 16555 5ccc 80E0      		ldi r24,lo8(0)
 16556 5cce 0E94 0000 		call SD_Write8
 16557               	.LM1780:
 16558 5cd2 1130      		cpi r17,lo8(1)
 16559 5cd4 01F4      		brne .L1023
 16560 5cd6 C0E0      		ldi r28,lo8(temperatureBuffer1)
 16561 5cd8 D0E0      		ldi r29,hi8(temperatureBuffer1)
 16562               	.L1024:
 16563               	.LBB822:
 16564               	.LM1781:
 16565 5cda 8991      		ld r24,Y+
 16566 5cdc 9991      		ld r25,Y+
 16567 5cde 0E94 0000 		call SD_Write16
 16568               	.LM1782:
 16569 5ce2 80E0      		ldi r24,hi8(temperatureBuffer1+20)
 16570 5ce4 C030      		cpi r28,lo8(temperatureBuffer1+20)
 16571 5ce6 D807      		cpc r29,r24
 16572 5ce8 01F4      		brne .L1024
 16573 5cea 00C0      		rjmp .L1025
 16574               	.L1023:
 16575 5cec C0E0      		ldi r28,lo8(temperatureBuffer2)
 16576 5cee D0E0      		ldi r29,hi8(temperatureBuffer2)
 16577               	.L1026:
 16578               	.LBE822:
 16579               	.LBB823:
 16580               	.LM1783:
 16581 5cf0 8991      		ld r24,Y+
 16582 5cf2 9991      		ld r25,Y+
 16583 5cf4 0E94 0000 		call SD_Write16
 16584               	.LM1784:
 16585 5cf8 80E0      		ldi r24,hi8(temperatureBuffer2+20)
 16586 5cfa C030      		cpi r28,lo8(temperatureBuffer2+20)
 16587 5cfc D807      		cpc r29,r24
 16588 5cfe 01F4      		brne .L1026
 16589               	.L1025:
 16590               	.LBE823:
 16591               	.LM1785:
 16592 5d00 0E94 0000 		call SD_WriteCRC
 16593               	.LM1786:
 16594 5d04 80E0      		ldi r24,lo8(Log_File)
 16595 5d06 90E0      		ldi r25,hi8(Log_File)
 16596 5d08 0E94 0000 		call f_sync
 16597               	/* epilogue start */
 16598               	.LM1787:
 16599 5d0c DF91      		pop r29
 16600 5d0e CF91      		pop r28
 16601 5d10 1F91      		pop r17
 16602               	.LVL1339:
 16603 5d12 0895      		ret
 16604               	.LFE146:
 16606               	.global	Rs232_SendString
 16608               	Rs232_SendString:
 16609               	.LFB35:
 16610               	.LM1788:
 16611               	.LVL1340:
 16612               	/* prologue: function */
 16613               	/* frame size = 0 */
 16614 5d14 9C01      		movw r18,r24
 16615               	.LBB824:
 16616               	.LM1789:
 16617 5d16 DC01      		movw r26,r24
 16618 5d18 0D90      		ld __tmp_reg__,X+
 16619 5d1a 0020      		tst __tmp_reg__
 16620 5d1c 01F4      		brne .-6
 16621 5d1e 1197      		sbiw r26,1
 16622 5d20 A81B      		sub r26,r24
 16623 5d22 B90B      		sbc r27,r25
 16624 5d24 90E0      		ldi r25,lo8(0)
 16625               	.LVL1341:
 16626 5d26 00C0      		rjmp .L1032
 16627               	.L1034:
 16628               	.LM1790:
 16629 5d28 E20F      		add r30,r18
 16630 5d2a F31F      		adc r31,r19
 16631 5d2c 4081      		ld r20,Z
 16632               	.LVL1342:
 16633               	.L1033:
 16634               	.LBB825:
 16635               	.LBB826:
 16636               	.LM1791:
 16637 5d2e 8091 A109 		lds r24,2465
 16638 5d32 85FF      		sbrs r24,5
 16639 5d34 00C0      		rjmp .L1033
 16640               	.LM1792:
 16641 5d36 4093 A009 		sts 2464,r20
 16642               	.LBE826:
 16643               	.LBE825:
 16644               	.LM1793:
 16645 5d3a 9F5F      		subi r25,lo8(-(1))
 16646               	.LVL1343:
 16647               	.L1032:
 16648 5d3c E92F      		mov r30,r25
 16649 5d3e F0E0      		ldi r31,lo8(0)
 16650 5d40 EA17      		cp r30,r26
 16651 5d42 FB07      		cpc r31,r27
 16652 5d44 00F0      		brlo .L1034
 16653               	.LVL1344:
 16654               	.LBE824:
 16655               	.LM1794:
 16656 5d46 6623      		tst r22
 16657 5d48 01F0      		breq .L1038
 16658               	.L1039:
 16659               	.LBB827:
 16660               	.LBB828:
 16661               	.LM1795:
 16662 5d4a 8091 A109 		lds r24,2465
 16663               	.LVL1345:
 16664 5d4e 85FF      		sbrs r24,5
 16665 5d50 00C0      		rjmp .L1039
 16666               	.LM1796:
 16667 5d52 8DE0      		ldi r24,lo8(13)
 16668 5d54 8093 A009 		sts 2464,r24
 16669               	.L1037:
 16670               	.LBE828:
 16671               	.LBE827:
 16672               	.LBB829:
 16673               	.LBB830:
 16674               	.LM1797:
 16675 5d58 8091 A109 		lds r24,2465
 16676 5d5c 85FF      		sbrs r24,5
 16677 5d5e 00C0      		rjmp .L1037
 16678               	.LM1798:
 16679 5d60 8AE0      		ldi r24,lo8(10)
 16680 5d62 8093 A009 		sts 2464,r24
 16681               	.LVL1346:
 16682               	.L1038:
 16683 5d66 0895      		ret
 16684               	.LBE830:
 16685               	.LBE829:
 16686               	.LFE35:
 16688               	.global	Wifi_SendString
 16690               	Wifi_SendString:
 16691               	.LFB17:
 16692               	.LM1799:
 16693               	.LVL1347:
 16694               	/* prologue: function */
 16695               	/* frame size = 0 */
 16696 5d68 9C01      		movw r18,r24
 16697               	.LBB831:
 16698               	.LM1800:
 16699 5d6a DC01      		movw r26,r24
 16700 5d6c 0D90      		ld __tmp_reg__,X+
 16701 5d6e 0020      		tst __tmp_reg__
 16702 5d70 01F4      		brne .-6
 16703 5d72 1197      		sbiw r26,1
 16704 5d74 A81B      		sub r26,r24
 16705 5d76 B90B      		sbc r27,r25
 16706 5d78 90E0      		ldi r25,lo8(0)
 16707               	.LVL1348:
 16708 5d7a 00C0      		rjmp .L1044
 16709               	.L1046:
 16710               	.LM1801:
 16711 5d7c E20F      		add r30,r18
 16712 5d7e F31F      		adc r31,r19
 16713 5d80 4081      		ld r20,Z
 16714               	.LVL1349:
 16715               	.L1045:
 16716               	.LBB832:
 16717               	.LBB833:
 16718               	.LM1802:
 16719 5d82 8091 A10A 		lds r24,2721
 16720 5d86 85FF      		sbrs r24,5
 16721 5d88 00C0      		rjmp .L1045
 16722               	.LM1803:
 16723 5d8a 4093 A00A 		sts 2720,r20
 16724               	.LBE833:
 16725               	.LBE832:
 16726               	.LM1804:
 16727 5d8e 9F5F      		subi r25,lo8(-(1))
 16728               	.LVL1350:
 16729               	.L1044:
 16730 5d90 E92F      		mov r30,r25
 16731 5d92 F0E0      		ldi r31,lo8(0)
 16732 5d94 EA17      		cp r30,r26
 16733 5d96 FB07      		cpc r31,r27
 16734 5d98 00F0      		brlo .L1046
 16735               	.LVL1351:
 16736               	.LBE831:
 16737               	.LM1805:
 16738 5d9a 6623      		tst r22
 16739 5d9c 01F0      		breq .L1050
 16740               	.L1051:
 16741               	.LBB834:
 16742               	.LBB835:
 16743               	.LM1806:
 16744 5d9e 8091 A10A 		lds r24,2721
 16745               	.LVL1352:
 16746 5da2 85FF      		sbrs r24,5
 16747 5da4 00C0      		rjmp .L1051
 16748               	.LM1807:
 16749 5da6 8DE0      		ldi r24,lo8(13)
 16750 5da8 8093 A00A 		sts 2720,r24
 16751               	.L1049:
 16752               	.LBE835:
 16753               	.LBE834:
 16754               	.LBB836:
 16755               	.LBB837:
 16756               	.LM1808:
 16757 5dac 8091 A10A 		lds r24,2721
 16758 5db0 85FF      		sbrs r24,5
 16759 5db2 00C0      		rjmp .L1049
 16760               	.LM1809:
 16761 5db4 8AE0      		ldi r24,lo8(10)
 16762 5db6 8093 A00A 		sts 2720,r24
 16763               	.LVL1353:
 16764               	.L1050:
 16765 5dba 0895      		ret
 16766               	.LBE837:
 16767               	.LBE836:
 16768               	.LFE17:
 16770               		.data
 16771               	.LC9:
 16772 003d 2424 2400 		.string	"$$$"
 16773               	.LC8:
 16774 0041 434D 4400 		.string	"CMD"
 16775               		.text
 16776               	.global	Wifi_EnterCMDMode
 16778               	Wifi_EnterCMDMode:
 16779               	.LFB18:
 16780               	.LM1810:
 16781               	.LVL1354:
 16782 5dbc 8F92      		push r8
 16783 5dbe 9F92      		push r9
 16784 5dc0 AF92      		push r10
 16785 5dc2 BF92      		push r11
 16786 5dc4 CF92      		push r12
 16787 5dc6 DF92      		push r13
 16788 5dc8 FF92      		push r15
 16789 5dca 0F93      		push r16
 16790 5dcc 1F93      		push r17
 16791 5dce DF93      		push r29
 16792 5dd0 CF93      		push r28
 16793 5dd2 00D0      		rcall .
 16794 5dd4 00D0      		rcall .
 16795 5dd6 CDB7      		in r28,__SP_L__
 16796 5dd8 DEB7      		in r29,__SP_H__
 16797               	/* prologue: function */
 16798               	/* frame size = 6 */
 16799 5dda 6C01      		movw r12,r24
 16800               	.LM1811:
 16801 5ddc DE01      		movw r26,r28
 16802 5dde 1496      		adiw r26,4
 16803 5de0 E0E0      		ldi r30,lo8(.LC8)
 16804 5de2 F0E0      		ldi r31,hi8(.LC8)
 16805 5de4 83E0      		ldi r24,lo8(3)
 16806               	.LVL1355:
 16807               	.L1056:
 16808 5de6 0190      		ld r0,Z+
 16809 5de8 0D92      		st X+,r0
 16810 5dea 8150      		subi r24,lo8(-(-1))
 16811 5dec 01F4      		brne .L1056
 16812               	.LM1812:
 16813 5dee 0E94 0000 		call Wifi_ClearBuffer
 16814               	.LM1813:
 16815 5df2 80E0      		ldi r24,lo8(.LC9)
 16816 5df4 90E0      		ldi r25,hi8(.LC9)
 16817 5df6 60E0      		ldi r22,lo8(0)
 16818 5df8 0E94 0000 		call Wifi_SendString
 16819 5dfc FF24      		clr r15
 16820               	.LVL1356:
 16821 5dfe 00E0      		ldi r16,lo8(0)
 16822 5e00 10E0      		ldi r17,hi8(0)
 16823               	.LVL1357:
 16824               	.LBB838:
 16825               	.LM1814:
 16826 5e02 4E01      		movw r8,r28
 16827 5e04 0894      		sec
 16828 5e06 811C      		adc r8,__zero_reg__
 16829 5e08 911C      		adc r9,__zero_reg__
 16830               	.LBB839:
 16831               	.LBB840:
 16832               	.LBB841:
 16833               	.LBB842:
 16834               	.LM1815:
 16835 5e0a 30EA      		ldi r19,lo8(4000)
 16836 5e0c A32E      		mov r10,r19
 16837 5e0e 3FE0      		ldi r19,hi8(4000)
 16838 5e10 B32E      		mov r11,r19
 16839 5e12 00C0      		rjmp .L1057
 16840               	.LVL1358:
 16841               	.L1062:
 16842               	.LBE842:
 16843               	.LBE841:
 16844               	.LBE840:
 16845               	.LBE839:
 16846               	.LM1816:
 16847 5e14 0E94 0000 		call Wifi_CharReadyToRead
 16848               	.LVL1359:
 16849 5e18 8823      		tst r24
 16850 5e1a 01F0      		breq .L1058
 16851               	.LM1817:
 16852 5e1c 80E0      		ldi r24,lo8(0)
 16853 5e1e 0E94 0000 		call Wifi_GetByte
 16854 5e22 F401      		movw r30,r8
 16855 5e24 EF0D      		add r30,r15
 16856 5e26 F11D      		adc r31,__zero_reg__
 16857 5e28 8083      		st Z,r24
 16858               	.LM1818:
 16859 5e2a F394      		inc r15
 16860               	.LM1819:
 16861 5e2c 82E0      		ldi r24,lo8(2)
 16862 5e2e 8F15      		cp r24,r15
 16863 5e30 00F4      		brsh .L1058
 16864               	.LBB846:
 16865               	.LM1820:
 16866 5e32 9981      		ldd r25,Y+1
 16867 5e34 8C81      		ldd r24,Y+4
 16868 5e36 9817      		cp r25,r24
 16869 5e38 01F4      		brne .L1059
 16870 5e3a 9A81      		ldd r25,Y+2
 16871 5e3c 8D81      		ldd r24,Y+5
 16872 5e3e 9817      		cp r25,r24
 16873 5e40 01F4      		brne .L1059
 16874 5e42 20E0      		ldi r18,lo8(0)
 16875 5e44 9B81      		ldd r25,Y+3
 16876 5e46 8E81      		ldd r24,Y+6
 16877 5e48 9817      		cp r25,r24
 16878 5e4a 01F4      		brne .L1061
 16879 5e4c 21E0      		ldi r18,lo8(1)
 16880 5e4e 00C0      		rjmp .L1061
 16881               	.L1058:
 16882               	.LBE846:
 16883               	.LBB847:
 16884               	.LBB845:
 16885               	.LBB844:
 16886               	.LBB843:
 16887               	.LM1821:
 16888 5e50 C501      		movw r24,r10
 16889               	.LVL1360:
 16890               	/* #APP */
 16891               	 ;  105 "/usr/local/CrossPack-AVR-20100115/lib/gcc/avr/4.3.3/../../../../avr/include/util/delay_bas
 16892 5e52 0197      		1: sbiw r24,1
 16893 5e54 01F4      		brne 1b
 16894               	 ;  0 "" 2
 16895               	/* #NOAPP */
 16896               	.LBE843:
 16897               	.LBE844:
 16898               	.LBE845:
 16899               	.LBE847:
 16900               	.LM1822:
 16901 5e56 0F5F      		subi r16,lo8(-(1))
 16902 5e58 1F4F      		sbci r17,hi8(-(1))
 16903               	.L1057:
 16904 5e5a 0C15      		cp r16,r12
 16905 5e5c 1D05      		cpc r17,r13
 16906 5e5e 00F0      		brlo .L1062
 16907               	.L1059:
 16908 5e60 20E0      		ldi r18,lo8(0)
 16909               	.L1061:
 16910               	.LBE838:
 16911               	.LM1823:
 16912 5e62 822F      		mov r24,r18
 16913               	.LVL1361:
 16914               	/* epilogue start */
 16915 5e64 2696      		adiw r28,6
 16916 5e66 CDBF      		out __SP_L__,r28
 16917 5e68 DEBF      		out __SP_H__,r29
 16918 5e6a CF91      		pop r28
 16919 5e6c DF91      		pop r29
 16920 5e6e 1F91      		pop r17
 16921 5e70 0F91      		pop r16
 16922               	.LVL1362:
 16923 5e72 FF90      		pop r15
 16924               	.LVL1363:
 16925 5e74 DF90      		pop r13
 16926 5e76 CF90      		pop r12
 16927               	.LVL1364:
 16928 5e78 BF90      		pop r11
 16929 5e7a AF90      		pop r10
 16930 5e7c 9F90      		pop r9
 16931 5e7e 8F90      		pop r8
 16932 5e80 0895      		ret
 16933               	.LFE18:
 16935               	.global	Debug_SendString
 16937               	Debug_SendString:
 16938               	.LFB10:
 16939               	.LM1824:
 16940               	.LVL1365:
 16941               	/* prologue: function */
 16942               	/* frame size = 0 */
 16943 5e82 9C01      		movw r18,r24
 16944               	.LBB848:
 16945               	.LM1825:
 16946 5e84 DC01      		movw r26,r24
 16947 5e86 0D90      		ld __tmp_reg__,X+
 16948 5e88 0020      		tst __tmp_reg__
 16949 5e8a 01F4      		brne .-6
 16950 5e8c 1197      		sbiw r26,1
 16951 5e8e A81B      		sub r26,r24
 16952 5e90 B90B      		sbc r27,r25
 16953 5e92 90E0      		ldi r25,lo8(0)
 16954               	.LVL1366:
 16955 5e94 00C0      		rjmp .L1066
 16956               	.L1068:
 16957               	.LM1826:
 16958 5e96 E20F      		add r30,r18
 16959 5e98 F31F      		adc r31,r19
 16960 5e9a 4081      		ld r20,Z
 16961               	.LVL1367:
 16962               	.L1067:
 16963               	.LBB849:
 16964               	.LBB850:
 16965               	.LM1827:
 16966 5e9c 8091 A108 		lds r24,2209
 16967 5ea0 85FF      		sbrs r24,5
 16968 5ea2 00C0      		rjmp .L1067
 16969               	.LM1828:
 16970 5ea4 4093 A008 		sts 2208,r20
 16971               	.LBE850:
 16972               	.LBE849:
 16973               	.LM1829:
 16974 5ea8 9F5F      		subi r25,lo8(-(1))
 16975               	.LVL1368:
 16976               	.L1066:
 16977 5eaa E92F      		mov r30,r25
 16978 5eac F0E0      		ldi r31,lo8(0)
 16979 5eae EA17      		cp r30,r26
 16980 5eb0 FB07      		cpc r31,r27
 16981 5eb2 00F0      		brlo .L1068
 16982               	.LVL1369:
 16983               	.LBE848:
 16984               	.LM1830:
 16985 5eb4 6623      		tst r22
 16986 5eb6 01F0      		breq .L1072
 16987               	.L1073:
 16988               	.LBB851:
 16989               	.LBB852:
 16990               	.LM1831:
 16991 5eb8 8091 A108 		lds r24,2209
 16992               	.LVL1370:
 16993 5ebc 85FF      		sbrs r24,5
 16994 5ebe 00C0      		rjmp .L1073
 16995               	.LM1832:
 16996 5ec0 8DE0      		ldi r24,lo8(13)
 16997 5ec2 8093 A008 		sts 2208,r24
 16998               	.L1071:
 16999               	.LBE852:
 17000               	.LBE851:
 17001               	.LBB853:
 17002               	.LBB854:
 17003               	.LM1833:
 17004 5ec6 8091 A108 		lds r24,2209
 17005 5eca 85FF      		sbrs r24,5
 17006 5ecc 00C0      		rjmp .L1071
 17007               	.LM1834:
 17008 5ece 8AE0      		ldi r24,lo8(10)
 17009 5ed0 8093 A008 		sts 2208,r24
 17010               	.LVL1371:
 17011               	.L1072:
 17012 5ed4 0895      		ret
 17013               	.LBE854:
 17014               	.LBE853:
 17015               	.LFE10:
 17017               		.data
 17018               	.LC10:
 17019 0045 5420 4275 		.string	"T Buffer1"
 17019      6666 6572 
 17019      3100 
 17020               	.LC11:
 17021 004f 5420 4275 		.string	"T Buffer2"
 17021      6666 6572 
 17021      3200 
 17022               	.LC12:
 17023 0059 4820 4275 		.string	"H Buffer1"
 17023      6666 6572 
 17023      3100 
 17024               	.LC13:
 17025 0063 4820 4275 		.string	"H Buffer2"
 17025      6666 6572 
 17025      3200 
 17026               	.LC14:
 17027 006d 5020 4275 		.string	"P Buffer1"
 17027      6666 6572 
 17027      3100 
 17028               	.LC15:
 17029 0077 5020 4275 		.string	"P Buffer2"
 17029      6666 6572 
 17029      3200 
 17030               	.LC16:
 17031 0081 5254 4320 		.string	"RTC Block: "
 17031      426C 6F63 
 17031      6B3A 2000 
 17032               	.LC17:
 17033 008d 2C20 00   		.string	", "
 17034               		.text
 17035               	.global	__vector_53
 17037               	__vector_53:
 17038               	.LFB144:
 17039               	.LM1835:
 17040 5ed6 1F92      		push __zero_reg__
 17041 5ed8 0F92      		push r0
 17042 5eda 0FB6      		in r0,__SREG__
 17043 5edc 0F92      		push r0
 17044 5ede 0BB6      		in r0,59-0
 17045 5ee0 0F92      		push r0
 17046 5ee2 1124      		clr __zero_reg__
 17047 5ee4 2F93      		push r18
 17048 5ee6 3F93      		push r19
 17049 5ee8 4F93      		push r20
 17050 5eea 5F93      		push r21
 17051 5eec 6F93      		push r22
 17052 5eee 7F93      		push r23
 17053 5ef0 8F93      		push r24
 17054 5ef2 9F93      		push r25
 17055 5ef4 AF93      		push r26
 17056 5ef6 BF93      		push r27
 17057 5ef8 EF93      		push r30
 17058 5efa FF93      		push r31
 17059               	/* prologue: Signal */
 17060               	/* frame size = 0 */
 17061               	.LM1836:
 17062 5efc 8091 0000 		lds r24,okToSendMicrophoneBuffer1
 17063 5f00 8823      		tst r24
 17064 5f02 01F0      		breq .L1078
 17065               	.LM1837:
 17066 5f04 81E0      		ldi r24,lo8(1)
 17067 5f06 0E94 0000 		call SD_WriteMicrophoneBuffer
 17068               	.LM1838:
 17069 5f0a 1092 0000 		sts okToSendMicrophoneBuffer1,__zero_reg__
 17070 5f0e 00C0      		rjmp .L1079
 17071               	.L1078:
 17072               	.LM1839:
 17073 5f10 8091 0000 		lds r24,okToSendMicrophoneBuffer2
 17074 5f14 8823      		tst r24
 17075 5f16 01F0      		breq .L1079
 17076               	.LM1840:
 17077 5f18 82E0      		ldi r24,lo8(2)
 17078 5f1a 0E94 0000 		call SD_WriteMicrophoneBuffer
 17079               	.LM1841:
 17080 5f1e 1092 0000 		sts okToSendMicrophoneBuffer2,__zero_reg__
 17081               	.L1079:
 17082               	.LM1842:
 17083 5f22 8091 0000 		lds r24,okToSendTemperatureBuffer1
 17084 5f26 8823      		tst r24
 17085 5f28 01F0      		breq .L1080
 17086               	.LM1843:
 17087 5f2a 80E0      		ldi r24,lo8(.LC10)
 17088 5f2c 90E0      		ldi r25,hi8(.LC10)
 17089 5f2e 61E0      		ldi r22,lo8(1)
 17090 5f30 0E94 0000 		call Debug_SendString
 17091               	.LM1844:
 17092 5f34 81E0      		ldi r24,lo8(1)
 17093 5f36 0E94 0000 		call SD_WriteTemperatureBuffer
 17094               	.LM1845:
 17095 5f3a 1092 0000 		sts okToSendTemperatureBuffer1,__zero_reg__
 17096 5f3e 00C0      		rjmp .L1081
 17097               	.L1080:
 17098               	.LM1846:
 17099 5f40 8091 0000 		lds r24,okToSendTemperatureBuffer2
 17100 5f44 8823      		tst r24
 17101 5f46 01F0      		breq .L1081
 17102               	.LM1847:
 17103 5f48 80E0      		ldi r24,lo8(.LC11)
 17104 5f4a 90E0      		ldi r25,hi8(.LC11)
 17105 5f4c 61E0      		ldi r22,lo8(1)
 17106 5f4e 0E94 0000 		call Debug_SendString
 17107               	.LM1848:
 17108 5f52 82E0      		ldi r24,lo8(2)
 17109 5f54 0E94 0000 		call SD_WriteTemperatureBuffer
 17110               	.LM1849:
 17111 5f58 1092 0000 		sts okToSendTemperatureBuffer2,__zero_reg__
 17112               	.L1081:
 17113               	.LM1850:
 17114 5f5c 8091 0000 		lds r24,okToSendHumidityBuffer1
 17115 5f60 8823      		tst r24
 17116 5f62 01F0      		breq .L1082
 17117               	.LM1851:
 17118 5f64 80E0      		ldi r24,lo8(.LC12)
 17119 5f66 90E0      		ldi r25,hi8(.LC12)
 17120 5f68 61E0      		ldi r22,lo8(1)
 17121 5f6a 0E94 0000 		call Debug_SendString
 17122               	.LM1852:
 17123 5f6e 81E0      		ldi r24,lo8(1)
 17124 5f70 0E94 0000 		call SD_WriteHumidityBuffer
 17125               	.LM1853:
 17126 5f74 1092 0000 		sts okToSendHumidityBuffer1,__zero_reg__
 17127 5f78 00C0      		rjmp .L1083
 17128               	.L1082:
 17129               	.LM1854:
 17130 5f7a 8091 0000 		lds r24,okToSendHumidityBuffer2
 17131 5f7e 8823      		tst r24
 17132 5f80 01F0      		breq .L1083
 17133               	.LM1855:
 17134 5f82 80E0      		ldi r24,lo8(.LC13)
 17135 5f84 90E0      		ldi r25,hi8(.LC13)
 17136 5f86 61E0      		ldi r22,lo8(1)
 17137 5f88 0E94 0000 		call Debug_SendString
 17138               	.LM1856:
 17139 5f8c 82E0      		ldi r24,lo8(2)
 17140 5f8e 0E94 0000 		call SD_WriteHumidityBuffer
 17141               	.LM1857:
 17142 5f92 1092 0000 		sts okToSendHumidityBuffer2,__zero_reg__
 17143               	.L1083:
 17144               	.LM1858:
 17145 5f96 8091 0000 		lds r24,okToSendPressureBuffer1
 17146 5f9a 8823      		tst r24
 17147 5f9c 01F0      		breq .L1084
 17148               	.LM1859:
 17149 5f9e 80E0      		ldi r24,lo8(.LC14)
 17150 5fa0 90E0      		ldi r25,hi8(.LC14)
 17151 5fa2 61E0      		ldi r22,lo8(1)
 17152 5fa4 0E94 0000 		call Debug_SendString
 17153               	.LM1860:
 17154 5fa8 81E0      		ldi r24,lo8(1)
 17155 5faa 0E94 0000 		call SD_WritePressureBuffer
 17156               	.LM1861:
 17157 5fae 1092 0000 		sts okToSendPressureBuffer1,__zero_reg__
 17158 5fb2 00C0      		rjmp .L1085
 17159               	.L1084:
 17160               	.LM1862:
 17161 5fb4 8091 0000 		lds r24,okToSendPressureBuffer2
 17162 5fb8 8823      		tst r24
 17163 5fba 01F0      		breq .L1085
 17164               	.LM1863:
 17165 5fbc 80E0      		ldi r24,lo8(.LC15)
 17166 5fbe 90E0      		ldi r25,hi8(.LC15)
 17167 5fc0 61E0      		ldi r22,lo8(1)
 17168 5fc2 0E94 0000 		call Debug_SendString
 17169               	.LM1864:
 17170 5fc6 82E0      		ldi r24,lo8(2)
 17171 5fc8 0E94 0000 		call SD_WritePressureBuffer
 17172               	.LM1865:
 17173 5fcc 1092 0000 		sts okToSendPressureBuffer2,__zero_reg__
 17174               	.L1085:
 17175               	.LM1866:
 17176 5fd0 8091 0000 		lds r24,okToSendRTCBlock
 17177 5fd4 8823      		tst r24
 17178 5fd6 01F0      		breq .L1087
 17179               	.LM1867:
 17180 5fd8 80E0      		ldi r24,lo8(.LC16)
 17181 5fda 90E0      		ldi r25,hi8(.LC16)
 17182 5fdc 60E0      		ldi r22,lo8(0)
 17183 5fde 0E94 0000 		call Debug_SendString
 17184               	.LM1868:
 17185 5fe2 0E94 0000 		call Time_Get32BitTimer
 17186 5fe6 2091 0000 		lds r18,UNIX_time
 17187 5fea 3091 0000 		lds r19,(UNIX_time)+1
 17188 5fee 4091 0000 		lds r20,(UNIX_time)+2
 17189 5ff2 5091 0000 		lds r21,(UNIX_time)+3
 17190 5ff6 0E94 0000 		call SD_WriteRTCBlock
 17191               	.LM1869:
 17192 5ffa 6091 0000 		lds r22,UNIX_time
 17193 5ffe 7091 0000 		lds r23,(UNIX_time)+1
 17194 6002 8091 0000 		lds r24,(UNIX_time)+2
 17195 6006 9091 0000 		lds r25,(UNIX_time)+3
 17196 600a 40E0      		ldi r20,lo8(temp)
 17197 600c 50E0      		ldi r21,hi8(temp)
 17198 600e 2AE0      		ldi r18,lo8(10)
 17199 6010 30E0      		ldi r19,hi8(10)
 17200 6012 0E94 0000 		call ltoa
 17201 6016 60E0      		ldi r22,lo8(0)
 17202 6018 0E94 0000 		call Debug_SendString
 17203               	.LM1870:
 17204 601c 80E0      		ldi r24,lo8(.LC17)
 17205 601e 90E0      		ldi r25,hi8(.LC17)
 17206 6020 60E0      		ldi r22,lo8(0)
 17207 6022 0E94 0000 		call Debug_SendString
 17208               	.LM1871:
 17209 6026 0E94 0000 		call Time_Get32BitTimer
 17210 602a 40E0      		ldi r20,lo8(temp)
 17211 602c 50E0      		ldi r21,hi8(temp)
 17212 602e 2AE0      		ldi r18,lo8(10)
 17213 6030 30E0      		ldi r19,hi8(10)
 17214 6032 0E94 0000 		call ltoa
 17215 6036 61E0      		ldi r22,lo8(1)
 17216 6038 0E94 0000 		call Debug_SendString
 17217               	.LM1872:
 17218 603c 1092 0000 		sts okToSendRTCBlock,__zero_reg__
 17219               	.L1087:
 17220               	/* epilogue start */
 17221               	.LM1873:
 17222 6040 FF91      		pop r31
 17223 6042 EF91      		pop r30
 17224 6044 BF91      		pop r27
 17225 6046 AF91      		pop r26
 17226 6048 9F91      		pop r25
 17227 604a 8F91      		pop r24
 17228 604c 7F91      		pop r23
 17229 604e 6F91      		pop r22
 17230 6050 5F91      		pop r21
 17231 6052 4F91      		pop r20
 17232 6054 3F91      		pop r19
 17233 6056 2F91      		pop r18
 17234 6058 0F90      		pop r0
 17235 605a 0BBE      		out 59-0,r0
 17236 605c 0F90      		pop r0
 17237 605e 0FBE      		out __SREG__,r0
 17238 6060 0F90      		pop r0
 17239 6062 1F90      		pop __zero_reg__
 17240 6064 1895      		reti
 17241               	.LFE144:
 17243               		.data
 17244               	.LC18:
 17245 0090 4669 6C65 		.string	"File Name= "
 17245      204E 616D 
 17245      653D 2000 
 17246               		.text
 17247               	.global	SD_Open
 17249               	SD_Open:
 17250               	.LFB99:
 17251               	.LM1874:
 17252               	.LVL1372:
 17253 6066 0F93      		push r16
 17254 6068 1F93      		push r17
 17255               	/* prologue: function */
 17256               	/* frame size = 0 */
 17257 606a 8C01      		movw r16,r24
 17258               	.LM1875:
 17259 606c 80E0      		ldi r24,lo8(.LC18)
 17260 606e 90E0      		ldi r25,hi8(.LC18)
 17261               	.LVL1373:
 17262 6070 60E0      		ldi r22,lo8(0)
 17263 6072 0E94 0000 		call Debug_SendString
 17264               	.LM1876:
 17265 6076 C801      		movw r24,r16
 17266 6078 61E0      		ldi r22,lo8(1)
 17267 607a 0E94 0000 		call Debug_SendString
 17268               	.LM1877:
 17269 607e 80E0      		ldi r24,lo8(Log_File)
 17270 6080 90E0      		ldi r25,hi8(Log_File)
 17271 6082 B801      		movw r22,r16
 17272 6084 43E1      		ldi r20,lo8(19)
 17273 6086 0E94 0000 		call f_open
 17274               	/* epilogue start */
 17275               	.LM1878:
 17276 608a 1F91      		pop r17
 17277 608c 0F91      		pop r16
 17278               	.LVL1374:
 17279 608e 0895      		ret
 17280               	.LFE99:
 17282               		.data
 17283               	.LC19:
 17284 009c 2F63 6F6E 		.string	"/config.txt"
 17284      6669 672E 
 17284      7478 7400 
 17285               	.LC20:
 17286 00a8 7373 6964 		.string	"ssid"
 17286      00
 17287               	.LC21:
 17288 00ad 3D00      		.string	"="
 17289               	.LC22:
 17290 00af 7068 7261 		.string	"phrase"
 17290      7365 00
 17291               	.LC23:
 17292 00b6 706F 7274 		.string	"port"
 17292      00
 17293               	.LC24:
 17294 00bb 6175 7468 		.string	"auth"
 17294      00
 17295               		.text
 17296               	.global	Read_config_file
 17298               	Read_config_file:
 17299               	.LFB150:
 17300               	.LM1879:
 17301 6090 1F93      		push r17
 17302               	/* prologue: function */
 17303               	/* frame size = 0 */
 17304               	.LBB855:
 17305               	.LBB856:
 17306               	.LM1880:
 17307 6092 A0E2      		ldi r26,lo8(1568)
 17308 6094 B6E0      		ldi r27,hi8(1568)
 17309 6096 40E2      		ldi r20,lo8(32)
 17310               	.LBE856:
 17311               	.LBE855:
 17312               	.LBB858:
 17313               	.LBB859:
 17314               	.LBB860:
 17315               	.LBB861:
 17316               	.LM1881:
 17317 6098 20E9      		ldi r18,lo8(400)
 17318 609a 31E0      		ldi r19,hi8(400)
 17319 609c 00C0      		rjmp .L1091
 17320               	.LVL1375:
 17321               	.L1092:
 17322 609e F901      		movw r30,r18
 17323               	/* #APP */
 17324               	 ;  105 "/usr/local/CrossPack-AVR-20100115/lib/gcc/avr/4.3.3/../../../../avr/include/util/delay_bas
 17325 60a0 3197      		1: sbiw r30,1
 17326 60a2 01F4      		brne 1b
 17327               	 ;  0 "" 2
 17328               	/* #NOAPP */
 17329               	.LBE861:
 17330               	.LBE860:
 17331               	.LM1882:
 17332 60a4 0197      		sbiw r24,1
 17333               	.LM1883:
 17334 60a6 01F4      		brne .L1092
 17335               	.L1091:
 17336               	.LBE859:
 17337               	.LBE858:
 17338               	.LBB862:
 17339               	.LBB863:
 17340               	.LM1884:
 17341 60a8 8091 A806 		lds r24,1704
 17342               	.LVL1376:
 17343 60ac 80FF      		sbrs r24,0
 17344 60ae 00C0      		rjmp .L1093
 17345               	.LBE863:
 17346               	.LBE862:
 17347               	.LBB864:
 17348               	.LBB857:
 17349               	.LM1885:
 17350 60b0 1796      		adiw r26,7
 17351 60b2 4C93      		st X,r20
 17352 60b4 1797      		sbiw r26,7
 17353 60b6 88E8      		ldi r24,lo8(5000)
 17354 60b8 93E1      		ldi r25,hi8(5000)
 17355               	.LVL1377:
 17356 60ba 00C0      		rjmp .L1092
 17357               	.LVL1378:
 17358               	.L1094:
 17359               	.LBE857:
 17360               	.LBE864:
 17361               	.LBB865:
 17362               	.LBB866:
 17363               	.LBB867:
 17364               	.LBB868:
 17365               	.LM1886:
 17366 60bc CA01      		movw r24,r20
 17367               	.LVL1379:
 17368               	/* #APP */
 17369               	 ;  105 "/usr/local/CrossPack-AVR-20100115/lib/gcc/avr/4.3.3/../../../../avr/include/util/delay_bas
 17370 60be 0197      		1: sbiw r24,1
 17371 60c0 01F4      		brne 1b
 17372               	 ;  0 "" 2
 17373               	/* #NOAPP */
 17374               	.LBE868:
 17375               	.LBE867:
 17376               	.LM1887:
 17377 60c2 2150      		subi r18,lo8(-(-1))
 17378 60c4 3040      		sbci r19,hi8(-(-1))
 17379               	.LM1888:
 17380 60c6 01F4      		brne .L1094
 17381               	.LBE866:
 17382               	.LBE865:
 17383               	.LM1889:
 17384 60c8 80E0      		ldi r24,lo8(.LC19)
 17385 60ca 90E0      		ldi r25,hi8(.LC19)
 17386               	.LVL1380:
 17387 60cc 0E94 0000 		call SD_Open
 17388               	.LVL1381:
 17389               	.LM1890:
 17390 60d0 11E0      		ldi r17,lo8(1)
 17391               	.L1105:
 17392               	.LM1891:
 17393 60d2 80E0      		ldi r24,lo8(temp)
 17394 60d4 90E0      		ldi r25,hi8(temp)
 17395 60d6 62E3      		ldi r22,lo8(50)
 17396 60d8 70E0      		ldi r23,hi8(50)
 17397 60da 40E0      		ldi r20,lo8(Log_File)
 17398 60dc 50E0      		ldi r21,hi8(Log_File)
 17399 60de 0E94 0000 		call f_gets
 17400               	.LM1892:
 17401 60e2 8091 0000 		lds r24,temp
 17402 60e6 8823      		tst r24
 17403 60e8 01F4      		brne .+2
 17404 60ea 00C0      		rjmp .L1100
 17405               	.LM1893:
 17406 60ec 80E0      		ldi r24,lo8(temp)
 17407 60ee 90E0      		ldi r25,hi8(temp)
 17408 60f0 60E0      		ldi r22,lo8(.LC20)
 17409 60f2 70E0      		ldi r23,hi8(.LC20)
 17410 60f4 0E94 0000 		call strstr
 17411 60f8 0097      		sbiw r24,0
 17412 60fa 01F0      		breq .L1096
 17413               	.LM1894:
 17414 60fc 80E0      		ldi r24,lo8(temp)
 17415 60fe 90E0      		ldi r25,hi8(temp)
 17416 6100 60E0      		ldi r22,lo8(.LC21)
 17417 6102 70E0      		ldi r23,hi8(.LC21)
 17418 6104 0E94 0000 		call strtok
 17419               	.LM1895:
 17420 6108 80E0      		ldi r24,lo8(0)
 17421 610a 90E0      		ldi r25,hi8(0)
 17422 610c 60E0      		ldi r22,lo8(.LC21)
 17423 610e 70E0      		ldi r23,hi8(.LC21)
 17424 6110 0E94 0000 		call strtok
 17425 6114 BC01      		movw r22,r24
 17426 6116 80E0      		ldi r24,lo8(ssid)
 17427 6118 90E0      		ldi r25,hi8(ssid)
 17428 611a 0E94 0000 		call strcat
 17429               	.LM1896:
 17430 611e 1093 0000 		sts ssidRead,r17
 17431 6122 00C0      		rjmp .L1105
 17432               	.L1096:
 17433               	.LM1897:
 17434 6124 80E0      		ldi r24,lo8(temp)
 17435 6126 90E0      		ldi r25,hi8(temp)
 17436 6128 60E0      		ldi r22,lo8(.LC22)
 17437 612a 70E0      		ldi r23,hi8(.LC22)
 17438 612c 0E94 0000 		call strstr
 17439 6130 0097      		sbiw r24,0
 17440 6132 01F0      		breq .L1098
 17441               	.LM1898:
 17442 6134 80E0      		ldi r24,lo8(temp)
 17443 6136 90E0      		ldi r25,hi8(temp)
 17444 6138 60E0      		ldi r22,lo8(.LC21)
 17445 613a 70E0      		ldi r23,hi8(.LC21)
 17446 613c 0E94 0000 		call strtok
 17447               	.LM1899:
 17448 6140 80E0      		ldi r24,lo8(0)
 17449 6142 90E0      		ldi r25,hi8(0)
 17450 6144 60E0      		ldi r22,lo8(.LC21)
 17451 6146 70E0      		ldi r23,hi8(.LC21)
 17452 6148 0E94 0000 		call strtok
 17453 614c BC01      		movw r22,r24
 17454 614e 80E0      		ldi r24,lo8(phrase)
 17455 6150 90E0      		ldi r25,hi8(phrase)
 17456 6152 0E94 0000 		call strcat
 17457               	.LM1900:
 17458 6156 1093 0000 		sts phraseRead,r17
 17459 615a 00C0      		rjmp .L1105
 17460               	.L1098:
 17461               	.LM1901:
 17462 615c 80E0      		ldi r24,lo8(temp)
 17463 615e 90E0      		ldi r25,hi8(temp)
 17464 6160 60E0      		ldi r22,lo8(.LC23)
 17465 6162 70E0      		ldi r23,hi8(.LC23)
 17466 6164 0E94 0000 		call strstr
 17467 6168 0097      		sbiw r24,0
 17468 616a 01F0      		breq .L1099
 17469               	.LM1902:
 17470 616c 80E0      		ldi r24,lo8(temp)
 17471 616e 90E0      		ldi r25,hi8(temp)
 17472 6170 60E0      		ldi r22,lo8(.LC21)
 17473 6172 70E0      		ldi r23,hi8(.LC21)
 17474 6174 0E94 0000 		call strtok
 17475               	.LM1903:
 17476 6178 80E0      		ldi r24,lo8(0)
 17477 617a 90E0      		ldi r25,hi8(0)
 17478 617c 60E0      		ldi r22,lo8(.LC21)
 17479 617e 70E0      		ldi r23,hi8(.LC21)
 17480 6180 0E94 0000 		call strtok
 17481 6184 BC01      		movw r22,r24
 17482 6186 80E0      		ldi r24,lo8(port)
 17483 6188 90E0      		ldi r25,hi8(port)
 17484 618a 0E94 0000 		call strcat
 17485               	.LM1904:
 17486 618e 1093 0000 		sts portRead,r17
 17487 6192 00C0      		rjmp .L1105
 17488               	.L1099:
 17489               	.LM1905:
 17490 6194 80E0      		ldi r24,lo8(temp)
 17491 6196 90E0      		ldi r25,hi8(temp)
 17492 6198 60E0      		ldi r22,lo8(.LC24)
 17493 619a 70E0      		ldi r23,hi8(.LC24)
 17494 619c 0E94 0000 		call strstr
 17495 61a0 0097      		sbiw r24,0
 17496 61a2 01F4      		brne .+2
 17497 61a4 00C0      		rjmp .L1105
 17498               	.LM1906:
 17499 61a6 80E0      		ldi r24,lo8(temp)
 17500 61a8 90E0      		ldi r25,hi8(temp)
 17501 61aa 60E0      		ldi r22,lo8(.LC21)
 17502 61ac 70E0      		ldi r23,hi8(.LC21)
 17503 61ae 0E94 0000 		call strtok
 17504               	.LM1907:
 17505 61b2 80E0      		ldi r24,lo8(0)
 17506 61b4 90E0      		ldi r25,hi8(0)
 17507 61b6 60E0      		ldi r22,lo8(.LC21)
 17508 61b8 70E0      		ldi r23,hi8(.LC21)
 17509 61ba 0E94 0000 		call strtok
 17510 61be BC01      		movw r22,r24
 17511 61c0 80E0      		ldi r24,lo8(auth)
 17512 61c2 90E0      		ldi r25,hi8(auth)
 17513 61c4 0E94 0000 		call strcat
 17514               	.LM1908:
 17515 61c8 1093 0000 		sts authRead,r17
 17516 61cc 00C0      		rjmp .L1105
 17517               	.LVL1382:
 17518               	.L1093:
 17519               	.LBB872:
 17520               	.LBB873:
 17521               	.LM1909:
 17522 61ce E0E2      		ldi r30,lo8(1568)
 17523 61d0 F6E0      		ldi r31,hi8(1568)
 17524               	.LVL1383:
 17525 61d2 80E2      		ldi r24,lo8(32)
 17526 61d4 8683      		std Z+6,r24
 17527               	.LBE873:
 17528               	.LBE872:
 17529               	.LBB874:
 17530               	.LBB875:
 17531               	.LM1910:
 17532 61d6 80E1      		ldi r24,lo8(16)
 17533 61d8 8583      		std Z+5,r24
 17534 61da 20E1      		ldi r18,lo8(10000)
 17535 61dc 37E2      		ldi r19,hi8(10000)
 17536               	.LVL1384:
 17537               	.LBE875:
 17538               	.LBE874:
 17539               	.LBB876:
 17540               	.LBB871:
 17541               	.LBB870:
 17542               	.LBB869:
 17543               	.LM1911:
 17544 61de 40E9      		ldi r20,lo8(400)
 17545 61e0 51E0      		ldi r21,hi8(400)
 17546 61e2 00C0      		rjmp .L1094
 17547               	.LVL1385:
 17548               	.L1100:
 17549               	/* epilogue start */
 17550               	.LBE869:
 17551               	.LBE870:
 17552               	.LBE871:
 17553               	.LBE876:
 17554               	.LM1912:
 17555 61e4 1F91      		pop r17
 17556 61e6 0895      		ret
 17557               	.LFE150:
 17559               		.data
 17560               	.LC25:
 17561 00c0 4F70 656E 		.string	"Opening Log File"
 17561      696E 6720 
 17561      4C6F 6720 
 17561      4669 6C65 
 17561      00
 17562               	.LC26:
 17563 00d1 6465 7669 		.string	"device_class"
 17563      6365 5F63 
 17563      6C61 7373 
 17563      00
 17564               	.LC27:
 17565 00de 4261 7365 		.string	"BaseStation"
 17565      5374 6174 
 17565      696F 6E00 
 17566               	.LC28:
 17567 00ea 6465 7669 		.string	"device_id"
 17567      6365 5F69 
 17567      6400 
 17568               	.LC29:
 17569 00f4 6669 726D 		.string	"firmware_version"
 17569      7761 7265 
 17569      5F76 6572 
 17569      7369 6F6E 
 17569      00
 17570               	.LC30:
 17571 0105 312E 3031 		.string	"1.01"
 17571      00
 17572               	.LC31:
 17573 010a 6861 7264 		.string	"hardware_version"
 17573      7761 7265 
 17573      5F76 6572 
 17573      7369 6F6E 
 17573      00
 17574               	.LC32:
 17575 011b 3100      		.string	"1"
 17576               	.LC33:
 17577 011d 6368 616E 		.string	"channel_specs"
 17577      6E65 6C5F 
 17577      7370 6563 
 17577      7300 
 17578               	.LC34:
 17579 012b 7B22 5465 		.string	"{\"Temperature\":{\"units\": \"deg C\", \"scale\": 0.1},"
 17579      6D70 6572 
 17579      6174 7572 
 17579      6522 3A7B 
 17579      2275 6E69 
 17580               	.LC35:
 17581 015c 2248 756D 		.string	"\"Humidity\":{\"units\": \"%RH\", \"scale\": 1},"
 17581      6964 6974 
 17581      7922 3A7B 
 17581      2275 6E69 
 17581      7473 223A 
 17582               	.LC36:
 17583 0185 2250 7265 		.string	"\"Pressure\":{\"units\": \"kPa\", \"scale\": 1},"
 17583      7373 7572 
 17583      6522 3A7B 
 17583      2275 6E69 
 17583      7473 223A 
 17584               	.LC37:
 17585 01ae 224D 6963 		.string	"\"Microphone\":{\"units\": \"bits\", \"scale\": 1}}"
 17585      726F 7068 
 17585      6F6E 6522 
 17585      3A7B 2275 
 17585      6E69 7473 
 17586               		.text
 17587               	.global	SD_StartLogFile
 17589               	SD_StartLogFile:
 17590               	.LFB110:
 17591               	.LM1913:
 17592               	.LVL1386:
 17593 61e8 EF92      		push r14
 17594 61ea FF92      		push r15
 17595 61ec 0F93      		push r16
 17596 61ee 1F93      		push r17
 17597               	/* prologue: function */
 17598               	/* frame size = 0 */
 17599 61f0 7B01      		movw r14,r22
 17600 61f2 8C01      		movw r16,r24
 17601               	.LM1914:
 17602 61f4 80E0      		ldi r24,lo8(.LC25)
 17603 61f6 90E0      		ldi r25,hi8(.LC25)
 17604 61f8 61E0      		ldi r22,lo8(1)
 17605               	.LVL1387:
 17606 61fa 0E94 0000 		call Debug_SendString
 17607               	.LM1915:
 17608 61fe C801      		movw r24,r16
 17609 6200 B701      		movw r22,r14
 17610 6202 0E94 0000 		call SD_MakeFileName
 17611               	.LM1916:
 17612 6206 80E0      		ldi r24,lo8(fileName)
 17613 6208 90E0      		ldi r25,hi8(fileName)
 17614 620a 0E94 0000 		call SD_Open
 17615               	.LBB877:
 17616               	.LBB878:
 17617               	.LM1917:
 17618 620e 8FEF      		ldi r24,lo8(-1)
 17619 6210 9FEF      		ldi r25,hi8(-1)
 17620 6212 AFEF      		ldi r26,hlo8(-1)
 17621 6214 BFEF      		ldi r27,hhi8(-1)
 17622 6216 8093 0000 		sts CRC,r24
 17623 621a 9093 0000 		sts (CRC)+1,r25
 17624 621e A093 0000 		sts (CRC)+2,r26
 17625 6222 B093 0000 		sts (CRC)+3,r27
 17626               	.LBE878:
 17627               	.LBE877:
 17628               	.LM1918:
 17629 6226 6CE4      		ldi r22,lo8(-1327598516)
 17630 6228 74E7      		ldi r23,hi8(-1327598516)
 17631 622a 8EED      		ldi r24,hlo8(-1327598516)
 17632 622c 90EB      		ldi r25,hhi8(-1327598516)
 17633 622e 0E94 0000 		call SD_Write32
 17634               	.LM1919:
 17635 6232 64E3      		ldi r22,lo8(308)
 17636 6234 71E0      		ldi r23,hi8(308)
 17637 6236 80E0      		ldi r24,hlo8(308)
 17638 6238 90E0      		ldi r25,hhi8(308)
 17639 623a 0E94 0000 		call SD_Write32
 17640               	.LM1920:
 17641 623e 81E0      		ldi r24,lo8(1)
 17642 6240 90E0      		ldi r25,hi8(1)
 17643 6242 0E94 0000 		call SD_Write16
 17644               	.LM1921:
 17645 6246 80E0      		ldi r24,lo8(256)
 17646 6248 91E0      		ldi r25,hi8(256)
 17647 624a 0E94 0000 		call SD_Write16
 17648               	.LM1922:
 17649 624e 82E0      		ldi r24,lo8(2)
 17650 6250 0E94 0000 		call SD_Write8
 17651               	.LM1923:
 17652 6254 0E94 0000 		call Time_Get32BitTimer
 17653 6258 0E94 0000 		call SD_Write32
 17654               	.LM1924:
 17655 625c 60E2      		ldi r22,lo8(500000)
 17656 625e 71EA      		ldi r23,hi8(500000)
 17657 6260 87E0      		ldi r24,hlo8(500000)
 17658 6262 90E0      		ldi r25,hhi8(500000)
 17659 6264 0E94 0000 		call SD_Write32
 17660               	.LM1925:
 17661 6268 80E0      		ldi r24,lo8(0)
 17662 626a 90E0      		ldi r25,hi8(0)
 17663 626c 0E94 0000 		call SD_Write16
 17664               	.LM1926:
 17665 6270 80E0      		ldi r24,lo8(.LC26)
 17666 6272 90E0      		ldi r25,hi8(.LC26)
 17667 6274 0E94 0000 		call SD_WriteString
 17668               	.LM1927:
 17669 6278 89E0      		ldi r24,lo8(9)
 17670 627a 0E94 0000 		call SD_Write8
 17671               	.LM1928:
 17672 627e 80E0      		ldi r24,lo8(.LC27)
 17673 6280 90E0      		ldi r25,hi8(.LC27)
 17674 6282 0E94 0000 		call SD_WriteString
 17675               	.LM1929:
 17676 6286 8AE0      		ldi r24,lo8(10)
 17677 6288 0E94 0000 		call SD_Write8
 17678               	.LM1930:
 17679 628c 80E0      		ldi r24,lo8(.LC28)
 17680 628e 90E0      		ldi r25,hi8(.LC28)
 17681 6290 0E94 0000 		call SD_WriteString
 17682               	.LM1931:
 17683 6294 89E0      		ldi r24,lo8(9)
 17684 6296 0E94 0000 		call SD_Write8
 17685               	.LM1932:
 17686 629a 80E0      		ldi r24,lo8(macAddr)
 17687 629c 90E0      		ldi r25,hi8(macAddr)
 17688 629e 0E94 0000 		call SD_WriteString
 17689               	.LM1933:
 17690 62a2 8AE0      		ldi r24,lo8(10)
 17691 62a4 0E94 0000 		call SD_Write8
 17692               	.LM1934:
 17693 62a8 80E0      		ldi r24,lo8(.LC29)
 17694 62aa 90E0      		ldi r25,hi8(.LC29)
 17695 62ac 0E94 0000 		call SD_WriteString
 17696               	.LM1935:
 17697 62b0 89E0      		ldi r24,lo8(9)
 17698 62b2 0E94 0000 		call SD_Write8
 17699               	.LM1936:
 17700 62b6 80E0      		ldi r24,lo8(.LC30)
 17701 62b8 90E0      		ldi r25,hi8(.LC30)
 17702 62ba 0E94 0000 		call SD_WriteString
 17703               	.LM1937:
 17704 62be 8AE0      		ldi r24,lo8(10)
 17705 62c0 0E94 0000 		call SD_Write8
 17706               	.LM1938:
 17707 62c4 80E0      		ldi r24,lo8(.LC31)
 17708 62c6 90E0      		ldi r25,hi8(.LC31)
 17709 62c8 0E94 0000 		call SD_WriteString
 17710               	.LM1939:
 17711 62cc 89E0      		ldi r24,lo8(9)
 17712 62ce 0E94 0000 		call SD_Write8
 17713               	.LM1940:
 17714 62d2 80E0      		ldi r24,lo8(.LC32)
 17715 62d4 90E0      		ldi r25,hi8(.LC32)
 17716 62d6 0E94 0000 		call SD_WriteString
 17717               	.LM1941:
 17718 62da 8AE0      		ldi r24,lo8(10)
 17719 62dc 0E94 0000 		call SD_Write8
 17720               	.LM1942:
 17721 62e0 80E0      		ldi r24,lo8(.LC33)
 17722 62e2 90E0      		ldi r25,hi8(.LC33)
 17723 62e4 0E94 0000 		call SD_WriteString
 17724               	.LM1943:
 17725 62e8 89E0      		ldi r24,lo8(9)
 17726 62ea 0E94 0000 		call SD_Write8
 17727               	.LM1944:
 17728 62ee 80E0      		ldi r24,lo8(.LC34)
 17729 62f0 90E0      		ldi r25,hi8(.LC34)
 17730 62f2 0E94 0000 		call SD_WriteString
 17731               	.LM1945:
 17732 62f6 80E0      		ldi r24,lo8(.LC35)
 17733 62f8 90E0      		ldi r25,hi8(.LC35)
 17734 62fa 0E94 0000 		call SD_WriteString
 17735               	.LM1946:
 17736 62fe 80E0      		ldi r24,lo8(.LC36)
 17737 6300 90E0      		ldi r25,hi8(.LC36)
 17738 6302 0E94 0000 		call SD_WriteString
 17739               	.LM1947:
 17740 6306 80E0      		ldi r24,lo8(.LC37)
 17741 6308 90E0      		ldi r25,hi8(.LC37)
 17742 630a 0E94 0000 		call SD_WriteString
 17743               	.LM1948:
 17744 630e 8AE0      		ldi r24,lo8(10)
 17745 6310 0E94 0000 		call SD_Write8
 17746               	.LM1949:
 17747 6314 80E0      		ldi r24,lo8(0)
 17748 6316 0E94 0000 		call SD_Write8
 17749               	.LM1950:
 17750 631a 0E94 0000 		call SD_WriteCRC
 17751               	.LM1951:
 17752 631e 80E0      		ldi r24,lo8(Log_File)
 17753 6320 90E0      		ldi r25,hi8(Log_File)
 17754 6322 0E94 0000 		call f_sync
 17755               	/* epilogue start */
 17756               	.LM1952:
 17757 6326 1F91      		pop r17
 17758 6328 0F91      		pop r16
 17759 632a FF90      		pop r15
 17760 632c EF90      		pop r14
 17761               	.LVL1388:
 17762 632e 0895      		ret
 17763               	.LFE110:
 17765               		.data
 17766               	.LC38:
 17767 01da 2D2D 2D2D 		.string	"-----------------"
 17767      2D2D 2D2D 
 17767      2D2D 2D2D 
 17767      2D2D 2D2D 
 17767      2D00 
 17768               	.LC39:
 17769 01ec 436F 6D6D 		.string	"Command: "
 17769      616E 643A 
 17769      2000 
 17770               	.LC40:
 17771 01f6 5265 7370 		.string	"Responce: "
 17771      6F6E 6365 
 17771      3A20 00
 17772               	.LC41:
 17773 0201 2C77 616E 		.string	",want: "
 17773      743A 2000 
 17774               		.text
 17775               	.global	Wifi_SendCommand
 17777               	Wifi_SendCommand:
 17778               	.LFB20:
 17779               	.LM1953:
 17780               	.LVL1389:
 17781 6330 6F92      		push r6
 17782 6332 7F92      		push r7
 17783 6334 8F92      		push r8
 17784 6336 9F92      		push r9
 17785 6338 AF92      		push r10
 17786 633a BF92      		push r11
 17787 633c CF92      		push r12
 17788 633e DF92      		push r13
 17789 6340 EF92      		push r14
 17790 6342 FF92      		push r15
 17791 6344 0F93      		push r16
 17792 6346 1F93      		push r17
 17793 6348 CF93      		push r28
 17794 634a DF93      		push r29
 17795               	/* prologue: function */
 17796               	/* frame size = 0 */
 17797 634c 7C01      		movw r14,r24
 17798 634e 6B01      		movw r12,r22
 17799 6350 5A01      		movw r10,r20
 17800 6352 3901      		movw r6,r18
 17801               	.LM1954:
 17802 6354 1092 0000 		sts respLen,__zero_reg__
 17803               	.LM1955:
 17804 6358 FC01      		movw r30,r24
 17805 635a 0190      		ld __tmp_reg__,Z+
 17806 635c 0020      		tst __tmp_reg__
 17807 635e 01F4      		brne .-6
 17808 6360 3197      		sbiw r30,1
 17809 6362 E81B      		sub r30,r24
 17810 6364 F90B      		sbc r31,r25
 17811 6366 E093 0000 		sts toSendLen,r30
 17812               	.LM1956:
 17813 636a EB01      		movw r28,r22
 17814 636c 0990      		ld __tmp_reg__,Y+
 17815 636e 0020      		tst __tmp_reg__
 17816 6370 01F4      		brne .-6
 17817 6372 2197      		sbiw r28,1
 17818 6374 C61B      		sub r28,r22
 17819 6376 D70B      		sbc r29,r23
 17820 6378 DA01      		movw r26,r20
 17821 637a 0D90      		ld __tmp_reg__,X+
 17822 637c 0020      		tst __tmp_reg__
 17823 637e 01F4      		brne .-6
 17824 6380 1197      		sbiw r26,1
 17825 6382 A41B      		sub r26,r20
 17826 6384 B50B      		sbc r27,r21
 17827 6386 AC17      		cp r26,r28
 17828 6388 BD07      		cpc r27,r29
 17829 638a 00F4      		brsh .L1109
 17830               	.LVL1390:
 17831               	.LM1957:
 17832 638c A093 0000 		sts okLen,r26
 17833 6390 00C0      		rjmp .L1110
 17834               	.L1109:
 17835               	.LM1958:
 17836 6392 C093 0000 		sts okLen,r28
 17837               	.L1110:
 17838               	.LM1959:
 17839 6396 80E0      		ldi r24,lo8(.LC38)
 17840 6398 90E0      		ldi r25,hi8(.LC38)
 17841               	.LVL1391:
 17842 639a 61E0      		ldi r22,lo8(1)
 17843               	.LVL1392:
 17844 639c 0E94 0000 		call Debug_SendString
 17845               	.LVL1393:
 17846               	.LM1960:
 17847 63a0 80E0      		ldi r24,lo8(.LC39)
 17848 63a2 90E0      		ldi r25,hi8(.LC39)
 17849 63a4 60E0      		ldi r22,lo8(0)
 17850 63a6 0E94 0000 		call Debug_SendString
 17851               	.LM1961:
 17852 63aa C701      		movw r24,r14
 17853 63ac 61E0      		ldi r22,lo8(1)
 17854 63ae 0E94 0000 		call Debug_SendString
 17855               	.LM1962:
 17856 63b2 0E94 0000 		call Wifi_ClearBuffer
 17857               	.LM1963:
 17858 63b6 C701      		movw r24,r14
 17859 63b8 61E0      		ldi r22,lo8(1)
 17860 63ba 0E94 0000 		call Wifi_SendString
 17861 63be 00E0      		ldi r16,lo8(0)
 17862 63c0 10E0      		ldi r17,hi8(0)
 17863               	.LVL1394:
 17864               	.LBB879:
 17865               	.LBB880:
 17866               	.LBB881:
 17867               	.LBB882:
 17868               	.LBB883:
 17869               	.LM1964:
 17870 63c2 40EA      		ldi r20,lo8(4000)
 17871 63c4 842E      		mov r8,r20
 17872 63c6 4FE0      		ldi r20,hi8(4000)
 17873 63c8 942E      		mov r9,r20
 17874 63ca 00C0      		rjmp .L1111
 17875               	.LVL1395:
 17876               	.L1124:
 17877               	.LBE883:
 17878               	.LBE882:
 17879               	.LBE881:
 17880               	.LBE880:
 17881               	.LM1965:
 17882 63cc 0E94 0000 		call Wifi_CharReadyToRead
 17883               	.LVL1396:
 17884 63d0 8823      		tst r24
 17885 63d2 01F4      		brne .+2
 17886 63d4 00C0      		rjmp .L1112
 17887               	.LM1966:
 17888 63d6 8091 0000 		lds r24,respLen
 17889 63da C82F      		mov r28,r24
 17890 63dc D0E0      		ldi r29,lo8(0)
 17891 63de 80E0      		ldi r24,lo8(0)
 17892 63e0 0E94 0000 		call Wifi_GetByte
 17893 63e4 C050      		subi r28,lo8(-(resp))
 17894 63e6 D040      		sbci r29,hi8(-(resp))
 17895 63e8 8883      		st Y,r24
 17896               	.LM1967:
 17897 63ea 8091 0000 		lds r24,respLen
 17898 63ee 8F5F      		subi r24,lo8(-(1))
 17899 63f0 8093 0000 		sts respLen,r24
 17900               	.LM1968:
 17901 63f4 2091 0000 		lds r18,respLen
 17902 63f8 4091 0000 		lds r20,okLen
 17903 63fc 8091 0000 		lds r24,toSendLen
 17904 6400 30E0      		ldi r19,lo8(0)
 17905 6402 90E0      		ldi r25,lo8(0)
 17906 6404 840F      		add r24,r20
 17907 6406 911D      		adc r25,__zero_reg__
 17908 6408 0396      		adiw r24,3
 17909 640a 2817      		cp r18,r24
 17910 640c 3907      		cpc r19,r25
 17911 640e 01F0      		breq .+2
 17912 6410 00C0      		rjmp .L1112
 17913               	.LM1969:
 17914 6412 80E0      		ldi r24,lo8(.LC40)
 17915 6414 90E0      		ldi r25,hi8(.LC40)
 17916 6416 60E0      		ldi r22,lo8(0)
 17917 6418 0E94 0000 		call Debug_SendString
 17918 641c 90E0      		ldi r25,lo8(0)
 17919               	.LVL1397:
 17920 641e 00C0      		rjmp .L1113
 17921               	.L1115:
 17922               	.LBB887:
 17923               	.LM1970:
 17924 6420 E92F      		mov r30,r25
 17925 6422 F0E0      		ldi r31,lo8(0)
 17926 6424 E050      		subi r30,lo8(-(resp))
 17927 6426 F040      		sbci r31,hi8(-(resp))
 17928 6428 E081      		ld r30,Z
 17929               	.L1114:
 17930               	.LBB888:
 17931               	.LBB889:
 17932               	.LM1971:
 17933 642a 8091 A108 		lds r24,2209
 17934 642e 85FF      		sbrs r24,5
 17935 6430 00C0      		rjmp .L1114
 17936               	.LM1972:
 17937 6432 E093 A008 		sts 2208,r30
 17938               	.LBE889:
 17939               	.LBE888:
 17940               	.LM1973:
 17941 6436 9F5F      		subi r25,lo8(-(1))
 17942               	.L1113:
 17943 6438 8091 0000 		lds r24,respLen
 17944 643c 9817      		cp r25,r24
 17945 643e 00F0      		brlo .L1115
 17946               	.LBE887:
 17947               	.LM1974:
 17948 6440 80E0      		ldi r24,lo8(.LC41)
 17949 6442 90E0      		ldi r25,hi8(.LC41)
 17950 6444 60E0      		ldi r22,lo8(0)
 17951 6446 0E94 0000 		call Debug_SendString
 17952               	.LVL1398:
 17953               	.LM1975:
 17954 644a C601      		movw r24,r12
 17955 644c 61E0      		ldi r22,lo8(1)
 17956 644e 0E94 0000 		call Debug_SendString
 17957 6452 20E0      		ldi r18,lo8(0)
 17958               	.LVL1399:
 17959 6454 00C0      		rjmp .L1116
 17960               	.L1118:
 17961               	.LBB890:
 17962               	.LM1976:
 17963 6456 E22F      		mov r30,r18
 17964 6458 F0E0      		ldi r31,lo8(0)
 17965 645a DF01      		movw r26,r30
 17966 645c A050      		subi r26,lo8(-(resp))
 17967 645e B040      		sbci r27,hi8(-(resp))
 17968 6460 9C91      		ld r25,X
 17969 6462 EE0D      		add r30,r14
 17970 6464 FF1D      		adc r31,r15
 17971 6466 8081      		ld r24,Z
 17972 6468 9817      		cp r25,r24
 17973 646a 01F0      		breq .+2
 17974 646c 00C0      		rjmp .L1117
 17975               	.LM1977:
 17976 646e 2F5F      		subi r18,lo8(-(1))
 17977               	.L1116:
 17978 6470 8091 0000 		lds r24,toSendLen
 17979 6474 2817      		cp r18,r24
 17980 6476 00F0      		brlo .L1118
 17981               	.LBE890:
 17982               	.LBB891:
 17983               	.LM1978:
 17984 6478 2091 0000 		lds r18,toSendLen
 17985               	.LVL1400:
 17986 647c 2D5F      		subi r18,lo8(-(3))
 17987 647e 00C0      		rjmp .L1119
 17988               	.L1121:
 17989               	.LM1979:
 17990 6480 ED01      		movw r28,r26
 17991 6482 C050      		subi r28,lo8(-(resp))
 17992 6484 D040      		sbci r29,hi8(-(resp))
 17993 6486 9881      		ld r25,Y
 17994 6488 8091 0000 		lds r24,toSendLen
 17995 648c FD01      		movw r30,r26
 17996 648e E81B      		sub r30,r24
 17997 6490 F109      		sbc r31,__zero_reg__
 17998 6492 EC0D      		add r30,r12
 17999 6494 FD1D      		adc r31,r13
 18000 6496 3397      		sbiw r30,3
 18001 6498 8081      		ld r24,Z
 18002 649a 9817      		cp r25,r24
 18003 649c 01F0      		breq .L1120
 18004               	.LM1980:
 18005 649e 8881      		ld r24,Y
 18006 64a0 9091 0000 		lds r25,toSendLen
 18007 64a4 A91B      		sub r26,r25
 18008 64a6 B109      		sbc r27,__zero_reg__
 18009 64a8 AA0D      		add r26,r10
 18010 64aa BB1D      		adc r27,r11
 18011 64ac 1397      		sbiw r26,3
 18012 64ae 9C91      		ld r25,X
 18013 64b0 8917      		cp r24,r25
 18014 64b2 01F4      		brne .L1117
 18015               	.L1120:
 18016               	.LM1981:
 18017 64b4 2F5F      		subi r18,lo8(-(1))
 18018               	.L1119:
 18019 64b6 A22F      		mov r26,r18
 18020 64b8 B0E0      		ldi r27,lo8(0)
 18021 64ba 8091 0000 		lds r24,respLen
 18022 64be 90E0      		ldi r25,lo8(0)
 18023 64c0 0397      		sbiw r24,3
 18024 64c2 A817      		cp r26,r24
 18025 64c4 B907      		cpc r27,r25
 18026 64c6 04F0      		brlt .L1121
 18027               	.L1126:
 18028               	.LBE891:
 18029               	.LBB892:
 18030               	.LBB893:
 18031               	.LM1982:
 18032 64c8 8091 A108 		lds r24,2209
 18033 64cc 85FF      		sbrs r24,5
 18034 64ce 00C0      		rjmp .L1126
 18035               	.LM1983:
 18036 64d0 8DE0      		ldi r24,lo8(13)
 18037 64d2 8093 A008 		sts 2208,r24
 18038 64d6 81E0      		ldi r24,lo8(1)
 18039 64d8 00C0      		rjmp .L1123
 18040               	.LVL1401:
 18041               	.L1112:
 18042               	.LBE893:
 18043               	.LBE892:
 18044               	.LBB894:
 18045               	.LBB886:
 18046               	.LBB885:
 18047               	.LBB884:
 18048               	.LM1984:
 18049 64da C401      		movw r24,r8
 18050               	.LVL1402:
 18051               	/* #APP */
 18052               	 ;  105 "/usr/local/CrossPack-AVR-20100115/lib/gcc/avr/4.3.3/../../../../avr/include/util/delay_bas
 18053 64dc 0197      		1: sbiw r24,1
 18054 64de 01F4      		brne 1b
 18055               	 ;  0 "" 2
 18056               	/* #NOAPP */
 18057               	.LBE884:
 18058               	.LBE885:
 18059               	.LBE886:
 18060               	.LBE894:
 18061               	.LM1985:
 18062 64e0 0F5F      		subi r16,lo8(-(1))
 18063 64e2 1F4F      		sbci r17,hi8(-(1))
 18064               	.L1111:
 18065 64e4 0615      		cp r16,r6
 18066 64e6 1705      		cpc r17,r7
 18067 64e8 00F4      		brsh .+2
 18068 64ea 00C0      		rjmp .L1124
 18069               	.LVL1403:
 18070               	.L1117:
 18071 64ec 80E0      		ldi r24,lo8(0)
 18072               	.LVL1404:
 18073               	.L1123:
 18074               	/* epilogue start */
 18075               	.LBE879:
 18076               	.LM1986:
 18077 64ee DF91      		pop r29
 18078 64f0 CF91      		pop r28
 18079 64f2 1F91      		pop r17
 18080 64f4 0F91      		pop r16
 18081               	.LVL1405:
 18082 64f6 FF90      		pop r15
 18083 64f8 EF90      		pop r14
 18084               	.LVL1406:
 18085 64fa DF90      		pop r13
 18086 64fc CF90      		pop r12
 18087               	.LVL1407:
 18088 64fe BF90      		pop r11
 18089 6500 AF90      		pop r10
 18090               	.LVL1408:
 18091 6502 9F90      		pop r9
 18092 6504 8F90      		pop r8
 18093 6506 7F90      		pop r7
 18094 6508 6F90      		pop r6
 18095               	.LVL1409:
 18096 650a 0895      		ret
 18097               	.LFE20:
 18099               		.data
 18100               	.LC42:
 18101 0209 6765 7420 		.string	"get mac"
 18101      6D61 6300 
 18102               	.LC43:
 18103 0211 4D61 6320 		.string	"Mac Addr="
 18103      4164 6472 
 18103      3D00 
 18104               	.LC44:
 18105 021b 476F 7420 		.string	"Got Mac="
 18105      4D61 633D 
 18105      00
 18106               		.text
 18107               	.global	Wifi_GetMac
 18109               	Wifi_GetMac:
 18110               	.LFB23:
 18111               	.LM1987:
 18112               	.LVL1410:
 18113 650c EF92      		push r14
 18114 650e FF92      		push r15
 18115 6510 0F93      		push r16
 18116 6512 1F93      		push r17
 18117 6514 CF93      		push r28
 18118 6516 DF93      		push r29
 18119               	/* prologue: function */
 18120               	/* frame size = 0 */
 18121 6518 EC01      		movw r28,r24
 18122               	.LM1988:
 18123 651a 0E94 0000 		call Wifi_ClearBuffer
 18124               	.LVL1411:
 18125               	.LM1989:
 18126 651e 80E0      		ldi r24,lo8(.LC42)
 18127 6520 90E0      		ldi r25,hi8(.LC42)
 18128 6522 60E0      		ldi r22,lo8(.LC43)
 18129 6524 70E0      		ldi r23,hi8(.LC43)
 18130 6526 AB01      		movw r20,r22
 18131 6528 9E01      		movw r18,r28
 18132 652a 0E94 0000 		call Wifi_SendCommand
 18133 652e 10E0      		ldi r17,lo8(0)
 18134               	.LVL1412:
 18135 6530 00E0      		ldi r16,lo8(0)
 18136               	.LVL1413:
 18137               	.LBB895:
 18138               	.LBB896:
 18139               	.LBB897:
 18140               	.LBB898:
 18141               	.LBB899:
 18142               	.LM1990:
 18143 6532 50EA      		ldi r21,lo8(4000)
 18144 6534 E52E      		mov r14,r21
 18145 6536 5FE0      		ldi r21,hi8(4000)
 18146 6538 F52E      		mov r15,r21
 18147 653a 00C0      		rjmp .L1130
 18148               	.LVL1414:
 18149               	.L1133:
 18150               	.LBE899:
 18151               	.LBE898:
 18152               	.LBE897:
 18153               	.LBE896:
 18154               	.LM1991:
 18155 653c 0E94 0000 		call Wifi_CharReadyToRead
 18156               	.LVL1415:
 18157 6540 8823      		tst r24
 18158 6542 01F0      		breq .L1131
 18159               	.LM1992:
 18160 6544 80E0      		ldi r24,lo8(0)
 18161 6546 0E94 0000 		call Wifi_GetByte
 18162 654a E12F      		mov r30,r17
 18163 654c F0E0      		ldi r31,lo8(0)
 18164               	.LVL1416:
 18165 654e E050      		subi r30,lo8(-(macAddr))
 18166 6550 F040      		sbci r31,hi8(-(macAddr))
 18167               	.LVL1417:
 18168 6552 8083      		st Z,r24
 18169               	.LM1993:
 18170 6554 1F5F      		subi r17,lo8(-(1))
 18171               	.LVL1418:
 18172               	.LM1994:
 18173 6556 1131      		cpi r17,lo8(17)
 18174 6558 01F4      		brne .L1131
 18175               	.LM1995:
 18176 655a 80E0      		ldi r24,lo8(.LC44)
 18177 655c 90E0      		ldi r25,hi8(.LC44)
 18178 655e 60E0      		ldi r22,lo8(0)
 18179 6560 0E94 0000 		call Debug_SendString
 18180               	.LVL1419:
 18181               	.LM1996:
 18182 6564 80E0      		ldi r24,lo8(macAddr)
 18183 6566 90E0      		ldi r25,hi8(macAddr)
 18184 6568 61E0      		ldi r22,lo8(1)
 18185 656a 0E94 0000 		call Debug_SendString
 18186 656e 81E0      		ldi r24,lo8(1)
 18187 6570 00C0      		rjmp .L1132
 18188               	.LVL1420:
 18189               	.L1131:
 18190               	.LBB903:
 18191               	.LBB902:
 18192               	.LBB901:
 18193               	.LBB900:
 18194               	.LM1997:
 18195 6572 C701      		movw r24,r14
 18196               	.LVL1421:
 18197               	/* #APP */
 18198               	 ;  105 "/usr/local/CrossPack-AVR-20100115/lib/gcc/avr/4.3.3/../../../../avr/include/util/delay_bas
 18199 6574 0197      		1: sbiw r24,1
 18200 6576 01F4      		brne 1b
 18201               	 ;  0 "" 2
 18202               	/* #NOAPP */
 18203               	.LBE900:
 18204               	.LBE901:
 18205               	.LBE902:
 18206               	.LBE903:
 18207               	.LM1998:
 18208 6578 0F5F      		subi r16,lo8(-(1))
 18209               	.L1130:
 18210 657a 802F      		mov r24,r16
 18211               	.LVL1422:
 18212 657c 90E0      		ldi r25,lo8(0)
 18213               	.LVL1423:
 18214 657e 8C17      		cp r24,r28
 18215 6580 9D07      		cpc r25,r29
 18216 6582 00F0      		brlo .L1133
 18217               	.LVL1424:
 18218 6584 80E0      		ldi r24,lo8(0)
 18219               	.LVL1425:
 18220               	.L1132:
 18221               	/* epilogue start */
 18222               	.LBE895:
 18223               	.LM1999:
 18224 6586 DF91      		pop r29
 18225 6588 CF91      		pop r28
 18226               	.LVL1426:
 18227 658a 1F91      		pop r17
 18228               	.LVL1427:
 18229 658c 0F91      		pop r16
 18230               	.LVL1428:
 18231 658e FF90      		pop r15
 18232 6590 EF90      		pop r14
 18233 6592 0895      		ret
 18234               	.LFE23:
 18236               		.data
 18237               	.LC45:
 18238 0224 7368 6F77 		.string	"show connection"
 18238      2063 6F6E 
 18238      6E65 6374 
 18238      696F 6E00 
 18239               		.text
 18240               	.global	Wifi_Connected
 18242               	Wifi_Connected:
 18243               	.LFB22:
 18244               	.LM2000:
 18245               	.LVL1429:
 18246 6594 CF92      		push r12
 18247 6596 DF92      		push r13
 18248 6598 EF92      		push r14
 18249 659a FF92      		push r15
 18250 659c 0F93      		push r16
 18251 659e 1F93      		push r17
 18252 65a0 CF93      		push r28
 18253 65a2 DF93      		push r29
 18254               	/* prologue: function */
 18255               	/* frame size = 0 */
 18256 65a4 EC01      		movw r28,r24
 18257               	.LM2001:
 18258 65a6 0E94 0000 		call Wifi_ClearBuffer
 18259               	.LVL1430:
 18260               	.LM2002:
 18261 65aa 80E0      		ldi r24,lo8(.LC45)
 18262 65ac 90E0      		ldi r25,hi8(.LC45)
 18263 65ae 60E0      		ldi r22,lo8(.LC3)
 18264 65b0 70E0      		ldi r23,hi8(.LC3)
 18265 65b2 AB01      		movw r20,r22
 18266 65b4 9E01      		movw r18,r28
 18267 65b6 0E94 0000 		call Wifi_SendCommand
 18268 65ba FF24      		clr r15
 18269               	.LVL1431:
 18270 65bc EE24      		clr r14
 18271               	.LVL1432:
 18272               	.LBB904:
 18273               	.LBB905:
 18274               	.LBB906:
 18275               	.LBB907:
 18276               	.LBB908:
 18277               	.LM2003:
 18278 65be 60EA      		ldi r22,lo8(4000)
 18279 65c0 C62E      		mov r12,r22
 18280 65c2 6FE0      		ldi r22,hi8(4000)
 18281 65c4 D62E      		mov r13,r22
 18282 65c6 00C0      		rjmp .L1136
 18283               	.LVL1433:
 18284               	.L1140:
 18285               	.LBE908:
 18286               	.LBE907:
 18287               	.LBE906:
 18288               	.LBE905:
 18289               	.LM2004:
 18290 65c8 0E94 0000 		call Wifi_CharReadyToRead
 18291               	.LVL1434:
 18292 65cc 8823      		tst r24
 18293 65ce 01F0      		breq .L1137
 18294               	.LM2005:
 18295 65d0 0F2D      		mov r16,r15
 18296 65d2 10E0      		ldi r17,lo8(0)
 18297 65d4 80E0      		ldi r24,lo8(0)
 18298 65d6 0E94 0000 		call Wifi_GetByte
 18299 65da 0050      		subi r16,lo8(-(connectionStatus))
 18300 65dc 1040      		sbci r17,hi8(-(connectionStatus))
 18301 65de F801      		movw r30,r16
 18302 65e0 8083      		st Z,r24
 18303               	.LM2006:
 18304 65e2 F394      		inc r15
 18305               	.LM2007:
 18306 65e4 F3E0      		ldi r31,lo8(3)
 18307 65e6 FF16      		cp r15,r31
 18308 65e8 01F4      		brne .L1137
 18309               	.LM2008:
 18310 65ea 8091 0000 		lds r24,connectionStatus+2
 18311 65ee 8333      		cpi r24,lo8(51)
 18312 65f0 01F0      		breq .L1142
 18313               	.L1138:
 18314               	.LM2009:
 18315 65f2 81E0      		ldi r24,lo8(1)
 18316 65f4 8093 0000 		sts connected,r24
 18317 65f8 00C0      		rjmp .L1139
 18318               	.L1137:
 18319               	.LBB912:
 18320               	.LBB911:
 18321               	.LBB910:
 18322               	.LBB909:
 18323               	.LM2010:
 18324 65fa C601      		movw r24,r12
 18325               	.LVL1435:
 18326               	/* #APP */
 18327               	 ;  105 "/usr/local/CrossPack-AVR-20100115/lib/gcc/avr/4.3.3/../../../../avr/include/util/delay_bas
 18328 65fc 0197      		1: sbiw r24,1
 18329 65fe 01F4      		brne 1b
 18330               	 ;  0 "" 2
 18331               	/* #NOAPP */
 18332               	.LBE909:
 18333               	.LBE910:
 18334               	.LBE911:
 18335               	.LBE912:
 18336               	.LM2011:
 18337 6600 E394      		inc r14
 18338               	.L1136:
 18339 6602 8E2D      		mov r24,r14
 18340               	.LVL1436:
 18341 6604 90E0      		ldi r25,lo8(0)
 18342               	.LVL1437:
 18343 6606 8C17      		cp r24,r28
 18344 6608 9D07      		cpc r25,r29
 18345 660a 00F0      		brlo .L1140
 18346               	.L1142:
 18347               	.LBE904:
 18348               	.LM2012:
 18349 660c 1092 0000 		sts connected,__zero_reg__
 18350 6610 80E0      		ldi r24,lo8(0)
 18351               	.L1139:
 18352               	/* epilogue start */
 18353               	.LM2013:
 18354 6612 DF91      		pop r29
 18355 6614 CF91      		pop r28
 18356               	.LVL1438:
 18357 6616 1F91      		pop r17
 18358 6618 0F91      		pop r16
 18359 661a FF90      		pop r15
 18360               	.LVL1439:
 18361 661c EF90      		pop r14
 18362               	.LVL1440:
 18363 661e DF90      		pop r13
 18364 6620 CF90      		pop r12
 18365 6622 0895      		ret
 18366               	.LFE22:
 18368               		.data
 18369               	.LC46:
 18370 0234 6578 6974 		.string	"exit"
 18370      00
 18371               	.LC47:
 18372 0239 4558 4954 		.string	"EXIT"
 18372      00
 18373               		.text
 18374               	.global	Wifi_ExitCMDMode
 18376               	Wifi_ExitCMDMode:
 18377               	.LFB19:
 18378               	.LM2014:
 18379               	.LVL1441:
 18380               	/* prologue: function */
 18381               	/* frame size = 0 */
 18382 6624 9C01      		movw r18,r24
 18383               	.LM2015:
 18384 6626 40E0      		ldi r20,lo8(.LC47)
 18385 6628 50E0      		ldi r21,hi8(.LC47)
 18386 662a 80E0      		ldi r24,lo8(.LC46)
 18387 662c 90E0      		ldi r25,hi8(.LC46)
 18388               	.LVL1442:
 18389 662e BA01      		movw r22,r20
 18390 6630 0E94 0000 		call Wifi_SendCommand
 18391               	.LVL1443:
 18392               	/* epilogue start */
 18393               	.LM2016:
 18394 6634 0895      		ret
 18395               	.LFE19:
 18397               	.global	f_printf
 18399               	f_printf:
 18400               	.LFB97:
 18401               	.LM2017:
 18402               	.LVL1444:
 18403 6636 2F92      		push r2
 18404 6638 3F92      		push r3
 18405 663a 4F92      		push r4
 18406 663c 5F92      		push r5
 18407 663e 6F92      		push r6
 18408 6640 7F92      		push r7
 18409 6642 8F92      		push r8
 18410 6644 9F92      		push r9
 18411 6646 AF92      		push r10
 18412 6648 BF92      		push r11
 18413 664a CF92      		push r12
 18414 664c DF92      		push r13
 18415 664e EF92      		push r14
 18416 6650 FF92      		push r15
 18417 6652 0F93      		push r16
 18418 6654 1F93      		push r17
 18419 6656 DF93      		push r29
 18420 6658 CF93      		push r28
 18421 665a CDB7      		in r28,__SP_L__
 18422 665c DEB7      		in r29,__SP_H__
 18423 665e 6397      		sbiw r28,19
 18424 6660 CDBF      		out __SP_L__,r28
 18425 6662 DEBF      		out __SP_H__,r29
 18426               	/* prologue: function */
 18427               	/* frame size = 19 */
 18428 6664 6BA4      		ldd r6,Y+43
 18429 6666 7CA4      		ldd r7,Y+44
 18430               	.LM2018:
 18431 6668 8E01      		movw r16,r28
 18432               	.LVL1445:
 18433 666a 035D      		subi r16,lo8(-(45))
 18434 666c 1F4F      		sbci r17,hi8(-(45))
 18435 666e 198A      		std Y+17,__zero_reg__
 18436 6670 1A8A      		std Y+18,__zero_reg__
 18437               	.LVL1446:
 18438 6672 20E0      		ldi r18,lo8(0)
 18439 6674 30E0      		ldi r19,hi8(0)
 18440               	.LVL1447:
 18441               	.LVL1448:
 18442               	.L1173:
 18443               	.LM2019:
 18444 6676 D301      		movw r26,r6
 18445 6678 8C91      		ld r24,X
 18446               	.LVL1449:
 18447               	.LM2020:
 18448 667a 8823      		tst r24
 18449 667c 01F4      		brne .+2
 18450 667e 00C0      		rjmp .L1146
 18451               	.LM2021:
 18452 6680 0894      		sec
 18453 6682 611C      		adc r6,__zero_reg__
 18454 6684 711C      		adc r7,__zero_reg__
 18455               	.LM2022:
 18456 6686 8532      		cpi r24,lo8(37)
 18457 6688 01F0      		breq .L1147
 18458               	.LM2023:
 18459 668a 90E0      		ldi r25,lo8(0)
 18460 668c 69A5      		ldd r22,Y+41
 18461 668e 7AA5      		ldd r23,Y+42
 18462 6690 0E94 0000 		call f_putc
 18463               	.LVL1450:
 18464 6694 9C01      		movw r18,r24
 18465               	.LVL1451:
 18466               	.LM2024:
 18467 6696 BFEF      		ldi r27,hi8(-1)
 18468 6698 8F3F      		cpi r24,lo8(-1)
 18469 669a 9B07      		cpc r25,r27
 18470 669c 01F4      		brne .L1148
 18471               	.LVL1452:
 18472 669e 4801      		movw r8,r16
 18473 66a0 00C0      		rjmp .L1149
 18474               	.L1148:
 18475 66a2 4801      		movw r8,r16
 18476 66a4 00C0      		rjmp .L1176
 18477               	.LVL1453:
 18478               	.L1147:
 18479               	.LM2025:
 18480 66a6 D301      		movw r26,r6
 18481 66a8 ED91      		ld r30,X+
 18482               	.LVL1454:
 18483 66aa 3D01      		movw r6,r26
 18484               	.LM2026:
 18485 66ac E033      		cpi r30,lo8(48)
 18486 66ae 01F0      		breq .L1150
 18487 66b0 1B8A      		std Y+19,__zero_reg__
 18488               	.LVL1455:
 18489 66b2 00C0      		rjmp .L1151
 18490               	.L1150:
 18491               	.LM2027:
 18492 66b4 ED91      		ld r30,X+
 18493 66b6 3D01      		movw r6,r26
 18494 66b8 B1E0      		ldi r27,lo8(1)
 18495 66ba BB8B      		std Y+19,r27
 18496               	.LVL1456:
 18497               	.L1151:
 18498 66bc AA24      		clr r10
 18499 66be BB24      		clr r11
 18500 66c0 00C0      		rjmp .L1152
 18501               	.L1153:
 18502               	.LM2028:
 18503 66c2 C501      		movw r24,r10
 18504 66c4 53E0      		ldi r21,3
 18505 66c6 880F      	1:	lsl r24
 18506 66c8 991F      		rol r25
 18507 66ca 5A95      		dec r21
 18508 66cc 01F4      		brne 1b
 18509 66ce AA0C      		lsl r10
 18510 66d0 BB1C      		rol r11
 18511 66d2 A80E      		add r10,r24
 18512 66d4 B91E      		adc r11,r25
 18513 66d6 AE0E      		add r10,r30
 18514 66d8 B11C      		adc r11,__zero_reg__
 18515 66da E0ED      		ldi r30,lo8(-48)
 18516 66dc FFEF      		ldi r31,hi8(-48)
 18517               	.LVL1457:
 18518 66de AE0E      		add r10,r30
 18519 66e0 BF1E      		adc r11,r31
 18520               	.LM2029:
 18521 66e2 D301      		movw r26,r6
 18522 66e4 ED91      		ld r30,X+
 18523               	.LVL1458:
 18524 66e6 3D01      		movw r6,r26
 18525               	.L1152:
 18526               	.LM2030:
 18527 66e8 8E2F      		mov r24,r30
 18528 66ea 8053      		subi r24,lo8(-(-48))
 18529 66ec 8A30      		cpi r24,lo8(10)
 18530 66ee 00F0      		brlo .L1153
 18531               	.LM2031:
 18532 66f0 EC36      		cpi r30,lo8(108)
 18533 66f2 01F4      		brne .L1154
 18534               	.LM2032:
 18535 66f4 BB89      		ldd r27,Y+19
 18536 66f6 B260      		ori r27,lo8(2)
 18537 66f8 BB8B      		std Y+19,r27
 18538               	.LVL1459:
 18539 66fa D301      		movw r26,r6
 18540 66fc ED91      		ld r30,X+
 18541 66fe 3D01      		movw r6,r26
 18542               	.L1154:
 18543               	.LM2033:
 18544 6700 E337      		cpi r30,lo8(115)
 18545 6702 01F4      		brne .L1155
 18546               	.LM2034:
 18547 6704 B2E0      		ldi r27,lo8(2)
 18548 6706 8B2E      		mov r8,r27
 18549 6708 912C      		mov r9,__zero_reg__
 18550               	.LVL1460:
 18551 670a 800E      		add r8,r16
 18552 670c 911E      		adc r9,r17
 18553 670e F801      		movw r30,r16
 18554               	.LVL1461:
 18555 6710 8081      		ld r24,Z
 18556 6712 9181      		ldd r25,Z+1
 18557 6714 00C0      		rjmp .L1177
 18558               	.LVL1462:
 18559               	.L1155:
 18560               	.LM2035:
 18561 6716 E336      		cpi r30,lo8(99)
 18562 6718 01F4      		brne .L1156
 18563               	.LM2036:
 18564 671a A2E0      		ldi r26,lo8(2)
 18565 671c 8A2E      		mov r8,r26
 18566 671e 912C      		mov r9,__zero_reg__
 18567               	.LVL1463:
 18568 6720 800E      		add r8,r16
 18569 6722 911E      		adc r9,r17
 18570 6724 D801      		movw r26,r16
 18571 6726 8D91      		ld r24,X+
 18572 6728 9C91      		ld r25,X
 18573 672a 69A5      		ldd r22,Y+41
 18574 672c 7AA5      		ldd r23,Y+42
 18575 672e 0E94 0000 		call f_putc
 18576               	.LVL1464:
 18577 6732 9C01      		movw r18,r24
 18578               	.LVL1465:
 18579               	.LM2037:
 18580 6734 BFEF      		ldi r27,hi8(-1)
 18581 6736 8F3F      		cpi r24,lo8(-1)
 18582 6738 9B07      		cpc r25,r27
 18583 673a 01F4      		brne .+2
 18584 673c 00C0      		rjmp .L1149
 18585               	.LVL1466:
 18586               	.L1176:
 18587 673e 21E0      		ldi r18,lo8(1)
 18588 6740 30E0      		ldi r19,hi8(1)
 18589               	.LVL1467:
 18590 6742 00C0      		rjmp .L1149
 18591               	.LVL1468:
 18592               	.L1156:
 18593               	.LM2038:
 18594 6744 E436      		cpi r30,lo8(100)
 18595 6746 01F0      		breq .L1157
 18596               	.LM2039:
 18597 6748 E537      		cpi r30,lo8(117)
 18598 674a 01F0      		breq .L1157
 18599               	.LM2040:
 18600 674c E835      		cpi r30,lo8(88)
 18601 674e 01F0      		breq .+2
 18602 6750 00C0      		rjmp .L1146
 18603 6752 20E1      		ldi r18,lo8(16)
 18604               	.LVL1469:
 18605 6754 00C0      		rjmp .L1158
 18606               	.LVL1470:
 18607               	.L1157:
 18608 6756 2AE0      		ldi r18,lo8(10)
 18609               	.LVL1471:
 18610               	.L1158:
 18611               	.LM2041:
 18612 6758 FB89      		ldd r31,Y+19
 18613 675a F1FF      		sbrs r31,1
 18614 675c 00C0      		rjmp .L1159
 18615               	.LM2042:
 18616 675e F4E0      		ldi r31,lo8(4)
 18617 6760 8F2E      		mov r8,r31
 18618 6762 912C      		mov r9,__zero_reg__
 18619               	.LVL1472:
 18620 6764 800E      		add r8,r16
 18621 6766 911E      		adc r9,r17
 18622 6768 D801      		movw r26,r16
 18623 676a ED90      		ld r14,X+
 18624 676c FD90      		ld r15,X+
 18625 676e 0D91      		ld r16,X+
 18626 6770 1C91      		ld r17,X
 18627               	.LM2043:
 18628 6772 E436      		cpi r30,lo8(100)
 18629 6774 01F4      		brne .L1161
 18630               	.LVL1473:
 18631 6776 00C0      		rjmp .L1160
 18632               	.L1159:
 18633 6778 C801      		movw r24,r16
 18634 677a 0296      		adiw r24,2
 18635               	.LVL1474:
 18636 677c D801      		movw r26,r16
 18637 677e 6D91      		ld r22,X+
 18638 6780 7C91      		ld r23,X
 18639               	.LM2044:
 18640 6782 E436      		cpi r30,lo8(100)
 18641 6784 01F4      		brne .L1162
 18642               	.LVL1475:
 18643 6786 4C01      		movw r8,r24
 18644 6788 7B01      		movw r14,r22
 18645 678a 0027      		clr r16
 18646 678c F7FC      		sbrc r15,7
 18647 678e 0095      		com r16
 18648 6790 102F      		mov r17,r16
 18649 6792 00C0      		rjmp .L1160
 18650               	.LVL1476:
 18651               	.L1162:
 18652 6794 4C01      		movw r8,r24
 18653 6796 7B01      		movw r14,r22
 18654               	.LVL1477:
 18655 6798 00E0      		ldi r16,lo8(0)
 18656 679a 10E0      		ldi r17,hi8(0)
 18657               	.LVL1478:
 18658 679c 00C0      		rjmp .L1161
 18659               	.LVL1479:
 18660               	.L1160:
 18661               	.LM2045:
 18662 679e 17FF      		sbrs r17,7
 18663 67a0 00C0      		rjmp .L1161
 18664               	.LM2046:
 18665 67a2 1095      		com r17
 18666 67a4 0095      		com r16
 18667 67a6 F094      		com r15
 18668 67a8 E094      		com r14
 18669 67aa E11C      		adc r14,__zero_reg__
 18670 67ac F11C      		adc r15,__zero_reg__
 18671 67ae 011D      		adc r16,__zero_reg__
 18672 67b0 111D      		adc r17,__zero_reg__
 18673               	.LM2047:
 18674 67b2 BB89      		ldd r27,Y+19
 18675 67b4 B460      		ori r27,lo8(4)
 18676 67b6 BB8B      		std Y+19,r27
 18677               	.LVL1480:
 18678               	.L1161:
 18679               	.LM2048:
 18680 67b8 188A      		std Y+16,__zero_reg__
 18681 67ba 7FE0      		ldi r23,lo8(15)
 18682 67bc C72E      		mov r12,r23
 18683 67be D12C      		mov r13,__zero_reg__
 18684               	.LM2049:
 18685 67c0 222E      		mov r2,r18
 18686 67c2 3324      		clr r3
 18687 67c4 4424      		clr r4
 18688 67c6 5524      		clr r5
 18689               	.LVL1481:
 18690               	.L1166:
 18691 67c8 C801      		movw r24,r16
 18692 67ca B701      		movw r22,r14
 18693 67cc A201      		movw r20,r4
 18694 67ce 9101      		movw r18,r2
 18695               	.LVL1482:
 18696 67d0 0E94 0000 		call __udivmodsi4
 18697               	.LVL1483:
 18698 67d4 862F      		mov r24,r22
 18699               	.LVL1484:
 18700 67d6 805D      		subi r24,lo8(-(48))
 18701               	.LM2050:
 18702 67d8 8A33      		cpi r24,lo8(58)
 18703 67da 00F0      		brlo .L1163
 18704 67dc 895F      		subi r24,lo8(-(7))
 18705               	.L1163:
 18706               	.LM2051:
 18707 67de 0894      		sec
 18708 67e0 C108      		sbc r12,__zero_reg__
 18709 67e2 D108      		sbc r13,__zero_reg__
 18710 67e4 E1E0      		ldi r30,lo8(1)
 18711 67e6 F0E0      		ldi r31,hi8(1)
 18712 67e8 EC0F      		add r30,r28
 18713 67ea FD1F      		adc r31,r29
 18714 67ec EC0D      		add r30,r12
 18715 67ee FD1D      		adc r31,r13
 18716 67f0 8083      		st Z,r24
 18717               	.LM2052:
 18718 67f2 C114      		cp r12,__zero_reg__
 18719 67f4 D104      		cpc r13,__zero_reg__
 18720 67f6 01F0      		breq .L1165
 18721               	.LM2053:
 18722 67f8 C801      		movw r24,r16
 18723 67fa B701      		movw r22,r14
 18724 67fc A201      		movw r20,r4
 18725 67fe 9101      		movw r18,r2
 18726 6800 0E94 0000 		call __udivmodsi4
 18727 6804 C901      		movw r24,r18
 18728               	.LVL1485:
 18729 6806 DA01      		movw r26,r20
 18730 6808 7C01      		movw r14,r24
 18731 680a 8D01      		movw r16,r26
 18732               	.LM2054:
 18733 680c E114      		cp r14,__zero_reg__
 18734 680e F104      		cpc r15,__zero_reg__
 18735 6810 0105      		cpc r16,__zero_reg__
 18736 6812 1105      		cpc r17,__zero_reg__
 18737 6814 01F4      		brne .L1166
 18738               	.LM2055:
 18739 6816 EB89      		ldd r30,Y+19
 18740 6818 E2FF      		sbrs r30,2
 18741 681a 00C0      		rjmp .L1165
 18742 681c 0894      		sec
 18743 681e C108      		sbc r12,__zero_reg__
 18744 6820 D108      		sbc r13,__zero_reg__
 18745 6822 E1E0      		ldi r30,lo8(1)
 18746 6824 F0E0      		ldi r31,hi8(1)
 18747 6826 EC0F      		add r30,r28
 18748 6828 FD1F      		adc r31,r29
 18749 682a EC0D      		add r30,r12
 18750 682c FD1D      		adc r31,r13
 18751 682e 4DE2      		ldi r20,lo8(45)
 18752 6830 4083      		st Z,r20
 18753               	.LVL1486:
 18754               	.L1165:
 18755               	.LM2056:
 18756 6832 8FE0      		ldi r24,lo8(15)
 18757 6834 90E0      		ldi r25,hi8(15)
 18758               	.LVL1487:
 18759 6836 8A19      		sub r24,r10
 18760 6838 9B09      		sbc r25,r11
 18761 683a 0894      		sec
 18762 683c C108      		sbc r12,__zero_reg__
 18763 683e D108      		sbc r13,__zero_reg__
 18764 6840 E1E0      		ldi r30,lo8(1)
 18765 6842 F0E0      		ldi r31,hi8(1)
 18766 6844 EC0F      		add r30,r28
 18767 6846 FD1F      		adc r31,r29
 18768 6848 EC0D      		add r30,r12
 18769 684a FD1D      		adc r31,r13
 18770 684c 0894      		sec
 18771 684e C11C      		adc r12,__zero_reg__
 18772 6850 D11C      		adc r13,__zero_reg__
 18773               	.LM2057:
 18774 6852 AB89      		ldd r26,Y+19
 18775 6854 2A2F      		mov r18,r26
 18776 6856 30E0      		ldi r19,lo8(0)
 18777 6858 2170      		andi r18,lo8(1)
 18778 685a 3070      		andi r19,hi8(1)
 18779 685c 00C0      		rjmp .L1167
 18780               	.L1171:
 18781 685e 0894      		sec
 18782 6860 C108      		sbc r12,__zero_reg__
 18783 6862 D108      		sbc r13,__zero_reg__
 18784 6864 2115      		cp r18,__zero_reg__
 18785 6866 3105      		cpc r19,__zero_reg__
 18786 6868 01F4      		brne .L1168
 18787 686a 40E2      		ldi r20,lo8(32)
 18788 686c 00C0      		rjmp .L1169
 18789               	.L1168:
 18790 686e 40E3      		ldi r20,lo8(48)
 18791               	.L1169:
 18792 6870 4083      		st Z,r20
 18793 6872 3197      		sbiw r30,1
 18794               	.L1167:
 18795 6874 C114      		cp r12,__zero_reg__
 18796 6876 D104      		cpc r13,__zero_reg__
 18797 6878 01F0      		breq .L1170
 18798 687a 8C15      		cp r24,r12
 18799 687c 9D05      		cpc r25,r13
 18800 687e 04F0      		brlt .L1171
 18801               	.L1170:
 18802               	.LM2058:
 18803 6880 81E0      		ldi r24,lo8(1)
 18804 6882 90E0      		ldi r25,hi8(1)
 18805               	.LVL1488:
 18806 6884 8C0F      		add r24,r28
 18807 6886 9D1F      		adc r25,r29
 18808 6888 8C0D      		add r24,r12
 18809 688a 9D1D      		adc r25,r13
 18810               	.LVL1489:
 18811               	.L1177:
 18812 688c 69A5      		ldd r22,Y+41
 18813 688e 7AA5      		ldd r23,Y+42
 18814 6890 0E94 0000 		call f_puts
 18815               	.LVL1490:
 18816 6894 9C01      		movw r18,r24
 18817               	.LVL1491:
 18818               	.L1149:
 18819               	.LM2059:
 18820 6896 E989      		ldd r30,Y+17
 18821 6898 FA89      		ldd r31,Y+18
 18822 689a E20F      		add r30,r18
 18823 689c F31F      		adc r31,r19
 18824 689e E98B      		std Y+17,r30
 18825 68a0 FA8B      		std Y+18,r31
 18826               	.LVL1492:
 18827 68a2 FFEF      		ldi r31,hi8(-1)
 18828 68a4 2F3F      		cpi r18,lo8(-1)
 18829 68a6 3F07      		cpc r19,r31
 18830 68a8 01F0      		breq .L1172
 18831 68aa 8401      		movw r16,r8
 18832               	.LVL1493:
 18833 68ac 00C0      		rjmp .L1173
 18834               	.LVL1494:
 18835               	.L1146:
 18836               	.LM2060:
 18837 68ae 4FEF      		ldi r20,hi8(-1)
 18838 68b0 2F3F      		cpi r18,lo8(-1)
 18839 68b2 3407      		cpc r19,r20
 18840 68b4 01F0      		breq .L1172
 18841 68b6 2989      		ldd r18,Y+17
 18842 68b8 3A89      		ldd r19,Y+18
 18843               	.LVL1495:
 18844               	.L1172:
 18845               	.LM2061:
 18846 68ba C901      		movw r24,r18
 18847               	.LVL1496:
 18848               	/* epilogue start */
 18849 68bc 6396      		adiw r28,19
 18850 68be CDBF      		out __SP_L__,r28
 18851 68c0 DEBF      		out __SP_H__,r29
 18852 68c2 CF91      		pop r28
 18853 68c4 DF91      		pop r29
 18854 68c6 1F91      		pop r17
 18855 68c8 0F91      		pop r16
 18856               	.LVL1497:
 18857 68ca FF90      		pop r15
 18858 68cc EF90      		pop r14
 18859               	.LVL1498:
 18860 68ce DF90      		pop r13
 18861 68d0 CF90      		pop r12
 18862               	.LVL1499:
 18863 68d2 BF90      		pop r11
 18864 68d4 AF90      		pop r10
 18865               	.LVL1500:
 18866 68d6 9F90      		pop r9
 18867 68d8 8F90      		pop r8
 18868               	.LVL1501:
 18869 68da 7F90      		pop r7
 18870 68dc 6F90      		pop r6
 18871               	.LVL1502:
 18872 68de 5F90      		pop r5
 18873 68e0 4F90      		pop r4
 18874 68e2 3F90      		pop r3
 18875 68e4 2F90      		pop r2
 18876 68e6 0895      		ret
 18877               	.LFE97:
 18879               		.data
 18880               	.LC48:
 18881 023e 7368 6F77 		.string	"show t t"
 18881      2074 2074 
 18881      00
 18882               	.LC49:
 18883 0247 5469 6D65 		.string	"Time="
 18883      3D00 
 18884               	.LC50:
 18885 024d 2000      		.string	" "
 18886               		.text
 18887               	.global	Wifi_GetTime
 18889               	Wifi_GetTime:
 18890               	.LFB21:
 18891               	.LM2062:
 18892               	.LVL1503:
 18893 68e8 EF92      		push r14
 18894 68ea FF92      		push r15
 18895 68ec 0F93      		push r16
 18896 68ee 1F93      		push r17
 18897 68f0 CF93      		push r28
 18898 68f2 DF93      		push r29
 18899               	/* prologue: function */
 18900               	/* frame size = 0 */
 18901               	.LM2063:
 18902 68f4 80E0      		ldi r24,lo8(.LC48)
 18903 68f6 90E0      		ldi r25,hi8(.LC48)
 18904               	.LVL1504:
 18905 68f8 60E0      		ldi r22,lo8(.LC49)
 18906 68fa 70E0      		ldi r23,hi8(.LC49)
 18907 68fc AB01      		movw r20,r22
 18908 68fe 24EF      		ldi r18,lo8(500)
 18909 6900 31E0      		ldi r19,hi8(500)
 18910 6902 0E94 0000 		call Wifi_SendCommand
 18911               	.LBB913:
 18912               	.LBB914:
 18913               	.LBB915:
 18914               	.LBB916:
 18915               	.LM2064:
 18916 6906 80E4      		ldi r24,lo8(-25536)
 18917 6908 9CE9      		ldi r25,hi8(-25536)
 18918               	.LVL1505:
 18919               	/* #APP */
 18920               	 ;  105 "/usr/local/CrossPack-AVR-20100115/lib/gcc/avr/4.3.3/../../../../avr/include/util/delay_bas
 18921 690a 0197      		1: sbiw r24,1
 18922 690c 01F4      		brne 1b
 18923               	 ;  0 "" 2
 18924               	/* #NOAPP */
 18925 690e C0E0      		ldi r28,lo8(string)
 18926 6910 D0E0      		ldi r29,hi8(string)
 18927 6912 10E0      		ldi r17,lo8(0)
 18928               	.LVL1506:
 18929 6914 00C0      		rjmp .L1179
 18930               	.LVL1507:
 18931               	.L1181:
 18932               	.LBE916:
 18933               	.LBE915:
 18934               	.LBE914:
 18935               	.LBE913:
 18936               	.LM2065:
 18937 6916 1233      		cpi r17,lo8(50)
 18938 6918 01F0      		breq .L1187
 18939               	.LM2066:
 18940 691a 80E0      		ldi r24,lo8(0)
 18941 691c 0E94 0000 		call Wifi_GetByte
 18942 6920 8993      		st Y+,r24
 18943               	.LM2067:
 18944 6922 1F5F      		subi r17,lo8(-(1))
 18945               	.LVL1508:
 18946               	.L1179:
 18947               	.LM2068:
 18948 6924 0E94 0000 		call Wifi_CharReadyToRead
 18949               	.LVL1509:
 18950 6928 8823      		tst r24
 18951 692a 01F4      		brne .L1181
 18952               	.L1187:
 18953               	.LBB917:
 18954               	.LBB918:
 18955               	.LM2069:
 18956 692c 8091 A108 		lds r24,2209
 18957 6930 85FF      		sbrs r24,5
 18958 6932 00C0      		rjmp .L1187
 18959               	.LM2070:
 18960 6934 8DE0      		ldi r24,lo8(13)
 18961 6936 8093 A008 		sts 2208,r24
 18962               	.LBE918:
 18963               	.LBE917:
 18964               	.LM2071:
 18965 693a 1430      		cpi r17,lo8(4)
 18966 693c 00F4      		brsh .L1182
 18967 693e 80E0      		ldi r24,lo8(0)
 18968 6940 00C0      		rjmp .L1183
 18969               	.L1182:
 18970               	.LM2072:
 18971 6942 80E0      		ldi r24,lo8(string)
 18972 6944 90E0      		ldi r25,hi8(string)
 18973 6946 60E0      		ldi r22,lo8(.LC21)
 18974 6948 70E0      		ldi r23,hi8(.LC21)
 18975 694a 0E94 0000 		call strtok
 18976               	.LM2073:
 18977 694e 80E0      		ldi r24,lo8(0)
 18978 6950 90E0      		ldi r25,hi8(0)
 18979 6952 60E0      		ldi r22,lo8(.LC21)
 18980 6954 70E0      		ldi r23,hi8(.LC21)
 18981 6956 0E94 0000 		call strtok
 18982               	.LM2074:
 18983 695a 80E0      		ldi r24,lo8(0)
 18984 695c 90E0      		ldi r25,hi8(0)
 18985 695e 60E0      		ldi r22,lo8(.LC50)
 18986 6960 70E0      		ldi r23,hi8(.LC50)
 18987 6962 0E94 0000 		call strtok
 18988 6966 BC01      		movw r22,r24
 18989 6968 80E0      		ldi r24,lo8(timeString)
 18990 696a 90E0      		ldi r25,hi8(timeString)
 18991 696c 0E94 0000 		call strcat
 18992 6970 20E0      		ldi r18,lo8(0)
 18993 6972 30E0      		ldi r19,hi8(0)
 18994               	.L1184:
 18995               	.LBB919:
 18996               	.LM2075:
 18997 6974 F901      		movw r30,r18
 18998 6976 E050      		subi r30,lo8(-(timeUpper))
 18999 6978 F040      		sbci r31,hi8(-(timeUpper))
 19000 697a D901      		movw r26,r18
 19001 697c A050      		subi r26,lo8(-(timeString))
 19002 697e B040      		sbci r27,hi8(-(timeString))
 19003 6980 8C91      		ld r24,X
 19004 6982 8083      		st Z,r24
 19005 6984 2F5F      		subi r18,lo8(-(1))
 19006 6986 3F4F      		sbci r19,hi8(-(1))
 19007               	.LM2076:
 19008 6988 2830      		cpi r18,8
 19009 698a 3105      		cpc r19,__zero_reg__
 19010 698c 01F4      		brne .L1184
 19011 698e A0E0      		ldi r26,lo8(timeString+8)
 19012 6990 B0E0      		ldi r27,hi8(timeString+8)
 19013 6992 20E0      		ldi r18,lo8(0)
 19014 6994 30E0      		ldi r19,hi8(0)
 19015               	.L1185:
 19016               	.LBE919:
 19017               	.LBB920:
 19018               	.LM2077:
 19019 6996 8D91      		ld r24,X+
 19020 6998 F901      		movw r30,r18
 19021 699a E050      		subi r30,lo8(-(timeLower))
 19022 699c F040      		sbci r31,hi8(-(timeLower))
 19023 699e 8083      		st Z,r24
 19024 69a0 2F5F      		subi r18,lo8(-(1))
 19025 69a2 3F4F      		sbci r19,hi8(-(1))
 19026               	.LM2078:
 19027 69a4 2530      		cpi r18,5
 19028 69a6 3105      		cpc r19,__zero_reg__
 19029 69a8 01F4      		brne .L1185
 19030               	.LBE920:
 19031               	.LM2079:
 19032 69aa 80E0      		ldi r24,lo8(timeUpper)
 19033 69ac 90E0      		ldi r25,hi8(timeUpper)
 19034 69ae 0E94 0000 		call atol
 19035 69b2 9B01      		movw r18,r22
 19036 69b4 AC01      		movw r20,r24
 19037               	.LM2080:
 19038 69b6 205A      		subi r18,lo8(-(-22089888))
 19039 69b8 3041      		sbci r19,hi8(-(-22089888))
 19040 69ba 4145      		sbci r20,hlo8(-(-22089888))
 19041 69bc 5140      		sbci r21,hhi8(-(-22089888))
 19042               	.LVL1510:
 19043               	.LM2081:
 19044 69be CA01      		movw r24,r20
 19045 69c0 B901      		movw r22,r18
 19046 69c2 24E6      		ldi r18,lo8(100)
 19047 69c4 30E0      		ldi r19,hi8(100)
 19048 69c6 40E0      		ldi r20,hlo8(100)
 19049 69c8 50E0      		ldi r21,hhi8(100)
 19050               	.LVL1511:
 19051 69ca 0E94 0000 		call __mulsi3
 19052               	.LM2082:
 19053 69ce E091 0000 		lds r30,timeLower
 19054               	.LM2083:
 19055 69d2 2091 0000 		lds r18,timeLower+1
 19056               	.LM2084:
 19057 69d6 30E0      		ldi r19,lo8(0)
 19058 69d8 2053      		subi r18,lo8(-(-48))
 19059 69da 3040      		sbci r19,hi8(-(-48))
 19060 69dc 4427      		clr r20
 19061 69de 37FD      		sbrc r19,7
 19062 69e0 4095      		com r20
 19063 69e2 542F      		mov r21,r20
 19064 69e4 260F      		add r18,r22
 19065 69e6 371F      		adc r19,r23
 19066 69e8 481F      		adc r20,r24
 19067 69ea 591F      		adc r21,r25
 19068               	.LVL1512:
 19069               	.LM2085:
 19070 69ec 8AE0      		ldi r24,lo8(10)
 19071 69ee E89F      		mul r30,r24
 19072 69f0 C001      		movw r24,r0
 19073 69f2 1124      		clr r1
 19074 69f4 805E      		subi r24,lo8(-(-480))
 19075 69f6 9140      		sbci r25,hi8(-(-480))
 19076 69f8 7C01      		movw r14,r24
 19077 69fa 0027      		clr r16
 19078 69fc F7FC      		sbrc r15,7
 19079 69fe 0095      		com r16
 19080 6a00 102F      		mov r17,r16
 19081 6a02 2E0D      		add r18,r14
 19082 6a04 3F1D      		adc r19,r15
 19083 6a06 401F      		adc r20,r16
 19084 6a08 511F      		adc r21,r17
 19085               	.LM2086:
 19086 6a0a 2093 0000 		sts time_secs,r18
 19087 6a0e 3093 0000 		sts (time_secs)+1,r19
 19088 6a12 4093 0000 		sts (time_secs)+2,r20
 19089 6a16 5093 0000 		sts (time_secs)+3,r21
 19090 6a1a 81E0      		ldi r24,lo8(1)
 19091               	.L1183:
 19092               	/* epilogue start */
 19093               	.LM2087:
 19094 6a1c DF91      		pop r29
 19095 6a1e CF91      		pop r28
 19096 6a20 1F91      		pop r17
 19097               	.LVL1513:
 19098 6a22 0F91      		pop r16
 19099 6a24 FF90      		pop r15
 19100 6a26 EF90      		pop r14
 19101 6a28 0895      		ret
 19102               	.LFE21:
 19104               		.data
 19105               	.LC51:
 19106 024f 434D 4420 		.string	"CMD Mode.......OK"
 19106      4D6F 6465 
 19106      2E2E 2E2E 
 19106      2E2E 2E4F 
 19106      4B00 
 19107               	.LC52:
 19108 0261 434D 4420 		.string	"CMD Mode.....FAIL"
 19108      4D6F 6465 
 19108      2E2E 2E2E 
 19108      2E46 4149 
 19108      4C00 
 19109               	.LC53:
 19110 0273 6661 6374 		.string	"factory RESET"
 19110      6F72 7920 
 19110      5245 5345 
 19110      5400 
 19111               	.LC54:
 19112 0281 5365 7420 		.string	"Set Factory Defaults"
 19112      4661 6374 
 19112      6F72 7920 
 19112      4465 6661 
 19112      756C 7473 
 19113               	.LC55:
 19114 0296 7265 7365 		.string	"reset..........OK"
 19114      742E 2E2E 
 19114      2E2E 2E2E 
 19114      2E2E 2E4F 
 19114      4B00 
 19115               	.LC56:
 19116 02a8 7265 7365 		.string	"reset........FAIL"
 19116      742E 2E2E 
 19116      2E2E 2E2E 
 19116      2E46 4149 
 19116      4C00 
 19117               	.LC57:
 19118 02ba 7365 7420 		.string	"set usart instant 230400"
 19118      7573 6172 
 19118      7420 696E 
 19118      7374 616E 
 19118      7420 3233 
 19119               	.LC58:
 19120 02d3 414F 4B00 		.string	"AOK"
 19121               	.LC59:
 19122 02d7 7365 7420 		.string	"set comm remote 0"
 19122      636F 6D6D 
 19122      2072 656D 
 19122      6F74 6520 
 19122      3000 
 19123               	.LC60:
 19124 02e9 7365 7420 		.string	"set comm open 0"
 19124      636F 6D6D 
 19124      206F 7065 
 19124      6E20 3000 
 19125               	.LC61:
 19126 02f9 7365 7420 		.string	"set comm close AOK"
 19126      636F 6D6D 
 19126      2063 6C6F 
 19126      7365 2041 
 19126      4F4B 00
 19127               	.LC62:
 19128 030c 7365 7420 		.string	"set time enable 1"
 19128      7469 6D65 
 19128      2065 6E61 
 19128      626C 6520 
 19128      3100 
 19129               	.LC63:
 19130 031e 656E 6162 		.string	"enable time....OK"
 19130      6C65 2074 
 19130      696D 652E 
 19130      2E2E 2E4F 
 19130      4B00 
 19131               	.LC64:
 19132 0330 656E 6162 		.string	"enable time..FAIL"
 19132      6C65 2074 
 19132      696D 652E 
 19132      2E46 4149 
 19132      4C00 
 19133               	.LC65:
 19134 0342 656E 6372 		.string	"encryption.....OK"
 19134      7970 7469 
 19134      6F6E 2E2E 
 19134      2E2E 2E4F 
 19134      4B00 
 19135               	.LC66:
 19136 0354 656E 6372 		.string	"encryption...FAIL"
 19136      7970 7469 
 19136      6F6E 2E2E 
 19136      2E46 4149 
 19136      4C00 
 19137               	.LC67:
 19138 0366 7068 7261 		.string	"phrase.........OK"
 19138      7365 2E2E 
 19138      2E2E 2E2E 
 19138      2E2E 2E4F 
 19138      4B00 
 19139               	.LC68:
 19140 0378 7068 7261 		.string	"phrase.......FAIL"
 19140      7365 2E2E 
 19140      2E2E 2E2E 
 19140      2E46 4149 
 19140      4C00 
 19141               	.LC69:
 19142 038a 706F 7274 		.string	"port...........OK"
 19142      2E2E 2E2E 
 19142      2E2E 2E2E 
 19142      2E2E 2E4F 
 19142      4B00 
 19143               	.LC70:
 19144 039c 706F 7274 		.string	"port.........FAIL"
 19144      2E2E 2E2E 
 19144      2E2E 2E2E 
 19144      2E46 4149 
 19144      4C00 
 19145               	.LC71:
 19146 03ae 4465 4175 		.string	"DeAut"
 19146      7400 
 19147               	.LC72:
 19148 03b4 4175 746F 		.string	"Auto+"
 19148      2B00 
 19149               	.LC73:
 19150 03ba 7373 6964 		.string	"ssid...........OK"
 19150      2E2E 2E2E 
 19150      2E2E 2E2E 
 19150      2E2E 2E4F 
 19150      4B00 
 19151               	.LC74:
 19152 03cc 7373 6964 		.string	"ssid.........FAIL"
 19152      2E2E 2E2E 
 19152      2E2E 2E2E 
 19152      2E46 4149 
 19152      4C00 
 19153               	.LC75:
 19154 03de 6765 7420 		.string	"get time"
 19154      7469 6D65 
 19154      00
 19155               	.LC76:
 19156 03e7 5469 6D65 		.string	"TimeEna=1"
 19156      456E 613D 
 19156      3100 
 19157               	.LC77:
 19158 03f1 636F 6E6E 		.string	"connection.....OK"
 19158      6563 7469 
 19158      6F6E 2E2E 
 19158      2E2E 2E4F 
 19158      4B00 
 19159               	.LC78:
 19160 0403 636F 6E6E 		.string	"connection...FAIL"
 19160      6563 7469 
 19160      6F6E 2E2E 
 19160      2E46 4149 
 19160      4C00 
 19161               		.text
 19162               	.global	Config_Wifi
 19164               	Config_Wifi:
 19165               	.LFB151:
 19166               	.LM2088:
 19167 6a2a 1F93      		push r17
 19168               	/* prologue: function */
 19169               	/* frame size = 0 */
 19170               	.LM2089:
 19171 6a2c 0E94 0000 		call Wifi_ClearBuffer
 19172               	.LM2090:
 19173 6a30 88EE      		ldi r24,lo8(1000)
 19174 6a32 93E0      		ldi r25,hi8(1000)
 19175 6a34 0E94 0000 		call Wifi_EnterCMDMode
 19176 6a38 8823      		tst r24
 19177 6a3a 01F0      		breq .L1192
 19178               	.LM2091:
 19179 6a3c 80E0      		ldi r24,lo8(.LC51)
 19180 6a3e 90E0      		ldi r25,hi8(.LC51)
 19181 6a40 00C0      		rjmp .L1249
 19182               	.L1192:
 19183               	.LM2092:
 19184 6a42 80E0      		ldi r24,lo8(.LC52)
 19185 6a44 90E0      		ldi r25,hi8(.LC52)
 19186               	.L1249:
 19187 6a46 60E0      		ldi r22,lo8(0)
 19188 6a48 40E0      		ldi r20,lo8(0)
 19189 6a4a 20E0      		ldi r18,lo8(System5x7)
 19190 6a4c 30E0      		ldi r19,hi8(System5x7)
 19191 6a4e 0E94 0000 		call display_putString
 19192               	.LM2093:
 19193 6a52 0E94 0000 		call display_writeBufferToScreen
 19194 6a56 80E1      		ldi r24,lo8(10000)
 19195 6a58 97E2      		ldi r25,hi8(10000)
 19196               	.LVL1514:
 19197               	.LBB921:
 19198               	.LBB922:
 19199               	.LBB923:
 19200               	.LBB924:
 19201               	.LM2094:
 19202 6a5a 20E9      		ldi r18,lo8(400)
 19203 6a5c 31E0      		ldi r19,hi8(400)
 19204               	.L1194:
 19205 6a5e F901      		movw r30,r18
 19206               	.LVL1515:
 19207               	/* #APP */
 19208               	 ;  105 "/usr/local/CrossPack-AVR-20100115/lib/gcc/avr/4.3.3/../../../../avr/include/util/delay_bas
 19209 6a60 3197      		1: sbiw r30,1
 19210 6a62 01F4      		brne 1b
 19211               	 ;  0 "" 2
 19212               	/* #NOAPP */
 19213               	.LBE924:
 19214               	.LBE923:
 19215               	.LM2095:
 19216 6a64 0197      		sbiw r24,1
 19217               	.LM2096:
 19218 6a66 01F4      		brne .L1194
 19219               	.LBE922:
 19220               	.LBE921:
 19221               	.LM2097:
 19222 6a68 80E0      		ldi r24,lo8(.LC53)
 19223 6a6a 90E0      		ldi r25,hi8(.LC53)
 19224               	.LVL1516:
 19225 6a6c 60E0      		ldi r22,lo8(.LC54)
 19226 6a6e 70E0      		ldi r23,hi8(.LC54)
 19227 6a70 AB01      		movw r20,r22
 19228 6a72 24EF      		ldi r18,lo8(500)
 19229 6a74 31E0      		ldi r19,hi8(500)
 19230 6a76 0E94 0000 		call Wifi_SendCommand
 19231               	.LVL1517:
 19232 6a7a 8823      		tst r24
 19233 6a7c 01F0      		breq .L1195
 19234               	.LM2098:
 19235 6a7e 80E0      		ldi r24,lo8(.LC55)
 19236 6a80 90E0      		ldi r25,hi8(.LC55)
 19237 6a82 00C0      		rjmp .L1250
 19238               	.L1195:
 19239               	.LM2099:
 19240 6a84 80E0      		ldi r24,lo8(.LC56)
 19241 6a86 90E0      		ldi r25,hi8(.LC56)
 19242               	.L1250:
 19243 6a88 61E0      		ldi r22,lo8(1)
 19244 6a8a 40E0      		ldi r20,lo8(0)
 19245 6a8c 20E0      		ldi r18,lo8(System5x7)
 19246 6a8e 30E0      		ldi r19,hi8(System5x7)
 19247 6a90 0E94 0000 		call display_putString
 19248               	.LM2100:
 19249 6a94 0E94 0000 		call display_writeBufferToScreen
 19250 6a98 80E1      		ldi r24,lo8(10000)
 19251 6a9a 97E2      		ldi r25,hi8(10000)
 19252               	.LVL1518:
 19253               	.LBB925:
 19254               	.LBB926:
 19255               	.LBB927:
 19256               	.LBB928:
 19257               	.LM2101:
 19258 6a9c 20E9      		ldi r18,lo8(400)
 19259 6a9e 31E0      		ldi r19,hi8(400)
 19260               	.L1197:
 19261 6aa0 F901      		movw r30,r18
 19262               	.LVL1519:
 19263               	/* #APP */
 19264               	 ;  105 "/usr/local/CrossPack-AVR-20100115/lib/gcc/avr/4.3.3/../../../../avr/include/util/delay_bas
 19265 6aa2 3197      		1: sbiw r30,1
 19266 6aa4 01F4      		brne 1b
 19267               	 ;  0 "" 2
 19268               	/* #NOAPP */
 19269               	.LBE928:
 19270               	.LBE927:
 19271               	.LM2102:
 19272 6aa6 0197      		sbiw r24,1
 19273               	.LM2103:
 19274 6aa8 01F4      		brne .L1197
 19275               	.LBE926:
 19276               	.LBE925:
 19277               	.LM2104:
 19278 6aaa 80E0      		ldi r24,lo8(.LC57)
 19279 6aac 90E0      		ldi r25,hi8(.LC57)
 19280               	.LVL1520:
 19281 6aae 60E0      		ldi r22,lo8(.LC58)
 19282 6ab0 70E0      		ldi r23,hi8(.LC58)
 19283 6ab2 AB01      		movw r20,r22
 19284 6ab4 28EE      		ldi r18,lo8(1000)
 19285 6ab6 33E0      		ldi r19,hi8(1000)
 19286 6ab8 0E94 0000 		call Wifi_SendCommand
 19287               	.LVL1521:
 19288               	.LM2105:
 19289 6abc 60E0      		ldi r22,lo8(230400)
 19290 6abe 74E8      		ldi r23,hi8(230400)
 19291 6ac0 83E0      		ldi r24,hlo8(230400)
 19292 6ac2 90E0      		ldi r25,hhi8(230400)
 19293 6ac4 0E94 0000 		call Wifi_Init
 19294 6ac8 80E1      		ldi r24,lo8(10000)
 19295 6aca 97E2      		ldi r25,hi8(10000)
 19296               	.LVL1522:
 19297               	.LBB929:
 19298               	.LBB930:
 19299               	.LBB931:
 19300               	.LBB932:
 19301               	.LM2106:
 19302 6acc 20E9      		ldi r18,lo8(400)
 19303 6ace 31E0      		ldi r19,hi8(400)
 19304               	.L1198:
 19305 6ad0 F901      		movw r30,r18
 19306               	.LVL1523:
 19307               	/* #APP */
 19308               	 ;  105 "/usr/local/CrossPack-AVR-20100115/lib/gcc/avr/4.3.3/../../../../avr/include/util/delay_bas
 19309 6ad2 3197      		1: sbiw r30,1
 19310 6ad4 01F4      		brne 1b
 19311               	 ;  0 "" 2
 19312               	/* #NOAPP */
 19313               	.LBE932:
 19314               	.LBE931:
 19315               	.LM2107:
 19316 6ad6 0197      		sbiw r24,1
 19317               	.LM2108:
 19318 6ad8 01F4      		brne .L1198
 19319               	.LBE930:
 19320               	.LBE929:
 19321               	.LM2109:
 19322 6ada 88EE      		ldi r24,lo8(1000)
 19323 6adc 93E0      		ldi r25,hi8(1000)
 19324               	.LVL1524:
 19325 6ade 0E94 0000 		call Wifi_EnterCMDMode
 19326               	.LVL1525:
 19327 6ae2 80E1      		ldi r24,lo8(10000)
 19328 6ae4 97E2      		ldi r25,hi8(10000)
 19329               	.LVL1526:
 19330               	.LBB933:
 19331               	.LBB934:
 19332               	.LBB935:
 19333               	.LBB936:
 19334               	.LM2110:
 19335 6ae6 20E9      		ldi r18,lo8(400)
 19336 6ae8 31E0      		ldi r19,hi8(400)
 19337               	.L1199:
 19338 6aea F901      		movw r30,r18
 19339               	.LVL1527:
 19340               	/* #APP */
 19341               	 ;  105 "/usr/local/CrossPack-AVR-20100115/lib/gcc/avr/4.3.3/../../../../avr/include/util/delay_bas
 19342 6aec 3197      		1: sbiw r30,1
 19343 6aee 01F4      		brne 1b
 19344               	 ;  0 "" 2
 19345               	/* #NOAPP */
 19346               	.LBE936:
 19347               	.LBE935:
 19348               	.LM2111:
 19349 6af0 0197      		sbiw r24,1
 19350               	.LM2112:
 19351 6af2 01F4      		brne .L1199
 19352               	.LBE934:
 19353               	.LBE933:
 19354               	.LM2113:
 19355 6af4 80E0      		ldi r24,lo8(.LC59)
 19356 6af6 90E0      		ldi r25,hi8(.LC59)
 19357               	.LVL1528:
 19358 6af8 60E0      		ldi r22,lo8(.LC58)
 19359 6afa 70E0      		ldi r23,hi8(.LC58)
 19360 6afc AB01      		movw r20,r22
 19361 6afe 24EF      		ldi r18,lo8(500)
 19362 6b00 31E0      		ldi r19,hi8(500)
 19363 6b02 0E94 0000 		call Wifi_SendCommand
 19364               	.LVL1529:
 19365 6b06 80E1      		ldi r24,lo8(10000)
 19366 6b08 97E2      		ldi r25,hi8(10000)
 19367               	.LVL1530:
 19368               	.LBB937:
 19369               	.LBB938:
 19370               	.LBB939:
 19371               	.LBB940:
 19372               	.LM2114:
 19373 6b0a 20E9      		ldi r18,lo8(400)
 19374 6b0c 31E0      		ldi r19,hi8(400)
 19375               	.L1200:
 19376 6b0e F901      		movw r30,r18
 19377               	.LVL1531:
 19378               	/* #APP */
 19379               	 ;  105 "/usr/local/CrossPack-AVR-20100115/lib/gcc/avr/4.3.3/../../../../avr/include/util/delay_bas
 19380 6b10 3197      		1: sbiw r30,1
 19381 6b12 01F4      		brne 1b
 19382               	 ;  0 "" 2
 19383               	/* #NOAPP */
 19384               	.LBE940:
 19385               	.LBE939:
 19386               	.LM2115:
 19387 6b14 0197      		sbiw r24,1
 19388               	.LM2116:
 19389 6b16 01F4      		brne .L1200
 19390               	.LBE938:
 19391               	.LBE937:
 19392               	.LM2117:
 19393 6b18 80E0      		ldi r24,lo8(.LC60)
 19394 6b1a 90E0      		ldi r25,hi8(.LC60)
 19395               	.LVL1532:
 19396 6b1c 60E0      		ldi r22,lo8(.LC58)
 19397 6b1e 70E0      		ldi r23,hi8(.LC58)
 19398 6b20 AB01      		movw r20,r22
 19399 6b22 24EF      		ldi r18,lo8(500)
 19400 6b24 31E0      		ldi r19,hi8(500)
 19401 6b26 0E94 0000 		call Wifi_SendCommand
 19402               	.LVL1533:
 19403 6b2a 80E1      		ldi r24,lo8(10000)
 19404 6b2c 97E2      		ldi r25,hi8(10000)
 19405               	.LVL1534:
 19406               	.LBB941:
 19407               	.LBB942:
 19408               	.LBB943:
 19409               	.LBB944:
 19410               	.LM2118:
 19411 6b2e 20E9      		ldi r18,lo8(400)
 19412 6b30 31E0      		ldi r19,hi8(400)
 19413               	.L1201:
 19414 6b32 F901      		movw r30,r18
 19415               	.LVL1535:
 19416               	/* #APP */
 19417               	 ;  105 "/usr/local/CrossPack-AVR-20100115/lib/gcc/avr/4.3.3/../../../../avr/include/util/delay_bas
 19418 6b34 3197      		1: sbiw r30,1
 19419 6b36 01F4      		brne 1b
 19420               	 ;  0 "" 2
 19421               	/* #NOAPP */
 19422               	.LBE944:
 19423               	.LBE943:
 19424               	.LM2119:
 19425 6b38 0197      		sbiw r24,1
 19426               	.LM2120:
 19427 6b3a 01F4      		brne .L1201
 19428               	.LBE942:
 19429               	.LBE941:
 19430               	.LM2121:
 19431 6b3c 80E0      		ldi r24,lo8(.LC61)
 19432 6b3e 90E0      		ldi r25,hi8(.LC61)
 19433               	.LVL1536:
 19434 6b40 60E0      		ldi r22,lo8(.LC58)
 19435 6b42 70E0      		ldi r23,hi8(.LC58)
 19436 6b44 AB01      		movw r20,r22
 19437 6b46 24EF      		ldi r18,lo8(500)
 19438 6b48 31E0      		ldi r19,hi8(500)
 19439 6b4a 0E94 0000 		call Wifi_SendCommand
 19440               	.LVL1537:
 19441 6b4e 80E1      		ldi r24,lo8(10000)
 19442 6b50 97E2      		ldi r25,hi8(10000)
 19443               	.LVL1538:
 19444               	.LBB945:
 19445               	.LBB946:
 19446               	.LBB947:
 19447               	.LBB948:
 19448               	.LM2122:
 19449 6b52 20E9      		ldi r18,lo8(400)
 19450 6b54 31E0      		ldi r19,hi8(400)
 19451               	.L1202:
 19452 6b56 F901      		movw r30,r18
 19453               	.LVL1539:
 19454               	/* #APP */
 19455               	 ;  105 "/usr/local/CrossPack-AVR-20100115/lib/gcc/avr/4.3.3/../../../../avr/include/util/delay_bas
 19456 6b58 3197      		1: sbiw r30,1
 19457 6b5a 01F4      		brne 1b
 19458               	 ;  0 "" 2
 19459               	/* #NOAPP */
 19460               	.LBE948:
 19461               	.LBE947:
 19462               	.LM2123:
 19463 6b5c 0197      		sbiw r24,1
 19464               	.LM2124:
 19465 6b5e 01F4      		brne .L1202
 19466               	.LBE946:
 19467               	.LBE945:
 19468               	.LM2125:
 19469 6b60 80E0      		ldi r24,lo8(.LC62)
 19470 6b62 90E0      		ldi r25,hi8(.LC62)
 19471               	.LVL1540:
 19472 6b64 60E0      		ldi r22,lo8(.LC58)
 19473 6b66 70E0      		ldi r23,hi8(.LC58)
 19474 6b68 AB01      		movw r20,r22
 19475 6b6a 24EF      		ldi r18,lo8(500)
 19476 6b6c 31E0      		ldi r19,hi8(500)
 19477 6b6e 0E94 0000 		call Wifi_SendCommand
 19478               	.LVL1541:
 19479 6b72 8823      		tst r24
 19480 6b74 01F0      		breq .L1203
 19481               	.LM2126:
 19482 6b76 80E0      		ldi r24,lo8(.LC63)
 19483 6b78 90E0      		ldi r25,hi8(.LC63)
 19484 6b7a 00C0      		rjmp .L1251
 19485               	.L1203:
 19486               	.LM2127:
 19487 6b7c 80E0      		ldi r24,lo8(.LC64)
 19488 6b7e 90E0      		ldi r25,hi8(.LC64)
 19489               	.L1251:
 19490 6b80 62E0      		ldi r22,lo8(2)
 19491 6b82 40E0      		ldi r20,lo8(0)
 19492 6b84 20E0      		ldi r18,lo8(System5x7)
 19493 6b86 30E0      		ldi r19,hi8(System5x7)
 19494 6b88 0E94 0000 		call display_putString
 19495               	.LM2128:
 19496 6b8c 0E94 0000 		call display_writeBufferToScreen
 19497 6b90 80E1      		ldi r24,lo8(10000)
 19498 6b92 97E2      		ldi r25,hi8(10000)
 19499               	.LVL1542:
 19500               	.LBB949:
 19501               	.LBB950:
 19502               	.LBB951:
 19503               	.LBB952:
 19504               	.LM2129:
 19505 6b94 20E9      		ldi r18,lo8(400)
 19506 6b96 31E0      		ldi r19,hi8(400)
 19507               	.L1205:
 19508 6b98 F901      		movw r30,r18
 19509               	.LVL1543:
 19510               	/* #APP */
 19511               	 ;  105 "/usr/local/CrossPack-AVR-20100115/lib/gcc/avr/4.3.3/../../../../avr/include/util/delay_bas
 19512 6b9a 3197      		1: sbiw r30,1
 19513 6b9c 01F4      		brne 1b
 19514               	 ;  0 "" 2
 19515               	/* #NOAPP */
 19516               	.LBE952:
 19517               	.LBE951:
 19518               	.LM2130:
 19519 6b9e 0197      		sbiw r24,1
 19520               	.LM2131:
 19521 6ba0 01F4      		brne .L1205
 19522               	.LBE950:
 19523               	.LBE949:
 19524               	.LM2132:
 19525 6ba2 8091 0000 		lds r24,authRead
 19526               	.LVL1544:
 19527 6ba6 8823      		tst r24
 19528 6ba8 01F4      		brne .L1206
 19529 6baa 13E0      		ldi r17,lo8(3)
 19530               	.LVL1545:
 19531 6bac 00C0      		rjmp .L1207
 19532               	.LVL1546:
 19533               	.L1206:
 19534               	.LM2133:
 19535 6bae 80E0      		ldi r24,lo8(auth)
 19536 6bb0 90E0      		ldi r25,hi8(auth)
 19537 6bb2 60E0      		ldi r22,lo8(.LC58)
 19538 6bb4 70E0      		ldi r23,hi8(.LC58)
 19539 6bb6 AB01      		movw r20,r22
 19540 6bb8 24EF      		ldi r18,lo8(500)
 19541 6bba 31E0      		ldi r19,hi8(500)
 19542 6bbc 0E94 0000 		call Wifi_SendCommand
 19543               	.LVL1547:
 19544 6bc0 8823      		tst r24
 19545 6bc2 01F0      		breq .L1208
 19546               	.LM2134:
 19547 6bc4 80E0      		ldi r24,lo8(.LC65)
 19548 6bc6 90E0      		ldi r25,hi8(.LC65)
 19549 6bc8 00C0      		rjmp .L1252
 19550               	.L1208:
 19551               	.LM2135:
 19552 6bca 80E0      		ldi r24,lo8(.LC66)
 19553 6bcc 90E0      		ldi r25,hi8(.LC66)
 19554               	.L1252:
 19555 6bce 63E0      		ldi r22,lo8(3)
 19556 6bd0 40E0      		ldi r20,lo8(0)
 19557 6bd2 20E0      		ldi r18,lo8(System5x7)
 19558 6bd4 30E0      		ldi r19,hi8(System5x7)
 19559 6bd6 0E94 0000 		call display_putString
 19560               	.LM2136:
 19561 6bda 0E94 0000 		call display_writeBufferToScreen
 19562 6bde 80E1      		ldi r24,lo8(10000)
 19563 6be0 97E2      		ldi r25,hi8(10000)
 19564               	.LVL1548:
 19565               	.LBB953:
 19566               	.LBB954:
 19567               	.LBB955:
 19568               	.LBB956:
 19569               	.LM2137:
 19570 6be2 20E9      		ldi r18,lo8(400)
 19571 6be4 31E0      		ldi r19,hi8(400)
 19572               	.L1210:
 19573 6be6 F901      		movw r30,r18
 19574               	.LVL1549:
 19575               	/* #APP */
 19576               	 ;  105 "/usr/local/CrossPack-AVR-20100115/lib/gcc/avr/4.3.3/../../../../avr/include/util/delay_bas
 19577 6be8 3197      		1: sbiw r30,1
 19578 6bea 01F4      		brne 1b
 19579               	 ;  0 "" 2
 19580               	/* #NOAPP */
 19581               	.LBE956:
 19582               	.LBE955:
 19583               	.LM2138:
 19584 6bec 0197      		sbiw r24,1
 19585               	.LM2139:
 19586 6bee 01F4      		brne .L1210
 19587 6bf0 14E0      		ldi r17,lo8(4)
 19588               	.LVL1550:
 19589               	.L1207:
 19590               	.LBE954:
 19591               	.LBE953:
 19592               	.LM2140:
 19593 6bf2 8091 0000 		lds r24,phraseRead
 19594               	.LVL1551:
 19595 6bf6 8823      		tst r24
 19596 6bf8 01F0      		breq .L1211
 19597               	.LM2141:
 19598 6bfa 80E0      		ldi r24,lo8(phrase)
 19599 6bfc 90E0      		ldi r25,hi8(phrase)
 19600 6bfe 60E0      		ldi r22,lo8(.LC58)
 19601 6c00 70E0      		ldi r23,hi8(.LC58)
 19602 6c02 AB01      		movw r20,r22
 19603 6c04 24EF      		ldi r18,lo8(500)
 19604 6c06 31E0      		ldi r19,hi8(500)
 19605 6c08 0E94 0000 		call Wifi_SendCommand
 19606               	.LVL1552:
 19607 6c0c 8823      		tst r24
 19608 6c0e 01F0      		breq .L1212
 19609               	.LM2142:
 19610 6c10 80E0      		ldi r24,lo8(.LC67)
 19611 6c12 90E0      		ldi r25,hi8(.LC67)
 19612 6c14 00C0      		rjmp .L1253
 19613               	.L1212:
 19614               	.LM2143:
 19615 6c16 80E0      		ldi r24,lo8(.LC68)
 19616 6c18 90E0      		ldi r25,hi8(.LC68)
 19617               	.L1253:
 19618 6c1a 612F      		mov r22,r17
 19619 6c1c 40E0      		ldi r20,lo8(0)
 19620 6c1e 20E0      		ldi r18,lo8(System5x7)
 19621 6c20 30E0      		ldi r19,hi8(System5x7)
 19622 6c22 0E94 0000 		call display_putString
 19623               	.LM2144:
 19624 6c26 0E94 0000 		call display_writeBufferToScreen
 19625 6c2a 80E1      		ldi r24,lo8(10000)
 19626 6c2c 97E2      		ldi r25,hi8(10000)
 19627               	.LVL1553:
 19628               	.LBB957:
 19629               	.LBB958:
 19630               	.LBB959:
 19631               	.LBB960:
 19632               	.LM2145:
 19633 6c2e 20E9      		ldi r18,lo8(400)
 19634 6c30 31E0      		ldi r19,hi8(400)
 19635               	.L1214:
 19636 6c32 F901      		movw r30,r18
 19637               	.LVL1554:
 19638               	/* #APP */
 19639               	 ;  105 "/usr/local/CrossPack-AVR-20100115/lib/gcc/avr/4.3.3/../../../../avr/include/util/delay_bas
 19640 6c34 3197      		1: sbiw r30,1
 19641 6c36 01F4      		brne 1b
 19642               	 ;  0 "" 2
 19643               	/* #NOAPP */
 19644               	.LBE960:
 19645               	.LBE959:
 19646               	.LM2146:
 19647 6c38 0197      		sbiw r24,1
 19648               	.LM2147:
 19649 6c3a 01F4      		brne .L1214
 19650               	.LBE958:
 19651               	.LBE957:
 19652               	.LM2148:
 19653 6c3c 1F5F      		subi r17,lo8(-(1))
 19654               	.LVL1555:
 19655               	.L1211:
 19656               	.LM2149:
 19657 6c3e 8091 0000 		lds r24,portRead
 19658               	.LVL1556:
 19659 6c42 8823      		tst r24
 19660 6c44 01F0      		breq .L1215
 19661               	.LM2150:
 19662 6c46 80E0      		ldi r24,lo8(port)
 19663 6c48 90E0      		ldi r25,hi8(port)
 19664 6c4a 60E0      		ldi r22,lo8(.LC58)
 19665 6c4c 70E0      		ldi r23,hi8(.LC58)
 19666 6c4e AB01      		movw r20,r22
 19667 6c50 24EF      		ldi r18,lo8(500)
 19668 6c52 31E0      		ldi r19,hi8(500)
 19669 6c54 0E94 0000 		call Wifi_SendCommand
 19670               	.LVL1557:
 19671 6c58 8823      		tst r24
 19672 6c5a 01F0      		breq .L1216
 19673               	.LM2151:
 19674 6c5c 80E0      		ldi r24,lo8(.LC69)
 19675 6c5e 90E0      		ldi r25,hi8(.LC69)
 19676 6c60 00C0      		rjmp .L1254
 19677               	.L1216:
 19678               	.LM2152:
 19679 6c62 80E0      		ldi r24,lo8(.LC70)
 19680 6c64 90E0      		ldi r25,hi8(.LC70)
 19681               	.L1254:
 19682 6c66 612F      		mov r22,r17
 19683 6c68 40E0      		ldi r20,lo8(0)
 19684 6c6a 20E0      		ldi r18,lo8(System5x7)
 19685 6c6c 30E0      		ldi r19,hi8(System5x7)
 19686 6c6e 0E94 0000 		call display_putString
 19687               	.LM2153:
 19688 6c72 0E94 0000 		call display_writeBufferToScreen
 19689 6c76 80E1      		ldi r24,lo8(10000)
 19690 6c78 97E2      		ldi r25,hi8(10000)
 19691               	.LVL1558:
 19692               	.LBB961:
 19693               	.LBB962:
 19694               	.LBB963:
 19695               	.LBB964:
 19696               	.LM2154:
 19697 6c7a 20E9      		ldi r18,lo8(400)
 19698 6c7c 31E0      		ldi r19,hi8(400)
 19699               	.L1218:
 19700 6c7e F901      		movw r30,r18
 19701               	.LVL1559:
 19702               	/* #APP */
 19703               	 ;  105 "/usr/local/CrossPack-AVR-20100115/lib/gcc/avr/4.3.3/../../../../avr/include/util/delay_bas
 19704 6c80 3197      		1: sbiw r30,1
 19705 6c82 01F4      		brne 1b
 19706               	 ;  0 "" 2
 19707               	/* #NOAPP */
 19708               	.LBE964:
 19709               	.LBE963:
 19710               	.LM2155:
 19711 6c84 0197      		sbiw r24,1
 19712               	.LM2156:
 19713 6c86 01F4      		brne .L1218
 19714               	.LBE962:
 19715               	.LBE961:
 19716               	.LM2157:
 19717 6c88 1F5F      		subi r17,lo8(-(1))
 19718               	.LVL1560:
 19719               	.L1215:
 19720               	.LM2158:
 19721 6c8a 8091 0000 		lds r24,ssidRead
 19722               	.LVL1561:
 19723 6c8e 8823      		tst r24
 19724 6c90 01F0      		breq .L1219
 19725               	.LM2159:
 19726 6c92 80E0      		ldi r24,lo8(ssid)
 19727 6c94 90E0      		ldi r25,hi8(ssid)
 19728 6c96 60E0      		ldi r22,lo8(.LC71)
 19729 6c98 70E0      		ldi r23,hi8(.LC71)
 19730 6c9a 40E0      		ldi r20,lo8(.LC72)
 19731 6c9c 50E0      		ldi r21,hi8(.LC72)
 19732 6c9e 20ED      		ldi r18,lo8(2000)
 19733 6ca0 37E0      		ldi r19,hi8(2000)
 19734 6ca2 0E94 0000 		call Wifi_SendCommand
 19735               	.LVL1562:
 19736 6ca6 8823      		tst r24
 19737 6ca8 01F0      		breq .L1220
 19738               	.LM2160:
 19739 6caa 80E0      		ldi r24,lo8(.LC73)
 19740 6cac 90E0      		ldi r25,hi8(.LC73)
 19741 6cae 00C0      		rjmp .L1255
 19742               	.L1220:
 19743               	.LM2161:
 19744 6cb0 80E0      		ldi r24,lo8(.LC74)
 19745 6cb2 90E0      		ldi r25,hi8(.LC74)
 19746               	.L1255:
 19747 6cb4 612F      		mov r22,r17
 19748 6cb6 40E0      		ldi r20,lo8(0)
 19749 6cb8 20E0      		ldi r18,lo8(System5x7)
 19750 6cba 30E0      		ldi r19,hi8(System5x7)
 19751 6cbc 0E94 0000 		call display_putString
 19752               	.LM2162:
 19753 6cc0 0E94 0000 		call display_writeBufferToScreen
 19754 6cc4 80E1      		ldi r24,lo8(10000)
 19755 6cc6 97E2      		ldi r25,hi8(10000)
 19756               	.LVL1563:
 19757               	.LBB965:
 19758               	.LBB966:
 19759               	.LBB967:
 19760               	.LBB968:
 19761               	.LM2163:
 19762 6cc8 20E9      		ldi r18,lo8(400)
 19763 6cca 31E0      		ldi r19,hi8(400)
 19764               	.L1222:
 19765 6ccc F901      		movw r30,r18
 19766               	.LVL1564:
 19767               	/* #APP */
 19768               	 ;  105 "/usr/local/CrossPack-AVR-20100115/lib/gcc/avr/4.3.3/../../../../avr/include/util/delay_bas
 19769 6cce 3197      		1: sbiw r30,1
 19770 6cd0 01F4      		brne 1b
 19771               	 ;  0 "" 2
 19772               	/* #NOAPP */
 19773               	.LBE968:
 19774               	.LBE967:
 19775               	.LM2164:
 19776 6cd2 0197      		sbiw r24,1
 19777               	.LM2165:
 19778 6cd4 01F4      		brne .L1222
 19779               	.LBE966:
 19780               	.LBE965:
 19781               	.LM2166:
 19782 6cd6 1F5F      		subi r17,lo8(-(1))
 19783               	.LVL1565:
 19784               	.L1219:
 19785               	.LM2167:
 19786 6cd8 80E0      		ldi r24,lo8(.LC75)
 19787 6cda 90E0      		ldi r25,hi8(.LC75)
 19788               	.LVL1566:
 19789 6cdc 60E0      		ldi r22,lo8(.LC76)
 19790 6cde 70E0      		ldi r23,hi8(.LC76)
 19791 6ce0 AB01      		movw r20,r22
 19792 6ce2 24EF      		ldi r18,lo8(500)
 19793 6ce4 31E0      		ldi r19,hi8(500)
 19794 6ce6 0E94 0000 		call Wifi_SendCommand
 19795               	.LVL1567:
 19796 6cea 80E1      		ldi r24,lo8(10000)
 19797 6cec 97E2      		ldi r25,hi8(10000)
 19798               	.LVL1568:
 19799               	.LBB969:
 19800               	.LBB970:
 19801               	.LBB971:
 19802               	.LBB972:
 19803               	.LM2168:
 19804 6cee 20E9      		ldi r18,lo8(400)
 19805 6cf0 31E0      		ldi r19,hi8(400)
 19806               	.L1223:
 19807 6cf2 F901      		movw r30,r18
 19808               	.LVL1569:
 19809               	/* #APP */
 19810               	 ;  105 "/usr/local/CrossPack-AVR-20100115/lib/gcc/avr/4.3.3/../../../../avr/include/util/delay_bas
 19811 6cf4 3197      		1: sbiw r30,1
 19812 6cf6 01F4      		brne 1b
 19813               	 ;  0 "" 2
 19814               	/* #NOAPP */
 19815               	.LBE972:
 19816               	.LBE971:
 19817               	.LM2169:
 19818 6cf8 0197      		sbiw r24,1
 19819               	.LM2170:
 19820 6cfa 01F4      		brne .L1223
 19821               	.LBE970:
 19822               	.LBE969:
 19823               	.LM2171:
 19824 6cfc 84EF      		ldi r24,lo8(500)
 19825 6cfe 91E0      		ldi r25,hi8(500)
 19826               	.LVL1570:
 19827 6d00 0E94 0000 		call Wifi_ExitCMDMode
 19828               	.LVL1571:
 19829 6d04 80E1      		ldi r24,lo8(10000)
 19830 6d06 97E2      		ldi r25,hi8(10000)
 19831               	.LVL1572:
 19832               	.LBB973:
 19833               	.LBB974:
 19834               	.LBB975:
 19835               	.LBB976:
 19836               	.LM2172:
 19837 6d08 20E9      		ldi r18,lo8(400)
 19838 6d0a 31E0      		ldi r19,hi8(400)
 19839               	.L1224:
 19840 6d0c F901      		movw r30,r18
 19841               	.LVL1573:
 19842               	/* #APP */
 19843               	 ;  105 "/usr/local/CrossPack-AVR-20100115/lib/gcc/avr/4.3.3/../../../../avr/include/util/delay_bas
 19844 6d0e 3197      		1: sbiw r30,1
 19845 6d10 01F4      		brne 1b
 19846               	 ;  0 "" 2
 19847               	/* #NOAPP */
 19848               	.LBE976:
 19849               	.LBE975:
 19850               	.LM2173:
 19851 6d12 0197      		sbiw r24,1
 19852               	.LM2174:
 19853 6d14 01F4      		brne .L1224
 19854               	.LBE974:
 19855               	.LBE973:
 19856               	.LM2175:
 19857 6d16 84EF      		ldi r24,lo8(500)
 19858 6d18 91E0      		ldi r25,hi8(500)
 19859               	.LVL1574:
 19860 6d1a 0E94 0000 		call Wifi_EnterCMDMode
 19861               	.LVL1575:
 19862 6d1e 80E1      		ldi r24,lo8(10000)
 19863 6d20 97E2      		ldi r25,hi8(10000)
 19864               	.LVL1576:
 19865               	.LBB977:
 19866               	.LBB978:
 19867               	.LBB979:
 19868               	.LBB980:
 19869               	.LM2176:
 19870 6d22 20E9      		ldi r18,lo8(400)
 19871 6d24 31E0      		ldi r19,hi8(400)
 19872               	.L1225:
 19873 6d26 F901      		movw r30,r18
 19874               	.LVL1577:
 19875               	/* #APP */
 19876               	 ;  105 "/usr/local/CrossPack-AVR-20100115/lib/gcc/avr/4.3.3/../../../../avr/include/util/delay_bas
 19877 6d28 3197      		1: sbiw r30,1
 19878 6d2a 01F4      		brne 1b
 19879               	 ;  0 "" 2
 19880               	/* #NOAPP */
 19881               	.LBE980:
 19882               	.LBE979:
 19883               	.LM2177:
 19884 6d2c 0197      		sbiw r24,1
 19885               	.LM2178:
 19886 6d2e 01F4      		brne .L1225
 19887               	.LBE978:
 19888               	.LBE977:
 19889               	.LM2179:
 19890 6d30 88EE      		ldi r24,lo8(1000)
 19891 6d32 93E0      		ldi r25,hi8(1000)
 19892               	.LVL1578:
 19893 6d34 0E94 0000 		call Wifi_Connected
 19894               	.LVL1579:
 19895 6d38 8823      		tst r24
 19896 6d3a 01F0      		breq .L1226
 19897               	.LM2180:
 19898 6d3c 80E0      		ldi r24,lo8(.LC77)
 19899 6d3e 90E0      		ldi r25,hi8(.LC77)
 19900 6d40 612F      		mov r22,r17
 19901 6d42 40E0      		ldi r20,lo8(0)
 19902 6d44 20E0      		ldi r18,lo8(System5x7)
 19903 6d46 30E0      		ldi r19,hi8(System5x7)
 19904 6d48 0E94 0000 		call display_putString
 19905               	.LBB981:
 19906               	.LBB982:
 19907               	.LM2181:
 19908 6d4c 81E0      		ldi r24,lo8(1)
 19909 6d4e E0E2      		ldi r30,lo8(1568)
 19910 6d50 F6E0      		ldi r31,hi8(1568)
 19911 6d52 8583      		std Z+5,r24
 19912               	.LBE982:
 19913               	.LBE981:
 19914               	.LM2182:
 19915 6d54 8093 0000 		sts connected,r24
 19916 6d58 00C0      		rjmp .L1227
 19917               	.L1226:
 19918               	.LM2183:
 19919 6d5a 80E0      		ldi r24,lo8(.LC78)
 19920 6d5c 90E0      		ldi r25,hi8(.LC78)
 19921 6d5e 612F      		mov r22,r17
 19922 6d60 40E0      		ldi r20,lo8(0)
 19923 6d62 20E0      		ldi r18,lo8(System5x7)
 19924 6d64 30E0      		ldi r19,hi8(System5x7)
 19925 6d66 0E94 0000 		call display_putString
 19926               	.LBB983:
 19927               	.LBB984:
 19928               	.LM2184:
 19929 6d6a 82E0      		ldi r24,lo8(2)
 19930 6d6c E0E2      		ldi r30,lo8(1568)
 19931 6d6e F6E0      		ldi r31,hi8(1568)
 19932 6d70 8583      		std Z+5,r24
 19933               	.LBE984:
 19934               	.LBE983:
 19935               	.LM2185:
 19936 6d72 1092 0000 		sts connected,__zero_reg__
 19937               	.L1227:
 19938               	.LM2186:
 19939 6d76 0E94 0000 		call display_writeBufferToScreen
 19940 6d7a 80E1      		ldi r24,lo8(10000)
 19941 6d7c 97E2      		ldi r25,hi8(10000)
 19942               	.LVL1580:
 19943               	.LBB985:
 19944               	.LBB986:
 19945               	.LBB987:
 19946               	.LBB988:
 19947               	.LM2187:
 19948 6d7e 20E9      		ldi r18,lo8(400)
 19949 6d80 31E0      		ldi r19,hi8(400)
 19950               	.L1228:
 19951 6d82 F901      		movw r30,r18
 19952               	.LVL1581:
 19953               	/* #APP */
 19954               	 ;  105 "/usr/local/CrossPack-AVR-20100115/lib/gcc/avr/4.3.3/../../../../avr/include/util/delay_bas
 19955 6d84 3197      		1: sbiw r30,1
 19956 6d86 01F4      		brne 1b
 19957               	 ;  0 "" 2
 19958               	/* #NOAPP */
 19959               	.LBE988:
 19960               	.LBE987:
 19961               	.LM2188:
 19962 6d88 0197      		sbiw r24,1
 19963               	.LM2189:
 19964 6d8a 01F4      		brne .L1228
 19965               	.LBE986:
 19966               	.LBE985:
 19967               	.LM2190:
 19968 6d8c 84EF      		ldi r24,lo8(500)
 19969 6d8e 91E0      		ldi r25,hi8(500)
 19970               	.LVL1582:
 19971 6d90 0E94 0000 		call Wifi_ExitCMDMode
 19972               	.LVL1583:
 19973               	.LM2191:
 19974 6d94 8091 0000 		lds r24,connected
 19975 6d98 8823      		tst r24
 19976 6d9a 01F0      		breq .L1231
 19977 6d9c 80E1      		ldi r24,lo8(10000)
 19978 6d9e 97E2      		ldi r25,hi8(10000)
 19979               	.LVL1584:
 19980               	.LBB989:
 19981               	.LBB990:
 19982               	.LBB991:
 19983               	.LBB992:
 19984               	.LM2192:
 19985 6da0 20E9      		ldi r18,lo8(400)
 19986 6da2 31E0      		ldi r19,hi8(400)
 19987               	.L1230:
 19988 6da4 F901      		movw r30,r18
 19989               	.LVL1585:
 19990               	/* #APP */
 19991               	 ;  105 "/usr/local/CrossPack-AVR-20100115/lib/gcc/avr/4.3.3/../../../../avr/include/util/delay_bas
 19992 6da6 3197      		1: sbiw r30,1
 19993 6da8 01F4      		brne 1b
 19994               	 ;  0 "" 2
 19995               	/* #NOAPP */
 19996               	.LBE992:
 19997               	.LBE991:
 19998               	.LM2193:
 19999 6daa 0197      		sbiw r24,1
 20000               	.LM2194:
 20001 6dac 01F4      		brne .L1230
 20002               	.LBE990:
 20003               	.LBE989:
 20004               	.LM2195:
 20005 6dae 84EF      		ldi r24,lo8(500)
 20006 6db0 91E0      		ldi r25,hi8(500)
 20007               	.LVL1586:
 20008 6db2 0E94 0000 		call Wifi_EnterCMDMode
 20009               	.LVL1587:
 20010               	.LM2196:
 20011 6db6 88EE      		ldi r24,lo8(1000)
 20012 6db8 93E0      		ldi r25,hi8(1000)
 20013 6dba 0E94 0000 		call Wifi_GetTime
 20014               	.LM2197:
 20015 6dbe 88EE      		ldi r24,lo8(1000)
 20016 6dc0 93E0      		ldi r25,hi8(1000)
 20017 6dc2 0E94 0000 		call Wifi_GetMac
 20018               	.LM2198:
 20019 6dc6 88EE      		ldi r24,lo8(1000)
 20020 6dc8 93E0      		ldi r25,hi8(1000)
 20021 6dca 0E94 0000 		call Wifi_ExitCMDMode
 20022               	.L1231:
 20023               	/* epilogue start */
 20024               	.LM2199:
 20025 6dce 1F91      		pop r17
 20026               	.LVL1588:
 20027 6dd0 0895      		ret
 20028               	.LFE151:
 20030               		.data
 20031               	.LC79:
 20032 0415 626F 6F74 		.string	"booting up"
 20032      696E 6720 
 20032      7570 00
 20033               	.LC80:
 20034 0420 2E00      		.string	"."
 20035               	.LC81:
 20036 0422 2070 7265 		.string	" press select to "
 20036      7373 2073 
 20036      656C 6563 
 20036      7420 746F 
 20036      2000 
 20037               	.LC82:
 20038 0434 2073 7461 		.string	" start recording "
 20038      7274 2072 
 20038      6563 6F72 
 20038      6469 6E67 
 20038      2000 
 20039               	.LC83:
 20040 0446 456E 7465 		.string	"Entering Debug to Wifi function"
 20040      7269 6E67 
 20040      2044 6562 
 20040      7567 2074 
 20040      6F20 5769 
 20041               	.LC84:
 20042 0466 2020 2020 		.string	"    RECORDING!   "
 20042      5245 434F 
 20042      5244 494E 
 20042      4721 2020 
 20042      2000 
 20043               	.LC85:
 20044 0478 2073 746F 		.string	" stop recording "
 20044      7020 7265 
 20044      636F 7264 
 20044      696E 6720 
 20044      00
 20045               	.LC86:
 20046 0489 2044 6F6E 		.string	" Done Recording! "
 20046      6520 5265 
 20046      636F 7264 
 20046      696E 6721 
 20046      2000 
 20047               	.LC87:
 20048 049b 2020 2054 		.string	"   Thank You!    "
 20048      6861 6E6B 
 20048      2059 6F75 
 20048      2120 2020 
 20048      2000 
 20049               		.text
 20050               	.global	main
 20052               	main:
 20053               	.LFB138:
 20054               	.LM2200:
 20055 6dd2 DF92      		push r13
 20056 6dd4 EF92      		push r14
 20057 6dd6 FF92      		push r15
 20058 6dd8 0F93      		push r16
 20059 6dda 1F93      		push r17
 20060 6ddc DF93      		push r29
 20061 6dde CF93      		push r28
 20062 6de0 0F92      		push __tmp_reg__
 20063 6de2 CDB7      		in r28,__SP_L__
 20064 6de4 DEB7      		in r29,__SP_H__
 20065               	/* prologue: function */
 20066               	/* frame size = 1 */
 20067               	.LBB993:
 20068               	.LBB994:
 20069               	.LBB995:
 20070               	.LBB996:
 20071               	.LM2201:
 20072 6de6 80E2      		ldi r24,lo8(20000)
 20073 6de8 9EE4      		ldi r25,hi8(20000)
 20074               	.LVL1589:
 20075               	/* #APP */
 20076               	 ;  105 "/usr/local/CrossPack-AVR-20100115/lib/gcc/avr/4.3.3/../../../../avr/include/util/delay_bas
 20077 6dea 0197      		1: sbiw r24,1
 20078 6dec 01F4      		brne 1b
 20079               	 ;  0 "" 2
 20080               	/* #NOAPP */
 20081               	.LBE996:
 20082               	.LBE995:
 20083               	.LBE994:
 20084               	.LBE993:
 20085               	.LM2202:
 20086 6dee 0E94 0000 		call Clock_Init
 20087               	.LVL1590:
 20088               	.LM2203:
 20089 6df2 0E94 0000 		call Time_Init
 20090               	.LM2204:
 20091 6df6 0E94 0000 		call Sensors_Init
 20092               	.LBB997:
 20093               	.LBB998:
 20094               	.LM2205:
 20095 6dfa 8091 2106 		lds r24,1569
 20096 6dfe 836F      		ori r24,lo8(-13)
 20097 6e00 E0E2      		ldi r30,lo8(1568)
 20098 6e02 F6E0      		ldi r31,hi8(1568)
 20099 6e04 8183      		std Z+1,r24
 20100               	.LBE998:
 20101               	.LBE997:
 20102               	.LM2206:
 20103 6e06 0E94 0000 		call Dpad_Init
 20104               	.LM2207:
 20105 6e0a 0E94 0000 		call Debug_Init
 20106               	.LM2208:
 20107 6e0e 0E94 0000 		call Rs232_Init
 20108               	.LM2209:
 20109 6e12 0E94 0000 		call SD_Init
 20110               	.LM2210:
 20111 6e16 0E94 0000 		call display_init
 20112               	.LM2211:
 20113 6e1a 0E94 0000 		call SD_BackroundWriter_Init
 20114               	.LM2212:
 20115 6e1e 0E94 0000 		call DMA_Init
 20116               	.LBB999:
 20117               	.LBB1000:
 20118               	.LM2213:
 20119 6e22 8091 A200 		lds r24,162
 20120 6e26 8760      		ori r24,lo8(7)
 20121 6e28 E0EA      		ldi r30,lo8(160)
 20122 6e2a F0E0      		ldi r31,hi8(160)
 20123 6e2c 8283      		std Z+2,r24
 20124               	.LM2214:
 20125               	/* #APP */
 20126               	 ;  242 "main.c" 1
 20127 6e2e 7894      		sei
 20128               	 ;  0 "" 2
 20129               	/* #NOAPP */
 20130               	.LBE1000:
 20131               	.LBE999:
 20132               	.LBB1001:
 20133               	.LBB1002:
 20134               	.LBB1003:
 20135               	.LBB1004:
 20136               	.LM2215:
 20137 6e30 8FB7      		in r24,__SREG__
 20138 6e32 8983      		std Y+1,r24
 20139               	.LVL1591:
 20140               	.LM2216:
 20141               	/* #APP */
 20142               	 ;  214 "sd.c" 1
 20143 6e34 F894      		cli
 20144               	 ;  0 "" 2
 20145               	.LM2217:
 20146               	/* #NOAPP */
 20147 6e36 1BBE      		out 59-0,__zero_reg__
 20148               	.LM2218:
 20149 6e38 21E0      		ldi r18,lo8(1)
 20150 6e3a 86E9      		ldi r24,lo8(150)
 20151 6e3c 90E0      		ldi r25,hi8(150)
 20152               	/* #APP */
 20153               	 ;  236 "sd.c" 1
 20154 6e3e FC01      		movw r30,  r24
 20155 6e40 08ED      		ldi  r16,  216
 20156 6e42 04BF      		out   52, r16
 20157 6e44 2083      		st     Z,  r18
 20158               		
 20159               	 ;  0 "" 2
 20160               	.LM2219:
 20161               	/* #NOAPP */
 20162 6e46 8981      		ldd r24,Y+1
 20163 6e48 8FBF      		out __SREG__,r24
 20164               	.LBE1004:
 20165               	.LBE1003:
 20166               	.LBE1002:
 20167               	.LBE1001:
 20168               	.LM2220:
 20169 6e4a 80E0      		ldi r24,lo8(.LC79)
 20170 6e4c 90E0      		ldi r25,hi8(.LC79)
 20171 6e4e 60E0      		ldi r22,lo8(0)
 20172 6e50 40E0      		ldi r20,lo8(0)
 20173 6e52 20E0      		ldi r18,lo8(System5x7)
 20174 6e54 30E0      		ldi r19,hi8(System5x7)
 20175 6e56 0E94 0000 		call display_putString
 20176               	.LM2221:
 20177 6e5a 0E94 0000 		call display_writeBufferToScreen
 20178               	.LM2222:
 20179 6e5e 60E8      		ldi r22,lo8(9600)
 20180 6e60 75E2      		ldi r23,hi8(9600)
 20181 6e62 80E0      		ldi r24,hlo8(9600)
 20182 6e64 90E0      		ldi r25,hhi8(9600)
 20183 6e66 0E94 0000 		call Wifi_Init
 20184               	.LBB1005:
 20185               	.LBB1006:
 20186               	.LBB1007:
 20187               	.LBB1008:
 20188               	.LM2223:
 20189 6e6a 8091 A806 		lds r24,1704
 20190               	.LBE1008:
 20191               	.LBE1007:
 20192               	.LM2224:
 20193 6e6e 8C77      		andi r24,lo8(124)
 20194 6e70 86FF      		sbrs r24,6
 20195 6e72 00C0      		rjmp .L1257
 20196               	.L1276:
 20197 6e74 0CE3      		ldi r16,lo8(60)
 20198               	.LVL1592:
 20199               	.LBE1006:
 20200               	.LBE1005:
 20201               	.LBB1009:
 20202               	.LBB1010:
 20203               	.LBB1011:
 20204               	.LBB1012:
 20205               	.LBB1013:
 20206               	.LM2225:
 20207 6e76 E0E9      		ldi r30,lo8(400)
 20208 6e78 EE2E      		mov r14,r30
 20209 6e7a E1E0      		ldi r30,hi8(400)
 20210 6e7c FE2E      		mov r15,r30
 20211               	.LVL1593:
 20212               	.L1259:
 20213               	.LBE1013:
 20214               	.LBE1012:
 20215               	.LBE1011:
 20216               	.LBE1010:
 20217               	.LM2226:
 20218 6e7e 80E0      		ldi r24,lo8(.LC80)
 20219 6e80 90E0      		ldi r25,hi8(.LC80)
 20220               	.LVL1594:
 20221 6e82 60E0      		ldi r22,lo8(0)
 20222 6e84 402F      		mov r20,r16
 20223 6e86 20E0      		ldi r18,lo8(System5x7)
 20224 6e88 30E0      		ldi r19,hi8(System5x7)
 20225 6e8a 0E94 0000 		call display_putString
 20226               	.LVL1595:
 20227               	.LM2227:
 20228 6e8e 0E94 0000 		call display_writeBufferToScreen
 20229 6e92 80E1      		ldi r24,lo8(10000)
 20230 6e94 97E2      		ldi r25,hi8(10000)
 20231               	.LVL1596:
 20232               	.L1258:
 20233               	.LBB1017:
 20234               	.LBB1016:
 20235               	.LBB1015:
 20236               	.LBB1014:
 20237               	.LM2228:
 20238 6e96 F701      		movw r30,r14
 20239               	.LVL1597:
 20240               	/* #APP */
 20241               	 ;  105 "/usr/local/CrossPack-AVR-20100115/lib/gcc/avr/4.3.3/../../../../avr/include/util/delay_bas
 20242 6e98 3197      		1: sbiw r30,1
 20243 6e9a 01F4      		brne 1b
 20244               	 ;  0 "" 2
 20245               	/* #NOAPP */
 20246               	.LBE1014:
 20247               	.LBE1015:
 20248               	.LM2229:
 20249 6e9c 0197      		sbiw r24,1
 20250               	.LM2230:
 20251 6e9e 01F4      		brne .L1258
 20252               	.LBE1016:
 20253               	.LBE1017:
 20254               	.LM2231:
 20255 6ea0 0A5F      		subi r16,lo8(-(6))
 20256 6ea2 0A35      		cpi r16,lo8(90)
 20257 6ea4 01F4      		brne .L1259
 20258 6ea6 00C0      		rjmp .L1295
 20259               	.LVL1598:
 20260               	.L1261:
 20261               	.LBE1009:
 20262               	.LBB1018:
 20263               	.LBB1019:
 20264               	.LBB1020:
 20265               	.LBB1021:
 20266               	.LM2232:
 20267 6ea8 F901      		movw r30,r18
 20268               	.LVL1599:
 20269               	/* #APP */
 20270               	 ;  105 "/usr/local/CrossPack-AVR-20100115/lib/gcc/avr/4.3.3/../../../../avr/include/util/delay_bas
 20271 6eaa 3197      		1: sbiw r30,1
 20272 6eac 01F4      		brne 1b
 20273               	 ;  0 "" 2
 20274               	/* #NOAPP */
 20275               	.LBE1021:
 20276               	.LBE1020:
 20277               	.LM2233:
 20278 6eae 0197      		sbiw r24,1
 20279               	.LM2234:
 20280 6eb0 01F4      		brne .L1261
 20281 6eb2 00C0      		rjmp .L1291
 20282               	.LVL1600:
 20283               	.L1295:
 20284               	.LBE1019:
 20285               	.LBE1018:
 20286               	.LBB1025:
 20287               	.LBB1026:
 20288               	.LM2235:
 20289 6eb4 A0E2      		ldi r26,lo8(1568)
 20290 6eb6 B6E0      		ldi r27,hi8(1568)
 20291 6eb8 40E2      		ldi r20,lo8(32)
 20292               	.LBE1026:
 20293               	.LBE1025:
 20294               	.LBB1028:
 20295               	.LBB1024:
 20296               	.LBB1023:
 20297               	.LBB1022:
 20298               	.LM2236:
 20299 6eba 20E9      		ldi r18,lo8(400)
 20300 6ebc 31E0      		ldi r19,hi8(400)
 20301               	.LVL1601:
 20302               	.L1291:
 20303               	.LBE1022:
 20304               	.LBE1023:
 20305               	.LBE1024:
 20306               	.LBE1028:
 20307               	.LBB1029:
 20308               	.LBB1030:
 20309               	.LM2237:
 20310 6ebe 8091 A806 		lds r24,1704
 20311               	.LVL1602:
 20312 6ec2 80FF      		sbrs r24,0
 20313 6ec4 00C0      		rjmp .L1262
 20314               	.LBE1030:
 20315               	.LBE1029:
 20316               	.LBB1031:
 20317               	.LBB1027:
 20318               	.LM2238:
 20319 6ec6 1796      		adiw r26,7
 20320 6ec8 4C93      		st X,r20
 20321 6eca 1797      		sbiw r26,7
 20322 6ecc 88E8      		ldi r24,lo8(5000)
 20323 6ece 93E1      		ldi r25,hi8(5000)
 20324               	.LVL1603:
 20325 6ed0 00C0      		rjmp .L1261
 20326               	.LVL1604:
 20327               	.L1263:
 20328               	.LBE1027:
 20329               	.LBE1031:
 20330               	.LBB1032:
 20331               	.LBB1033:
 20332               	.LBB1034:
 20333               	.LBB1035:
 20334               	.LM2239:
 20335 6ed2 CA01      		movw r24,r20
 20336               	.LVL1605:
 20337               	/* #APP */
 20338               	 ;  105 "/usr/local/CrossPack-AVR-20100115/lib/gcc/avr/4.3.3/../../../../avr/include/util/delay_bas
 20339 6ed4 0197      		1: sbiw r24,1
 20340 6ed6 01F4      		brne 1b
 20341               	 ;  0 "" 2
 20342               	/* #NOAPP */
 20343               	.LBE1035:
 20344               	.LBE1034:
 20345               	.LM2240:
 20346 6ed8 2150      		subi r18,lo8(-(-1))
 20347 6eda 3040      		sbci r19,hi8(-(-1))
 20348               	.LM2241:
 20349 6edc 01F4      		brne .L1263
 20350               	.LBE1033:
 20351               	.LBE1032:
 20352               	.LM2242:
 20353 6ede 0E94 0000 		call Read_config_file
 20354               	.LVL1606:
 20355               	.LM2243:
 20356 6ee2 0E94 0000 		call Config_Wifi
 20357               	.LM2244:
 20358 6ee6 8091 0000 		lds r24,time_secs
 20359 6eea 9091 0000 		lds r25,(time_secs)+1
 20360 6eee A091 0000 		lds r26,(time_secs)+2
 20361 6ef2 B091 0000 		lds r27,(time_secs)+3
 20362               	.LBB1039:
 20363               	.LBB1040:
 20364               	.LM2245:
 20365 6ef6 8093 0000 		sts UNIX_time,r24
 20366 6efa 9093 0000 		sts (UNIX_time)+1,r25
 20367 6efe A093 0000 		sts (UNIX_time)+2,r26
 20368 6f02 B093 0000 		sts (UNIX_time)+3,r27
 20369 6f06 28E8      		ldi r18,lo8(5000)
 20370 6f08 33E1      		ldi r19,hi8(5000)
 20371               	.LVL1607:
 20372               	.LBE1040:
 20373               	.LBE1039:
 20374               	.LBB1041:
 20375               	.LBB1042:
 20376               	.LBB1043:
 20377               	.LBB1044:
 20378               	.LM2246:
 20379 6f0a 00E9      		ldi r16,lo8(400)
 20380 6f0c 11E0      		ldi r17,hi8(400)
 20381               	.LVL1608:
 20382               	.LBE1044:
 20383               	.LBE1043:
 20384               	.LBE1042:
 20385               	.LBE1041:
 20386               	.LBB1048:
 20387               	.LBB1049:
 20388               	.LM2247:
 20389 6f0e 70E2      		ldi r23,lo8(1568)
 20390 6f10 E72E      		mov r14,r23
 20391 6f12 76E0      		ldi r23,hi8(1568)
 20392 6f14 F72E      		mov r15,r23
 20393 6f16 60E1      		ldi r22,lo8(16)
 20394 6f18 D62E      		mov r13,r22
 20395 6f1a 00C0      		rjmp .L1292
 20396               	.LVL1609:
 20397               	.L1265:
 20398               	.LBE1049:
 20399               	.LBE1048:
 20400               	.LBB1051:
 20401               	.LBB1052:
 20402               	.LBB1053:
 20403               	.LBB1054:
 20404               	.LM2248:
 20405 6f1c C801      		movw r24,r16
 20406               	/* #APP */
 20407               	 ;  105 "/usr/local/CrossPack-AVR-20100115/lib/gcc/avr/4.3.3/../../../../avr/include/util/delay_bas
 20408 6f1e 0197      		1: sbiw r24,1
 20409 6f20 01F4      		brne 1b
 20410               	 ;  0 "" 2
 20411               	/* #NOAPP */
 20412               	.LBE1054:
 20413               	.LBE1053:
 20414               	.LM2249:
 20415 6f22 2150      		subi r18,lo8(-(-1))
 20416 6f24 3040      		sbci r19,hi8(-(-1))
 20417               	.L1292:
 20418               	.LM2250:
 20419 6f26 2115      		cp r18,__zero_reg__
 20420 6f28 3105      		cpc r19,__zero_reg__
 20421 6f2a 01F4      		brne .L1265
 20422               	.LBE1052:
 20423               	.LBE1051:
 20424               	.LM2251:
 20425 6f2c 0E94 0000 		call display_clearBuffer
 20426               	.LVL1610:
 20427               	.LM2252:
 20428 6f30 0E94 0000 		call display_writeBufferToScreen
 20429               	.LM2253:
 20430 6f34 80E0      		ldi r24,lo8(.LC81)
 20431 6f36 90E0      		ldi r25,hi8(.LC81)
 20432 6f38 63E0      		ldi r22,lo8(3)
 20433 6f3a 40E0      		ldi r20,lo8(0)
 20434 6f3c 20E0      		ldi r18,lo8(System5x7)
 20435 6f3e 30E0      		ldi r19,hi8(System5x7)
 20436 6f40 0E94 0000 		call display_putString
 20437               	.LM2254:
 20438 6f44 80E0      		ldi r24,lo8(.LC82)
 20439 6f46 90E0      		ldi r25,hi8(.LC82)
 20440 6f48 64E0      		ldi r22,lo8(4)
 20441 6f4a 40E0      		ldi r20,lo8(0)
 20442 6f4c 20E0      		ldi r18,lo8(System5x7)
 20443 6f4e 30E0      		ldi r19,hi8(System5x7)
 20444 6f50 0E94 0000 		call display_putString
 20445               	.LM2255:
 20446 6f54 0E94 0000 		call display_writeBufferToScreen
 20447               	.L1289:
 20448               	.LBB1055:
 20449               	.LBB1056:
 20450               	.LBB1057:
 20451               	.LBB1058:
 20452               	.LM2256:
 20453 6f58 8091 A806 		lds r24,1704
 20454               	.LBE1058:
 20455               	.LBE1057:
 20456               	.LM2257:
 20457 6f5c 8C77      		andi r24,lo8(124)
 20458 6f5e 86FF      		sbrs r24,6
 20459 6f60 00C0      		rjmp .L1266
 20460               	.LBE1056:
 20461               	.LBE1055:
 20462               	.LBB1059:
 20463               	.LBB1060:
 20464               	.LBB1061:
 20465               	.LBB1062:
 20466               	.LM2258:
 20467 6f62 8091 A806 		lds r24,1704
 20468               	.LBE1062:
 20469               	.LBE1061:
 20470               	.LM2259:
 20471 6f66 8C77      		andi r24,lo8(124)
 20472 6f68 84FD      		sbrc r24,4
 20473 6f6a 00C0      		rjmp .L1289
 20474 6f6c 00C0      		rjmp .L1296
 20475               	.LVL1611:
 20476               	.L1269:
 20477               	.LBE1060:
 20478               	.LBE1059:
 20479               	.LBB1063:
 20480               	.LBB1047:
 20481               	.LBB1046:
 20482               	.LBB1045:
 20483               	.LM2260:
 20484 6f6e F801      		movw r30,r16
 20485               	.LVL1612:
 20486               	/* #APP */
 20487               	 ;  105 "/usr/local/CrossPack-AVR-20100115/lib/gcc/avr/4.3.3/../../../../avr/include/util/delay_bas
 20488 6f70 3197      		1: sbiw r30,1
 20489 6f72 01F4      		brne 1b
 20490               	 ;  0 "" 2
 20491               	/* #NOAPP */
 20492               	.LBE1045:
 20493               	.LBE1046:
 20494               	.LM2261:
 20495 6f74 0197      		sbiw r24,1
 20496               	.LM2262:
 20497 6f76 01F4      		brne .L1269
 20498               	.L1279:
 20499               	.LBE1047:
 20500               	.LBE1063:
 20501               	.LBB1064:
 20502               	.LBB1065:
 20503               	.LBB1066:
 20504               	.LBB1067:
 20505               	.LM2263:
 20506 6f78 8091 A806 		lds r24,1704
 20507               	.LVL1613:
 20508               	.LBE1067:
 20509               	.LBE1066:
 20510               	.LM2264:
 20511 6f7c 8C77      		andi r24,lo8(124)
 20512 6f7e 86FF      		sbrs r24,6
 20513 6f80 00C0      		rjmp .L1279
 20514               	.LBE1065:
 20515               	.LBE1064:
 20516               	.LBB1068:
 20517               	.LBB1050:
 20518               	.LM2265:
 20519 6f82 F701      		movw r30,r14
 20520               	.LVL1614:
 20521 6f84 D682      		std Z+6,r13
 20522               	.LBE1050:
 20523               	.LBE1068:
 20524               	.LBB1069:
 20525               	.LBB1070:
 20526 6f86 81E0      		ldi r24,lo8(1)
 20527 6f88 8683      		std Z+6,r24
 20528               	.LBE1070:
 20529               	.LBE1069:
 20530               	.LM2266:
 20531 6f8a 8093 0000 		sts recording,r24
 20532               	.LVL1615:
 20533               	.L1275:
 20534               	.LBB1071:
 20535               	.LBB1072:
 20536               	.LBB1073:
 20537               	.LBB1074:
 20538               	.LM2267:
 20539 6f8e 8091 A806 		lds r24,1704
 20540               	.LVL1616:
 20541               	.LBE1074:
 20542               	.LBE1073:
 20543               	.LM2268:
 20544 6f92 8C77      		andi r24,lo8(124)
 20545 6f94 86FD      		sbrc r24,6
 20546 6f96 00C0      		rjmp .L1271
 20547 6f98 00C0      		rjmp .L1297
 20548               	.LVL1617:
 20549               	.L1273:
 20550               	.LBE1072:
 20551               	.LBE1071:
 20552               	.LBB1075:
 20553               	.LBB1076:
 20554               	.LBB1077:
 20555               	.LBB1078:
 20556               	.LM2269:
 20557 6f9a F801      		movw r30,r16
 20558               	.LVL1618:
 20559               	/* #APP */
 20560               	 ;  105 "/usr/local/CrossPack-AVR-20100115/lib/gcc/avr/4.3.3/../../../../avr/include/util/delay_bas
 20561 6f9c 3197      		1: sbiw r30,1
 20562 6f9e 01F4      		brne 1b
 20563               	 ;  0 "" 2
 20564               	/* #NOAPP */
 20565               	.LBE1078:
 20566               	.LBE1077:
 20567               	.LM2270:
 20568 6fa0 0197      		sbiw r24,1
 20569               	.LM2271:
 20570 6fa2 01F4      		brne .L1273
 20571               	.LBE1076:
 20572               	.LBE1075:
 20573               	.LBB1079:
 20574               	.LBB1080:
 20575               	.LM2272:
 20576 6fa4 F701      		movw r30,r14
 20577               	.LVL1619:
 20578 6fa6 D582      		std Z+5,r13
 20579               	.LBE1080:
 20580               	.LBE1079:
 20581               	.LBB1081:
 20582               	.LBB1082:
 20583 6fa8 81E0      		ldi r24,lo8(1)
 20584               	.LVL1620:
 20585 6faa 8583      		std Z+5,r24
 20586 6fac 28E8      		ldi r18,lo8(5000)
 20587 6fae 33E1      		ldi r19,hi8(5000)
 20588               	.LVL1621:
 20589 6fb0 00C0      		rjmp .L1265
 20590               	.LVL1622:
 20591               	.L1271:
 20592               	.LM2273:
 20593 6fb2 88EE      		ldi r24,lo8(1000)
 20594 6fb4 93E0      		ldi r25,hi8(1000)
 20595               	.LVL1623:
 20596               	.L1274:
 20597               	.LBE1082:
 20598               	.LBE1081:
 20599               	.LBB1083:
 20600               	.LBB1084:
 20601               	.LBB1085:
 20602               	.LBB1086:
 20603               	.LM2274:
 20604 6fb6 F801      		movw r30,r16
 20605               	/* #APP */
 20606               	 ;  105 "/usr/local/CrossPack-AVR-20100115/lib/gcc/avr/4.3.3/../../../../avr/include/util/delay_bas
 20607 6fb8 3197      		1: sbiw r30,1
 20608 6fba 01F4      		brne 1b
 20609               	 ;  0 "" 2
 20610               	/* #NOAPP */
 20611               	.LBE1086:
 20612               	.LBE1085:
 20613               	.LM2275:
 20614 6fbc 0197      		sbiw r24,1
 20615               	.LM2276:
 20616 6fbe 01F4      		brne .L1274
 20617 6fc0 00C0      		rjmp .L1275
 20618               	.LVL1624:
 20619               	.L1257:
 20620               	.LBE1084:
 20621               	.LBE1083:
 20622               	.LM2277:
 20623 6fc2 80E0      		ldi r24,lo8(.LC83)
 20624 6fc4 90E0      		ldi r25,hi8(.LC83)
 20625 6fc6 61E0      		ldi r22,lo8(1)
 20626 6fc8 0E94 0000 		call Debug_SendString
 20627               	.LM2278:
 20628 6fcc 0E94 0000 		call Debug_To_Wifi
 20629 6fd0 00C0      		rjmp .L1276
 20630               	.LVL1625:
 20631               	.L1262:
 20632               	.LBB1087:
 20633               	.LBB1088:
 20634               	.LM2279:
 20635 6fd2 E0E2      		ldi r30,lo8(1568)
 20636 6fd4 F6E0      		ldi r31,hi8(1568)
 20637               	.LVL1626:
 20638 6fd6 80E2      		ldi r24,lo8(32)
 20639 6fd8 8683      		std Z+6,r24
 20640               	.LBE1088:
 20641               	.LBE1087:
 20642               	.LBB1089:
 20643               	.LBB1090:
 20644               	.LM2280:
 20645 6fda 80E1      		ldi r24,lo8(16)
 20646 6fdc 8583      		std Z+5,r24
 20647 6fde 20E1      		ldi r18,lo8(10000)
 20648 6fe0 37E2      		ldi r19,hi8(10000)
 20649               	.LVL1627:
 20650               	.LBE1090:
 20651               	.LBE1089:
 20652               	.LBB1091:
 20653               	.LBB1038:
 20654               	.LBB1037:
 20655               	.LBB1036:
 20656               	.LM2281:
 20657 6fe2 40E9      		ldi r20,lo8(400)
 20658 6fe4 51E0      		ldi r21,hi8(400)
 20659 6fe6 00C0      		rjmp .L1263
 20660               	.LVL1628:
 20661               	.L1296:
 20662               	.LBE1036:
 20663               	.LBE1037:
 20664               	.LBE1038:
 20665               	.LBE1091:
 20666               	.LM2282:
 20667 6fe8 80E0      		ldi r24,lo8(.LC83)
 20668 6fea 90E0      		ldi r25,hi8(.LC83)
 20669 6fec 61E0      		ldi r22,lo8(1)
 20670 6fee 0E94 0000 		call Debug_SendString
 20671               	.LM2283:
 20672 6ff2 0E94 0000 		call Debug_To_Wifi
 20673 6ff6 00C0      		rjmp .L1289
 20674               	.L1266:
 20675               	.LM2284:
 20676 6ff8 6091 0000 		lds r22,UNIX_time
 20677 6ffc 7091 0000 		lds r23,(UNIX_time)+1
 20678 7000 8091 0000 		lds r24,(UNIX_time)+2
 20679 7004 9091 0000 		lds r25,(UNIX_time)+3
 20680 7008 0E94 0000 		call SD_StartLogFile
 20681               	.LM2285:
 20682 700c 0E94 0000 		call display_clearBuffer
 20683               	.LM2286:
 20684 7010 0E94 0000 		call display_writeBufferToScreen
 20685               	.LM2287:
 20686 7014 80E0      		ldi r24,lo8(.LC84)
 20687 7016 90E0      		ldi r25,hi8(.LC84)
 20688 7018 63E0      		ldi r22,lo8(3)
 20689 701a 40E0      		ldi r20,lo8(0)
 20690 701c 20E0      		ldi r18,lo8(System5x7)
 20691 701e 30E0      		ldi r19,hi8(System5x7)
 20692 7020 0E94 0000 		call display_putString
 20693               	.LM2288:
 20694 7024 80E0      		ldi r24,lo8(.LC81)
 20695 7026 90E0      		ldi r25,hi8(.LC81)
 20696 7028 66E0      		ldi r22,lo8(6)
 20697 702a 40E0      		ldi r20,lo8(0)
 20698 702c 20E0      		ldi r18,lo8(System5x7)
 20699 702e 30E0      		ldi r19,hi8(System5x7)
 20700 7030 0E94 0000 		call display_putString
 20701               	.LM2289:
 20702 7034 80E0      		ldi r24,lo8(.LC85)
 20703 7036 90E0      		ldi r25,hi8(.LC85)
 20704 7038 67E0      		ldi r22,lo8(7)
 20705 703a 40E0      		ldi r20,lo8(0)
 20706 703c 20E0      		ldi r18,lo8(System5x7)
 20707 703e 30E0      		ldi r19,hi8(System5x7)
 20708 7040 0E94 0000 		call display_putString
 20709               	.LM2290:
 20710 7044 0E94 0000 		call display_writeBufferToScreen
 20711               	.LM2291:
 20712 7048 80E0      		ldi r24,lo8(.LC16)
 20713 704a 90E0      		ldi r25,hi8(.LC16)
 20714 704c 60E0      		ldi r22,lo8(0)
 20715 704e 0E94 0000 		call Debug_SendString
 20716               	.LM2292:
 20717 7052 0E94 0000 		call Time_Get32BitTimer
 20718 7056 2091 0000 		lds r18,UNIX_time
 20719 705a 3091 0000 		lds r19,(UNIX_time)+1
 20720 705e 4091 0000 		lds r20,(UNIX_time)+2
 20721 7062 5091 0000 		lds r21,(UNIX_time)+3
 20722 7066 0E94 0000 		call SD_WriteRTCBlock
 20723               	.LM2293:
 20724 706a 6091 0000 		lds r22,UNIX_time
 20725 706e 7091 0000 		lds r23,(UNIX_time)+1
 20726 7072 8091 0000 		lds r24,(UNIX_time)+2
 20727 7076 9091 0000 		lds r25,(UNIX_time)+3
 20728 707a 40E0      		ldi r20,lo8(temp)
 20729 707c 50E0      		ldi r21,hi8(temp)
 20730 707e 2AE0      		ldi r18,lo8(10)
 20731 7080 30E0      		ldi r19,hi8(10)
 20732 7082 0E94 0000 		call ltoa
 20733 7086 60E0      		ldi r22,lo8(0)
 20734 7088 0E94 0000 		call Debug_SendString
 20735               	.LM2294:
 20736 708c 80E0      		ldi r24,lo8(.LC17)
 20737 708e 90E0      		ldi r25,hi8(.LC17)
 20738 7090 60E0      		ldi r22,lo8(0)
 20739 7092 0E94 0000 		call Debug_SendString
 20740               	.LM2295:
 20741 7096 0E94 0000 		call Time_Get32BitTimer
 20742 709a 40E0      		ldi r20,lo8(temp)
 20743 709c 50E0      		ldi r21,hi8(temp)
 20744 709e 2AE0      		ldi r18,lo8(10)
 20745 70a0 30E0      		ldi r19,hi8(10)
 20746 70a2 0E94 0000 		call ltoa
 20747 70a6 61E0      		ldi r22,lo8(1)
 20748 70a8 0E94 0000 		call Debug_SendString
 20749 70ac 80E1      		ldi r24,lo8(10000)
 20750 70ae 97E2      		ldi r25,hi8(10000)
 20751               	.LVL1629:
 20752 70b0 00C0      		rjmp .L1269
 20753               	.LVL1630:
 20754               	.L1297:
 20755               	.LM2296:
 20756 70b2 1092 0000 		sts recording,__zero_reg__
 20757               	.LM2297:
 20758 70b6 0E94 0000 		call display_clearBuffer
 20759               	.LVL1631:
 20760               	.LM2298:
 20761 70ba 0E94 0000 		call display_writeBufferToScreen
 20762               	.LM2299:
 20763 70be 80E0      		ldi r24,lo8(.LC86)
 20764 70c0 90E0      		ldi r25,hi8(.LC86)
 20765 70c2 63E0      		ldi r22,lo8(3)
 20766 70c4 40E0      		ldi r20,lo8(0)
 20767 70c6 20E0      		ldi r18,lo8(System5x7)
 20768 70c8 30E0      		ldi r19,hi8(System5x7)
 20769 70ca 0E94 0000 		call display_putString
 20770               	.LM2300:
 20771 70ce 80E0      		ldi r24,lo8(.LC87)
 20772 70d0 90E0      		ldi r25,hi8(.LC87)
 20773 70d2 64E0      		ldi r22,lo8(4)
 20774 70d4 40E0      		ldi r20,lo8(0)
 20775 70d6 20E0      		ldi r18,lo8(System5x7)
 20776 70d8 30E0      		ldi r19,hi8(System5x7)
 20777 70da 0E94 0000 		call display_putString
 20778               	.LM2301:
 20779 70de 0E94 0000 		call display_writeBufferToScreen
 20780               	.LBB1092:
 20781               	.LBB1093:
 20782               	.LM2302:
 20783 70e2 1092 0000 		sts temperatureBufferCounter,__zero_reg__
 20784               	.LM2303:
 20785 70e6 81E0      		ldi r24,lo8(1)
 20786 70e8 8093 0000 		sts temperatureBufferToWriteTo,r24
 20787               	.LM2304:
 20788 70ec 1092 0000 		sts okToSendTemperatureBuffer1,__zero_reg__
 20789               	.LM2305:
 20790 70f0 1092 0000 		sts okToSendTemperatureBuffer2,__zero_reg__
 20791               	.LBE1093:
 20792               	.LBE1092:
 20793               	.LBB1094:
 20794               	.LBB1095:
 20795               	.LM2306:
 20796 70f4 1092 0000 		sts humidityBufferCounter,__zero_reg__
 20797               	.LM2307:
 20798 70f8 8093 0000 		sts humidityBufferToWriteTo,r24
 20799               	.LM2308:
 20800 70fc 1092 0000 		sts okToSendHumidityBuffer1,__zero_reg__
 20801               	.LM2309:
 20802 7100 1092 0000 		sts okToSendHumidityBuffer2,__zero_reg__
 20803               	.LBE1095:
 20804               	.LBE1094:
 20805               	.LBB1096:
 20806               	.LBB1097:
 20807               	.LM2310:
 20808 7104 1092 0000 		sts pressureBufferCounter,__zero_reg__
 20809               	.LM2311:
 20810 7108 8093 0000 		sts pressureBufferToWriteTo,r24
 20811               	.LM2312:
 20812 710c 1092 0000 		sts okToSendPressureBuffer1,__zero_reg__
 20813               	.LM2313:
 20814 7110 1092 0000 		sts okToSendPressureBuffer2,__zero_reg__
 20815               	.LBE1097:
 20816               	.LBE1096:
 20817               	.LM2314:
 20818 7114 0E94 0000 		call SD_Close
 20819 7118 80E1      		ldi r24,lo8(10000)
 20820 711a 97E2      		ldi r25,hi8(10000)
 20821               	.LVL1632:
 20822 711c 00C0      		rjmp .L1273
 20823               	.LFE138:
 20825               	.global	temperatureSampleStartTime1
 20826               	.global	temperatureSampleStartTime1
 20827               		.section .bss
 20830               	temperatureSampleStartTime1:
 20831 0000 0000 0000 		.skip 4,0
 20832               	.global	temperatureSampleStartTime2
 20833               	.global	temperatureSampleStartTime2
 20836               	temperatureSampleStartTime2:
 20837 0004 0000 0000 		.skip 4,0
 20838               	.global	humiditySampleStartTime1
 20839               	.global	humiditySampleStartTime1
 20842               	humiditySampleStartTime1:
 20843 0008 0000 0000 		.skip 4,0
 20844               	.global	humiditySampleStartTime2
 20845               	.global	humiditySampleStartTime2
 20848               	humiditySampleStartTime2:
 20849 000c 0000 0000 		.skip 4,0
 20850               	.global	pressureSampleStartTime1
 20851               	.global	pressureSampleStartTime1
 20854               	pressureSampleStartTime1:
 20855 0010 0000 0000 		.skip 4,0
 20856               	.global	pressureSampleStartTime2
 20857               	.global	pressureSampleStartTime2
 20860               	pressureSampleStartTime2:
 20861 0014 0000 0000 		.skip 4,0
 20862               	.global	microphoneSampleStartTime1
 20863               	.global	microphoneSampleStartTime1
 20866               	microphoneSampleStartTime1:
 20867 0018 0000 0000 		.skip 4,0
 20868               	.global	microphoneSampleStartTime2
 20869               	.global	microphoneSampleStartTime2
 20872               	microphoneSampleStartTime2:
 20873 001c 0000 0000 		.skip 4,0
 20874               	.global	Debug_readLocation
 20875               	.global	Debug_readLocation
 20878               	Debug_readLocation:
 20879 0020 0000      		.skip 2,0
 20880               	.global	Debug_writeLocation
 20881               	.global	Debug_writeLocation
 20884               	Debug_writeLocation:
 20885 0022 0000      		.skip 2,0
 20886               	.global	Wifi_readLocation
 20887               	.global	Wifi_readLocation
 20890               	Wifi_readLocation:
 20891 0024 0000      		.skip 2,0
 20892               	.global	Wifi_writeLocation
 20893               	.global	Wifi_writeLocation
 20896               	Wifi_writeLocation:
 20897 0026 0000      		.skip 2,0
 20898               	.global	respLen
 20899               	.global	respLen
 20902               	respLen:
 20903 0028 00        		.skip 1,0
 20904               	.global	toSendLen
 20905               	.global	toSendLen
 20908               	toSendLen:
 20909 0029 00        		.skip 1,0
 20910               	.global	okLen
 20911               	.global	okLen
 20914               	okLen:
 20915 002a 00        		.skip 1,0
 20916               	.global	timeLength
 20917               	.global	timeLength
 20920               	timeLength:
 20921 002b 00        		.skip 1,0
 20922               	.global	time_secs
 20923               	.global	time_secs
 20926               	time_secs:
 20927 002c 0000 0000 		.skip 4,0
 20928               	.global	time_nanos
 20929               	.global	time_nanos
 20932               	time_nanos:
 20933 0030 0000 0000 		.skip 4,0
 20934               	.global	connected
 20935               	.global	connected
 20938               	connected:
 20939 0034 00        		.skip 1,0
 20940               	.global	Rs232_readLocation
 20941               	.global	Rs232_readLocation
 20944               	Rs232_readLocation:
 20945 0035 0000      		.skip 2,0
 20946               	.global	Rs232_writeLocation
 20947               	.global	Rs232_writeLocation
 20950               	Rs232_writeLocation:
 20951 0037 0000      		.skip 2,0
 20952               	.global	UNIX_time
 20953               	.global	UNIX_time
 20956               	UNIX_time:
 20957 0039 0000 0000 		.skip 4,0
 20958               	.global	recording
 20959               	.global	recording
 20962               	recording:
 20963 003d 00        		.skip 1,0
 20964               	.global	requestToStopRecording
 20965               	.global	requestToStopRecording
 20968               	requestToStopRecording:
 20969 003e 00        		.skip 1,0
 20970               	.global	okToSendTemperatureBuffer1
 20971               	.global	okToSendTemperatureBuffer1
 20974               	okToSendTemperatureBuffer1:
 20975 003f 00        		.skip 1,0
 20976               	.global	okToSendTemperatureBuffer2
 20977               	.global	okToSendTemperatureBuffer2
 20980               	okToSendTemperatureBuffer2:
 20981 0040 00        		.skip 1,0
 20982               	.global	temperatureBufferToWriteTo
 20983               		.data
 20986               	temperatureBufferToWriteTo:
 20987 04ad 01        		.byte	1
 20988               	.global	temperatureBufferCounter
 20989               	.global	temperatureBufferCounter
 20990               		.section .bss
 20993               	temperatureBufferCounter:
 20994 0041 00        		.skip 1,0
 20995               	.global	okToSendPressureBuffer1
 20996               	.global	okToSendPressureBuffer1
 20999               	okToSendPressureBuffer1:
 21000 0042 00        		.skip 1,0
 21001               	.global	okToSendPressureBuffer2
 21002               	.global	okToSendPressureBuffer2
 21005               	okToSendPressureBuffer2:
 21006 0043 00        		.skip 1,0
 21007               	.global	pressureBufferToWriteTo
 21008               		.data
 21011               	pressureBufferToWriteTo:
 21012 04ae 01        		.byte	1
 21013               	.global	pressureBufferCounter
 21014               	.global	pressureBufferCounter
 21015               		.section .bss
 21018               	pressureBufferCounter:
 21019 0044 00        		.skip 1,0
 21020               	.global	okToSendHumidityBuffer1
 21021               	.global	okToSendHumidityBuffer1
 21024               	okToSendHumidityBuffer1:
 21025 0045 00        		.skip 1,0
 21026               	.global	okToSendHumidityBuffer2
 21027               	.global	okToSendHumidityBuffer2
 21030               	okToSendHumidityBuffer2:
 21031 0046 00        		.skip 1,0
 21032               	.global	humidityBufferToWriteTo
 21033               		.data
 21036               	humidityBufferToWriteTo:
 21037 04af 01        		.byte	1
 21038               	.global	humidityBufferCounter
 21039               	.global	humidityBufferCounter
 21040               		.section .bss
 21043               	humidityBufferCounter:
 21044 0047 00        		.skip 1,0
 21045               	.global	okToSendMicrophoneBuffer1
 21046               	.global	okToSendMicrophoneBuffer1
 21049               	okToSendMicrophoneBuffer1:
 21050 0048 00        		.skip 1,0
 21051               	.global	okToSendMicrophoneBuffer2
 21052               	.global	okToSendMicrophoneBuffer2
 21055               	okToSendMicrophoneBuffer2:
 21056 0049 00        		.skip 1,0
 21057               	.global	microphoneBufferToWriteTo
 21058               		.data
 21061               	microphoneBufferToWriteTo:
 21062 04b0 01        		.byte	1
 21063               	.global	microphoneBufferCounter
 21064               	.global	microphoneBufferCounter
 21065               		.section .bss
 21068               	microphoneBufferCounter:
 21069 004a 0000      		.skip 2,0
 21070               	.global	okToSendRTCBlock
 21071               	.global	okToSendRTCBlock
 21074               	okToSendRTCBlock:
 21075 004c 00        		.skip 1,0
 21076               	.global	rtcBlockCounter
 21077               	.global	rtcBlockCounter
 21080               	rtcBlockCounter:
 21081 004d 00        		.skip 1,0
 21082               	.global	auth
 21083               		.data
 21086               	auth:
 21087 04b1 7365 7420 		.string	"set wlan auth "
 21087      776C 616E 
 21087      2061 7574 
 21087      6820 00
 21088 04c0 0000 0000 		.skip 35,0
 21088      0000 0000 
 21088      0000 0000 
 21088      0000 0000 
 21088      0000 0000 
 21089               	.global	phrase
 21092               	phrase:
 21093 04e3 7365 7420 		.string	"set wlan phrase "
 21093      776C 616E 
 21093      2070 6872 
 21093      6173 6520 
 21093      00
 21094 04f4 0000 0000 		.skip 33,0
 21094      0000 0000 
 21094      0000 0000 
 21094      0000 0000 
 21094      0000 0000 
 21095               	.global	port
 21098               	port:
 21099 0515 7365 7420 		.string	"set ip localport "
 21099      6970 206C 
 21099      6F63 616C 
 21099      706F 7274 
 21099      2000 
 21100 0527 0000 0000 		.skip 32,0
 21100      0000 0000 
 21100      0000 0000 
 21100      0000 0000 
 21100      0000 0000 
 21101               	.global	ssid
 21104               	ssid:
 21105 0547 6A6F 696E 		.string	"join "
 21105      2000 
 21106 054d 0000 0000 		.skip 44,0
 21106      0000 0000 
 21106      0000 0000 
 21106      0000 0000 
 21106      0000 0000 
 21107               	.global	authRead
 21108               	.global	authRead
 21109               		.section .bss
 21112               	authRead:
 21113 004e 00        		.skip 1,0
 21114               	.global	phraseRead
 21115               	.global	phraseRead
 21118               	phraseRead:
 21119 004f 00        		.skip 1,0
 21120               	.global	portRead
 21121               	.global	portRead
 21124               	portRead:
 21125 0050 00        		.skip 1,0
 21126               	.global	ssidRead
 21127               	.global	ssidRead
 21130               	ssidRead:
 21131 0051 00        		.skip 1,0
 21132               		.data
 21135               	System5x7:
 21136 0579 00        		.byte	0
 21137 057a 00        		.byte	0
 21138 057b 05        		.byte	5
 21139 057c 07        		.byte	7
 21140 057d 20        		.byte	32
 21141 057e 7F        		.byte	127
 21142 057f 00        		.byte	0
 21143 0580 00        		.byte	0
 21144 0581 00        		.byte	0
 21145 0582 00        		.byte	0
 21146 0583 00        		.byte	0
 21147 0584 00        		.byte	0
 21148 0585 00        		.byte	0
 21149 0586 5F        		.byte	95
 21150 0587 00        		.byte	0
 21151 0588 00        		.byte	0
 21152 0589 00        		.byte	0
 21153 058a 07        		.byte	7
 21154 058b 00        		.byte	0
 21155 058c 07        		.byte	7
 21156 058d 00        		.byte	0
 21157 058e 14        		.byte	20
 21158 058f 7F        		.byte	127
 21159 0590 14        		.byte	20
 21160 0591 7F        		.byte	127
 21161 0592 14        		.byte	20
 21162 0593 24        		.byte	36
 21163 0594 2A        		.byte	42
 21164 0595 7F        		.byte	127
 21165 0596 2A        		.byte	42
 21166 0597 12        		.byte	18
 21167 0598 23        		.byte	35
 21168 0599 13        		.byte	19
 21169 059a 08        		.byte	8
 21170 059b 64        		.byte	100
 21171 059c 62        		.byte	98
 21172 059d 36        		.byte	54
 21173 059e 49        		.byte	73
 21174 059f 55        		.byte	85
 21175 05a0 22        		.byte	34
 21176 05a1 50        		.byte	80
 21177 05a2 00        		.byte	0
 21178 05a3 05        		.byte	5
 21179 05a4 03        		.byte	3
 21180 05a5 00        		.byte	0
 21181 05a6 00        		.byte	0
 21182 05a7 00        		.byte	0
 21183 05a8 1C        		.byte	28
 21184 05a9 22        		.byte	34
 21185 05aa 41        		.byte	65
 21186 05ab 00        		.byte	0
 21187 05ac 00        		.byte	0
 21188 05ad 41        		.byte	65
 21189 05ae 22        		.byte	34
 21190 05af 1C        		.byte	28
 21191 05b0 00        		.byte	0
 21192 05b1 08        		.byte	8
 21193 05b2 2A        		.byte	42
 21194 05b3 1C        		.byte	28
 21195 05b4 2A        		.byte	42
 21196 05b5 08        		.byte	8
 21197 05b6 08        		.byte	8
 21198 05b7 08        		.byte	8
 21199 05b8 3E        		.byte	62
 21200 05b9 08        		.byte	8
 21201 05ba 08        		.byte	8
 21202 05bb 00        		.byte	0
 21203 05bc 50        		.byte	80
 21204 05bd 30        		.byte	48
 21205 05be 00        		.byte	0
 21206 05bf 00        		.byte	0
 21207 05c0 08        		.byte	8
 21208 05c1 08        		.byte	8
 21209 05c2 08        		.byte	8
 21210 05c3 08        		.byte	8
 21211 05c4 08        		.byte	8
 21212 05c5 00        		.byte	0
 21213 05c6 60        		.byte	96
 21214 05c7 60        		.byte	96
 21215 05c8 00        		.byte	0
 21216 05c9 00        		.byte	0
 21217 05ca 20        		.byte	32
 21218 05cb 10        		.byte	16
 21219 05cc 08        		.byte	8
 21220 05cd 04        		.byte	4
 21221 05ce 02        		.byte	2
 21222 05cf 3E        		.byte	62
 21223 05d0 51        		.byte	81
 21224 05d1 49        		.byte	73
 21225 05d2 45        		.byte	69
 21226 05d3 3E        		.byte	62
 21227 05d4 00        		.byte	0
 21228 05d5 42        		.byte	66
 21229 05d6 7F        		.byte	127
 21230 05d7 40        		.byte	64
 21231 05d8 00        		.byte	0
 21232 05d9 42        		.byte	66
 21233 05da 61        		.byte	97
 21234 05db 51        		.byte	81
 21235 05dc 49        		.byte	73
 21236 05dd 46        		.byte	70
 21237 05de 21        		.byte	33
 21238 05df 41        		.byte	65
 21239 05e0 45        		.byte	69
 21240 05e1 4B        		.byte	75
 21241 05e2 31        		.byte	49
 21242 05e3 18        		.byte	24
 21243 05e4 14        		.byte	20
 21244 05e5 12        		.byte	18
 21245 05e6 7F        		.byte	127
 21246 05e7 10        		.byte	16
 21247 05e8 27        		.byte	39
 21248 05e9 45        		.byte	69
 21249 05ea 45        		.byte	69
 21250 05eb 45        		.byte	69
 21251 05ec 39        		.byte	57
 21252 05ed 3C        		.byte	60
 21253 05ee 4A        		.byte	74
 21254 05ef 49        		.byte	73
 21255 05f0 49        		.byte	73
 21256 05f1 30        		.byte	48
 21257 05f2 01        		.byte	1
 21258 05f3 71        		.byte	113
 21259 05f4 09        		.byte	9
 21260 05f5 05        		.byte	5
 21261 05f6 03        		.byte	3
 21262 05f7 36        		.byte	54
 21263 05f8 49        		.byte	73
 21264 05f9 49        		.byte	73
 21265 05fa 49        		.byte	73
 21266 05fb 36        		.byte	54
 21267 05fc 06        		.byte	6
 21268 05fd 49        		.byte	73
 21269 05fe 49        		.byte	73
 21270 05ff 29        		.byte	41
 21271 0600 1E        		.byte	30
 21272 0601 00        		.byte	0
 21273 0602 36        		.byte	54
 21274 0603 36        		.byte	54
 21275 0604 00        		.byte	0
 21276 0605 00        		.byte	0
 21277 0606 00        		.byte	0
 21278 0607 56        		.byte	86
 21279 0608 36        		.byte	54
 21280 0609 00        		.byte	0
 21281 060a 00        		.byte	0
 21282 060b 00        		.byte	0
 21283 060c 08        		.byte	8
 21284 060d 14        		.byte	20
 21285 060e 22        		.byte	34
 21286 060f 41        		.byte	65
 21287 0610 14        		.byte	20
 21288 0611 14        		.byte	20
 21289 0612 14        		.byte	20
 21290 0613 14        		.byte	20
 21291 0614 14        		.byte	20
 21292 0615 41        		.byte	65
 21293 0616 22        		.byte	34
 21294 0617 14        		.byte	20
 21295 0618 08        		.byte	8
 21296 0619 00        		.byte	0
 21297 061a 02        		.byte	2
 21298 061b 01        		.byte	1
 21299 061c 51        		.byte	81
 21300 061d 09        		.byte	9
 21301 061e 06        		.byte	6
 21302 061f 32        		.byte	50
 21303 0620 49        		.byte	73
 21304 0621 79        		.byte	121
 21305 0622 41        		.byte	65
 21306 0623 3E        		.byte	62
 21307 0624 7E        		.byte	126
 21308 0625 11        		.byte	17
 21309 0626 11        		.byte	17
 21310 0627 11        		.byte	17
 21311 0628 7E        		.byte	126
 21312 0629 7F        		.byte	127
 21313 062a 49        		.byte	73
 21314 062b 49        		.byte	73
 21315 062c 49        		.byte	73
 21316 062d 36        		.byte	54
 21317 062e 3E        		.byte	62
 21318 062f 41        		.byte	65
 21319 0630 41        		.byte	65
 21320 0631 41        		.byte	65
 21321 0632 22        		.byte	34
 21322 0633 7F        		.byte	127
 21323 0634 41        		.byte	65
 21324 0635 41        		.byte	65
 21325 0636 22        		.byte	34
 21326 0637 1C        		.byte	28
 21327 0638 7F        		.byte	127
 21328 0639 49        		.byte	73
 21329 063a 49        		.byte	73
 21330 063b 49        		.byte	73
 21331 063c 41        		.byte	65
 21332 063d 7F        		.byte	127
 21333 063e 09        		.byte	9
 21334 063f 09        		.byte	9
 21335 0640 01        		.byte	1
 21336 0641 01        		.byte	1
 21337 0642 3E        		.byte	62
 21338 0643 41        		.byte	65
 21339 0644 41        		.byte	65
 21340 0645 51        		.byte	81
 21341 0646 32        		.byte	50
 21342 0647 7F        		.byte	127
 21343 0648 08        		.byte	8
 21344 0649 08        		.byte	8
 21345 064a 08        		.byte	8
 21346 064b 7F        		.byte	127
 21347 064c 00        		.byte	0
 21348 064d 41        		.byte	65
 21349 064e 7F        		.byte	127
 21350 064f 41        		.byte	65
 21351 0650 00        		.byte	0
 21352 0651 20        		.byte	32
 21353 0652 40        		.byte	64
 21354 0653 41        		.byte	65
 21355 0654 3F        		.byte	63
 21356 0655 01        		.byte	1
 21357 0656 7F        		.byte	127
 21358 0657 08        		.byte	8
 21359 0658 14        		.byte	20
 21360 0659 22        		.byte	34
 21361 065a 41        		.byte	65
 21362 065b 7F        		.byte	127
 21363 065c 40        		.byte	64
 21364 065d 40        		.byte	64
 21365 065e 40        		.byte	64
 21366 065f 40        		.byte	64
 21367 0660 7F        		.byte	127
 21368 0661 02        		.byte	2
 21369 0662 04        		.byte	4
 21370 0663 02        		.byte	2
 21371 0664 7F        		.byte	127
 21372 0665 7F        		.byte	127
 21373 0666 04        		.byte	4
 21374 0667 08        		.byte	8
 21375 0668 10        		.byte	16
 21376 0669 7F        		.byte	127
 21377 066a 3E        		.byte	62
 21378 066b 41        		.byte	65
 21379 066c 41        		.byte	65
 21380 066d 41        		.byte	65
 21381 066e 3E        		.byte	62
 21382 066f 7F        		.byte	127
 21383 0670 09        		.byte	9
 21384 0671 09        		.byte	9
 21385 0672 09        		.byte	9
 21386 0673 06        		.byte	6
 21387 0674 3E        		.byte	62
 21388 0675 41        		.byte	65
 21389 0676 51        		.byte	81
 21390 0677 21        		.byte	33
 21391 0678 5E        		.byte	94
 21392 0679 7F        		.byte	127
 21393 067a 09        		.byte	9
 21394 067b 19        		.byte	25
 21395 067c 29        		.byte	41
 21396 067d 46        		.byte	70
 21397 067e 46        		.byte	70
 21398 067f 49        		.byte	73
 21399 0680 49        		.byte	73
 21400 0681 49        		.byte	73
 21401 0682 31        		.byte	49
 21402 0683 01        		.byte	1
 21403 0684 01        		.byte	1
 21404 0685 7F        		.byte	127
 21405 0686 01        		.byte	1
 21406 0687 01        		.byte	1
 21407 0688 3F        		.byte	63
 21408 0689 40        		.byte	64
 21409 068a 40        		.byte	64
 21410 068b 40        		.byte	64
 21411 068c 3F        		.byte	63
 21412 068d 1F        		.byte	31
 21413 068e 20        		.byte	32
 21414 068f 40        		.byte	64
 21415 0690 20        		.byte	32
 21416 0691 1F        		.byte	31
 21417 0692 7F        		.byte	127
 21418 0693 20        		.byte	32
 21419 0694 18        		.byte	24
 21420 0695 20        		.byte	32
 21421 0696 7F        		.byte	127
 21422 0697 63        		.byte	99
 21423 0698 14        		.byte	20
 21424 0699 08        		.byte	8
 21425 069a 14        		.byte	20
 21426 069b 63        		.byte	99
 21427 069c 03        		.byte	3
 21428 069d 04        		.byte	4
 21429 069e 78        		.byte	120
 21430 069f 04        		.byte	4
 21431 06a0 03        		.byte	3
 21432 06a1 61        		.byte	97
 21433 06a2 51        		.byte	81
 21434 06a3 49        		.byte	73
 21435 06a4 45        		.byte	69
 21436 06a5 43        		.byte	67
 21437 06a6 00        		.byte	0
 21438 06a7 00        		.byte	0
 21439 06a8 7F        		.byte	127
 21440 06a9 41        		.byte	65
 21441 06aa 41        		.byte	65
 21442 06ab 02        		.byte	2
 21443 06ac 04        		.byte	4
 21444 06ad 08        		.byte	8
 21445 06ae 10        		.byte	16
 21446 06af 20        		.byte	32
 21447 06b0 41        		.byte	65
 21448 06b1 41        		.byte	65
 21449 06b2 7F        		.byte	127
 21450 06b3 00        		.byte	0
 21451 06b4 00        		.byte	0
 21452 06b5 04        		.byte	4
 21453 06b6 02        		.byte	2
 21454 06b7 01        		.byte	1
 21455 06b8 02        		.byte	2
 21456 06b9 04        		.byte	4
 21457 06ba 40        		.byte	64
 21458 06bb 40        		.byte	64
 21459 06bc 40        		.byte	64
 21460 06bd 40        		.byte	64
 21461 06be 40        		.byte	64
 21462 06bf 00        		.byte	0
 21463 06c0 01        		.byte	1
 21464 06c1 02        		.byte	2
 21465 06c2 04        		.byte	4
 21466 06c3 00        		.byte	0
 21467 06c4 20        		.byte	32
 21468 06c5 54        		.byte	84
 21469 06c6 54        		.byte	84
 21470 06c7 54        		.byte	84
 21471 06c8 78        		.byte	120
 21472 06c9 7F        		.byte	127
 21473 06ca 48        		.byte	72
 21474 06cb 44        		.byte	68
 21475 06cc 44        		.byte	68
 21476 06cd 38        		.byte	56
 21477 06ce 38        		.byte	56
 21478 06cf 44        		.byte	68
 21479 06d0 44        		.byte	68
 21480 06d1 44        		.byte	68
 21481 06d2 20        		.byte	32
 21482 06d3 38        		.byte	56
 21483 06d4 44        		.byte	68
 21484 06d5 44        		.byte	68
 21485 06d6 48        		.byte	72
 21486 06d7 7F        		.byte	127
 21487 06d8 38        		.byte	56
 21488 06d9 54        		.byte	84
 21489 06da 54        		.byte	84
 21490 06db 54        		.byte	84
 21491 06dc 18        		.byte	24
 21492 06dd 08        		.byte	8
 21493 06de 7E        		.byte	126
 21494 06df 09        		.byte	9
 21495 06e0 01        		.byte	1
 21496 06e1 02        		.byte	2
 21497 06e2 08        		.byte	8
 21498 06e3 14        		.byte	20
 21499 06e4 54        		.byte	84
 21500 06e5 54        		.byte	84
 21501 06e6 3C        		.byte	60
 21502 06e7 7F        		.byte	127
 21503 06e8 08        		.byte	8
 21504 06e9 04        		.byte	4
 21505 06ea 04        		.byte	4
 21506 06eb 78        		.byte	120
 21507 06ec 00        		.byte	0
 21508 06ed 44        		.byte	68
 21509 06ee 7D        		.byte	125
 21510 06ef 40        		.byte	64
 21511 06f0 00        		.byte	0
 21512 06f1 20        		.byte	32
 21513 06f2 40        		.byte	64
 21514 06f3 44        		.byte	68
 21515 06f4 3D        		.byte	61
 21516 06f5 00        		.byte	0
 21517 06f6 00        		.byte	0
 21518 06f7 7F        		.byte	127
 21519 06f8 10        		.byte	16
 21520 06f9 28        		.byte	40
 21521 06fa 44        		.byte	68
 21522 06fb 00        		.byte	0
 21523 06fc 41        		.byte	65
 21524 06fd 7F        		.byte	127
 21525 06fe 40        		.byte	64
 21526 06ff 00        		.byte	0
 21527 0700 7C        		.byte	124
 21528 0701 04        		.byte	4
 21529 0702 18        		.byte	24
 21530 0703 04        		.byte	4
 21531 0704 78        		.byte	120
 21532 0705 7C        		.byte	124
 21533 0706 08        		.byte	8
 21534 0707 04        		.byte	4
 21535 0708 04        		.byte	4
 21536 0709 78        		.byte	120
 21537 070a 38        		.byte	56
 21538 070b 44        		.byte	68
 21539 070c 44        		.byte	68
 21540 070d 44        		.byte	68
 21541 070e 38        		.byte	56
 21542 070f 7C        		.byte	124
 21543 0710 14        		.byte	20
 21544 0711 14        		.byte	20
 21545 0712 14        		.byte	20
 21546 0713 08        		.byte	8
 21547 0714 08        		.byte	8
 21548 0715 14        		.byte	20
 21549 0716 14        		.byte	20
 21550 0717 18        		.byte	24
 21551 0718 7C        		.byte	124
 21552 0719 7C        		.byte	124
 21553 071a 08        		.byte	8
 21554 071b 04        		.byte	4
 21555 071c 04        		.byte	4
 21556 071d 08        		.byte	8
 21557 071e 48        		.byte	72
 21558 071f 54        		.byte	84
 21559 0720 54        		.byte	84
 21560 0721 54        		.byte	84
 21561 0722 20        		.byte	32
 21562 0723 04        		.byte	4
 21563 0724 3F        		.byte	63
 21564 0725 44        		.byte	68
 21565 0726 40        		.byte	64
 21566 0727 20        		.byte	32
 21567 0728 3C        		.byte	60
 21568 0729 40        		.byte	64
 21569 072a 40        		.byte	64
 21570 072b 20        		.byte	32
 21571 072c 7C        		.byte	124
 21572 072d 1C        		.byte	28
 21573 072e 20        		.byte	32
 21574 072f 40        		.byte	64
 21575 0730 20        		.byte	32
 21576 0731 1C        		.byte	28
 21577 0732 3C        		.byte	60
 21578 0733 40        		.byte	64
 21579 0734 30        		.byte	48
 21580 0735 40        		.byte	64
 21581 0736 3C        		.byte	60
 21582 0737 44        		.byte	68
 21583 0738 28        		.byte	40
 21584 0739 10        		.byte	16
 21585 073a 28        		.byte	40
 21586 073b 44        		.byte	68
 21587 073c 0C        		.byte	12
 21588 073d 50        		.byte	80
 21589 073e 50        		.byte	80
 21590 073f 50        		.byte	80
 21591 0740 3C        		.byte	60
 21592 0741 44        		.byte	68
 21593 0742 64        		.byte	100
 21594 0743 54        		.byte	84
 21595 0744 4C        		.byte	76
 21596 0745 44        		.byte	68
 21597 0746 00        		.byte	0
 21598 0747 08        		.byte	8
 21599 0748 36        		.byte	54
 21600 0749 41        		.byte	65
 21601 074a 00        		.byte	0
 21602 074b 00        		.byte	0
 21603 074c 00        		.byte	0
 21604 074d 7F        		.byte	127
 21605 074e 00        		.byte	0
 21606 074f 00        		.byte	0
 21607 0750 00        		.byte	0
 21608 0751 41        		.byte	65
 21609 0752 36        		.byte	54
 21610 0753 08        		.byte	8
 21611 0754 00        		.byte	0
 21612 0755 08        		.byte	8
 21613 0756 08        		.byte	8
 21614 0757 2A        		.byte	42
 21615 0758 1C        		.byte	28
 21616 0759 08        		.byte	8
 21617 075a 08        		.byte	8
 21618 075b 1C        		.byte	28
 21619 075c 2A        		.byte	42
 21620 075d 08        		.byte	8
 21621 075e 08        		.byte	8
 21624               	Stat:
 21625 075f 01        		.byte	1
 21626               		.lcomm Timer1,1
 21627               		.lcomm Timer2,1
 21628               		.lcomm CardType,1
 21629               		.lcomm FatFs,2
 21630               		.lcomm Fsid,2
 21631               		.lcomm file_system_object,558
 21632               		.comm temperatureBuffer1,20,1
 21633               		.comm temperatureBuffer2,20,1
 21634               		.comm humidityBuffer1,10,1
 21635               		.comm humidityBuffer2,10,1
 21636               		.comm pressureBuffer1,10,1
 21637               		.comm pressureBuffer2,10,1
 21638               		.comm microphoneBuffer1,100,1
 21639               		.comm microphoneBuffer2,100,1
 21640               		.comm DebugBuffer,1024,1
 21641               		.comm WifiBuffer,1024,1
 21642               		.comm resp,50,1
 21643               		.comm string,50,1
 21644               		.comm time,25,1
 21645               		.comm timeUpper,10,1
 21646               		.comm timeLower,10,1
 21647               		.comm ip,20,1
 21648               		.comm timeString,15,1
 21649               		.comm connectionStatus,3,1
 21650               		.comm macAddr,20,1
 21651               		.comm Rs232Buffer,1024,1
 21652               		.comm Log_File,544,1
 21653               		.comm fileName,20,1
 21654               		.comm tmp8,1,1
 21655               		.comm tmp16,2,1
 21656               		.comm tmp32,4,1
 21657               		.comm tmpArray,20,1
 21658               		.comm CRC,4,1
 21659               		.comm displayBuffer,816,1
 21660               		.comm temp,50,1
 21661               		.comm temp2,50,1
 21662               		.comm tmp,2,1
 22775               	.Letext0:
DEFINED SYMBOLS
                            *ABS*:00000000 main.c
/var/folders/wz/wzM13vx1HuGiQAygYPOM9k+++TI/-Tmp-//ccn4C4fr.s:2      *ABS*:0000003f __SREG__
/var/folders/wz/wzM13vx1HuGiQAygYPOM9k+++TI/-Tmp-//ccn4C4fr.s:3      *ABS*:0000003e __SP_H__
/var/folders/wz/wzM13vx1HuGiQAygYPOM9k+++TI/-Tmp-//ccn4C4fr.s:4      *ABS*:0000003d __SP_L__
/var/folders/wz/wzM13vx1HuGiQAygYPOM9k+++TI/-Tmp-//ccn4C4fr.s:5      *ABS*:00000034 __CCP__
/var/folders/wz/wzM13vx1HuGiQAygYPOM9k+++TI/-Tmp-//ccn4C4fr.s:6      *ABS*:00000000 __tmp_reg__
/var/folders/wz/wzM13vx1HuGiQAygYPOM9k+++TI/-Tmp-//ccn4C4fr.s:7      *ABS*:00000001 __zero_reg__
/var/folders/wz/wzM13vx1HuGiQAygYPOM9k+++TI/-Tmp-//ccn4C4fr.s:18     .text:00000000 Debug_Init
/var/folders/wz/wzM13vx1HuGiQAygYPOM9k+++TI/-Tmp-//ccn4C4fr.s:60     .text:0000002e Debug_CharReadyToRead
/var/folders/wz/wzM13vx1HuGiQAygYPOM9k+++TI/-Tmp-//ccn4C4fr.s:20884  .bss:00000022 Debug_writeLocation
/var/folders/wz/wzM13vx1HuGiQAygYPOM9k+++TI/-Tmp-//ccn4C4fr.s:20878  .bss:00000020 Debug_readLocation
/var/folders/wz/wzM13vx1HuGiQAygYPOM9k+++TI/-Tmp-//ccn4C4fr.s:84     .text:0000004c Debug_GetByte
                            *COM*:00000400 DebugBuffer
/var/folders/wz/wzM13vx1HuGiQAygYPOM9k+++TI/-Tmp-//ccn4C4fr.s:141    .text:000000a0 Debug_SendByte
/var/folders/wz/wzM13vx1HuGiQAygYPOM9k+++TI/-Tmp-//ccn4C4fr.s:163    .text:000000b0 __vector_25
/var/folders/wz/wzM13vx1HuGiQAygYPOM9k+++TI/-Tmp-//ccn4C4fr.s:221    .text:0000011a Wifi_Init
/var/folders/wz/wzM13vx1HuGiQAygYPOM9k+++TI/-Tmp-//ccn4C4fr.s:368    .text:000001d2 Wifi_CharReadyToRead
/var/folders/wz/wzM13vx1HuGiQAygYPOM9k+++TI/-Tmp-//ccn4C4fr.s:20896  .bss:00000026 Wifi_writeLocation
                            *COM*:00000400 WifiBuffer
/var/folders/wz/wzM13vx1HuGiQAygYPOM9k+++TI/-Tmp-//ccn4C4fr.s:20890  .bss:00000024 Wifi_readLocation
/var/folders/wz/wzM13vx1HuGiQAygYPOM9k+++TI/-Tmp-//ccn4C4fr.s:413    .text:0000022c Wifi_ClearBuffer
/var/folders/wz/wzM13vx1HuGiQAygYPOM9k+++TI/-Tmp-//ccn4C4fr.s:454    .text:00000282 Wifi_GetByte
/var/folders/wz/wzM13vx1HuGiQAygYPOM9k+++TI/-Tmp-//ccn4C4fr.s:503    .text:000002c8 Wifi_SendByte
/var/folders/wz/wzM13vx1HuGiQAygYPOM9k+++TI/-Tmp-//ccn4C4fr.s:525    .text:000002d8 Dpad_Init
/var/folders/wz/wzM13vx1HuGiQAygYPOM9k+++TI/-Tmp-//ccn4C4fr.s:554    .text:000002f0 Dpad_Read
/var/folders/wz/wzM13vx1HuGiQAygYPOM9k+++TI/-Tmp-//ccn4C4fr.s:571    .text:000002fa Dpad_CheckButton
/var/folders/wz/wzM13vx1HuGiQAygYPOM9k+++TI/-Tmp-//ccn4C4fr.s:609    .text:00000322 Leds_Init
/var/folders/wz/wzM13vx1HuGiQAygYPOM9k+++TI/-Tmp-//ccn4C4fr.s:627    .text:0000032e Leds_Set
/var/folders/wz/wzM13vx1HuGiQAygYPOM9k+++TI/-Tmp-//ccn4C4fr.s:651    .text:00000344 Leds_Clear
/var/folders/wz/wzM13vx1HuGiQAygYPOM9k+++TI/-Tmp-//ccn4C4fr.s:675    .text:0000035a Leds_Toggle
/var/folders/wz/wzM13vx1HuGiQAygYPOM9k+++TI/-Tmp-//ccn4C4fr.s:699    .text:00000370 Rs232_Init
/var/folders/wz/wzM13vx1HuGiQAygYPOM9k+++TI/-Tmp-//ccn4C4fr.s:741    .text:0000039e Rs232_CharReadyToRead
/var/folders/wz/wzM13vx1HuGiQAygYPOM9k+++TI/-Tmp-//ccn4C4fr.s:20950  .bss:00000037 Rs232_writeLocation
/var/folders/wz/wzM13vx1HuGiQAygYPOM9k+++TI/-Tmp-//ccn4C4fr.s:20944  .bss:00000035 Rs232_readLocation
/var/folders/wz/wzM13vx1HuGiQAygYPOM9k+++TI/-Tmp-//ccn4C4fr.s:765    .text:000003bc Rs232_GetByte
                            *COM*:00000400 Rs232Buffer
/var/folders/wz/wzM13vx1HuGiQAygYPOM9k+++TI/-Tmp-//ccn4C4fr.s:822    .text:00000410 Rs232_SendByte
/var/folders/wz/wzM13vx1HuGiQAygYPOM9k+++TI/-Tmp-//ccn4C4fr.s:844    .text:00000420 __vector_88
/var/folders/wz/wzM13vx1HuGiQAygYPOM9k+++TI/-Tmp-//ccn4C4fr.s:901    .text:0000048a wait_ready
/var/folders/wz/wzM13vx1HuGiQAygYPOM9k+++TI/-Tmp-//ccn4C4fr.s:21626  .bss:00000053 Timer2
/var/folders/wz/wzM13vx1HuGiQAygYPOM9k+++TI/-Tmp-//ccn4C4fr.s:957    .text:000004c8 select
/var/folders/wz/wzM13vx1HuGiQAygYPOM9k+++TI/-Tmp-//ccn4C4fr.s:1010   .text:00000502 rcvr_datablock
                             .bss:00000052 Timer1
/var/folders/wz/wzM13vx1HuGiQAygYPOM9k+++TI/-Tmp-//ccn4C4fr.s:1154   .text:000005c6 xmit_datablock
/var/folders/wz/wzM13vx1HuGiQAygYPOM9k+++TI/-Tmp-//ccn4C4fr.s:1271   .text:00000664 send_cmd
/var/folders/wz/wzM13vx1HuGiQAygYPOM9k+++TI/-Tmp-//ccn4C4fr.s:1488   .text:0000077c disk_initialize
/var/folders/wz/wzM13vx1HuGiQAygYPOM9k+++TI/-Tmp-//ccn4C4fr.s:21624  .data:0000075f Stat
/var/folders/wz/wzM13vx1HuGiQAygYPOM9k+++TI/-Tmp-//ccn4C4fr.s:21627  .bss:00000054 CardType
/var/folders/wz/wzM13vx1HuGiQAygYPOM9k+++TI/-Tmp-//ccn4C4fr.s:1897   .text:00000988 disk_status
/var/folders/wz/wzM13vx1HuGiQAygYPOM9k+++TI/-Tmp-//ccn4C4fr.s:1920   .text:00000996 disk_read
/var/folders/wz/wzM13vx1HuGiQAygYPOM9k+++TI/-Tmp-//ccn4C4fr.s:2066   .text:00000a56 disk_write
/var/folders/wz/wzM13vx1HuGiQAygYPOM9k+++TI/-Tmp-//ccn4C4fr.s:2243   .text:00000b46 disk_ioctl
/var/folders/wz/wzM13vx1HuGiQAygYPOM9k+++TI/-Tmp-//ccn4C4fr.s:2883   .text:00000eec disk_timerproc
/var/folders/wz/wzM13vx1HuGiQAygYPOM9k+++TI/-Tmp-//ccn4C4fr.s:2920   .text:00000f14 get_fattime
/var/folders/wz/wzM13vx1HuGiQAygYPOM9k+++TI/-Tmp-//ccn4C4fr.s:2935   .text:00000f1e move_window
/var/folders/wz/wzM13vx1HuGiQAygYPOM9k+++TI/-Tmp-//ccn4C4fr.s:3096   .text:00001010 sync
/var/folders/wz/wzM13vx1HuGiQAygYPOM9k+++TI/-Tmp-//ccn4C4fr.s:3282   .text:0000112e get_fat
/var/folders/wz/wzM13vx1HuGiQAygYPOM9k+++TI/-Tmp-//ccn4C4fr.s:3570   .text:00001302 put_fat
/var/folders/wz/wzM13vx1HuGiQAygYPOM9k+++TI/-Tmp-//ccn4C4fr.s:3887   .text:000014da remove_chain
/var/folders/wz/wzM13vx1HuGiQAygYPOM9k+++TI/-Tmp-//ccn4C4fr.s:4056   .text:000015d0 create_chain
/var/folders/wz/wzM13vx1HuGiQAygYPOM9k+++TI/-Tmp-//ccn4C4fr.s:4377   .text:000017b6 clust2sect
/var/folders/wz/wzM13vx1HuGiQAygYPOM9k+++TI/-Tmp-//ccn4C4fr.s:4457   .text:00001830 dir_seek
/var/folders/wz/wzM13vx1HuGiQAygYPOM9k+++TI/-Tmp-//ccn4C4fr.s:4777   .text:00001a28 dir_next
/var/folders/wz/wzM13vx1HuGiQAygYPOM9k+++TI/-Tmp-//ccn4C4fr.s:5258   .text:00001d22 dir_read
/var/folders/wz/wzM13vx1HuGiQAygYPOM9k+++TI/-Tmp-//ccn4C4fr.s:5354   .text:00001d8a dir_register
/var/folders/wz/wzM13vx1HuGiQAygYPOM9k+++TI/-Tmp-//ccn4C4fr.s:5505   .text:00001e38 dir_remove
/var/folders/wz/wzM13vx1HuGiQAygYPOM9k+++TI/-Tmp-//ccn4C4fr.s:5564   .text:00001e7a get_fileinfo
/var/folders/wz/wzM13vx1HuGiQAygYPOM9k+++TI/-Tmp-//ccn4C4fr.s:5763   .text:00001f92 follow_path
/var/folders/wz/wzM13vx1HuGiQAygYPOM9k+++TI/-Tmp-//ccn4C4fr.s:6300   .text:0000223e check_fs
/var/folders/wz/wzM13vx1HuGiQAygYPOM9k+++TI/-Tmp-//ccn4C4fr.s:6454   .text:00002344 chk_mounted
/var/folders/wz/wzM13vx1HuGiQAygYPOM9k+++TI/-Tmp-//ccn4C4fr.s:21628  .bss:00000055 FatFs
/var/folders/wz/wzM13vx1HuGiQAygYPOM9k+++TI/-Tmp-//ccn4C4fr.s:21629  .bss:00000057 Fsid
/var/folders/wz/wzM13vx1HuGiQAygYPOM9k+++TI/-Tmp-//ccn4C4fr.s:7314   .text:000028fa validate
/var/folders/wz/wzM13vx1HuGiQAygYPOM9k+++TI/-Tmp-//ccn4C4fr.s:7364   .text:0000292e f_mount
/var/folders/wz/wzM13vx1HuGiQAygYPOM9k+++TI/-Tmp-//ccn4C4fr.s:7407   .text:00002958 f_open
/var/folders/wz/wzM13vx1HuGiQAygYPOM9k+++TI/-Tmp-//ccn4C4fr.s:7882   .text:00002c38 f_read
/var/folders/wz/wzM13vx1HuGiQAygYPOM9k+++TI/-Tmp-//ccn4C4fr.s:8549   .text:00003024 f_write
/var/folders/wz/wzM13vx1HuGiQAygYPOM9k+++TI/-Tmp-//ccn4C4fr.s:9314   .text:000034ac f_sync
/var/folders/wz/wzM13vx1HuGiQAygYPOM9k+++TI/-Tmp-//ccn4C4fr.s:9479   .text:0000359c f_close
/var/folders/wz/wzM13vx1HuGiQAygYPOM9k+++TI/-Tmp-//ccn4C4fr.s:9509   .text:000035b4 f_lseek
/var/folders/wz/wzM13vx1HuGiQAygYPOM9k+++TI/-Tmp-//ccn4C4fr.s:10205  .text:00003a10 f_opendir
/var/folders/wz/wzM13vx1HuGiQAygYPOM9k+++TI/-Tmp-//ccn4C4fr.s:10345  .text:00003ad6 f_readdir
/var/folders/wz/wzM13vx1HuGiQAygYPOM9k+++TI/-Tmp-//ccn4C4fr.s:10454  .text:00003b6c f_stat
/var/folders/wz/wzM13vx1HuGiQAygYPOM9k+++TI/-Tmp-//ccn4C4fr.s:10545  .text:00003bea f_getfree
/var/folders/wz/wzM13vx1HuGiQAygYPOM9k+++TI/-Tmp-//ccn4C4fr.s:10926  .text:00003e36 f_truncate
/var/folders/wz/wzM13vx1HuGiQAygYPOM9k+++TI/-Tmp-//ccn4C4fr.s:11117  .text:00003f50 f_unlink
/var/folders/wz/wzM13vx1HuGiQAygYPOM9k+++TI/-Tmp-//ccn4C4fr.s:11338  .text:00004084 f_mkdir
/var/folders/wz/wzM13vx1HuGiQAygYPOM9k+++TI/-Tmp-//ccn4C4fr.s:11854  .text:00004376 f_chmod
/var/folders/wz/wzM13vx1HuGiQAygYPOM9k+++TI/-Tmp-//ccn4C4fr.s:11959  .text:00004400 f_utime
/var/folders/wz/wzM13vx1HuGiQAygYPOM9k+++TI/-Tmp-//ccn4C4fr.s:12069  .text:0000449a f_rename
/var/folders/wz/wzM13vx1HuGiQAygYPOM9k+++TI/-Tmp-//ccn4C4fr.s:12480  .text:000046e8 f_gets
/var/folders/wz/wzM13vx1HuGiQAygYPOM9k+++TI/-Tmp-//ccn4C4fr.s:12595  .text:00004784 f_putc
/var/folders/wz/wzM13vx1HuGiQAygYPOM9k+++TI/-Tmp-//ccn4C4fr.s:12656  .text:000047d0 f_puts
/var/folders/wz/wzM13vx1HuGiQAygYPOM9k+++TI/-Tmp-//ccn4C4fr.s:12716  .text:00004818 SD_Close
                            *COM*:00000220 Log_File
/var/folders/wz/wzM13vx1HuGiQAygYPOM9k+++TI/-Tmp-//ccn4C4fr.s:12732  .text:00004822 SD_Inserted
/var/folders/wz/wzM13vx1HuGiQAygYPOM9k+++TI/-Tmp-//ccn4C4fr.s:12751  .text:00004830 SD_WriteBuffer
                            *COM*:00000004 CRC
/var/folders/wz/wzM13vx1HuGiQAygYPOM9k+++TI/-Tmp-//ccn4C4fr.s:12885  .text:00004928 SD_Write32
                            *COM*:00000004 tmp32
/var/folders/wz/wzM13vx1HuGiQAygYPOM9k+++TI/-Tmp-//ccn4C4fr.s:12924  .text:0000495c SD_Write16
                            *COM*:00000002 tmp16
/var/folders/wz/wzM13vx1HuGiQAygYPOM9k+++TI/-Tmp-//ccn4C4fr.s:12950  .text:00004972 SD_Write8
                            *COM*:00000001 tmp8
/var/folders/wz/wzM13vx1HuGiQAygYPOM9k+++TI/-Tmp-//ccn4C4fr.s:12972  .text:00004984 SD_ClearCRC
/var/folders/wz/wzM13vx1HuGiQAygYPOM9k+++TI/-Tmp-//ccn4C4fr.s:12993  .text:0000499e SD_WriteCRC
/var/folders/wz/wzM13vx1HuGiQAygYPOM9k+++TI/-Tmp-//ccn4C4fr.s:13015  .text:000049bc SD_Timer_Init
/var/folders/wz/wzM13vx1HuGiQAygYPOM9k+++TI/-Tmp-//ccn4C4fr.s:13044  .text:000049da SD_Init
/var/folders/wz/wzM13vx1HuGiQAygYPOM9k+++TI/-Tmp-//ccn4C4fr.s:21630  .bss:00000059 file_system_object
/var/folders/wz/wzM13vx1HuGiQAygYPOM9k+++TI/-Tmp-//ccn4C4fr.s:13071  .text:000049f8 __vector_47
/var/folders/wz/wzM13vx1HuGiQAygYPOM9k+++TI/-Tmp-//ccn4C4fr.s:13122  .text:00004a48 CCPWrite
/var/folders/wz/wzM13vx1HuGiQAygYPOM9k+++TI/-Tmp-//ccn4C4fr.s:13171  .text:00004a72 display_sendCommand
/var/folders/wz/wzM13vx1HuGiQAygYPOM9k+++TI/-Tmp-//ccn4C4fr.s:13199  .text:00004a8a display_sendData
/var/folders/wz/wzM13vx1HuGiQAygYPOM9k+++TI/-Tmp-//ccn4C4fr.s:13227  .text:00004aa2 display_setCursor
/var/folders/wz/wzM13vx1HuGiQAygYPOM9k+++TI/-Tmp-//ccn4C4fr.s:13305  .text:00004af2 display_writeBufferToScreen
                            *COM*:00000330 displayBuffer
/var/folders/wz/wzM13vx1HuGiQAygYPOM9k+++TI/-Tmp-//ccn4C4fr.s:13404  .text:00004b7a display_clearPage
/var/folders/wz/wzM13vx1HuGiQAygYPOM9k+++TI/-Tmp-//ccn4C4fr.s:13445  .text:00004bac display_clearBuffer
/var/folders/wz/wzM13vx1HuGiQAygYPOM9k+++TI/-Tmp-//ccn4C4fr.s:13493  .text:00004bea display_init
/var/folders/wz/wzM13vx1HuGiQAygYPOM9k+++TI/-Tmp-//ccn4C4fr.s:13888  .text:00004d96 display_putString
/var/folders/wz/wzM13vx1HuGiQAygYPOM9k+++TI/-Tmp-//ccn4C4fr.s:14203  .text:00004f5e display_drawPixel
/var/folders/wz/wzM13vx1HuGiQAygYPOM9k+++TI/-Tmp-//ccn4C4fr.s:14287  .text:00004fde swap
/var/folders/wz/wzM13vx1HuGiQAygYPOM9k+++TI/-Tmp-//ccn4C4fr.s:14311  .text:00004fec display_drawLine
/var/folders/wz/wzM13vx1HuGiQAygYPOM9k+++TI/-Tmp-//ccn4C4fr.s:14461  .text:00005086 display_drawRectangle
/var/folders/wz/wzM13vx1HuGiQAygYPOM9k+++TI/-Tmp-//ccn4C4fr.s:14693  .text:000051c2 Time_Init
/var/folders/wz/wzM13vx1HuGiQAygYPOM9k+++TI/-Tmp-//ccn4C4fr.s:14738  .text:000051fc Time_Set
/var/folders/wz/wzM13vx1HuGiQAygYPOM9k+++TI/-Tmp-//ccn4C4fr.s:20956  .bss:00000039 UNIX_time
/var/folders/wz/wzM13vx1HuGiQAygYPOM9k+++TI/-Tmp-//ccn4C4fr.s:14756  .text:0000520e Time_Get32BitTimer
/var/folders/wz/wzM13vx1HuGiQAygYPOM9k+++TI/-Tmp-//ccn4C4fr.s:14820  .text:0000525e __vector_77
/var/folders/wz/wzM13vx1HuGiQAygYPOM9k+++TI/-Tmp-//ccn4C4fr.s:14861  .text:000052a8 Sensors_Init
/var/folders/wz/wzM13vx1HuGiQAygYPOM9k+++TI/-Tmp-//ccn4C4fr.s:14945  .text:00005312 Sensors_ReadTemperature
/var/folders/wz/wzM13vx1HuGiQAygYPOM9k+++TI/-Tmp-//ccn4C4fr.s:15004  .text:00005364 Sensors_ReadHumidity
/var/folders/wz/wzM13vx1HuGiQAygYPOM9k+++TI/-Tmp-//ccn4C4fr.s:15047  .text:0000539c Sensors_ReadPressure
/var/folders/wz/wzM13vx1HuGiQAygYPOM9k+++TI/-Tmp-//ccn4C4fr.s:15090  .text:000053d4 Sensors_ResetTemperatureBuffers
/var/folders/wz/wzM13vx1HuGiQAygYPOM9k+++TI/-Tmp-//ccn4C4fr.s:20993  .bss:00000041 temperatureBufferCounter
/var/folders/wz/wzM13vx1HuGiQAygYPOM9k+++TI/-Tmp-//ccn4C4fr.s:20986  .data:000004ad temperatureBufferToWriteTo
/var/folders/wz/wzM13vx1HuGiQAygYPOM9k+++TI/-Tmp-//ccn4C4fr.s:20974  .bss:0000003f okToSendTemperatureBuffer1
/var/folders/wz/wzM13vx1HuGiQAygYPOM9k+++TI/-Tmp-//ccn4C4fr.s:20980  .bss:00000040 okToSendTemperatureBuffer2
/var/folders/wz/wzM13vx1HuGiQAygYPOM9k+++TI/-Tmp-//ccn4C4fr.s:15111  .text:000053e8 Sensors_ResetPressureBuffers
/var/folders/wz/wzM13vx1HuGiQAygYPOM9k+++TI/-Tmp-//ccn4C4fr.s:21018  .bss:00000044 pressureBufferCounter
/var/folders/wz/wzM13vx1HuGiQAygYPOM9k+++TI/-Tmp-//ccn4C4fr.s:21011  .data:000004ae pressureBufferToWriteTo
/var/folders/wz/wzM13vx1HuGiQAygYPOM9k+++TI/-Tmp-//ccn4C4fr.s:20999  .bss:00000042 okToSendPressureBuffer1
/var/folders/wz/wzM13vx1HuGiQAygYPOM9k+++TI/-Tmp-//ccn4C4fr.s:21005  .bss:00000043 okToSendPressureBuffer2
/var/folders/wz/wzM13vx1HuGiQAygYPOM9k+++TI/-Tmp-//ccn4C4fr.s:15132  .text:000053fc Sensors_ResetHumidityBuffers
/var/folders/wz/wzM13vx1HuGiQAygYPOM9k+++TI/-Tmp-//ccn4C4fr.s:21043  .bss:00000047 humidityBufferCounter
/var/folders/wz/wzM13vx1HuGiQAygYPOM9k+++TI/-Tmp-//ccn4C4fr.s:21036  .data:000004af humidityBufferToWriteTo
/var/folders/wz/wzM13vx1HuGiQAygYPOM9k+++TI/-Tmp-//ccn4C4fr.s:21024  .bss:00000045 okToSendHumidityBuffer1
/var/folders/wz/wzM13vx1HuGiQAygYPOM9k+++TI/-Tmp-//ccn4C4fr.s:21030  .bss:00000046 okToSendHumidityBuffer2
/var/folders/wz/wzM13vx1HuGiQAygYPOM9k+++TI/-Tmp-//ccn4C4fr.s:15153  .text:00005410 __vector_83
/var/folders/wz/wzM13vx1HuGiQAygYPOM9k+++TI/-Tmp-//ccn4C4fr.s:20962  .bss:0000003d recording
/var/folders/wz/wzM13vx1HuGiQAygYPOM9k+++TI/-Tmp-//ccn4C4fr.s:21080  .bss:0000004d rtcBlockCounter
/var/folders/wz/wzM13vx1HuGiQAygYPOM9k+++TI/-Tmp-//ccn4C4fr.s:21074  .bss:0000004c okToSendRTCBlock
/var/folders/wz/wzM13vx1HuGiQAygYPOM9k+++TI/-Tmp-//ccn4C4fr.s:20830  .bss:00000000 temperatureSampleStartTime1
                            *COM*:00000014 temperatureBuffer1
/var/folders/wz/wzM13vx1HuGiQAygYPOM9k+++TI/-Tmp-//ccn4C4fr.s:20836  .bss:00000004 temperatureSampleStartTime2
                            *COM*:00000014 temperatureBuffer2
/var/folders/wz/wzM13vx1HuGiQAygYPOM9k+++TI/-Tmp-//ccn4C4fr.s:20842  .bss:00000008 humiditySampleStartTime1
                            *COM*:0000000a humidityBuffer1
/var/folders/wz/wzM13vx1HuGiQAygYPOM9k+++TI/-Tmp-//ccn4C4fr.s:20848  .bss:0000000c humiditySampleStartTime2
                            *COM*:0000000a humidityBuffer2
/var/folders/wz/wzM13vx1HuGiQAygYPOM9k+++TI/-Tmp-//ccn4C4fr.s:20854  .bss:00000010 pressureSampleStartTime1
                            *COM*:0000000a pressureBuffer1
/var/folders/wz/wzM13vx1HuGiQAygYPOM9k+++TI/-Tmp-//ccn4C4fr.s:20860  .bss:00000014 pressureSampleStartTime2
                            *COM*:0000000a pressureBuffer2
/var/folders/wz/wzM13vx1HuGiQAygYPOM9k+++TI/-Tmp-//ccn4C4fr.s:15459  .text:0000567a Clock_Init
/var/folders/wz/wzM13vx1HuGiQAygYPOM9k+++TI/-Tmp-//ccn4C4fr.s:15534  .text:000056d4 Disable_JTAG
/var/folders/wz/wzM13vx1HuGiQAygYPOM9k+++TI/-Tmp-//ccn4C4fr.s:15588  .text:00005704 DMA_Init
/var/folders/wz/wzM13vx1HuGiQAygYPOM9k+++TI/-Tmp-//ccn4C4fr.s:15640  .text:0000573e Interrupt_Init
/var/folders/wz/wzM13vx1HuGiQAygYPOM9k+++TI/-Tmp-//ccn4C4fr.s:15664  .text:0000574c SD_BackroundWriter_Init
/var/folders/wz/wzM13vx1HuGiQAygYPOM9k+++TI/-Tmp-//ccn4C4fr.s:15693  .text:0000576a SD_WriteRTCBlock
/var/folders/wz/wzM13vx1HuGiQAygYPOM9k+++TI/-Tmp-//ccn4C4fr.s:15782  .text:000057fa Rs232_To_Debug
/var/folders/wz/wzM13vx1HuGiQAygYPOM9k+++TI/-Tmp-//ccn4C4fr.s:15823  .text:0000582a Debug_To_Wifi
/var/folders/wz/wzM13vx1HuGiQAygYPOM9k+++TI/-Tmp-//ccn4C4fr.s:15888  .text:00005876 SD_MakeFileName
                            *COM*:00000014 fileName
/var/folders/wz/wzM13vx1HuGiQAygYPOM9k+++TI/-Tmp-//ccn4C4fr.s:15923  .text:000058a2 SD_WriteString
/var/folders/wz/wzM13vx1HuGiQAygYPOM9k+++TI/-Tmp-//ccn4C4fr.s:16052  .text:00005988 SD_WriteMicrophoneBuffer
                            *COM*:00000064 microphoneBuffer1
                            *COM*:00000064 microphoneBuffer2
/var/folders/wz/wzM13vx1HuGiQAygYPOM9k+++TI/-Tmp-//ccn4C4fr.s:16191  .text:00005a6a SD_WritePressureBuffer
/var/folders/wz/wzM13vx1HuGiQAygYPOM9k+++TI/-Tmp-//ccn4C4fr.s:16330  .text:00005b4c SD_WriteHumidityBuffer
/var/folders/wz/wzM13vx1HuGiQAygYPOM9k+++TI/-Tmp-//ccn4C4fr.s:16471  .text:00005c2e SD_WriteTemperatureBuffer
/var/folders/wz/wzM13vx1HuGiQAygYPOM9k+++TI/-Tmp-//ccn4C4fr.s:16608  .text:00005d14 Rs232_SendString
/var/folders/wz/wzM13vx1HuGiQAygYPOM9k+++TI/-Tmp-//ccn4C4fr.s:16690  .text:00005d68 Wifi_SendString
/var/folders/wz/wzM13vx1HuGiQAygYPOM9k+++TI/-Tmp-//ccn4C4fr.s:16778  .text:00005dbc Wifi_EnterCMDMode
/var/folders/wz/wzM13vx1HuGiQAygYPOM9k+++TI/-Tmp-//ccn4C4fr.s:16937  .text:00005e82 Debug_SendString
/var/folders/wz/wzM13vx1HuGiQAygYPOM9k+++TI/-Tmp-//ccn4C4fr.s:17037  .text:00005ed6 __vector_53
/var/folders/wz/wzM13vx1HuGiQAygYPOM9k+++TI/-Tmp-//ccn4C4fr.s:21049  .bss:00000048 okToSendMicrophoneBuffer1
/var/folders/wz/wzM13vx1HuGiQAygYPOM9k+++TI/-Tmp-//ccn4C4fr.s:21055  .bss:00000049 okToSendMicrophoneBuffer2
                            *COM*:00000032 temp
/var/folders/wz/wzM13vx1HuGiQAygYPOM9k+++TI/-Tmp-//ccn4C4fr.s:17249  .text:00006066 SD_Open
/var/folders/wz/wzM13vx1HuGiQAygYPOM9k+++TI/-Tmp-//ccn4C4fr.s:17298  .text:00006090 Read_config_file
/var/folders/wz/wzM13vx1HuGiQAygYPOM9k+++TI/-Tmp-//ccn4C4fr.s:21104  .data:00000547 ssid
/var/folders/wz/wzM13vx1HuGiQAygYPOM9k+++TI/-Tmp-//ccn4C4fr.s:21130  .bss:00000051 ssidRead
/var/folders/wz/wzM13vx1HuGiQAygYPOM9k+++TI/-Tmp-//ccn4C4fr.s:21092  .data:000004e3 phrase
/var/folders/wz/wzM13vx1HuGiQAygYPOM9k+++TI/-Tmp-//ccn4C4fr.s:21118  .bss:0000004f phraseRead
/var/folders/wz/wzM13vx1HuGiQAygYPOM9k+++TI/-Tmp-//ccn4C4fr.s:21098  .data:00000515 port
/var/folders/wz/wzM13vx1HuGiQAygYPOM9k+++TI/-Tmp-//ccn4C4fr.s:21124  .bss:00000050 portRead
/var/folders/wz/wzM13vx1HuGiQAygYPOM9k+++TI/-Tmp-//ccn4C4fr.s:21086  .data:000004b1 auth
/var/folders/wz/wzM13vx1HuGiQAygYPOM9k+++TI/-Tmp-//ccn4C4fr.s:21112  .bss:0000004e authRead
/var/folders/wz/wzM13vx1HuGiQAygYPOM9k+++TI/-Tmp-//ccn4C4fr.s:17589  .text:000061e8 SD_StartLogFile
                            *COM*:00000014 macAddr
/var/folders/wz/wzM13vx1HuGiQAygYPOM9k+++TI/-Tmp-//ccn4C4fr.s:17777  .text:00006330 Wifi_SendCommand
/var/folders/wz/wzM13vx1HuGiQAygYPOM9k+++TI/-Tmp-//ccn4C4fr.s:20902  .bss:00000028 respLen
/var/folders/wz/wzM13vx1HuGiQAygYPOM9k+++TI/-Tmp-//ccn4C4fr.s:20908  .bss:00000029 toSendLen
/var/folders/wz/wzM13vx1HuGiQAygYPOM9k+++TI/-Tmp-//ccn4C4fr.s:20914  .bss:0000002a okLen
                            *COM*:00000032 resp
/var/folders/wz/wzM13vx1HuGiQAygYPOM9k+++TI/-Tmp-//ccn4C4fr.s:18109  .text:0000650c Wifi_GetMac
/var/folders/wz/wzM13vx1HuGiQAygYPOM9k+++TI/-Tmp-//ccn4C4fr.s:18242  .text:00006594 Wifi_Connected
                            *COM*:00000003 connectionStatus
/var/folders/wz/wzM13vx1HuGiQAygYPOM9k+++TI/-Tmp-//ccn4C4fr.s:20938  .bss:00000034 connected
/var/folders/wz/wzM13vx1HuGiQAygYPOM9k+++TI/-Tmp-//ccn4C4fr.s:18376  .text:00006624 Wifi_ExitCMDMode
/var/folders/wz/wzM13vx1HuGiQAygYPOM9k+++TI/-Tmp-//ccn4C4fr.s:18399  .text:00006636 f_printf
/var/folders/wz/wzM13vx1HuGiQAygYPOM9k+++TI/-Tmp-//ccn4C4fr.s:18889  .text:000068e8 Wifi_GetTime
                            *COM*:00000032 string
                            *COM*:0000000f timeString
                            *COM*:0000000a timeUpper
                            *COM*:0000000a timeLower
/var/folders/wz/wzM13vx1HuGiQAygYPOM9k+++TI/-Tmp-//ccn4C4fr.s:20926  .bss:0000002c time_secs
/var/folders/wz/wzM13vx1HuGiQAygYPOM9k+++TI/-Tmp-//ccn4C4fr.s:19164  .text:00006a2a Config_Wifi
/var/folders/wz/wzM13vx1HuGiQAygYPOM9k+++TI/-Tmp-//ccn4C4fr.s:21135  .data:00000579 System5x7
/var/folders/wz/wzM13vx1HuGiQAygYPOM9k+++TI/-Tmp-//ccn4C4fr.s:20052  .text:00006dd2 main
/var/folders/wz/wzM13vx1HuGiQAygYPOM9k+++TI/-Tmp-//ccn4C4fr.s:20866  .bss:00000018 microphoneSampleStartTime1
/var/folders/wz/wzM13vx1HuGiQAygYPOM9k+++TI/-Tmp-//ccn4C4fr.s:20872  .bss:0000001c microphoneSampleStartTime2
/var/folders/wz/wzM13vx1HuGiQAygYPOM9k+++TI/-Tmp-//ccn4C4fr.s:20920  .bss:0000002b timeLength
/var/folders/wz/wzM13vx1HuGiQAygYPOM9k+++TI/-Tmp-//ccn4C4fr.s:20932  .bss:00000030 time_nanos
/var/folders/wz/wzM13vx1HuGiQAygYPOM9k+++TI/-Tmp-//ccn4C4fr.s:20968  .bss:0000003e requestToStopRecording
/var/folders/wz/wzM13vx1HuGiQAygYPOM9k+++TI/-Tmp-//ccn4C4fr.s:21061  .data:000004b0 microphoneBufferToWriteTo
/var/folders/wz/wzM13vx1HuGiQAygYPOM9k+++TI/-Tmp-//ccn4C4fr.s:21068  .bss:0000004a microphoneBufferCounter
                            *COM*:00000019 time
                            *COM*:00000014 ip
                            *COM*:00000014 tmpArray
                            *COM*:00000032 temp2
                            *COM*:00000002 tmp

UNDEFINED SYMBOLS
__mulsi3
__udivmodsi4
ltoa
strcat
strstr
strtok
atol
__do_copy_data
__do_clear_bss
