   1               		.file	"mainChestStrap.c"
   2               	__SREG__ = 0x3f
   3               	__SP_H__ = 0x3e
   4               	__SP_L__ = 0x3d
   5               	__CCP__  = 0x34
   6               	__tmp_reg__ = 0
   7               	__zero_reg__ = 1
  15               	.Ltext0:
  16               	.global	CCPWrite
  18               	CCPWrite:
  19               	.LFB7:
  20               	.LM1:
  21               	.LVL0:
  22 0000 0F93      		push r16
  23 0002 DF93      		push r29
  24 0004 CF93      		push r28
  25 0006 0F92      		push __tmp_reg__
  26 0008 CDB7      		in r28,__SP_L__
  27 000a DEB7      		in r29,__SP_H__
  28               	/* prologue: function */
  29               	/* frame size = 1 */
  30               	.LM2:
  31 000c 2FB7      		in r18,__SREG__
  32               	.LVL1:
  33 000e 2983      		std Y+1,r18
  34               	.LM3:
  35               	/* #APP */
  36               	 ;  80 "mainChestStrap.h" 1
  37 0010 F894      		cli
  38               	 ;  0 "" 2
  39               	.LM4:
  40               	/* #NOAPP */
  41 0012 1BBE      		out 59-0,__zero_reg__
  42               	.LM5:
  43               	/* #APP */
  44               	 ;  102 "mainChestStrap.h" 1
  45 0014 FC01      		movw r30,  r24
  46 0016 08ED      		ldi  r16,  216
  47 0018 04BF      		out   52, r16
  48 001a 6083      		st     Z,  r22
  49               		
  50               	 ;  0 "" 2
  51               	.LM6:
  52               	/* #NOAPP */
  53 001c 8981      		ldd r24,Y+1
  54               	.LVL2:
  55 001e 8FBF      		out __SREG__,r24
  56               	/* epilogue start */
  57               	.LM7:
  58 0020 0F90      		pop __tmp_reg__
  59 0022 CF91      		pop r28
  60 0024 DF91      		pop r29
  61 0026 0F91      		pop r16
  62 0028 0895      		ret
  63               	.LFE7:
  65               	.global	Debug_CharReadyToRead
  67               	Debug_CharReadyToRead:
  68               	.LFB10:
  69               	.LM8:
  70               	/* prologue: function */
  71               	/* frame size = 0 */
  72               	.LM9:
  73 002a 2091 2D01 		lds r18,301
  74 002e 922F      		mov r25,r18
  75 0030 80E0      		ldi r24,lo8(0)
  76 0032 8093 0000 		sts Debug_writeLocation,r24
  77 0036 9093 0000 		sts (Debug_writeLocation)+1,r25
  78               	.LM10:
  79 003a 8091 0000 		lds r24,Debug_writeLocation
  80 003e 9091 0000 		lds r25,(Debug_writeLocation)+1
  81 0042 2091 2C01 		lds r18,300
  82 0046 820F      		add r24,r18
  83 0048 911D      		adc r25,__zero_reg__
  84 004a 8093 0000 		sts Debug_writeLocation,r24
  85 004e 9093 0000 		sts (Debug_writeLocation)+1,r25
  86               	.LM11:
  87 0052 8091 0000 		lds r24,Debug_writeLocation
  88 0056 9091 0000 		lds r25,(Debug_writeLocation)+1
  89 005a 8050      		subi r24,lo8(DebugBuffer)
  90 005c 9040      		sbci r25,hi8(DebugBuffer)
  91 005e 8093 0000 		sts Debug_writeLocation,r24
  92 0062 9093 0000 		sts (Debug_writeLocation)+1,r25
  93               	.LM12:
  94 0066 2091 0000 		lds r18,Debug_writeLocation
  95 006a 3091 0000 		lds r19,(Debug_writeLocation)+1
  96 006e 8091 0000 		lds r24,Debug_readLocation
  97 0072 9091 0000 		lds r25,(Debug_readLocation)+1
  98 0076 40E0      		ldi r20,lo8(0)
  99 0078 2817      		cp r18,r24
 100 007a 3907      		cpc r19,r25
 101 007c 01F0      		breq .L4
 102 007e 41E0      		ldi r20,lo8(1)
 103               	.L4:
 104               	.LM13:
 105 0080 842F      		mov r24,r20
 106               	/* epilogue start */
 107 0082 0895      		ret
 108               	.LFE10:
 110               	.global	Debug_ClearBuffer
 112               	Debug_ClearBuffer:
 113               	.LFB9:
 114               	.LM14:
 115               	/* prologue: function */
 116               	/* frame size = 0 */
 117               	.LM15:
 118 0084 0E94 0000 		call Debug_CharReadyToRead
 119 0088 8823      		tst r24
 120 008a 01F0      		breq .L8
 121               	.LM16:
 122 008c 2091 2D01 		lds r18,301
 123 0090 922F      		mov r25,r18
 124 0092 80E0      		ldi r24,lo8(0)
 125 0094 8093 0000 		sts Debug_writeLocation,r24
 126 0098 9093 0000 		sts (Debug_writeLocation)+1,r25
 127               	.LM17:
 128 009c 8091 0000 		lds r24,Debug_writeLocation
 129 00a0 9091 0000 		lds r25,(Debug_writeLocation)+1
 130 00a4 2091 2C01 		lds r18,300
 131 00a8 820F      		add r24,r18
 132 00aa 911D      		adc r25,__zero_reg__
 133 00ac 8093 0000 		sts Debug_writeLocation,r24
 134 00b0 9093 0000 		sts (Debug_writeLocation)+1,r25
 135               	.LM18:
 136 00b4 8091 0000 		lds r24,Debug_writeLocation
 137 00b8 9091 0000 		lds r25,(Debug_writeLocation)+1
 138 00bc 8050      		subi r24,lo8(DebugBuffer)
 139 00be 9040      		sbci r25,hi8(DebugBuffer)
 140 00c0 8093 0000 		sts Debug_writeLocation,r24
 141 00c4 9093 0000 		sts (Debug_writeLocation)+1,r25
 142               	.LM19:
 143 00c8 8091 0000 		lds r24,Debug_writeLocation
 144 00cc 9091 0000 		lds r25,(Debug_writeLocation)+1
 145 00d0 8093 0000 		sts Debug_readLocation,r24
 146 00d4 9093 0000 		sts (Debug_readLocation)+1,r25
 147               	.L8:
 148 00d8 0895      		ret
 149               	.LFE9:
 151               	.global	Debug_Init
 153               	Debug_Init:
 154               	.LFB8:
 155               	.LM20:
 156               	.LVL3:
 157               	/* prologue: function */
 158               	/* frame size = 0 */
 159 00da AB01      		movw r20,r22
 160 00dc BC01      		movw r22,r24
 161               	.LM21:
 162 00de E0E0      		ldi r30,lo8(256)
 163 00e0 F1E0      		ldi r31,hi8(256)
 164 00e2 8091 0001 		lds r24,256
 165 00e6 8068      		ori r24,lo8(-128)
 166 00e8 8093 0001 		sts 256,r24
 167               	.LM22:
 168 00ec 8091 2201 		lds r24,290
 169 00f0 8560      		ori r24,lo8(5)
 170 00f2 82A3      		std Z+34,r24
 171               	.LM23:
 172 00f4 8BE4      		ldi r24,lo8(75)
 173 00f6 83A3      		std Z+35,r24
 174               	.LM24:
 175 00f8 84E6      		ldi r24,lo8(100)
 176 00fa 90E0      		ldi r25,hi8(100)
 177 00fc 84A3      		std Z+36,r24
 178 00fe 95A3      		std Z+37,r25
 179               	.LM25:
 180 0100 16A2      		std Z+38,__zero_reg__
 181               	.LM26:
 182 0102 80EA      		ldi r24,lo8(-96)
 183 0104 80A7      		std Z+40,r24
 184               	.LM27:
 185 0106 28E0      		ldi r18,lo8(8)
 186 0108 21A7      		std Z+41,r18
 187               	.LM28:
 188 010a 12A6      		std Z+42,__zero_reg__
 189               	.LM29:
 190 010c 80E0      		ldi r24,lo8(DebugBuffer)
 191 010e 90E0      		ldi r25,hi8(DebugBuffer)
 192 0110 84A7      		std Z+44,r24
 193               	.LM30:
 194 0112 95A7      		std Z+45,r25
 195               	.LM31:
 196 0114 16A6      		std Z+46,__zero_reg__
 197               	.LM32:
 198 0116 8091 2001 		lds r24,288
 199 011a 846A      		ori r24,lo8(-92)
 200 011c 80A3      		std Z+32,r24
 201               	.LM33:
 202 011e E0E4      		ldi r30,lo8(1600)
 203 0120 F6E0      		ldi r31,hi8(1600)
 204 0122 2183      		std Z+1,r18
 205               	.LM34:
 206 0124 84E0      		ldi r24,lo8(4)
 207 0126 8283      		std Z+2,r24
 208               	.LM35:
 209 0128 91E0      		ldi r25,lo8(1)
 210 012a 9283      		std Z+2,r25
 211               	.LM36:
 212 012c 82E0      		ldi r24,lo8(2)
 213 012e 8183      		std Z+1,r24
 214               	.LM37:
 215 0130 8583      		std Z+5,r24
 216               	.LM38:
 217 0132 E0EA      		ldi r30,lo8(2208)
 218 0134 F8E0      		ldi r31,hi8(2208)
 219 0136 83E0      		ldi r24,lo8(3)
 220 0138 8583      		std Z+5,r24
 221               	.LM39:
 222 013a 4038      		cpi r20,lo8(9600)
 223 013c 25E2      		ldi r18,hi8(9600)
 224 013e 5207      		cpc r21,r18
 225 0140 20E0      		ldi r18,hlo8(9600)
 226 0142 6207      		cpc r22,r18
 227 0144 20E0      		ldi r18,hhi8(9600)
 228 0146 7207      		cpc r23,r18
 229 0148 01F4      		brne .L10
 230               	.LVL4:
 231               	.LM40:
 232 014a 8FE5      		ldi r24,lo8(95)
 233 014c 00C0      		rjmp .L17
 234               	.L10:
 235               	.LM41:
 236 014e 4030      		cpi r20,lo8(115200)
 237 0150 22EC      		ldi r18,hi8(115200)
 238 0152 5207      		cpc r21,r18
 239 0154 21E0      		ldi r18,hlo8(115200)
 240 0156 6207      		cpc r22,r18
 241 0158 20E0      		ldi r18,hhi8(115200)
 242 015a 7207      		cpc r23,r18
 243 015c 01F4      		brne .L12
 244               	.LM42:
 245 015e 87E0      		ldi r24,lo8(7)
 246               	.L17:
 247 0160 8683      		std Z+6,r24
 248 0162 00C0      		rjmp .L16
 249               	.L12:
 250               	.LM43:
 251 0164 4030      		cpi r20,lo8(230400)
 252 0166 24E8      		ldi r18,hi8(230400)
 253 0168 5207      		cpc r21,r18
 254 016a 23E0      		ldi r18,hlo8(230400)
 255 016c 6207      		cpc r22,r18
 256 016e 20E0      		ldi r18,hhi8(230400)
 257 0170 7207      		cpc r23,r18
 258 0172 01F0      		breq .L17
 259               	.L13:
 260               	.LM44:
 261 0174 4030      		cpi r20,lo8(460800)
 262 0176 88E0      		ldi r24,hi8(460800)
 263 0178 5807      		cpc r21,r24
 264 017a 87E0      		ldi r24,hlo8(460800)
 265 017c 6807      		cpc r22,r24
 266 017e 80E0      		ldi r24,hhi8(460800)
 267 0180 7807      		cpc r23,r24
 268 0182 01F4      		brne .L14
 269               	.LM45:
 270 0184 9683      		std Z+6,r25
 271 0186 00C0      		rjmp .L16
 272               	.L14:
 273               	.LM46:
 274 0188 4050      		subi r20,lo8(921600)
 275 018a 5041      		sbci r21,hi8(921600)
 276 018c 6E40      		sbci r22,hlo8(921600)
 277 018e 7040      		sbci r23,hhi8(921600)
 278 0190 01F4      		brne .L11
 279               	.LM47:
 280 0192 1682      		std Z+6,__zero_reg__
 281               	.L16:
 282               	.LM48:
 283 0194 1782      		std Z+7,__zero_reg__
 284               	.L11:
 285               	.LM49:
 286 0196 E0EA      		ldi r30,lo8(2208)
 287 0198 F8E0      		ldi r31,hi8(2208)
 288 019a 8091 A408 		lds r24,2212
 289 019e 8061      		ori r24,lo8(16)
 290 01a0 8483      		std Z+4,r24
 291               	.LM50:
 292 01a2 8091 A408 		lds r24,2212
 293 01a6 8860      		ori r24,lo8(8)
 294 01a8 8483      		std Z+4,r24
 295               	.LM51:
 296 01aa 0E94 0000 		call Debug_ClearBuffer
 297               	.LVL5:
 298               	/* epilogue start */
 299               	.LM52:
 300 01ae 0895      		ret
 301               	.LFE8:
 303               	.global	Debug_GetByte
 305               	Debug_GetByte:
 306               	.LFB11:
 307               	.LM53:
 308               	.LVL6:
 309               	/* prologue: function */
 310               	/* frame size = 0 */
 311               	.LM54:
 312 01b0 8823      		tst r24
 313 01b2 01F0      		breq .L19
 314               	.L23:
 315               	.LM55:
 316 01b4 0E94 0000 		call Debug_CharReadyToRead
 317               	.LVL7:
 318 01b8 8823      		tst r24
 319 01ba 01F0      		breq .L23
 320               	.LVL8:
 321               	.L19:
 322               	.LM56:
 323 01bc E091 0000 		lds r30,Debug_readLocation
 324 01c0 F091 0000 		lds r31,(Debug_readLocation)+1
 325 01c4 E050      		subi r30,lo8(-(DebugBuffer))
 326 01c6 F040      		sbci r31,hi8(-(DebugBuffer))
 327 01c8 E081      		ld r30,Z
 328               	.LVL9:
 329               	.LM57:
 330 01ca 8091 0000 		lds r24,Debug_readLocation
 331 01ce 9091 0000 		lds r25,(Debug_readLocation)+1
 332               	.LVL10:
 333 01d2 0196      		adiw r24,1
 334 01d4 8093 0000 		sts Debug_readLocation,r24
 335 01d8 9093 0000 		sts (Debug_readLocation)+1,r25
 336               	.LM58:
 337 01dc 8091 0000 		lds r24,Debug_readLocation
 338 01e0 9091 0000 		lds r25,(Debug_readLocation)+1
 339 01e4 8436      		cpi r24,100
 340 01e6 9105      		cpc r25,__zero_reg__
 341 01e8 00F0      		brlo .L21
 342               	.LM59:
 343 01ea 1092 0000 		sts Debug_readLocation,__zero_reg__
 344 01ee 1092 0000 		sts (Debug_readLocation)+1,__zero_reg__
 345               	.L21:
 346               	.LM60:
 347 01f2 8E2F      		mov r24,r30
 348               	/* epilogue start */
 349 01f4 0895      		ret
 350               	.LFE11:
 352               	.global	Debug_SendByte
 354               	Debug_SendByte:
 355               	.LFB12:
 356               	.LM61:
 357               	.LVL11:
 358               	/* prologue: function */
 359               	/* frame size = 0 */
 360 01f6 982F      		mov r25,r24
 361               	.LVL12:
 362               	.L26:
 363               	.LM62:
 364 01f8 8091 A108 		lds r24,2209
 365 01fc 85FF      		sbrs r24,5
 366 01fe 00C0      		rjmp .L26
 367               	.L29:
 368               	.LM63:
 369 0200 8091 4806 		lds r24,1608
 370 0204 80FD      		sbrc r24,0
 371 0206 00C0      		rjmp .L29
 372               	.LM64:
 373 0208 9093 A008 		sts 2208,r25
 374               	/* epilogue start */
 375               	.LM65:
 376 020c 0895      		ret
 377               	.LFE12:
 379               	.global	Leds_Init
 381               	Leds_Init:
 382               	.LFB14:
 383               	.LM66:
 384               	.LVL13:
 385               	/* prologue: function */
 386               	/* frame size = 0 */
 387               	.LM67:
 388 020e E82F      		mov r30,r24
 389 0210 F0E0      		ldi r31,lo8(0)
 390 0212 81E0      		ldi r24,lo8(1)
 391 0214 90E0      		ldi r25,hi8(1)
 392               	.LVL14:
 393 0216 0E2E      		mov r0,r30
 394 0218 00C0      		rjmp 2f
 395 021a 880F      	1:	lsl r24
 396 021c 991F      		rol r25
 397 021e 0A94      	2:	dec r0
 398 0220 02F4      		brpl 1b
 399 0222 A0EA      		ldi r26,lo8(1696)
 400 0224 B6E0      		ldi r27,hi8(1696)
 401 0226 1196      		adiw r26,1
 402 0228 8C93      		st X,r24
 403               	.LBB485:
 404               	.LBB486:
 405               	.LM68:
 406 022a E050      		subi r30,lo8(-(ledState))
 407 022c F040      		sbci r31,hi8(-(ledState))
 408 022e 1082      		st Z,__zero_reg__
 409               	/* epilogue start */
 410               	.LBE486:
 411               	.LBE485:
 412               	.LM69:
 413 0230 0895      		ret
 414               	.LFE14:
 416               	.global	Leds_State
 418               	Leds_State:
 419               	.LFB15:
 420               	.LM70:
 421               	.LVL15:
 422               	/* prologue: function */
 423               	/* frame size = 0 */
 424               	.LM71:
 425 0232 E0E0      		ldi r30,lo8(ledState)
 426 0234 F0E0      		ldi r31,hi8(ledState)
 427 0236 E80F      		add r30,r24
 428 0238 F11D      		adc r31,__zero_reg__
 429 023a 6083      		st Z,r22
 430               	/* epilogue start */
 431               	.LM72:
 432 023c 0895      		ret
 433               	.LFE15:
 435               	.global	Leds_Set
 437               	Leds_Set:
 438               	.LFB16:
 439               	.LM73:
 440               	.LVL16:
 441               	/* prologue: function */
 442               	/* frame size = 0 */
 443               	.LM74:
 444 023e 21E0      		ldi r18,lo8(1)
 445 0240 30E0      		ldi r19,hi8(1)
 446 0242 00C0      		rjmp 2f
 447 0244 220F      	1:	lsl r18
 448 0246 331F      		rol r19
 449 0248 8A95      	2:	dec r24
 450 024a 02F4      		brpl 1b
 451 024c E0EA      		ldi r30,lo8(1696)
 452 024e F6E0      		ldi r31,hi8(1696)
 453 0250 2583      		std Z+5,r18
 454               	/* epilogue start */
 455               	.LM75:
 456 0252 0895      		ret
 457               	.LFE16:
 459               	.global	Leds_Clear
 461               	Leds_Clear:
 462               	.LFB17:
 463               	.LM76:
 464               	.LVL17:
 465               	/* prologue: function */
 466               	/* frame size = 0 */
 467               	.LM77:
 468 0254 21E0      		ldi r18,lo8(1)
 469 0256 30E0      		ldi r19,hi8(1)
 470 0258 00C0      		rjmp 2f
 471 025a 220F      	1:	lsl r18
 472 025c 331F      		rol r19
 473 025e 8A95      	2:	dec r24
 474 0260 02F4      		brpl 1b
 475 0262 E0EA      		ldi r30,lo8(1696)
 476 0264 F6E0      		ldi r31,hi8(1696)
 477 0266 2683      		std Z+6,r18
 478               	/* epilogue start */
 479               	.LM78:
 480 0268 0895      		ret
 481               	.LFE17:
 483               	.global	Leds_Toggle
 485               	Leds_Toggle:
 486               	.LFB18:
 487               	.LM79:
 488               	.LVL18:
 489               	/* prologue: function */
 490               	/* frame size = 0 */
 491               	.LM80:
 492 026a 21E0      		ldi r18,lo8(1)
 493 026c 30E0      		ldi r19,hi8(1)
 494 026e 00C0      		rjmp 2f
 495 0270 220F      	1:	lsl r18
 496 0272 331F      		rol r19
 497 0274 8A95      	2:	dec r24
 498 0276 02F4      		brpl 1b
 499 0278 E0EA      		ldi r30,lo8(1696)
 500 027a F6E0      		ldi r31,hi8(1696)
 501 027c 2783      		std Z+7,r18
 502               	/* epilogue start */
 503               	.LM81:
 504 027e 0895      		ret
 505               	.LFE18:
 507               	.global	Time_Init
 509               	Time_Init:
 510               	.LFB19:
 511               	.LM82:
 512               	/* prologue: function */
 513               	/* frame size = 0 */
 514               	.LM83:
 515 0280 88E0      		ldi r24,lo8(8)
 516 0282 8093 4008 		sts 2112,r24
 517               	.LM84:
 518 0286 80EC      		ldi r24,lo8(-64)
 519 0288 8093 8001 		sts 384,r24
 520               	.LM85:
 521 028c E0E0      		ldi r30,lo8(2048)
 522 028e F8E0      		ldi r31,hi8(2048)
 523 0290 8FEF      		ldi r24,lo8(-1)
 524 0292 9FEF      		ldi r25,hi8(-1)
 525 0294 86A3      		std Z+38,r24
 526 0296 97A3      		std Z+39,r25
 527               	.LM86:
 528 0298 8081      		ld r24,Z
 529 029a 807F      		andi r24,lo8(-16)
 530 029c 8460      		ori r24,lo8(4)
 531 029e 8083      		st Z,r24
 532               	/* epilogue start */
 533               	.LM87:
 534 02a0 0895      		ret
 535               	.LFE19:
 537               	.global	Time_Set
 539               	Time_Set:
 540               	.LFB20:
 541               	.LM88:
 542               	.LVL19:
 543 02a2 0F93      		push r16
 544 02a4 DF93      		push r29
 545 02a6 CF93      		push r28
 546 02a8 0F92      		push __tmp_reg__
 547 02aa CDB7      		in r28,__SP_L__
 548 02ac DEB7      		in r29,__SP_H__
 549               	/* prologue: function */
 550               	/* frame size = 1 */
 551 02ae AB01      		movw r20,r22
 552 02b0 BC01      		movw r22,r24
 553               	.LM89:
 554               	/* #APP */
 555               	 ;  70 "time.c" 1
 556 02b2 F894      		cli
 557               	 ;  0 "" 2
 558               	.LM90:
 559               	/* #NOAPP */
 560 02b4 82E0      		ldi r24,lo8(2)
 561 02b6 8093 F000 		sts 240,r24
 562               	.LBB487:
 563               	.LBB488:
 564               	.LM91:
 565 02ba 8FB7      		in r24,__SREG__
 566 02bc 8983      		std Y+1,r24
 567               	.LVL20:
 568               	.LM92:
 569               	/* #APP */
 570               	 ;  80 "mainChestStrap.h" 1
 571 02be F894      		cli
 572               	 ;  0 "" 2
 573               	.LM93:
 574               	/* #NOAPP */
 575 02c0 1BBE      		out 59-0,__zero_reg__
 576               	.LM94:
 577 02c2 21E0      		ldi r18,lo8(1)
 578 02c4 80EF      		ldi r24,lo8(240)
 579 02c6 90E0      		ldi r25,hi8(240)
 580               	/* #APP */
 581               	 ;  102 "mainChestStrap.h" 1
 582 02c8 FC01      		movw r30,  r24
 583 02ca 08ED      		ldi  r16,  216
 584 02cc 04BF      		out   52, r16
 585 02ce 2083      		st     Z,  r18
 586               		
 587               	 ;  0 "" 2
 588               	.LM95:
 589               	/* #NOAPP */
 590 02d0 8981      		ldd r24,Y+1
 591 02d2 8FBF      		out __SREG__,r24
 592               	.LBE488:
 593               	.LBE487:
 594               	.LM96:
 595 02d4 8091 F000 		lds r24,240
 596 02d8 8460      		ori r24,lo8(4)
 597 02da 8093 F000 		sts 240,r24
 598               	.LM97:
 599 02de 8091 F000 		lds r24,240
 600 02e2 8860      		ori r24,lo8(8)
 601 02e4 8093 F000 		sts 240,r24
 602               	.LM98:
 603 02e8 8091 2004 		lds r24,1056
 604 02ec 8E7F      		andi r24,lo8(-2)
 605 02ee 8093 2004 		sts 1056,r24
 606               	.LVL21:
 607               	.L45:
 608               	.LM99:
 609 02f2 E0E2      		ldi r30,lo8(1056)
 610 02f4 F4E0      		ldi r31,hi8(1056)
 611 02f6 8091 2104 		lds r24,1057
 612 02fa 80FD      		sbrc r24,0
 613 02fc 00C0      		rjmp .L45
 614               	.LM100:
 615 02fe 8EEF      		ldi r24,lo8(-2)
 616 0300 9FEF      		ldi r25,hi8(-2)
 617 0302 AFEF      		ldi r26,hlo8(-2)
 618 0304 BFEF      		ldi r27,hhi8(-2)
 619 0306 8087      		std Z+8,r24
 620 0308 9187      		std Z+9,r25
 621 030a A287      		std Z+10,r26
 622 030c B387      		std Z+11,r27
 623               	.LM101:
 624 030e 1486      		std Z+12,__zero_reg__
 625 0310 1586      		std Z+13,__zero_reg__
 626 0312 1686      		std Z+14,__zero_reg__
 627 0314 1786      		std Z+15,__zero_reg__
 628               	.LM102:
 629 0316 4483      		std Z+4,r20
 630 0318 5583      		std Z+5,r21
 631 031a 6683      		std Z+6,r22
 632 031c 7783      		std Z+7,r23
 633               	.LM103:
 634 031e 8091 2004 		lds r24,1056
 635 0322 8160      		ori r24,lo8(1)
 636 0324 8093 2004 		sts 1056,r24
 637               	.L46:
 638               	.LM104:
 639 0328 8091 2104 		lds r24,1057
 640 032c 80FD      		sbrc r24,0
 641 032e 00C0      		rjmp .L46
 642               	.LM105:
 643 0330 8091 2204 		lds r24,1058
 644 0334 837F      		andi r24,lo8(-13)
 645 0336 8460      		ori r24,lo8(4)
 646 0338 E0E2      		ldi r30,lo8(1056)
 647 033a F4E0      		ldi r31,hi8(1056)
 648 033c 8283      		std Z+2,r24
 649               	.LM106:
 650               	/* #APP */
 651               	 ;  90 "time.c" 1
 652 033e 7894      		sei
 653               	 ;  0 "" 2
 654               	/* epilogue start */
 655               	.LM107:
 656               	/* #NOAPP */
 657 0340 0F90      		pop __tmp_reg__
 658 0342 CF91      		pop r28
 659 0344 DF91      		pop r29
 660 0346 0F91      		pop r16
 661 0348 0895      		ret
 662               	.LFE20:
 664               	.global	Time_CheckVBatSystem
 666               	Time_CheckVBatSystem:
 667               	.LFB21:
 668               	.LM108:
 669               	/* prologue: function */
 670               	/* frame size = 0 */
 671               	.LM109:
 672 034a 8091 F100 		lds r24,241
 673 034e 87FD      		sbrc r24,7
 674 0350 00C0      		rjmp .L51
 675               	.LM110:
 676 0352 8091 F100 		lds r24,241
 677 0356 80FD      		sbrc r24,0
 678 0358 00C0      		rjmp .L51
 679               	.LM111:
 680 035a 8091 F100 		lds r24,241
 681 035e 81FD      		sbrc r24,1
 682 0360 00C0      		rjmp .L51
 683               	.LM112:
 684 0362 82E0      		ldi r24,lo8(2)
 685 0364 8093 F000 		sts 240,r24
 686               	.LM113:
 687 0368 8091 F100 		lds r24,241
 688 036c 8695      		lsr r24
 689 036e 8695      		lsr r24
 690 0370 8095      		com r24
 691 0372 8170      		andi r24,lo8(1)
 692 0374 0895      		ret
 693               	.L51:
 694 0376 80E0      		ldi r24,lo8(0)
 695               	.LM114:
 696 0378 0895      		ret
 697               	.LFE21:
 699               	.global	Time_Get
 701               	Time_Get:
 702               	.LFB22:
 703               	.LM115:
 704               	/* prologue: function */
 705               	/* frame size = 0 */
 706               	.LM116:
 707 037a 8091 2104 		lds r24,1057
 708 037e 8061      		ori r24,lo8(16)
 709 0380 E0E2      		ldi r30,lo8(1056)
 710 0382 F4E0      		ldi r31,hi8(1056)
 711 0384 8183      		std Z+1,r24
 712               	.L55:
 713               	.LM117:
 714 0386 8091 2104 		lds r24,1057
 715 038a 84FD      		sbrc r24,4
 716 038c 00C0      		rjmp .L55
 717               	.LM118:
 718 038e 2091 2404 		lds r18,1060
 719 0392 3091 2504 		lds r19,(1060)+1
 720 0396 4091 2604 		lds r20,(1060)+2
 721 039a 5091 2704 		lds r21,(1060)+3
 722               	.LM119:
 723 039e B901      		movw r22,r18
 724 03a0 CA01      		movw r24,r20
 725               	/* epilogue start */
 726 03a2 0895      		ret
 727               	.LFE22:
 729               	.global	Time_Get32BitTimer
 731               	Time_Get32BitTimer:
 732               	.LFB23:
 733               	.LM120:
 734               	/* prologue: function */
 735               	/* frame size = 0 */
 736               	.LM121:
 737               	/* #APP */
 738               	 ;  127 "time.c" 1
 739 03a4 F894      		cli
 740               	 ;  0 "" 2
 741               	.LM122:
 742               	/* #NOAPP */
 743 03a6 2091 6008 		lds r18,2144
 744 03aa 3091 6108 		lds r19,(2144)+1
 745               	.LVL22:
 746               	.LM123:
 747 03ae 6091 2008 		lds r22,2080
 748 03b2 7091 2108 		lds r23,(2080)+1
 749               	.LVL23:
 750               	.LM124:
 751 03b6 8091 6008 		lds r24,2144
 752 03ba 9091 6108 		lds r25,(2144)+1
 753 03be 2817      		cp r18,r24
 754 03c0 3907      		cpc r19,r25
 755 03c2 01F0      		breq .L59
 756               	.LM125:
 757 03c4 2091 6008 		lds r18,2144
 758 03c8 3091 6108 		lds r19,(2144)+1
 759               	.LM126:
 760 03cc 6091 2008 		lds r22,2080
 761 03d0 7091 2108 		lds r23,(2080)+1
 762               	.L59:
 763               	.LM127:
 764               	/* #APP */
 765               	 ;  137 "time.c" 1
 766 03d4 7894      		sei
 767               	 ;  0 "" 2
 768               	/* #NOAPP */
 769 03d6 40E0      		ldi r20,lo8(0)
 770 03d8 50E0      		ldi r21,hi8(0)
 771               	.LVL24:
 772 03da A901      		movw r20,r18
 773 03dc 3327      		clr r19
 774 03de 2227      		clr r18
 775               	.LVL25:
 776 03e0 CB01      		movw r24,r22
 777 03e2 A0E0      		ldi r26,lo8(0)
 778 03e4 B0E0      		ldi r27,hi8(0)
 779               	.LVL26:
 780 03e6 280F      		add r18,r24
 781 03e8 391F      		adc r19,r25
 782 03ea 4A1F      		adc r20,r26
 783 03ec 5B1F      		adc r21,r27
 784               	.LM128:
 785 03ee B901      		movw r22,r18
 786               	.LVL27:
 787 03f0 CA01      		movw r24,r20
 788               	.LVL28:
 789               	/* epilogue start */
 790 03f2 0895      		ret
 791               	.LFE23:
 793               	.global	Time_UTCSecsToTime
 795               	Time_UTCSecsToTime:
 796               	.LFB24:
 797               	.LM129:
 798               	.LVL29:
 799 03f4 8F92      		push r8
 800 03f6 9F92      		push r9
 801 03f8 AF92      		push r10
 802 03fa BF92      		push r11
 803 03fc CF92      		push r12
 804 03fe DF92      		push r13
 805 0400 EF92      		push r14
 806 0402 FF92      		push r15
 807 0404 0F93      		push r16
 808 0406 1F93      		push r17
 809 0408 CF93      		push r28
 810 040a DF93      		push r29
 811               	/* prologue: function */
 812               	/* frame size = 0 */
 813 040c 7B01      		movw r14,r22
 814 040e 8C01      		movw r16,r24
 815 0410 EA01      		movw r28,r20
 816               	.LM130:
 817 0412 2CE3      		ldi r18,lo8(60)
 818 0414 30E0      		ldi r19,hi8(60)
 819 0416 40E0      		ldi r20,hlo8(60)
 820 0418 50E0      		ldi r21,hhi8(60)
 821 041a 0E94 0000 		call __udivmodsi4
 822               	.LVL30:
 823 041e 6983      		std Y+1,r22
 824               	.LM131:
 825 0420 C801      		movw r24,r16
 826 0422 B701      		movw r22,r14
 827 0424 2CE3      		ldi r18,lo8(60)
 828 0426 30E0      		ldi r19,hi8(60)
 829 0428 40E0      		ldi r20,hlo8(60)
 830 042a 50E0      		ldi r21,hhi8(60)
 831 042c 0E94 0000 		call __udivmodsi4
 832 0430 122F      		mov r17,r18
 833 0432 032F      		mov r16,r19
 834 0434 F42E      		mov r15,r20
 835               	.LVL31:
 836 0436 E52E      		mov r14,r21
 837               	.LVL32:
 838               	.LM132:
 839 0438 622F      		mov r22,r18
 840 043a 732F      		mov r23,r19
 841 043c 842F      		mov r24,r20
 842 043e 952F      		mov r25,r21
 843 0440 2CE3      		ldi r18,lo8(60)
 844 0442 30E0      		ldi r19,hi8(60)
 845 0444 40E0      		ldi r20,hlo8(60)
 846 0446 50E0      		ldi r21,hhi8(60)
 847 0448 0E94 0000 		call __udivmodsi4
 848 044c 6A83      		std Y+2,r22
 849               	.LM133:
 850 044e 612F      		mov r22,r17
 851 0450 702F      		mov r23,r16
 852 0452 8F2D      		mov r24,r15
 853 0454 9E2D      		mov r25,r14
 854 0456 2CE3      		ldi r18,lo8(60)
 855 0458 30E0      		ldi r19,hi8(60)
 856 045a 40E0      		ldi r20,hlo8(60)
 857 045c 50E0      		ldi r21,hhi8(60)
 858 045e 0E94 0000 		call __udivmodsi4
 859 0462 122F      		mov r17,r18
 860 0464 032F      		mov r16,r19
 861 0466 F42E      		mov r15,r20
 862 0468 E52E      		mov r14,r21
 863               	.LM134:
 864 046a 622F      		mov r22,r18
 865 046c 732F      		mov r23,r19
 866 046e 842F      		mov r24,r20
 867 0470 952F      		mov r25,r21
 868 0472 28E1      		ldi r18,lo8(24)
 869 0474 30E0      		ldi r19,hi8(24)
 870 0476 40E0      		ldi r20,hlo8(24)
 871 0478 50E0      		ldi r21,hhi8(24)
 872 047a 0E94 0000 		call __udivmodsi4
 873 047e 6B83      		std Y+3,r22
 874               	.LM135:
 875 0480 612F      		mov r22,r17
 876 0482 702F      		mov r23,r16
 877 0484 8F2D      		mov r24,r15
 878 0486 9E2D      		mov r25,r14
 879 0488 28E1      		ldi r18,lo8(24)
 880 048a 30E0      		ldi r19,hi8(24)
 881 048c 40E0      		ldi r20,hlo8(24)
 882 048e 50E0      		ldi r21,hhi8(24)
 883 0490 0E94 0000 		call __udivmodsi4
 884 0494 7901      		movw r14,r18
 885 0496 8A01      		movw r16,r20
 886               	.LM136:
 887 0498 C801      		movw r24,r16
 888 049a B701      		movw r22,r14
 889               	.LVL33:
 890 049c 6C5F      		subi r22,lo8(-(4))
 891 049e 7F4F      		sbci r23,hi8(-(4))
 892 04a0 8F4F      		sbci r24,hlo8(-(4))
 893 04a2 9F4F      		sbci r25,hhi8(-(4))
 894 04a4 27E0      		ldi r18,lo8(7)
 895 04a6 30E0      		ldi r19,hi8(7)
 896 04a8 40E0      		ldi r20,hlo8(7)
 897 04aa 50E0      		ldi r21,hhi8(7)
 898 04ac 0E94 0000 		call __udivmodsi4
 899 04b0 6F5F      		subi r22,lo8(-(1))
 900 04b2 6C83      		std Y+4,r22
 901 04b4 20E0      		ldi r18,lo8(0)
 902               	.LVL34:
 903 04b6 AA24      		clr r10
 904 04b8 BB24      		clr r11
 905 04ba 6501      		movw r12,r10
 906               	.LVL35:
 907 04bc 00C0      		rjmp .L62
 908               	.LVL36:
 909               	.L66:
 910               	.LM137:
 911 04be 2F5F      		subi r18,lo8(-(1))
 912               	.LVL37:
 913               	.L62:
 914               	.LM138:
 915 04c0 822E      		mov r8,r18
 916 04c2 9924      		clr r9
 917 04c4 F401      		movw r30,r8
 918 04c6 EE54      		subi r30,lo8(-(1970))
 919 04c8 F84F      		sbci r31,hi8(-(1970))
 920 04ca CF01      		movw r24,r30
 921 04cc 8370      		andi r24,lo8(3)
 922 04ce 9070      		andi r25,hi8(3)
 923 04d0 892B      		or r24,r25
 924 04d2 01F4      		brne .L63
 925 04d4 CF01      		movw r24,r30
 926 04d6 64E6      		ldi r22,lo8(100)
 927 04d8 70E0      		ldi r23,hi8(100)
 928 04da 0E94 0000 		call __divmodhi4
 929               	.LVL38:
 930 04de 892B      		or r24,r25
 931 04e0 01F4      		brne .L64
 932 04e2 CF01      		movw r24,r30
 933 04e4 60E9      		ldi r22,lo8(400)
 934 04e6 71E0      		ldi r23,hi8(400)
 935 04e8 0E94 0000 		call __divmodhi4
 936 04ec 892B      		or r24,r25
 937 04ee 01F4      		brne .L63
 938               	.L64:
 939 04f0 8EE6      		ldi r24,lo8(366)
 940 04f2 91E0      		ldi r25,hi8(366)
 941 04f4 A0E0      		ldi r26,hlo8(366)
 942 04f6 B0E0      		ldi r27,hhi8(366)
 943 04f8 00C0      		rjmp .L65
 944               	.LVL39:
 945               	.L63:
 946 04fa 8DE6      		ldi r24,lo8(365)
 947 04fc 91E0      		ldi r25,hi8(365)
 948 04fe A0E0      		ldi r26,hlo8(365)
 949 0500 B0E0      		ldi r27,hhi8(365)
 950               	.L65:
 951 0502 A80E      		add r10,r24
 952 0504 B91E      		adc r11,r25
 953 0506 CA1E      		adc r12,r26
 954 0508 DB1E      		adc r13,r27
 955 050a C501      		movw r24,r10
 956 050c A0E0      		ldi r26,lo8(0)
 957 050e B0E0      		ldi r27,hi8(0)
 958 0510 E816      		cp r14,r24
 959 0512 F906      		cpc r15,r25
 960 0514 0A07      		cpc r16,r26
 961 0516 1B07      		cpc r17,r27
 962 0518 00F4      		brsh .L66
 963               	.LVL40:
 964               	.LM139:
 965 051a 2F83      		std Y+7,r18
 966               	.LM140:
 967 051c F401      		movw r30,r8
 968 051e EE54      		subi r30,lo8(-(1970))
 969 0520 F84F      		sbci r31,hi8(-(1970))
 970 0522 93E0      		ldi r25,lo8(3)
 971 0524 892E      		mov r8,r25
 972 0526 912C      		mov r9,__zero_reg__
 973 0528 8E22      		and r8,r30
 974 052a 9F22      		and r9,r31
 975 052c 8114      		cp r8,__zero_reg__
 976 052e 9104      		cpc r9,__zero_reg__
 977 0530 01F4      		brne .L67
 978 0532 CF01      		movw r24,r30
 979               	.LVL41:
 980 0534 64E6      		ldi r22,lo8(100)
 981 0536 70E0      		ldi r23,hi8(100)
 982 0538 0E94 0000 		call __divmodhi4
 983               	.LVL42:
 984 053c 892B      		or r24,r25
 985 053e 01F4      		brne .L68
 986 0540 CF01      		movw r24,r30
 987 0542 60E9      		ldi r22,lo8(400)
 988 0544 71E0      		ldi r23,hi8(400)
 989 0546 0E94 0000 		call __divmodhi4
 990 054a 892B      		or r24,r25
 991 054c 01F4      		brne .L67
 992               	.L68:
 993 054e 8EE6      		ldi r24,lo8(366)
 994 0550 91E0      		ldi r25,hi8(366)
 995 0552 A0E0      		ldi r26,hlo8(366)
 996 0554 B0E0      		ldi r27,hhi8(366)
 997 0556 00C0      		rjmp .L69
 998               	.LVL43:
 999               	.L67:
 1000 0558 8DE6      		ldi r24,lo8(365)
 1001 055a 91E0      		ldi r25,hi8(365)
 1002 055c A0E0      		ldi r26,hlo8(365)
 1003 055e B0E0      		ldi r27,hhi8(365)
 1004               	.L69:
 1005               	.LM141:
 1006 0560 A81A      		sub r10,r24
 1007 0562 B90A      		sbc r11,r25
 1008 0564 CA0A      		sbc r12,r26
 1009 0566 DB0A      		sbc r13,r27
 1010 0568 9801      		movw r18,r16
 1011 056a 8701      		movw r16,r14
 1012 056c 0A19      		sub r16,r10
 1013 056e 1B09      		sbc r17,r11
 1014 0570 2C09      		sbc r18,r12
 1015 0572 3D09      		sbc r19,r13
 1016               	.LVL44:
 1017               	.LM142:
 1018 0574 CF01      		movw r24,r30
 1019 0576 64E6      		ldi r22,lo8(100)
 1020 0578 70E0      		ldi r23,hi8(100)
 1021 057a 0E94 0000 		call __divmodhi4
 1022               	.LVL45:
 1023 057e 7C01      		movw r14,r24
 1024 0580 CF01      		movw r24,r30
 1025 0582 60E9      		ldi r22,lo8(400)
 1026 0584 71E0      		ldi r23,hi8(400)
 1027 0586 0E94 0000 		call __divmodhi4
 1028 058a AC01      		movw r20,r24
 1029 058c E0E0      		ldi r30,lo8(monthDays)
 1030 058e F0E0      		ldi r31,hi8(monthDays)
 1031 0590 60E0      		ldi r22,lo8(0)
 1032               	.LVL46:
 1033               	.L75:
 1034               	.LM143:
 1035 0592 6130      		cpi r22,lo8(1)
 1036 0594 01F4      		brne .L70
 1037               	.LM144:
 1038 0596 8114      		cp r8,__zero_reg__
 1039 0598 9104      		cpc r9,__zero_reg__
 1040 059a 01F4      		brne .L71
 1041 059c E114      		cp r14,__zero_reg__
 1042 059e F104      		cpc r15,__zero_reg__
 1043 05a0 01F4      		brne .L72
 1044 05a2 4115      		cp r20,__zero_reg__
 1045 05a4 5105      		cpc r21,__zero_reg__
 1046 05a6 01F0      		breq .L72
 1047 05a8 00C0      		rjmp .L71
 1048               	.L70:
 1049               	.LM145:
 1050 05aa 8081      		ld r24,Z
 1051               	.LVL47:
 1052 05ac 00C0      		rjmp .L73
 1053               	.LVL48:
 1054               	.L71:
 1055 05ae 8CE1      		ldi r24,lo8(28)
 1056               	.LVL49:
 1057 05b0 00C0      		rjmp .L73
 1058               	.LVL50:
 1059               	.L72:
 1060 05b2 8DE1      		ldi r24,lo8(29)
 1061               	.LVL51:
 1062               	.L73:
 1063               	.LM146:
 1064 05b4 90E0      		ldi r25,lo8(0)
 1065 05b6 A0E0      		ldi r26,lo8(0)
 1066 05b8 B0E0      		ldi r27,hi8(0)
 1067 05ba 0817      		cp r16,r24
 1068 05bc 1907      		cpc r17,r25
 1069 05be 2A07      		cpc r18,r26
 1070 05c0 3B07      		cpc r19,r27
 1071               	.LVL52:
 1072 05c2 00F0      		brlo .L74
 1073               	.LM147:
 1074 05c4 081B      		sub r16,r24
 1075 05c6 190B      		sbc r17,r25
 1076 05c8 2A0B      		sbc r18,r26
 1077 05ca 3B0B      		sbc r19,r27
 1078               	.LM148:
 1079 05cc 6F5F      		subi r22,lo8(-(1))
 1080 05ce 3196      		adiw r30,1
 1081 05d0 6C30      		cpi r22,lo8(12)
 1082 05d2 01F4      		brne .L75
 1083               	.L74:
 1084               	.LM149:
 1085 05d4 6F5F      		subi r22,lo8(-(1))
 1086 05d6 6E83      		std Y+6,r22
 1087               	.LM150:
 1088 05d8 802F      		mov r24,r16
 1089               	.LVL53:
 1090 05da 8F5F      		subi r24,lo8(-(1))
 1091 05dc 8D83      		std Y+5,r24
 1092               	.LM151:
 1093 05de CE01      		movw r24,r28
 1094               	.LVL54:
 1095               	/* epilogue start */
 1096 05e0 DF91      		pop r29
 1097 05e2 CF91      		pop r28
 1098 05e4 1F91      		pop r17
 1099 05e6 0F91      		pop r16
 1100 05e8 FF90      		pop r15
 1101 05ea EF90      		pop r14
 1102 05ec DF90      		pop r13
 1103 05ee CF90      		pop r12
 1104 05f0 BF90      		pop r11
 1105 05f2 AF90      		pop r10
 1106               	.LVL55:
 1107 05f4 9F90      		pop r9
 1108 05f6 8F90      		pop r8
 1109 05f8 0895      		ret
 1110               	.LFE24:
 1113               	wait_ready:
 1114               	.LFB26:
 1115               	.LM152:
 1116               	/* prologue: function */
 1117               	/* frame size = 0 */
 1118               	.LM153:
 1119 05fa 82E3      		ldi r24,lo8(50)
 1120 05fc 8093 0000 		sts Timer2,r24
 1121               	.LBB489:
 1122               	.LBB490:
 1123               	.LM154:
 1124 0600 8FEF      		ldi r24,lo8(-1)
 1125 0602 E0EC      		ldi r30,lo8(2496)
 1126 0604 F9E0      		ldi r31,hi8(2496)
 1127 0606 8383      		std Z+3,r24
 1128               	.L79:
 1129               	.LM155:
 1130 0608 8091 C209 		lds r24,2498
 1131 060c 87FF      		sbrs r24,7
 1132 060e 00C0      		rjmp .L79
 1133               	.LM156:
 1134 0610 8091 C309 		lds r24,2499
 1135               	.LBE490:
 1136               	.LBE489:
 1137               	.LBB491:
 1138               	.LBB492:
 1139               	.LM157:
 1140 0614 E0EC      		ldi r30,lo8(2496)
 1141 0616 F9E0      		ldi r31,hi8(2496)
 1142 0618 2FEF      		ldi r18,lo8(-1)
 1143               	.LVL56:
 1144               	.L82:
 1145 061a 2383      		std Z+3,r18
 1146               	.L80:
 1147               	.LM158:
 1148 061c 8091 C209 		lds r24,2498
 1149 0620 87FF      		sbrs r24,7
 1150 0622 00C0      		rjmp .L80
 1151               	.LM159:
 1152 0624 9091 C309 		lds r25,2499
 1153               	.LBE492:
 1154               	.LBE491:
 1155               	.LM160:
 1156 0628 9F3F      		cpi r25,lo8(-1)
 1157 062a 01F0      		breq .L81
 1158 062c 8091 0000 		lds r24,Timer2
 1159 0630 8823      		tst r24
 1160 0632 01F4      		brne .L82
 1161               	.L81:
 1162               	.LM161:
 1163 0634 892F      		mov r24,r25
 1164               	/* epilogue start */
 1165 0636 0895      		ret
 1166               	.LFE26:
 1169               	select:
 1170               	.LFB28:
 1171               	.LM162:
 1172 0638 1F93      		push r17
 1173 063a CF93      		push r28
 1174 063c DF93      		push r29
 1175               	/* prologue: function */
 1176               	/* frame size = 0 */
 1177               	.LM163:
 1178 063e C0E6      		ldi r28,lo8(1632)
 1179 0640 D6E0      		ldi r29,hi8(1632)
 1180 0642 10E1      		ldi r17,lo8(16)
 1181 0644 1E83      		std Y+6,r17
 1182               	.LM164:
 1183 0646 0E94 0000 		call wait_ready
 1184 064a 8F3F      		cpi r24,lo8(-1)
 1185 064c 01F4      		brne .L88
 1186 064e 81E0      		ldi r24,lo8(1)
 1187 0650 00C0      		rjmp .L89
 1188               	.L88:
 1189               	.LBB493:
 1190               	.LBB494:
 1191               	.LM165:
 1192 0652 1D83      		std Y+5,r17
 1193               	.LBB495:
 1194               	.LBB496:
 1195               	.LM166:
 1196 0654 8FEF      		ldi r24,lo8(-1)
 1197 0656 E0EC      		ldi r30,lo8(2496)
 1198 0658 F9E0      		ldi r31,hi8(2496)
 1199 065a 8383      		std Z+3,r24
 1200               	.L90:
 1201               	.LM167:
 1202 065c 8091 C209 		lds r24,2498
 1203 0660 87FF      		sbrs r24,7
 1204 0662 00C0      		rjmp .L90
 1205               	.LM168:
 1206 0664 8091 C309 		lds r24,2499
 1207 0668 80E0      		ldi r24,lo8(0)
 1208               	.L89:
 1209               	/* epilogue start */
 1210               	.LBE496:
 1211               	.LBE495:
 1212               	.LBE494:
 1213               	.LBE493:
 1214               	.LM169:
 1215 066a DF91      		pop r29
 1216 066c CF91      		pop r28
 1217 066e 1F91      		pop r17
 1218 0670 0895      		ret
 1219               	.LFE28:
 1222               	rcvr_datablock:
 1223               	.LFB32:
 1224               	.LM170:
 1225               	.LVL57:
 1226               	/* prologue: function */
 1227               	/* frame size = 0 */
 1228 0672 FC01      		movw r30,r24
 1229               	.LM171:
 1230 0674 84E1      		ldi r24,lo8(20)
 1231               	.LVL58:
 1232 0676 8093 0000 		sts Timer1,r24
 1233               	.LBB497:
 1234               	.LBB498:
 1235               	.LM172:
 1236 067a A0EC      		ldi r26,lo8(2496)
 1237 067c B9E0      		ldi r27,hi8(2496)
 1238 067e 9FEF      		ldi r25,lo8(-1)
 1239               	.L96:
 1240 0680 1396      		adiw r26,3
 1241 0682 9C93      		st X,r25
 1242 0684 1397      		sbiw r26,3
 1243               	.L94:
 1244               	.LM173:
 1245 0686 8091 C209 		lds r24,2498
 1246 068a 87FF      		sbrs r24,7
 1247 068c 00C0      		rjmp .L94
 1248               	.LM174:
 1249 068e 8091 C309 		lds r24,2499
 1250               	.LVL59:
 1251               	.LBE498:
 1252               	.LBE497:
 1253               	.LM175:
 1254 0692 8F3F      		cpi r24,lo8(-1)
 1255 0694 01F4      		brne .L95
 1256 0696 8091 0000 		lds r24,Timer1
 1257               	.LVL60:
 1258 069a 8823      		tst r24
 1259 069c 01F4      		brne .L96
 1260 069e 00C0      		rjmp .L97
 1261               	.LVL61:
 1262               	.L95:
 1263               	.LM176:
 1264 06a0 8E3F      		cpi r24,lo8(-2)
 1265 06a2 01F0      		breq .+2
 1266 06a4 00C0      		rjmp .L97
 1267               	.LM177:
 1268 06a6 A0EC      		ldi r26,lo8(2496)
 1269 06a8 B9E0      		ldi r27,hi8(2496)
 1270 06aa 9FEF      		ldi r25,lo8(-1)
 1271               	.L116:
 1272 06ac 1396      		adiw r26,3
 1273 06ae 9C93      		st X,r25
 1274 06b0 1397      		sbiw r26,3
 1275               	.L98:
 1276 06b2 8091 C209 		lds r24,2498
 1277               	.LVL62:
 1278 06b6 87FF      		sbrs r24,7
 1279 06b8 00C0      		rjmp .L98
 1280 06ba 8091 C309 		lds r24,2499
 1281 06be 8083      		st Z,r24
 1282               	.LM178:
 1283 06c0 1396      		adiw r26,3
 1284 06c2 9C93      		st X,r25
 1285 06c4 1397      		sbiw r26,3
 1286               	.L99:
 1287 06c6 8091 C209 		lds r24,2498
 1288 06ca 87FF      		sbrs r24,7
 1289 06cc 00C0      		rjmp .L99
 1290 06ce 8091 C309 		lds r24,2499
 1291 06d2 8183      		std Z+1,r24
 1292               	.LM179:
 1293 06d4 1396      		adiw r26,3
 1294 06d6 9C93      		st X,r25
 1295 06d8 1397      		sbiw r26,3
 1296               	.L100:
 1297 06da 8091 C209 		lds r24,2498
 1298 06de 87FF      		sbrs r24,7
 1299 06e0 00C0      		rjmp .L100
 1300 06e2 8091 C309 		lds r24,2499
 1301 06e6 8283      		std Z+2,r24
 1302               	.LM180:
 1303 06e8 1396      		adiw r26,3
 1304 06ea 9C93      		st X,r25
 1305 06ec 1397      		sbiw r26,3
 1306               	.L101:
 1307 06ee 8091 C209 		lds r24,2498
 1308 06f2 87FF      		sbrs r24,7
 1309 06f4 00C0      		rjmp .L101
 1310 06f6 8091 C309 		lds r24,2499
 1311 06fa 8383      		std Z+3,r24
 1312               	.LM181:
 1313 06fc 6450      		subi r22,lo8(-(-4))
 1314 06fe 7040      		sbci r23,hi8(-(-4))
 1315               	.LVL63:
 1316 0700 01F0      		breq .L102
 1317               	.LM182:
 1318 0702 3496      		adiw r30,4
 1319 0704 00C0      		rjmp .L116
 1320               	.L102:
 1321               	.LBB499:
 1322               	.LBB500:
 1323               	.LM183:
 1324 0706 8FEF      		ldi r24,lo8(-1)
 1325 0708 E0EC      		ldi r30,lo8(2496)
 1326 070a F9E0      		ldi r31,hi8(2496)
 1327               	.LVL64:
 1328 070c 8383      		std Z+3,r24
 1329               	.L104:
 1330               	.LM184:
 1331 070e 8091 C209 		lds r24,2498
 1332 0712 87FF      		sbrs r24,7
 1333 0714 00C0      		rjmp .L104
 1334               	.LM185:
 1335 0716 8091 C309 		lds r24,2499
 1336               	.LBE500:
 1337               	.LBE499:
 1338               	.LBB501:
 1339               	.LBB502:
 1340               	.LM186:
 1341 071a 8FEF      		ldi r24,lo8(-1)
 1342 071c E0EC      		ldi r30,lo8(2496)
 1343 071e F9E0      		ldi r31,hi8(2496)
 1344 0720 8383      		std Z+3,r24
 1345               	.L105:
 1346               	.LM187:
 1347 0722 8091 C209 		lds r24,2498
 1348 0726 87FF      		sbrs r24,7
 1349 0728 00C0      		rjmp .L105
 1350               	.LM188:
 1351 072a 8091 C309 		lds r24,2499
 1352 072e 81E0      		ldi r24,lo8(1)
 1353 0730 0895      		ret
 1354               	.LVL65:
 1355               	.L97:
 1356               	.LM189:
 1357 0732 80E0      		ldi r24,lo8(0)
 1358               	.LVL66:
 1359               	.LBE502:
 1360               	.LBE501:
 1361               	.LM190:
 1362 0734 0895      		ret
 1363               	.LFE32:
 1366               	xmit_datablock:
 1367               	.LFB33:
 1368               	.LM191:
 1369               	.LVL67:
 1370 0736 1F93      		push r17
 1371 0738 CF93      		push r28
 1372 073a DF93      		push r29
 1373               	/* prologue: function */
 1374               	/* frame size = 0 */
 1375 073c EC01      		movw r28,r24
 1376 073e 162F      		mov r17,r22
 1377               	.LM192:
 1378 0740 0E94 0000 		call wait_ready
 1379               	.LVL68:
 1380 0744 8F3F      		cpi r24,lo8(-1)
 1381 0746 01F0      		breq .L118
 1382 0748 90E0      		ldi r25,lo8(0)
 1383 074a 00C0      		rjmp .L119
 1384               	.L118:
 1385               	.LM193:
 1386 074c E0EC      		ldi r30,lo8(2496)
 1387 074e F9E0      		ldi r31,hi8(2496)
 1388 0750 1383      		std Z+3,r17
 1389               	.L120:
 1390 0752 8091 C209 		lds r24,2498
 1391 0756 87FF      		sbrs r24,7
 1392 0758 00C0      		rjmp .L120
 1393               	.LM194:
 1394 075a 1D3F      		cpi r17,lo8(-3)
 1395 075c 01F4      		brne .L121
 1396 075e 91E0      		ldi r25,lo8(1)
 1397 0760 00C0      		rjmp .L119
 1398               	.L121:
 1399 0762 90E0      		ldi r25,lo8(0)
 1400               	.LVL69:
 1401               	.LM195:
 1402 0764 E0EC      		ldi r30,lo8(2496)
 1403 0766 F9E0      		ldi r31,hi8(2496)
 1404               	.L125:
 1405 0768 8881      		ld r24,Y
 1406 076a 8383      		std Z+3,r24
 1407               	.L122:
 1408 076c 8091 C209 		lds r24,2498
 1409 0770 87FF      		sbrs r24,7
 1410 0772 00C0      		rjmp .L122
 1411               	.LM196:
 1412 0774 8981      		ldd r24,Y+1
 1413 0776 8383      		std Z+3,r24
 1414               	.L123:
 1415 0778 8091 C209 		lds r24,2498
 1416 077c 87FF      		sbrs r24,7
 1417 077e 00C0      		rjmp .L123
 1418               	.LM197:
 1419 0780 9150      		subi r25,lo8(-(-1))
 1420 0782 01F0      		breq .L124
 1421               	.LM198:
 1422 0784 2296      		adiw r28,2
 1423 0786 00C0      		rjmp .L125
 1424               	.L124:
 1425               	.LM199:
 1426 0788 8FEF      		ldi r24,lo8(-1)
 1427 078a E0EC      		ldi r30,lo8(2496)
 1428 078c F9E0      		ldi r31,hi8(2496)
 1429 078e 8383      		std Z+3,r24
 1430               	.L126:
 1431 0790 8091 C209 		lds r24,2498
 1432 0794 87FF      		sbrs r24,7
 1433 0796 00C0      		rjmp .L126
 1434               	.LM200:
 1435 0798 8FEF      		ldi r24,lo8(-1)
 1436 079a E0EC      		ldi r30,lo8(2496)
 1437 079c F9E0      		ldi r31,hi8(2496)
 1438 079e 8383      		std Z+3,r24
 1439               	.L127:
 1440 07a0 8091 C209 		lds r24,2498
 1441 07a4 87FF      		sbrs r24,7
 1442 07a6 00C0      		rjmp .L127
 1443               	.LBB503:
 1444               	.LBB504:
 1445               	.LM201:
 1446 07a8 8FEF      		ldi r24,lo8(-1)
 1447 07aa E0EC      		ldi r30,lo8(2496)
 1448 07ac F9E0      		ldi r31,hi8(2496)
 1449 07ae 8383      		std Z+3,r24
 1450               	.L128:
 1451               	.LM202:
 1452 07b0 8091 C209 		lds r24,2498
 1453 07b4 87FF      		sbrs r24,7
 1454 07b6 00C0      		rjmp .L128
 1455               	.LM203:
 1456 07b8 8091 C309 		lds r24,2499
 1457               	.LVL70:
 1458 07bc 90E0      		ldi r25,lo8(0)
 1459               	.LVL71:
 1460 07be 8F71      		andi r24,lo8(31)
 1461 07c0 8530      		cpi r24,lo8(5)
 1462 07c2 01F0      		breq .L129
 1463 07c4 91E0      		ldi r25,lo8(1)
 1464               	.L129:
 1465 07c6 81E0      		ldi r24,lo8(1)
 1466               	.LVL72:
 1467 07c8 9827      		eor r25,r24
 1468               	.L119:
 1469               	.LBE504:
 1470               	.LBE503:
 1471               	.LM204:
 1472 07ca 892F      		mov r24,r25
 1473               	/* epilogue start */
 1474 07cc DF91      		pop r29
 1475 07ce CF91      		pop r28
 1476               	.LVL73:
 1477 07d0 1F91      		pop r17
 1478               	.LVL74:
 1479 07d2 0895      		ret
 1480               	.LFE33:
 1483               	send_cmd:
 1484               	.LFB34:
 1485               	.LM205:
 1486               	.LVL75:
 1487 07d4 DF92      		push r13
 1488 07d6 EF92      		push r14
 1489 07d8 FF92      		push r15
 1490 07da 0F93      		push r16
 1491 07dc 1F93      		push r17
 1492               	/* prologue: function */
 1493               	/* frame size = 0 */
 1494 07de D82E      		mov r13,r24
 1495 07e0 7A01      		movw r14,r20
 1496 07e2 8B01      		movw r16,r22
 1497               	.LM206:
 1498 07e4 87FF      		sbrs r24,7
 1499 07e6 00C0      		rjmp .L138
 1500               	.LVL76:
 1501               	.LM207:
 1502 07e8 87E7      		ldi r24,lo8(119)
 1503               	.LVL77:
 1504 07ea 40E0      		ldi r20,lo8(0)
 1505 07ec 50E0      		ldi r21,hi8(0)
 1506 07ee 60E0      		ldi r22,hlo8(0)
 1507 07f0 70E0      		ldi r23,hhi8(0)
 1508 07f2 0E94 0000 		call send_cmd
 1509               	.LM208:
 1510 07f6 8230      		cpi r24,lo8(2)
 1511               	.LVL78:
 1512 07f8 00F0      		brlo .+2
 1513 07fa 00C0      		rjmp .L139
 1514               	.LM209:
 1515 07fc 8FE7      		ldi r24,lo8(127)
 1516               	.LVL79:
 1517 07fe D822      		and r13,r24
 1518               	.LVL80:
 1519               	.L138:
 1520               	.LBB505:
 1521               	.LBB506:
 1522               	.LM210:
 1523 0800 80E1      		ldi r24,lo8(16)
 1524 0802 E0E6      		ldi r30,lo8(1632)
 1525 0804 F6E0      		ldi r31,hi8(1632)
 1526 0806 8583      		std Z+5,r24
 1527               	.LBB507:
 1528               	.LBB508:
 1529               	.LM211:
 1530 0808 8FEF      		ldi r24,lo8(-1)
 1531 080a E0EC      		ldi r30,lo8(2496)
 1532 080c F9E0      		ldi r31,hi8(2496)
 1533 080e 8383      		std Z+3,r24
 1534               	.L140:
 1535               	.LM212:
 1536 0810 8091 C209 		lds r24,2498
 1537 0814 87FF      		sbrs r24,7
 1538 0816 00C0      		rjmp .L140
 1539               	.LM213:
 1540 0818 8091 C309 		lds r24,2499
 1541               	.LBE508:
 1542               	.LBE507:
 1543               	.LBE506:
 1544               	.LBE505:
 1545               	.LM214:
 1546 081c 0E94 0000 		call select
 1547 0820 8823      		tst r24
 1548 0822 01F4      		brne .L141
 1549 0824 8FEF      		ldi r24,lo8(-1)
 1550               	.LVL81:
 1551 0826 00C0      		rjmp .L139
 1552               	.LVL82:
 1553               	.L141:
 1554               	.LM215:
 1555 0828 E0EC      		ldi r30,lo8(2496)
 1556 082a F9E0      		ldi r31,hi8(2496)
 1557 082c D382      		std Z+3,r13
 1558               	.L142:
 1559 082e 8091 C209 		lds r24,2498
 1560 0832 87FF      		sbrs r24,7
 1561 0834 00C0      		rjmp .L142
 1562               	.LM216:
 1563 0836 812F      		mov r24,r17
 1564 0838 9927      		clr r25
 1565 083a AA27      		clr r26
 1566 083c BB27      		clr r27
 1567 083e E0EC      		ldi r30,lo8(2496)
 1568 0840 F9E0      		ldi r31,hi8(2496)
 1569 0842 8383      		std Z+3,r24
 1570               	.L143:
 1571 0844 8091 C209 		lds r24,2498
 1572 0848 87FF      		sbrs r24,7
 1573 084a 00C0      		rjmp .L143
 1574               	.LM217:
 1575 084c C801      		movw r24,r16
 1576 084e AA27      		clr r26
 1577 0850 BB27      		clr r27
 1578 0852 E0EC      		ldi r30,lo8(2496)
 1579 0854 F9E0      		ldi r31,hi8(2496)
 1580 0856 8383      		std Z+3,r24
 1581               	.L144:
 1582 0858 8091 C209 		lds r24,2498
 1583 085c 87FF      		sbrs r24,7
 1584 085e 00C0      		rjmp .L144
 1585               	.LM218:
 1586 0860 BB27      		clr r27
 1587 0862 A12F      		mov r26,r17
 1588 0864 902F      		mov r25,r16
 1589 0866 8F2D      		mov r24,r15
 1590 0868 E0EC      		ldi r30,lo8(2496)
 1591 086a F9E0      		ldi r31,hi8(2496)
 1592 086c 8383      		std Z+3,r24
 1593               	.L145:
 1594 086e 8091 C209 		lds r24,2498
 1595 0872 87FF      		sbrs r24,7
 1596 0874 00C0      		rjmp .L145
 1597               	.LM219:
 1598 0876 E0EC      		ldi r30,lo8(2496)
 1599 0878 F9E0      		ldi r31,hi8(2496)
 1600 087a E382      		std Z+3,r14
 1601               	.L146:
 1602 087c 8091 C209 		lds r24,2498
 1603 0880 87FF      		sbrs r24,7
 1604 0882 00C0      		rjmp .L146
 1605               	.LM220:
 1606 0884 80E4      		ldi r24,lo8(64)
 1607 0886 D816      		cp r13,r24
 1608 0888 01F4      		brne .L147
 1609 088a 85E9      		ldi r24,lo8(-107)
 1610               	.LVL83:
 1611 088c 00C0      		rjmp .L148
 1612               	.LVL84:
 1613               	.L147:
 1614               	.LM221:
 1615 088e 88E4      		ldi r24,lo8(72)
 1616 0890 D816      		cp r13,r24
 1617 0892 01F4      		brne .L149
 1618 0894 87E8      		ldi r24,lo8(-121)
 1619               	.LVL85:
 1620 0896 00C0      		rjmp .L148
 1621               	.LVL86:
 1622               	.L149:
 1623 0898 81E0      		ldi r24,lo8(1)
 1624               	.LVL87:
 1625               	.L148:
 1626               	.LM222:
 1627 089a E0EC      		ldi r30,lo8(2496)
 1628 089c F9E0      		ldi r31,hi8(2496)
 1629 089e 8383      		std Z+3,r24
 1630               	.L150:
 1631 08a0 8091 C209 		lds r24,2498
 1632               	.LVL88:
 1633 08a4 87FF      		sbrs r24,7
 1634 08a6 00C0      		rjmp .L150
 1635               	.LM223:
 1636 08a8 8CE4      		ldi r24,lo8(76)
 1637 08aa D816      		cp r13,r24
 1638 08ac 01F4      		brne .L167
 1639               	.L151:
 1640               	.LBB509:
 1641               	.LBB510:
 1642               	.LM224:
 1643 08ae 8FEF      		ldi r24,lo8(-1)
 1644 08b0 E0EC      		ldi r30,lo8(2496)
 1645 08b2 F9E0      		ldi r31,hi8(2496)
 1646 08b4 8383      		std Z+3,r24
 1647               	.L153:
 1648               	.LM225:
 1649 08b6 8091 C209 		lds r24,2498
 1650 08ba 87FF      		sbrs r24,7
 1651 08bc 00C0      		rjmp .L153
 1652               	.LM226:
 1653 08be 8091 C309 		lds r24,2499
 1654               	.L167:
 1655 08c2 9AE0      		ldi r25,lo8(10)
 1656               	.LVL89:
 1657               	.LBE510:
 1658               	.LBE509:
 1659               	.LBB511:
 1660               	.LBB512:
 1661               	.LM227:
 1662 08c4 E0EC      		ldi r30,lo8(2496)
 1663 08c6 F9E0      		ldi r31,hi8(2496)
 1664 08c8 2FEF      		ldi r18,lo8(-1)
 1665               	.LVL90:
 1666               	.L156:
 1667 08ca 2383      		std Z+3,r18
 1668               	.L154:
 1669               	.LM228:
 1670 08cc 8091 C209 		lds r24,2498
 1671               	.LVL91:
 1672 08d0 87FF      		sbrs r24,7
 1673 08d2 00C0      		rjmp .L154
 1674               	.LM229:
 1675 08d4 8091 C309 		lds r24,2499
 1676               	.LVL92:
 1677               	.LBE512:
 1678               	.LBE511:
 1679               	.LM230:
 1680 08d8 87FF      		sbrs r24,7
 1681 08da 00C0      		rjmp .L139
 1682 08dc 9150      		subi r25,lo8(-(-1))
 1683 08de 01F4      		brne .L156
 1684               	.L139:
 1685               	.LVL93:
 1686               	/* epilogue start */
 1687               	.LM231:
 1688 08e0 1F91      		pop r17
 1689 08e2 0F91      		pop r16
 1690 08e4 FF90      		pop r15
 1691 08e6 EF90      		pop r14
 1692               	.LVL94:
 1693 08e8 DF90      		pop r13
 1694               	.LVL95:
 1695 08ea 0895      		ret
 1696               	.LFE34:
 1698               	.global	disk_initialize
 1700               	disk_initialize:
 1701               	.LFB35:
 1702               	.LM232:
 1703               	.LVL96:
 1704 08ec EF92      		push r14
 1705 08ee FF92      		push r15
 1706 08f0 0F93      		push r16
 1707 08f2 1F93      		push r17
 1708 08f4 DF93      		push r29
 1709 08f6 CF93      		push r28
 1710 08f8 00D0      		rcall .
 1711 08fa 0F92      		push __tmp_reg__
 1712 08fc CDB7      		in r28,__SP_L__
 1713 08fe DEB7      		in r29,__SP_H__
 1714               	/* prologue: function */
 1715               	/* frame size = 4 */
 1716               	.LM233:
 1717 0900 8091 0000 		lds r24,Stat
 1718               	.LVL97:
 1719 0904 81FD      		sbrc r24,1
 1720 0906 00C0      		rjmp .L188
 1721               	.L169:
 1722               	.LBB513:
 1723               	.LBB514:
 1724               	.LM234:
 1725 0908 E0E6      		ldi r30,lo8(1632)
 1726 090a F6E0      		ldi r31,hi8(1632)
 1727 090c 80EB      		ldi r24,lo8(-80)
 1728 090e 8183      		std Z+1,r24
 1729               	.LM235:
 1730 0910 88E3      		ldi r24,lo8(56)
 1731 0912 868B      		std Z+22,r24
 1732               	.LM236:
 1733 0914 1482      		std Z+4,__zero_reg__
 1734 0916 8CE2      		ldi r24,lo8(300)
 1735 0918 91E0      		ldi r25,hi8(300)
 1736               	.LVL98:
 1737               	.LBB515:
 1738               	.LBB516:
 1739               	.LBB517:
 1740               	.LBB518:
 1741               	.LM237:
 1742 091a 20E7      		ldi r18,lo8(368)
 1743 091c 31E0      		ldi r19,hi8(368)
 1744               	.L171:
 1745 091e F901      		movw r30,r18
 1746               	.LVL99:
 1747               	/* #APP */
 1748               	 ;  105 "/usr/local/CrossPack-AVR-20100115/lib/gcc/avr/4.3.3/../../../../avr/include/util/delay_bas
 1749 0920 3197      		1: sbiw r30,1
 1750 0922 01F4      		brne 1b
 1751               	 ;  0 "" 2
 1752               	/* #NOAPP */
 1753               	.LBE518:
 1754               	.LBE517:
 1755               	.LM238:
 1756 0924 0197      		sbiw r24,1
 1757               	.LM239:
 1758 0926 01F4      		brne .L171
 1759               	.LBE516:
 1760               	.LBE515:
 1761               	.LBE514:
 1762               	.LBE513:
 1763               	.LM240:
 1764 0928 83E5      		ldi r24,lo8(83)
 1765               	.LVL100:
 1766 092a 8093 C009 		sts 2496,r24
 1767 092e 9AE0      		ldi r25,lo8(10)
 1768               	.LVL101:
 1769               	.LBB519:
 1770               	.LBB520:
 1771               	.LM241:
 1772 0930 E0EC      		ldi r30,lo8(2496)
 1773 0932 F9E0      		ldi r31,hi8(2496)
 1774               	.LVL102:
 1775 0934 2FEF      		ldi r18,lo8(-1)
 1776               	.L173:
 1777 0936 2383      		std Z+3,r18
 1778               	.L172:
 1779               	.LM242:
 1780 0938 8091 C209 		lds r24,2498
 1781 093c 87FF      		sbrs r24,7
 1782 093e 00C0      		rjmp .L172
 1783               	.LM243:
 1784 0940 8091 C309 		lds r24,2499
 1785               	.LBE520:
 1786               	.LBE519:
 1787               	.LM244:
 1788 0944 9150      		subi r25,lo8(-(-1))
 1789 0946 01F4      		brne .L173
 1790               	.LM245:
 1791 0948 80E4      		ldi r24,lo8(64)
 1792 094a 40E0      		ldi r20,lo8(0)
 1793 094c 50E0      		ldi r21,hi8(0)
 1794 094e 60E0      		ldi r22,hlo8(0)
 1795 0950 70E0      		ldi r23,hhi8(0)
 1796 0952 0E94 0000 		call send_cmd
 1797               	.LVL103:
 1798 0956 8130      		cpi r24,lo8(1)
 1799 0958 01F0      		breq .+2
 1800 095a 00C0      		rjmp .L174
 1801               	.LM246:
 1802 095c 84E6      		ldi r24,lo8(100)
 1803 095e 8093 0000 		sts Timer1,r24
 1804               	.LM247:
 1805 0962 88E4      		ldi r24,lo8(72)
 1806 0964 4AEA      		ldi r20,lo8(426)
 1807 0966 51E0      		ldi r21,hi8(426)
 1808 0968 60E0      		ldi r22,hlo8(426)
 1809 096a 70E0      		ldi r23,hhi8(426)
 1810 096c 0E94 0000 		call send_cmd
 1811 0970 8130      		cpi r24,lo8(1)
 1812 0972 01F0      		breq .+2
 1813 0974 00C0      		rjmp .L175
 1814 0976 7E01      		movw r14,r28
 1815 0978 0894      		sec
 1816 097a E11C      		adc r14,__zero_reg__
 1817 097c F11C      		adc r15,__zero_reg__
 1818 097e 8701      		movw r16,r14
 1819               	.LBB521:
 1820               	.LBB522:
 1821               	.LM248:
 1822 0980 E0EC      		ldi r30,lo8(2496)
 1823 0982 F9E0      		ldi r31,hi8(2496)
 1824 0984 9FEF      		ldi r25,lo8(-1)
 1825               	.LBE522:
 1826               	.LBE521:
 1827               	.LM249:
 1828 0986 9E01      		movw r18,r28
 1829 0988 2B5F      		subi r18,lo8(-(5))
 1830 098a 3F4F      		sbci r19,hi8(-(5))
 1831               	.L177:
 1832               	.LBB524:
 1833               	.LBB523:
 1834               	.LM250:
 1835 098c 9383      		std Z+3,r25
 1836               	.L176:
 1837               	.LM251:
 1838 098e 8091 C209 		lds r24,2498
 1839 0992 87FF      		sbrs r24,7
 1840 0994 00C0      		rjmp .L176
 1841               	.LM252:
 1842 0996 8091 C309 		lds r24,2499
 1843               	.LBE523:
 1844               	.LBE524:
 1845               	.LM253:
 1846 099a D801      		movw r26,r16
 1847 099c 8D93      		st X+,r24
 1848 099e 8D01      		movw r16,r26
 1849 09a0 A217      		cp r26,r18
 1850 09a2 B307      		cpc r27,r19
 1851 09a4 01F4      		brne .L177
 1852               	.LM254:
 1853 09a6 8B81      		ldd r24,Y+3
 1854 09a8 8130      		cpi r24,lo8(1)
 1855 09aa 01F0      		breq .+2
 1856 09ac 00C0      		rjmp .L174
 1857 09ae 8C81      		ldd r24,Y+4
 1858 09b0 8A3A      		cpi r24,lo8(-86)
 1859 09b2 01F0      		breq .+2
 1860 09b4 00C0      		rjmp .L174
 1861               	.L191:
 1862               	.LM255:
 1863 09b6 8091 0000 		lds r24,Timer1
 1864 09ba 8823      		tst r24
 1865 09bc 01F0      		breq .L178
 1866 09be 89EE      		ldi r24,lo8(-23)
 1867 09c0 40E0      		ldi r20,lo8(1073741824)
 1868 09c2 50E0      		ldi r21,hi8(1073741824)
 1869 09c4 60E0      		ldi r22,hlo8(1073741824)
 1870 09c6 70E4      		ldi r23,hhi8(1073741824)
 1871 09c8 0E94 0000 		call send_cmd
 1872 09cc 8823      		tst r24
 1873 09ce 01F4      		brne .L191
 1874               	.L178:
 1875               	.LM256:
 1876 09d0 8091 0000 		lds r24,Timer1
 1877 09d4 8823      		tst r24
 1878 09d6 01F4      		brne .+2
 1879 09d8 00C0      		rjmp .L174
 1880 09da 8AE7      		ldi r24,lo8(122)
 1881 09dc 40E0      		ldi r20,lo8(0)
 1882 09de 50E0      		ldi r21,hi8(0)
 1883 09e0 60E0      		ldi r22,hlo8(0)
 1884 09e2 70E0      		ldi r23,hhi8(0)
 1885 09e4 0E94 0000 		call send_cmd
 1886 09e8 8823      		tst r24
 1887 09ea 01F0      		breq .+2
 1888 09ec 00C0      		rjmp .L174
 1889               	.LBB525:
 1890               	.LBB526:
 1891               	.LM257:
 1892 09ee E0EC      		ldi r30,lo8(2496)
 1893 09f0 F9E0      		ldi r31,hi8(2496)
 1894 09f2 9FEF      		ldi r25,lo8(-1)
 1895               	.L190:
 1896 09f4 9383      		std Z+3,r25
 1897               	.L180:
 1898               	.LM258:
 1899 09f6 8091 C209 		lds r24,2498
 1900 09fa 87FF      		sbrs r24,7
 1901 09fc 00C0      		rjmp .L180
 1902               	.LM259:
 1903 09fe 8091 C309 		lds r24,2499
 1904               	.LBE526:
 1905               	.LBE525:
 1906               	.LM260:
 1907 0a02 D701      		movw r26,r14
 1908 0a04 8D93      		st X+,r24
 1909 0a06 7D01      		movw r14,r26
 1910 0a08 A017      		cp r26,r16
 1911 0a0a B107      		cpc r27,r17
 1912 0a0c 01F4      		brne .L190
 1913               	.LM261:
 1914 0a0e 8981      		ldd r24,Y+1
 1915 0a10 86FD      		sbrc r24,6
 1916 0a12 00C0      		rjmp .L182
 1917 0a14 14E0      		ldi r17,lo8(4)
 1918               	.LVL104:
 1919 0a16 00C0      		rjmp .L183
 1920               	.LVL105:
 1921               	.L182:
 1922 0a18 1CE0      		ldi r17,lo8(12)
 1923               	.LVL106:
 1924 0a1a 00C0      		rjmp .L183
 1925               	.LVL107:
 1926               	.L175:
 1927               	.LM262:
 1928 0a1c 89EE      		ldi r24,lo8(-23)
 1929 0a1e 40E0      		ldi r20,lo8(0)
 1930 0a20 50E0      		ldi r21,hi8(0)
 1931 0a22 60E0      		ldi r22,hlo8(0)
 1932 0a24 70E0      		ldi r23,hhi8(0)
 1933 0a26 0E94 0000 		call send_cmd
 1934 0a2a 8230      		cpi r24,lo8(2)
 1935 0a2c 00F0      		brlo .L184
 1936 0a2e 01E4      		ldi r16,lo8(65)
 1937               	.LVL108:
 1938 0a30 11E0      		ldi r17,lo8(1)
 1939               	.LVL109:
 1940 0a32 00C0      		rjmp .L192
 1941               	.LVL110:
 1942               	.L184:
 1943 0a34 09EE      		ldi r16,lo8(-23)
 1944               	.LVL111:
 1945 0a36 12E0      		ldi r17,lo8(2)
 1946               	.LVL112:
 1947               	.L192:
 1948               	.LM263:
 1949 0a38 8091 0000 		lds r24,Timer1
 1950 0a3c 8823      		tst r24
 1951 0a3e 01F0      		breq .L186
 1952 0a40 802F      		mov r24,r16
 1953 0a42 40E0      		ldi r20,lo8(0)
 1954 0a44 50E0      		ldi r21,hi8(0)
 1955 0a46 60E0      		ldi r22,hlo8(0)
 1956 0a48 70E0      		ldi r23,hhi8(0)
 1957 0a4a 0E94 0000 		call send_cmd
 1958 0a4e 8823      		tst r24
 1959 0a50 01F4      		brne .L192
 1960               	.L186:
 1961               	.LM264:
 1962 0a52 8091 0000 		lds r24,Timer1
 1963 0a56 8823      		tst r24
 1964 0a58 01F0      		breq .L174
 1965 0a5a 80E5      		ldi r24,lo8(80)
 1966 0a5c 40E0      		ldi r20,lo8(512)
 1967 0a5e 52E0      		ldi r21,hi8(512)
 1968 0a60 60E0      		ldi r22,hlo8(512)
 1969 0a62 70E0      		ldi r23,hhi8(512)
 1970 0a64 0E94 0000 		call send_cmd
 1971 0a68 8111      		cpse r24,__zero_reg__
 1972               	.L174:
 1973 0a6a 10E0      		ldi r17,lo8(0)
 1974               	.L183:
 1975               	.LM265:
 1976 0a6c 1093 0000 		sts CardType,r17
 1977               	.LBB527:
 1978               	.LBB528:
 1979               	.LM266:
 1980 0a70 80E1      		ldi r24,lo8(16)
 1981 0a72 E0E6      		ldi r30,lo8(1632)
 1982 0a74 F6E0      		ldi r31,hi8(1632)
 1983 0a76 8583      		std Z+5,r24
 1984               	.LBB529:
 1985               	.LBB530:
 1986               	.LM267:
 1987 0a78 8FEF      		ldi r24,lo8(-1)
 1988 0a7a E0EC      		ldi r30,lo8(2496)
 1989 0a7c F9E0      		ldi r31,hi8(2496)
 1990 0a7e 8383      		std Z+3,r24
 1991               	.L187:
 1992               	.LM268:
 1993 0a80 8091 C209 		lds r24,2498
 1994 0a84 87FF      		sbrs r24,7
 1995 0a86 00C0      		rjmp .L187
 1996               	.LM269:
 1997 0a88 8091 C309 		lds r24,2499
 1998               	.LBE530:
 1999               	.LBE529:
 2000               	.LBE528:
 2001               	.LBE527:
 2002               	.LM270:
 2003 0a8c 1123      		tst r17
 2004 0a8e 01F0      		breq .L188
 2005               	.LM271:
 2006 0a90 8091 0000 		lds r24,Stat
 2007 0a94 8E7F      		andi r24,lo8(-2)
 2008 0a96 8093 0000 		sts Stat,r24
 2009               	.LM272:
 2010 0a9a 80ED      		ldi r24,lo8(-48)
 2011 0a9c 8093 C009 		sts 2496,r24
 2012               	.L188:
 2013               	.LM273:
 2014 0aa0 8091 0000 		lds r24,Stat
 2015               	/* epilogue start */
 2016               	.LM274:
 2017 0aa4 2496      		adiw r28,4
 2018 0aa6 CDBF      		out __SP_L__,r28
 2019 0aa8 DEBF      		out __SP_H__,r29
 2020 0aaa CF91      		pop r28
 2021 0aac DF91      		pop r29
 2022 0aae 1F91      		pop r17
 2023               	.LVL113:
 2024 0ab0 0F91      		pop r16
 2025               	.LVL114:
 2026 0ab2 FF90      		pop r15
 2027 0ab4 EF90      		pop r14
 2028 0ab6 0895      		ret
 2029               	.LFE35:
 2031               	.global	disk_status
 2033               	disk_status:
 2034               	.LFB36:
 2035               	.LM275:
 2036               	.LVL115:
 2037               	/* prologue: function */
 2038               	/* frame size = 0 */
 2039               	.LM276:
 2040 0ab8 8823      		tst r24
 2041 0aba 01F0      		breq .L204
 2042 0abc 81E0      		ldi r24,lo8(1)
 2043               	.LVL116:
 2044 0abe 0895      		ret
 2045               	.LVL117:
 2046               	.L204:
 2047               	.LM277:
 2048 0ac0 8091 0000 		lds r24,Stat
 2049               	.LVL118:
 2050               	.LM278:
 2051 0ac4 0895      		ret
 2052               	.LFE36:
 2054               	.global	disk_read
 2056               	disk_read:
 2057               	.LFB37:
 2058               	.LM279:
 2059               	.LVL119:
 2060 0ac6 0F93      		push r16
 2061               	.LVL120:
 2062 0ac8 CF93      		push r28
 2063 0aca DF93      		push r29
 2064               	/* prologue: function */
 2065               	/* frame size = 0 */
 2066 0acc EB01      		movw r28,r22
 2067               	.LM280:
 2068 0ace 8823      		tst r24
 2069 0ad0 01F0      		breq .+2
 2070 0ad2 00C0      		rjmp .L208
 2071               	.LVL121:
 2072 0ad4 0023      		tst r16
 2073               	.LVL122:
 2074 0ad6 01F4      		brne .+2
 2075 0ad8 00C0      		rjmp .L208
 2076               	.LM281:
 2077 0ada 8091 0000 		lds r24,Stat
 2078               	.LVL123:
 2079 0ade 80FF      		sbrs r24,0
 2080 0ae0 00C0      		rjmp .L209
 2081 0ae2 03E0      		ldi r16,lo8(3)
 2082               	.LVL124:
 2083 0ae4 00C0      		rjmp .L210
 2084               	.LVL125:
 2085               	.L209:
 2086               	.LM282:
 2087 0ae6 8091 0000 		lds r24,CardType
 2088 0aea 83FD      		sbrc r24,3
 2089 0aec 00C0      		rjmp .L211
 2090 0aee 69E0      		ldi r22,9
 2091 0af0 220F      	1:	lsl r18
 2092 0af2 331F      		rol r19
 2093 0af4 441F      		rol r20
 2094 0af6 551F      		rol r21
 2095 0af8 6A95      		dec r22
 2096 0afa 01F4      		brne 1b
 2097               	.LVL126:
 2098               	.L211:
 2099               	.LM283:
 2100 0afc 0130      		cpi r16,lo8(1)
 2101 0afe 01F4      		brne .L212
 2102               	.LM284:
 2103 0b00 81E5      		ldi r24,lo8(81)
 2104 0b02 BA01      		movw r22,r20
 2105 0b04 A901      		movw r20,r18
 2106 0b06 0E94 0000 		call send_cmd
 2107               	.LVL127:
 2108 0b0a 8823      		tst r24
 2109 0b0c 01F4      		brne .L213
 2110 0b0e CE01      		movw r24,r28
 2111 0b10 60E0      		ldi r22,lo8(512)
 2112 0b12 72E0      		ldi r23,hi8(512)
 2113 0b14 0E94 0000 		call rcvr_datablock
 2114 0b18 00E0      		ldi r16,lo8(0)
 2115 0b1a 8823      		tst r24
 2116 0b1c 01F4      		brne .L213
 2117 0b1e 01E0      		ldi r16,lo8(1)
 2118 0b20 00C0      		rjmp .L213
 2119               	.LVL128:
 2120               	.L212:
 2121               	.LM285:
 2122 0b22 82E5      		ldi r24,lo8(82)
 2123 0b24 BA01      		movw r22,r20
 2124 0b26 A901      		movw r20,r18
 2125 0b28 0E94 0000 		call send_cmd
 2126               	.LVL129:
 2127 0b2c 8823      		tst r24
 2128 0b2e 01F4      		brne .L213
 2129               	.L221:
 2130               	.LM286:
 2131 0b30 CE01      		movw r24,r28
 2132 0b32 60E0      		ldi r22,lo8(512)
 2133 0b34 72E0      		ldi r23,hi8(512)
 2134 0b36 0E94 0000 		call rcvr_datablock
 2135 0b3a 8823      		tst r24
 2136 0b3c 01F0      		breq .L215
 2137               	.LM287:
 2138 0b3e 0150      		subi r16,lo8(-(-1))
 2139 0b40 01F0      		breq .L215
 2140               	.LM288:
 2141 0b42 C050      		subi r28,lo8(-(512))
 2142 0b44 DE4F      		sbci r29,hi8(-(512))
 2143 0b46 00C0      		rjmp .L221
 2144               	.L215:
 2145               	.LM289:
 2146 0b48 8CE4      		ldi r24,lo8(76)
 2147 0b4a 40E0      		ldi r20,lo8(0)
 2148 0b4c 50E0      		ldi r21,hi8(0)
 2149 0b4e 60E0      		ldi r22,hlo8(0)
 2150 0b50 70E0      		ldi r23,hhi8(0)
 2151 0b52 0E94 0000 		call send_cmd
 2152               	.L213:
 2153               	.LBB531:
 2154               	.LBB532:
 2155               	.LM290:
 2156 0b56 80E1      		ldi r24,lo8(16)
 2157 0b58 E0E6      		ldi r30,lo8(1632)
 2158 0b5a F6E0      		ldi r31,hi8(1632)
 2159 0b5c 8583      		std Z+5,r24
 2160               	.LBB533:
 2161               	.LBB534:
 2162               	.LM291:
 2163 0b5e 8FEF      		ldi r24,lo8(-1)
 2164 0b60 E0EC      		ldi r30,lo8(2496)
 2165 0b62 F9E0      		ldi r31,hi8(2496)
 2166 0b64 8383      		std Z+3,r24
 2167               	.L217:
 2168               	.LM292:
 2169 0b66 8091 C209 		lds r24,2498
 2170 0b6a 87FF      		sbrs r24,7
 2171 0b6c 00C0      		rjmp .L217
 2172               	.LM293:
 2173 0b6e 8091 C309 		lds r24,2499
 2174               	.LBE534:
 2175               	.LBE533:
 2176               	.LBE532:
 2177               	.LBE531:
 2178               	.LM294:
 2179 0b72 0023      		tst r16
 2180 0b74 01F0      		breq .L210
 2181 0b76 01E0      		ldi r16,lo8(1)
 2182               	.LVL130:
 2183 0b78 00C0      		rjmp .L210
 2184               	.LVL131:
 2185               	.L208:
 2186 0b7a 04E0      		ldi r16,lo8(4)
 2187               	.LVL132:
 2188               	.L210:
 2189               	.LM295:
 2190 0b7c 802F      		mov r24,r16
 2191               	.LVL133:
 2192               	/* epilogue start */
 2193 0b7e DF91      		pop r29
 2194 0b80 CF91      		pop r28
 2195               	.LVL134:
 2196 0b82 0F91      		pop r16
 2197 0b84 0895      		ret
 2198               	.LFE37:
 2200               	.global	disk_write
 2202               	disk_write:
 2203               	.LFB38:
 2204               	.LM296:
 2205               	.LVL135:
 2206 0b86 CF92      		push r12
 2207 0b88 DF92      		push r13
 2208 0b8a EF92      		push r14
 2209 0b8c FF92      		push r15
 2210 0b8e 0F93      		push r16
 2211               	.LVL136:
 2212 0b90 CF93      		push r28
 2213 0b92 DF93      		push r29
 2214               	/* prologue: function */
 2215               	/* frame size = 0 */
 2216 0b94 EB01      		movw r28,r22
 2217 0b96 6901      		movw r12,r18
 2218 0b98 7A01      		movw r14,r20
 2219               	.LM297:
 2220 0b9a 8823      		tst r24
 2221 0b9c 01F0      		breq .+2
 2222 0b9e 00C0      		rjmp .L223
 2223               	.LVL137:
 2224 0ba0 0023      		tst r16
 2225               	.LVL138:
 2226 0ba2 01F4      		brne .+2
 2227 0ba4 00C0      		rjmp .L223
 2228               	.LM298:
 2229 0ba6 8091 0000 		lds r24,Stat
 2230               	.LVL139:
 2231 0baa 80FF      		sbrs r24,0
 2232 0bac 00C0      		rjmp .L224
 2233 0bae 03E0      		ldi r16,lo8(3)
 2234               	.LVL140:
 2235 0bb0 00C0      		rjmp .L225
 2236               	.LVL141:
 2237               	.L224:
 2238               	.LM299:
 2239 0bb2 8091 0000 		lds r24,Stat
 2240 0bb6 82FF      		sbrs r24,2
 2241 0bb8 00C0      		rjmp .L226
 2242 0bba 02E0      		ldi r16,lo8(2)
 2243               	.LVL142:
 2244 0bbc 00C0      		rjmp .L225
 2245               	.LVL143:
 2246               	.L226:
 2247               	.LM300:
 2248 0bbe 8091 0000 		lds r24,CardType
 2249 0bc2 90E0      		ldi r25,lo8(0)
 2250 0bc4 83FD      		sbrc r24,3
 2251 0bc6 00C0      		rjmp .L227
 2252 0bc8 79E0      		ldi r23,9
 2253 0bca CC0C      	1:	lsl r12
 2254 0bcc DD1C      		rol r13
 2255 0bce EE1C      		rol r14
 2256 0bd0 FF1C      		rol r15
 2257 0bd2 7A95      		dec r23
 2258 0bd4 01F4      		brne 1b
 2259               	.LVL144:
 2260               	.L227:
 2261               	.LM301:
 2262 0bd6 0130      		cpi r16,lo8(1)
 2263 0bd8 01F4      		brne .L228
 2264               	.LM302:
 2265 0bda 88E5      		ldi r24,lo8(88)
 2266 0bdc B701      		movw r22,r14
 2267 0bde A601      		movw r20,r12
 2268 0be0 0E94 0000 		call send_cmd
 2269 0be4 8823      		tst r24
 2270 0be6 01F4      		brne .L229
 2271 0be8 CE01      		movw r24,r28
 2272 0bea 6EEF      		ldi r22,lo8(-2)
 2273 0bec 0E94 0000 		call xmit_datablock
 2274 0bf0 00E0      		ldi r16,lo8(0)
 2275 0bf2 00C0      		rjmp .L240
 2276               	.LVL145:
 2277               	.L228:
 2278               	.LM303:
 2279 0bf4 8670      		andi r24,lo8(6)
 2280 0bf6 9070      		andi r25,hi8(6)
 2281 0bf8 892B      		or r24,r25
 2282 0bfa 01F0      		breq .L231
 2283 0bfc 402F      		mov r20,r16
 2284 0bfe 50E0      		ldi r21,lo8(0)
 2285               	.LVL146:
 2286 0c00 60E0      		ldi r22,lo8(0)
 2287 0c02 70E0      		ldi r23,hi8(0)
 2288               	.LVL147:
 2289 0c04 87ED      		ldi r24,lo8(-41)
 2290 0c06 0E94 0000 		call send_cmd
 2291               	.LVL148:
 2292               	.L231:
 2293               	.LM304:
 2294 0c0a 89E5      		ldi r24,lo8(89)
 2295 0c0c B701      		movw r22,r14
 2296 0c0e A601      		movw r20,r12
 2297 0c10 0E94 0000 		call send_cmd
 2298 0c14 8823      		tst r24
 2299 0c16 01F4      		brne .L229
 2300               	.L238:
 2301               	.LM305:
 2302 0c18 CE01      		movw r24,r28
 2303 0c1a 6CEF      		ldi r22,lo8(-4)
 2304 0c1c 0E94 0000 		call xmit_datablock
 2305 0c20 8823      		tst r24
 2306 0c22 01F0      		breq .L232
 2307               	.LM306:
 2308 0c24 0150      		subi r16,lo8(-(-1))
 2309 0c26 01F0      		breq .L232
 2310               	.LM307:
 2311 0c28 C050      		subi r28,lo8(-(512))
 2312 0c2a DE4F      		sbci r29,hi8(-(512))
 2313 0c2c 00C0      		rjmp .L238
 2314               	.L232:
 2315               	.LM308:
 2316 0c2e 80E0      		ldi r24,lo8(0)
 2317 0c30 90E0      		ldi r25,hi8(0)
 2318 0c32 6DEF      		ldi r22,lo8(-3)
 2319 0c34 0E94 0000 		call xmit_datablock
 2320               	.L240:
 2321 0c38 8823      		tst r24
 2322 0c3a 01F4      		brne .L229
 2323 0c3c 01E0      		ldi r16,lo8(1)
 2324               	.L229:
 2325               	.LBB535:
 2326               	.LBB536:
 2327               	.LM309:
 2328 0c3e 80E1      		ldi r24,lo8(16)
 2329 0c40 E0E6      		ldi r30,lo8(1632)
 2330 0c42 F6E0      		ldi r31,hi8(1632)
 2331 0c44 8583      		std Z+5,r24
 2332               	.LBB537:
 2333               	.LBB538:
 2334               	.LM310:
 2335 0c46 8FEF      		ldi r24,lo8(-1)
 2336 0c48 E0EC      		ldi r30,lo8(2496)
 2337 0c4a F9E0      		ldi r31,hi8(2496)
 2338 0c4c 8383      		std Z+3,r24
 2339               	.L234:
 2340               	.LM311:
 2341 0c4e 8091 C209 		lds r24,2498
 2342 0c52 87FF      		sbrs r24,7
 2343 0c54 00C0      		rjmp .L234
 2344               	.LM312:
 2345 0c56 8091 C309 		lds r24,2499
 2346               	.LBE538:
 2347               	.LBE537:
 2348               	.LBE536:
 2349               	.LBE535:
 2350               	.LM313:
 2351 0c5a 0023      		tst r16
 2352 0c5c 01F0      		breq .L225
 2353 0c5e 01E0      		ldi r16,lo8(1)
 2354               	.LVL149:
 2355 0c60 00C0      		rjmp .L225
 2356               	.LVL150:
 2357               	.L223:
 2358 0c62 04E0      		ldi r16,lo8(4)
 2359               	.LVL151:
 2360               	.L225:
 2361               	.LM314:
 2362 0c64 802F      		mov r24,r16
 2363               	.LVL152:
 2364               	/* epilogue start */
 2365 0c66 DF91      		pop r29
 2366 0c68 CF91      		pop r28
 2367               	.LVL153:
 2368 0c6a 0F91      		pop r16
 2369 0c6c FF90      		pop r15
 2370 0c6e EF90      		pop r14
 2371 0c70 DF90      		pop r13
 2372 0c72 CF90      		pop r12
 2373               	.LVL154:
 2374 0c74 0895      		ret
 2375               	.LFE38:
 2377               	.global	disk_ioctl
 2379               	disk_ioctl:
 2380               	.LFB39:
 2381               	.LM315:
 2382               	.LVL155:
 2383 0c76 FF92      		push r15
 2384 0c78 0F93      		push r16
 2385 0c7a 1F93      		push r17
 2386 0c7c DF93      		push r29
 2387 0c7e CF93      		push r28
 2388 0c80 CDB7      		in r28,__SP_L__
 2389 0c82 DEB7      		in r29,__SP_H__
 2390 0c84 6097      		sbiw r28,16
 2391 0c86 CDBF      		out __SP_L__,r28
 2392 0c88 DEBF      		out __SP_H__,r29
 2393               	/* prologue: function */
 2394               	/* frame size = 16 */
 2395 0c8a 8A01      		movw r16,r20
 2396               	.LM316:
 2397 0c8c 8823      		tst r24
 2398 0c8e 01F0      		breq .+2
 2399 0c90 00C0      		rjmp .L242
 2400               	.LVL156:
 2401               	.LM317:
 2402 0c92 6430      		cpi r22,lo8(4)
 2403 0c94 01F4      		brne .L243
 2404               	.LM318:
 2405 0c96 FA01      		movw r30,r20
 2406 0c98 8081      		ld r24,Z
 2407               	.LVL157:
 2408 0c9a 8130      		cpi r24,lo8(1)
 2409 0c9c 01F0      		breq .L245
 2410               	.LVL158:
 2411 0c9e 8130      		cpi r24,lo8(1)
 2412 0ca0 00F4      		brsh .+2
 2413 0ca2 00C0      		rjmp .L244
 2414 0ca4 8230      		cpi r24,lo8(2)
 2415 0ca6 01F0      		breq .+2
 2416 0ca8 00C0      		rjmp .L242
 2417 0caa 00C0      		rjmp .L294
 2418               	.L245:
 2419               	.LBB539:
 2420               	.LBB540:
 2421               	.LM319:
 2422 0cac E0E6      		ldi r30,lo8(1632)
 2423 0cae F6E0      		ldi r31,hi8(1632)
 2424 0cb0 80EB      		ldi r24,lo8(-80)
 2425 0cb2 8183      		std Z+1,r24
 2426               	.LM320:
 2427 0cb4 88E3      		ldi r24,lo8(56)
 2428 0cb6 868B      		std Z+22,r24
 2429               	.LM321:
 2430 0cb8 1482      		std Z+4,__zero_reg__
 2431 0cba 8CE2      		ldi r24,lo8(300)
 2432 0cbc 91E0      		ldi r25,hi8(300)
 2433               	.LVL159:
 2434               	.LBB541:
 2435               	.LBB542:
 2436               	.LBB543:
 2437               	.LBB544:
 2438               	.LM322:
 2439 0cbe 20E7      		ldi r18,lo8(368)
 2440 0cc0 31E0      		ldi r19,hi8(368)
 2441               	.L247:
 2442 0cc2 F901      		movw r30,r18
 2443               	.LVL160:
 2444               	/* #APP */
 2445               	 ;  105 "/usr/local/CrossPack-AVR-20100115/lib/gcc/avr/4.3.3/../../../../avr/include/util/delay_bas
 2446 0cc4 3197      		1: sbiw r30,1
 2447 0cc6 01F4      		brne 1b
 2448               	 ;  0 "" 2
 2449               	/* #NOAPP */
 2450               	.LBE544:
 2451               	.LBE543:
 2452               	.LM323:
 2453 0cc8 0197      		sbiw r24,1
 2454               	.LM324:
 2455 0cca 01F4      		brne .L247
 2456 0ccc 00C0      		rjmp .L244
 2457               	.LVL161:
 2458               	.L294:
 2459               	.LBE542:
 2460               	.LBE541:
 2461               	.LBE540:
 2462               	.LBE539:
 2463               	.LM325:
 2464 0cce 81E0      		ldi r24,lo8(1)
 2465 0cd0 FA01      		movw r30,r20
 2466 0cd2 8183      		std Z+1,r24
 2467 0cd4 00C0      		rjmp .L244
 2468               	.LVL162:
 2469               	.L243:
 2470               	.LM326:
 2471 0cd6 8091 0000 		lds r24,Stat
 2472               	.LVL163:
 2473 0cda 80FF      		sbrs r24,0
 2474 0cdc 00C0      		rjmp .L249
 2475 0cde 93E0      		ldi r25,lo8(3)
 2476               	.LVL164:
 2477 0ce0 00C0      		rjmp .L248
 2478               	.LVL165:
 2479               	.L249:
 2480               	.LM327:
 2481 0ce2 6A30      		cpi r22,lo8(10)
 2482 0ce4 01F4      		brne .+2
 2483 0ce6 00C0      		rjmp .L255
 2484 0ce8 6B30      		cpi r22,lo8(11)
 2485 0cea 00F4      		brsh .L260
 2486 0cec 6130      		cpi r22,lo8(1)
 2487 0cee 01F0      		breq .L252
 2488 0cf0 6130      		cpi r22,lo8(1)
 2489 0cf2 00F0      		brlo .L251
 2490 0cf4 6230      		cpi r22,lo8(2)
 2491 0cf6 01F4      		brne .+2
 2492 0cf8 00C0      		rjmp .L253
 2493 0cfa 6330      		cpi r22,lo8(3)
 2494 0cfc 01F4      		brne .L250
 2495 0cfe 00C0      		rjmp .L295
 2496               	.L260:
 2497 0d00 6C30      		cpi r22,lo8(12)
 2498 0d02 01F4      		brne .+2
 2499 0d04 00C0      		rjmp .L257
 2500 0d06 6C30      		cpi r22,lo8(12)
 2501 0d08 00F4      		brsh .+2
 2502 0d0a 00C0      		rjmp .L256
 2503 0d0c 6D30      		cpi r22,lo8(13)
 2504 0d0e 01F4      		brne .+2
 2505 0d10 00C0      		rjmp .L258
 2506 0d12 6E30      		cpi r22,lo8(14)
 2507 0d14 01F4      		brne .+2
 2508 0d16 00C0      		rjmp .L259
 2509               	.L250:
 2510 0d18 94E0      		ldi r25,lo8(4)
 2511               	.LVL166:
 2512 0d1a 00C0      		rjmp .L261
 2513               	.LVL167:
 2514               	.L251:
 2515               	.LM328:
 2516 0d1c 0E94 0000 		call select
 2517               	.LVL168:
 2518 0d20 8823      		tst r24
 2519 0d22 01F4      		brne .+2
 2520 0d24 00C0      		rjmp .L262
 2521               	.LBB545:
 2522               	.LBB546:
 2523               	.LM329:
 2524 0d26 80E1      		ldi r24,lo8(16)
 2525 0d28 E0E6      		ldi r30,lo8(1632)
 2526 0d2a F6E0      		ldi r31,hi8(1632)
 2527 0d2c 8583      		std Z+5,r24
 2528               	.LBB547:
 2529               	.LBB548:
 2530               	.LM330:
 2531 0d2e 8FEF      		ldi r24,lo8(-1)
 2532 0d30 E0EC      		ldi r30,lo8(2496)
 2533 0d32 F9E0      		ldi r31,hi8(2496)
 2534 0d34 8383      		std Z+3,r24
 2535               	.L263:
 2536               	.LM331:
 2537 0d36 8091 C209 		lds r24,2498
 2538 0d3a 87FF      		sbrs r24,7
 2539 0d3c 00C0      		rjmp .L263
 2540               	.LM332:
 2541 0d3e 8091 C309 		lds r24,2499
 2542 0d42 00C0      		rjmp .L287
 2543               	.LVL169:
 2544               	.L252:
 2545               	.LBE548:
 2546               	.LBE547:
 2547               	.LBE546:
 2548               	.LBE545:
 2549               	.LM333:
 2550 0d44 89E4      		ldi r24,lo8(73)
 2551 0d46 40E0      		ldi r20,lo8(0)
 2552 0d48 50E0      		ldi r21,hi8(0)
 2553 0d4a 60E0      		ldi r22,hlo8(0)
 2554 0d4c 70E0      		ldi r23,hhi8(0)
 2555 0d4e 0E94 0000 		call send_cmd
 2556               	.LVL170:
 2557 0d52 8823      		tst r24
 2558 0d54 01F0      		breq .+2
 2559 0d56 00C0      		rjmp .L262
 2560 0d58 CE01      		movw r24,r28
 2561 0d5a 0196      		adiw r24,1
 2562 0d5c 60E1      		ldi r22,lo8(16)
 2563 0d5e 70E0      		ldi r23,hi8(16)
 2564 0d60 0E94 0000 		call rcvr_datablock
 2565 0d64 8823      		tst r24
 2566 0d66 01F4      		brne .+2
 2567 0d68 00C0      		rjmp .L262
 2568               	.LM334:
 2569 0d6a 8981      		ldd r24,Y+1
 2570 0d6c 8295      		swap r24
 2571 0d6e 8695      		lsr r24
 2572 0d70 8695      		lsr r24
 2573 0d72 8370      		andi r24,lo8(3)
 2574 0d74 7A85      		ldd r23,Y+10
 2575 0d76 4985      		ldd r20,Y+9
 2576 0d78 8130      		cpi r24,lo8(1)
 2577 0d7a 01F4      		brne .L264
 2578               	.LM335:
 2579 0d7c 872F      		mov r24,r23
 2580 0d7e 90E0      		ldi r25,lo8(0)
 2581 0d80 0196      		adiw r24,1
 2582 0d82 342F      		mov r19,r20
 2583 0d84 20E0      		ldi r18,lo8(0)
 2584 0d86 820F      		add r24,r18
 2585 0d88 931F      		adc r25,r19
 2586 0d8a A0E0      		ldi r26,lo8(0)
 2587 0d8c B0E0      		ldi r27,hi8(0)
 2588 0d8e 2AE0      		ldi r18,10
 2589 0d90 880F      	1:	lsl r24
 2590 0d92 991F      		rol r25
 2591 0d94 AA1F      		rol r26
 2592 0d96 BB1F      		rol r27
 2593 0d98 2A95      		dec r18
 2594 0d9a 01F4      		brne 1b
 2595 0d9c 00C0      		rjmp .L289
 2596               	.L264:
 2597               	.LM336:
 2598 0d9e 4295      		swap r20
 2599 0da0 4695      		lsr r20
 2600 0da2 4695      		lsr r20
 2601 0da4 4370      		andi r20,lo8(3)
 2602 0da6 2885      		ldd r18,Y+8
 2603 0da8 30E0      		ldi r19,lo8(0)
 2604 0daa 220F      		lsl r18
 2605 0dac 331F      		rol r19
 2606 0dae 220F      		lsl r18
 2607 0db0 331F      		rol r19
 2608 0db2 240F      		add r18,r20
 2609 0db4 311D      		adc r19,__zero_reg__
 2610 0db6 2F5F      		subi r18,lo8(-(1))
 2611 0db8 3F4F      		sbci r19,hi8(-(1))
 2612 0dba 8F81      		ldd r24,Y+7
 2613 0dbc 90E0      		ldi r25,lo8(0)
 2614 0dbe 8370      		andi r24,lo8(3)
 2615 0dc0 9070      		andi r25,hi8(3)
 2616 0dc2 982F      		mov r25,r24
 2617 0dc4 8827      		clr r24
 2618 0dc6 990F      		lsl r25
 2619 0dc8 990F      		lsl r25
 2620 0dca 280F      		add r18,r24
 2621 0dcc 391F      		adc r19,r25
 2622 0dce 40E0      		ldi r20,lo8(0)
 2623 0dd0 50E0      		ldi r21,hi8(0)
 2624 0dd2 8E81      		ldd r24,Y+6
 2625 0dd4 8F70      		andi r24,lo8(15)
 2626 0dd6 6B85      		ldd r22,Y+11
 2627 0dd8 661F      		rol r22
 2628 0dda 6627      		clr r22
 2629 0ddc 661F      		rol r22
 2630 0dde 860F      		add r24,r22
 2631 0de0 8E5F      		subi r24,lo8(-(2))
 2632 0de2 7370      		andi r23,lo8(3)
 2633 0de4 770F      		lsl r23
 2634 0de6 870F      		add r24,r23
 2635 0de8 90E0      		ldi r25,lo8(0)
 2636 0dea 0997      		sbiw r24,9
 2637 0dec 00C0      		rjmp 2f
 2638 0dee 220F      	1:	lsl r18
 2639 0df0 331F      		rol r19
 2640 0df2 441F      		rol r20
 2641 0df4 551F      		rol r21
 2642 0df6 8A95      	2:	dec r24
 2643 0df8 02F4      		brpl 1b
 2644 0dfa F801      		movw r30,r16
 2645 0dfc 2083      		st Z,r18
 2646 0dfe 3183      		std Z+1,r19
 2647 0e00 4283      		std Z+2,r20
 2648 0e02 5383      		std Z+3,r21
 2649 0e04 00C0      		rjmp .L287
 2650               	.LVL171:
 2651               	.L253:
 2652               	.LM337:
 2653 0e06 80E0      		ldi r24,lo8(512)
 2654 0e08 92E0      		ldi r25,hi8(512)
 2655 0e0a FA01      		movw r30,r20
 2656 0e0c 8083      		st Z,r24
 2657 0e0e 9183      		std Z+1,r25
 2658 0e10 00C0      		rjmp .L287
 2659               	.L295:
 2660               	.LM338:
 2661 0e12 8091 0000 		lds r24,CardType
 2662 0e16 F82E      		mov r15,r24
 2663 0e18 82FF      		sbrs r24,2
 2664 0e1a 00C0      		rjmp .L265
 2665               	.LM339:
 2666 0e1c 8DEC      		ldi r24,lo8(-51)
 2667 0e1e 40E0      		ldi r20,lo8(0)
 2668 0e20 50E0      		ldi r21,hi8(0)
 2669 0e22 60E0      		ldi r22,hlo8(0)
 2670 0e24 70E0      		ldi r23,hhi8(0)
 2671 0e26 0E94 0000 		call send_cmd
 2672               	.LVL172:
 2673 0e2a 8823      		tst r24
 2674 0e2c 01F0      		breq .+2
 2675 0e2e 00C0      		rjmp .L262
 2676               	.LBB549:
 2677               	.LBB550:
 2678               	.LM340:
 2679 0e30 8FEF      		ldi r24,lo8(-1)
 2680 0e32 E0EC      		ldi r30,lo8(2496)
 2681 0e34 F9E0      		ldi r31,hi8(2496)
 2682 0e36 8383      		std Z+3,r24
 2683               	.L266:
 2684               	.LM341:
 2685 0e38 8091 C209 		lds r24,2498
 2686 0e3c 87FF      		sbrs r24,7
 2687 0e3e 00C0      		rjmp .L266
 2688               	.LM342:
 2689 0e40 8091 C309 		lds r24,2499
 2690               	.LBE550:
 2691               	.LBE549:
 2692               	.LM343:
 2693 0e44 CE01      		movw r24,r28
 2694 0e46 0196      		adiw r24,1
 2695 0e48 60E1      		ldi r22,lo8(16)
 2696 0e4a 70E0      		ldi r23,hi8(16)
 2697 0e4c 0E94 0000 		call rcvr_datablock
 2698 0e50 8823      		tst r24
 2699 0e52 01F4      		brne .+2
 2700 0e54 00C0      		rjmp .L262
 2701 0e56 90E3      		ldi r25,lo8(48)
 2702               	.LVL173:
 2703               	.LBB551:
 2704               	.LBB552:
 2705               	.LM344:
 2706 0e58 E0EC      		ldi r30,lo8(2496)
 2707 0e5a F9E0      		ldi r31,hi8(2496)
 2708 0e5c 2FEF      		ldi r18,lo8(-1)
 2709               	.L268:
 2710 0e5e 2383      		std Z+3,r18
 2711               	.L267:
 2712               	.LM345:
 2713 0e60 8091 C209 		lds r24,2498
 2714 0e64 87FF      		sbrs r24,7
 2715 0e66 00C0      		rjmp .L267
 2716               	.LM346:
 2717 0e68 8091 C309 		lds r24,2499
 2718               	.LBE552:
 2719               	.LBE551:
 2720               	.LM347:
 2721 0e6c 9150      		subi r25,lo8(-(-1))
 2722 0e6e 01F4      		brne .L268
 2723               	.LM348:
 2724 0e70 2B85      		ldd r18,Y+11
 2725 0e72 2295      		swap r18
 2726 0e74 2F70      		andi r18,lo8(15)
 2727 0e76 80E1      		ldi r24,lo8(16)
 2728 0e78 90E0      		ldi r25,hi8(16)
 2729 0e7a A0E0      		ldi r26,hlo8(16)
 2730 0e7c B0E0      		ldi r27,hhi8(16)
 2731 0e7e 00C0      		rjmp 2f
 2732 0e80 880F      	1:	lsl r24
 2733 0e82 991F      		rol r25
 2734 0e84 AA1F      		rol r26
 2735 0e86 BB1F      		rol r27
 2736 0e88 2A95      	2:	dec r18
 2737 0e8a 02F4      		brpl 1b
 2738 0e8c 00C0      		rjmp .L289
 2739               	.LVL174:
 2740               	.L265:
 2741               	.LM349:
 2742 0e8e 89E4      		ldi r24,lo8(73)
 2743 0e90 40E0      		ldi r20,lo8(0)
 2744 0e92 50E0      		ldi r21,hi8(0)
 2745 0e94 60E0      		ldi r22,hlo8(0)
 2746 0e96 70E0      		ldi r23,hhi8(0)
 2747 0e98 0E94 0000 		call send_cmd
 2748               	.LVL175:
 2749 0e9c 8823      		tst r24
 2750 0e9e 01F0      		breq .+2
 2751 0ea0 00C0      		rjmp .L262
 2752 0ea2 CE01      		movw r24,r28
 2753 0ea4 0196      		adiw r24,1
 2754 0ea6 60E1      		ldi r22,lo8(16)
 2755 0ea8 70E0      		ldi r23,hi8(16)
 2756 0eaa 0E94 0000 		call rcvr_datablock
 2757 0eae 8823      		tst r24
 2758 0eb0 01F4      		brne .+2
 2759 0eb2 00C0      		rjmp .L262
 2760 0eb4 4B85      		ldd r20,Y+11
 2761 0eb6 8C85      		ldd r24,Y+12
 2762               	.LM350:
 2763 0eb8 F1FE      		sbrs r15,1
 2764 0eba 00C0      		rjmp .L269
 2765               	.LM351:
 2766 0ebc 881F      		rol r24
 2767 0ebe 8827      		clr r24
 2768 0ec0 881F      		rol r24
 2769 0ec2 90E0      		ldi r25,lo8(0)
 2770 0ec4 0196      		adiw r24,1
 2771 0ec6 242F      		mov r18,r20
 2772 0ec8 30E0      		ldi r19,lo8(0)
 2773 0eca 2F73      		andi r18,lo8(63)
 2774 0ecc 3070      		andi r19,hi8(63)
 2775 0ece 220F      		lsl r18
 2776 0ed0 331F      		rol r19
 2777 0ed2 820F      		add r24,r18
 2778 0ed4 931F      		adc r25,r19
 2779 0ed6 2E85      		ldd r18,Y+14
 2780 0ed8 2295      		swap r18
 2781 0eda 2695      		lsr r18
 2782 0edc 2695      		lsr r18
 2783 0ede 2370      		andi r18,lo8(3)
 2784 0ee0 30E0      		ldi r19,lo8(0)
 2785 0ee2 2150      		subi r18,lo8(-(-1))
 2786 0ee4 3040      		sbci r19,hi8(-(-1))
 2787 0ee6 00C0      		rjmp 2f
 2788 0ee8 880F      	1:	lsl r24
 2789 0eea 991F      		rol r25
 2790 0eec 2A95      	2:	dec r18
 2791 0eee 02F4      		brpl 1b
 2792 0ef0 00C0      		rjmp .L291
 2793               	.L269:
 2794               	.LM352:
 2795 0ef2 282F      		mov r18,r24
 2796 0ef4 30E0      		ldi r19,lo8(0)
 2797 0ef6 2370      		andi r18,lo8(3)
 2798 0ef8 3070      		andi r19,hi8(3)
 2799 0efa F3E0      		ldi r31,3
 2800 0efc 220F      	1:	lsl r18
 2801 0efe 331F      		rol r19
 2802 0f00 FA95      		dec r31
 2803 0f02 01F4      		brne 1b
 2804 0f04 8295      		swap r24
 2805 0f06 8695      		lsr r24
 2806 0f08 8770      		andi r24,lo8(7)
 2807 0f0a 280F      		add r18,r24
 2808 0f0c 311D      		adc r19,__zero_reg__
 2809 0f0e 2F5F      		subi r18,lo8(-(1))
 2810 0f10 3F4F      		sbci r19,hi8(-(1))
 2811 0f12 842F      		mov r24,r20
 2812 0f14 90E0      		ldi r25,lo8(0)
 2813 0f16 8C77      		andi r24,lo8(124)
 2814 0f18 9070      		andi r25,hi8(124)
 2815 0f1a 9595      		asr r25
 2816 0f1c 8795      		ror r24
 2817 0f1e 9595      		asr r25
 2818 0f20 8795      		ror r24
 2819 0f22 0196      		adiw r24,1
 2820 0f24 AC01      		movw r20,r24
 2821 0f26 249F      		mul r18,r20
 2822 0f28 C001      		movw r24,r0
 2823 0f2a 259F      		mul r18,r21
 2824 0f2c 900D      		add r25,r0
 2825 0f2e 349F      		mul r19,r20
 2826 0f30 900D      		add r25,r0
 2827 0f32 1124      		clr r1
 2828               	.L291:
 2829 0f34 A0E0      		ldi r26,lo8(0)
 2830 0f36 B0E0      		ldi r27,hi8(0)
 2831               	.LVL176:
 2832               	.L289:
 2833 0f38 F801      		movw r30,r16
 2834 0f3a 8083      		st Z,r24
 2835 0f3c 9183      		std Z+1,r25
 2836 0f3e A283      		std Z+2,r26
 2837 0f40 B383      		std Z+3,r27
 2838               	.LVL177:
 2839               	.L287:
 2840 0f42 90E0      		ldi r25,lo8(0)
 2841               	.LVL178:
 2842 0f44 00C0      		rjmp .L261
 2843               	.LVL179:
 2844               	.L255:
 2845               	.LM353:
 2846 0f46 8091 0000 		lds r24,CardType
 2847 0f4a FA01      		movw r30,r20
 2848 0f4c 8083      		st Z,r24
 2849 0f4e 00C0      		rjmp .L287
 2850               	.L256:
 2851               	.LM354:
 2852 0f50 89E4      		ldi r24,lo8(73)
 2853 0f52 00C0      		rjmp .L293
 2854               	.L257:
 2855               	.LM355:
 2856 0f54 8AE4      		ldi r24,lo8(74)
 2857               	.L293:
 2858 0f56 40E0      		ldi r20,lo8(0)
 2859 0f58 50E0      		ldi r21,hi8(0)
 2860 0f5a 60E0      		ldi r22,hlo8(0)
 2861 0f5c 70E0      		ldi r23,hhi8(0)
 2862 0f5e 0E94 0000 		call send_cmd
 2863               	.LVL180:
 2864 0f62 8823      		tst r24
 2865 0f64 01F4      		brne .L262
 2866 0f66 C801      		movw r24,r16
 2867 0f68 60E1      		ldi r22,lo8(16)
 2868 0f6a 70E0      		ldi r23,hi8(16)
 2869 0f6c 00C0      		rjmp .L288
 2870               	.LVL181:
 2871               	.L258:
 2872               	.LM356:
 2873 0f6e 8AE7      		ldi r24,lo8(122)
 2874 0f70 40E0      		ldi r20,lo8(0)
 2875 0f72 50E0      		ldi r21,hi8(0)
 2876 0f74 60E0      		ldi r22,hlo8(0)
 2877 0f76 70E0      		ldi r23,hhi8(0)
 2878 0f78 0E94 0000 		call send_cmd
 2879               	.LVL182:
 2880 0f7c 8823      		tst r24
 2881 0f7e 01F4      		brne .L262
 2882 0f80 F801      		movw r30,r16
 2883               	.LVL183:
 2884               	.LBB553:
 2885               	.LBB554:
 2886               	.LM357:
 2887 0f82 A0EC      		ldi r26,lo8(2496)
 2888 0f84 B9E0      		ldi r27,hi8(2496)
 2889 0f86 9FEF      		ldi r25,lo8(-1)
 2890               	.LBE554:
 2891               	.LBE553:
 2892               	.LM358:
 2893 0f88 9801      		movw r18,r16
 2894 0f8a 2D5F      		subi r18,lo8(-(3))
 2895 0f8c 3F4F      		sbci r19,hi8(-(3))
 2896               	.L274:
 2897               	.LBB556:
 2898               	.LBB555:
 2899               	.LM359:
 2900 0f8e 1396      		adiw r26,3
 2901 0f90 9C93      		st X,r25
 2902 0f92 1397      		sbiw r26,3
 2903               	.LVL184:
 2904               	.L272:
 2905               	.LM360:
 2906 0f94 8091 C209 		lds r24,2498
 2907 0f98 87FF      		sbrs r24,7
 2908 0f9a 00C0      		rjmp .L272
 2909               	.LM361:
 2910 0f9c 8091 C309 		lds r24,2499
 2911               	.LBE555:
 2912               	.LBE556:
 2913               	.LM362:
 2914 0fa0 8083      		st Z,r24
 2915 0fa2 E217      		cp r30,r18
 2916 0fa4 F307      		cpc r31,r19
 2917 0fa6 01F0      		breq .L287
 2918               	.LVL185:
 2919               	.L273:
 2920 0fa8 3196      		adiw r30,1
 2921 0faa 00C0      		rjmp .L274
 2922               	.LVL186:
 2923               	.L259:
 2924               	.LM363:
 2925 0fac 8DEC      		ldi r24,lo8(-51)
 2926 0fae 40E0      		ldi r20,lo8(0)
 2927 0fb0 50E0      		ldi r21,hi8(0)
 2928 0fb2 60E0      		ldi r22,hlo8(0)
 2929 0fb4 70E0      		ldi r23,hhi8(0)
 2930 0fb6 0E94 0000 		call send_cmd
 2931               	.LVL187:
 2932 0fba 8823      		tst r24
 2933 0fbc 01F4      		brne .L262
 2934               	.LBB557:
 2935               	.LBB558:
 2936               	.LM364:
 2937 0fbe 8FEF      		ldi r24,lo8(-1)
 2938 0fc0 E0EC      		ldi r30,lo8(2496)
 2939 0fc2 F9E0      		ldi r31,hi8(2496)
 2940 0fc4 8383      		std Z+3,r24
 2941               	.L275:
 2942               	.LM365:
 2943 0fc6 8091 C209 		lds r24,2498
 2944 0fca 87FF      		sbrs r24,7
 2945 0fcc 00C0      		rjmp .L275
 2946               	.LM366:
 2947 0fce 8091 C309 		lds r24,2499
 2948               	.LBE558:
 2949               	.LBE557:
 2950               	.LM367:
 2951 0fd2 C801      		movw r24,r16
 2952 0fd4 60E4      		ldi r22,lo8(64)
 2953 0fd6 70E0      		ldi r23,hi8(64)
 2954               	.L288:
 2955 0fd8 0E94 0000 		call rcvr_datablock
 2956 0fdc 90E0      		ldi r25,lo8(0)
 2957               	.LVL188:
 2958 0fde 8823      		tst r24
 2959 0fe0 01F4      		brne .L261
 2960               	.L262:
 2961 0fe2 91E0      		ldi r25,lo8(1)
 2962               	.LVL189:
 2963               	.L261:
 2964               	.LBB559:
 2965               	.LBB560:
 2966               	.LM368:
 2967 0fe4 80E1      		ldi r24,lo8(16)
 2968 0fe6 E0E6      		ldi r30,lo8(1632)
 2969 0fe8 F6E0      		ldi r31,hi8(1632)
 2970               	.LVL190:
 2971 0fea 8583      		std Z+5,r24
 2972               	.LBB561:
 2973               	.LBB562:
 2974               	.LM369:
 2975 0fec 8FEF      		ldi r24,lo8(-1)
 2976 0fee E0EC      		ldi r30,lo8(2496)
 2977 0ff0 F9E0      		ldi r31,hi8(2496)
 2978 0ff2 8383      		std Z+3,r24
 2979               	.L277:
 2980               	.LM370:
 2981 0ff4 8091 C209 		lds r24,2498
 2982 0ff8 87FF      		sbrs r24,7
 2983 0ffa 00C0      		rjmp .L277
 2984               	.LM371:
 2985 0ffc 8091 C309 		lds r24,2499
 2986 1000 00C0      		rjmp .L248
 2987               	.LVL191:
 2988               	.L242:
 2989 1002 94E0      		ldi r25,lo8(4)
 2990               	.LVL192:
 2991 1004 00C0      		rjmp .L248
 2992               	.LVL193:
 2993               	.L244:
 2994 1006 90E0      		ldi r25,lo8(0)
 2995               	.LVL194:
 2996               	.L248:
 2997               	.LBE562:
 2998               	.LBE561:
 2999               	.LBE560:
 3000               	.LBE559:
 3001               	.LM372:
 3002 1008 892F      		mov r24,r25
 3003               	.LVL195:
 3004               	/* epilogue start */
 3005 100a 6096      		adiw r28,16
 3006 100c CDBF      		out __SP_L__,r28
 3007 100e DEBF      		out __SP_H__,r29
 3008 1010 CF91      		pop r28
 3009 1012 DF91      		pop r29
 3010 1014 1F91      		pop r17
 3011 1016 0F91      		pop r16
 3012               	.LVL196:
 3013 1018 FF90      		pop r15
 3014 101a 0895      		ret
 3015               	.LFE39:
 3017               	.global	disk_timerproc
 3019               	disk_timerproc:
 3020               	.LFB40:
 3021               	.LM373:
 3022               	/* prologue: function */
 3023               	/* frame size = 0 */
 3024               	.LM374:
 3025 101c 8091 0000 		lds r24,Timer1
 3026               	.LVL197:
 3027               	.LM375:
 3028 1020 8823      		tst r24
 3029 1022 01F0      		breq .L297
 3030 1024 8150      		subi r24,lo8(-(-1))
 3031 1026 8093 0000 		sts Timer1,r24
 3032               	.L297:
 3033               	.LM376:
 3034 102a 8091 0000 		lds r24,Timer2
 3035               	.LVL198:
 3036               	.LM377:
 3037 102e 8823      		tst r24
 3038 1030 01F0      		breq .L298
 3039 1032 8150      		subi r24,lo8(-(-1))
 3040 1034 8093 0000 		sts Timer2,r24
 3041               	.L298:
 3042               	.LM378:
 3043 1038 8091 0000 		lds r24,Stat
 3044               	.LVL199:
 3045               	.LM379:
 3046 103c 897F      		andi r24,lo8(-7)
 3047               	.LM380:
 3048 103e 8093 0000 		sts Stat,r24
 3049               	/* epilogue start */
 3050               	.LM381:
 3051 1042 0895      		ret
 3052               	.LFE40:
 3054               	.global	get_fattime
 3056               	get_fattime:
 3057               	.LFB41:
 3058               	.LM382:
 3059               	/* prologue: function */
 3060               	/* frame size = 0 */
 3061               	.LM383:
 3062 1044 60E0      		ldi r22,lo8(0)
 3063 1046 70E0      		ldi r23,hi8(0)
 3064 1048 80E0      		ldi r24,hlo8(0)
 3065 104a 90E0      		ldi r25,hhi8(0)
 3066               	/* epilogue start */
 3067 104c 0895      		ret
 3068               	.LFE41:
 3071               	move_window:
 3072               	.LFB46:
 3073               	.LM384:
 3074               	.LVL200:
 3075 104e 6F92      		push r6
 3076 1050 7F92      		push r7
 3077 1052 8F92      		push r8
 3078 1054 9F92      		push r9
 3079 1056 AF92      		push r10
 3080 1058 BF92      		push r11
 3081 105a CF92      		push r12
 3082 105c DF92      		push r13
 3083 105e EF92      		push r14
 3084 1060 FF92      		push r15
 3085 1062 0F93      		push r16
 3086 1064 1F93      		push r17
 3087 1066 CF93      		push r28
 3088 1068 DF93      		push r29
 3089               	/* prologue: function */
 3090               	/* frame size = 0 */
 3091 106a EC01      		movw r28,r24
 3092 106c 4A01      		movw r8,r20
 3093 106e 5B01      		movw r10,r22
 3094               	.LM385:
 3095 1070 CAA4      		ldd r12,Y+42
 3096 1072 DBA4      		ldd r13,Y+43
 3097 1074 ECA4      		ldd r14,Y+44
 3098 1076 FDA4      		ldd r15,Y+45
 3099               	.LVL201:
 3100               	.LM386:
 3101 1078 C416      		cp r12,r20
 3102 107a D506      		cpc r13,r21
 3103 107c E606      		cpc r14,r22
 3104 107e F706      		cpc r15,r23
 3105 1080 01F4      		brne .+2
 3106 1082 00C0      		rjmp .L303
 3107               	.LVL202:
 3108               	.LM387:
 3109 1084 8C81      		ldd r24,Y+4
 3110 1086 8823      		tst r24
 3111 1088 01F0      		breq .L304
 3112               	.LM388:
 3113 108a 3EE2      		ldi r19,lo8(46)
 3114 108c 632E      		mov r6,r19
 3115 108e 712C      		mov r7,__zero_reg__
 3116 1090 6C0E      		add r6,r28
 3117 1092 7D1E      		adc r7,r29
 3118 1094 8981      		ldd r24,Y+1
 3119 1096 B301      		movw r22,r6
 3120 1098 A701      		movw r20,r14
 3121 109a 9601      		movw r18,r12
 3122 109c 01E0      		ldi r16,lo8(1)
 3123 109e 0E94 0000 		call disk_write
 3124               	.LVL203:
 3125 10a2 8823      		tst r24
 3126 10a4 01F4      		brne .L305
 3127               	.LM389:
 3128 10a6 1C82      		std Y+4,__zero_reg__
 3129               	.LM390:
 3130 10a8 8E89      		ldd r24,Y+22
 3131 10aa 9F89      		ldd r25,Y+23
 3132 10ac A88D      		ldd r26,Y+24
 3133 10ae B98D      		ldd r27,Y+25
 3134 10b0 2E8D      		ldd r18,Y+30
 3135 10b2 3F8D      		ldd r19,Y+31
 3136 10b4 48A1      		ldd r20,Y+32
 3137 10b6 59A1      		ldd r21,Y+33
 3138 10b8 820F      		add r24,r18
 3139 10ba 931F      		adc r25,r19
 3140 10bc A41F      		adc r26,r20
 3141 10be B51F      		adc r27,r21
 3142 10c0 C816      		cp r12,r24
 3143 10c2 D906      		cpc r13,r25
 3144 10c4 EA06      		cpc r14,r26
 3145 10c6 FB06      		cpc r15,r27
 3146 10c8 00F4      		brsh .L304
 3147               	.LBB563:
 3148               	.LM391:
 3149 10ca 1B81      		ldd r17,Y+3
 3150               	.LVL204:
 3151 10cc 00C0      		rjmp .L306
 3152               	.L307:
 3153               	.LM392:
 3154 10ce 8E89      		ldd r24,Y+22
 3155 10d0 9F89      		ldd r25,Y+23
 3156 10d2 A88D      		ldd r26,Y+24
 3157 10d4 B98D      		ldd r27,Y+25
 3158 10d6 C80E      		add r12,r24
 3159 10d8 D91E      		adc r13,r25
 3160 10da EA1E      		adc r14,r26
 3161 10dc FB1E      		adc r15,r27
 3162               	.LM393:
 3163 10de 8981      		ldd r24,Y+1
 3164 10e0 B301      		movw r22,r6
 3165 10e2 A701      		movw r20,r14
 3166 10e4 9601      		movw r18,r12
 3167 10e6 01E0      		ldi r16,lo8(1)
 3168 10e8 0E94 0000 		call disk_write
 3169               	.LM394:
 3170 10ec 1150      		subi r17,lo8(-(-1))
 3171               	.L306:
 3172 10ee 1230      		cpi r17,lo8(2)
 3173 10f0 00F4      		brsh .L307
 3174               	.LVL205:
 3175               	.L304:
 3176               	.LBE563:
 3177               	.LM395:
 3178 10f2 8114      		cp r8,__zero_reg__
 3179 10f4 9104      		cpc r9,__zero_reg__
 3180 10f6 A104      		cpc r10,__zero_reg__
 3181 10f8 B104      		cpc r11,__zero_reg__
 3182 10fa 01F0      		breq .L303
 3183               	.LM396:
 3184 10fc BE01      		movw r22,r28
 3185 10fe 625D      		subi r22,lo8(-(46))
 3186 1100 7F4F      		sbci r23,hi8(-(46))
 3187 1102 8981      		ldd r24,Y+1
 3188 1104 A501      		movw r20,r10
 3189 1106 9401      		movw r18,r8
 3190 1108 01E0      		ldi r16,lo8(1)
 3191 110a 0E94 0000 		call disk_read
 3192 110e 8823      		tst r24
 3193 1110 01F4      		brne .L305
 3194               	.LM397:
 3195 1112 8AA6      		std Y+42,r8
 3196 1114 9BA6      		std Y+43,r9
 3197 1116 ACA6      		std Y+44,r10
 3198 1118 BDA6      		std Y+45,r11
 3199 111a 00C0      		rjmp .L308
 3200               	.L305:
 3201 111c 81E0      		ldi r24,lo8(1)
 3202 111e 00C0      		rjmp .L308
 3203               	.LVL206:
 3204               	.L303:
 3205 1120 80E0      		ldi r24,lo8(0)
 3206               	.LVL207:
 3207               	.L308:
 3208               	/* epilogue start */
 3209               	.LM398:
 3210 1122 DF91      		pop r29
 3211 1124 CF91      		pop r28
 3212               	.LVL208:
 3213 1126 1F91      		pop r17
 3214               	.LVL209:
 3215 1128 0F91      		pop r16
 3216 112a FF90      		pop r15
 3217 112c EF90      		pop r14
 3218 112e DF90      		pop r13
 3219 1130 CF90      		pop r12
 3220               	.LVL210:
 3221 1132 BF90      		pop r11
 3222 1134 AF90      		pop r10
 3223 1136 9F90      		pop r9
 3224 1138 8F90      		pop r8
 3225               	.LVL211:
 3226 113a 7F90      		pop r7
 3227 113c 6F90      		pop r6
 3228 113e 0895      		ret
 3229               	.LFE46:
 3232               	sync:
 3233               	.LFB47:
 3234               	.LM399:
 3235               	.LVL212:
 3236 1140 0F93      		push r16
 3237 1142 CF93      		push r28
 3238 1144 DF93      		push r29
 3239               	/* prologue: function */
 3240               	/* frame size = 0 */
 3241 1146 EC01      		movw r28,r24
 3242               	.LM400:
 3243 1148 40E0      		ldi r20,lo8(0)
 3244 114a 50E0      		ldi r21,hi8(0)
 3245 114c 60E0      		ldi r22,hlo8(0)
 3246 114e 70E0      		ldi r23,hhi8(0)
 3247 1150 0E94 0000 		call move_window
 3248               	.LVL213:
 3249               	.LM401:
 3250 1154 8823      		tst r24
 3251               	.LVL214:
 3252 1156 01F0      		breq .+2
 3253 1158 00C0      		rjmp .L311
 3254               	.LM402:
 3255 115a 8881      		ld r24,Y
 3256               	.LVL215:
 3257 115c 8330      		cpi r24,lo8(3)
 3258 115e 01F0      		breq .+2
 3259 1160 00C0      		rjmp .L312
 3260 1162 8D81      		ldd r24,Y+5
 3261 1164 8823      		tst r24
 3262 1166 01F4      		brne .+2
 3263 1168 00C0      		rjmp .L312
 3264               	.LM403:
 3265 116a 1AA6      		std Y+42,__zero_reg__
 3266 116c 1BA6      		std Y+43,__zero_reg__
 3267 116e 1CA6      		std Y+44,__zero_reg__
 3268 1170 1DA6      		std Y+45,__zero_reg__
 3269               	.LBB564:
 3270               	.LBB565:
 3271               	.LM404:
 3272 1172 BE01      		movw r22,r28
 3273               	.LVL216:
 3274 1174 625D      		subi r22,lo8(-(46))
 3275 1176 7F4F      		sbci r23,hi8(-(46))
 3276 1178 FB01      		movw r30,r22
 3277 117a 80E0      		ldi r24,lo8(512)
 3278 117c 92E0      		ldi r25,hi8(512)
 3279               	.LVL217:
 3280 117e 00C0      		rjmp .L313
 3281               	.LVL218:
 3282               	.L314:
 3283               	.LM405:
 3284 1180 1192      		st Z+,__zero_reg__
 3285               	.L313:
 3286 1182 0197      		sbiw r24,1
 3287 1184 2FEF      		ldi r18,hi8(-1)
 3288 1186 8F3F      		cpi r24,lo8(-1)
 3289 1188 9207      		cpc r25,r18
 3290 118a 01F4      		brne .L314
 3291               	.LBE565:
 3292               	.LBE564:
 3293               	.LM406:
 3294 118c C45D      		subi r28,lo8(-(556))
 3295 118e DD4F      		sbci r29,hi8(-(556))
 3296 1190 85E5      		ldi r24,lo8(85)
 3297               	.LVL219:
 3298 1192 8993      		st Y+,r24
 3299 1194 8AEA      		ldi r24,lo8(-86)
 3300 1196 8883      		st Y,r24
 3301 1198 CD52      		subi r28,lo8(-(-557))
 3302 119a D240      		sbci r29,hi8(-(-557))
 3303               	.LM407:
 3304 119c 82E5      		ldi r24,lo8(82)
 3305 119e 8EA7      		std Y+46,r24
 3306 11a0 8FA7      		std Y+47,r24
 3307 11a2 21E6      		ldi r18,lo8(97)
 3308 11a4 28AB      		std Y+48,r18
 3309 11a6 91E4      		ldi r25,lo8(65)
 3310 11a8 99AB      		std Y+49,r25
 3311               	.LM408:
 3312 11aa CE5E      		subi r28,lo8(-(530))
 3313 11ac DD4F      		sbci r29,hi8(-(530))
 3314 11ae 82E7      		ldi r24,lo8(114)
 3315 11b0 8993      		st Y+,r24
 3316 11b2 8993      		st Y+,r24
 3317 11b4 9993      		st Y+,r25
 3318 11b6 2883      		st Y,r18
 3319 11b8 C551      		subi r28,lo8(-(-533))
 3320 11ba D240      		sbci r29,hi8(-(-533))
 3321               	.LM409:
 3322 11bc 8E85      		ldd r24,Y+14
 3323 11be CA5E      		subi r28,lo8(-(534))
 3324 11c0 DD4F      		sbci r29,hi8(-(534))
 3325 11c2 8883      		st Y,r24
 3326 11c4 C651      		subi r28,lo8(-(-534))
 3327 11c6 D240      		sbci r29,hi8(-(-534))
 3328 11c8 8F85      		ldd r24,Y+15
 3329 11ca C95E      		subi r28,lo8(-(535))
 3330 11cc DD4F      		sbci r29,hi8(-(535))
 3331 11ce 8883      		st Y,r24
 3332 11d0 C751      		subi r28,lo8(-(-535))
 3333 11d2 D240      		sbci r29,hi8(-(-535))
 3334 11d4 8E85      		ldd r24,Y+14
 3335 11d6 9F85      		ldd r25,Y+15
 3336 11d8 A889      		ldd r26,Y+16
 3337 11da B989      		ldd r27,Y+17
 3338 11dc 9D01      		movw r18,r26
 3339 11de 4427      		clr r20
 3340 11e0 5527      		clr r21
 3341 11e2 C85E      		subi r28,lo8(-(536))
 3342 11e4 DD4F      		sbci r29,hi8(-(536))
 3343 11e6 2883      		st Y,r18
 3344 11e8 2196      		adiw r28,1
 3345 11ea 8B2F      		mov r24,r27
 3346 11ec 9927      		clr r25
 3347 11ee AA27      		clr r26
 3348 11f0 BB27      		clr r27
 3349               	.LVL220:
 3350 11f2 8883      		st Y,r24
 3351 11f4 C951      		subi r28,lo8(-(-537))
 3352 11f6 D240      		sbci r29,hi8(-(-537))
 3353               	.LM410:
 3354 11f8 8A85      		ldd r24,Y+10
 3355 11fa C65E      		subi r28,lo8(-(538))
 3356 11fc DD4F      		sbci r29,hi8(-(538))
 3357 11fe 8883      		st Y,r24
 3358 1200 CA51      		subi r28,lo8(-(-538))
 3359 1202 D240      		sbci r29,hi8(-(-538))
 3360 1204 8B85      		ldd r24,Y+11
 3361 1206 C55E      		subi r28,lo8(-(539))
 3362 1208 DD4F      		sbci r29,hi8(-(539))
 3363 120a 8883      		st Y,r24
 3364 120c CB51      		subi r28,lo8(-(-539))
 3365 120e D240      		sbci r29,hi8(-(-539))
 3366 1210 8A85      		ldd r24,Y+10
 3367 1212 9B85      		ldd r25,Y+11
 3368 1214 AC85      		ldd r26,Y+12
 3369 1216 BD85      		ldd r27,Y+13
 3370 1218 9D01      		movw r18,r26
 3371 121a 4427      		clr r20
 3372 121c 5527      		clr r21
 3373 121e C45E      		subi r28,lo8(-(540))
 3374 1220 DD4F      		sbci r29,hi8(-(540))
 3375 1222 2883      		st Y,r18
 3376 1224 2196      		adiw r28,1
 3377 1226 8B2F      		mov r24,r27
 3378 1228 9927      		clr r25
 3379 122a AA27      		clr r26
 3380 122c BB27      		clr r27
 3381 122e 8883      		st Y,r24
 3382 1230 CD51      		subi r28,lo8(-(-541))
 3383 1232 D240      		sbci r29,hi8(-(-541))
 3384               	.LM411:
 3385 1234 2A89      		ldd r18,Y+18
 3386 1236 3B89      		ldd r19,Y+19
 3387 1238 4C89      		ldd r20,Y+20
 3388 123a 5D89      		ldd r21,Y+21
 3389 123c 8981      		ldd r24,Y+1
 3390 123e 01E0      		ldi r16,lo8(1)
 3391 1240 0E94 0000 		call disk_write
 3392               	.LVL221:
 3393               	.LM412:
 3394 1244 1D82      		std Y+5,__zero_reg__
 3395               	.L312:
 3396               	.LM413:
 3397 1246 8981      		ldd r24,Y+1
 3398 1248 60E0      		ldi r22,lo8(0)
 3399 124a 40E0      		ldi r20,lo8(0)
 3400 124c 50E0      		ldi r21,hi8(0)
 3401 124e 0E94 0000 		call disk_ioctl
 3402 1252 8111      		cpse r24,__zero_reg__
 3403 1254 81E0      		ldi r24,lo8(1)
 3404               	.LVL222:
 3405               	.L311:
 3406               	.LVL223:
 3407               	/* epilogue start */
 3408               	.LM414:
 3409 1256 DF91      		pop r29
 3410 1258 CF91      		pop r28
 3411               	.LVL224:
 3412 125a 0F91      		pop r16
 3413 125c 0895      		ret
 3414               	.LFE47:
 3416               	.global	get_fat
 3418               	get_fat:
 3419               	.LFB48:
 3420               	.LM415:
 3421               	.LVL225:
 3422 125e 7F92      		push r7
 3423 1260 8F92      		push r8
 3424 1262 9F92      		push r9
 3425 1264 AF92      		push r10
 3426 1266 BF92      		push r11
 3427 1268 CF92      		push r12
 3428 126a DF92      		push r13
 3429 126c EF92      		push r14
 3430 126e FF92      		push r15
 3431 1270 0F93      		push r16
 3432 1272 1F93      		push r17
 3433 1274 CF93      		push r28
 3434 1276 DF93      		push r29
 3435               	/* prologue: function */
 3436               	/* frame size = 0 */
 3437 1278 4C01      		movw r8,r24
 3438 127a 7A01      		movw r14,r20
 3439 127c 8B01      		movw r16,r22
 3440               	.LM416:
 3441 127e 4230      		cpi r20,lo8(2)
 3442 1280 5105      		cpc r21,__zero_reg__
 3443 1282 6105      		cpc r22,__zero_reg__
 3444 1284 7105      		cpc r23,__zero_reg__
 3445               	.LVL226:
 3446 1286 00F4      		brsh .+2
 3447 1288 00C0      		rjmp .L318
 3448 128a F401      		movw r30,r8
 3449 128c 828D      		ldd r24,Z+26
 3450 128e 938D      		ldd r25,Z+27
 3451 1290 A48D      		ldd r26,Z+28
 3452 1292 B58D      		ldd r27,Z+29
 3453 1294 4817      		cp r20,r24
 3454 1296 5907      		cpc r21,r25
 3455 1298 6A07      		cpc r22,r26
 3456 129a 7B07      		cpc r23,r27
 3457 129c 00F0      		brlo .+2
 3458 129e 00C0      		rjmp .L318
 3459               	.LM417:
 3460 12a0 A68C      		ldd r10,Z+30
 3461 12a2 B78C      		ldd r11,Z+31
 3462 12a4 C0A0      		ldd r12,Z+32
 3463 12a6 D1A0      		ldd r13,Z+33
 3464               	.LVL227:
 3465               	.LM418:
 3466 12a8 8081      		ld r24,Z
 3467 12aa 8230      		cpi r24,lo8(2)
 3468 12ac 01F4      		brne .+2
 3469 12ae 00C0      		rjmp .L321
 3470 12b0 8330      		cpi r24,lo8(3)
 3471 12b2 01F4      		brne .+2
 3472 12b4 00C0      		rjmp .L322
 3473 12b6 8130      		cpi r24,lo8(1)
 3474 12b8 01F0      		breq .+2
 3475 12ba 00C0      		rjmp .L319
 3476               	.LM419:
 3477 12bc EA01      		movw r28,r20
 3478               	.LVL228:
 3479 12be D695      		lsr r29
 3480 12c0 C795      		ror r28
 3481               	.LVL229:
 3482 12c2 C40F      		add r28,r20
 3483 12c4 D51F      		adc r29,r21
 3484               	.LM420:
 3485 12c6 AE01      		movw r20,r28
 3486               	.LVL230:
 3487 12c8 452F      		mov r20,r21
 3488 12ca 5527      		clr r21
 3489 12cc 4695      		lsr r20
 3490 12ce 60E0      		ldi r22,lo8(0)
 3491 12d0 70E0      		ldi r23,hi8(0)
 3492 12d2 4A0D      		add r20,r10
 3493 12d4 5B1D      		adc r21,r11
 3494 12d6 6C1D      		adc r22,r12
 3495 12d8 7D1D      		adc r23,r13
 3496 12da C401      		movw r24,r8
 3497 12dc 0E94 0000 		call move_window
 3498 12e0 8823      		tst r24
 3499 12e2 01F0      		breq .+2
 3500 12e4 00C0      		rjmp .L319
 3501               	.LM421:
 3502 12e6 FE01      		movw r30,r28
 3503 12e8 F170      		andi r31,hi8(511)
 3504 12ea E80D      		add r30,r8
 3505 12ec F91D      		adc r31,r9
 3506 12ee 76A4      		ldd r7,Z+46
 3507 12f0 2196      		adiw r28,1
 3508               	.LVL231:
 3509               	.LM422:
 3510 12f2 AE01      		movw r20,r28
 3511 12f4 452F      		mov r20,r21
 3512 12f6 5527      		clr r21
 3513 12f8 4695      		lsr r20
 3514 12fa 60E0      		ldi r22,lo8(0)
 3515 12fc 70E0      		ldi r23,hi8(0)
 3516 12fe 4A0D      		add r20,r10
 3517 1300 5B1D      		adc r21,r11
 3518 1302 6C1D      		adc r22,r12
 3519 1304 7D1D      		adc r23,r13
 3520 1306 C401      		movw r24,r8
 3521 1308 0E94 0000 		call move_window
 3522 130c 8823      		tst r24
 3523 130e 01F0      		breq .+2
 3524 1310 00C0      		rjmp .L319
 3525               	.LM423:
 3526 1312 672D      		mov r22,r7
 3527               	.LVL232:
 3528 1314 70E0      		ldi r23,lo8(0)
 3529               	.LVL233:
 3530               	.LM424:
 3531 1316 D170      		andi r29,hi8(511)
 3532 1318 C80D      		add r28,r8
 3533 131a D91D      		adc r29,r9
 3534 131c 9EA5      		ldd r25,Y+46
 3535 131e 80E0      		ldi r24,lo8(0)
 3536 1320 682B      		or r22,r24
 3537 1322 792B      		or r23,r25
 3538               	.LVL234:
 3539               	.LM425:
 3540 1324 C701      		movw r24,r14
 3541               	.LVL235:
 3542 1326 8170      		andi r24,lo8(1)
 3543 1328 9070      		andi r25,hi8(1)
 3544 132a 892B      		or r24,r25
 3545 132c 01F0      		breq .L323
 3546 132e 44E0      		ldi r20,4
 3547 1330 7695      	1:	lsr r23
 3548 1332 6795      		ror r22
 3549 1334 4A95      		dec r20
 3550 1336 01F4      		brne 1b
 3551 1338 9B01      		movw r18,r22
 3552 133a 00C0      		rjmp .L326
 3553               	.L323:
 3554 133c 9B01      		movw r18,r22
 3555 133e 40E0      		ldi r20,lo8(0)
 3556 1340 50E0      		ldi r21,hi8(0)
 3557 1342 3F70      		andi r19,hi8(4095)
 3558 1344 4070      		andi r20,hlo8(4095)
 3559 1346 5070      		andi r21,hhi8(4095)
 3560 1348 00C0      		rjmp .L324
 3561               	.LVL236:
 3562               	.L321:
 3563               	.LM426:
 3564 134a 452F      		mov r20,r21
 3565 134c 562F      		mov r21,r22
 3566 134e 672F      		mov r22,r23
 3567 1350 7727      		clr r23
 3568               	.LVL237:
 3569 1352 4A0D      		add r20,r10
 3570 1354 5B1D      		adc r21,r11
 3571 1356 6C1D      		adc r22,r12
 3572 1358 7D1D      		adc r23,r13
 3573 135a C401      		movw r24,r8
 3574 135c 0E94 0000 		call move_window
 3575 1360 8823      		tst r24
 3576 1362 01F0      		breq .+2
 3577 1364 00C0      		rjmp .L319
 3578               	.LM427:
 3579 1366 F701      		movw r30,r14
 3580               	.LVL238:
 3581 1368 EE0F      		lsl r30
 3582 136a FF1F      		rol r31
 3583 136c F170      		andi r31,hi8(511)
 3584 136e E80D      		add r30,r8
 3585 1370 F91D      		adc r31,r9
 3586 1372 97A5      		ldd r25,Z+47
 3587 1374 80E0      		ldi r24,lo8(0)
 3588 1376 26A5      		ldd r18,Z+46
 3589 1378 30E0      		ldi r19,lo8(0)
 3590 137a 822B      		or r24,r18
 3591 137c 932B      		or r25,r19
 3592 137e 9C01      		movw r18,r24
 3593               	.LVL239:
 3594               	.L326:
 3595 1380 40E0      		ldi r20,lo8(0)
 3596 1382 50E0      		ldi r21,hi8(0)
 3597 1384 00C0      		rjmp .L324
 3598               	.LVL240:
 3599               	.L322:
 3600               	.LM428:
 3601 1386 97E0      		ldi r25,7
 3602 1388 7695      	1:	lsr r23
 3603 138a 6795      		ror r22
 3604 138c 5795      		ror r21
 3605 138e 4795      		ror r20
 3606 1390 9A95      		dec r25
 3607 1392 01F4      		brne 1b
 3608               	.LVL241:
 3609 1394 4A0D      		add r20,r10
 3610 1396 5B1D      		adc r21,r11
 3611 1398 6C1D      		adc r22,r12
 3612 139a 7D1D      		adc r23,r13
 3613 139c C401      		movw r24,r8
 3614 139e 0E94 0000 		call move_window
 3615 13a2 8823      		tst r24
 3616 13a4 01F4      		brne .L319
 3617               	.LM429:
 3618 13a6 F701      		movw r30,r14
 3619               	.LVL242:
 3620 13a8 EE0F      		lsl r30
 3621 13aa FF1F      		rol r31
 3622 13ac EE0F      		lsl r30
 3623 13ae FF1F      		rol r31
 3624 13b0 F170      		andi r31,hi8(511)
 3625 13b2 E80D      		add r30,r8
 3626 13b4 F91D      		adc r31,r9
 3627 13b6 81A9      		ldd r24,Z+49
 3628 13b8 90E0      		ldi r25,lo8(0)
 3629 13ba A0E0      		ldi r26,lo8(0)
 3630 13bc B0E0      		ldi r27,hi8(0)
 3631 13be 582F      		mov r21,r24
 3632 13c0 4427      		clr r20
 3633 13c2 3327      		clr r19
 3634 13c4 2227      		clr r18
 3635 13c6 80A9      		ldd r24,Z+48
 3636 13c8 90E0      		ldi r25,lo8(0)
 3637 13ca A0E0      		ldi r26,lo8(0)
 3638 13cc B0E0      		ldi r27,hi8(0)
 3639 13ce DC01      		movw r26,r24
 3640 13d0 9927      		clr r25
 3641 13d2 8827      		clr r24
 3642 13d4 282B      		or r18,r24
 3643 13d6 392B      		or r19,r25
 3644 13d8 4A2B      		or r20,r26
 3645 13da 5B2B      		or r21,r27
 3646 13dc 86A5      		ldd r24,Z+46
 3647 13de 90E0      		ldi r25,lo8(0)
 3648 13e0 A0E0      		ldi r26,lo8(0)
 3649 13e2 B0E0      		ldi r27,hi8(0)
 3650 13e4 282B      		or r18,r24
 3651 13e6 392B      		or r19,r25
 3652 13e8 4A2B      		or r20,r26
 3653 13ea 5B2B      		or r21,r27
 3654 13ec 97A5      		ldd r25,Z+47
 3655 13ee 80E0      		ldi r24,lo8(0)
 3656 13f0 A0E0      		ldi r26,lo8(0)
 3657 13f2 B0E0      		ldi r27,hi8(0)
 3658 13f4 282B      		or r18,r24
 3659 13f6 392B      		or r19,r25
 3660 13f8 4A2B      		or r20,r26
 3661 13fa 5B2B      		or r21,r27
 3662 13fc 5F70      		andi r21,hhi8(268435455)
 3663 13fe 00C0      		rjmp .L324
 3664               	.LVL243:
 3665               	.L318:
 3666 1400 21E0      		ldi r18,lo8(1)
 3667 1402 30E0      		ldi r19,hi8(1)
 3668 1404 40E0      		ldi r20,hlo8(1)
 3669 1406 50E0      		ldi r21,hhi8(1)
 3670 1408 00C0      		rjmp .L324
 3671               	.LVL244:
 3672               	.L319:
 3673 140a 2FEF      		ldi r18,lo8(-1)
 3674 140c 3FEF      		ldi r19,hi8(-1)
 3675 140e 4FEF      		ldi r20,hlo8(-1)
 3676 1410 5FEF      		ldi r21,hhi8(-1)
 3677               	.LVL245:
 3678               	.L324:
 3679               	.LM430:
 3680 1412 B901      		movw r22,r18
 3681               	.LVL246:
 3682 1414 CA01      		movw r24,r20
 3683               	/* epilogue start */
 3684 1416 DF91      		pop r29
 3685 1418 CF91      		pop r28
 3686               	.LVL247:
 3687 141a 1F91      		pop r17
 3688 141c 0F91      		pop r16
 3689 141e FF90      		pop r15
 3690 1420 EF90      		pop r14
 3691               	.LVL248:
 3692 1422 DF90      		pop r13
 3693 1424 CF90      		pop r12
 3694 1426 BF90      		pop r11
 3695 1428 AF90      		pop r10
 3696               	.LVL249:
 3697 142a 9F90      		pop r9
 3698 142c 8F90      		pop r8
 3699               	.LVL250:
 3700 142e 7F90      		pop r7
 3701 1430 0895      		ret
 3702               	.LFE48:
 3704               	.global	put_fat
 3706               	put_fat:
 3707               	.LFB49:
 3708               	.LM431:
 3709               	.LVL251:
 3710 1432 2F92      		push r2
 3711 1434 3F92      		push r3
 3712 1436 4F92      		push r4
 3713 1438 5F92      		push r5
 3714 143a 6F92      		push r6
 3715 143c 7F92      		push r7
 3716 143e 8F92      		push r8
 3717 1440 9F92      		push r9
 3718 1442 AF92      		push r10
 3719 1444 BF92      		push r11
 3720 1446 CF92      		push r12
 3721 1448 DF92      		push r13
 3722 144a EF92      		push r14
 3723 144c FF92      		push r15
 3724 144e 0F93      		push r16
 3725               	.LVL252:
 3726 1450 1F93      		push r17
 3727 1452 CF93      		push r28
 3728 1454 DF93      		push r29
 3729               	/* prologue: function */
 3730               	/* frame size = 0 */
 3731 1456 3C01      		movw r6,r24
 3732 1458 6A01      		movw r12,r20
 3733 145a 7B01      		movw r14,r22
 3734 145c 4801      		movw r8,r16
 3735 145e 5901      		movw r10,r18
 3736               	.LVL253:
 3737               	.LM432:
 3738 1460 4230      		cpi r20,lo8(2)
 3739 1462 5105      		cpc r21,__zero_reg__
 3740 1464 6105      		cpc r22,__zero_reg__
 3741 1466 7105      		cpc r23,__zero_reg__
 3742               	.LVL254:
 3743 1468 00F4      		brsh .+2
 3744 146a 00C0      		rjmp .L328
 3745               	.LVL255:
 3746 146c F301      		movw r30,r6
 3747 146e 828D      		ldd r24,Z+26
 3748 1470 938D      		ldd r25,Z+27
 3749 1472 A48D      		ldd r26,Z+28
 3750 1474 B58D      		ldd r27,Z+29
 3751 1476 4817      		cp r20,r24
 3752 1478 5907      		cpc r21,r25
 3753 147a 6A07      		cpc r22,r26
 3754 147c 7B07      		cpc r23,r27
 3755 147e 00F0      		brlo .+2
 3756 1480 00C0      		rjmp .L328
 3757               	.LM433:
 3758 1482 268C      		ldd r2,Z+30
 3759 1484 378C      		ldd r3,Z+31
 3760 1486 40A0      		ldd r4,Z+32
 3761 1488 51A0      		ldd r5,Z+33
 3762               	.LVL256:
 3763               	.LM434:
 3764 148a 8081      		ld r24,Z
 3765 148c 8230      		cpi r24,lo8(2)
 3766 148e 01F4      		brne .+2
 3767 1490 00C0      		rjmp .L331
 3768 1492 8330      		cpi r24,lo8(3)
 3769 1494 01F4      		brne .+2
 3770 1496 00C0      		rjmp .L332
 3771 1498 8130      		cpi r24,lo8(1)
 3772 149a 01F0      		breq .L330
 3773 149c 22E0      		ldi r18,lo8(2)
 3774               	.LVL257:
 3775 149e 00C0      		rjmp .L333
 3776               	.LVL258:
 3777               	.L330:
 3778               	.LM435:
 3779 14a0 EA01      		movw r28,r20
 3780               	.LVL259:
 3781 14a2 D695      		lsr r29
 3782 14a4 C795      		ror r28
 3783               	.LVL260:
 3784 14a6 C40F      		add r28,r20
 3785 14a8 D51F      		adc r29,r21
 3786               	.LM436:
 3787 14aa AE01      		movw r20,r28
 3788               	.LVL261:
 3789 14ac 452F      		mov r20,r21
 3790 14ae 5527      		clr r21
 3791 14b0 4695      		lsr r20
 3792 14b2 60E0      		ldi r22,lo8(0)
 3793 14b4 70E0      		ldi r23,hi8(0)
 3794 14b6 420D      		add r20,r2
 3795 14b8 531D      		adc r21,r3
 3796 14ba 641D      		adc r22,r4
 3797 14bc 751D      		adc r23,r5
 3798 14be C301      		movw r24,r6
 3799 14c0 0E94 0000 		call move_window
 3800 14c4 282F      		mov r18,r24
 3801               	.LVL262:
 3802               	.LM437:
 3803 14c6 8823      		tst r24
 3804 14c8 01F0      		breq .+2
 3805 14ca 00C0      		rjmp .L333
 3806               	.LVL263:
 3807               	.LM438:
 3808 14cc DE01      		movw r26,r28
 3809 14ce B170      		andi r27,hi8(511)
 3810               	.LM439:
 3811 14d0 8601      		movw r16,r12
 3812               	.LVL264:
 3813 14d2 0170      		andi r16,lo8(1)
 3814 14d4 1070      		andi r17,hi8(1)
 3815 14d6 0115      		cp r16,__zero_reg__
 3816 14d8 1105      		cpc r17,__zero_reg__
 3817 14da 01F0      		breq .L334
 3818 14dc F301      		movw r30,r6
 3819 14de EA0F      		add r30,r26
 3820 14e0 FB1F      		adc r31,r27
 3821 14e2 86A5      		ldd r24,Z+46
 3822               	.LVL265:
 3823 14e4 8F70      		andi r24,lo8(15)
 3824 14e6 982D      		mov r25,r8
 3825               	.LVL266:
 3826 14e8 9295      		swap r25
 3827 14ea 907F      		andi r25,lo8(-16)
 3828 14ec 982B      		or r25,r24
 3829 14ee 00C0      		rjmp .L335
 3830               	.LVL267:
 3831               	.L334:
 3832 14f0 982D      		mov r25,r8
 3833               	.LVL268:
 3834               	.L335:
 3835 14f2 A60D      		add r26,r6
 3836 14f4 B71D      		adc r27,r7
 3837 14f6 9E96      		adiw r26,46
 3838 14f8 9C93      		st X,r25
 3839               	.LM440:
 3840 14fa 2196      		adiw r28,1
 3841               	.LVL269:
 3842               	.LM441:
 3843 14fc 81E0      		ldi r24,lo8(1)
 3844 14fe F301      		movw r30,r6
 3845 1500 8483      		std Z+4,r24
 3846               	.LM442:
 3847 1502 AE01      		movw r20,r28
 3848 1504 452F      		mov r20,r21
 3849 1506 5527      		clr r21
 3850 1508 4695      		lsr r20
 3851 150a 60E0      		ldi r22,lo8(0)
 3852 150c 70E0      		ldi r23,hi8(0)
 3853 150e 420D      		add r20,r2
 3854 1510 531D      		adc r21,r3
 3855 1512 641D      		adc r22,r4
 3856 1514 751D      		adc r23,r5
 3857 1516 C301      		movw r24,r6
 3858 1518 0E94 0000 		call move_window
 3859               	.LVL270:
 3860 151c 282F      		mov r18,r24
 3861               	.LVL271:
 3862               	.LM443:
 3863 151e 8823      		tst r24
 3864 1520 01F0      		breq .+2
 3865 1522 00C0      		rjmp .L333
 3866               	.LVL272:
 3867               	.LM444:
 3868 1524 D170      		andi r29,hi8(511)
 3869               	.LVL273:
 3870               	.LM445:
 3871 1526 012B      		or r16,r17
 3872 1528 01F0      		breq .L336
 3873 152a 64E0      		ldi r22,4
 3874 152c B694      	1:	lsr r11
 3875 152e A794      		ror r10
 3876 1530 9794      		ror r9
 3877 1532 8794      		ror r8
 3878 1534 6A95      		dec r22
 3879 1536 01F4      		brne 1b
 3880 1538 482D      		mov r20,r8
 3881 153a 00C0      		rjmp .L337
 3882               	.L336:
 3883 153c F301      		movw r30,r6
 3884 153e EC0F      		add r30,r28
 3885 1540 FD1F      		adc r31,r29
 3886 1542 46A5      		ldd r20,Z+46
 3887 1544 407F      		andi r20,lo8(-16)
 3888 1546 BB27      		clr r27
 3889 1548 AB2D      		mov r26,r11
 3890 154a 9A2D      		mov r25,r10
 3891 154c 892D      		mov r24,r9
 3892               	.LVL274:
 3893 154e 8F70      		andi r24,lo8(15)
 3894 1550 482B      		or r20,r24
 3895               	.LVL275:
 3896               	.L337:
 3897 1552 C60D      		add r28,r6
 3898 1554 D71D      		adc r29,r7
 3899 1556 4EA7      		std Y+46,r20
 3900 1558 00C0      		rjmp .L333
 3901               	.LVL276:
 3902               	.L331:
 3903               	.LM446:
 3904 155a 7727      		clr r23
 3905 155c 6F2D      		mov r22,r15
 3906 155e 5E2D      		mov r21,r14
 3907 1560 4D2D      		mov r20,r13
 3908               	.LVL277:
 3909 1562 420D      		add r20,r2
 3910 1564 531D      		adc r21,r3
 3911 1566 641D      		adc r22,r4
 3912 1568 751D      		adc r23,r5
 3913 156a C301      		movw r24,r6
 3914 156c 0E94 0000 		call move_window
 3915 1570 282F      		mov r18,r24
 3916               	.LVL278:
 3917               	.LM447:
 3918 1572 8823      		tst r24
 3919 1574 01F4      		brne .L333
 3920               	.LVL279:
 3921               	.LM448:
 3922 1576 F601      		movw r30,r12
 3923               	.LVL280:
 3924 1578 EE0F      		lsl r30
 3925 157a FF1F      		rol r31
 3926 157c F170      		andi r31,hi8(511)
 3927 157e E60D      		add r30,r6
 3928 1580 F71D      		adc r31,r7
 3929 1582 86A6      		std Z+46,r8
 3930 1584 892D      		mov r24,r9
 3931 1586 9927      		clr r25
 3932               	.LVL281:
 3933 1588 87A7      		std Z+47,r24
 3934 158a 00C0      		rjmp .L333
 3935               	.LVL282:
 3936               	.L332:
 3937               	.LM449:
 3938 158c 87E0      		ldi r24,7
 3939 158e 7695      	1:	lsr r23
 3940 1590 6795      		ror r22
 3941 1592 5795      		ror r21
 3942 1594 4795      		ror r20
 3943 1596 8A95      		dec r24
 3944 1598 01F4      		brne 1b
 3945               	.LVL283:
 3946 159a 420D      		add r20,r2
 3947 159c 531D      		adc r21,r3
 3948 159e 641D      		adc r22,r4
 3949 15a0 751D      		adc r23,r5
 3950 15a2 C301      		movw r24,r6
 3951 15a4 0E94 0000 		call move_window
 3952 15a8 282F      		mov r18,r24
 3953               	.LVL284:
 3954               	.LM450:
 3955 15aa 8823      		tst r24
 3956 15ac 01F4      		brne .L333
 3957               	.LVL285:
 3958               	.LM451:
 3959 15ae F601      		movw r30,r12
 3960               	.LVL286:
 3961 15b0 EE0F      		lsl r30
 3962 15b2 FF1F      		rol r31
 3963 15b4 EE0F      		lsl r30
 3964 15b6 FF1F      		rol r31
 3965 15b8 F170      		andi r31,hi8(511)
 3966 15ba E60D      		add r30,r6
 3967 15bc F71D      		adc r31,r7
 3968 15be 86A6      		std Z+46,r8
 3969 15c0 892D      		mov r24,r9
 3970 15c2 9927      		clr r25
 3971               	.LVL287:
 3972 15c4 87A7      		std Z+47,r24
 3973 15c6 C501      		movw r24,r10
 3974 15c8 AA27      		clr r26
 3975 15ca BB27      		clr r27
 3976 15cc 80AB      		std Z+48,r24
 3977 15ce 8B2D      		mov r24,r11
 3978 15d0 9927      		clr r25
 3979 15d2 AA27      		clr r26
 3980 15d4 BB27      		clr r27
 3981 15d6 81AB      		std Z+49,r24
 3982               	.LVL288:
 3983               	.L333:
 3984               	.LM452:
 3985 15d8 81E0      		ldi r24,lo8(1)
 3986 15da F301      		movw r30,r6
 3987 15dc 8483      		std Z+4,r24
 3988 15de 00C0      		rjmp .L338
 3989               	.LVL289:
 3990               	.L328:
 3991 15e0 22E0      		ldi r18,lo8(2)
 3992               	.LVL290:
 3993               	.L338:
 3994               	.LM453:
 3995 15e2 822F      		mov r24,r18
 3996               	/* epilogue start */
 3997 15e4 DF91      		pop r29
 3998 15e6 CF91      		pop r28
 3999               	.LVL291:
 4000 15e8 1F91      		pop r17
 4001 15ea 0F91      		pop r16
 4002 15ec FF90      		pop r15
 4003 15ee EF90      		pop r14
 4004 15f0 DF90      		pop r13
 4005 15f2 CF90      		pop r12
 4006 15f4 BF90      		pop r11
 4007 15f6 AF90      		pop r10
 4008 15f8 9F90      		pop r9
 4009 15fa 8F90      		pop r8
 4010               	.LVL292:
 4011 15fc 7F90      		pop r7
 4012 15fe 6F90      		pop r6
 4013               	.LVL293:
 4014 1600 5F90      		pop r5
 4015 1602 4F90      		pop r4
 4016 1604 3F90      		pop r3
 4017 1606 2F90      		pop r2
 4018               	.LVL294:
 4019 1608 0895      		ret
 4020               	.LFE49:
 4023               	remove_chain:
 4024               	.LFB50:
 4025               	.LM454:
 4026               	.LVL295:
 4027 160a 9F92      		push r9
 4028 160c AF92      		push r10
 4029 160e BF92      		push r11
 4030 1610 CF92      		push r12
 4031 1612 DF92      		push r13
 4032 1614 EF92      		push r14
 4033 1616 FF92      		push r15
 4034 1618 0F93      		push r16
 4035 161a 1F93      		push r17
 4036 161c CF93      		push r28
 4037 161e DF93      		push r29
 4038               	/* prologue: function */
 4039               	/* frame size = 0 */
 4040 1620 EC01      		movw r28,r24
 4041 1622 7A01      		movw r14,r20
 4042 1624 8B01      		movw r16,r22
 4043               	.LM455:
 4044 1626 4230      		cpi r20,lo8(2)
 4045 1628 5105      		cpc r21,__zero_reg__
 4046 162a 6105      		cpc r22,__zero_reg__
 4047 162c 7105      		cpc r23,__zero_reg__
 4048 162e 00F4      		brsh .+2
 4049 1630 00C0      		rjmp .L341
 4050               	.LVL296:
 4051 1632 8A8D      		ldd r24,Y+26
 4052 1634 9B8D      		ldd r25,Y+27
 4053 1636 AC8D      		ldd r26,Y+28
 4054 1638 BD8D      		ldd r27,Y+29
 4055 163a 4817      		cp r20,r24
 4056 163c 5907      		cpc r21,r25
 4057 163e 6A07      		cpc r22,r26
 4058 1640 7B07      		cpc r23,r27
 4059 1642 00F4      		brsh .+2
 4060 1644 00C0      		rjmp .L349
 4061 1646 00C0      		rjmp .L341
 4062               	.LVL297:
 4063               	.L347:
 4064               	.LM456:
 4065 1648 CE01      		movw r24,r28
 4066 164a B801      		movw r22,r16
 4067 164c A701      		movw r20,r14
 4068 164e 0E94 0000 		call get_fat
 4069 1652 5B01      		movw r10,r22
 4070 1654 6C01      		movw r12,r24
 4071               	.LM457:
 4072 1656 6115      		cp r22,__zero_reg__
 4073 1658 7105      		cpc r23,__zero_reg__
 4074 165a 8105      		cpc r24,__zero_reg__
 4075 165c 9105      		cpc r25,__zero_reg__
 4076 165e 01F4      		brne .+2
 4077 1660 00C0      		rjmp .L343
 4078               	.LVL298:
 4079               	.LM458:
 4080 1662 81E0      		ldi r24,lo8(1)
 4081 1664 A816      		cp r10,r24
 4082 1666 B104      		cpc r11,__zero_reg__
 4083 1668 C104      		cpc r12,__zero_reg__
 4084 166a D104      		cpc r13,__zero_reg__
 4085 166c 01F0      		breq .L341
 4086               	.LVL299:
 4087               	.LM459:
 4088 166e 2FEF      		ldi r18,lo8(-1)
 4089 1670 A216      		cp r10,r18
 4090 1672 2FEF      		ldi r18,hi8(-1)
 4091 1674 B206      		cpc r11,r18
 4092 1676 2FEF      		ldi r18,hlo8(-1)
 4093 1678 C206      		cpc r12,r18
 4094 167a 2FEF      		ldi r18,hhi8(-1)
 4095 167c D206      		cpc r13,r18
 4096 167e 01F4      		brne .L344
 4097 1680 81E0      		ldi r24,lo8(1)
 4098               	.LVL300:
 4099 1682 00C0      		rjmp .L345
 4100               	.LVL301:
 4101               	.L344:
 4102               	.LM460:
 4103 1684 CE01      		movw r24,r28
 4104 1686 B801      		movw r22,r16
 4105 1688 A701      		movw r20,r14
 4106 168a 00E0      		ldi r16,lo8(0)
 4107 168c 10E0      		ldi r17,hi8(0)
 4108 168e 20E0      		ldi r18,hlo8(0)
 4109 1690 30E0      		ldi r19,hhi8(0)
 4110 1692 0E94 0000 		call put_fat
 4111               	.LM461:
 4112 1696 8823      		tst r24
 4113               	.LVL302:
 4114 1698 01F4      		brne .L345
 4115               	.LM462:
 4116 169a 8E85      		ldd r24,Y+14
 4117 169c 9F85      		ldd r25,Y+15
 4118 169e A889      		ldd r26,Y+16
 4119 16a0 B989      		ldd r27,Y+17
 4120               	.LVL303:
 4121 16a2 8F3F      		cpi r24,lo8(-1)
 4122 16a4 2FEF      		ldi r18,hi8(-1)
 4123 16a6 9207      		cpc r25,r18
 4124 16a8 2FEF      		ldi r18,hlo8(-1)
 4125 16aa A207      		cpc r26,r18
 4126 16ac 2FEF      		ldi r18,hhi8(-1)
 4127 16ae B207      		cpc r27,r18
 4128 16b0 01F0      		breq .L346
 4129               	.LM463:
 4130 16b2 0196      		adiw r24,1
 4131 16b4 A11D      		adc r26,__zero_reg__
 4132 16b6 B11D      		adc r27,__zero_reg__
 4133 16b8 8E87      		std Y+14,r24
 4134 16ba 9F87      		std Y+15,r25
 4135 16bc A88B      		std Y+16,r26
 4136 16be B98B      		std Y+17,r27
 4137               	.LM464:
 4138 16c0 9D82      		std Y+5,r9
 4139               	.L346:
 4140 16c2 8601      		movw r16,r12
 4141 16c4 7501      		movw r14,r10
 4142 16c6 00C0      		rjmp .L350
 4143               	.LVL304:
 4144               	.L349:
 4145 16c8 9924      		clr r9
 4146 16ca 9394      		inc r9
 4147               	.LVL305:
 4148               	.L350:
 4149               	.LM465:
 4150 16cc 8A8D      		ldd r24,Y+26
 4151 16ce 9B8D      		ldd r25,Y+27
 4152 16d0 AC8D      		ldd r26,Y+28
 4153 16d2 BD8D      		ldd r27,Y+29
 4154 16d4 E816      		cp r14,r24
 4155 16d6 F906      		cpc r15,r25
 4156 16d8 0A07      		cpc r16,r26
 4157 16da 1B07      		cpc r17,r27
 4158 16dc 00F4      		brsh .+2
 4159 16de 00C0      		rjmp .L347
 4160 16e0 00C0      		rjmp .L343
 4161               	.LVL306:
 4162               	.L341:
 4163 16e2 82E0      		ldi r24,lo8(2)
 4164               	.LVL307:
 4165 16e4 00C0      		rjmp .L345
 4166               	.LVL308:
 4167               	.L343:
 4168 16e6 80E0      		ldi r24,lo8(0)
 4169               	.LVL309:
 4170               	.L345:
 4171               	.LVL310:
 4172               	/* epilogue start */
 4173               	.LM466:
 4174 16e8 DF91      		pop r29
 4175 16ea CF91      		pop r28
 4176               	.LVL311:
 4177 16ec 1F91      		pop r17
 4178 16ee 0F91      		pop r16
 4179 16f0 FF90      		pop r15
 4180 16f2 EF90      		pop r14
 4181               	.LVL312:
 4182 16f4 DF90      		pop r13
 4183 16f6 CF90      		pop r12
 4184 16f8 BF90      		pop r11
 4185 16fa AF90      		pop r10
 4186               	.LVL313:
 4187 16fc 9F90      		pop r9
 4188 16fe 0895      		ret
 4189               	.LFE50:
 4192               	create_chain:
 4193               	.LFB51:
 4194               	.LM467:
 4195               	.LVL314:
 4196 1700 2F92      		push r2
 4197 1702 3F92      		push r3
 4198 1704 4F92      		push r4
 4199 1706 5F92      		push r5
 4200 1708 6F92      		push r6
 4201 170a 7F92      		push r7
 4202 170c 8F92      		push r8
 4203 170e 9F92      		push r9
 4204 1710 AF92      		push r10
 4205 1712 BF92      		push r11
 4206 1714 CF92      		push r12
 4207 1716 DF92      		push r13
 4208 1718 EF92      		push r14
 4209 171a FF92      		push r15
 4210 171c 0F93      		push r16
 4211 171e 1F93      		push r17
 4212 1720 DF93      		push r29
 4213 1722 CF93      		push r28
 4214 1724 00D0      		rcall .
 4215 1726 0F92      		push __tmp_reg__
 4216 1728 CDB7      		in r28,__SP_L__
 4217 172a DEB7      		in r29,__SP_H__
 4218               	/* prologue: function */
 4219               	/* frame size = 4 */
 4220 172c 1C01      		movw r2,r24
 4221 172e 2A01      		movw r4,r20
 4222 1730 3B01      		movw r6,r22
 4223               	.LM468:
 4224 1732 DC01      		movw r26,r24
 4225 1734 5A96      		adiw r26,26
 4226 1736 8D91      		ld r24,X+
 4227 1738 9D91      		ld r25,X+
 4228 173a 0D90      		ld __tmp_reg__,X+
 4229 173c BC91      		ld r27,X
 4230 173e A02D      		mov r26,__tmp_reg__
 4231               	.LVL315:
 4232 1740 8983      		std Y+1,r24
 4233 1742 9A83      		std Y+2,r25
 4234 1744 AB83      		std Y+3,r26
 4235 1746 BC83      		std Y+4,r27
 4236               	.LVL316:
 4237               	.LM469:
 4238 1748 4115      		cp r20,__zero_reg__
 4239 174a 5105      		cpc r21,__zero_reg__
 4240 174c 6105      		cpc r22,__zero_reg__
 4241 174e 7105      		cpc r23,__zero_reg__
 4242 1750 01F4      		brne .L352
 4243               	.LM470:
 4244 1752 F101      		movw r30,r2
 4245 1754 8284      		ldd r8,Z+10
 4246 1756 9384      		ldd r9,Z+11
 4247 1758 A484      		ldd r10,Z+12
 4248 175a B584      		ldd r11,Z+13
 4249               	.LVL317:
 4250               	.LM471:
 4251 175c 8114      		cp r8,__zero_reg__
 4252 175e 9104      		cpc r9,__zero_reg__
 4253 1760 A104      		cpc r10,__zero_reg__
 4254 1762 B104      		cpc r11,__zero_reg__
 4255 1764 01F0      		breq .L353
 4256 1766 8816      		cp r8,r24
 4257 1768 9906      		cpc r9,r25
 4258 176a AA06      		cpc r10,r26
 4259 176c BB06      		cpc r11,r27
 4260 176e 00F4      		brsh .L353
 4261 1770 00C0      		rjmp .L354
 4262               	.LVL318:
 4263               	.L352:
 4264               	.LM472:
 4265 1772 C101      		movw r24,r2
 4266 1774 0E94 0000 		call get_fat
 4267               	.LVL319:
 4268 1778 9B01      		movw r18,r22
 4269 177a AC01      		movw r20,r24
 4270               	.LVL320:
 4271               	.LM473:
 4272 177c 6230      		cpi r22,lo8(2)
 4273 177e 7105      		cpc r23,__zero_reg__
 4274 1780 8105      		cpc r24,__zero_reg__
 4275 1782 9105      		cpc r25,__zero_reg__
 4276 1784 00F4      		brsh .L355
 4277               	.LVL321:
 4278 1786 21E0      		ldi r18,lo8(1)
 4279 1788 30E0      		ldi r19,hi8(1)
 4280 178a 40E0      		ldi r20,hlo8(1)
 4281 178c 50E0      		ldi r21,hhi8(1)
 4282               	.LVL322:
 4283 178e 00C0      		rjmp .L356
 4284               	.LVL323:
 4285               	.L355:
 4286               	.LM474:
 4287 1790 8981      		ldd r24,Y+1
 4288 1792 9A81      		ldd r25,Y+2
 4289 1794 AB81      		ldd r26,Y+3
 4290 1796 BC81      		ldd r27,Y+4
 4291 1798 2817      		cp r18,r24
 4292 179a 3907      		cpc r19,r25
 4293 179c 4A07      		cpc r20,r26
 4294 179e 5B07      		cpc r21,r27
 4295 17a0 00F4      		brsh .+2
 4296 17a2 00C0      		rjmp .L356
 4297               	.LVL324:
 4298 17a4 5301      		movw r10,r6
 4299 17a6 4201      		movw r8,r4
 4300               	.LVL325:
 4301 17a8 00C0      		rjmp .L354
 4302               	.LVL326:
 4303               	.L353:
 4304 17aa B1E0      		ldi r27,lo8(1)
 4305 17ac 8B2E      		mov r8,r27
 4306 17ae 912C      		mov r9,__zero_reg__
 4307 17b0 A12C      		mov r10,__zero_reg__
 4308 17b2 B12C      		mov r11,__zero_reg__
 4309               	.LVL327:
 4310               	.L354:
 4311 17b4 7501      		movw r14,r10
 4312 17b6 6401      		movw r12,r8
 4313               	.LVL328:
 4314               	.L360:
 4315               	.LM475:
 4316 17b8 0894      		sec
 4317 17ba C11C      		adc r12,__zero_reg__
 4318 17bc D11C      		adc r13,__zero_reg__
 4319 17be E11C      		adc r14,__zero_reg__
 4320 17c0 F11C      		adc r15,__zero_reg__
 4321               	.LM476:
 4322 17c2 8981      		ldd r24,Y+1
 4323 17c4 9A81      		ldd r25,Y+2
 4324 17c6 AB81      		ldd r26,Y+3
 4325 17c8 BC81      		ldd r27,Y+4
 4326 17ca C816      		cp r12,r24
 4327 17cc D906      		cpc r13,r25
 4328 17ce EA06      		cpc r14,r26
 4329 17d0 FB06      		cpc r15,r27
 4330 17d2 00F0      		brlo .L357
 4331               	.LM477:
 4332 17d4 92E0      		ldi r25,lo8(2)
 4333 17d6 8916      		cp r8,r25
 4334 17d8 9104      		cpc r9,__zero_reg__
 4335 17da A104      		cpc r10,__zero_reg__
 4336 17dc B104      		cpc r11,__zero_reg__
 4337 17de 00F4      		brsh .+2
 4338 17e0 00C0      		rjmp .L358
 4339 17e2 A2E0      		ldi r26,lo8(2)
 4340 17e4 CA2E      		mov r12,r26
 4341 17e6 D12C      		mov r13,__zero_reg__
 4342 17e8 E12C      		mov r14,__zero_reg__
 4343 17ea F12C      		mov r15,__zero_reg__
 4344               	.L357:
 4345               	.LM478:
 4346 17ec C101      		movw r24,r2
 4347 17ee B701      		movw r22,r14
 4348 17f0 A601      		movw r20,r12
 4349 17f2 0E94 0000 		call get_fat
 4350               	.LVL329:
 4351 17f6 9B01      		movw r18,r22
 4352 17f8 AC01      		movw r20,r24
 4353               	.LVL330:
 4354               	.LM479:
 4355 17fa 6115      		cp r22,__zero_reg__
 4356 17fc 7105      		cpc r23,__zero_reg__
 4357 17fe 8105      		cpc r24,__zero_reg__
 4358 1800 9105      		cpc r25,__zero_reg__
 4359 1802 01F0      		breq .L359
 4360               	.LVL331:
 4361               	.LM480:
 4362 1804 6F3F      		cpi r22,lo8(-1)
 4363 1806 AFEF      		ldi r26,hi8(-1)
 4364 1808 7A07      		cpc r23,r26
 4365 180a AFEF      		ldi r26,hlo8(-1)
 4366 180c 8A07      		cpc r24,r26
 4367 180e AFEF      		ldi r26,hhi8(-1)
 4368 1810 9A07      		cpc r25,r26
 4369 1812 01F4      		brne .+2
 4370 1814 00C0      		rjmp .L356
 4371 1816 6130      		cpi r22,lo8(1)
 4372 1818 7105      		cpc r23,__zero_reg__
 4373 181a 8105      		cpc r24,__zero_reg__
 4374 181c 9105      		cpc r25,__zero_reg__
 4375 181e 01F4      		brne .+2
 4376 1820 00C0      		rjmp .L356
 4377               	.LM481:
 4378 1822 C814      		cp r12,r8
 4379 1824 D904      		cpc r13,r9
 4380 1826 EA04      		cpc r14,r10
 4381 1828 FB04      		cpc r15,r11
 4382 182a 01F4      		brne .L360
 4383 182c 00C0      		rjmp .L358
 4384               	.L359:
 4385 182e BC2C      		mov r11,r12
 4386 1830 AD2C      		mov r10,r13
 4387               	.LVL332:
 4388 1832 9E2C      		mov r9,r14
 4389               	.LVL333:
 4390 1834 8F2C      		mov r8,r15
 4391               	.LVL334:
 4392               	.LM482:
 4393 1836 C101      		movw r24,r2
 4394 1838 A601      		movw r20,r12
 4395               	.LVL335:
 4396 183a B701      		movw r22,r14
 4397               	.LVL336:
 4398 183c 0FEF      		ldi r16,lo8(268435455)
 4399 183e 1FEF      		ldi r17,hi8(268435455)
 4400 1840 2FEF      		ldi r18,hlo8(268435455)
 4401 1842 3FE0      		ldi r19,hhi8(268435455)
 4402 1844 0E94 0000 		call put_fat
 4403               	.LVL337:
 4404 1848 8823      		tst r24
 4405 184a 01F4      		brne .L361
 4406               	.LVL338:
 4407               	.LM483:
 4408 184c 4114      		cp r4,__zero_reg__
 4409 184e 5104      		cpc r5,__zero_reg__
 4410 1850 6104      		cpc r6,__zero_reg__
 4411 1852 7104      		cpc r7,__zero_reg__
 4412 1854 01F0      		breq .L362
 4413               	.LM484:
 4414 1856 C101      		movw r24,r2
 4415 1858 B301      		movw r22,r6
 4416 185a A201      		movw r20,r4
 4417 185c 8601      		movw r16,r12
 4418 185e 9701      		movw r18,r14
 4419 1860 0E94 0000 		call put_fat
 4420 1864 8823      		tst r24
 4421 1866 01F4      		brne .L361
 4422               	.L362:
 4423               	.LM485:
 4424 1868 F101      		movw r30,r2
 4425 186a B286      		std Z+10,r11
 4426 186c A386      		std Z+11,r10
 4427 186e 9486      		std Z+12,r9
 4428 1870 8586      		std Z+13,r8
 4429               	.LM486:
 4430 1872 8685      		ldd r24,Z+14
 4431 1874 9785      		ldd r25,Z+15
 4432 1876 A089      		ldd r26,Z+16
 4433 1878 B189      		ldd r27,Z+17
 4434 187a 8F3F      		cpi r24,lo8(-1)
 4435 187c FFEF      		ldi r31,hi8(-1)
 4436 187e 9F07      		cpc r25,r31
 4437 1880 FFEF      		ldi r31,hlo8(-1)
 4438 1882 AF07      		cpc r26,r31
 4439 1884 FFEF      		ldi r31,hhi8(-1)
 4440 1886 BF07      		cpc r27,r31
 4441 1888 01F0      		breq .L365
 4442               	.L363:
 4443               	.LM487:
 4444 188a 0197      		sbiw r24,1
 4445 188c A109      		sbc r26,__zero_reg__
 4446 188e B109      		sbc r27,__zero_reg__
 4447 1890 F101      		movw r30,r2
 4448 1892 8687      		std Z+14,r24
 4449 1894 9787      		std Z+15,r25
 4450 1896 A08B      		std Z+16,r26
 4451 1898 B18B      		std Z+17,r27
 4452               	.LM488:
 4453 189a 81E0      		ldi r24,lo8(1)
 4454 189c 8583      		std Z+5,r24
 4455               	.L365:
 4456 189e A701      		movw r20,r14
 4457 18a0 9601      		movw r18,r12
 4458               	.LVL339:
 4459 18a2 00C0      		rjmp .L356
 4460               	.LVL340:
 4461               	.L358:
 4462 18a4 20E0      		ldi r18,lo8(0)
 4463 18a6 30E0      		ldi r19,hi8(0)
 4464 18a8 40E0      		ldi r20,hlo8(0)
 4465 18aa 50E0      		ldi r21,hhi8(0)
 4466 18ac 00C0      		rjmp .L356
 4467               	.LVL341:
 4468               	.L361:
 4469 18ae 2FEF      		ldi r18,lo8(-1)
 4470 18b0 3FEF      		ldi r19,hi8(-1)
 4471 18b2 4FEF      		ldi r20,hlo8(-1)
 4472 18b4 5FEF      		ldi r21,hhi8(-1)
 4473               	.LVL342:
 4474               	.L356:
 4475               	.LM489:
 4476 18b6 B901      		movw r22,r18
 4477               	.LVL343:
 4478 18b8 CA01      		movw r24,r20
 4479               	/* epilogue start */
 4480 18ba 2496      		adiw r28,4
 4481 18bc CDBF      		out __SP_L__,r28
 4482 18be DEBF      		out __SP_H__,r29
 4483 18c0 CF91      		pop r28
 4484 18c2 DF91      		pop r29
 4485 18c4 1F91      		pop r17
 4486 18c6 0F91      		pop r16
 4487 18c8 FF90      		pop r15
 4488 18ca EF90      		pop r14
 4489 18cc DF90      		pop r13
 4490 18ce CF90      		pop r12
 4491               	.LVL344:
 4492 18d0 BF90      		pop r11
 4493               	.LVL345:
 4494 18d2 AF90      		pop r10
 4495               	.LVL346:
 4496 18d4 9F90      		pop r9
 4497               	.LVL347:
 4498 18d6 8F90      		pop r8
 4499               	.LVL348:
 4500 18d8 7F90      		pop r7
 4501 18da 6F90      		pop r6
 4502 18dc 5F90      		pop r5
 4503 18de 4F90      		pop r4
 4504               	.LVL349:
 4505 18e0 3F90      		pop r3
 4506 18e2 2F90      		pop r2
 4507               	.LVL350:
 4508 18e4 0895      		ret
 4509               	.LFE51:
 4511               	.global	clust2sect
 4513               	clust2sect:
 4514               	.LFB52:
 4515               	.LM490:
 4516               	.LVL351:
 4517 18e6 EF92      		push r14
 4518 18e8 FF92      		push r15
 4519 18ea 0F93      		push r16
 4520 18ec 1F93      		push r17
 4521 18ee CF93      		push r28
 4522 18f0 DF93      		push r29
 4523               	/* prologue: function */
 4524               	/* frame size = 0 */
 4525 18f2 EC01      		movw r28,r24
 4526 18f4 7A01      		movw r14,r20
 4527 18f6 8B01      		movw r16,r22
 4528               	.LM491:
 4529 18f8 8EEF      		ldi r24,lo8(-2)
 4530 18fa 9FEF      		ldi r25,hi8(-2)
 4531 18fc AFEF      		ldi r26,hlo8(-2)
 4532 18fe BFEF      		ldi r27,hhi8(-2)
 4533               	.LVL352:
 4534 1900 E80E      		add r14,r24
 4535 1902 F91E      		adc r15,r25
 4536 1904 0A1F      		adc r16,r26
 4537 1906 1B1F      		adc r17,r27
 4538               	.LVL353:
 4539               	.LM492:
 4540 1908 8A8D      		ldd r24,Y+26
 4541 190a 9B8D      		ldd r25,Y+27
 4542 190c AC8D      		ldd r26,Y+28
 4543 190e BD8D      		ldd r27,Y+29
 4544 1910 0297      		sbiw r24,2
 4545 1912 A109      		sbc r26,__zero_reg__
 4546 1914 B109      		sbc r27,__zero_reg__
 4547 1916 E816      		cp r14,r24
 4548 1918 F906      		cpc r15,r25
 4549 191a 0A07      		cpc r16,r26
 4550 191c 1B07      		cpc r17,r27
 4551 191e 00F0      		brlo .L367
 4552 1920 20E0      		ldi r18,lo8(0)
 4553 1922 30E0      		ldi r19,hi8(0)
 4554 1924 40E0      		ldi r20,hlo8(0)
 4555 1926 50E0      		ldi r21,hhi8(0)
 4556 1928 00C0      		rjmp .L368
 4557               	.L367:
 4558               	.LM493:
 4559 192a 2A81      		ldd r18,Y+2
 4560 192c 30E0      		ldi r19,lo8(0)
 4561 192e 40E0      		ldi r20,lo8(0)
 4562 1930 50E0      		ldi r21,hi8(0)
 4563 1932 C801      		movw r24,r16
 4564 1934 B701      		movw r22,r14
 4565 1936 0E94 0000 		call __mulsi3
 4566 193a 9B01      		movw r18,r22
 4567 193c AC01      		movw r20,r24
 4568 193e 8EA1      		ldd r24,Y+38
 4569 1940 9FA1      		ldd r25,Y+39
 4570 1942 A8A5      		ldd r26,Y+40
 4571 1944 B9A5      		ldd r27,Y+41
 4572 1946 280F      		add r18,r24
 4573 1948 391F      		adc r19,r25
 4574 194a 4A1F      		adc r20,r26
 4575 194c 5B1F      		adc r21,r27
 4576               	.L368:
 4577               	.LM494:
 4578 194e B901      		movw r22,r18
 4579 1950 CA01      		movw r24,r20
 4580               	/* epilogue start */
 4581 1952 DF91      		pop r29
 4582 1954 CF91      		pop r28
 4583               	.LVL354:
 4584 1956 1F91      		pop r17
 4585 1958 0F91      		pop r16
 4586 195a FF90      		pop r15
 4587 195c EF90      		pop r14
 4588               	.LVL355:
 4589 195e 0895      		ret
 4590               	.LFE52:
 4593               	dir_seek:
 4594               	.LFB53:
 4595               	.LM495:
 4596               	.LVL356:
 4597 1960 AF92      		push r10
 4598 1962 BF92      		push r11
 4599 1964 CF92      		push r12
 4600 1966 DF92      		push r13
 4601 1968 EF92      		push r14
 4602 196a FF92      		push r15
 4603 196c 0F93      		push r16
 4604 196e 1F93      		push r17
 4605 1970 CF93      		push r28
 4606 1972 DF93      		push r29
 4607               	/* prologue: function */
 4608               	/* frame size = 0 */
 4609 1974 5C01      		movw r10,r24
 4610 1976 6B01      		movw r12,r22
 4611               	.LM496:
 4612 1978 DC01      		movw r26,r24
 4613 197a 1496      		adiw r26,4
 4614 197c 6D93      		st X+,r22
 4615 197e 7C93      		st X,r23
 4616 1980 1597      		sbiw r26,4+1
 4617               	.LM497:
 4618 1982 1696      		adiw r26,6
 4619 1984 4D91      		ld r20,X+
 4620 1986 5D91      		ld r21,X+
 4621 1988 6D91      		ld r22,X+
 4622 198a 7C91      		ld r23,X
 4623 198c 1997      		sbiw r26,6+3
 4624               	.LVL357:
 4625               	.LM498:
 4626 198e 4130      		cpi r20,lo8(1)
 4627 1990 5105      		cpc r21,__zero_reg__
 4628 1992 6105      		cpc r22,__zero_reg__
 4629 1994 7105      		cpc r23,__zero_reg__
 4630 1996 01F4      		brne .+2
 4631 1998 00C0      		rjmp .L371
 4632 199a ED91      		ld r30,X+
 4633 199c FC91      		ld r31,X
 4634 199e 828D      		ldd r24,Z+26
 4635 19a0 938D      		ldd r25,Z+27
 4636 19a2 A48D      		ldd r26,Z+28
 4637 19a4 B58D      		ldd r27,Z+29
 4638               	.LVL358:
 4639 19a6 4817      		cp r20,r24
 4640 19a8 5907      		cpc r21,r25
 4641 19aa 6A07      		cpc r22,r26
 4642 19ac 7B07      		cpc r23,r27
 4643 19ae 00F0      		brlo .+2
 4644 19b0 00C0      		rjmp .L371
 4645               	.LM499:
 4646 19b2 4115      		cp r20,__zero_reg__
 4647 19b4 5105      		cpc r21,__zero_reg__
 4648 19b6 6105      		cpc r22,__zero_reg__
 4649 19b8 7105      		cpc r23,__zero_reg__
 4650 19ba 01F4      		brne .L372
 4651 19bc 8081      		ld r24,Z
 4652 19be 8330      		cpi r24,lo8(3)
 4653 19c0 01F4      		brne .L373
 4654               	.LM500:
 4655 19c2 42A1      		ldd r20,Z+34
 4656 19c4 53A1      		ldd r21,Z+35
 4657 19c6 64A1      		ldd r22,Z+36
 4658 19c8 75A1      		ldd r23,Z+37
 4659               	.LM501:
 4660 19ca 4115      		cp r20,__zero_reg__
 4661 19cc 5105      		cpc r21,__zero_reg__
 4662 19ce 6105      		cpc r22,__zero_reg__
 4663 19d0 7105      		cpc r23,__zero_reg__
 4664 19d2 01F4      		brne .L372
 4665               	.L373:
 4666               	.LM502:
 4667 19d4 F501      		movw r30,r10
 4668 19d6 1286      		std Z+10,__zero_reg__
 4669 19d8 1386      		std Z+11,__zero_reg__
 4670 19da 1486      		std Z+12,__zero_reg__
 4671 19dc 1586      		std Z+13,__zero_reg__
 4672               	.LM503:
 4673 19de 0190      		ld __tmp_reg__,Z+
 4674 19e0 F081      		ld r31,Z
 4675 19e2 E02D      		mov r30,__tmp_reg__
 4676 19e4 8085      		ldd r24,Z+8
 4677 19e6 9185      		ldd r25,Z+9
 4678 19e8 C816      		cp r12,r24
 4679 19ea D906      		cpc r13,r25
 4680 19ec 00F0      		brlo .+2
 4681 19ee 00C0      		rjmp .L371
 4682               	.LVL359:
 4683               	.LM504:
 4684 19f0 C601      		movw r24,r12
 4685 19f2 24E0      		ldi r18,4
 4686 19f4 9695      	1:	lsr r25
 4687 19f6 8795      		ror r24
 4688 19f8 2A95      		dec r18
 4689 19fa 01F4      		brne 1b
 4690 19fc A0E0      		ldi r26,lo8(0)
 4691 19fe B0E0      		ldi r27,hi8(0)
 4692 1a00 22A1      		ldd r18,Z+34
 4693 1a02 33A1      		ldd r19,Z+35
 4694 1a04 44A1      		ldd r20,Z+36
 4695 1a06 55A1      		ldd r21,Z+37
 4696 1a08 820F      		add r24,r18
 4697 1a0a 931F      		adc r25,r19
 4698 1a0c A41F      		adc r26,r20
 4699 1a0e B51F      		adc r27,r21
 4700 1a10 F501      		movw r30,r10
 4701 1a12 8687      		std Z+14,r24
 4702 1a14 9787      		std Z+15,r25
 4703 1a16 A08B      		std Z+16,r26
 4704 1a18 B18B      		std Z+17,r27
 4705 1a1a 00C0      		rjmp .L374
 4706               	.LVL360:
 4707               	.L372:
 4708               	.LM505:
 4709 1a1c 8281      		ldd r24,Z+2
 4710 1a1e 082F      		mov r16,r24
 4711               	.LVL361:
 4712 1a20 10E0      		ldi r17,lo8(0)
 4713               	.LVL362:
 4714 1a22 94E0      		ldi r25,4
 4715 1a24 000F      	1:	lsl r16
 4716 1a26 111F      		rol r17
 4717 1a28 9A95      		dec r25
 4718 1a2a 01F4      		brne 1b
 4719               	.LVL363:
 4720 1a2c 00C0      		rjmp .L375
 4721               	.LVL364:
 4722               	.L378:
 4723               	.LM506:
 4724 1a2e CE01      		movw r24,r28
 4725 1a30 0E94 0000 		call get_fat
 4726               	.LVL365:
 4727 1a34 AB01      		movw r20,r22
 4728 1a36 BC01      		movw r22,r24
 4729               	.LVL366:
 4730               	.LM507:
 4731 1a38 4F3F      		cpi r20,lo8(-1)
 4732 1a3a FFEF      		ldi r31,hi8(-1)
 4733 1a3c 5F07      		cpc r21,r31
 4734 1a3e FFEF      		ldi r31,hlo8(-1)
 4735 1a40 6F07      		cpc r22,r31
 4736 1a42 FFEF      		ldi r31,hhi8(-1)
 4737 1a44 7F07      		cpc r23,r31
 4738 1a46 01F4      		brne .L376
 4739 1a48 81E0      		ldi r24,lo8(1)
 4740 1a4a 00C0      		rjmp .L377
 4741               	.L376:
 4742               	.LM508:
 4743 1a4c 4230      		cpi r20,lo8(2)
 4744 1a4e 5105      		cpc r21,__zero_reg__
 4745 1a50 6105      		cpc r22,__zero_reg__
 4746 1a52 7105      		cpc r23,__zero_reg__
 4747 1a54 00F4      		brsh .+2
 4748 1a56 00C0      		rjmp .L371
 4749 1a58 D501      		movw r26,r10
 4750 1a5a ED91      		ld r30,X+
 4751 1a5c FC91      		ld r31,X
 4752 1a5e 828D      		ldd r24,Z+26
 4753 1a60 938D      		ldd r25,Z+27
 4754 1a62 A48D      		ldd r26,Z+28
 4755 1a64 B58D      		ldd r27,Z+29
 4756 1a66 4817      		cp r20,r24
 4757 1a68 5907      		cpc r21,r25
 4758 1a6a 6A07      		cpc r22,r26
 4759 1a6c 7B07      		cpc r23,r27
 4760 1a6e 00F0      		brlo .+2
 4761 1a70 00C0      		rjmp .L371
 4762               	.LM509:
 4763 1a72 C01A      		sub r12,r16
 4764 1a74 D10A      		sbc r13,r17
 4765               	.LVL367:
 4766               	.L375:
 4767 1a76 F501      		movw r30,r10
 4768 1a78 C081      		ld r28,Z
 4769 1a7a D181      		ldd r29,Z+1
 4770               	.LM510:
 4771 1a7c C016      		cp r12,r16
 4772 1a7e D106      		cpc r13,r17
 4773 1a80 00F4      		brsh .L378
 4774               	.LM511:
 4775 1a82 D501      		movw r26,r10
 4776 1a84 1A96      		adiw r26,10
 4777 1a86 4D93      		st X+,r20
 4778 1a88 5D93      		st X+,r21
 4779 1a8a 6D93      		st X+,r22
 4780 1a8c 7C93      		st X,r23
 4781 1a8e 1D97      		sbiw r26,10+3
 4782               	.LBB566:
 4783               	.LBB567:
 4784               	.LM512:
 4785 1a90 8EEF      		ldi r24,lo8(-2)
 4786 1a92 E82E      		mov r14,r24
 4787 1a94 8FEF      		ldi r24,hi8(-2)
 4788 1a96 F82E      		mov r15,r24
 4789 1a98 8FEF      		ldi r24,hlo8(-2)
 4790 1a9a 082F      		mov r16,r24
 4791 1a9c 8FEF      		ldi r24,hhi8(-2)
 4792 1a9e 182F      		mov r17,r24
 4793               	.LVL368:
 4794 1aa0 E40E      		add r14,r20
 4795 1aa2 F51E      		adc r15,r21
 4796 1aa4 061F      		adc r16,r22
 4797 1aa6 171F      		adc r17,r23
 4798               	.LM513:
 4799 1aa8 8A8D      		ldd r24,Y+26
 4800 1aaa 9B8D      		ldd r25,Y+27
 4801 1aac AC8D      		ldd r26,Y+28
 4802 1aae BD8D      		ldd r27,Y+29
 4803 1ab0 0297      		sbiw r24,2
 4804 1ab2 A109      		sbc r26,__zero_reg__
 4805 1ab4 B109      		sbc r27,__zero_reg__
 4806 1ab6 E816      		cp r14,r24
 4807 1ab8 F906      		cpc r15,r25
 4808 1aba 0A07      		cpc r16,r26
 4809 1abc 1B07      		cpc r17,r27
 4810 1abe 00F0      		brlo .L379
 4811 1ac0 20E0      		ldi r18,lo8(0)
 4812 1ac2 30E0      		ldi r19,hi8(0)
 4813 1ac4 40E0      		ldi r20,hlo8(0)
 4814 1ac6 50E0      		ldi r21,hhi8(0)
 4815 1ac8 00C0      		rjmp .L380
 4816               	.L379:
 4817               	.LM514:
 4818 1aca 2A81      		ldd r18,Y+2
 4819 1acc 30E0      		ldi r19,lo8(0)
 4820 1ace 40E0      		ldi r20,lo8(0)
 4821 1ad0 50E0      		ldi r21,hi8(0)
 4822               	.LVL369:
 4823 1ad2 C801      		movw r24,r16
 4824 1ad4 B701      		movw r22,r14
 4825 1ad6 0E94 0000 		call __mulsi3
 4826 1ada 9B01      		movw r18,r22
 4827 1adc AC01      		movw r20,r24
 4828 1ade 8EA1      		ldd r24,Y+38
 4829 1ae0 9FA1      		ldd r25,Y+39
 4830 1ae2 A8A5      		ldd r26,Y+40
 4831 1ae4 B9A5      		ldd r27,Y+41
 4832 1ae6 280F      		add r18,r24
 4833 1ae8 391F      		adc r19,r25
 4834 1aea 4A1F      		adc r20,r26
 4835 1aec 5B1F      		adc r21,r27
 4836               	.LVL370:
 4837               	.L380:
 4838               	.LBE567:
 4839               	.LBE566:
 4840               	.LM515:
 4841 1aee C601      		movw r24,r12
 4842 1af0 04E0      		ldi r16,4
 4843 1af2 9695      	1:	lsr r25
 4844 1af4 8795      		ror r24
 4845 1af6 0A95      		dec r16
 4846 1af8 01F4      		brne 1b
 4847               	.LVL371:
 4848 1afa A0E0      		ldi r26,lo8(0)
 4849 1afc B0E0      		ldi r27,hi8(0)
 4850 1afe 280F      		add r18,r24
 4851 1b00 391F      		adc r19,r25
 4852 1b02 4A1F      		adc r20,r26
 4853 1b04 5B1F      		adc r21,r27
 4854 1b06 F501      		movw r30,r10
 4855 1b08 2687      		std Z+14,r18
 4856 1b0a 3787      		std Z+15,r19
 4857 1b0c 408B      		std Z+16,r20
 4858 1b0e 518B      		std Z+17,r21
 4859               	.L374:
 4860               	.LM516:
 4861 1b10 FFE0      		ldi r31,lo8(15)
 4862 1b12 CF22      		and r12,r31
 4863 1b14 DD24      		clr r13
 4864 1b16 15E0      		ldi r17,5
 4865 1b18 CC0C      	1:	lsl r12
 4866 1b1a DD1C      		rol r13
 4867 1b1c 1A95      		dec r17
 4868 1b1e 01F4      		brne 1b
 4869               	.LVL372:
 4870 1b20 8EE2      		ldi r24,lo8(46)
 4871 1b22 90E0      		ldi r25,hi8(46)
 4872 1b24 C80E      		add r12,r24
 4873 1b26 D91E      		adc r13,r25
 4874 1b28 D501      		movw r26,r10
 4875 1b2a 8D91      		ld r24,X+
 4876 1b2c 9C91      		ld r25,X
 4877 1b2e 1197      		sbiw r26,1
 4878 1b30 8C0D      		add r24,r12
 4879 1b32 9D1D      		adc r25,r13
 4880 1b34 5296      		adiw r26,18
 4881 1b36 8D93      		st X+,r24
 4882 1b38 9C93      		st X,r25
 4883 1b3a 5397      		sbiw r26,18+1
 4884 1b3c 80E0      		ldi r24,lo8(0)
 4885 1b3e 00C0      		rjmp .L377
 4886               	.LVL373:
 4887               	.L371:
 4888               	.LM517:
 4889 1b40 82E0      		ldi r24,lo8(2)
 4890               	.LVL374:
 4891               	.L377:
 4892               	/* epilogue start */
 4893               	.LM518:
 4894 1b42 DF91      		pop r29
 4895 1b44 CF91      		pop r28
 4896 1b46 1F91      		pop r17
 4897               	.LVL375:
 4898 1b48 0F91      		pop r16
 4899               	.LVL376:
 4900 1b4a FF90      		pop r15
 4901 1b4c EF90      		pop r14
 4902               	.LVL377:
 4903 1b4e DF90      		pop r13
 4904 1b50 CF90      		pop r12
 4905               	.LVL378:
 4906 1b52 BF90      		pop r11
 4907 1b54 AF90      		pop r10
 4908               	.LVL379:
 4909 1b56 0895      		ret
 4910               	.LFE53:
 4913               	dir_next:
 4914               	.LFB54:
 4915               	.LM519:
 4916               	.LVL380:
 4917 1b58 4F92      		push r4
 4918 1b5a 5F92      		push r5
 4919 1b5c 6F92      		push r6
 4920 1b5e 7F92      		push r7
 4921 1b60 8F92      		push r8
 4922 1b62 9F92      		push r9
 4923 1b64 AF92      		push r10
 4924 1b66 BF92      		push r11
 4925 1b68 CF92      		push r12
 4926 1b6a DF92      		push r13
 4927 1b6c EF92      		push r14
 4928 1b6e FF92      		push r15
 4929 1b70 0F93      		push r16
 4930 1b72 1F93      		push r17
 4931 1b74 CF93      		push r28
 4932 1b76 DF93      		push r29
 4933               	/* prologue: function */
 4934               	/* frame size = 0 */
 4935 1b78 EC01      		movw r28,r24
 4936 1b7a D62E      		mov r13,r22
 4937               	.LM520:
 4938 1b7c 6C80      		ldd r6,Y+4
 4939 1b7e 7D80      		ldd r7,Y+5
 4940               	.LVL381:
 4941 1b80 0894      		sec
 4942 1b82 611C      		adc r6,__zero_reg__
 4943 1b84 711C      		adc r7,__zero_reg__
 4944               	.LM521:
 4945 1b86 6114      		cp r6,__zero_reg__
 4946 1b88 7104      		cpc r7,__zero_reg__
 4947 1b8a 01F4      		brne .+2
 4948 1b8c 00C0      		rjmp .L383
 4949               	.LVL382:
 4950 1b8e 8E85      		ldd r24,Y+14
 4951 1b90 9F85      		ldd r25,Y+15
 4952 1b92 A889      		ldd r26,Y+16
 4953 1b94 B989      		ldd r27,Y+17
 4954 1b96 0097      		sbiw r24,0
 4955 1b98 A105      		cpc r26,__zero_reg__
 4956 1b9a B105      		cpc r27,__zero_reg__
 4957 1b9c 01F4      		brne .+2
 4958 1b9e 00C0      		rjmp .L383
 4959               	.LM522:
 4960 1ba0 1FE0      		ldi r17,lo8(15)
 4961 1ba2 412E      		mov r4,r17
 4962 1ba4 512C      		mov r5,__zero_reg__
 4963 1ba6 4620      		and r4,r6
 4964 1ba8 5720      		and r5,r7
 4965 1baa 4114      		cp r4,__zero_reg__
 4966 1bac 5104      		cpc r5,__zero_reg__
 4967 1bae 01F0      		breq .+2
 4968 1bb0 00C0      		rjmp .L384
 4969               	.LM523:
 4970 1bb2 0196      		adiw r24,1
 4971 1bb4 A11D      		adc r26,__zero_reg__
 4972 1bb6 B11D      		adc r27,__zero_reg__
 4973 1bb8 8E87      		std Y+14,r24
 4974 1bba 9F87      		std Y+15,r25
 4975 1bbc A88B      		std Y+16,r26
 4976 1bbe B98B      		std Y+17,r27
 4977               	.LM524:
 4978 1bc0 4A85      		ldd r20,Y+10
 4979 1bc2 5B85      		ldd r21,Y+11
 4980 1bc4 6C85      		ldd r22,Y+12
 4981 1bc6 7D85      		ldd r23,Y+13
 4982 1bc8 E881      		ld r30,Y
 4983 1bca F981      		ldd r31,Y+1
 4984 1bcc 4115      		cp r20,__zero_reg__
 4985 1bce 5105      		cpc r21,__zero_reg__
 4986 1bd0 6105      		cpc r22,__zero_reg__
 4987 1bd2 7105      		cpc r23,__zero_reg__
 4988 1bd4 01F4      		brne .L385
 4989               	.LM525:
 4990 1bd6 8085      		ldd r24,Z+8
 4991 1bd8 9185      		ldd r25,Z+9
 4992 1bda 6816      		cp r6,r24
 4993 1bdc 7906      		cpc r7,r25
 4994 1bde 00F4      		brsh .+2
 4995 1be0 00C0      		rjmp .L384
 4996 1be2 00C0      		rjmp .L383
 4997               	.L385:
 4998               	.LM526:
 4999 1be4 8281      		ldd r24,Z+2
 5000 1be6 90E0      		ldi r25,lo8(0)
 5001 1be8 0197      		sbiw r24,1
 5002 1bea 9301      		movw r18,r6
 5003 1bec A4E0      		ldi r26,4
 5004 1bee 3695      	1:	lsr r19
 5005 1bf0 2795      		ror r18
 5006 1bf2 AA95      		dec r26
 5007 1bf4 01F4      		brne 1b
 5008 1bf6 8223      		and r24,r18
 5009 1bf8 9323      		and r25,r19
 5010 1bfa 892B      		or r24,r25
 5011 1bfc 01F0      		breq .+2
 5012 1bfe 00C0      		rjmp .L384
 5013               	.LM527:
 5014 1c00 CF01      		movw r24,r30
 5015 1c02 0E94 0000 		call get_fat
 5016 1c06 7B01      		movw r14,r22
 5017 1c08 8C01      		movw r16,r24
 5018               	.LVL383:
 5019               	.LM528:
 5020 1c0a 6230      		cpi r22,lo8(2)
 5021 1c0c 7105      		cpc r23,__zero_reg__
 5022 1c0e 8105      		cpc r24,__zero_reg__
 5023 1c10 9105      		cpc r25,__zero_reg__
 5024 1c12 00F4      		brsh .+2
 5025 1c14 00C0      		rjmp .L386
 5026               	.LVL384:
 5027               	.LM529:
 5028 1c16 8FEF      		ldi r24,lo8(-1)
 5029 1c18 E816      		cp r14,r24
 5030 1c1a 8FEF      		ldi r24,hi8(-1)
 5031 1c1c F806      		cpc r15,r24
 5032 1c1e 8FEF      		ldi r24,hlo8(-1)
 5033 1c20 0807      		cpc r16,r24
 5034 1c22 8FEF      		ldi r24,hhi8(-1)
 5035 1c24 1807      		cpc r17,r24
 5036 1c26 01F4      		brne .+2
 5037 1c28 00C0      		rjmp .L387
 5038               	.LVL385:
 5039               	.LM530:
 5040 1c2a E881      		ld r30,Y
 5041 1c2c F981      		ldd r31,Y+1
 5042 1c2e 828D      		ldd r24,Z+26
 5043 1c30 938D      		ldd r25,Z+27
 5044 1c32 A48D      		ldd r26,Z+28
 5045 1c34 B58D      		ldd r27,Z+29
 5046 1c36 E816      		cp r14,r24
 5047 1c38 F906      		cpc r15,r25
 5048 1c3a 0A07      		cpc r16,r26
 5049 1c3c 1B07      		cpc r17,r27
 5050 1c3e 00F4      		brsh .+2
 5051 1c40 00C0      		rjmp .L388
 5052               	.LBB568:
 5053               	.LM531:
 5054 1c42 DD20      		tst r13
 5055 1c44 01F4      		brne .+2
 5056 1c46 00C0      		rjmp .L383
 5057               	.LM532:
 5058 1c48 4A85      		ldd r20,Y+10
 5059 1c4a 5B85      		ldd r21,Y+11
 5060 1c4c 6C85      		ldd r22,Y+12
 5061 1c4e 7D85      		ldd r23,Y+13
 5062 1c50 CF01      		movw r24,r30
 5063 1c52 0E94 0000 		call create_chain
 5064 1c56 7B01      		movw r14,r22
 5065 1c58 8C01      		movw r16,r24
 5066               	.LM533:
 5067 1c5a 6115      		cp r22,__zero_reg__
 5068 1c5c 7105      		cpc r23,__zero_reg__
 5069 1c5e 8105      		cpc r24,__zero_reg__
 5070 1c60 9105      		cpc r25,__zero_reg__
 5071 1c62 01F4      		brne .L389
 5072               	.LVL386:
 5073 1c64 87E0      		ldi r24,lo8(7)
 5074 1c66 00C0      		rjmp .L390
 5075               	.L389:
 5076               	.LM534:
 5077 1c68 91E0      		ldi r25,lo8(1)
 5078 1c6a E916      		cp r14,r25
 5079 1c6c F104      		cpc r15,__zero_reg__
 5080 1c6e 0105      		cpc r16,__zero_reg__
 5081 1c70 1105      		cpc r17,__zero_reg__
 5082 1c72 01F4      		brne .+2
 5083 1c74 00C0      		rjmp .L386
 5084               	.LVL387:
 5085               	.LM535:
 5086 1c76 AFEF      		ldi r26,lo8(-1)
 5087 1c78 EA16      		cp r14,r26
 5088 1c7a AFEF      		ldi r26,hi8(-1)
 5089 1c7c FA06      		cpc r15,r26
 5090 1c7e AFEF      		ldi r26,hlo8(-1)
 5091 1c80 0A07      		cpc r16,r26
 5092 1c82 AFEF      		ldi r26,hhi8(-1)
 5093 1c84 1A07      		cpc r17,r26
 5094 1c86 01F4      		brne .+2
 5095 1c88 00C0      		rjmp .L387
 5096               	.LM536:
 5097 1c8a 8881      		ld r24,Y
 5098 1c8c 9981      		ldd r25,Y+1
 5099 1c8e 40E0      		ldi r20,lo8(0)
 5100 1c90 50E0      		ldi r21,hi8(0)
 5101 1c92 60E0      		ldi r22,hlo8(0)
 5102 1c94 70E0      		ldi r23,hhi8(0)
 5103 1c96 0E94 0000 		call move_window
 5104 1c9a 8823      		tst r24
 5105 1c9c 01F0      		breq .+2
 5106 1c9e 00C0      		rjmp .L387
 5107               	.LBB569:
 5108               	.LBB570:
 5109               	.LM537:
 5110 1ca0 E881      		ld r30,Y
 5111 1ca2 F981      		ldd r31,Y+1
 5112               	.LVL388:
 5113 1ca4 BE96      		adiw r30,46
 5114 1ca6 80E0      		ldi r24,lo8(512)
 5115 1ca8 92E0      		ldi r25,hi8(512)
 5116               	.LVL389:
 5117 1caa 00C0      		rjmp .L391
 5118               	.L392:
 5119               	.LM538:
 5120 1cac 1192      		st Z+,__zero_reg__
 5121               	.L391:
 5122 1cae 0197      		sbiw r24,1
 5123 1cb0 BFEF      		ldi r27,hi8(-1)
 5124 1cb2 8F3F      		cpi r24,lo8(-1)
 5125 1cb4 9B07      		cpc r25,r27
 5126 1cb6 01F4      		brne .L392
 5127               	.LBE570:
 5128               	.LBE569:
 5129               	.LM539:
 5130 1cb8 8880      		ld r8,Y
 5131 1cba 9980      		ldd r9,Y+1
 5132               	.LBB571:
 5133               	.LBB572:
 5134               	.LM540:
 5135 1cbc 4EEF      		ldi r20,lo8(-2)
 5136 1cbe A42E      		mov r10,r20
 5137 1cc0 4FEF      		ldi r20,hi8(-2)
 5138 1cc2 B42E      		mov r11,r20
 5139 1cc4 4FEF      		ldi r20,hlo8(-2)
 5140 1cc6 C42E      		mov r12,r20
 5141 1cc8 4FEF      		ldi r20,hhi8(-2)
 5142 1cca D42E      		mov r13,r20
 5143               	.LVL390:
 5144 1ccc AE0C      		add r10,r14
 5145 1cce BF1C      		adc r11,r15
 5146 1cd0 C01E      		adc r12,r16
 5147 1cd2 D11E      		adc r13,r17
 5148               	.LM541:
 5149 1cd4 F401      		movw r30,r8
 5150               	.LVL391:
 5151 1cd6 828D      		ldd r24,Z+26
 5152 1cd8 938D      		ldd r25,Z+27
 5153 1cda A48D      		ldd r26,Z+28
 5154 1cdc B58D      		ldd r27,Z+29
 5155               	.LVL392:
 5156 1cde 0297      		sbiw r24,2
 5157 1ce0 A109      		sbc r26,__zero_reg__
 5158 1ce2 B109      		sbc r27,__zero_reg__
 5159 1ce4 A816      		cp r10,r24
 5160 1ce6 B906      		cpc r11,r25
 5161 1ce8 CA06      		cpc r12,r26
 5162 1cea DB06      		cpc r13,r27
 5163 1cec 00F0      		brlo .L393
 5164 1cee 20E0      		ldi r18,lo8(0)
 5165 1cf0 30E0      		ldi r19,hi8(0)
 5166 1cf2 40E0      		ldi r20,hlo8(0)
 5167 1cf4 50E0      		ldi r21,hhi8(0)
 5168 1cf6 00C0      		rjmp .L394
 5169               	.L393:
 5170               	.LM542:
 5171 1cf8 D401      		movw r26,r8
 5172 1cfa 1296      		adiw r26,2
 5173 1cfc 2C91      		ld r18,X
 5174 1cfe 30E0      		ldi r19,lo8(0)
 5175 1d00 40E0      		ldi r20,lo8(0)
 5176 1d02 50E0      		ldi r21,hi8(0)
 5177 1d04 C601      		movw r24,r12
 5178 1d06 B501      		movw r22,r10
 5179 1d08 0E94 0000 		call __mulsi3
 5180 1d0c 9B01      		movw r18,r22
 5181 1d0e AC01      		movw r20,r24
 5182 1d10 F401      		movw r30,r8
 5183 1d12 86A1      		ldd r24,Z+38
 5184 1d14 97A1      		ldd r25,Z+39
 5185 1d16 A0A5      		ldd r26,Z+40
 5186 1d18 B1A5      		ldd r27,Z+41
 5187 1d1a 280F      		add r18,r24
 5188 1d1c 391F      		adc r19,r25
 5189 1d1e 4A1F      		adc r20,r26
 5190 1d20 5B1F      		adc r21,r27
 5191               	.L394:
 5192               	.LBE572:
 5193               	.LBE571:
 5194               	.LM543:
 5195 1d22 D401      		movw r26,r8
 5196 1d24 9A96      		adiw r26,42
 5197 1d26 2D93      		st X+,r18
 5198 1d28 3D93      		st X+,r19
 5199 1d2a 4D93      		st X+,r20
 5200 1d2c 5C93      		st X,r21
 5201 1d2e 9D97      		sbiw r26,42+3
 5202 1d30 DD24      		clr r13
 5203               	.LVL393:
 5204               	.LM544:
 5205 1d32 CC24      		clr r12
 5206 1d34 C394      		inc r12
 5207 1d36 00C0      		rjmp .L395
 5208               	.L396:
 5209 1d38 C482      		std Z+4,r12
 5210               	.LM545:
 5211 1d3a 8881      		ld r24,Y
 5212 1d3c 9981      		ldd r25,Y+1
 5213 1d3e 40E0      		ldi r20,lo8(0)
 5214 1d40 50E0      		ldi r21,hi8(0)
 5215 1d42 60E0      		ldi r22,hlo8(0)
 5216 1d44 70E0      		ldi r23,hhi8(0)
 5217 1d46 0E94 0000 		call move_window
 5218 1d4a 8823      		tst r24
 5219 1d4c 01F0      		breq .+2
 5220 1d4e 00C0      		rjmp .L387
 5221               	.LM546:
 5222 1d50 E881      		ld r30,Y
 5223 1d52 F981      		ldd r31,Y+1
 5224 1d54 82A5      		ldd r24,Z+42
 5225 1d56 93A5      		ldd r25,Z+43
 5226 1d58 A4A5      		ldd r26,Z+44
 5227 1d5a B5A5      		ldd r27,Z+45
 5228 1d5c 0196      		adiw r24,1
 5229 1d5e A11D      		adc r26,__zero_reg__
 5230 1d60 B11D      		adc r27,__zero_reg__
 5231 1d62 82A7      		std Z+42,r24
 5232 1d64 93A7      		std Z+43,r25
 5233 1d66 A4A7      		std Z+44,r26
 5234 1d68 B5A7      		std Z+45,r27
 5235               	.LM547:
 5236 1d6a D394      		inc r13
 5237               	.L395:
 5238 1d6c E881      		ld r30,Y
 5239 1d6e F981      		ldd r31,Y+1
 5240 1d70 8281      		ldd r24,Z+2
 5241 1d72 D816      		cp r13,r24
 5242 1d74 00F0      		brlo .L396
 5243               	.LM548:
 5244 1d76 82A5      		ldd r24,Z+42
 5245 1d78 93A5      		ldd r25,Z+43
 5246 1d7a A4A5      		ldd r26,Z+44
 5247 1d7c B5A5      		ldd r27,Z+45
 5248 1d7e 8D19      		sub r24,r13
 5249 1d80 9109      		sbc r25,__zero_reg__
 5250 1d82 A109      		sbc r26,__zero_reg__
 5251 1d84 B109      		sbc r27,__zero_reg__
 5252 1d86 82A7      		std Z+42,r24
 5253 1d88 93A7      		std Z+43,r25
 5254 1d8a A4A7      		std Z+44,r26
 5255 1d8c B5A7      		std Z+45,r27
 5256               	.LVL394:
 5257               	.L388:
 5258               	.LBE568:
 5259               	.LM549:
 5260 1d8e EA86      		std Y+10,r14
 5261 1d90 FB86      		std Y+11,r15
 5262 1d92 0C87      		std Y+12,r16
 5263 1d94 1D87      		std Y+13,r17
 5264               	.LM550:
 5265 1d96 C880      		ld r12,Y
 5266 1d98 D980      		ldd r13,Y+1
 5267               	.LBB573:
 5268               	.LBB574:
 5269               	.LM551:
 5270 1d9a 8EEF      		ldi r24,lo8(-2)
 5271 1d9c 9FEF      		ldi r25,hi8(-2)
 5272 1d9e AFEF      		ldi r26,hlo8(-2)
 5273 1da0 BFEF      		ldi r27,hhi8(-2)
 5274 1da2 E80E      		add r14,r24
 5275 1da4 F91E      		adc r15,r25
 5276 1da6 0A1F      		adc r16,r26
 5277 1da8 1B1F      		adc r17,r27
 5278               	.LVL395:
 5279               	.LM552:
 5280 1daa F601      		movw r30,r12
 5281 1dac 828D      		ldd r24,Z+26
 5282 1dae 938D      		ldd r25,Z+27
 5283 1db0 A48D      		ldd r26,Z+28
 5284 1db2 B58D      		ldd r27,Z+29
 5285 1db4 0297      		sbiw r24,2
 5286 1db6 A109      		sbc r26,__zero_reg__
 5287 1db8 B109      		sbc r27,__zero_reg__
 5288 1dba E816      		cp r14,r24
 5289 1dbc F906      		cpc r15,r25
 5290 1dbe 0A07      		cpc r16,r26
 5291 1dc0 1B07      		cpc r17,r27
 5292 1dc2 00F0      		brlo .L397
 5293 1dc4 20E0      		ldi r18,lo8(0)
 5294 1dc6 30E0      		ldi r19,hi8(0)
 5295 1dc8 40E0      		ldi r20,hlo8(0)
 5296 1dca 50E0      		ldi r21,hhi8(0)
 5297 1dcc 00C0      		rjmp .L398
 5298               	.L397:
 5299               	.LM553:
 5300 1dce D601      		movw r26,r12
 5301 1dd0 1296      		adiw r26,2
 5302 1dd2 2C91      		ld r18,X
 5303 1dd4 30E0      		ldi r19,lo8(0)
 5304 1dd6 40E0      		ldi r20,lo8(0)
 5305 1dd8 50E0      		ldi r21,hi8(0)
 5306 1dda C801      		movw r24,r16
 5307 1ddc B701      		movw r22,r14
 5308               	.LVL396:
 5309 1dde 0E94 0000 		call __mulsi3
 5310 1de2 9B01      		movw r18,r22
 5311 1de4 AC01      		movw r20,r24
 5312 1de6 F601      		movw r30,r12
 5313 1de8 86A1      		ldd r24,Z+38
 5314 1dea 97A1      		ldd r25,Z+39
 5315 1dec A0A5      		ldd r26,Z+40
 5316 1dee B1A5      		ldd r27,Z+41
 5317 1df0 280F      		add r18,r24
 5318 1df2 391F      		adc r19,r25
 5319 1df4 4A1F      		adc r20,r26
 5320 1df6 5B1F      		adc r21,r27
 5321               	.LVL397:
 5322               	.L398:
 5323               	.LBE574:
 5324               	.LBE573:
 5325               	.LM554:
 5326 1df8 2E87      		std Y+14,r18
 5327 1dfa 3F87      		std Y+15,r19
 5328 1dfc 488B      		std Y+16,r20
 5329 1dfe 598B      		std Y+17,r21
 5330               	.LVL398:
 5331               	.L384:
 5332               	.LM555:
 5333 1e00 6C82      		std Y+4,r6
 5334 1e02 7D82      		std Y+5,r7
 5335               	.LM556:
 5336 1e04 35E0      		ldi r19,5
 5337 1e06 440C      	1:	lsl r4
 5338 1e08 551C      		rol r5
 5339 1e0a 3A95      		dec r19
 5340 1e0c 01F4      		brne 1b
 5341 1e0e 8EE2      		ldi r24,lo8(46)
 5342 1e10 90E0      		ldi r25,hi8(46)
 5343 1e12 480E      		add r4,r24
 5344 1e14 591E      		adc r5,r25
 5345 1e16 8881      		ld r24,Y
 5346 1e18 9981      		ldd r25,Y+1
 5347 1e1a 840D      		add r24,r4
 5348 1e1c 951D      		adc r25,r5
 5349 1e1e 8A8B      		std Y+18,r24
 5350 1e20 9B8B      		std Y+19,r25
 5351 1e22 80E0      		ldi r24,lo8(0)
 5352 1e24 00C0      		rjmp .L390
 5353               	.LVL399:
 5354               	.L383:
 5355               	.LM557:
 5356 1e26 84E0      		ldi r24,lo8(4)
 5357 1e28 00C0      		rjmp .L390
 5358               	.LVL400:
 5359               	.L386:
 5360 1e2a 82E0      		ldi r24,lo8(2)
 5361 1e2c 00C0      		rjmp .L390
 5362               	.LVL401:
 5363               	.L387:
 5364 1e2e 81E0      		ldi r24,lo8(1)
 5365               	.LVL402:
 5366               	.L390:
 5367               	/* epilogue start */
 5368               	.LM558:
 5369 1e30 DF91      		pop r29
 5370 1e32 CF91      		pop r28
 5371               	.LVL403:
 5372 1e34 1F91      		pop r17
 5373 1e36 0F91      		pop r16
 5374 1e38 FF90      		pop r15
 5375 1e3a EF90      		pop r14
 5376               	.LVL404:
 5377 1e3c DF90      		pop r13
 5378               	.LVL405:
 5379 1e3e CF90      		pop r12
 5380 1e40 BF90      		pop r11
 5381 1e42 AF90      		pop r10
 5382               	.LVL406:
 5383 1e44 9F90      		pop r9
 5384 1e46 8F90      		pop r8
 5385 1e48 7F90      		pop r7
 5386 1e4a 6F90      		pop r6
 5387               	.LVL407:
 5388 1e4c 5F90      		pop r5
 5389 1e4e 4F90      		pop r4
 5390 1e50 0895      		ret
 5391               	.LFE54:
 5394               	dir_read:
 5395               	.LFB56:
 5396               	.LM559:
 5397               	.LVL408:
 5398 1e52 CF93      		push r28
 5399 1e54 DF93      		push r29
 5400               	/* prologue: function */
 5401               	/* frame size = 0 */
 5402 1e56 EC01      		movw r28,r24
 5403               	.LM560:
 5404 1e58 94E0      		ldi r25,lo8(4)
 5405               	.LVL409:
 5406 1e5a 00C0      		rjmp .L401
 5407               	.LVL410:
 5408               	.L406:
 5409               	.LM561:
 5410 1e5c 8881      		ld r24,Y
 5411 1e5e 9981      		ldd r25,Y+1
 5412 1e60 0E94 0000 		call move_window
 5413               	.LVL411:
 5414 1e64 982F      		mov r25,r24
 5415               	.LVL412:
 5416               	.LM562:
 5417 1e66 8823      		tst r24
 5418 1e68 01F4      		brne .L402
 5419               	.LVL413:
 5420               	.LM563:
 5421 1e6a EA89      		ldd r30,Y+18
 5422 1e6c FB89      		ldd r31,Y+19
 5423               	.LVL414:
 5424               	.LM564:
 5425 1e6e 8081      		ld r24,Z
 5426               	.LVL415:
 5427               	.LM565:
 5428 1e70 8823      		tst r24
 5429 1e72 01F0      		breq .L403
 5430               	.LM566:
 5431 1e74 853E      		cpi r24,lo8(-27)
 5432 1e76 01F0      		breq .L404
 5433 1e78 8E32      		cpi r24,lo8(46)
 5434 1e7a 01F0      		breq .L404
 5435 1e7c 8385      		ldd r24,Z+11
 5436               	.LVL416:
 5437 1e7e 83FF      		sbrs r24,3
 5438 1e80 00C0      		rjmp .L405
 5439               	.LVL417:
 5440               	.L404:
 5441               	.LM567:
 5442 1e82 CE01      		movw r24,r28
 5443               	.LVL418:
 5444 1e84 60E0      		ldi r22,lo8(0)
 5445 1e86 0E94 0000 		call dir_next
 5446               	.LVL419:
 5447 1e8a 982F      		mov r25,r24
 5448               	.LVL420:
 5449               	.LM568:
 5450 1e8c 8823      		tst r24
 5451 1e8e 01F4      		brne .L402
 5452               	.LVL421:
 5453               	.L401:
 5454               	.LM569:
 5455 1e90 4E85      		ldd r20,Y+14
 5456 1e92 5F85      		ldd r21,Y+15
 5457 1e94 6889      		ldd r22,Y+16
 5458 1e96 7989      		ldd r23,Y+17
 5459 1e98 4115      		cp r20,__zero_reg__
 5460 1e9a 5105      		cpc r21,__zero_reg__
 5461 1e9c 6105      		cpc r22,__zero_reg__
 5462 1e9e 7105      		cpc r23,__zero_reg__
 5463 1ea0 01F4      		brne .L406
 5464               	.LM570:
 5465 1ea2 9923      		tst r25
 5466 1ea4 01F0      		breq .L405
 5467               	.LVL422:
 5468               	.L402:
 5469 1ea6 1E86      		std Y+14,__zero_reg__
 5470 1ea8 1F86      		std Y+15,__zero_reg__
 5471 1eaa 188A      		std Y+16,__zero_reg__
 5472 1eac 198A      		std Y+17,__zero_reg__
 5473               	.L405:
 5474               	.LM571:
 5475 1eae 892F      		mov r24,r25
 5476               	.LVL423:
 5477               	/* epilogue start */
 5478 1eb0 DF91      		pop r29
 5479 1eb2 CF91      		pop r28
 5480               	.LVL424:
 5481 1eb4 0895      		ret
 5482               	.LVL425:
 5483               	.L403:
 5484               	.LM572:
 5485 1eb6 94E0      		ldi r25,lo8(4)
 5486 1eb8 00C0      		rjmp .L402
 5487               	.LFE56:
 5490               	dir_register:
 5491               	.LFB57:
 5492               	.LM573:
 5493               	.LVL426:
 5494 1eba CF93      		push r28
 5495 1ebc DF93      		push r29
 5496               	/* prologue: function */
 5497               	/* frame size = 0 */
 5498 1ebe EC01      		movw r28,r24
 5499               	.LM574:
 5500 1ec0 60E0      		ldi r22,lo8(0)
 5501 1ec2 70E0      		ldi r23,hi8(0)
 5502 1ec4 0E94 0000 		call dir_seek
 5503               	.LVL427:
 5504               	.L420:
 5505 1ec8 482F      		mov r20,r24
 5506               	.LVL428:
 5507               	.LM575:
 5508 1eca 8823      		tst r24
 5509 1ecc 01F4      		brne .L409
 5510               	.LVL429:
 5511               	.LM576:
 5512 1ece 4E85      		ldd r20,Y+14
 5513 1ed0 5F85      		ldd r21,Y+15
 5514 1ed2 6889      		ldd r22,Y+16
 5515 1ed4 7989      		ldd r23,Y+17
 5516 1ed6 8881      		ld r24,Y
 5517 1ed8 9981      		ldd r25,Y+1
 5518               	.LVL430:
 5519 1eda 0E94 0000 		call move_window
 5520 1ede 482F      		mov r20,r24
 5521               	.LVL431:
 5522               	.LM577:
 5523 1ee0 8823      		tst r24
 5524 1ee2 01F4      		brne .L409
 5525               	.LVL432:
 5526               	.LM578:
 5527 1ee4 EA89      		ldd r30,Y+18
 5528 1ee6 FB89      		ldd r31,Y+19
 5529 1ee8 E081      		ld r30,Z
 5530               	.LVL433:
 5531               	.LM579:
 5532 1eea E53E      		cpi r30,lo8(-27)
 5533 1eec 01F0      		breq .L410
 5534 1eee EE23      		tst r30
 5535 1ef0 01F0      		breq .L410
 5536               	.LM580:
 5537 1ef2 CE01      		movw r24,r28
 5538               	.LVL434:
 5539 1ef4 61E0      		ldi r22,lo8(1)
 5540 1ef6 0E94 0000 		call dir_next
 5541               	.LVL435:
 5542 1efa 00C0      		rjmp .L420
 5543               	.LVL436:
 5544               	.L416:
 5545               	.LM581:
 5546 1efc 6A89      		ldd r22,Y+18
 5547 1efe 7B89      		ldd r23,Y+19
 5548               	.LVL437:
 5549 1f00 FB01      		movw r30,r22
 5550 1f02 80E2      		ldi r24,lo8(32)
 5551 1f04 90E0      		ldi r25,hi8(32)
 5552               	.LVL438:
 5553 1f06 00C0      		rjmp .L412
 5554               	.LVL439:
 5555               	.L413:
 5556               	.LBB575:
 5557               	.LBB576:
 5558               	.LM582:
 5559 1f08 1192      		st Z+,__zero_reg__
 5560               	.L412:
 5561 1f0a 0197      		sbiw r24,1
 5562 1f0c 2FEF      		ldi r18,hi8(-1)
 5563 1f0e 8F3F      		cpi r24,lo8(-1)
 5564 1f10 9207      		cpc r25,r18
 5565 1f12 01F4      		brne .L413
 5566               	.LBE576:
 5567               	.LBE575:
 5568               	.LM583:
 5569 1f14 8C89      		ldd r24,Y+20
 5570               	.LVL440:
 5571 1f16 9D89      		ldd r25,Y+21
 5572               	.LVL441:
 5573 1f18 9C01      		movw r18,r24
 5574               	.LVL442:
 5575 1f1a D901      		movw r26,r18
 5576               	.LVL443:
 5577 1f1c FB01      		movw r30,r22
 5578 1f1e 2BE0      		ldi r18,lo8(11)
 5579 1f20 30E0      		ldi r19,hi8(11)
 5580               	.LVL444:
 5581 1f22 00C0      		rjmp .L414
 5582               	.L415:
 5583               	.LBB577:
 5584               	.LBB578:
 5585               	.LM584:
 5586 1f24 8D91      		ld r24,X+
 5587 1f26 8193      		st Z+,r24
 5588               	.L414:
 5589 1f28 2150      		subi r18,lo8(-(-1))
 5590 1f2a 3040      		sbci r19,hi8(-(-1))
 5591 1f2c 8FEF      		ldi r24,hi8(-1)
 5592 1f2e 2F3F      		cpi r18,lo8(-1)
 5593 1f30 3807      		cpc r19,r24
 5594 1f32 01F4      		brne .L415
 5595               	.LBE578:
 5596               	.LBE577:
 5597               	.LM585:
 5598 1f34 EC89      		ldd r30,Y+20
 5599 1f36 FD89      		ldd r31,Y+21
 5600               	.LVL445:
 5601 1f38 8385      		ldd r24,Z+11
 5602 1f3a 8871      		andi r24,lo8(24)
 5603 1f3c FB01      		movw r30,r22
 5604 1f3e 8487      		std Z+12,r24
 5605               	.LM586:
 5606 1f40 E881      		ld r30,Y
 5607 1f42 F981      		ldd r31,Y+1
 5608 1f44 81E0      		ldi r24,lo8(1)
 5609 1f46 8483      		std Z+4,r24
 5610               	.LVL446:
 5611               	.L409:
 5612               	.LM587:
 5613 1f48 842F      		mov r24,r20
 5614               	/* epilogue start */
 5615 1f4a DF91      		pop r29
 5616 1f4c CF91      		pop r28
 5617               	.LVL447:
 5618 1f4e 0895      		ret
 5619               	.LVL448:
 5620               	.L410:
 5621               	.LM588:
 5622 1f50 4E85      		ldd r20,Y+14
 5623 1f52 5F85      		ldd r21,Y+15
 5624 1f54 6889      		ldd r22,Y+16
 5625 1f56 7989      		ldd r23,Y+17
 5626 1f58 8881      		ld r24,Y
 5627 1f5a 9981      		ldd r25,Y+1
 5628               	.LVL449:
 5629 1f5c 0E94 0000 		call move_window
 5630               	.LVL450:
 5631 1f60 482F      		mov r20,r24
 5632               	.LVL451:
 5633               	.LM589:
 5634 1f62 8823      		tst r24
 5635 1f64 01F0      		breq .L416
 5636               	.LVL452:
 5637 1f66 00C0      		rjmp .L409
 5638               	.LFE57:
 5641               	dir_remove:
 5642               	.LFB58:
 5643               	.LM590:
 5644               	.LVL453:
 5645 1f68 CF93      		push r28
 5646 1f6a DF93      		push r29
 5647               	/* prologue: function */
 5648               	/* frame size = 0 */
 5649 1f6c EC01      		movw r28,r24
 5650               	.LM591:
 5651 1f6e 6C81      		ldd r22,Y+4
 5652 1f70 7D81      		ldd r23,Y+5
 5653 1f72 0E94 0000 		call dir_seek
 5654               	.LVL454:
 5655 1f76 982F      		mov r25,r24
 5656               	.LVL455:
 5657               	.LM592:
 5658 1f78 8823      		tst r24
 5659 1f7a 01F4      		brne .L422
 5660               	.LVL456:
 5661               	.LM593:
 5662 1f7c 4E85      		ldd r20,Y+14
 5663 1f7e 5F85      		ldd r21,Y+15
 5664 1f80 6889      		ldd r22,Y+16
 5665 1f82 7989      		ldd r23,Y+17
 5666 1f84 8881      		ld r24,Y
 5667 1f86 9981      		ldd r25,Y+1
 5668               	.LVL457:
 5669 1f88 0E94 0000 		call move_window
 5670               	.LVL458:
 5671 1f8c 982F      		mov r25,r24
 5672               	.LVL459:
 5673               	.LM594:
 5674 1f8e 8823      		tst r24
 5675 1f90 01F4      		brne .L422
 5676               	.LVL460:
 5677               	.LM595:
 5678 1f92 EA89      		ldd r30,Y+18
 5679 1f94 FB89      		ldd r31,Y+19
 5680 1f96 85EE      		ldi r24,lo8(-27)
 5681               	.LVL461:
 5682 1f98 8083      		st Z,r24
 5683               	.LM596:
 5684 1f9a E881      		ld r30,Y
 5685 1f9c F981      		ldd r31,Y+1
 5686 1f9e 81E0      		ldi r24,lo8(1)
 5687 1fa0 8483      		std Z+4,r24
 5688               	.LVL462:
 5689               	.L422:
 5690               	.LM597:
 5691 1fa2 892F      		mov r24,r25
 5692               	/* epilogue start */
 5693 1fa4 DF91      		pop r29
 5694 1fa6 CF91      		pop r28
 5695               	.LVL463:
 5696 1fa8 0895      		ret
 5697               	.LFE58:
 5700               	get_fileinfo:
 5701               	.LFB60:
 5702               	.LM598:
 5703               	.LVL464:
 5704 1faa EF92      		push r14
 5705 1fac FF92      		push r15
 5706 1fae 0F93      		push r16
 5707 1fb0 1F93      		push r17
 5708 1fb2 CF93      		push r28
 5709 1fb4 DF93      		push r29
 5710               	/* prologue: function */
 5711               	/* frame size = 0 */
 5712 1fb6 FC01      		movw r30,r24
 5713 1fb8 7B01      		movw r14,r22
 5714               	.LM599:
 5715 1fba EB01      		movw r28,r22
 5716               	.LVL465:
 5717 1fbc 2996      		adiw r28,9
 5718               	.LM600:
 5719 1fbe 8685      		ldd r24,Z+14
 5720 1fc0 9785      		ldd r25,Z+15
 5721 1fc2 A089      		ldd r26,Z+16
 5722 1fc4 B189      		ldd r27,Z+17
 5723               	.LVL466:
 5724 1fc6 0097      		sbiw r24,0
 5725 1fc8 A105      		cpc r26,__zero_reg__
 5726 1fca B105      		cpc r27,__zero_reg__
 5727 1fcc 01F4      		brne .+2
 5728 1fce 00C0      		rjmp .L425
 5729               	.LM601:
 5730 1fd0 6289      		ldd r22,Z+18
 5731 1fd2 7389      		ldd r23,Z+19
 5732               	.LVL467:
 5733 1fd4 80E0      		ldi r24,lo8(0)
 5734 1fd6 90E0      		ldi r25,hi8(0)
 5735               	.LVL468:
 5736               	.L428:
 5737               	.LM602:
 5738 1fd8 FB01      		movw r30,r22
 5739               	.LVL469:
 5740 1fda E80F      		add r30,r24
 5741 1fdc F91F      		adc r31,r25
 5742 1fde E081      		ld r30,Z
 5743               	.LVL470:
 5744               	.LM603:
 5745 1fe0 E032      		cpi r30,lo8(32)
 5746 1fe2 01F0      		breq .L426
 5747               	.LM604:
 5748 1fe4 E530      		cpi r30,lo8(5)
 5749 1fe6 01F4      		brne .L427
 5750 1fe8 E5EE      		ldi r30,lo8(-27)
 5751               	.L427:
 5752               	.LM605:
 5753 1fea E993      		st Y+,r30
 5754               	.LM606:
 5755 1fec 0196      		adiw r24,1
 5756 1fee 8830      		cpi r24,8
 5757 1ff0 9105      		cpc r25,__zero_reg__
 5758 1ff2 01F4      		brne .L428
 5759               	.L426:
 5760               	.LM607:
 5761 1ff4 DB01      		movw r26,r22
 5762 1ff6 1896      		adiw r26,8
 5763 1ff8 8C91      		ld r24,X
 5764               	.LVL471:
 5765 1ffa 8032      		cpi r24,lo8(32)
 5766 1ffc 01F4      		brne .L429
 5767 1ffe 8E01      		movw r16,r28
 5768 2000 00C0      		rjmp .L430
 5769               	.LVL472:
 5770               	.L429:
 5771               	.LM608:
 5772 2002 8EE2      		ldi r24,lo8(46)
 5773 2004 FE01      		movw r30,r28
 5774               	.LVL473:
 5775 2006 8193      		st Z+,r24
 5776 2008 8F01      		movw r16,r30
 5777               	.LVL474:
 5778 200a FB01      		movw r30,r22
 5779               	.LM609:
 5780 200c 9E01      		movw r18,r28
 5781 200e 2C5F      		subi r18,lo8(-(4))
 5782 2010 3F4F      		sbci r19,hi8(-(4))
 5783               	.LVL475:
 5784               	.L431:
 5785               	.LM610:
 5786 2012 8085      		ldd r24,Z+8
 5787               	.LM611:
 5788 2014 8032      		cpi r24,lo8(32)
 5789 2016 01F0      		breq .L430
 5790               	.LM612:
 5791 2018 D801      		movw r26,r16
 5792 201a 8D93      		st X+,r24
 5793 201c 8D01      		movw r16,r26
 5794 201e 3196      		adiw r30,1
 5795               	.LM613:
 5796 2020 A217      		cp r26,r18
 5797 2022 B307      		cpc r27,r19
 5798 2024 01F4      		brne .L431
 5799               	.LVL476:
 5800               	.L430:
 5801               	.LM614:
 5802 2026 FB01      		movw r30,r22
 5803 2028 8385      		ldd r24,Z+11
 5804               	.LVL477:
 5805 202a D701      		movw r26,r14
 5806 202c 1896      		adiw r26,8
 5807 202e 8C93      		st X,r24
 5808               	.LM615:
 5809 2030 278D      		ldd r18,Z+31
 5810 2032 30E0      		ldi r19,lo8(0)
 5811 2034 40E0      		ldi r20,lo8(0)
 5812 2036 50E0      		ldi r21,hi8(0)
 5813 2038 522F      		mov r21,r18
 5814 203a 4427      		clr r20
 5815 203c 3327      		clr r19
 5816 203e 2227      		clr r18
 5817 2040 868D      		ldd r24,Z+30
 5818 2042 90E0      		ldi r25,lo8(0)
 5819 2044 A0E0      		ldi r26,lo8(0)
 5820 2046 B0E0      		ldi r27,hi8(0)
 5821 2048 DC01      		movw r26,r24
 5822 204a 9927      		clr r25
 5823 204c 8827      		clr r24
 5824 204e 282B      		or r18,r24
 5825 2050 392B      		or r19,r25
 5826 2052 4A2B      		or r20,r26
 5827 2054 5B2B      		or r21,r27
 5828 2056 848D      		ldd r24,Z+28
 5829 2058 90E0      		ldi r25,lo8(0)
 5830 205a A0E0      		ldi r26,lo8(0)
 5831 205c B0E0      		ldi r27,hi8(0)
 5832 205e 282B      		or r18,r24
 5833 2060 392B      		or r19,r25
 5834 2062 4A2B      		or r20,r26
 5835 2064 5B2B      		or r21,r27
 5836 2066 958D      		ldd r25,Z+29
 5837 2068 80E0      		ldi r24,lo8(0)
 5838 206a A0E0      		ldi r26,lo8(0)
 5839 206c B0E0      		ldi r27,hi8(0)
 5840 206e 282B      		or r18,r24
 5841 2070 392B      		or r19,r25
 5842 2072 4A2B      		or r20,r26
 5843 2074 5B2B      		or r21,r27
 5844 2076 F701      		movw r30,r14
 5845 2078 2083      		st Z,r18
 5846 207a 3183      		std Z+1,r19
 5847 207c 4283      		std Z+2,r20
 5848 207e 5383      		std Z+3,r21
 5849               	.LM616:
 5850 2080 DB01      		movw r26,r22
 5851 2082 5996      		adiw r26,25
 5852 2084 9C91      		ld r25,X
 5853 2086 5997      		sbiw r26,25
 5854 2088 80E0      		ldi r24,lo8(0)
 5855 208a 5896      		adiw r26,24
 5856 208c 2C91      		ld r18,X
 5857 208e 5897      		sbiw r26,24
 5858 2090 30E0      		ldi r19,lo8(0)
 5859 2092 822B      		or r24,r18
 5860 2094 932B      		or r25,r19
 5861 2096 8483      		std Z+4,r24
 5862 2098 9583      		std Z+5,r25
 5863               	.LM617:
 5864 209a 5796      		adiw r26,23
 5865 209c 9C91      		ld r25,X
 5866 209e 5797      		sbiw r26,23
 5867 20a0 80E0      		ldi r24,lo8(0)
 5868 20a2 5696      		adiw r26,22
 5869 20a4 2C91      		ld r18,X
 5870 20a6 30E0      		ldi r19,lo8(0)
 5871 20a8 822B      		or r24,r18
 5872 20aa 932B      		or r25,r19
 5873 20ac 8683      		std Z+6,r24
 5874 20ae 9783      		std Z+7,r25
 5875 20b0 E801      		movw r28,r16
 5876               	.LVL478:
 5877               	.L425:
 5878               	.LM618:
 5879 20b2 1882      		st Y,__zero_reg__
 5880               	/* epilogue start */
 5881               	.LM619:
 5882 20b4 DF91      		pop r29
 5883 20b6 CF91      		pop r28
 5884               	.LVL479:
 5885 20b8 1F91      		pop r17
 5886 20ba 0F91      		pop r16
 5887               	.LVL480:
 5888 20bc FF90      		pop r15
 5889 20be EF90      		pop r14
 5890               	.LVL481:
 5891 20c0 0895      		ret
 5892               	.LFE60:
 5894               		.data
 5895               	.LC0:
 5896 0000 2022 2A2B 		.string	" \"*+,[=]|\177"
 5896      2C5B 3D5D 
 5896      7C7F 00
 5897               		.text
 5899               	follow_path:
 5900               	.LFB61:
 5901               	.LM620:
 5902               	.LVL482:
 5903 20c2 5F92      		push r5
 5904 20c4 6F92      		push r6
 5905 20c6 7F92      		push r7
 5906 20c8 8F92      		push r8
 5907 20ca 9F92      		push r9
 5908 20cc AF92      		push r10
 5909 20ce BF92      		push r11
 5910 20d0 CF92      		push r12
 5911 20d2 DF92      		push r13
 5912 20d4 EF92      		push r14
 5913 20d6 FF92      		push r15
 5914 20d8 0F93      		push r16
 5915 20da 1F93      		push r17
 5916 20dc CF93      		push r28
 5917 20de DF93      		push r29
 5918               	/* prologue: function */
 5919               	/* frame size = 0 */
 5920 20e0 EC01      		movw r28,r24
 5921 20e2 7B01      		movw r14,r22
 5922 20e4 00C0      		rjmp .L436
 5923               	.LVL483:
 5924               	.L437:
 5925               	.LM621:
 5926 20e6 0894      		sec
 5927 20e8 E11C      		adc r14,__zero_reg__
 5928 20ea F11C      		adc r15,__zero_reg__
 5929               	.LVL484:
 5930               	.L436:
 5931 20ec F701      		movw r30,r14
 5932 20ee 8081      		ld r24,Z
 5933 20f0 8032      		cpi r24,lo8(32)
 5934 20f2 01F0      		breq .L437
 5935               	.LM622:
 5936 20f4 8F32      		cpi r24,lo8(47)
 5937 20f6 01F0      		breq .L438
 5938 20f8 8C35      		cpi r24,lo8(92)
 5939 20fa 01F4      		brne .L439
 5940               	.L438:
 5941               	.LM623:
 5942 20fc 0894      		sec
 5943 20fe E11C      		adc r14,__zero_reg__
 5944 2100 F11C      		adc r15,__zero_reg__
 5945               	.LVL485:
 5946               	.L439:
 5947               	.LM624:
 5948 2102 1E82      		std Y+6,__zero_reg__
 5949 2104 1F82      		std Y+7,__zero_reg__
 5950 2106 1886      		std Y+8,__zero_reg__
 5951 2108 1986      		std Y+9,__zero_reg__
 5952               	.LM625:
 5953 210a F701      		movw r30,r14
 5954 210c 8081      		ld r24,Z
 5955 210e 8032      		cpi r24,lo8(32)
 5956 2110 00F4      		brsh .L440
 5957               	.LM626:
 5958 2112 CE01      		movw r24,r28
 5959 2114 60E0      		ldi r22,lo8(0)
 5960 2116 70E0      		ldi r23,hi8(0)
 5961 2118 0E94 0000 		call dir_seek
 5962               	.LM627:
 5963 211c 1A8A      		std Y+18,__zero_reg__
 5964 211e 1B8A      		std Y+19,__zero_reg__
 5965 2120 00C0      		rjmp .L441
 5966               	.LVL486:
 5967               	.L440:
 5968               	.LBB579:
 5969               	.LBB580:
 5970               	.LBB584:
 5971               	.LBB585:
 5972               	.LM628:
 5973 2122 00E2      		ldi r16,lo8(32)
 5974               	.LBE585:
 5975               	.LBE584:
 5976               	.LM629:
 5977 2124 45E0      		ldi r20,lo8(5)
 5978 2126 542E      		mov r5,r20
 5979               	.LVL487:
 5980               	.L476:
 5981               	.LM630:
 5982 2128 AC89      		ldd r26,Y+20
 5983 212a BD89      		ldd r27,Y+21
 5984               	.LVL488:
 5985 212c FD01      		movw r30,r26
 5986               	.LVL489:
 5987 212e 8BE0      		ldi r24,lo8(11)
 5988 2130 90E0      		ldi r25,hi8(11)
 5989               	.LVL490:
 5990 2132 00C0      		rjmp .L442
 5991               	.LVL491:
 5992               	.L443:
 5993               	.LBB583:
 5994               	.LBB586:
 5995               	.LM631:
 5996 2134 0193      		st Z+,r16
 5997               	.L442:
 5998 2136 0197      		sbiw r24,1
 5999 2138 2FEF      		ldi r18,hi8(-1)
 6000 213a 8F3F      		cpi r24,lo8(-1)
 6001 213c 9207      		cpc r25,r18
 6002 213e 01F4      		brne .L443
 6003 2140 40E0      		ldi r20,lo8(0)
 6004 2142 50E0      		ldi r21,hi8(0)
 6005               	.LVL492:
 6006 2144 CC24      		clr r12
 6007 2146 DD24      		clr r13
 6008 2148 38E0      		ldi r19,lo8(8)
 6009 214a A32E      		mov r10,r19
 6010 214c B12C      		mov r11,__zero_reg__
 6011 214e 10E0      		ldi r17,lo8(0)
 6012               	.LVL493:
 6013               	.L475:
 6014               	.LBE586:
 6015               	.LBE583:
 6016               	.LM632:
 6017 2150 F701      		movw r30,r14
 6018 2152 EC0D      		add r30,r12
 6019 2154 FD1D      		adc r31,r13
 6020 2156 2081      		ld r18,Z
 6021 2158 0894      		sec
 6022 215a C11C      		adc r12,__zero_reg__
 6023 215c D11C      		adc r13,__zero_reg__
 6024               	.LM633:
 6025 215e 2132      		cpi r18,lo8(33)
 6026 2160 00F4      		brsh .+2
 6027 2162 00C0      		rjmp .L444
 6028 2164 2F32      		cpi r18,lo8(47)
 6029 2166 01F4      		brne .+2
 6030 2168 00C0      		rjmp .L445
 6031 216a 2C35      		cpi r18,lo8(92)
 6032 216c 01F4      		brne .+2
 6033 216e 00C0      		rjmp .L445
 6034               	.LM634:
 6035 2170 2E32      		cpi r18,lo8(46)
 6036 2172 01F0      		breq .L446
 6037 2174 4A15      		cp r20,r10
 6038 2176 5B05      		cpc r21,r11
 6039 2178 04F0      		brlt .L447
 6040               	.L446:
 6041               	.LM635:
 6042 217a 88E0      		ldi r24,lo8(8)
 6043 217c A816      		cp r10,r24
 6044 217e B104      		cpc r11,__zero_reg__
 6045               	.LVL494:
 6046 2180 01F0      		breq .+2
 6047 2182 00C0      		rjmp .L448
 6048 2184 2E32      		cpi r18,lo8(46)
 6049 2186 01F0      		breq .+2
 6050 2188 00C0      		rjmp .L448
 6051               	.LM636:
 6052 218a 110F      		lsl r17
 6053 218c 110F      		lsl r17
 6054 218e 48E0      		ldi r20,lo8(8)
 6055 2190 50E0      		ldi r21,hi8(8)
 6056 2192 2BE0      		ldi r18,lo8(11)
 6057 2194 A22E      		mov r10,r18
 6058 2196 B12C      		mov r11,__zero_reg__
 6059               	.LVL495:
 6060 2198 00C0      		rjmp .L475
 6061               	.LVL496:
 6062               	.L447:
 6063               	.LM637:
 6064 219a 27FD      		sbrc r18,7
 6065               	.LM638:
 6066 219c 1360      		ori r17,lo8(3)
 6067               	.L450:
 6068               	.LM639:
 6069 219e 822F      		mov r24,r18
 6070               	.LVL497:
 6071 21a0 8158      		subi r24,lo8(-(127))
 6072 21a2 8F31      		cpi r24,lo8(31)
 6073 21a4 00F0      		brlo .L451
 6074 21a6 8F55      		subi r24,lo8(-(-95))
 6075 21a8 8D31      		cpi r24,lo8(29)
 6076 21aa 00F4      		brsh .L452
 6077               	.L451:
 6078               	.LM640:
 6079 21ac F701      		movw r30,r14
 6080 21ae EC0D      		add r30,r12
 6081 21b0 FD1D      		adc r31,r13
 6082 21b2 3081      		ld r19,Z
 6083               	.LM641:
 6084 21b4 832F      		mov r24,r19
 6085 21b6 8054      		subi r24,lo8(-(-64))
 6086 21b8 8F33      		cpi r24,lo8(63)
 6087 21ba 00F0      		brlo .L453
 6088 21bc 8054      		subi r24,lo8(-(-64))
 6089 21be 8D37      		cpi r24,lo8(125)
 6090 21c0 00F0      		brlo .+2
 6091 21c2 00C0      		rjmp .L448
 6092               	.L453:
 6093 21c4 C501      		movw r24,r10
 6094 21c6 0197      		sbiw r24,1
 6095 21c8 4817      		cp r20,r24
 6096 21ca 5907      		cpc r21,r25
 6097 21cc 04F0      		brlt .+2
 6098 21ce 00C0      		rjmp .L448
 6099               	.LM642:
 6100 21d0 0894      		sec
 6101 21d2 C11C      		adc r12,__zero_reg__
 6102 21d4 D11C      		adc r13,__zero_reg__
 6103               	.LM643:
 6104 21d6 FD01      		movw r30,r26
 6105 21d8 E40F      		add r30,r20
 6106 21da F51F      		adc r31,r21
 6107 21dc 2083      		st Z,r18
 6108 21de CA01      		movw r24,r20
 6109 21e0 0196      		adiw r24,1
 6110               	.LVL498:
 6111               	.LM644:
 6112 21e2 FD01      		movw r30,r26
 6113 21e4 E80F      		add r30,r24
 6114 21e6 F91F      		adc r31,r25
 6115 21e8 3083      		st Z,r19
 6116 21ea AC01      		movw r20,r24
 6117 21ec 00C0      		rjmp .L477
 6118               	.LVL499:
 6119               	.L452:
 6120               	.LM645:
 6121 21ee 622F      		mov r22,r18
 6122 21f0 70E0      		ldi r23,lo8(0)
 6123 21f2 E0E0      		ldi r30,lo8(.LC0)
 6124 21f4 F0E0      		ldi r31,hi8(.LC0)
 6125               	.LVL500:
 6126 21f6 00C0      		rjmp .L454
 6127               	.L456:
 6128               	.LBB581:
 6129               	.LBB582:
 6130               	.LM646:
 6131 21f8 3196      		adiw r30,1
 6132               	.L454:
 6133 21fa 8081      		ld r24,Z
 6134 21fc 8823      		tst r24
 6135 21fe 01F0      		breq .L455
 6136 2200 90E0      		ldi r25,lo8(0)
 6137 2202 8617      		cp r24,r22
 6138 2204 9707      		cpc r25,r23
 6139 2206 01F4      		brne .L456
 6140 2208 00C0      		rjmp .L448
 6141               	.L455:
 6142               	.LBE582:
 6143               	.LBE581:
 6144               	.LM647:
 6145 220a 822F      		mov r24,r18
 6146 220c 8154      		subi r24,lo8(-(-65))
 6147 220e 8A31      		cpi r24,lo8(26)
 6148 2210 00F4      		brsh .L457
 6149               	.LM648:
 6150 2212 1260      		ori r17,lo8(2)
 6151 2214 00C0      		rjmp .L458
 6152               	.L457:
 6153               	.LM649:
 6154 2216 822F      		mov r24,r18
 6155 2218 8156      		subi r24,lo8(-(-97))
 6156 221a 8A31      		cpi r24,lo8(26)
 6157 221c 00F4      		brsh .L458
 6158               	.LM650:
 6159 221e 1160      		ori r17,lo8(1)
 6160 2220 2052      		subi r18,lo8(-(-32))
 6161               	.L458:
 6162               	.LM651:
 6163 2222 FD01      		movw r30,r26
 6164               	.LVL501:
 6165 2224 E40F      		add r30,r20
 6166 2226 F51F      		adc r31,r21
 6167 2228 2083      		st Z,r18
 6168               	.LVL502:
 6169               	.L477:
 6170 222a 4F5F      		subi r20,lo8(-(1))
 6171 222c 5F4F      		sbci r21,hi8(-(1))
 6172 222e 00C0      		rjmp .L475
 6173               	.LVL503:
 6174               	.L444:
 6175 2230 912F      		mov r25,r17
 6176 2232 64E0      		ldi r22,lo8(4)
 6177               	.LVL504:
 6178               	.L471:
 6179               	.LM652:
 6180 2234 452B      		or r20,r21
 6181 2236 01F4      		brne .+2
 6182 2238 00C0      		rjmp .L448
 6183               	.LM653:
 6184 223a 8C91      		ld r24,X
 6185               	.LVL505:
 6186 223c 853E      		cpi r24,lo8(-27)
 6187 223e 01F4      		brne .L459
 6188 2240 5C92      		st X,r5
 6189               	.L459:
 6190               	.LM654:
 6191 2242 E8E0      		ldi r30,lo8(8)
 6192 2244 AE16      		cp r10,r30
 6193 2246 B104      		cpc r11,__zero_reg__
 6194 2248 01F4      		brne .L460
 6195 224a 912F      		mov r25,r17
 6196 224c 990F      		lsl r25
 6197 224e 990F      		lsl r25
 6198               	.LVL506:
 6199               	.L460:
 6200               	.LM655:
 6201 2250 292F      		mov r18,r25
 6202 2252 30E0      		ldi r19,lo8(0)
 6203               	.LVL507:
 6204 2254 C901      		movw r24,r18
 6205 2256 8370      		andi r24,lo8(3)
 6206 2258 9070      		andi r25,hi8(3)
 6207 225a 0197      		sbiw r24,1
 6208 225c 01F4      		brne .L461
 6209 225e 6061      		ori r22,lo8(16)
 6210               	.L461:
 6211               	.LM656:
 6212 2260 2C70      		andi r18,lo8(12)
 6213 2262 3070      		andi r19,hi8(12)
 6214 2264 2430      		cpi r18,4
 6215 2266 3105      		cpc r19,__zero_reg__
 6216 2268 01F4      		brne .L462
 6217 226a 6860      		ori r22,lo8(8)
 6218               	.L462:
 6219               	.LM657:
 6220 226c 1B96      		adiw r26,11
 6221 226e 6C93      		st X,r22
 6222               	.LBE580:
 6223               	.LBE579:
 6224               	.LBB588:
 6225               	.LM658:
 6226 2270 CE01      		movw r24,r28
 6227 2272 60E0      		ldi r22,lo8(0)
 6228 2274 70E0      		ldi r23,hi8(0)
 6229               	.LVL508:
 6230 2276 0E94 0000 		call dir_seek
 6231               	.LVL509:
 6232               	.L478:
 6233 227a 482F      		mov r20,r24
 6234               	.LVL510:
 6235               	.LBB589:
 6236               	.LM659:
 6237 227c 8823      		tst r24
 6238 227e 01F4      		brne .L463
 6239               	.LVL511:
 6240               	.LBE589:
 6241               	.LM660:
 6242 2280 4E85      		ldd r20,Y+14
 6243 2282 5F85      		ldd r21,Y+15
 6244 2284 6889      		ldd r22,Y+16
 6245 2286 7989      		ldd r23,Y+17
 6246 2288 8881      		ld r24,Y
 6247 228a 9981      		ldd r25,Y+1
 6248               	.LVL512:
 6249 228c 0E94 0000 		call move_window
 6250 2290 482F      		mov r20,r24
 6251               	.LVL513:
 6252               	.LBB592:
 6253               	.LM661:
 6254 2292 8823      		tst r24
 6255 2294 01F4      		brne .L463
 6256               	.LVL514:
 6257               	.LM662:
 6258 2296 EA89      		ldd r30,Y+18
 6259 2298 FB89      		ldd r31,Y+19
 6260               	.LVL515:
 6261               	.LM663:
 6262 229a 8081      		ld r24,Z
 6263               	.LVL516:
 6264 229c 8823      		tst r24
 6265 229e 01F4      		brne .L464
 6266 22a0 44E0      		ldi r20,lo8(4)
 6267 22a2 00C0      		rjmp .L463
 6268               	.L464:
 6269               	.LM664:
 6270 22a4 8385      		ldd r24,Z+11
 6271 22a6 83FD      		sbrc r24,3
 6272 22a8 00C0      		rjmp .L465
 6273 22aa DF01      		movw r26,r30
 6274               	.LVL517:
 6275 22ac 8C89      		ldd r24,Y+20
 6276               	.LVL518:
 6277 22ae 9D89      		ldd r25,Y+21
 6278               	.LVL519:
 6279 22b0 9C01      		movw r18,r24
 6280               	.LVL520:
 6281 22b2 F901      		movw r30,r18
 6282               	.LVL521:
 6283 22b4 2BE0      		ldi r18,lo8(11)
 6284 22b6 30E0      		ldi r19,hi8(11)
 6285               	.LVL522:
 6286               	.L466:
 6287               	.LBB590:
 6288               	.LBB591:
 6289               	.LM665:
 6290 22b8 2150      		subi r18,lo8(-(-1))
 6291 22ba 3040      		sbci r19,hi8(-(-1))
 6292 22bc 8FEF      		ldi r24,hi8(-1)
 6293 22be 2F3F      		cpi r18,lo8(-1)
 6294 22c0 3807      		cpc r19,r24
 6295 22c2 01F0      		breq .L463
 6296 22c4 9C91      		ld r25,X
 6297               	.LVL523:
 6298 22c6 8081      		ld r24,Z
 6299 22c8 9817      		cp r25,r24
 6300 22ca 01F4      		brne .L465
 6301 22cc 1196      		adiw r26,1
 6302 22ce 3196      		adiw r30,1
 6303 22d0 00C0      		rjmp .L466
 6304               	.LVL524:
 6305               	.L465:
 6306               	.LBE591:
 6307               	.LBE590:
 6308               	.LBE592:
 6309               	.LM666:
 6310 22d2 CE01      		movw r24,r28
 6311 22d4 60E0      		ldi r22,lo8(0)
 6312 22d6 0E94 0000 		call dir_next
 6313               	.LVL525:
 6314 22da 00C0      		rjmp .L478
 6315               	.LVL526:
 6316               	.L463:
 6317               	.LBE588:
 6318               	.LM667:
 6319 22dc EC89      		ldd r30,Y+20
 6320 22de FD89      		ldd r31,Y+21
 6321               	.LVL527:
 6322 22e0 9385      		ldd r25,Z+11
 6323               	.LVL528:
 6324 22e2 9470      		andi r25,lo8(4)
 6325               	.LM668:
 6326 22e4 4423      		tst r20
 6327 22e6 01F0      		breq .L468
 6328 22e8 842F      		mov r24,r20
 6329               	.LM669:
 6330 22ea 4430      		cpi r20,lo8(4)
 6331 22ec 01F4      		brne .L469
 6332 22ee 9923      		tst r25
 6333 22f0 01F0      		breq .L470
 6334 22f2 00C0      		rjmp .L441
 6335               	.L468:
 6336               	.LM670:
 6337 22f4 9923      		tst r25
 6338 22f6 01F4      		brne .L469
 6339               	.LM671:
 6340 22f8 EA89      		ldd r30,Y+18
 6341 22fa FB89      		ldd r31,Y+19
 6342               	.LVL529:
 6343               	.LM672:
 6344 22fc 8385      		ldd r24,Z+11
 6345 22fe 84FF      		sbrs r24,4
 6346 2300 00C0      		rjmp .L470
 6347               	.LBB593:
 6348               	.LBB587:
 6349               	.LM673:
 6350 2302 EC0C      		add r14,r12
 6351 2304 FD1C      		adc r15,r13
 6352               	.LBE587:
 6353               	.LBE593:
 6354               	.LM674:
 6355 2306 7588      		ldd r7,Z+21
 6356 2308 6624      		clr r6
 6357 230a 2489      		ldd r18,Z+20
 6358               	.LVL530:
 6359 230c 30E0      		ldi r19,lo8(0)
 6360 230e 2629      		or r18,r6
 6361 2310 3729      		or r19,r7
 6362 2312 40E0      		ldi r20,lo8(0)
 6363 2314 50E0      		ldi r21,hi8(0)
 6364               	.LVL531:
 6365 2316 A901      		movw r20,r18
 6366 2318 3327      		clr r19
 6367 231a 2227      		clr r18
 6368               	.LVL532:
 6369 231c 938C      		ldd r9,Z+27
 6370 231e 8824      		clr r8
 6371 2320 828D      		ldd r24,Z+26
 6372 2322 90E0      		ldi r25,lo8(0)
 6373 2324 8829      		or r24,r8
 6374 2326 9929      		or r25,r9
 6375 2328 A0E0      		ldi r26,lo8(0)
 6376 232a B0E0      		ldi r27,hi8(0)
 6377               	.LVL533:
 6378 232c 282B      		or r18,r24
 6379 232e 392B      		or r19,r25
 6380 2330 4A2B      		or r20,r26
 6381 2332 5B2B      		or r21,r27
 6382 2334 2E83      		std Y+6,r18
 6383 2336 3F83      		std Y+7,r19
 6384 2338 4887      		std Y+8,r20
 6385 233a 5987      		std Y+9,r21
 6386 233c 00C0      		rjmp .L476
 6387               	.LVL534:
 6388               	.L448:
 6389               	.LM675:
 6390 233e 86E0      		ldi r24,lo8(6)
 6391               	.LVL535:
 6392 2340 00C0      		rjmp .L441
 6393               	.LVL536:
 6394               	.L469:
 6395 2342 842F      		mov r24,r20
 6396 2344 00C0      		rjmp .L441
 6397               	.LVL537:
 6398               	.L470:
 6399 2346 85E0      		ldi r24,lo8(5)
 6400               	.LVL538:
 6401               	.L441:
 6402               	.LVL539:
 6403               	/* epilogue start */
 6404               	.LM676:
 6405 2348 DF91      		pop r29
 6406 234a CF91      		pop r28
 6407               	.LVL540:
 6408 234c 1F91      		pop r17
 6409               	.LVL541:
 6410 234e 0F91      		pop r16
 6411 2350 FF90      		pop r15
 6412 2352 EF90      		pop r14
 6413               	.LVL542:
 6414 2354 DF90      		pop r13
 6415 2356 CF90      		pop r12
 6416               	.LVL543:
 6417 2358 BF90      		pop r11
 6418 235a AF90      		pop r10
 6419               	.LVL544:
 6420 235c 9F90      		pop r9
 6421 235e 8F90      		pop r8
 6422 2360 7F90      		pop r7
 6423 2362 6F90      		pop r6
 6424 2364 5F90      		pop r5
 6425 2366 0895      		ret
 6426               	.LVL545:
 6427               	.L445:
 6428               	.LM677:
 6429 2368 912F      		mov r25,r17
 6430 236a 60E0      		ldi r22,lo8(0)
 6431               	.LVL546:
 6432 236c 00C0      		rjmp .L471
 6433               	.LFE61:
 6436               	check_fs:
 6437               	.LFB62:
 6438               	.LM678:
 6439               	.LVL547:
 6440 236e 0F93      		push r16
 6441 2370 CF93      		push r28
 6442 2372 DF93      		push r29
 6443               	/* prologue: function */
 6444               	/* frame size = 0 */
 6445 2374 EC01      		movw r28,r24
 6446 2376 9A01      		movw r18,r20
 6447 2378 AB01      		movw r20,r22
 6448               	.LM679:
 6449 237a BC01      		movw r22,r24
 6450 237c 625D      		subi r22,lo8(-(46))
 6451 237e 7F4F      		sbci r23,hi8(-(46))
 6452 2380 8981      		ldd r24,Y+1
 6453               	.LVL548:
 6454 2382 01E0      		ldi r16,lo8(1)
 6455 2384 0E94 0000 		call disk_read
 6456               	.LVL549:
 6457 2388 8823      		tst r24
 6458 238a 01F0      		breq .L480
 6459 238c 63E0      		ldi r22,lo8(3)
 6460 238e 00C0      		rjmp .L481
 6461               	.L480:
 6462               	.LM680:
 6463 2390 C35D      		subi r28,lo8(-(557))
 6464 2392 DD4F      		sbci r29,hi8(-(557))
 6465 2394 9881      		ld r25,Y
 6466 2396 80E0      		ldi r24,lo8(0)
 6467 2398 2A91      		ld r18,-Y
 6468 239a CC52      		subi r28,lo8(-(-556))
 6469 239c D240      		sbci r29,hi8(-(-556))
 6470 239e 30E0      		ldi r19,lo8(0)
 6471 23a0 822B      		or r24,r18
 6472 23a2 932B      		or r25,r19
 6473 23a4 8555      		subi r24,lo8(-21931)
 6474 23a6 9A4A      		sbci r25,hi8(-21931)
 6475 23a8 01F0      		breq .L482
 6476 23aa 62E0      		ldi r22,lo8(2)
 6477 23ac 00C0      		rjmp .L481
 6478               	.L482:
 6479               	.LM681:
 6480 23ae C959      		subi r28,lo8(-(103))
 6481 23b0 DF4F      		sbci r29,hi8(-(103))
 6482 23b2 2881      		ld r18,Y
 6483 23b4 30E0      		ldi r19,lo8(0)
 6484 23b6 40E0      		ldi r20,lo8(0)
 6485 23b8 50E0      		ldi r21,hi8(0)
 6486 23ba 522F      		mov r21,r18
 6487 23bc 4427      		clr r20
 6488 23be 3327      		clr r19
 6489 23c0 2227      		clr r18
 6490 23c2 8A91      		ld r24,-Y
 6491 23c4 90E0      		ldi r25,lo8(0)
 6492 23c6 A0E0      		ldi r26,lo8(0)
 6493 23c8 B0E0      		ldi r27,hi8(0)
 6494 23ca DC01      		movw r26,r24
 6495 23cc 9927      		clr r25
 6496 23ce 8827      		clr r24
 6497 23d0 282B      		or r18,r24
 6498 23d2 392B      		or r19,r25
 6499 23d4 4A2B      		or r20,r26
 6500 23d6 5B2B      		or r21,r27
 6501 23d8 2297      		sbiw r28,2
 6502 23da 8991      		ld r24,Y+
 6503 23dc 90E0      		ldi r25,lo8(0)
 6504 23de A0E0      		ldi r26,lo8(0)
 6505 23e0 B0E0      		ldi r27,hi8(0)
 6506 23e2 282B      		or r18,r24
 6507 23e4 392B      		or r19,r25
 6508 23e6 4A2B      		or r20,r26
 6509 23e8 5B2B      		or r21,r27
 6510 23ea 9881      		ld r25,Y
 6511 23ec C556      		subi r28,lo8(-(-101))
 6512 23ee D040      		sbci r29,hi8(-(-101))
 6513 23f0 80E0      		ldi r24,lo8(0)
 6514 23f2 A0E0      		ldi r26,lo8(0)
 6515 23f4 B0E0      		ldi r27,hi8(0)
 6516 23f6 282B      		or r18,r24
 6517 23f8 392B      		or r19,r25
 6518 23fa 4A2B      		or r20,r26
 6519 23fc 5B2B      		or r21,r27
 6520 23fe 5070      		andi r21,hhi8(16777215)
 6521 2400 2654      		subi r18,lo8(5521734)
 6522 2402 3144      		sbci r19,hi8(5521734)
 6523 2404 4445      		sbci r20,hlo8(5521734)
 6524 2406 5040      		sbci r21,hhi8(5521734)
 6525 2408 01F4      		brne .L483
 6526 240a 60E0      		ldi r22,lo8(0)
 6527 240c 00C0      		rjmp .L481
 6528               	.L483:
 6529 240e 60E0      		ldi r22,lo8(0)
 6530 2410 CD57      		subi r28,lo8(-(131))
 6531 2412 DF4F      		sbci r29,hi8(-(131))
 6532 2414 2881      		ld r18,Y
 6533 2416 30E0      		ldi r19,lo8(0)
 6534 2418 40E0      		ldi r20,lo8(0)
 6535 241a 50E0      		ldi r21,hi8(0)
 6536 241c 522F      		mov r21,r18
 6537 241e 4427      		clr r20
 6538 2420 3327      		clr r19
 6539 2422 2227      		clr r18
 6540 2424 8A91      		ld r24,-Y
 6541 2426 90E0      		ldi r25,lo8(0)
 6542 2428 A0E0      		ldi r26,lo8(0)
 6543 242a B0E0      		ldi r27,hi8(0)
 6544 242c DC01      		movw r26,r24
 6545 242e 9927      		clr r25
 6546 2430 8827      		clr r24
 6547 2432 282B      		or r18,r24
 6548 2434 392B      		or r19,r25
 6549 2436 4A2B      		or r20,r26
 6550 2438 5B2B      		or r21,r27
 6551 243a 2297      		sbiw r28,2
 6552 243c 8991      		ld r24,Y+
 6553 243e 90E0      		ldi r25,lo8(0)
 6554 2440 A0E0      		ldi r26,lo8(0)
 6555 2442 B0E0      		ldi r27,hi8(0)
 6556 2444 282B      		or r18,r24
 6557 2446 392B      		or r19,r25
 6558 2448 4A2B      		or r20,r26
 6559 244a 5B2B      		or r21,r27
 6560 244c 9881      		ld r25,Y
 6561               	.LVL550:
 6562 244e 80E0      		ldi r24,lo8(0)
 6563 2450 A0E0      		ldi r26,lo8(0)
 6564 2452 B0E0      		ldi r27,hi8(0)
 6565 2454 282B      		or r18,r24
 6566 2456 392B      		or r19,r25
 6567 2458 4A2B      		or r20,r26
 6568 245a 5B2B      		or r21,r27
 6569 245c 5070      		andi r21,hhi8(16777215)
 6570 245e 2654      		subi r18,lo8(5521734)
 6571 2460 3144      		sbci r19,hi8(5521734)
 6572 2462 4445      		sbci r20,hlo8(5521734)
 6573 2464 5040      		sbci r21,hhi8(5521734)
 6574 2466 01F0      		breq .L481
 6575 2468 61E0      		ldi r22,lo8(1)
 6576               	.LVL551:
 6577               	.L481:
 6578               	.LM682:
 6579 246a 862F      		mov r24,r22
 6580               	/* epilogue start */
 6581 246c DF91      		pop r29
 6582 246e CF91      		pop r28
 6583               	.LVL552:
 6584 2470 0F91      		pop r16
 6585 2472 0895      		ret
 6586               	.LFE62:
 6588               	.global	chk_mounted
 6590               	chk_mounted:
 6591               	.LFB63:
 6592               	.LM683:
 6593               	.LVL553:
 6594 2474 6F92      		push r6
 6595 2476 7F92      		push r7
 6596 2478 8F92      		push r8
 6597 247a 9F92      		push r9
 6598 247c AF92      		push r10
 6599 247e BF92      		push r11
 6600 2480 CF92      		push r12
 6601 2482 DF92      		push r13
 6602 2484 EF92      		push r14
 6603 2486 FF92      		push r15
 6604 2488 0F93      		push r16
 6605 248a 1F93      		push r17
 6606 248c CF93      		push r28
 6607 248e DF93      		push r29
 6608               	/* prologue: function */
 6609               	/* frame size = 0 */
 6610 2490 FC01      		movw r30,r24
 6611 2492 9B01      		movw r18,r22
 6612 2494 F42E      		mov r15,r20
 6613               	.LM684:
 6614 2496 A081      		ld r26,Z
 6615 2498 B181      		ldd r27,Z+1
 6616               	.LVL554:
 6617               	.LM685:
 6618 249a 8C91      		ld r24,X
 6619               	.LVL555:
 6620 249c 082F      		mov r16,r24
 6621               	.LVL556:
 6622 249e 10E0      		ldi r17,lo8(0)
 6623               	.LVL557:
 6624 24a0 0053      		subi r16,lo8(-(-48))
 6625 24a2 1040      		sbci r17,hi8(-(-48))
 6626               	.LVL558:
 6627               	.LM686:
 6628 24a4 0A30      		cpi r16,10
 6629 24a6 1105      		cpc r17,__zero_reg__
 6630 24a8 00F4      		brsh .L487
 6631               	.LVL559:
 6632 24aa 1196      		adiw r26,1
 6633 24ac 8C91      		ld r24,X
 6634 24ae 1197      		sbiw r26,1
 6635 24b0 8A33      		cpi r24,lo8(58)
 6636 24b2 01F4      		brne .L487
 6637               	.LM687:
 6638 24b4 1296      		adiw r26,2
 6639 24b6 A083      		st Z,r26
 6640 24b8 B183      		std Z+1,r27
 6641               	.LM688:
 6642 24ba 0230      		cpi r16,2
 6643 24bc 1105      		cpc r17,__zero_reg__
 6644 24be 00F0      		brlo .L488
 6645 24c0 8BE0      		ldi r24,lo8(11)
 6646 24c2 00C0      		rjmp .L489
 6647               	.L487:
 6648 24c4 00E0      		ldi r16,lo8(0)
 6649 24c6 10E0      		ldi r17,hi8(0)
 6650               	.L488:
 6651               	.LM689:
 6652 24c8 F801      		movw r30,r16
 6653               	.LVL560:
 6654 24ca EE0F      		lsl r30
 6655 24cc FF1F      		rol r31
 6656 24ce E050      		subi r30,lo8(-(FatFs))
 6657 24d0 F040      		sbci r31,hi8(-(FatFs))
 6658 24d2 C081      		ld r28,Z
 6659 24d4 D181      		ldd r29,Z+1
 6660               	.LVL561:
 6661 24d6 F901      		movw r30,r18
 6662 24d8 C083      		st Z,r28
 6663 24da D183      		std Z+1,r29
 6664               	.LM690:
 6665 24dc 2097      		sbiw r28,0
 6666 24de 01F4      		brne .L490
 6667 24e0 8CE0      		ldi r24,lo8(12)
 6668 24e2 00C0      		rjmp .L489
 6669               	.L490:
 6670               	.LM691:
 6671 24e4 8881      		ld r24,Y
 6672 24e6 8823      		tst r24
 6673 24e8 01F0      		breq .L491
 6674               	.LBB594:
 6675               	.LBB595:
 6676               	.LM692:
 6677 24ea 8981      		ldd r24,Y+1
 6678 24ec 8823      		tst r24
 6679 24ee 01F0      		breq .L492
 6680 24f0 81E0      		ldi r24,lo8(1)
 6681               	.LVL562:
 6682 24f2 00C0      		rjmp .L493
 6683               	.LVL563:
 6684               	.L492:
 6685               	.LM693:
 6686 24f4 8091 0000 		lds r24,Stat
 6687               	.LVL564:
 6688               	.L493:
 6689               	.LBE595:
 6690               	.LBE594:
 6691               	.LM694:
 6692 24f8 80FD      		sbrc r24,0
 6693 24fa 00C0      		rjmp .L491
 6694               	.LVL565:
 6695               	.LM695:
 6696 24fc FF20      		tst r15
 6697 24fe 01F4      		brne .+2
 6698 2500 00C0      		rjmp .L494
 6699 2502 82FD      		sbrc r24,2
 6700 2504 00C0      		rjmp .L495
 6701 2506 00C0      		rjmp .L494
 6702               	.L491:
 6703               	.LM696:
 6704 2508 1882      		st Y,__zero_reg__
 6705               	.LM697:
 6706 250a F801      		movw r30,r16
 6707 250c EE0F      		lsl r30
 6708 250e FF1F      		rol r31
 6709 2510 E050      		subi r30,lo8(-(Drives))
 6710 2512 F040      		sbci r31,hi8(-(Drives))
 6711 2514 8081      		ld r24,Z
 6712 2516 8983      		std Y+1,r24
 6713               	.LM698:
 6714 2518 0E94 0000 		call disk_initialize
 6715               	.LVL566:
 6716               	.LM699:
 6717 251c 80FF      		sbrs r24,0
 6718 251e 00C0      		rjmp .L496
 6719 2520 83E0      		ldi r24,lo8(3)
 6720 2522 00C0      		rjmp .L489
 6721               	.L496:
 6722               	.LM700:
 6723 2524 FF20      		tst r15
 6724 2526 01F0      		breq .L497
 6725 2528 82FD      		sbrc r24,2
 6726 252a 00C0      		rjmp .L495
 6727               	.L497:
 6728               	.LM701:
 6729 252c CE01      		movw r24,r28
 6730 252e 40E0      		ldi r20,lo8(0)
 6731 2530 50E0      		ldi r21,hi8(0)
 6732 2532 60E0      		ldi r22,hlo8(0)
 6733 2534 70E0      		ldi r23,hhi8(0)
 6734 2536 0E94 0000 		call check_fs
 6735               	.LM702:
 6736 253a 8130      		cpi r24,lo8(1)
 6737               	.LVL567:
 6738 253c 01F0      		breq .L498
 6739 253e AA24      		clr r10
 6740 2540 BB24      		clr r11
 6741 2542 6501      		movw r12,r10
 6742               	.LVL568:
 6743 2544 00C0      		rjmp .L499
 6744               	.LVL569:
 6745               	.L498:
 6746               	.LM703:
 6747 2546 000F      		lsl r16
 6748 2548 111F      		rol r17
 6749 254a 0050      		subi r16,lo8(-(Drives))
 6750 254c 1040      		sbci r17,hi8(-(Drives))
 6751 254e F801      		movw r30,r16
 6752 2550 8181      		ldd r24,Z+1
 6753               	.LVL570:
 6754 2552 E82F      		mov r30,r24
 6755               	.LVL571:
 6756 2554 F0E0      		ldi r31,lo8(0)
 6757               	.LVL572:
 6758 2556 A4E0      		ldi r26,4
 6759 2558 EE0F      	1:	lsl r30
 6760 255a FF1F      		rol r31
 6761 255c AA95      		dec r26
 6762 255e 01F4      		brne 1b
 6763               	.LVL573:
 6764 2560 E451      		subi r30,lo8(-(492))
 6765 2562 FE4F      		sbci r31,hi8(-(492))
 6766 2564 EC0F      		add r30,r28
 6767 2566 FD1F      		adc r31,r29
 6768               	.LM704:
 6769 2568 8481      		ldd r24,Z+4
 6770 256a 8823      		tst r24
 6771 256c 01F4      		brne .+2
 6772 256e 00C0      		rjmp .L500
 6773               	.LM705:
 6774 2570 8385      		ldd r24,Z+11
 6775 2572 90E0      		ldi r25,lo8(0)
 6776 2574 A0E0      		ldi r26,lo8(0)
 6777 2576 B0E0      		ldi r27,hi8(0)
 6778 2578 D82E      		mov r13,r24
 6779 257a CC24      		clr r12
 6780 257c BB24      		clr r11
 6781 257e AA24      		clr r10
 6782               	.LVL574:
 6783 2580 8285      		ldd r24,Z+10
 6784 2582 90E0      		ldi r25,lo8(0)
 6785 2584 A0E0      		ldi r26,lo8(0)
 6786 2586 B0E0      		ldi r27,hi8(0)
 6787 2588 DC01      		movw r26,r24
 6788 258a 9927      		clr r25
 6789 258c 8827      		clr r24
 6790 258e A82A      		or r10,r24
 6791 2590 B92A      		or r11,r25
 6792 2592 CA2A      		or r12,r26
 6793 2594 DB2A      		or r13,r27
 6794 2596 8085      		ldd r24,Z+8
 6795 2598 90E0      		ldi r25,lo8(0)
 6796 259a A0E0      		ldi r26,lo8(0)
 6797 259c B0E0      		ldi r27,hi8(0)
 6798 259e A82A      		or r10,r24
 6799 25a0 B92A      		or r11,r25
 6800 25a2 CA2A      		or r12,r26
 6801 25a4 DB2A      		or r13,r27
 6802 25a6 9185      		ldd r25,Z+9
 6803 25a8 80E0      		ldi r24,lo8(0)
 6804 25aa A0E0      		ldi r26,lo8(0)
 6805 25ac B0E0      		ldi r27,hi8(0)
 6806 25ae A82A      		or r10,r24
 6807 25b0 B92A      		or r11,r25
 6808 25b2 CA2A      		or r12,r26
 6809 25b4 DB2A      		or r13,r27
 6810               	.LM706:
 6811 25b6 CE01      		movw r24,r28
 6812 25b8 B601      		movw r22,r12
 6813 25ba A501      		movw r20,r10
 6814 25bc 0E94 0000 		call check_fs
 6815               	.LVL575:
 6816               	.L499:
 6817               	.LM707:
 6818 25c0 8330      		cpi r24,lo8(3)
 6819 25c2 01F4      		brne .L501
 6820 25c4 81E0      		ldi r24,lo8(1)
 6821               	.LVL576:
 6822 25c6 00C0      		rjmp .L489
 6823               	.LVL577:
 6824               	.L501:
 6825               	.LM708:
 6826 25c8 8823      		tst r24
 6827 25ca 01F0      		breq .+2
 6828 25cc 00C0      		rjmp .L500
 6829 25ce 9AAD      		ldd r25,Y+58
 6830 25d0 80E0      		ldi r24,lo8(0)
 6831               	.LVL578:
 6832 25d2 29AD      		ldd r18,Y+57
 6833 25d4 30E0      		ldi r19,lo8(0)
 6834 25d6 822B      		or r24,r18
 6835 25d8 932B      		or r25,r19
 6836 25da 8050      		subi r24,lo8(512)
 6837 25dc 9240      		sbci r25,hi8(512)
 6838 25de 01F0      		breq .+2
 6839 25e0 00C0      		rjmp .L500
 6840               	.LM709:
 6841 25e2 CB5B      		subi r28,lo8(-(69))
 6842 25e4 DF4F      		sbci r29,hi8(-(69))
 6843 25e6 9881      		ld r25,Y
 6844 25e8 80E0      		ldi r24,lo8(0)
 6845 25ea 2A91      		ld r18,-Y
 6846 25ec C454      		subi r28,lo8(-(-68))
 6847 25ee D040      		sbci r29,hi8(-(-68))
 6848 25f0 30E0      		ldi r19,lo8(0)
 6849 25f2 822B      		or r24,r18
 6850 25f4 932B      		or r25,r19
 6851 25f6 7C01      		movw r14,r24
 6852               	.LVL579:
 6853 25f8 00E0      		ldi r16,lo8(0)
 6854 25fa 10E0      		ldi r17,hi8(0)
 6855               	.LVL580:
 6856               	.LM710:
 6857 25fc E114      		cp r14,__zero_reg__
 6858 25fe F104      		cpc r15,__zero_reg__
 6859 2600 0105      		cpc r16,__zero_reg__
 6860 2602 1105      		cpc r17,__zero_reg__
 6861 2604 01F4      		brne .L502
 6862 2606 CB5A      		subi r28,lo8(-(85))
 6863 2608 DF4F      		sbci r29,hi8(-(85))
 6864 260a 8881      		ld r24,Y
 6865 260c 90E0      		ldi r25,lo8(0)
 6866 260e A0E0      		ldi r26,lo8(0)
 6867 2610 B0E0      		ldi r27,hi8(0)
 6868 2612 182F      		mov r17,r24
 6869 2614 0027      		clr r16
 6870 2616 FF24      		clr r15
 6871 2618 EE24      		clr r14
 6872               	.LVL581:
 6873 261a 8A91      		ld r24,-Y
 6874 261c 90E0      		ldi r25,lo8(0)
 6875 261e A0E0      		ldi r26,lo8(0)
 6876 2620 B0E0      		ldi r27,hi8(0)
 6877 2622 DC01      		movw r26,r24
 6878 2624 9927      		clr r25
 6879 2626 8827      		clr r24
 6880 2628 E82A      		or r14,r24
 6881 262a F92A      		or r15,r25
 6882 262c 0A2B      		or r16,r26
 6883 262e 1B2B      		or r17,r27
 6884 2630 2297      		sbiw r28,2
 6885 2632 8991      		ld r24,Y+
 6886 2634 90E0      		ldi r25,lo8(0)
 6887 2636 A0E0      		ldi r26,lo8(0)
 6888 2638 B0E0      		ldi r27,hi8(0)
 6889 263a E82A      		or r14,r24
 6890 263c F92A      		or r15,r25
 6891 263e 0A2B      		or r16,r26
 6892 2640 1B2B      		or r17,r27
 6893 2642 9881      		ld r25,Y
 6894 2644 C355      		subi r28,lo8(-(-83))
 6895 2646 D040      		sbci r29,hi8(-(-83))
 6896 2648 80E0      		ldi r24,lo8(0)
 6897 264a A0E0      		ldi r26,lo8(0)
 6898 264c B0E0      		ldi r27,hi8(0)
 6899 264e E82A      		or r14,r24
 6900 2650 F92A      		or r15,r25
 6901 2652 0A2B      		or r16,r26
 6902 2654 1B2B      		or r17,r27
 6903               	.L502:
 6904               	.LM711:
 6905 2656 EE8A      		std Y+22,r14
 6906 2658 FF8A      		std Y+23,r15
 6907 265a 088F      		std Y+24,r16
 6908 265c 198F      		std Y+25,r17
 6909               	.LM712:
 6910 265e 2EAD      		ldd r18,Y+62
 6911 2660 2B83      		std Y+3,r18
 6912               	.LM713:
 6913 2662 30E0      		ldi r19,lo8(0)
 6914 2664 40E0      		ldi r20,lo8(0)
 6915 2666 50E0      		ldi r21,hi8(0)
 6916 2668 C801      		movw r24,r16
 6917 266a B701      		movw r22,r14
 6918 266c 0E94 0000 		call __mulsi3
 6919 2670 3B01      		movw r6,r22
 6920 2672 4C01      		movw r8,r24
 6921               	.LVL582:
 6922               	.LM714:
 6923 2674 9DAD      		ldd r25,Y+61
 6924 2676 80E0      		ldi r24,lo8(0)
 6925 2678 2CAD      		ldd r18,Y+60
 6926 267a 30E0      		ldi r19,lo8(0)
 6927 267c 822B      		or r24,r18
 6928 267e 932B      		or r25,r19
 6929 2680 A0E0      		ldi r26,lo8(0)
 6930 2682 B0E0      		ldi r27,hi8(0)
 6931 2684 8A0D      		add r24,r10
 6932 2686 9B1D      		adc r25,r11
 6933 2688 AC1D      		adc r26,r12
 6934 268a BD1D      		adc r27,r13
 6935 268c 8E8F      		std Y+30,r24
 6936 268e 9F8F      		std Y+31,r25
 6937 2690 A8A3      		std Y+32,r26
 6938 2692 B9A3      		std Y+33,r27
 6939               	.LM715:
 6940 2694 8BAD      		ldd r24,Y+59
 6941 2696 8A83      		std Y+2,r24
 6942               	.LM716:
 6943 2698 C05C      		subi r28,lo8(-(64))
 6944 269a DF4F      		sbci r29,hi8(-(64))
 6945 269c 9881      		ld r25,Y
 6946 269e C054      		subi r28,lo8(-(-64))
 6947 26a0 D040      		sbci r29,hi8(-(-64))
 6948 26a2 80E0      		ldi r24,lo8(0)
 6949 26a4 2FAD      		ldd r18,Y+63
 6950 26a6 422F      		mov r20,r18
 6951 26a8 50E0      		ldi r21,lo8(0)
 6952 26aa 482B      		or r20,r24
 6953 26ac 592B      		or r21,r25
 6954 26ae 4887      		std Y+8,r20
 6955 26b0 5987      		std Y+9,r21
 6956               	.LM717:
 6957 26b2 CE5B      		subi r28,lo8(-(66))
 6958 26b4 DF4F      		sbci r29,hi8(-(66))
 6959 26b6 9881      		ld r25,Y
 6960 26b8 80E0      		ldi r24,lo8(0)
 6961 26ba 2A91      		ld r18,-Y
 6962 26bc C154      		subi r28,lo8(-(-65))
 6963 26be D040      		sbci r29,hi8(-(-65))
 6964 26c0 30E0      		ldi r19,lo8(0)
 6965 26c2 822B      		or r24,r18
 6966 26c4 932B      		or r25,r19
 6967 26c6 7C01      		movw r14,r24
 6968               	.LVL583:
 6969 26c8 00E0      		ldi r16,lo8(0)
 6970 26ca 10E0      		ldi r17,hi8(0)
 6971               	.LVL584:
 6972               	.LM718:
 6973 26cc E114      		cp r14,__zero_reg__
 6974 26ce F104      		cpc r15,__zero_reg__
 6975 26d0 0105      		cpc r16,__zero_reg__
 6976 26d2 1105      		cpc r17,__zero_reg__
 6977 26d4 01F4      		brne .L503
 6978 26d6 CF5A      		subi r28,lo8(-(81))
 6979 26d8 DF4F      		sbci r29,hi8(-(81))
 6980 26da 8881      		ld r24,Y
 6981 26dc 90E0      		ldi r25,lo8(0)
 6982 26de A0E0      		ldi r26,lo8(0)
 6983 26e0 B0E0      		ldi r27,hi8(0)
 6984 26e2 182F      		mov r17,r24
 6985 26e4 0027      		clr r16
 6986 26e6 FF24      		clr r15
 6987 26e8 EE24      		clr r14
 6988               	.LVL585:
 6989 26ea 8A91      		ld r24,-Y
 6990 26ec 90E0      		ldi r25,lo8(0)
 6991 26ee A0E0      		ldi r26,lo8(0)
 6992 26f0 B0E0      		ldi r27,hi8(0)
 6993 26f2 DC01      		movw r26,r24
 6994 26f4 9927      		clr r25
 6995 26f6 8827      		clr r24
 6996 26f8 E82A      		or r14,r24
 6997 26fa F92A      		or r15,r25
 6998 26fc 0A2B      		or r16,r26
 6999 26fe 1B2B      		or r17,r27
 7000 2700 2297      		sbiw r28,2
 7001 2702 8991      		ld r24,Y+
 7002 2704 90E0      		ldi r25,lo8(0)
 7003 2706 A0E0      		ldi r26,lo8(0)
 7004 2708 B0E0      		ldi r27,hi8(0)
 7005 270a E82A      		or r14,r24
 7006 270c F92A      		or r15,r25
 7007 270e 0A2B      		or r16,r26
 7008 2710 1B2B      		or r17,r27
 7009 2712 9881      		ld r25,Y
 7010 2714 CF54      		subi r28,lo8(-(-79))
 7011 2716 D040      		sbci r29,hi8(-(-79))
 7012 2718 80E0      		ldi r24,lo8(0)
 7013 271a A0E0      		ldi r26,lo8(0)
 7014 271c B0E0      		ldi r27,hi8(0)
 7015 271e E82A      		or r14,r24
 7016 2720 F92A      		or r15,r25
 7017 2722 0A2B      		or r16,r26
 7018 2724 1B2B      		or r17,r27
 7019               	.L503:
 7020               	.LM719:
 7021 2726 9DAD      		ldd r25,Y+61
 7022 2728 80E0      		ldi r24,lo8(0)
 7023 272a 2CAD      		ldd r18,Y+60
 7024 272c 30E0      		ldi r19,lo8(0)
 7025 272e 822B      		or r24,r18
 7026 2730 932B      		or r25,r19
 7027 2732 A0E0      		ldi r26,lo8(0)
 7028 2734 B0E0      		ldi r27,hi8(0)
 7029 2736 E81A      		sub r14,r24
 7030 2738 F90A      		sbc r15,r25
 7031 273a 0A0B      		sbc r16,r26
 7032 273c 1B0B      		sbc r17,r27
 7033               	.LVL586:
 7034 273e E618      		sub r14,r6
 7035 2740 F708      		sbc r15,r7
 7036 2742 0809      		sbc r16,r8
 7037 2744 1909      		sbc r17,r9
 7038 2746 F4E0      		ldi r31,4
 7039 2748 5695      	1:	lsr r21
 7040 274a 4795      		ror r20
 7041 274c FA95      		dec r31
 7042 274e 01F4      		brne 1b
 7043 2750 CA01      		movw r24,r20
 7044 2752 A0E0      		ldi r26,lo8(0)
 7045 2754 B0E0      		ldi r27,hi8(0)
 7046 2756 E81A      		sub r14,r24
 7047 2758 F90A      		sbc r15,r25
 7048 275a 0A0B      		sbc r16,r26
 7049 275c 1B0B      		sbc r17,r27
 7050 275e 2A81      		ldd r18,Y+2
 7051 2760 30E0      		ldi r19,lo8(0)
 7052 2762 40E0      		ldi r20,lo8(0)
 7053 2764 50E0      		ldi r21,hi8(0)
 7054 2766 C801      		movw r24,r16
 7055 2768 B701      		movw r22,r14
 7056 276a 0E94 0000 		call __udivmodsi4
 7057 276e 2E5F      		subi r18,lo8(-(2))
 7058 2770 3F4F      		sbci r19,hi8(-(2))
 7059 2772 4F4F      		sbci r20,hlo8(-(2))
 7060 2774 5F4F      		sbci r21,hhi8(-(2))
 7061               	.LVL587:
 7062 2776 2A8F      		std Y+26,r18
 7063 2778 3B8F      		std Y+27,r19
 7064 277a 4C8F      		std Y+28,r20
 7065 277c 5D8F      		std Y+29,r21
 7066               	.LM720:
 7067 277e 273F      		cpi r18,lo8(4087)
 7068 2780 8FE0      		ldi r24,hi8(4087)
 7069 2782 3807      		cpc r19,r24
 7070 2784 80E0      		ldi r24,hlo8(4087)
 7071 2786 4807      		cpc r20,r24
 7072 2788 80E0      		ldi r24,hhi8(4087)
 7073 278a 5807      		cpc r21,r24
 7074 278c 00F4      		brsh .L504
 7075 278e 11E0      		ldi r17,lo8(1)
 7076               	.LVL588:
 7077 2790 00C0      		rjmp .L505
 7078               	.LVL589:
 7079               	.L504:
 7080               	.LM721:
 7081 2792 275F      		subi r18,lo8(65527)
 7082 2794 3F4F      		sbci r19,hi8(65527)
 7083 2796 4040      		sbci r20,hlo8(65527)
 7084 2798 5040      		sbci r21,hhi8(65527)
 7085 279a 00F0      		brlo .+2
 7086 279c 00C0      		rjmp .L506
 7087 279e 12E0      		ldi r17,lo8(2)
 7088               	.LVL590:
 7089               	.L505:
 7090               	.LM722:
 7091 27a0 8E8D      		ldd r24,Y+30
 7092 27a2 9F8D      		ldd r25,Y+31
 7093 27a4 A8A1      		ldd r26,Y+32
 7094 27a6 B9A1      		ldd r27,Y+33
 7095 27a8 860D      		add r24,r6
 7096 27aa 971D      		adc r25,r7
 7097 27ac A81D      		adc r26,r8
 7098 27ae B91D      		adc r27,r9
 7099 27b0 8AA3      		std Y+34,r24
 7100 27b2 9BA3      		std Y+35,r25
 7101 27b4 ACA3      		std Y+36,r26
 7102 27b6 BDA3      		std Y+37,r27
 7103               	.L508:
 7104               	.LM723:
 7105 27b8 8885      		ldd r24,Y+8
 7106 27ba 9985      		ldd r25,Y+9
 7107 27bc E4E0      		ldi r30,4
 7108 27be 9695      	1:	lsr r25
 7109 27c0 8795      		ror r24
 7110 27c2 EA95      		dec r30
 7111 27c4 01F4      		brne 1b
 7112 27c6 A0E0      		ldi r26,lo8(0)
 7113 27c8 B0E0      		ldi r27,hi8(0)
 7114 27ca 2E8D      		ldd r18,Y+30
 7115 27cc 3F8D      		ldd r19,Y+31
 7116 27ce 48A1      		ldd r20,Y+32
 7117 27d0 59A1      		ldd r21,Y+33
 7118               	.LVL591:
 7119 27d2 820F      		add r24,r18
 7120 27d4 931F      		adc r25,r19
 7121 27d6 A41F      		adc r26,r20
 7122 27d8 B51F      		adc r27,r21
 7123 27da 860D      		add r24,r6
 7124 27dc 971D      		adc r25,r7
 7125 27de A81D      		adc r26,r8
 7126 27e0 B91D      		adc r27,r9
 7127 27e2 8EA3      		std Y+38,r24
 7128 27e4 9FA3      		std Y+39,r25
 7129 27e6 A8A7      		std Y+40,r26
 7130 27e8 B9A7      		std Y+41,r27
 7131               	.LM724:
 7132 27ea 8FEF      		ldi r24,lo8(-1)
 7133 27ec 9FEF      		ldi r25,hi8(-1)
 7134 27ee AFEF      		ldi r26,hlo8(-1)
 7135 27f0 BFEF      		ldi r27,hhi8(-1)
 7136 27f2 8E87      		std Y+14,r24
 7137 27f4 9F87      		std Y+15,r25
 7138 27f6 A88B      		std Y+16,r26
 7139 27f8 B98B      		std Y+17,r27
 7140               	.LM725:
 7141 27fa 1C82      		std Y+4,__zero_reg__
 7142               	.LM726:
 7143 27fc 1330      		cpi r17,lo8(3)
 7144 27fe 01F0      		breq .+2
 7145 2800 00C0      		rjmp .L507
 7146               	.LM727:
 7147 2802 1D82      		std Y+5,__zero_reg__
 7148               	.LM728:
 7149 2804 C15A      		subi r28,lo8(-(95))
 7150 2806 DF4F      		sbci r29,hi8(-(95))
 7151 2808 3881      		ld r19,Y
 7152 280a 20E0      		ldi r18,lo8(0)
 7153 280c 8A91      		ld r24,-Y
 7154 280e CE55      		subi r28,lo8(-(-94))
 7155 2810 D040      		sbci r29,hi8(-(-94))
 7156 2812 90E0      		ldi r25,lo8(0)
 7157 2814 282B      		or r18,r24
 7158 2816 392B      		or r19,r25
 7159 2818 40E0      		ldi r20,lo8(0)
 7160 281a 50E0      		ldi r21,hi8(0)
 7161 281c 2A0D      		add r18,r10
 7162 281e 3B1D      		adc r19,r11
 7163 2820 4C1D      		adc r20,r12
 7164 2822 5D1D      		adc r21,r13
 7165 2824 2A8B      		std Y+18,r18
 7166 2826 3B8B      		std Y+19,r19
 7167 2828 4C8B      		std Y+20,r20
 7168 282a 5D8B      		std Y+21,r21
 7169               	.LM729:
 7170 282c BE01      		movw r22,r28
 7171 282e 625D      		subi r22,lo8(-(46))
 7172 2830 7F4F      		sbci r23,hi8(-(46))
 7173 2832 8981      		ldd r24,Y+1
 7174 2834 01E0      		ldi r16,lo8(1)
 7175               	.LVL592:
 7176 2836 0E94 0000 		call disk_read
 7177 283a 8823      		tst r24
 7178 283c 01F0      		breq .+2
 7179 283e 00C0      		rjmp .L507
 7180 2840 C35D      		subi r28,lo8(-(557))
 7181 2842 DD4F      		sbci r29,hi8(-(557))
 7182 2844 9881      		ld r25,Y
 7183 2846 80E0      		ldi r24,lo8(0)
 7184 2848 2A91      		ld r18,-Y
 7185 284a CC52      		subi r28,lo8(-(-556))
 7186 284c D240      		sbci r29,hi8(-(-556))
 7187 284e 30E0      		ldi r19,lo8(0)
 7188 2850 822B      		or r24,r18
 7189 2852 932B      		or r25,r19
 7190 2854 8555      		subi r24,lo8(-21931)
 7191 2856 9A4A      		sbci r25,hi8(-21931)
 7192 2858 01F0      		breq .+2
 7193 285a 00C0      		rjmp .L507
 7194 285c 29A9      		ldd r18,Y+49
 7195 285e 30E0      		ldi r19,lo8(0)
 7196 2860 40E0      		ldi r20,lo8(0)
 7197 2862 50E0      		ldi r21,hi8(0)
 7198 2864 522F      		mov r21,r18
 7199 2866 4427      		clr r20
 7200 2868 3327      		clr r19
 7201 286a 2227      		clr r18
 7202 286c 88A9      		ldd r24,Y+48
 7203 286e 90E0      		ldi r25,lo8(0)
 7204 2870 A0E0      		ldi r26,lo8(0)
 7205 2872 B0E0      		ldi r27,hi8(0)
 7206 2874 DC01      		movw r26,r24
 7207 2876 9927      		clr r25
 7208 2878 8827      		clr r24
 7209 287a 282B      		or r18,r24
 7210 287c 392B      		or r19,r25
 7211 287e 4A2B      		or r20,r26
 7212 2880 5B2B      		or r21,r27
 7213 2882 8EA5      		ldd r24,Y+46
 7214 2884 90E0      		ldi r25,lo8(0)
 7215 2886 A0E0      		ldi r26,lo8(0)
 7216 2888 B0E0      		ldi r27,hi8(0)
 7217 288a 282B      		or r18,r24
 7218 288c 392B      		or r19,r25
 7219 288e 4A2B      		or r20,r26
 7220 2890 5B2B      		or r21,r27
 7221 2892 9FA5      		ldd r25,Y+47
 7222 2894 80E0      		ldi r24,lo8(0)
 7223 2896 A0E0      		ldi r26,lo8(0)
 7224 2898 B0E0      		ldi r27,hi8(0)
 7225 289a 282B      		or r18,r24
 7226 289c 392B      		or r19,r25
 7227 289e 4A2B      		or r20,r26
 7228 28a0 5B2B      		or r21,r27
 7229 28a2 2255      		subi r18,lo8(1096897106)
 7230 28a4 3245      		sbci r19,hi8(1096897106)
 7231 28a6 4146      		sbci r20,hlo8(1096897106)
 7232 28a8 5144      		sbci r21,hhi8(1096897106)
 7233 28aa 01F0      		breq .+2
 7234 28ac 00C0      		rjmp .L507
 7235 28ae CB5E      		subi r28,lo8(-(533))
 7236 28b0 DD4F      		sbci r29,hi8(-(533))
 7237 28b2 2881      		ld r18,Y
 7238 28b4 30E0      		ldi r19,lo8(0)
 7239 28b6 40E0      		ldi r20,lo8(0)
 7240 28b8 50E0      		ldi r21,hi8(0)
 7241 28ba 522F      		mov r21,r18
 7242 28bc 4427      		clr r20
 7243 28be 3327      		clr r19
 7244 28c0 2227      		clr r18
 7245 28c2 8A91      		ld r24,-Y
 7246 28c4 90E0      		ldi r25,lo8(0)
 7247 28c6 A0E0      		ldi r26,lo8(0)
 7248 28c8 B0E0      		ldi r27,hi8(0)
 7249 28ca DC01      		movw r26,r24
 7250 28cc 9927      		clr r25
 7251 28ce 8827      		clr r24
 7252 28d0 282B      		or r18,r24
 7253 28d2 392B      		or r19,r25
 7254 28d4 4A2B      		or r20,r26
 7255 28d6 5B2B      		or r21,r27
 7256 28d8 2297      		sbiw r28,2
 7257 28da 8991      		ld r24,Y+
 7258 28dc 90E0      		ldi r25,lo8(0)
 7259 28de A0E0      		ldi r26,lo8(0)
 7260 28e0 B0E0      		ldi r27,hi8(0)
 7261 28e2 282B      		or r18,r24
 7262 28e4 392B      		or r19,r25
 7263 28e6 4A2B      		or r20,r26
 7264 28e8 5B2B      		or r21,r27
 7265 28ea 9881      		ld r25,Y
 7266 28ec C351      		subi r28,lo8(-(-531))
 7267 28ee D240      		sbci r29,hi8(-(-531))
 7268 28f0 80E0      		ldi r24,lo8(0)
 7269 28f2 A0E0      		ldi r26,lo8(0)
 7270 28f4 B0E0      		ldi r27,hi8(0)
 7271 28f6 282B      		or r18,r24
 7272 28f8 392B      		or r19,r25
 7273 28fa 4A2B      		or r20,r26
 7274 28fc 5B2B      		or r21,r27
 7275 28fe 2257      		subi r18,lo8(1631679090)
 7276 2900 3247      		sbci r19,hi8(1631679090)
 7277 2902 4144      		sbci r20,hlo8(1631679090)
 7278 2904 5146      		sbci r21,hhi8(1631679090)
 7279 2906 01F0      		breq .+2
 7280 2908 00C0      		rjmp .L507
 7281               	.LM730:
 7282 290a C35E      		subi r28,lo8(-(541))
 7283 290c DD4F      		sbci r29,hi8(-(541))
 7284 290e 2881      		ld r18,Y
 7285 2910 30E0      		ldi r19,lo8(0)
 7286 2912 40E0      		ldi r20,lo8(0)
 7287 2914 50E0      		ldi r21,hi8(0)
 7288 2916 522F      		mov r21,r18
 7289 2918 4427      		clr r20
 7290 291a 3327      		clr r19
 7291 291c 2227      		clr r18
 7292 291e 8A91      		ld r24,-Y
 7293 2920 90E0      		ldi r25,lo8(0)
 7294 2922 A0E0      		ldi r26,lo8(0)
 7295 2924 B0E0      		ldi r27,hi8(0)
 7296 2926 DC01      		movw r26,r24
 7297 2928 9927      		clr r25
 7298 292a 8827      		clr r24
 7299 292c 282B      		or r18,r24
 7300 292e 392B      		or r19,r25
 7301 2930 4A2B      		or r20,r26
 7302 2932 5B2B      		or r21,r27
 7303 2934 2297      		sbiw r28,2
 7304 2936 8991      		ld r24,Y+
 7305 2938 90E0      		ldi r25,lo8(0)
 7306 293a A0E0      		ldi r26,lo8(0)
 7307 293c B0E0      		ldi r27,hi8(0)
 7308 293e 282B      		or r18,r24
 7309 2940 392B      		or r19,r25
 7310 2942 4A2B      		or r20,r26
 7311 2944 5B2B      		or r21,r27
 7312 2946 9881      		ld r25,Y
 7313 2948 CB51      		subi r28,lo8(-(-539))
 7314 294a D240      		sbci r29,hi8(-(-539))
 7315 294c 80E0      		ldi r24,lo8(0)
 7316 294e A0E0      		ldi r26,lo8(0)
 7317 2950 B0E0      		ldi r27,hi8(0)
 7318 2952 282B      		or r18,r24
 7319 2954 392B      		or r19,r25
 7320 2956 4A2B      		or r20,r26
 7321 2958 5B2B      		or r21,r27
 7322 295a 2A87      		std Y+10,r18
 7323 295c 3B87      		std Y+11,r19
 7324 295e 4C87      		std Y+12,r20
 7325 2960 5D87      		std Y+13,r21
 7326               	.LM731:
 7327 2962 C75E      		subi r28,lo8(-(537))
 7328 2964 DD4F      		sbci r29,hi8(-(537))
 7329 2966 2881      		ld r18,Y
 7330 2968 30E0      		ldi r19,lo8(0)
 7331 296a 40E0      		ldi r20,lo8(0)
 7332 296c 50E0      		ldi r21,hi8(0)
 7333 296e 522F      		mov r21,r18
 7334 2970 4427      		clr r20
 7335 2972 3327      		clr r19
 7336 2974 2227      		clr r18
 7337 2976 8A91      		ld r24,-Y
 7338 2978 90E0      		ldi r25,lo8(0)
 7339 297a A0E0      		ldi r26,lo8(0)
 7340 297c B0E0      		ldi r27,hi8(0)
 7341 297e DC01      		movw r26,r24
 7342 2980 9927      		clr r25
 7343 2982 8827      		clr r24
 7344 2984 282B      		or r18,r24
 7345 2986 392B      		or r19,r25
 7346 2988 4A2B      		or r20,r26
 7347 298a 5B2B      		or r21,r27
 7348 298c 2297      		sbiw r28,2
 7349 298e 8991      		ld r24,Y+
 7350 2990 90E0      		ldi r25,lo8(0)
 7351 2992 A0E0      		ldi r26,lo8(0)
 7352 2994 B0E0      		ldi r27,hi8(0)
 7353 2996 282B      		or r18,r24
 7354 2998 392B      		or r19,r25
 7355 299a 4A2B      		or r20,r26
 7356 299c 5B2B      		or r21,r27
 7357 299e 9881      		ld r25,Y
 7358 29a0 C751      		subi r28,lo8(-(-535))
 7359 29a2 D240      		sbci r29,hi8(-(-535))
 7360 29a4 80E0      		ldi r24,lo8(0)
 7361 29a6 A0E0      		ldi r26,lo8(0)
 7362 29a8 B0E0      		ldi r27,hi8(0)
 7363 29aa 282B      		or r18,r24
 7364 29ac 392B      		or r19,r25
 7365 29ae 4A2B      		or r20,r26
 7366 29b0 5B2B      		or r21,r27
 7367 29b2 2E87      		std Y+14,r18
 7368 29b4 3F87      		std Y+15,r19
 7369 29b6 488B      		std Y+16,r20
 7370 29b8 598B      		std Y+17,r21
 7371               	.LVL593:
 7372               	.L507:
 7373               	.LM732:
 7374 29ba 1883      		st Y,r17
 7375               	.LM733:
 7376 29bc 1AA6      		std Y+42,__zero_reg__
 7377 29be 1BA6      		std Y+43,__zero_reg__
 7378 29c0 1CA6      		std Y+44,__zero_reg__
 7379 29c2 1DA6      		std Y+45,__zero_reg__
 7380               	.LM734:
 7381 29c4 8091 0000 		lds r24,Fsid
 7382 29c8 9091 0000 		lds r25,(Fsid)+1
 7383 29cc 0196      		adiw r24,1
 7384 29ce 8093 0000 		sts Fsid,r24
 7385 29d2 9093 0000 		sts (Fsid)+1,r25
 7386 29d6 8E83      		std Y+6,r24
 7387 29d8 9F83      		std Y+7,r25
 7388 29da 00C0      		rjmp .L494
 7389               	.LVL594:
 7390               	.L495:
 7391               	.LM735:
 7392 29dc 8AE0      		ldi r24,lo8(10)
 7393 29de 00C0      		rjmp .L489
 7394               	.LVL595:
 7395               	.L494:
 7396 29e0 80E0      		ldi r24,lo8(0)
 7397 29e2 00C0      		rjmp .L489
 7398               	.LVL596:
 7399               	.L500:
 7400 29e4 8DE0      		ldi r24,lo8(13)
 7401               	.LVL597:
 7402               	.L489:
 7403               	/* epilogue start */
 7404               	.LM736:
 7405 29e6 DF91      		pop r29
 7406 29e8 CF91      		pop r28
 7407               	.LVL598:
 7408 29ea 1F91      		pop r17
 7409               	.LVL599:
 7410 29ec 0F91      		pop r16
 7411               	.LVL600:
 7412 29ee FF90      		pop r15
 7413               	.LVL601:
 7414 29f0 EF90      		pop r14
 7415               	.LVL602:
 7416 29f2 DF90      		pop r13
 7417 29f4 CF90      		pop r12
 7418 29f6 BF90      		pop r11
 7419 29f8 AF90      		pop r10
 7420               	.LVL603:
 7421 29fa 9F90      		pop r9
 7422 29fc 8F90      		pop r8
 7423 29fe 7F90      		pop r7
 7424 2a00 6F90      		pop r6
 7425               	.LVL604:
 7426 2a02 0895      		ret
 7427               	.LVL605:
 7428               	.L506:
 7429               	.LM737:
 7430 2a04 C35A      		subi r28,lo8(-(93))
 7431 2a06 DF4F      		sbci r29,hi8(-(93))
 7432 2a08 2881      		ld r18,Y
 7433               	.LVL606:
 7434 2a0a 30E0      		ldi r19,lo8(0)
 7435 2a0c 40E0      		ldi r20,lo8(0)
 7436 2a0e 50E0      		ldi r21,hi8(0)
 7437 2a10 522F      		mov r21,r18
 7438 2a12 4427      		clr r20
 7439 2a14 3327      		clr r19
 7440 2a16 2227      		clr r18
 7441               	.LVL607:
 7442 2a18 8A91      		ld r24,-Y
 7443 2a1a 90E0      		ldi r25,lo8(0)
 7444 2a1c A0E0      		ldi r26,lo8(0)
 7445 2a1e B0E0      		ldi r27,hi8(0)
 7446 2a20 DC01      		movw r26,r24
 7447 2a22 9927      		clr r25
 7448 2a24 8827      		clr r24
 7449               	.LVL608:
 7450 2a26 282B      		or r18,r24
 7451 2a28 392B      		or r19,r25
 7452 2a2a 4A2B      		or r20,r26
 7453 2a2c 5B2B      		or r21,r27
 7454 2a2e 2297      		sbiw r28,2
 7455 2a30 8991      		ld r24,Y+
 7456 2a32 90E0      		ldi r25,lo8(0)
 7457 2a34 A0E0      		ldi r26,lo8(0)
 7458 2a36 B0E0      		ldi r27,hi8(0)
 7459 2a38 282B      		or r18,r24
 7460 2a3a 392B      		or r19,r25
 7461 2a3c 4A2B      		or r20,r26
 7462 2a3e 5B2B      		or r21,r27
 7463 2a40 9881      		ld r25,Y
 7464 2a42 CB55      		subi r28,lo8(-(-91))
 7465 2a44 D040      		sbci r29,hi8(-(-91))
 7466 2a46 80E0      		ldi r24,lo8(0)
 7467 2a48 A0E0      		ldi r26,lo8(0)
 7468 2a4a B0E0      		ldi r27,hi8(0)
 7469 2a4c 282B      		or r18,r24
 7470 2a4e 392B      		or r19,r25
 7471 2a50 4A2B      		or r20,r26
 7472 2a52 5B2B      		or r21,r27
 7473 2a54 2AA3      		std Y+34,r18
 7474 2a56 3BA3      		std Y+35,r19
 7475 2a58 4CA3      		std Y+36,r20
 7476 2a5a 5DA3      		std Y+37,r21
 7477 2a5c 13E0      		ldi r17,lo8(3)
 7478               	.LVL609:
 7479 2a5e 00C0      		rjmp .L508
 7480               	.LFE63:
 7483               	validate:
 7484               	.LFB64:
 7485               	.LM738:
 7486               	.LVL610:
 7487               	/* prologue: function */
 7488               	/* frame size = 0 */
 7489 2a60 FC01      		movw r30,r24
 7490               	.LM739:
 7491 2a62 0097      		sbiw r24,0
 7492 2a64 01F0      		breq .L511
 7493 2a66 8081      		ld r24,Z
 7494               	.LVL611:
 7495 2a68 8823      		tst r24
 7496 2a6a 01F0      		breq .L511
 7497 2a6c 8681      		ldd r24,Z+6
 7498 2a6e 9781      		ldd r25,Z+7
 7499 2a70 8617      		cp r24,r22
 7500 2a72 9707      		cpc r25,r23
 7501 2a74 01F4      		brne .L511
 7502               	.LBB596:
 7503               	.LBB597:
 7504               	.LM740:
 7505 2a76 8181      		ldd r24,Z+1
 7506 2a78 8823      		tst r24
 7507 2a7a 01F0      		breq .L512
 7508 2a7c 81E0      		ldi r24,lo8(1)
 7509 2a7e 00C0      		rjmp .L513
 7510               	.L512:
 7511               	.LM741:
 7512 2a80 8091 0000 		lds r24,Stat
 7513               	.L513:
 7514               	.LBE597:
 7515               	.LBE596:
 7516               	.LM742:
 7517 2a84 80FD      		sbrc r24,0
 7518 2a86 00C0      		rjmp .L514
 7519 2a88 80E0      		ldi r24,lo8(0)
 7520 2a8a 0895      		ret
 7521               	.L514:
 7522 2a8c 83E0      		ldi r24,lo8(3)
 7523 2a8e 0895      		ret
 7524               	.LVL612:
 7525               	.L511:
 7526 2a90 89E0      		ldi r24,lo8(9)
 7527               	.LM743:
 7528 2a92 0895      		ret
 7529               	.LFE64:
 7531               	.global	f_mount
 7533               	f_mount:
 7534               	.LFB65:
 7535               	.LM744:
 7536               	.LVL613:
 7537 2a94 CF93      		push r28
 7538 2a96 DF93      		push r29
 7539               	/* prologue: function */
 7540               	/* frame size = 0 */
 7541 2a98 EB01      		movw r28,r22
 7542               	.LM745:
 7543 2a9a 8230      		cpi r24,lo8(2)
 7544 2a9c 00F0      		brlo .L518
 7545               	.LVL614:
 7546 2a9e 8BE0      		ldi r24,lo8(11)
 7547               	.LVL615:
 7548 2aa0 00C0      		rjmp .L519
 7549               	.LVL616:
 7550               	.L518:
 7551               	.LM746:
 7552 2aa2 A82F      		mov r26,r24
 7553 2aa4 B0E0      		ldi r27,lo8(0)
 7554 2aa6 FD01      		movw r30,r26
 7555 2aa8 EE0F      		lsl r30
 7556 2aaa FF1F      		rol r31
 7557 2aac E050      		subi r30,lo8(-(FatFs))
 7558 2aae F040      		sbci r31,hi8(-(FatFs))
 7559 2ab0 0190      		ld __tmp_reg__,Z+
 7560 2ab2 F081      		ld r31,Z
 7561 2ab4 E02D      		mov r30,__tmp_reg__
 7562               	.LVL617:
 7563               	.LM747:
 7564 2ab6 3097      		sbiw r30,0
 7565 2ab8 01F0      		breq .L520
 7566               	.LM748:
 7567 2aba 1082      		st Z,__zero_reg__
 7568               	.L520:
 7569               	.LM749:
 7570 2abc 2097      		sbiw r28,0
 7571 2abe 01F0      		breq .L521
 7572               	.LM750:
 7573 2ac0 1882      		st Y,__zero_reg__
 7574               	.L521:
 7575               	.LM751:
 7576 2ac2 AA0F      		lsl r26
 7577 2ac4 BB1F      		rol r27
 7578 2ac6 A050      		subi r26,lo8(-(FatFs))
 7579 2ac8 B040      		sbci r27,hi8(-(FatFs))
 7580 2aca CD93      		st X+,r28
 7581 2acc DC93      		st X,r29
 7582 2ace 80E0      		ldi r24,lo8(0)
 7583               	.LVL618:
 7584               	.L519:
 7585               	/* epilogue start */
 7586               	.LM752:
 7587 2ad0 DF91      		pop r29
 7588 2ad2 CF91      		pop r28
 7589               	.LVL619:
 7590 2ad4 0895      		ret
 7591               	.LFE65:
 7593               	.global	f_open
 7595               	f_open:
 7596               	.LFB66:
 7597               	.LM753:
 7598               	.LVL620:
 7599 2ad6 5F92      		push r5
 7600 2ad8 6F92      		push r6
 7601 2ada 7F92      		push r7
 7602 2adc 8F92      		push r8
 7603 2ade 9F92      		push r9
 7604 2ae0 AF92      		push r10
 7605 2ae2 BF92      		push r11
 7606 2ae4 CF92      		push r12
 7607 2ae6 DF92      		push r13
 7608 2ae8 EF92      		push r14
 7609 2aea FF92      		push r15
 7610 2aec 0F93      		push r16
 7611 2aee 1F93      		push r17
 7612 2af0 DF93      		push r29
 7613 2af2 CF93      		push r28
 7614 2af4 CDB7      		in r28,__SP_L__
 7615 2af6 DEB7      		in r29,__SP_H__
 7616 2af8 A497      		sbiw r28,36
 7617 2afa CDBF      		out __SP_L__,r28
 7618 2afc DEBF      		out __SP_H__,r29
 7619               	/* prologue: function */
 7620               	/* frame size = 36 */
 7621 2afe 3C01      		movw r6,r24
 7622 2b00 6BA3      		std Y+35,r22
 7623 2b02 7CA3      		std Y+36,r23
 7624               	.LM754:
 7625 2b04 DC01      		movw r26,r24
 7626 2b06 1D92      		st X+,__zero_reg__
 7627 2b08 1C92      		st X,__zero_reg__
 7628               	.LM755:
 7629 2b0a 3FE1      		ldi r19,lo8(31)
 7630 2b0c 532E      		mov r5,r19
 7631               	.LVL621:
 7632 2b0e 5422      		and r5,r20
 7633               	.LM756:
 7634 2b10 8E01      		movw r16,r28
 7635 2b12 035F      		subi r16,lo8(-(13))
 7636 2b14 1F4F      		sbci r17,hi8(-(13))
 7637 2b16 4E71      		andi r20,lo8(30)
 7638               	.LVL622:
 7639 2b18 CE01      		movw r24,r28
 7640               	.LVL623:
 7641 2b1a 8396      		adiw r24,35
 7642 2b1c B801      		movw r22,r16
 7643               	.LVL624:
 7644 2b1e 0E94 0000 		call chk_mounted
 7645               	.LVL625:
 7646               	.LM757:
 7647 2b22 8823      		tst r24
 7648               	.LVL626:
 7649 2b24 01F0      		breq .L524
 7650 2b26 282F      		mov r18,r24
 7651 2b28 00C0      		rjmp .L525
 7652               	.LVL627:
 7653               	.L524:
 7654               	.LM758:
 7655 2b2a CE01      		movw r24,r28
 7656               	.LVL628:
 7657 2b2c 0196      		adiw r24,1
 7658 2b2e 89A3      		std Y+33,r24
 7659 2b30 9AA3      		std Y+34,r25
 7660               	.LM759:
 7661 2b32 6BA1      		ldd r22,Y+35
 7662 2b34 7CA1      		ldd r23,Y+36
 7663 2b36 C801      		movw r24,r16
 7664 2b38 0E94 0000 		call follow_path
 7665 2b3c 282F      		mov r18,r24
 7666               	.LVL629:
 7667               	.LM760:
 7668 2b3e 452D      		mov r20,r5
 7669               	.LVL630:
 7670 2b40 50E0      		ldi r21,lo8(0)
 7671 2b42 CA01      		movw r24,r20
 7672 2b44 8C71      		andi r24,lo8(28)
 7673 2b46 9070      		andi r25,hi8(28)
 7674 2b48 892B      		or r24,r25
 7675 2b4a 01F4      		brne .+2
 7676 2b4c 00C0      		rjmp .L526
 7677               	.LBB598:
 7678               	.LM761:
 7679 2b4e 2223      		tst r18
 7680 2b50 01F0      		breq .L527
 7681               	.LM762:
 7682 2b52 2430      		cpi r18,lo8(4)
 7683 2b54 01F0      		breq .+2
 7684 2b56 00C0      		rjmp .L525
 7685               	.LM763:
 7686 2b58 C801      		movw r24,r16
 7687 2b5a 0E94 0000 		call dir_register
 7688               	.LVL631:
 7689 2b5e 282F      		mov r18,r24
 7690               	.LVL632:
 7691               	.LM764:
 7692 2b60 8823      		tst r24
 7693 2b62 01F0      		breq .+2
 7694 2b64 00C0      		rjmp .L525
 7695               	.LVL633:
 7696               	.LM765:
 7697 2b66 B8E0      		ldi r27,lo8(8)
 7698 2b68 5B2A      		or r5,r27
 7699               	.LM766:
 7700 2b6a 0F8D      		ldd r16,Y+31
 7701 2b6c 18A1      		ldd r17,Y+32
 7702               	.LVL634:
 7703 2b6e 00C0      		rjmp .L528
 7704               	.LVL635:
 7705               	.L527:
 7706               	.LM767:
 7707 2b70 52FE      		sbrs r5,2
 7708 2b72 00C0      		rjmp .L529
 7709               	.LVL636:
 7710 2b74 28E0      		ldi r18,lo8(8)
 7711 2b76 00C0      		rjmp .L525
 7712               	.L529:
 7713               	.LM768:
 7714 2b78 0F8D      		ldd r16,Y+31
 7715 2b7a 18A1      		ldd r17,Y+32
 7716               	.LVL637:
 7717               	.LM769:
 7718 2b7c 0115      		cp r16,__zero_reg__
 7719 2b7e 1105      		cpc r17,__zero_reg__
 7720 2b80 01F4      		brne .+2
 7721 2b82 00C0      		rjmp .L530
 7722 2b84 F801      		movw r30,r16
 7723 2b86 8385      		ldd r24,Z+11
 7724 2b88 8171      		andi r24,lo8(17)
 7725 2b8a 01F0      		breq .+2
 7726 2b8c 00C0      		rjmp .L530
 7727               	.LM770:
 7728 2b8e 53FE      		sbrs r5,3
 7729 2b90 00C0      		rjmp .L528
 7730               	.LM771:
 7731 2b92 9589      		ldd r25,Z+21
 7732 2b94 80E0      		ldi r24,lo8(0)
 7733 2b96 2489      		ldd r18,Z+20
 7734               	.LVL638:
 7735 2b98 30E0      		ldi r19,lo8(0)
 7736 2b9a 822B      		or r24,r18
 7737 2b9c 932B      		or r25,r19
 7738 2b9e A0E0      		ldi r26,lo8(0)
 7739 2ba0 B0E0      		ldi r27,hi8(0)
 7740 2ba2 7C01      		movw r14,r24
 7741 2ba4 DD24      		clr r13
 7742 2ba6 CC24      		clr r12
 7743               	.LVL639:
 7744 2ba8 938D      		ldd r25,Z+27
 7745 2baa 80E0      		ldi r24,lo8(0)
 7746 2bac 228D      		ldd r18,Z+26
 7747 2bae 30E0      		ldi r19,lo8(0)
 7748 2bb0 822B      		or r24,r18
 7749 2bb2 932B      		or r25,r19
 7750 2bb4 A0E0      		ldi r26,lo8(0)
 7751 2bb6 B0E0      		ldi r27,hi8(0)
 7752 2bb8 C82A      		or r12,r24
 7753 2bba D92A      		or r13,r25
 7754 2bbc EA2A      		or r14,r26
 7755 2bbe FB2A      		or r15,r27
 7756               	.LM772:
 7757 2bc0 148A      		std Z+20,__zero_reg__
 7758 2bc2 158A      		std Z+21,__zero_reg__
 7759               	.LM773:
 7760 2bc4 128E      		std Z+26,__zero_reg__
 7761 2bc6 138E      		std Z+27,__zero_reg__
 7762               	.LM774:
 7763 2bc8 148E      		std Z+28,__zero_reg__
 7764 2bca 158E      		std Z+29,__zero_reg__
 7765 2bcc 168E      		std Z+30,__zero_reg__
 7766 2bce 178E      		std Z+31,__zero_reg__
 7767               	.LM775:
 7768 2bd0 ED85      		ldd r30,Y+13
 7769 2bd2 FE85      		ldd r31,Y+14
 7770 2bd4 81E0      		ldi r24,lo8(1)
 7771 2bd6 8483      		std Z+4,r24
 7772               	.LM776:
 7773 2bd8 82A4      		ldd r8,Z+42
 7774 2bda 93A4      		ldd r9,Z+43
 7775 2bdc A4A4      		ldd r10,Z+44
 7776 2bde B5A4      		ldd r11,Z+45
 7777               	.LVL640:
 7778               	.LM777:
 7779 2be0 C114      		cp r12,__zero_reg__
 7780 2be2 D104      		cpc r13,__zero_reg__
 7781 2be4 E104      		cpc r14,__zero_reg__
 7782 2be6 F104      		cpc r15,__zero_reg__
 7783 2be8 01F0      		breq .L531
 7784               	.LM778:
 7785 2bea CF01      		movw r24,r30
 7786 2bec B701      		movw r22,r14
 7787 2bee A601      		movw r20,r12
 7788 2bf0 0E94 0000 		call remove_chain
 7789 2bf4 282F      		mov r18,r24
 7790               	.LVL641:
 7791               	.LM779:
 7792 2bf6 8823      		tst r24
 7793 2bf8 01F0      		breq .+2
 7794 2bfa 00C0      		rjmp .L525
 7795               	.LVL642:
 7796               	.LM780:
 7797 2bfc ED85      		ldd r30,Y+13
 7798 2bfe FE85      		ldd r31,Y+14
 7799 2c00 0894      		sec
 7800 2c02 C108      		sbc r12,__zero_reg__
 7801 2c04 D108      		sbc r13,__zero_reg__
 7802 2c06 E108      		sbc r14,__zero_reg__
 7803 2c08 F108      		sbc r15,__zero_reg__
 7804 2c0a C286      		std Z+10,r12
 7805 2c0c D386      		std Z+11,r13
 7806 2c0e E486      		std Z+12,r14
 7807 2c10 F586      		std Z+13,r15
 7808               	.L531:
 7809               	.LM781:
 7810 2c12 8D85      		ldd r24,Y+13
 7811 2c14 9E85      		ldd r25,Y+14
 7812               	.LVL643:
 7813 2c16 B501      		movw r22,r10
 7814 2c18 A401      		movw r20,r8
 7815 2c1a 0E94 0000 		call move_window
 7816               	.LVL644:
 7817 2c1e 282F      		mov r18,r24
 7818               	.LVL645:
 7819               	.LM782:
 7820 2c20 8823      		tst r24
 7821 2c22 01F0      		breq .+2
 7822 2c24 00C0      		rjmp .L525
 7823               	.LVL646:
 7824               	.L528:
 7825               	.LM783:
 7826 2c26 53FE      		sbrs r5,3
 7827 2c28 00C0      		rjmp .L532
 7828               	.LM784:
 7829 2c2a D801      		movw r26,r16
 7830 2c2c 1B96      		adiw r26,11
 7831 2c2e 1C92      		st X,__zero_reg__
 7832 2c30 1B97      		sbiw r26,11
 7833               	.LM785:
 7834 2c32 1E96      		adiw r26,14
 7835 2c34 1C92      		st X,__zero_reg__
 7836 2c36 1E97      		sbiw r26,14
 7837 2c38 1F96      		adiw r26,15
 7838 2c3a 1C92      		st X,__zero_reg__
 7839 2c3c 1F97      		sbiw r26,15
 7840 2c3e 5096      		adiw r26,16
 7841 2c40 1C92      		st X,__zero_reg__
 7842 2c42 5097      		sbiw r26,16
 7843 2c44 5196      		adiw r26,17
 7844 2c46 1C92      		st X,__zero_reg__
 7845               	.LM786:
 7846 2c48 ED85      		ldd r30,Y+13
 7847 2c4a FE85      		ldd r31,Y+14
 7848 2c4c 81E0      		ldi r24,lo8(1)
 7849 2c4e 8483      		std Z+4,r24
 7850               	.LM787:
 7851 2c50 B0E2      		ldi r27,lo8(32)
 7852 2c52 5B2A      		or r5,r27
 7853 2c54 00C0      		rjmp .L532
 7854               	.LVL647:
 7855               	.L526:
 7856               	.LBE598:
 7857               	.LM788:
 7858 2c56 2223      		tst r18
 7859 2c58 01F0      		breq .+2
 7860 2c5a 00C0      		rjmp .L525
 7861               	.LM789:
 7862 2c5c 0F8D      		ldd r16,Y+31
 7863 2c5e 18A1      		ldd r17,Y+32
 7864               	.LVL648:
 7865               	.LM790:
 7866 2c60 0115      		cp r16,__zero_reg__
 7867 2c62 1105      		cpc r17,__zero_reg__
 7868 2c64 01F4      		brne .+2
 7869 2c66 00C0      		rjmp .L533
 7870 2c68 F801      		movw r30,r16
 7871 2c6a 8385      		ldd r24,Z+11
 7872 2c6c 84FD      		sbrc r24,4
 7873 2c6e 00C0      		rjmp .L533
 7874               	.LM791:
 7875 2c70 51FE      		sbrs r5,1
 7876 2c72 00C0      		rjmp .L532
 7877               	.LVL649:
 7878 2c74 80FD      		sbrc r24,0
 7879 2c76 00C0      		rjmp .L530
 7880               	.LVL650:
 7881               	.L532:
 7882               	.LM792:
 7883 2c78 ED85      		ldd r30,Y+13
 7884 2c7a FE85      		ldd r31,Y+14
 7885 2c7c 22A5      		ldd r18,Z+42
 7886 2c7e 33A5      		ldd r19,Z+43
 7887 2c80 44A5      		ldd r20,Z+44
 7888 2c82 55A5      		ldd r21,Z+45
 7889               	.LVL651:
 7890 2c84 D301      		movw r26,r6
 7891 2c86 5A96      		adiw r26,26
 7892 2c88 2D93      		st X+,r18
 7893 2c8a 3D93      		st X+,r19
 7894 2c8c 4D93      		st X+,r20
 7895 2c8e 5C93      		st X,r21
 7896 2c90 5D97      		sbiw r26,26+3
 7897               	.LM793:
 7898 2c92 8F8D      		ldd r24,Y+31
 7899 2c94 98A1      		ldd r25,Y+32
 7900               	.LVL652:
 7901 2c96 5E96      		adiw r26,30
 7902 2c98 8D93      		st X+,r24
 7903 2c9a 9C93      		st X,r25
 7904 2c9c 5F97      		sbiw r26,30+1
 7905               	.LM794:
 7906 2c9e 1496      		adiw r26,4
 7907 2ca0 5C92      		st X,r5
 7908               	.LM795:
 7909 2ca2 D801      		movw r26,r16
 7910 2ca4 5596      		adiw r26,21
 7911 2ca6 3C91      		ld r19,X
 7912 2ca8 5597      		sbiw r26,21
 7913 2caa 20E0      		ldi r18,lo8(0)
 7914 2cac 5496      		adiw r26,20
 7915 2cae 8C91      		ld r24,X
 7916 2cb0 5497      		sbiw r26,20
 7917 2cb2 90E0      		ldi r25,lo8(0)
 7918 2cb4 282B      		or r18,r24
 7919 2cb6 392B      		or r19,r25
 7920 2cb8 40E0      		ldi r20,lo8(0)
 7921 2cba 50E0      		ldi r21,hi8(0)
 7922 2cbc A901      		movw r20,r18
 7923 2cbe 3327      		clr r19
 7924 2cc0 2227      		clr r18
 7925 2cc2 5B96      		adiw r26,27
 7926 2cc4 9C91      		ld r25,X
 7927 2cc6 5B97      		sbiw r26,27
 7928 2cc8 80E0      		ldi r24,lo8(0)
 7929 2cca 5A96      		adiw r26,26
 7930 2ccc 6C91      		ld r22,X
 7931 2cce 70E0      		ldi r23,lo8(0)
 7932 2cd0 862B      		or r24,r22
 7933 2cd2 972B      		or r25,r23
 7934 2cd4 A0E0      		ldi r26,lo8(0)
 7935 2cd6 B0E0      		ldi r27,hi8(0)
 7936 2cd8 282B      		or r18,r24
 7937 2cda 392B      		or r19,r25
 7938 2cdc 4A2B      		or r20,r26
 7939 2cde 5B2B      		or r21,r27
 7940 2ce0 D301      		movw r26,r6
 7941 2ce2 1E96      		adiw r26,14
 7942 2ce4 2D93      		st X+,r18
 7943 2ce6 3D93      		st X+,r19
 7944 2ce8 4D93      		st X+,r20
 7945 2cea 5C93      		st X,r21
 7946 2cec 5197      		sbiw r26,14+3
 7947               	.LM796:
 7948 2cee D801      		movw r26,r16
 7949 2cf0 5F96      		adiw r26,31
 7950 2cf2 2C91      		ld r18,X
 7951 2cf4 5F97      		sbiw r26,31
 7952 2cf6 30E0      		ldi r19,lo8(0)
 7953 2cf8 40E0      		ldi r20,lo8(0)
 7954 2cfa 50E0      		ldi r21,hi8(0)
 7955 2cfc 522F      		mov r21,r18
 7956 2cfe 4427      		clr r20
 7957 2d00 3327      		clr r19
 7958 2d02 2227      		clr r18
 7959 2d04 5E96      		adiw r26,30
 7960 2d06 8C91      		ld r24,X
 7961 2d08 90E0      		ldi r25,lo8(0)
 7962 2d0a A0E0      		ldi r26,lo8(0)
 7963 2d0c B0E0      		ldi r27,hi8(0)
 7964 2d0e DC01      		movw r26,r24
 7965 2d10 9927      		clr r25
 7966 2d12 8827      		clr r24
 7967 2d14 282B      		or r18,r24
 7968 2d16 392B      		or r19,r25
 7969 2d18 4A2B      		or r20,r26
 7970 2d1a 5B2B      		or r21,r27
 7971 2d1c D801      		movw r26,r16
 7972 2d1e 5C96      		adiw r26,28
 7973 2d20 8C91      		ld r24,X
 7974 2d22 90E0      		ldi r25,lo8(0)
 7975 2d24 A0E0      		ldi r26,lo8(0)
 7976 2d26 B0E0      		ldi r27,hi8(0)
 7977 2d28 282B      		or r18,r24
 7978 2d2a 392B      		or r19,r25
 7979 2d2c 4A2B      		or r20,r26
 7980 2d2e 5B2B      		or r21,r27
 7981 2d30 D801      		movw r26,r16
 7982 2d32 5D96      		adiw r26,29
 7983 2d34 9C91      		ld r25,X
 7984 2d36 80E0      		ldi r24,lo8(0)
 7985 2d38 A0E0      		ldi r26,lo8(0)
 7986 2d3a B0E0      		ldi r27,hi8(0)
 7987 2d3c 282B      		or r18,r24
 7988 2d3e 392B      		or r19,r25
 7989 2d40 4A2B      		or r20,r26
 7990 2d42 5B2B      		or r21,r27
 7991 2d44 D301      		movw r26,r6
 7992 2d46 1A96      		adiw r26,10
 7993 2d48 2D93      		st X+,r18
 7994 2d4a 3D93      		st X+,r19
 7995 2d4c 4D93      		st X+,r20
 7996 2d4e 5C93      		st X,r21
 7997 2d50 1D97      		sbiw r26,10+3
 7998               	.LM797:
 7999 2d52 1696      		adiw r26,6
 8000 2d54 1D92      		st X+,__zero_reg__
 8001 2d56 1D92      		st X+,__zero_reg__
 8002 2d58 1D92      		st X+,__zero_reg__
 8003 2d5a 1C92      		st X,__zero_reg__
 8004 2d5c 1997      		sbiw r26,6+3
 8005 2d5e 8FEF      		ldi r24,lo8(-1)
 8006 2d60 1596      		adiw r26,5
 8007 2d62 8C93      		st X,r24
 8008 2d64 1597      		sbiw r26,5
 8009               	.LM798:
 8010 2d66 5696      		adiw r26,22
 8011 2d68 1D92      		st X+,__zero_reg__
 8012 2d6a 1D92      		st X+,__zero_reg__
 8013 2d6c 1D92      		st X+,__zero_reg__
 8014 2d6e 1C92      		st X,__zero_reg__
 8015 2d70 5997      		sbiw r26,22+3
 8016               	.LM799:
 8017 2d72 ED93      		st X+,r30
 8018 2d74 FC93      		st X,r31
 8019 2d76 1197      		sbiw r26,1
 8020 2d78 8681      		ldd r24,Z+6
 8021 2d7a 9781      		ldd r25,Z+7
 8022 2d7c 1296      		adiw r26,2
 8023 2d7e 8D93      		st X+,r24
 8024 2d80 9C93      		st X,r25
 8025 2d82 1397      		sbiw r26,2+1
 8026 2d84 20E0      		ldi r18,lo8(0)
 8027               	.LVL653:
 8028 2d86 00C0      		rjmp .L525
 8029               	.LVL654:
 8030               	.L530:
 8031               	.LM800:
 8032 2d88 27E0      		ldi r18,lo8(7)
 8033 2d8a 00C0      		rjmp .L525
 8034               	.LVL655:
 8035               	.L533:
 8036 2d8c 24E0      		ldi r18,lo8(4)
 8037               	.LVL656:
 8038               	.L525:
 8039               	.LM801:
 8040 2d8e 822F      		mov r24,r18
 8041               	/* epilogue start */
 8042 2d90 A496      		adiw r28,36
 8043 2d92 CDBF      		out __SP_L__,r28
 8044 2d94 DEBF      		out __SP_H__,r29
 8045 2d96 CF91      		pop r28
 8046 2d98 DF91      		pop r29
 8047 2d9a 1F91      		pop r17
 8048 2d9c 0F91      		pop r16
 8049               	.LVL657:
 8050 2d9e FF90      		pop r15
 8051 2da0 EF90      		pop r14
 8052 2da2 DF90      		pop r13
 8053 2da4 CF90      		pop r12
 8054               	.LVL658:
 8055 2da6 BF90      		pop r11
 8056 2da8 AF90      		pop r10
 8057 2daa 9F90      		pop r9
 8058 2dac 8F90      		pop r8
 8059               	.LVL659:
 8060 2dae 7F90      		pop r7
 8061 2db0 6F90      		pop r6
 8062               	.LVL660:
 8063 2db2 5F90      		pop r5
 8064               	.LVL661:
 8065 2db4 0895      		ret
 8066               	.LFE66:
 8068               	.global	f_read
 8070               	f_read:
 8071               	.LFB67:
 8072               	.LM802:
 8073               	.LVL662:
 8074 2db6 2F92      		push r2
 8075 2db8 3F92      		push r3
 8076 2dba 4F92      		push r4
 8077 2dbc 5F92      		push r5
 8078 2dbe 6F92      		push r6
 8079 2dc0 7F92      		push r7
 8080 2dc2 8F92      		push r8
 8081 2dc4 9F92      		push r9
 8082 2dc6 AF92      		push r10
 8083 2dc8 BF92      		push r11
 8084 2dca CF92      		push r12
 8085 2dcc DF92      		push r13
 8086 2dce EF92      		push r14
 8087 2dd0 FF92      		push r15
 8088 2dd2 0F93      		push r16
 8089 2dd4 1F93      		push r17
 8090 2dd6 DF93      		push r29
 8091 2dd8 CF93      		push r28
 8092 2dda 00D0      		rcall .
 8093 2ddc 0F92      		push __tmp_reg__
 8094 2dde CDB7      		in r28,__SP_L__
 8095 2de0 DEB7      		in r29,__SP_H__
 8096               	/* prologue: function */
 8097               	/* frame size = 4 */
 8098 2de2 8B83      		std Y+3,r24
 8099 2de4 9C83      		std Y+4,r25
 8100 2de6 162F      		mov r17,r22
 8101 2de8 072F      		mov r16,r23
 8102               	.LVL663:
 8103 2dea 4A01      		movw r8,r20
 8104 2dec 2983      		std Y+1,r18
 8105 2dee 3A83      		std Y+2,r19
 8106               	.LM803:
 8107 2df0 D901      		movw r26,r18
 8108 2df2 1D92      		st X+,__zero_reg__
 8109 2df4 1C92      		st X,__zero_reg__
 8110               	.LM804:
 8111 2df6 FC01      		movw r30,r24
 8112 2df8 6281      		ldd r22,Z+2
 8113 2dfa 7381      		ldd r23,Z+3
 8114               	.LVL664:
 8115 2dfc 8081      		ld r24,Z
 8116 2dfe 9181      		ldd r25,Z+1
 8117               	.LVL665:
 8118 2e00 0E94 0000 		call validate
 8119               	.LVL666:
 8120 2e04 782E      		mov r7,r24
 8121               	.LVL667:
 8122               	.LM805:
 8123 2e06 8823      		tst r24
 8124 2e08 01F0      		breq .+2
 8125 2e0a 00C0      		rjmp .L536
 8126               	.LVL668:
 8127               	.LM806:
 8128 2e0c AB81      		ldd r26,Y+3
 8129 2e0e BC81      		ldd r27,Y+4
 8130 2e10 1496      		adiw r26,4
 8131 2e12 8C91      		ld r24,X
 8132               	.LVL669:
 8133 2e14 87FD      		sbrc r24,7
 8134 2e16 00C0      		rjmp .L564
 8135               	.L537:
 8136               	.LM807:
 8137 2e18 80FD      		sbrc r24,0
 8138 2e1a 00C0      		rjmp .L538
 8139 2e1c A7E0      		ldi r26,lo8(7)
 8140 2e1e 7A2E      		mov r7,r26
 8141 2e20 00C0      		rjmp .L536
 8142               	.L538:
 8143               	.LM808:
 8144 2e22 EB81      		ldd r30,Y+3
 8145 2e24 FC81      		ldd r31,Y+4
 8146 2e26 2285      		ldd r18,Z+10
 8147 2e28 3385      		ldd r19,Z+11
 8148 2e2a 4485      		ldd r20,Z+12
 8149 2e2c 5585      		ldd r21,Z+13
 8150               	.LVL670:
 8151 2e2e 8681      		ldd r24,Z+6
 8152 2e30 9781      		ldd r25,Z+7
 8153 2e32 A085      		ldd r26,Z+8
 8154 2e34 B185      		ldd r27,Z+9
 8155 2e36 281B      		sub r18,r24
 8156 2e38 390B      		sbc r19,r25
 8157 2e3a 4A0B      		sbc r20,r26
 8158 2e3c 5B0B      		sbc r21,r27
 8159               	.LM809:
 8160 2e3e C401      		movw r24,r8
 8161 2e40 A0E0      		ldi r26,lo8(0)
 8162 2e42 B0E0      		ldi r27,hi8(0)
 8163               	.LVL671:
 8164 2e44 2817      		cp r18,r24
 8165 2e46 3907      		cpc r19,r25
 8166 2e48 4A07      		cpc r20,r26
 8167 2e4a 5B07      		cpc r21,r27
 8168 2e4c 00F4      		brsh .L539
 8169               	.LVL672:
 8170 2e4e 4901      		movw r8,r18
 8171               	.LVL673:
 8172               	.L539:
 8173               	.LM810:
 8174 2e50 812F      		mov r24,r17
 8175               	.LVL674:
 8176 2e52 902F      		mov r25,r16
 8177               	.LVL675:
 8178 2e54 9C01      		movw r18,r24
 8179               	.LVL676:
 8180 2e56 2901      		movw r4,r18
 8181               	.LVL677:
 8182               	.LBB599:
 8183               	.LBB600:
 8184               	.LM811:
 8185 2e58 F0E2      		ldi r31,lo8(32)
 8186 2e5a 2F2E      		mov r2,r31
 8187 2e5c 312C      		mov r3,__zero_reg__
 8188               	.LVL678:
 8189 2e5e 6B81      		ldd r22,Y+3
 8190 2e60 7C81      		ldd r23,Y+4
 8191 2e62 260E      		add r2,r22
 8192 2e64 371E      		adc r3,r23
 8193 2e66 00C0      		rjmp .L540
 8194               	.LVL679:
 8195               	.L562:
 8196               	.LBE600:
 8197               	.LBE599:
 8198               	.LM812:
 8199 2e68 AB81      		ldd r26,Y+3
 8200 2e6a BC81      		ldd r27,Y+4
 8201               	.LVL680:
 8202 2e6c 1696      		adiw r26,6
 8203 2e6e 2D91      		ld r18,X+
 8204 2e70 3D91      		ld r19,X+
 8205 2e72 4D91      		ld r20,X+
 8206 2e74 5C91      		ld r21,X
 8207 2e76 1997      		sbiw r26,6+3
 8208 2e78 DA01      		movw r26,r20
 8209 2e7a C901      		movw r24,r18
 8210 2e7c 9170      		andi r25,hi8(511)
 8211 2e7e A070      		andi r26,hlo8(511)
 8212 2e80 B070      		andi r27,hhi8(511)
 8213 2e82 0097      		sbiw r24,0
 8214 2e84 A105      		cpc r26,__zero_reg__
 8215 2e86 B105      		cpc r27,__zero_reg__
 8216 2e88 01F0      		breq .+2
 8217 2e8a 00C0      		rjmp .L541
 8218               	.LM813:
 8219 2e8c AB81      		ldd r26,Y+3
 8220 2e8e BC81      		ldd r27,Y+4
 8221 2e90 ED91      		ld r30,X+
 8222 2e92 FC91      		ld r31,X
 8223 2e94 1197      		sbiw r26,1
 8224 2e96 1596      		adiw r26,5
 8225 2e98 9C91      		ld r25,X
 8226 2e9a 1597      		sbiw r26,5
 8227               	.LVL681:
 8228 2e9c 8281      		ldd r24,Z+2
 8229 2e9e 9817      		cp r25,r24
 8230 2ea0 00F0      		brlo .L542
 8231               	.LM814:
 8232 2ea2 2115      		cp r18,__zero_reg__
 8233 2ea4 3105      		cpc r19,__zero_reg__
 8234 2ea6 4105      		cpc r20,__zero_reg__
 8235 2ea8 5105      		cpc r21,__zero_reg__
 8236 2eaa 01F4      		brne .L543
 8237 2eac 1E96      		adiw r26,14
 8238 2eae 6D91      		ld r22,X+
 8239 2eb0 7D91      		ld r23,X+
 8240 2eb2 8D91      		ld r24,X+
 8241 2eb4 9C91      		ld r25,X
 8242 2eb6 5197      		sbiw r26,14+3
 8243               	.LVL682:
 8244 2eb8 00C0      		rjmp .L544
 8245               	.LVL683:
 8246               	.L543:
 8247 2eba AB81      		ldd r26,Y+3
 8248 2ebc BC81      		ldd r27,Y+4
 8249 2ebe 5296      		adiw r26,18
 8250 2ec0 4D91      		ld r20,X+
 8251 2ec2 5D91      		ld r21,X+
 8252 2ec4 6D91      		ld r22,X+
 8253 2ec6 7C91      		ld r23,X
 8254 2ec8 5597      		sbiw r26,18+3
 8255 2eca CF01      		movw r24,r30
 8256 2ecc 0E94 0000 		call get_fat
 8257               	.LVL684:
 8258               	.L544:
 8259               	.LM815:
 8260 2ed0 6230      		cpi r22,lo8(2)
 8261 2ed2 7105      		cpc r23,__zero_reg__
 8262 2ed4 8105      		cpc r24,__zero_reg__
 8263 2ed6 9105      		cpc r25,__zero_reg__
 8264 2ed8 00F4      		brsh .L545
 8265 2eda EB81      		ldd r30,Y+3
 8266 2edc FC81      		ldd r31,Y+4
 8267 2ede 8481      		ldd r24,Z+4
 8268 2ee0 8068      		ori r24,lo8(-128)
 8269 2ee2 8483      		std Z+4,r24
 8270               	.LVL685:
 8271               	.L564:
 8272 2ee4 E2E0      		ldi r30,lo8(2)
 8273 2ee6 7E2E      		mov r7,r30
 8274 2ee8 00C0      		rjmp .L536
 8275               	.LVL686:
 8276               	.L545:
 8277               	.LM816:
 8278 2eea 6F3F      		cpi r22,lo8(-1)
 8279 2eec FFEF      		ldi r31,hi8(-1)
 8280 2eee 7F07      		cpc r23,r31
 8281 2ef0 FFEF      		ldi r31,hlo8(-1)
 8282 2ef2 8F07      		cpc r24,r31
 8283 2ef4 FFEF      		ldi r31,hhi8(-1)
 8284 2ef6 9F07      		cpc r25,r31
 8285 2ef8 01F4      		brne .+2
 8286 2efa 00C0      		rjmp .L565
 8287               	.L546:
 8288               	.LM817:
 8289 2efc EB81      		ldd r30,Y+3
 8290 2efe FC81      		ldd r31,Y+4
 8291 2f00 628B      		std Z+18,r22
 8292 2f02 738B      		std Z+19,r23
 8293 2f04 848B      		std Z+20,r24
 8294 2f06 958B      		std Z+21,r25
 8295               	.LM818:
 8296 2f08 1582      		std Z+5,__zero_reg__
 8297               	.LVL687:
 8298               	.L542:
 8299               	.LM819:
 8300 2f0a AB81      		ldd r26,Y+3
 8301 2f0c BC81      		ldd r27,Y+4
 8302 2f0e 0D91      		ld r16,X+
 8303 2f10 1C91      		ld r17,X
 8304 2f12 1197      		sbiw r26,1
 8305               	.LVL688:
 8306               	.LBB602:
 8307               	.LBB603:
 8308               	.LM820:
 8309 2f14 5296      		adiw r26,18
 8310 2f16 2D91      		ld r18,X+
 8311 2f18 3D91      		ld r19,X+
 8312 2f1a 4D91      		ld r20,X+
 8313 2f1c 5C91      		ld r21,X
 8314 2f1e 5597      		sbiw r26,18+3
 8315               	.LVL689:
 8316 2f20 2250      		subi r18,lo8(-(-2))
 8317 2f22 3040      		sbci r19,hi8(-(-2))
 8318 2f24 4040      		sbci r20,hlo8(-(-2))
 8319 2f26 5040      		sbci r21,hhi8(-(-2))
 8320               	.LM821:
 8321 2f28 F801      		movw r30,r16
 8322 2f2a 828D      		ldd r24,Z+26
 8323 2f2c 938D      		ldd r25,Z+27
 8324 2f2e A48D      		ldd r26,Z+28
 8325 2f30 B58D      		ldd r27,Z+29
 8326 2f32 0297      		sbiw r24,2
 8327 2f34 A109      		sbc r26,__zero_reg__
 8328 2f36 B109      		sbc r27,__zero_reg__
 8329 2f38 2817      		cp r18,r24
 8330 2f3a 3907      		cpc r19,r25
 8331 2f3c 4A07      		cpc r20,r26
 8332 2f3e 5B07      		cpc r21,r27
 8333 2f40 00F4      		brsh .L547
 8334               	.LM822:
 8335 2f42 6280      		ldd r6,Z+2
 8336 2f44 662D      		mov r22,r6
 8337               	.LVL690:
 8338 2f46 70E0      		ldi r23,lo8(0)
 8339 2f48 80E0      		ldi r24,lo8(0)
 8340 2f4a 90E0      		ldi r25,hi8(0)
 8341 2f4c 0E94 0000 		call __mulsi3
 8342               	.LVL691:
 8343 2f50 9B01      		movw r18,r22
 8344 2f52 AC01      		movw r20,r24
 8345               	.LVL692:
 8346 2f54 F801      		movw r30,r16
 8347 2f56 86A1      		ldd r24,Z+38
 8348 2f58 97A1      		ldd r25,Z+39
 8349 2f5a A0A5      		ldd r26,Z+40
 8350 2f5c B1A5      		ldd r27,Z+41
 8351 2f5e 280F      		add r18,r24
 8352 2f60 391F      		adc r19,r25
 8353 2f62 4A1F      		adc r20,r26
 8354 2f64 5B1F      		adc r21,r27
 8355               	.LBE603:
 8356               	.LBE602:
 8357               	.LM823:
 8358 2f66 2115      		cp r18,__zero_reg__
 8359 2f68 3105      		cpc r19,__zero_reg__
 8360 2f6a 4105      		cpc r20,__zero_reg__
 8361 2f6c 5105      		cpc r21,__zero_reg__
 8362 2f6e 01F4      		brne .L548
 8363               	.LVL693:
 8364               	.L547:
 8365 2f70 AB81      		ldd r26,Y+3
 8366 2f72 BC81      		ldd r27,Y+4
 8367 2f74 1496      		adiw r26,4
 8368 2f76 8C91      		ld r24,X
 8369 2f78 1497      		sbiw r26,4
 8370 2f7a 8068      		ori r24,lo8(-128)
 8371 2f7c 1496      		adiw r26,4
 8372 2f7e 8C93      		st X,r24
 8373 2f80 00C0      		rjmp .L564
 8374               	.LVL694:
 8375               	.L548:
 8376               	.LM824:
 8377 2f82 EB81      		ldd r30,Y+3
 8378 2f84 FC81      		ldd r31,Y+4
 8379 2f86 8581      		ldd r24,Z+5
 8380 2f88 5901      		movw r10,r18
 8381 2f8a 6A01      		movw r12,r20
 8382 2f8c A80E      		add r10,r24
 8383 2f8e B11C      		adc r11,__zero_reg__
 8384 2f90 C11C      		adc r12,__zero_reg__
 8385 2f92 D11C      		adc r13,__zero_reg__
 8386               	.LVL695:
 8387               	.LM825:
 8388 2f94 7401      		movw r14,r8
 8389 2f96 EF2C      		mov r14,r15
 8390 2f98 FF24      		clr r15
 8391 2f9a E694      		lsr r14
 8392               	.LM826:
 8393 2f9c E114      		cp r14,__zero_reg__
 8394 2f9e F104      		cpc r15,__zero_reg__
 8395 2fa0 01F4      		brne .+2
 8396 2fa2 00C0      		rjmp .L549
 8397               	.LM827:
 8398 2fa4 282F      		mov r18,r24
 8399 2fa6 30E0      		ldi r19,lo8(0)
 8400 2fa8 C701      		movw r24,r14
 8401 2faa 820F      		add r24,r18
 8402 2fac 931F      		adc r25,r19
 8403 2fae 662D      		mov r22,r6
 8404 2fb0 70E0      		ldi r23,lo8(0)
 8405 2fb2 6817      		cp r22,r24
 8406 2fb4 7907      		cpc r23,r25
 8407 2fb6 00F4      		brsh .L550
 8408               	.LM828:
 8409 2fb8 7B01      		movw r14,r22
 8410 2fba E21A      		sub r14,r18
 8411 2fbc F30A      		sbc r15,r19
 8412               	.L550:
 8413               	.LM829:
 8414 2fbe D801      		movw r26,r16
 8415 2fc0 1196      		adiw r26,1
 8416 2fc2 8C91      		ld r24,X
 8417 2fc4 B201      		movw r22,r4
 8418 2fc6 A601      		movw r20,r12
 8419 2fc8 9501      		movw r18,r10
 8420 2fca 0E2D      		mov r16,r14
 8421 2fcc 0E94 0000 		call disk_read
 8422 2fd0 EB81      		ldd r30,Y+3
 8423 2fd2 FC81      		ldd r31,Y+4
 8424 2fd4 9481      		ldd r25,Z+4
 8425 2fd6 8823      		tst r24
 8426 2fd8 01F0      		breq .L551
 8427               	.LM830:
 8428 2fda 9068      		ori r25,lo8(-128)
 8429 2fdc 9483      		std Z+4,r25
 8430 2fde 00C0      		rjmp .L566
 8431               	.L551:
 8432               	.LM831:
 8433 2fe0 96FF      		sbrs r25,6
 8434 2fe2 00C0      		rjmp .L552
 8435 2fe4 AB81      		ldd r26,Y+3
 8436 2fe6 BC81      		ldd r27,Y+4
 8437 2fe8 5696      		adiw r26,22
 8438 2fea 2D91      		ld r18,X+
 8439 2fec 3D91      		ld r19,X+
 8440 2fee 4D91      		ld r20,X+
 8441 2ff0 5C91      		ld r21,X
 8442 2ff2 5997      		sbiw r26,22+3
 8443 2ff4 2A19      		sub r18,r10
 8444 2ff6 3B09      		sbc r19,r11
 8445 2ff8 4C09      		sbc r20,r12
 8446 2ffa 5D09      		sbc r21,r13
 8447 2ffc C701      		movw r24,r14
 8448 2ffe A0E0      		ldi r26,lo8(0)
 8449 3000 B0E0      		ldi r27,hi8(0)
 8450               	.LVL696:
 8451 3002 2817      		cp r18,r24
 8452 3004 3907      		cpc r19,r25
 8453 3006 4A07      		cpc r20,r26
 8454 3008 5B07      		cpc r21,r27
 8455 300a 00F4      		brsh .L552
 8456               	.LVL697:
 8457               	.LBB604:
 8458               	.LBB601:
 8459               	.LM832:
 8460 300c 69E0      		ldi r22,9
 8461 300e 220F      	1:	lsl r18
 8462 3010 331F      		rol r19
 8463 3012 441F      		rol r20
 8464 3014 551F      		rol r21
 8465 3016 6A95      		dec r22
 8466 3018 01F4      		brne 1b
 8467 301a C201      		movw r24,r4
 8468               	.LVL698:
 8469 301c 820F      		add r24,r18
 8470 301e 931F      		adc r25,r19
 8471 3020 D101      		movw r26,r2
 8472               	.LVL699:
 8473 3022 FC01      		movw r30,r24
 8474               	.LM833:
 8475 3024 9C01      		movw r18,r24
 8476 3026 2050      		subi r18,lo8(-(512))
 8477 3028 3E4F      		sbci r19,hi8(-(512))
 8478 302a 00C0      		rjmp .L553
 8479               	.LVL700:
 8480               	.L554:
 8481 302c 8D91      		ld r24,X+
 8482 302e 8193      		st Z+,r24
 8483               	.LVL701:
 8484               	.L553:
 8485 3030 E217      		cp r30,r18
 8486 3032 F307      		cpc r31,r19
 8487 3034 01F4      		brne .L554
 8488               	.LVL702:
 8489               	.L552:
 8490               	.LBE601:
 8491               	.LBE604:
 8492               	.LM834:
 8493 3036 EB81      		ldd r30,Y+3
 8494 3038 FC81      		ldd r31,Y+4
 8495               	.LVL703:
 8496 303a 8581      		ldd r24,Z+5
 8497               	.LVL704:
 8498 303c 8E0D      		add r24,r14
 8499 303e 8583      		std Z+5,r24
 8500               	.LM835:
 8501 3040 B701      		movw r22,r14
 8502               	.LVL705:
 8503 3042 762F      		mov r23,r22
 8504 3044 6627      		clr r22
 8505 3046 770F      		lsl r23
 8506 3048 00C0      		rjmp .L555
 8507               	.LVL706:
 8508               	.L549:
 8509               	.LM836:
 8510 304a AB81      		ldd r26,Y+3
 8511 304c BC81      		ldd r27,Y+4
 8512 304e 1496      		adiw r26,4
 8513 3050 8C91      		ld r24,X
 8514 3052 1497      		sbiw r26,4
 8515 3054 86FF      		sbrs r24,6
 8516 3056 00C0      		rjmp .L556
 8517               	.LM837:
 8518 3058 5696      		adiw r26,22
 8519 305a 2D91      		ld r18,X+
 8520 305c 3D91      		ld r19,X+
 8521 305e 4D91      		ld r20,X+
 8522 3060 5C91      		ld r21,X
 8523 3062 5997      		sbiw r26,22+3
 8524 3064 F801      		movw r30,r16
 8525 3066 8181      		ldd r24,Z+1
 8526 3068 B101      		movw r22,r2
 8527 306a 01E0      		ldi r16,lo8(1)
 8528 306c 0E94 0000 		call disk_write
 8529 3070 AB81      		ldd r26,Y+3
 8530 3072 BC81      		ldd r27,Y+4
 8531 3074 1496      		adiw r26,4
 8532 3076 9C91      		ld r25,X
 8533 3078 1497      		sbiw r26,4
 8534 307a 8823      		tst r24
 8535 307c 01F0      		breq .L557
 8536               	.LM838:
 8537 307e 9068      		ori r25,lo8(-128)
 8538 3080 1496      		adiw r26,4
 8539 3082 9C93      		st X,r25
 8540 3084 00C0      		rjmp .L566
 8541               	.L557:
 8542               	.LM839:
 8543 3086 9F7B      		andi r25,lo8(-65)
 8544 3088 EB81      		ldd r30,Y+3
 8545 308a FC81      		ldd r31,Y+4
 8546 308c 9483      		std Z+4,r25
 8547               	.L556:
 8548               	.LM840:
 8549 308e EB81      		ldd r30,Y+3
 8550 3090 FC81      		ldd r31,Y+4
 8551 3092 8689      		ldd r24,Z+22
 8552 3094 9789      		ldd r25,Z+23
 8553 3096 A08D      		ldd r26,Z+24
 8554 3098 B18D      		ldd r27,Z+25
 8555 309a 8A15      		cp r24,r10
 8556 309c 9B05      		cpc r25,r11
 8557 309e AC05      		cpc r26,r12
 8558 30a0 BD05      		cpc r27,r13
 8559 30a2 01F0      		breq .L558
 8560               	.LM841:
 8561 30a4 0190      		ld __tmp_reg__,Z+
 8562 30a6 F081      		ld r31,Z
 8563 30a8 E02D      		mov r30,__tmp_reg__
 8564 30aa 8181      		ldd r24,Z+1
 8565 30ac B101      		movw r22,r2
 8566 30ae A601      		movw r20,r12
 8567 30b0 9501      		movw r18,r10
 8568 30b2 01E0      		ldi r16,lo8(1)
 8569 30b4 0E94 0000 		call disk_read
 8570 30b8 8823      		tst r24
 8571 30ba 01F0      		breq .L558
 8572               	.LVL707:
 8573               	.L565:
 8574               	.LM842:
 8575 30bc AB81      		ldd r26,Y+3
 8576 30be BC81      		ldd r27,Y+4
 8577 30c0 1496      		adiw r26,4
 8578 30c2 8C91      		ld r24,X
 8579 30c4 1497      		sbiw r26,4
 8580 30c6 8068      		ori r24,lo8(-128)
 8581 30c8 1496      		adiw r26,4
 8582 30ca 8C93      		st X,r24
 8583               	.L566:
 8584 30cc 7724      		clr r7
 8585 30ce 7394      		inc r7
 8586 30d0 00C0      		rjmp .L536
 8587               	.LVL708:
 8588               	.L558:
 8589               	.LM843:
 8590 30d2 EB81      		ldd r30,Y+3
 8591 30d4 FC81      		ldd r31,Y+4
 8592 30d6 A68A      		std Z+22,r10
 8593 30d8 B78A      		std Z+23,r11
 8594 30da C08E      		std Z+24,r12
 8595 30dc D18E      		std Z+25,r13
 8596               	.LM844:
 8597 30de 8581      		ldd r24,Z+5
 8598 30e0 8F5F      		subi r24,lo8(-(1))
 8599 30e2 8583      		std Z+5,r24
 8600               	.LVL709:
 8601               	.L541:
 8602               	.LM845:
 8603 30e4 AB81      		ldd r26,Y+3
 8604 30e6 BC81      		ldd r27,Y+4
 8605 30e8 1696      		adiw r26,6
 8606 30ea 2D91      		ld r18,X+
 8607 30ec 3D91      		ld r19,X+
 8608 30ee 4D91      		ld r20,X+
 8609 30f0 5C91      		ld r21,X
 8610 30f2 1997      		sbiw r26,6+3
 8611 30f4 C901      		movw r24,r18
 8612 30f6 9170      		andi r25,hi8(511)
 8613 30f8 E0E0      		ldi r30,lo8(512)
 8614 30fa F2E0      		ldi r31,hi8(512)
 8615 30fc E81B      		sub r30,r24
 8616 30fe F90B      		sbc r31,r25
 8617 3100 B401      		movw r22,r8
 8618 3102 E815      		cp r30,r8
 8619 3104 F905      		cpc r31,r9
 8620 3106 00F4      		brsh .L559
 8621               	.LVL710:
 8622 3108 BF01      		movw r22,r30
 8623               	.L559:
 8624               	.LM846:
 8625 310a 8B01      		movw r16,r22
 8626               	.LVL711:
 8627               	.LBB605:
 8628               	.LBB606:
 8629               	.LM847:
 8630 310c F901      		movw r30,r18
 8631               	.LVL712:
 8632 310e F170      		andi r31,hi8(511)
 8633 3110 B096      		adiw r30,32
 8634 3112 8B81      		ldd r24,Y+3
 8635 3114 9C81      		ldd r25,Y+4
 8636 3116 E80F      		add r30,r24
 8637 3118 F91F      		adc r31,r25
 8638 311a 9201      		movw r18,r4
 8639 311c 00C0      		rjmp .L560
 8640               	.LVL713:
 8641               	.L561:
 8642               	.LM848:
 8643 311e 8191      		ld r24,Z+
 8644 3120 D901      		movw r26,r18
 8645 3122 8D93      		st X+,r24
 8646 3124 9D01      		movw r18,r26
 8647               	.LVL714:
 8648               	.L560:
 8649 3126 0150      		subi r16,lo8(-(-1))
 8650 3128 1040      		sbci r17,hi8(-(-1))
 8651 312a BFEF      		ldi r27,hi8(-1)
 8652 312c 0F3F      		cpi r16,lo8(-1)
 8653 312e 1B07      		cpc r17,r27
 8654 3130 01F4      		brne .L561
 8655               	.LVL715:
 8656               	.L555:
 8657               	.LBE606:
 8658               	.LBE605:
 8659               	.LM849:
 8660 3132 460E      		add r4,r22
 8661 3134 571E      		adc r5,r23
 8662 3136 CB01      		movw r24,r22
 8663 3138 A0E0      		ldi r26,lo8(0)
 8664 313a B0E0      		ldi r27,hi8(0)
 8665               	.LVL716:
 8666 313c EB81      		ldd r30,Y+3
 8667 313e FC81      		ldd r31,Y+4
 8668               	.LVL717:
 8669 3140 2681      		ldd r18,Z+6
 8670 3142 3781      		ldd r19,Z+7
 8671 3144 4085      		ldd r20,Z+8
 8672 3146 5185      		ldd r21,Z+9
 8673 3148 280F      		add r18,r24
 8674 314a 391F      		adc r19,r25
 8675 314c 4A1F      		adc r20,r26
 8676 314e 5B1F      		adc r21,r27
 8677 3150 2683      		std Z+6,r18
 8678 3152 3783      		std Z+7,r19
 8679 3154 4087      		std Z+8,r20
 8680 3156 5187      		std Z+9,r21
 8681 3158 E981      		ldd r30,Y+1
 8682 315a FA81      		ldd r31,Y+2
 8683 315c 8081      		ld r24,Z
 8684 315e 9181      		ldd r25,Z+1
 8685 3160 860F      		add r24,r22
 8686 3162 971F      		adc r25,r23
 8687 3164 8083      		st Z,r24
 8688 3166 9183      		std Z+1,r25
 8689 3168 861A      		sub r8,r22
 8690 316a 970A      		sbc r9,r23
 8691               	.LVL718:
 8692               	.L540:
 8693               	.LM850:
 8694 316c 8114      		cp r8,__zero_reg__
 8695 316e 9104      		cpc r9,__zero_reg__
 8696 3170 01F0      		breq .+2
 8697 3172 00C0      		rjmp .L562
 8698               	.LVL719:
 8699               	.L536:
 8700               	.LM851:
 8701 3174 872D      		mov r24,r7
 8702               	/* epilogue start */
 8703 3176 2496      		adiw r28,4
 8704 3178 CDBF      		out __SP_L__,r28
 8705 317a DEBF      		out __SP_H__,r29
 8706 317c CF91      		pop r28
 8707 317e DF91      		pop r29
 8708 3180 1F91      		pop r17
 8709               	.LVL720:
 8710 3182 0F91      		pop r16
 8711               	.LVL721:
 8712 3184 FF90      		pop r15
 8713 3186 EF90      		pop r14
 8714               	.LVL722:
 8715 3188 DF90      		pop r13
 8716 318a CF90      		pop r12
 8717 318c BF90      		pop r11
 8718 318e AF90      		pop r10
 8719               	.LVL723:
 8720 3190 9F90      		pop r9
 8721 3192 8F90      		pop r8
 8722               	.LVL724:
 8723 3194 7F90      		pop r7
 8724               	.LVL725:
 8725 3196 6F90      		pop r6
 8726 3198 5F90      		pop r5
 8727 319a 4F90      		pop r4
 8728               	.LVL726:
 8729 319c 3F90      		pop r3
 8730 319e 2F90      		pop r2
 8731               	.LVL727:
 8732 31a0 0895      		ret
 8733               	.LFE67:
 8735               	.global	f_write
 8737               	f_write:
 8738               	.LFB68:
 8739               	.LM852:
 8740               	.LVL728:
 8741 31a2 2F92      		push r2
 8742 31a4 3F92      		push r3
 8743 31a6 4F92      		push r4
 8744 31a8 5F92      		push r5
 8745 31aa 6F92      		push r6
 8746 31ac 7F92      		push r7
 8747 31ae 8F92      		push r8
 8748 31b0 9F92      		push r9
 8749 31b2 AF92      		push r10
 8750 31b4 BF92      		push r11
 8751 31b6 CF92      		push r12
 8752 31b8 DF92      		push r13
 8753 31ba EF92      		push r14
 8754 31bc FF92      		push r15
 8755 31be 0F93      		push r16
 8756 31c0 1F93      		push r17
 8757 31c2 DF93      		push r29
 8758 31c4 CF93      		push r28
 8759 31c6 00D0      		rcall .
 8760 31c8 0F92      		push __tmp_reg__
 8761 31ca CDB7      		in r28,__SP_L__
 8762 31cc DEB7      		in r29,__SP_H__
 8763               	/* prologue: function */
 8764               	/* frame size = 4 */
 8765 31ce 8B83      		std Y+3,r24
 8766 31d0 9C83      		std Y+4,r25
 8767 31d2 162F      		mov r17,r22
 8768 31d4 072F      		mov r16,r23
 8769               	.LVL729:
 8770 31d6 4A01      		movw r8,r20
 8771 31d8 2983      		std Y+1,r18
 8772 31da 3A83      		std Y+2,r19
 8773               	.LM853:
 8774 31dc D901      		movw r26,r18
 8775 31de 1D92      		st X+,__zero_reg__
 8776 31e0 1C92      		st X,__zero_reg__
 8777               	.LM854:
 8778 31e2 FC01      		movw r30,r24
 8779 31e4 6281      		ldd r22,Z+2
 8780 31e6 7381      		ldd r23,Z+3
 8781               	.LVL730:
 8782 31e8 8081      		ld r24,Z
 8783 31ea 9181      		ldd r25,Z+1
 8784               	.LVL731:
 8785 31ec 0E94 0000 		call validate
 8786               	.LVL732:
 8787 31f0 682E      		mov r6,r24
 8788               	.LVL733:
 8789               	.LM855:
 8790 31f2 8823      		tst r24
 8791 31f4 01F0      		breq .+2
 8792 31f6 00C0      		rjmp .L568
 8793               	.LVL734:
 8794               	.LM856:
 8795 31f8 AB81      		ldd r26,Y+3
 8796 31fa BC81      		ldd r27,Y+4
 8797 31fc 1496      		adiw r26,4
 8798 31fe 8C91      		ld r24,X
 8799               	.LVL735:
 8800 3200 87FD      		sbrc r24,7
 8801 3202 00C0      		rjmp .L599
 8802               	.L569:
 8803               	.LM857:
 8804 3204 81FD      		sbrc r24,1
 8805 3206 00C0      		rjmp .L570
 8806 3208 47E0      		ldi r20,lo8(7)
 8807 320a 642E      		mov r6,r20
 8808 320c 00C0      		rjmp .L568
 8809               	.L570:
 8810               	.LM858:
 8811 320e EB81      		ldd r30,Y+3
 8812 3210 FC81      		ldd r31,Y+4
 8813 3212 2285      		ldd r18,Z+10
 8814 3214 3385      		ldd r19,Z+11
 8815 3216 4485      		ldd r20,Z+12
 8816 3218 5585      		ldd r21,Z+13
 8817 321a C401      		movw r24,r8
 8818 321c A0E0      		ldi r26,lo8(0)
 8819 321e B0E0      		ldi r27,hi8(0)
 8820               	.LVL736:
 8821 3220 820F      		add r24,r18
 8822 3222 931F      		adc r25,r19
 8823 3224 A41F      		adc r26,r20
 8824 3226 B51F      		adc r27,r21
 8825               	.LVL737:
 8826 3228 8217      		cp r24,r18
 8827 322a 9307      		cpc r25,r19
 8828 322c A407      		cpc r26,r20
 8829 322e B507      		cpc r27,r21
 8830 3230 00F4      		brsh .L571
 8831 3232 8824      		clr r8
 8832 3234 9924      		clr r9
 8833               	.LVL738:
 8834               	.L571:
 8835               	.LM859:
 8836 3236 812F      		mov r24,r17
 8837               	.LVL739:
 8838 3238 902F      		mov r25,r16
 8839               	.LVL740:
 8840 323a 9C01      		movw r18,r24
 8841               	.LVL741:
 8842 323c 2901      		movw r4,r18
 8843               	.LVL742:
 8844               	.LM860:
 8845 323e 30E2      		ldi r19,lo8(32)
 8846 3240 232E      		mov r2,r19
 8847 3242 312C      		mov r3,__zero_reg__
 8848               	.LVL743:
 8849 3244 6B81      		ldd r22,Y+3
 8850 3246 7C81      		ldd r23,Y+4
 8851 3248 260E      		add r2,r22
 8852 324a 371E      		adc r3,r23
 8853 324c 00C0      		rjmp .L572
 8854               	.LVL744:
 8855               	.L596:
 8856               	.LM861:
 8857 324e AB81      		ldd r26,Y+3
 8858 3250 BC81      		ldd r27,Y+4
 8859               	.LVL745:
 8860 3252 1696      		adiw r26,6
 8861 3254 2D91      		ld r18,X+
 8862 3256 3D91      		ld r19,X+
 8863 3258 4D91      		ld r20,X+
 8864 325a 5C91      		ld r21,X
 8865 325c 1997      		sbiw r26,6+3
 8866 325e DA01      		movw r26,r20
 8867 3260 C901      		movw r24,r18
 8868 3262 9170      		andi r25,hi8(511)
 8869 3264 A070      		andi r26,hlo8(511)
 8870 3266 B070      		andi r27,hhi8(511)
 8871 3268 0097      		sbiw r24,0
 8872 326a A105      		cpc r26,__zero_reg__
 8873 326c B105      		cpc r27,__zero_reg__
 8874 326e 01F0      		breq .+2
 8875 3270 00C0      		rjmp .L573
 8876               	.LM862:
 8877 3272 AB81      		ldd r26,Y+3
 8878 3274 BC81      		ldd r27,Y+4
 8879 3276 ED91      		ld r30,X+
 8880 3278 FC91      		ld r31,X
 8881 327a 1197      		sbiw r26,1
 8882 327c 1596      		adiw r26,5
 8883 327e 9C91      		ld r25,X
 8884 3280 1597      		sbiw r26,5
 8885               	.LVL746:
 8886 3282 8281      		ldd r24,Z+2
 8887 3284 9817      		cp r25,r24
 8888 3286 00F4      		brsh .+2
 8889 3288 00C0      		rjmp .L574
 8890               	.LM863:
 8891 328a 2115      		cp r18,__zero_reg__
 8892 328c 3105      		cpc r19,__zero_reg__
 8893 328e 4105      		cpc r20,__zero_reg__
 8894 3290 5105      		cpc r21,__zero_reg__
 8895 3292 01F4      		brne .L575
 8896               	.LM864:
 8897 3294 1E96      		adiw r26,14
 8898 3296 6D91      		ld r22,X+
 8899 3298 7D91      		ld r23,X+
 8900 329a 8D91      		ld r24,X+
 8901 329c 9C91      		ld r25,X
 8902 329e 5197      		sbiw r26,14+3
 8903               	.LVL747:
 8904               	.LM865:
 8905 32a0 6115      		cp r22,__zero_reg__
 8906 32a2 7105      		cpc r23,__zero_reg__
 8907 32a4 8105      		cpc r24,__zero_reg__
 8908 32a6 9105      		cpc r25,__zero_reg__
 8909 32a8 01F4      		brne .L576
 8910               	.LM866:
 8911 32aa CF01      		movw r24,r30
 8912 32ac 40E0      		ldi r20,lo8(0)
 8913 32ae 50E0      		ldi r21,hi8(0)
 8914 32b0 60E0      		ldi r22,hlo8(0)
 8915 32b2 70E0      		ldi r23,hhi8(0)
 8916 32b4 0E94 0000 		call create_chain
 8917               	.LVL748:
 8918 32b8 EB81      		ldd r30,Y+3
 8919 32ba FC81      		ldd r31,Y+4
 8920 32bc 6687      		std Z+14,r22
 8921 32be 7787      		std Z+15,r23
 8922 32c0 808B      		std Z+16,r24
 8923 32c2 918B      		std Z+17,r25
 8924               	.LVL749:
 8925 32c4 00C0      		rjmp .L577
 8926               	.LVL750:
 8927               	.L575:
 8928               	.LM867:
 8929 32c6 AB81      		ldd r26,Y+3
 8930 32c8 BC81      		ldd r27,Y+4
 8931 32ca 5296      		adiw r26,18
 8932 32cc 4D91      		ld r20,X+
 8933 32ce 5D91      		ld r21,X+
 8934 32d0 6D91      		ld r22,X+
 8935 32d2 7C91      		ld r23,X
 8936 32d4 5597      		sbiw r26,18+3
 8937 32d6 CF01      		movw r24,r30
 8938 32d8 0E94 0000 		call create_chain
 8939               	.LVL751:
 8940               	.L577:
 8941               	.LM868:
 8942 32dc 6115      		cp r22,__zero_reg__
 8943 32de 7105      		cpc r23,__zero_reg__
 8944 32e0 8105      		cpc r24,__zero_reg__
 8945 32e2 9105      		cpc r25,__zero_reg__
 8946 32e4 01F4      		brne .+2
 8947 32e6 00C0      		rjmp .L578
 8948               	.L576:
 8949               	.LM869:
 8950 32e8 6130      		cpi r22,lo8(1)
 8951 32ea 7105      		cpc r23,__zero_reg__
 8952 32ec 8105      		cpc r24,__zero_reg__
 8953 32ee 9105      		cpc r25,__zero_reg__
 8954 32f0 01F4      		brne .L579
 8955 32f2 EB81      		ldd r30,Y+3
 8956 32f4 FC81      		ldd r31,Y+4
 8957 32f6 8481      		ldd r24,Z+4
 8958 32f8 8068      		ori r24,lo8(-128)
 8959 32fa 8483      		std Z+4,r24
 8960               	.LVL752:
 8961               	.L599:
 8962 32fc 22E0      		ldi r18,lo8(2)
 8963 32fe 622E      		mov r6,r18
 8964               	.LVL753:
 8965 3300 00C0      		rjmp .L568
 8966               	.LVL754:
 8967               	.L579:
 8968               	.LM870:
 8969 3302 6F3F      		cpi r22,lo8(-1)
 8970 3304 FFEF      		ldi r31,hi8(-1)
 8971 3306 7F07      		cpc r23,r31
 8972 3308 FFEF      		ldi r31,hlo8(-1)
 8973 330a 8F07      		cpc r24,r31
 8974 330c FFEF      		ldi r31,hhi8(-1)
 8975 330e 9F07      		cpc r25,r31
 8976 3310 01F4      		brne .L580
 8977 3312 AB81      		ldd r26,Y+3
 8978 3314 BC81      		ldd r27,Y+4
 8979 3316 1496      		adiw r26,4
 8980 3318 8C91      		ld r24,X
 8981 331a 1497      		sbiw r26,4
 8982 331c 8068      		ori r24,lo8(-128)
 8983 331e 1496      		adiw r26,4
 8984 3320 8C93      		st X,r24
 8985 3322 00C0      		rjmp .L600
 8986               	.L580:
 8987               	.LM871:
 8988 3324 EB81      		ldd r30,Y+3
 8989 3326 FC81      		ldd r31,Y+4
 8990 3328 628B      		std Z+18,r22
 8991 332a 738B      		std Z+19,r23
 8992 332c 848B      		std Z+20,r24
 8993 332e 958B      		std Z+21,r25
 8994               	.LM872:
 8995 3330 1582      		std Z+5,__zero_reg__
 8996               	.LVL755:
 8997               	.L574:
 8998               	.LM873:
 8999 3332 AB81      		ldd r26,Y+3
 9000 3334 BC81      		ldd r27,Y+4
 9001 3336 1496      		adiw r26,4
 9002 3338 8C91      		ld r24,X
 9003 333a 1497      		sbiw r26,4
 9004 333c 86FF      		sbrs r24,6
 9005 333e 00C0      		rjmp .L581
 9006               	.LM874:
 9007 3340 ED91      		ld r30,X+
 9008 3342 FC91      		ld r31,X
 9009 3344 1197      		sbiw r26,1
 9010 3346 5696      		adiw r26,22
 9011 3348 2D91      		ld r18,X+
 9012 334a 3D91      		ld r19,X+
 9013 334c 4D91      		ld r20,X+
 9014 334e 5C91      		ld r21,X
 9015 3350 5997      		sbiw r26,22+3
 9016 3352 8181      		ldd r24,Z+1
 9017 3354 B101      		movw r22,r2
 9018               	.LVL756:
 9019 3356 01E0      		ldi r16,lo8(1)
 9020               	.LVL757:
 9021 3358 0E94 0000 		call disk_write
 9022 335c EB81      		ldd r30,Y+3
 9023 335e FC81      		ldd r31,Y+4
 9024 3360 9481      		ldd r25,Z+4
 9025 3362 8823      		tst r24
 9026 3364 01F0      		breq .L582
 9027               	.LM875:
 9028 3366 9068      		ori r25,lo8(-128)
 9029 3368 9483      		std Z+4,r25
 9030 336a 00C0      		rjmp .L600
 9031               	.L582:
 9032               	.LM876:
 9033 336c 9F7B      		andi r25,lo8(-65)
 9034 336e AB81      		ldd r26,Y+3
 9035 3370 BC81      		ldd r27,Y+4
 9036 3372 1496      		adiw r26,4
 9037 3374 9C93      		st X,r25
 9038               	.LVL758:
 9039               	.L581:
 9040               	.LM877:
 9041 3376 EB81      		ldd r30,Y+3
 9042 3378 FC81      		ldd r31,Y+4
 9043 337a 0081      		ld r16,Z
 9044 337c 1181      		ldd r17,Z+1
 9045               	.LVL759:
 9046               	.LBB607:
 9047               	.LBB608:
 9048               	.LM878:
 9049 337e 2289      		ldd r18,Z+18
 9050 3380 3389      		ldd r19,Z+19
 9051 3382 4489      		ldd r20,Z+20
 9052 3384 5589      		ldd r21,Z+21
 9053               	.LVL760:
 9054 3386 2250      		subi r18,lo8(-(-2))
 9055 3388 3040      		sbci r19,hi8(-(-2))
 9056 338a 4040      		sbci r20,hlo8(-(-2))
 9057 338c 5040      		sbci r21,hhi8(-(-2))
 9058               	.LM879:
 9059 338e F801      		movw r30,r16
 9060 3390 828D      		ldd r24,Z+26
 9061 3392 938D      		ldd r25,Z+27
 9062 3394 A48D      		ldd r26,Z+28
 9063 3396 B58D      		ldd r27,Z+29
 9064 3398 0297      		sbiw r24,2
 9065 339a A109      		sbc r26,__zero_reg__
 9066 339c B109      		sbc r27,__zero_reg__
 9067 339e 2817      		cp r18,r24
 9068 33a0 3907      		cpc r19,r25
 9069 33a2 4A07      		cpc r20,r26
 9070 33a4 5B07      		cpc r21,r27
 9071 33a6 00F4      		brsh .L583
 9072               	.LM880:
 9073 33a8 7280      		ldd r7,Z+2
 9074 33aa 672D      		mov r22,r7
 9075               	.LVL761:
 9076 33ac 70E0      		ldi r23,lo8(0)
 9077 33ae 80E0      		ldi r24,lo8(0)
 9078 33b0 90E0      		ldi r25,hi8(0)
 9079 33b2 0E94 0000 		call __mulsi3
 9080               	.LVL762:
 9081 33b6 9B01      		movw r18,r22
 9082 33b8 AC01      		movw r20,r24
 9083               	.LVL763:
 9084 33ba F801      		movw r30,r16
 9085 33bc 86A1      		ldd r24,Z+38
 9086 33be 97A1      		ldd r25,Z+39
 9087 33c0 A0A5      		ldd r26,Z+40
 9088 33c2 B1A5      		ldd r27,Z+41
 9089 33c4 280F      		add r18,r24
 9090 33c6 391F      		adc r19,r25
 9091 33c8 4A1F      		adc r20,r26
 9092 33ca 5B1F      		adc r21,r27
 9093               	.LBE608:
 9094               	.LBE607:
 9095               	.LM881:
 9096 33cc 2115      		cp r18,__zero_reg__
 9097 33ce 3105      		cpc r19,__zero_reg__
 9098 33d0 4105      		cpc r20,__zero_reg__
 9099 33d2 5105      		cpc r21,__zero_reg__
 9100 33d4 01F4      		brne .L584
 9101               	.LVL764:
 9102               	.L583:
 9103 33d6 AB81      		ldd r26,Y+3
 9104 33d8 BC81      		ldd r27,Y+4
 9105 33da 1496      		adiw r26,4
 9106 33dc 8C91      		ld r24,X
 9107 33de 1497      		sbiw r26,4
 9108 33e0 8068      		ori r24,lo8(-128)
 9109 33e2 1496      		adiw r26,4
 9110 33e4 8C93      		st X,r24
 9111 33e6 00C0      		rjmp .L599
 9112               	.LVL765:
 9113               	.L584:
 9114               	.LM882:
 9115 33e8 EB81      		ldd r30,Y+3
 9116 33ea FC81      		ldd r31,Y+4
 9117 33ec 8581      		ldd r24,Z+5
 9118 33ee 6901      		movw r12,r18
 9119 33f0 7A01      		movw r14,r20
 9120 33f2 C80E      		add r12,r24
 9121 33f4 D11C      		adc r13,__zero_reg__
 9122 33f6 E11C      		adc r14,__zero_reg__
 9123 33f8 F11C      		adc r15,__zero_reg__
 9124               	.LVL766:
 9125               	.LM883:
 9126 33fa 5401      		movw r10,r8
 9127 33fc AB2C      		mov r10,r11
 9128 33fe BB24      		clr r11
 9129 3400 A694      		lsr r10
 9130               	.LM884:
 9131 3402 A114      		cp r10,__zero_reg__
 9132 3404 B104      		cpc r11,__zero_reg__
 9133 3406 01F4      		brne .+2
 9134 3408 00C0      		rjmp .L585
 9135               	.LM885:
 9136 340a 282F      		mov r18,r24
 9137 340c 30E0      		ldi r19,lo8(0)
 9138 340e C501      		movw r24,r10
 9139 3410 820F      		add r24,r18
 9140 3412 931F      		adc r25,r19
 9141 3414 672D      		mov r22,r7
 9142 3416 70E0      		ldi r23,lo8(0)
 9143 3418 6817      		cp r22,r24
 9144 341a 7907      		cpc r23,r25
 9145 341c 00F4      		brsh .L586
 9146               	.LM886:
 9147 341e 5B01      		movw r10,r22
 9148 3420 A21A      		sub r10,r18
 9149 3422 B30A      		sbc r11,r19
 9150               	.L586:
 9151               	.LM887:
 9152 3424 D801      		movw r26,r16
 9153 3426 1196      		adiw r26,1
 9154 3428 8C91      		ld r24,X
 9155 342a B201      		movw r22,r4
 9156 342c A701      		movw r20,r14
 9157 342e 9601      		movw r18,r12
 9158 3430 0A2D      		mov r16,r10
 9159 3432 0E94 0000 		call disk_write
 9160 3436 8823      		tst r24
 9161 3438 01F0      		breq .+2
 9162 343a 00C0      		rjmp .L601
 9163               	.L587:
 9164               	.LM888:
 9165 343c AB81      		ldd r26,Y+3
 9166 343e BC81      		ldd r27,Y+4
 9167 3440 5696      		adiw r26,22
 9168 3442 2D91      		ld r18,X+
 9169 3444 3D91      		ld r19,X+
 9170 3446 4D91      		ld r20,X+
 9171 3448 5C91      		ld r21,X
 9172 344a 5997      		sbiw r26,22+3
 9173 344c 2C19      		sub r18,r12
 9174 344e 3D09      		sbc r19,r13
 9175 3450 4E09      		sbc r20,r14
 9176 3452 5F09      		sbc r21,r15
 9177 3454 C501      		movw r24,r10
 9178 3456 A0E0      		ldi r26,lo8(0)
 9179 3458 B0E0      		ldi r27,hi8(0)
 9180               	.LVL767:
 9181 345a 2817      		cp r18,r24
 9182 345c 3907      		cpc r19,r25
 9183 345e 4A07      		cpc r20,r26
 9184 3460 5B07      		cpc r21,r27
 9185 3462 00F4      		brsh .L588
 9186               	.LVL768:
 9187               	.LBB609:
 9188               	.LBB610:
 9189               	.LM889:
 9190 3464 19E0      		ldi r17,9
 9191 3466 220F      	1:	lsl r18
 9192 3468 331F      		rol r19
 9193 346a 441F      		rol r20
 9194 346c 551F      		rol r21
 9195 346e 1A95      		dec r17
 9196 3470 01F4      		brne 1b
 9197               	.LVL769:
 9198 3472 F201      		movw r30,r4
 9199               	.LVL770:
 9200 3474 E20F      		add r30,r18
 9201 3476 F31F      		adc r31,r19
 9202 3478 D101      		movw r26,r2
 9203               	.LVL771:
 9204               	.LM890:
 9205 347a 9F01      		movw r18,r30
 9206 347c 2050      		subi r18,lo8(-(512))
 9207 347e 3E4F      		sbci r19,hi8(-(512))
 9208 3480 00C0      		rjmp .L589
 9209               	.LVL772:
 9210               	.L590:
 9211 3482 8191      		ld r24,Z+
 9212               	.LVL773:
 9213 3484 8D93      		st X+,r24
 9214               	.LVL774:
 9215               	.L589:
 9216 3486 E217      		cp r30,r18
 9217 3488 F307      		cpc r31,r19
 9218 348a 01F4      		brne .L590
 9219               	.LVL775:
 9220               	.LBE610:
 9221               	.LBE609:
 9222               	.LM891:
 9223 348c EB81      		ldd r30,Y+3
 9224 348e FC81      		ldd r31,Y+4
 9225               	.LVL776:
 9226 3490 8481      		ldd r24,Z+4
 9227               	.LVL777:
 9228 3492 8F7B      		andi r24,lo8(-65)
 9229 3494 8483      		std Z+4,r24
 9230               	.LVL778:
 9231               	.L588:
 9232               	.LM892:
 9233 3496 AB81      		ldd r26,Y+3
 9234 3498 BC81      		ldd r27,Y+4
 9235               	.LVL779:
 9236 349a 1596      		adiw r26,5
 9237 349c 8C91      		ld r24,X
 9238 349e 1597      		sbiw r26,5
 9239 34a0 8A0D      		add r24,r10
 9240 34a2 1596      		adiw r26,5
 9241 34a4 8C93      		st X,r24
 9242               	.LM893:
 9243 34a6 B501      		movw r22,r10
 9244               	.LVL780:
 9245 34a8 762F      		mov r23,r22
 9246 34aa 6627      		clr r22
 9247 34ac 770F      		lsl r23
 9248 34ae 00C0      		rjmp .L591
 9249               	.LVL781:
 9250               	.L585:
 9251               	.LM894:
 9252 34b0 EB81      		ldd r30,Y+3
 9253 34b2 FC81      		ldd r31,Y+4
 9254 34b4 8689      		ldd r24,Z+22
 9255 34b6 9789      		ldd r25,Z+23
 9256 34b8 A08D      		ldd r26,Z+24
 9257 34ba B18D      		ldd r27,Z+25
 9258 34bc 8C15      		cp r24,r12
 9259 34be 9D05      		cpc r25,r13
 9260 34c0 AE05      		cpc r26,r14
 9261 34c2 BF05      		cpc r27,r15
 9262 34c4 01F0      		breq .L592
 9263               	.LM895:
 9264 34c6 2681      		ldd r18,Z+6
 9265 34c8 3781      		ldd r19,Z+7
 9266 34ca 4085      		ldd r20,Z+8
 9267 34cc 5185      		ldd r21,Z+9
 9268 34ce 8285      		ldd r24,Z+10
 9269 34d0 9385      		ldd r25,Z+11
 9270 34d2 A485      		ldd r26,Z+12
 9271 34d4 B585      		ldd r27,Z+13
 9272 34d6 2817      		cp r18,r24
 9273 34d8 3907      		cpc r19,r25
 9274 34da 4A07      		cpc r20,r26
 9275 34dc 5B07      		cpc r21,r27
 9276 34de 00F4      		brsh .L592
 9277 34e0 D801      		movw r26,r16
 9278 34e2 1196      		adiw r26,1
 9279 34e4 8C91      		ld r24,X
 9280 34e6 B101      		movw r22,r2
 9281 34e8 A701      		movw r20,r14
 9282 34ea 9601      		movw r18,r12
 9283 34ec 01E0      		ldi r16,lo8(1)
 9284 34ee 0E94 0000 		call disk_read
 9285 34f2 8823      		tst r24
 9286 34f4 01F0      		breq .L592
 9287               	.L601:
 9288               	.LM896:
 9289 34f6 EB81      		ldd r30,Y+3
 9290 34f8 FC81      		ldd r31,Y+4
 9291 34fa 8481      		ldd r24,Z+4
 9292 34fc 8068      		ori r24,lo8(-128)
 9293 34fe 8483      		std Z+4,r24
 9294               	.LVL782:
 9295               	.L600:
 9296 3500 6624      		clr r6
 9297 3502 6394      		inc r6
 9298 3504 00C0      		rjmp .L568
 9299               	.LVL783:
 9300               	.L592:
 9301               	.LM897:
 9302 3506 AB81      		ldd r26,Y+3
 9303 3508 BC81      		ldd r27,Y+4
 9304 350a 5696      		adiw r26,22
 9305 350c CD92      		st X+,r12
 9306 350e DD92      		st X+,r13
 9307 3510 ED92      		st X+,r14
 9308 3512 FC92      		st X,r15
 9309 3514 5997      		sbiw r26,22+3
 9310               	.LM898:
 9311 3516 1596      		adiw r26,5
 9312 3518 8C91      		ld r24,X
 9313 351a 1597      		sbiw r26,5
 9314 351c 8F5F      		subi r24,lo8(-(1))
 9315 351e 1596      		adiw r26,5
 9316 3520 8C93      		st X,r24
 9317               	.LVL784:
 9318               	.L573:
 9319               	.LM899:
 9320 3522 EB81      		ldd r30,Y+3
 9321 3524 FC81      		ldd r31,Y+4
 9322 3526 2681      		ldd r18,Z+6
 9323 3528 3781      		ldd r19,Z+7
 9324 352a 4085      		ldd r20,Z+8
 9325 352c 5185      		ldd r21,Z+9
 9326 352e C901      		movw r24,r18
 9327 3530 9170      		andi r25,hi8(511)
 9328 3532 60E0      		ldi r22,lo8(512)
 9329 3534 72E0      		ldi r23,hi8(512)
 9330               	.LVL785:
 9331 3536 681B      		sub r22,r24
 9332 3538 790B      		sbc r23,r25
 9333 353a CB01      		movw r24,r22
 9334               	.LVL786:
 9335 353c B401      		movw r22,r8
 9336               	.LVL787:
 9337 353e 8815      		cp r24,r8
 9338 3540 9905      		cpc r25,r9
 9339 3542 00F4      		brsh .L593
 9340               	.LVL788:
 9341 3544 BC01      		movw r22,r24
 9342               	.L593:
 9343               	.LM900:
 9344 3546 8B01      		movw r16,r22
 9345               	.LVL789:
 9346               	.LBB611:
 9347               	.LBB612:
 9348               	.LM901:
 9349 3548 F901      		movw r30,r18
 9350               	.LVL790:
 9351 354a F170      		andi r31,hi8(511)
 9352 354c B096      		adiw r30,32
 9353 354e 8B81      		ldd r24,Y+3
 9354 3550 9C81      		ldd r25,Y+4
 9355               	.LVL791:
 9356 3552 E80F      		add r30,r24
 9357 3554 F91F      		adc r31,r25
 9358 3556 9201      		movw r18,r4
 9359 3558 00C0      		rjmp .L594
 9360               	.LVL792:
 9361               	.L595:
 9362               	.LM902:
 9363 355a D901      		movw r26,r18
 9364 355c 8D91      		ld r24,X+
 9365 355e 9D01      		movw r18,r26
 9366 3560 8193      		st Z+,r24
 9367               	.LVL793:
 9368               	.L594:
 9369 3562 0150      		subi r16,lo8(-(-1))
 9370 3564 1040      		sbci r17,hi8(-(-1))
 9371 3566 BFEF      		ldi r27,hi8(-1)
 9372 3568 0F3F      		cpi r16,lo8(-1)
 9373 356a 1B07      		cpc r17,r27
 9374 356c 01F4      		brne .L595
 9375               	.LBE612:
 9376               	.LBE611:
 9377               	.LM903:
 9378 356e EB81      		ldd r30,Y+3
 9379 3570 FC81      		ldd r31,Y+4
 9380               	.LVL794:
 9381 3572 8481      		ldd r24,Z+4
 9382 3574 8064      		ori r24,lo8(64)
 9383 3576 8483      		std Z+4,r24
 9384               	.LVL795:
 9385               	.L591:
 9386               	.LM904:
 9387 3578 460E      		add r4,r22
 9388 357a 571E      		adc r5,r23
 9389 357c CB01      		movw r24,r22
 9390 357e A0E0      		ldi r26,lo8(0)
 9391 3580 B0E0      		ldi r27,hi8(0)
 9392               	.LVL796:
 9393 3582 EB81      		ldd r30,Y+3
 9394 3584 FC81      		ldd r31,Y+4
 9395 3586 2681      		ldd r18,Z+6
 9396 3588 3781      		ldd r19,Z+7
 9397 358a 4085      		ldd r20,Z+8
 9398 358c 5185      		ldd r21,Z+9
 9399 358e 280F      		add r18,r24
 9400 3590 391F      		adc r19,r25
 9401 3592 4A1F      		adc r20,r26
 9402 3594 5B1F      		adc r21,r27
 9403 3596 2683      		std Z+6,r18
 9404 3598 3783      		std Z+7,r19
 9405 359a 4087      		std Z+8,r20
 9406 359c 5187      		std Z+9,r21
 9407 359e E981      		ldd r30,Y+1
 9408 35a0 FA81      		ldd r31,Y+2
 9409 35a2 8081      		ld r24,Z
 9410 35a4 9181      		ldd r25,Z+1
 9411 35a6 860F      		add r24,r22
 9412 35a8 971F      		adc r25,r23
 9413 35aa 8083      		st Z,r24
 9414 35ac 9183      		std Z+1,r25
 9415 35ae 861A      		sub r8,r22
 9416 35b0 970A      		sbc r9,r23
 9417               	.LVL797:
 9418               	.L572:
 9419               	.LM905:
 9420 35b2 8114      		cp r8,__zero_reg__
 9421 35b4 9104      		cpc r9,__zero_reg__
 9422 35b6 01F0      		breq .+2
 9423 35b8 00C0      		rjmp .L596
 9424               	.LVL798:
 9425               	.L578:
 9426               	.LM906:
 9427 35ba AB81      		ldd r26,Y+3
 9428 35bc BC81      		ldd r27,Y+4
 9429               	.LVL799:
 9430 35be 1696      		adiw r26,6
 9431 35c0 2D91      		ld r18,X+
 9432 35c2 3D91      		ld r19,X+
 9433 35c4 4D91      		ld r20,X+
 9434 35c6 5C91      		ld r21,X
 9435 35c8 1997      		sbiw r26,6+3
 9436 35ca 1A96      		adiw r26,10
 9437 35cc 8D91      		ld r24,X+
 9438 35ce 9D91      		ld r25,X+
 9439 35d0 0D90      		ld __tmp_reg__,X+
 9440 35d2 BC91      		ld r27,X
 9441 35d4 A02D      		mov r26,__tmp_reg__
 9442 35d6 8217      		cp r24,r18
 9443 35d8 9307      		cpc r25,r19
 9444 35da A407      		cpc r26,r20
 9445 35dc B507      		cpc r27,r21
 9446 35de 00F4      		brsh .L597
 9447 35e0 EB81      		ldd r30,Y+3
 9448 35e2 FC81      		ldd r31,Y+4
 9449 35e4 2287      		std Z+10,r18
 9450 35e6 3387      		std Z+11,r19
 9451 35e8 4487      		std Z+12,r20
 9452 35ea 5587      		std Z+13,r21
 9453               	.L597:
 9454               	.LM907:
 9455 35ec AB81      		ldd r26,Y+3
 9456 35ee BC81      		ldd r27,Y+4
 9457 35f0 1496      		adiw r26,4
 9458 35f2 8C91      		ld r24,X
 9459 35f4 1497      		sbiw r26,4
 9460 35f6 8062      		ori r24,lo8(32)
 9461 35f8 1496      		adiw r26,4
 9462 35fa 8C93      		st X,r24
 9463               	.LVL800:
 9464               	.L568:
 9465               	.LM908:
 9466 35fc 862D      		mov r24,r6
 9467               	/* epilogue start */
 9468 35fe 2496      		adiw r28,4
 9469 3600 CDBF      		out __SP_L__,r28
 9470 3602 DEBF      		out __SP_H__,r29
 9471 3604 CF91      		pop r28
 9472 3606 DF91      		pop r29
 9473 3608 1F91      		pop r17
 9474               	.LVL801:
 9475 360a 0F91      		pop r16
 9476               	.LVL802:
 9477 360c FF90      		pop r15
 9478 360e EF90      		pop r14
 9479 3610 DF90      		pop r13
 9480 3612 CF90      		pop r12
 9481               	.LVL803:
 9482 3614 BF90      		pop r11
 9483 3616 AF90      		pop r10
 9484               	.LVL804:
 9485 3618 9F90      		pop r9
 9486 361a 8F90      		pop r8
 9487               	.LVL805:
 9488 361c 7F90      		pop r7
 9489 361e 6F90      		pop r6
 9490               	.LVL806:
 9491 3620 5F90      		pop r5
 9492 3622 4F90      		pop r4
 9493               	.LVL807:
 9494 3624 3F90      		pop r3
 9495 3626 2F90      		pop r2
 9496               	.LVL808:
 9497 3628 0895      		ret
 9498               	.LFE68:
 9500               	.global	f_sync
 9502               	f_sync:
 9503               	.LFB69:
 9504               	.LM909:
 9505               	.LVL809:
 9506 362a 0F93      		push r16
 9507 362c CF93      		push r28
 9508 362e DF93      		push r29
 9509               	/* prologue: function */
 9510               	/* frame size = 0 */
 9511 3630 EC01      		movw r28,r24
 9512               	.LM910:
 9513 3632 6A81      		ldd r22,Y+2
 9514 3634 7B81      		ldd r23,Y+3
 9515 3636 8881      		ld r24,Y
 9516 3638 9981      		ldd r25,Y+1
 9517               	.LVL810:
 9518 363a 0E94 0000 		call validate
 9519 363e 982F      		mov r25,r24
 9520               	.LVL811:
 9521               	.LM911:
 9522 3640 8823      		tst r24
 9523 3642 01F0      		breq .+2
 9524 3644 00C0      		rjmp .L603
 9525               	.LVL812:
 9526               	.LM912:
 9527 3646 8C81      		ldd r24,Y+4
 9528               	.LVL813:
 9529 3648 85FF      		sbrs r24,5
 9530 364a 00C0      		rjmp .L603
 9531               	.LM913:
 9532 364c 86FF      		sbrs r24,6
 9533 364e 00C0      		rjmp .L604
 9534               	.LM914:
 9535 3650 E881      		ld r30,Y
 9536 3652 F981      		ldd r31,Y+1
 9537 3654 BE01      		movw r22,r28
 9538 3656 605E      		subi r22,lo8(-(32))
 9539 3658 7F4F      		sbci r23,hi8(-(32))
 9540 365a 2E89      		ldd r18,Y+22
 9541 365c 3F89      		ldd r19,Y+23
 9542 365e 488D      		ldd r20,Y+24
 9543 3660 598D      		ldd r21,Y+25
 9544 3662 8181      		ldd r24,Z+1
 9545 3664 01E0      		ldi r16,lo8(1)
 9546 3666 0E94 0000 		call disk_write
 9547               	.LVL814:
 9548 366a 8823      		tst r24
 9549 366c 01F0      		breq .L605
 9550 366e 91E0      		ldi r25,lo8(1)
 9551               	.LVL815:
 9552 3670 00C0      		rjmp .L603
 9553               	.LVL816:
 9554               	.L605:
 9555               	.LM915:
 9556 3672 8C81      		ldd r24,Y+4
 9557 3674 8F7B      		andi r24,lo8(-65)
 9558 3676 8C83      		std Y+4,r24
 9559               	.LVL817:
 9560               	.L604:
 9561               	.LM916:
 9562 3678 4A8D      		ldd r20,Y+26
 9563 367a 5B8D      		ldd r21,Y+27
 9564 367c 6C8D      		ldd r22,Y+28
 9565 367e 7D8D      		ldd r23,Y+29
 9566 3680 8881      		ld r24,Y
 9567 3682 9981      		ldd r25,Y+1
 9568 3684 0E94 0000 		call move_window
 9569               	.LVL818:
 9570 3688 982F      		mov r25,r24
 9571               	.LVL819:
 9572               	.LM917:
 9573 368a 8823      		tst r24
 9574 368c 01F0      		breq .+2
 9575 368e 00C0      		rjmp .L603
 9576               	.LVL820:
 9577               	.LM918:
 9578 3690 EE8D      		ldd r30,Y+30
 9579 3692 FF8D      		ldd r31,Y+31
 9580               	.LVL821:
 9581               	.LM919:
 9582 3694 8385      		ldd r24,Z+11
 9583               	.LVL822:
 9584 3696 8062      		ori r24,lo8(32)
 9585 3698 8387      		std Z+11,r24
 9586               	.LM920:
 9587 369a 8A85      		ldd r24,Y+10
 9588 369c 848F      		std Z+28,r24
 9589 369e 8B85      		ldd r24,Y+11
 9590 36a0 858F      		std Z+29,r24
 9591 36a2 8A85      		ldd r24,Y+10
 9592 36a4 9B85      		ldd r25,Y+11
 9593 36a6 AC85      		ldd r26,Y+12
 9594 36a8 BD85      		ldd r27,Y+13
 9595 36aa CD01      		movw r24,r26
 9596 36ac AA27      		clr r26
 9597 36ae BB27      		clr r27
 9598 36b0 868F      		std Z+30,r24
 9599 36b2 8A85      		ldd r24,Y+10
 9600 36b4 9B85      		ldd r25,Y+11
 9601 36b6 AC85      		ldd r26,Y+12
 9602 36b8 BD85      		ldd r27,Y+13
 9603 36ba 8B2F      		mov r24,r27
 9604 36bc 9927      		clr r25
 9605 36be AA27      		clr r26
 9606 36c0 BB27      		clr r27
 9607 36c2 878F      		std Z+31,r24
 9608               	.LM921:
 9609 36c4 8E85      		ldd r24,Y+14
 9610 36c6 828F      		std Z+26,r24
 9611 36c8 8F85      		ldd r24,Y+15
 9612 36ca 838F      		std Z+27,r24
 9613               	.LM922:
 9614 36cc 8E85      		ldd r24,Y+14
 9615 36ce 9F85      		ldd r25,Y+15
 9616 36d0 A889      		ldd r26,Y+16
 9617 36d2 B989      		ldd r27,Y+17
 9618 36d4 CD01      		movw r24,r26
 9619 36d6 AA27      		clr r26
 9620 36d8 BB27      		clr r27
 9621 36da 848B      		std Z+20,r24
 9622 36dc 8E85      		ldd r24,Y+14
 9623 36de 9F85      		ldd r25,Y+15
 9624 36e0 A889      		ldd r26,Y+16
 9625 36e2 B989      		ldd r27,Y+17
 9626 36e4 CD01      		movw r24,r26
 9627 36e6 AA27      		clr r26
 9628 36e8 BB27      		clr r27
 9629 36ea 892F      		mov r24,r25
 9630 36ec 9927      		clr r25
 9631 36ee 858B      		std Z+21,r24
 9632               	.LM923:
 9633 36f0 168A      		std Z+22,__zero_reg__
 9634 36f2 178A      		std Z+23,__zero_reg__
 9635 36f4 108E      		std Z+24,__zero_reg__
 9636 36f6 118E      		std Z+25,__zero_reg__
 9637               	.LM924:
 9638 36f8 8C81      		ldd r24,Y+4
 9639 36fa 8F7D      		andi r24,lo8(-33)
 9640 36fc 8C83      		std Y+4,r24
 9641               	.LM925:
 9642 36fe E881      		ld r30,Y
 9643 3700 F981      		ldd r31,Y+1
 9644               	.LVL823:
 9645 3702 81E0      		ldi r24,lo8(1)
 9646 3704 8483      		std Z+4,r24
 9647               	.LM926:
 9648 3706 8881      		ld r24,Y
 9649 3708 9981      		ldd r25,Y+1
 9650 370a 0E94 0000 		call sync
 9651               	.LVL824:
 9652 370e 982F      		mov r25,r24
 9653               	.LVL825:
 9654               	.L603:
 9655               	.LM927:
 9656 3710 892F      		mov r24,r25
 9657               	/* epilogue start */
 9658 3712 DF91      		pop r29
 9659 3714 CF91      		pop r28
 9660               	.LVL826:
 9661 3716 0F91      		pop r16
 9662 3718 0895      		ret
 9663               	.LFE69:
 9665               	.global	f_close
 9667               	f_close:
 9668               	.LFB70:
 9669               	.LM928:
 9670               	.LVL827:
 9671 371a CF93      		push r28
 9672 371c DF93      		push r29
 9673               	/* prologue: function */
 9674               	/* frame size = 0 */
 9675 371e EC01      		movw r28,r24
 9676               	.LM929:
 9677 3720 0E94 0000 		call f_sync
 9678               	.LVL828:
 9679               	.LM930:
 9680 3724 8823      		tst r24
 9681               	.LVL829:
 9682 3726 01F4      		brne .L608
 9683 3728 1882      		st Y,__zero_reg__
 9684 372a 1982      		std Y+1,__zero_reg__
 9685               	.L608:
 9686               	.LVL830:
 9687               	/* epilogue start */
 9688               	.LM931:
 9689 372c DF91      		pop r29
 9690 372e CF91      		pop r28
 9691               	.LVL831:
 9692 3730 0895      		ret
 9693               	.LFE70:
 9695               	.global	f_lseek
 9697               	f_lseek:
 9698               	.LFB71:
 9699               	.LM932:
 9700               	.LVL832:
 9701 3732 2F92      		push r2
 9702 3734 3F92      		push r3
 9703 3736 4F92      		push r4
 9704 3738 5F92      		push r5
 9705 373a 6F92      		push r6
 9706 373c 7F92      		push r7
 9707 373e 8F92      		push r8
 9708 3740 9F92      		push r9
 9709 3742 AF92      		push r10
 9710 3744 BF92      		push r11
 9711 3746 CF92      		push r12
 9712 3748 DF92      		push r13
 9713 374a 0F93      		push r16
 9714 374c 1F93      		push r17
 9715 374e DF93      		push r29
 9716 3750 CF93      		push r28
 9717 3752 CDB7      		in r28,__SP_L__
 9718 3754 DEB7      		in r29,__SP_H__
 9719 3756 2897      		sbiw r28,8
 9720 3758 CDBF      		out __SP_L__,r28
 9721 375a DEBF      		out __SP_H__,r29
 9722               	/* prologue: function */
 9723               	/* frame size = 8 */
 9724 375c 8F83      		std Y+7,r24
 9725 375e 9887      		std Y+8,r25
 9726 3760 3A01      		movw r6,r20
 9727 3762 4B01      		movw r8,r22
 9728               	.LM933:
 9729 3764 DC01      		movw r26,r24
 9730 3766 1296      		adiw r26,2
 9731 3768 6D91      		ld r22,X+
 9732 376a 7C91      		ld r23,X
 9733 376c 1397      		sbiw r26,2+1
 9734 376e 8D91      		ld r24,X+
 9735 3770 9C91      		ld r25,X
 9736               	.LVL833:
 9737 3772 0E94 0000 		call validate
 9738               	.LVL834:
 9739 3776 182F      		mov r17,r24
 9740               	.LVL835:
 9741               	.LM934:
 9742 3778 8823      		tst r24
 9743 377a 01F0      		breq .+2
 9744 377c 00C0      		rjmp .L611
 9745               	.LVL836:
 9746               	.LM935:
 9747 377e EF81      		ldd r30,Y+7
 9748 3780 F885      		ldd r31,Y+8
 9749 3782 8481      		ldd r24,Z+4
 9750               	.LVL837:
 9751 3784 87FD      		sbrc r24,7
 9752 3786 00C0      		rjmp .L638
 9753               	.L612:
 9754               	.LM936:
 9755 3788 AF81      		ldd r26,Y+7
 9756 378a B885      		ldd r27,Y+8
 9757 378c 1A96      		adiw r26,10
 9758 378e AD90      		ld r10,X+
 9759 3790 BD90      		ld r11,X+
 9760 3792 CD90      		ld r12,X+
 9761 3794 DC90      		ld r13,X
 9762 3796 1D97      		sbiw r26,10+3
 9763               	.LVL838:
 9764 3798 A614      		cp r10,r6
 9765 379a B704      		cpc r11,r7
 9766 379c C804      		cpc r12,r8
 9767 379e D904      		cpc r13,r9
 9768 37a0 00F4      		brsh .L613
 9769 37a2 81FF      		sbrs r24,1
 9770 37a4 00C0      		rjmp .L614
 9771               	.L613:
 9772 37a6 6401      		movw r12,r8
 9773 37a8 5301      		movw r10,r6
 9774               	.L614:
 9775               	.LM937:
 9776 37aa EF81      		ldd r30,Y+7
 9777 37ac F885      		ldd r31,Y+8
 9778 37ae 2681      		ldd r18,Z+6
 9779 37b0 3781      		ldd r19,Z+7
 9780 37b2 4085      		ldd r20,Z+8
 9781 37b4 5185      		ldd r21,Z+9
 9782               	.LVL839:
 9783               	.LM938:
 9784 37b6 1682      		std Z+6,__zero_reg__
 9785 37b8 1782      		std Z+7,__zero_reg__
 9786 37ba 1086      		std Z+8,__zero_reg__
 9787 37bc 1186      		std Z+9,__zero_reg__
 9788 37be 8FEF      		ldi r24,lo8(-1)
 9789 37c0 8583      		std Z+5,r24
 9790               	.LM939:
 9791 37c2 A114      		cp r10,__zero_reg__
 9792 37c4 B104      		cpc r11,__zero_reg__
 9793 37c6 C104      		cpc r12,__zero_reg__
 9794 37c8 D104      		cpc r13,__zero_reg__
 9795 37ca 01F4      		brne .+2
 9796 37cc 00C0      		rjmp .L615
 9797               	.LM940:
 9798 37ce 0190      		ld __tmp_reg__,Z+
 9799 37d0 F081      		ld r31,Z
 9800 37d2 E02D      		mov r30,__tmp_reg__
 9801 37d4 E983      		std Y+1,r30
 9802 37d6 FA83      		std Y+2,r31
 9803 37d8 8281      		ldd r24,Z+2
 9804 37da 682E      		mov r6,r24
 9805               	.LVL840:
 9806 37dc 7724      		clr r7
 9807               	.LVL841:
 9808 37de 8824      		clr r8
 9809 37e0 9924      		clr r9
 9810               	.LVL842:
 9811 37e2 89E0      		ldi r24,9
 9812 37e4 660C      	1:	lsl r6
 9813 37e6 771C      		rol r7
 9814 37e8 881C      		rol r8
 9815 37ea 991C      		rol r9
 9816 37ec 8A95      		dec r24
 9817 37ee 01F4      		brne 1b
 9818               	.LVL843:
 9819               	.LM941:
 9820 37f0 2115      		cp r18,__zero_reg__
 9821 37f2 3105      		cpc r19,__zero_reg__
 9822 37f4 4105      		cpc r20,__zero_reg__
 9823 37f6 5105      		cpc r21,__zero_reg__
 9824 37f8 01F0      		breq .L616
 9825 37fa 1901      		movw r2,r18
 9826 37fc 2A01      		movw r4,r20
 9827 37fe 0894      		sec
 9828 3800 2108      		sbc r2,__zero_reg__
 9829 3802 3108      		sbc r3,__zero_reg__
 9830 3804 4108      		sbc r4,__zero_reg__
 9831 3806 5108      		sbc r5,__zero_reg__
 9832 3808 C601      		movw r24,r12
 9833 380a B501      		movw r22,r10
 9834 380c 6150      		subi r22,lo8(-(-1))
 9835 380e 7040      		sbci r23,hi8(-(-1))
 9836 3810 8040      		sbci r24,hlo8(-(-1))
 9837 3812 9040      		sbci r25,hhi8(-(-1))
 9838 3814 A401      		movw r20,r8
 9839 3816 9301      		movw r18,r6
 9840               	.LVL844:
 9841 3818 0E94 0000 		call __udivmodsi4
 9842 381c 2B83      		std Y+3,r18
 9843 381e 3C83      		std Y+4,r19
 9844 3820 4D83      		std Y+5,r20
 9845 3822 5E83      		std Y+6,r21
 9846 3824 C201      		movw r24,r4
 9847 3826 B101      		movw r22,r2
 9848 3828 A401      		movw r20,r8
 9849 382a 9301      		movw r18,r6
 9850 382c 0E94 0000 		call __udivmodsi4
 9851 3830 8B81      		ldd r24,Y+3
 9852 3832 9C81      		ldd r25,Y+4
 9853 3834 AD81      		ldd r26,Y+5
 9854 3836 BE81      		ldd r27,Y+6
 9855 3838 8217      		cp r24,r18
 9856 383a 9307      		cpc r25,r19
 9857 383c A407      		cpc r26,r20
 9858 383e B507      		cpc r27,r21
 9859 3840 00F0      		brlo .L616
 9860               	.LM942:
 9861 3842 8827      		clr r24
 9862 3844 9927      		clr r25
 9863 3846 DC01      		movw r26,r24
 9864 3848 8619      		sub r24,r6
 9865 384a 9709      		sbc r25,r7
 9866 384c A809      		sbc r26,r8
 9867 384e B909      		sbc r27,r9
 9868 3850 8221      		and r24,r2
 9869 3852 9321      		and r25,r3
 9870 3854 A421      		and r26,r4
 9871 3856 B521      		and r27,r5
 9872 3858 EF81      		ldd r30,Y+7
 9873 385a F885      		ldd r31,Y+8
 9874 385c 8683      		std Z+6,r24
 9875 385e 9783      		std Z+7,r25
 9876 3860 A087      		std Z+8,r26
 9877 3862 B187      		std Z+9,r27
 9878               	.LM943:
 9879 3864 A81A      		sub r10,r24
 9880 3866 B90A      		sbc r11,r25
 9881 3868 CA0A      		sbc r12,r26
 9882 386a DB0A      		sbc r13,r27
 9883               	.LM944:
 9884 386c 4289      		ldd r20,Z+18
 9885 386e 5389      		ldd r21,Z+19
 9886 3870 6489      		ldd r22,Z+20
 9887 3872 7589      		ldd r23,Z+21
 9888               	.LVL845:
 9889 3874 00C0      		rjmp .L617
 9890               	.LVL846:
 9891               	.L616:
 9892               	.LM945:
 9893 3876 AF81      		ldd r26,Y+7
 9894 3878 B885      		ldd r27,Y+8
 9895 387a 1E96      		adiw r26,14
 9896 387c 4D91      		ld r20,X+
 9897 387e 5D91      		ld r21,X+
 9898 3880 6D91      		ld r22,X+
 9899 3882 7C91      		ld r23,X
 9900 3884 5197      		sbiw r26,14+3
 9901               	.LVL847:
 9902               	.LM946:
 9903 3886 4115      		cp r20,__zero_reg__
 9904 3888 5105      		cpc r21,__zero_reg__
 9905 388a 6105      		cpc r22,__zero_reg__
 9906 388c 7105      		cpc r23,__zero_reg__
 9907 388e 01F4      		brne .L618
 9908               	.LM947:
 9909 3890 8981      		ldd r24,Y+1
 9910 3892 9A81      		ldd r25,Y+2
 9911 3894 40E0      		ldi r20,lo8(0)
 9912 3896 50E0      		ldi r21,hi8(0)
 9913 3898 60E0      		ldi r22,hlo8(0)
 9914 389a 70E0      		ldi r23,hhi8(0)
 9915               	.LVL848:
 9916 389c 0E94 0000 		call create_chain
 9917               	.LVL849:
 9918 38a0 AB01      		movw r20,r22
 9919 38a2 BC01      		movw r22,r24
 9920               	.LVL850:
 9921               	.LM948:
 9922 38a4 4130      		cpi r20,lo8(1)
 9923 38a6 5105      		cpc r21,__zero_reg__
 9924 38a8 6105      		cpc r22,__zero_reg__
 9925 38aa 7105      		cpc r23,__zero_reg__
 9926 38ac 01F4      		brne .L619
 9927               	.L640:
 9928 38ae EF81      		ldd r30,Y+7
 9929 38b0 F885      		ldd r31,Y+8
 9930 38b2 8481      		ldd r24,Z+4
 9931 38b4 8068      		ori r24,lo8(-128)
 9932 38b6 8483      		std Z+4,r24
 9933               	.LVL851:
 9934               	.L638:
 9935 38b8 12E0      		ldi r17,lo8(2)
 9936 38ba 00C0      		rjmp .L611
 9937               	.LVL852:
 9938               	.L619:
 9939               	.LM949:
 9940 38bc 4F3F      		cpi r20,lo8(-1)
 9941 38be FFEF      		ldi r31,hi8(-1)
 9942 38c0 5F07      		cpc r21,r31
 9943 38c2 FFEF      		ldi r31,hlo8(-1)
 9944 38c4 6F07      		cpc r22,r31
 9945 38c6 FFEF      		ldi r31,hhi8(-1)
 9946 38c8 7F07      		cpc r23,r31
 9947 38ca 01F0      		breq .L641
 9948               	.L620:
 9949               	.LM950:
 9950 38cc EF81      		ldd r30,Y+7
 9951 38ce F885      		ldd r31,Y+8
 9952 38d0 4687      		std Z+14,r20
 9953 38d2 5787      		std Z+15,r21
 9954 38d4 608B      		std Z+16,r22
 9955 38d6 718B      		std Z+17,r23
 9956               	.LVL853:
 9957               	.L618:
 9958               	.LM951:
 9959 38d8 AF81      		ldd r26,Y+7
 9960 38da B885      		ldd r27,Y+8
 9961 38dc 5296      		adiw r26,18
 9962 38de 4D93      		st X+,r20
 9963 38e0 5D93      		st X+,r21
 9964 38e2 6D93      		st X+,r22
 9965 38e4 7C93      		st X,r23
 9966 38e6 5597      		sbiw r26,18+3
 9967               	.L617:
 9968               	.LM952:
 9969 38e8 4115      		cp r20,__zero_reg__
 9970 38ea 5105      		cpc r21,__zero_reg__
 9971 38ec 6105      		cpc r22,__zero_reg__
 9972 38ee 7105      		cpc r23,__zero_reg__
 9973 38f0 01F0      		breq .+2
 9974 38f2 00C0      		rjmp .L637
 9975 38f4 00C0      		rjmp .L615
 9976               	.L628:
 9977               	.LM953:
 9978 38f6 EF81      		ldd r30,Y+7
 9979 38f8 F885      		ldd r31,Y+8
 9980 38fa 8481      		ldd r24,Z+4
 9981 38fc 2081      		ld r18,Z
 9982 38fe 3181      		ldd r19,Z+1
 9983               	.LVL854:
 9984 3900 81FF      		sbrs r24,1
 9985 3902 00C0      		rjmp .L622
 9986               	.LM954:
 9987 3904 C901      		movw r24,r18
 9988 3906 0E94 0000 		call create_chain
 9989               	.LVL855:
 9990 390a AB01      		movw r20,r22
 9991 390c BC01      		movw r22,r24
 9992               	.LVL856:
 9993               	.LM955:
 9994 390e 4115      		cp r20,__zero_reg__
 9995 3910 5105      		cpc r21,__zero_reg__
 9996 3912 6105      		cpc r22,__zero_reg__
 9997 3914 7105      		cpc r23,__zero_reg__
 9998 3916 01F4      		brne .L623
 9999 3918 6401      		movw r12,r8
 10000 391a 5301      		movw r10,r6
 10001 391c 00C0      		rjmp .L624
 10002               	.L622:
 10003               	.LM956:
 10004 391e C901      		movw r24,r18
 10005 3920 0E94 0000 		call get_fat
 10006               	.LVL857:
 10007 3924 AB01      		movw r20,r22
 10008 3926 BC01      		movw r22,r24
 10009               	.LVL858:
 10010               	.L623:
 10011               	.LM957:
 10012 3928 4F3F      		cpi r20,lo8(-1)
 10013 392a FFEF      		ldi r31,hi8(-1)
 10014 392c 5F07      		cpc r21,r31
 10015 392e FFEF      		ldi r31,hlo8(-1)
 10016 3930 6F07      		cpc r22,r31
 10017 3932 FFEF      		ldi r31,hhi8(-1)
 10018 3934 7F07      		cpc r23,r31
 10019 3936 01F4      		brne .L625
 10020               	.L641:
 10021 3938 AF81      		ldd r26,Y+7
 10022 393a B885      		ldd r27,Y+8
 10023 393c 1496      		adiw r26,4
 10024 393e 8C91      		ld r24,X
 10025 3940 1497      		sbiw r26,4
 10026 3942 8068      		ori r24,lo8(-128)
 10027 3944 1496      		adiw r26,4
 10028 3946 8C93      		st X,r24
 10029 3948 00C0      		rjmp .L639
 10030               	.L625:
 10031               	.LM958:
 10032 394a 4230      		cpi r20,lo8(2)
 10033 394c 5105      		cpc r21,__zero_reg__
 10034 394e 6105      		cpc r22,__zero_reg__
 10035 3950 7105      		cpc r23,__zero_reg__
 10036 3952 00F4      		brsh .+2
 10037 3954 00C0      		rjmp .L640
 10038 3956 AF81      		ldd r26,Y+7
 10039 3958 B885      		ldd r27,Y+8
 10040 395a ED91      		ld r30,X+
 10041 395c FC91      		ld r31,X
 10042 395e 828D      		ldd r24,Z+26
 10043 3960 938D      		ldd r25,Z+27
 10044 3962 A48D      		ldd r26,Z+28
 10045 3964 B58D      		ldd r27,Z+29
 10046 3966 4817      		cp r20,r24
 10047 3968 5907      		cpc r21,r25
 10048 396a 6A07      		cpc r22,r26
 10049 396c 7B07      		cpc r23,r27
 10050 396e 00F0      		brlo .+2
 10051 3970 00C0      		rjmp .L640
 10052               	.L627:
 10053               	.LM959:
 10054 3972 AF81      		ldd r26,Y+7
 10055 3974 B885      		ldd r27,Y+8
 10056 3976 5296      		adiw r26,18
 10057 3978 4D93      		st X+,r20
 10058 397a 5D93      		st X+,r21
 10059 397c 6D93      		st X+,r22
 10060 397e 7C93      		st X,r23
 10061 3980 5597      		sbiw r26,18+3
 10062               	.LM960:
 10063 3982 FD01      		movw r30,r26
 10064 3984 8681      		ldd r24,Z+6
 10065 3986 9781      		ldd r25,Z+7
 10066 3988 A085      		ldd r26,Z+8
 10067 398a B185      		ldd r27,Z+9
 10068 398c 860D      		add r24,r6
 10069 398e 971D      		adc r25,r7
 10070 3990 A81D      		adc r26,r8
 10071 3992 B91D      		adc r27,r9
 10072 3994 8683      		std Z+6,r24
 10073 3996 9783      		std Z+7,r25
 10074 3998 A087      		std Z+8,r26
 10075 399a B187      		std Z+9,r27
 10076               	.LM961:
 10077 399c A618      		sub r10,r6
 10078 399e B708      		sbc r11,r7
 10079 39a0 C808      		sbc r12,r8
 10080 39a2 D908      		sbc r13,r9
 10081               	.LVL859:
 10082               	.L637:
 10083               	.LM962:
 10084 39a4 6A14      		cp r6,r10
 10085 39a6 7B04      		cpc r7,r11
 10086 39a8 8C04      		cpc r8,r12
 10087 39aa 9D04      		cpc r9,r13
 10088 39ac 00F4      		brsh .+2
 10089 39ae 00C0      		rjmp .L628
 10090               	.L624:
 10091               	.LM963:
 10092 39b0 EF81      		ldd r30,Y+7
 10093 39b2 F885      		ldd r31,Y+8
 10094 39b4 8681      		ldd r24,Z+6
 10095 39b6 9781      		ldd r25,Z+7
 10096 39b8 A085      		ldd r26,Z+8
 10097 39ba B185      		ldd r27,Z+9
 10098 39bc 8A0D      		add r24,r10
 10099 39be 9B1D      		adc r25,r11
 10100 39c0 AC1D      		adc r26,r12
 10101 39c2 BD1D      		adc r27,r13
 10102 39c4 8683      		std Z+6,r24
 10103 39c6 9783      		std Z+7,r25
 10104 39c8 A087      		std Z+8,r26
 10105 39ca B187      		std Z+9,r27
 10106               	.LM964:
 10107 39cc D601      		movw r26,r12
 10108 39ce C501      		movw r24,r10
 10109 39d0 09E0      		ldi r16,9
 10110 39d2 B695      	1:	lsr r27
 10111 39d4 A795      		ror r26
 10112 39d6 9795      		ror r25
 10113 39d8 8795      		ror r24
 10114 39da 0A95      		dec r16
 10115 39dc 01F4      		brne 1b
 10116 39de 082F      		mov r16,r24
 10117 39e0 8583      		std Z+5,r24
 10118               	.LM965:
 10119 39e2 8FEF      		ldi r24,lo8(511)
 10120 39e4 91E0      		ldi r25,hi8(511)
 10121 39e6 A0E0      		ldi r26,hlo8(511)
 10122 39e8 B0E0      		ldi r27,hhi8(511)
 10123 39ea A822      		and r10,r24
 10124 39ec B922      		and r11,r25
 10125 39ee CA22      		and r12,r26
 10126 39f0 DB22      		and r13,r27
 10127 39f2 A114      		cp r10,__zero_reg__
 10128 39f4 B104      		cpc r11,__zero_reg__
 10129 39f6 C104      		cpc r12,__zero_reg__
 10130 39f8 D104      		cpc r13,__zero_reg__
 10131 39fa 01F4      		brne .+2
 10132 39fc 00C0      		rjmp .L615
 10133               	.LM966:
 10134 39fe 8080      		ld r8,Z
 10135 3a00 9180      		ldd r9,Z+1
 10136               	.LVL860:
 10137               	.LBB613:
 10138               	.LBB614:
 10139               	.LM967:
 10140 3a02 3EEF      		ldi r19,lo8(-2)
 10141 3a04 A32E      		mov r10,r19
 10142 3a06 3FEF      		ldi r19,hi8(-2)
 10143 3a08 B32E      		mov r11,r19
 10144 3a0a 3FEF      		ldi r19,hlo8(-2)
 10145 3a0c C32E      		mov r12,r19
 10146 3a0e 3FEF      		ldi r19,hhi8(-2)
 10147 3a10 D32E      		mov r13,r19
 10148               	.LVL861:
 10149 3a12 A40E      		add r10,r20
 10150 3a14 B51E      		adc r11,r21
 10151 3a16 C61E      		adc r12,r22
 10152 3a18 D71E      		adc r13,r23
 10153               	.LM968:
 10154 3a1a F401      		movw r30,r8
 10155 3a1c 828D      		ldd r24,Z+26
 10156 3a1e 938D      		ldd r25,Z+27
 10157 3a20 A48D      		ldd r26,Z+28
 10158 3a22 B58D      		ldd r27,Z+29
 10159 3a24 0297      		sbiw r24,2
 10160 3a26 A109      		sbc r26,__zero_reg__
 10161 3a28 B109      		sbc r27,__zero_reg__
 10162 3a2a A816      		cp r10,r24
 10163 3a2c B906      		cpc r11,r25
 10164 3a2e CA06      		cpc r12,r26
 10165 3a30 DB06      		cpc r13,r27
 10166 3a32 00F4      		brsh .L629
 10167               	.LM969:
 10168 3a34 2281      		ldd r18,Z+2
 10169               	.LVL862:
 10170 3a36 30E0      		ldi r19,lo8(0)
 10171 3a38 40E0      		ldi r20,lo8(0)
 10172 3a3a 50E0      		ldi r21,hi8(0)
 10173               	.LVL863:
 10174 3a3c C601      		movw r24,r12
 10175 3a3e B501      		movw r22,r10
 10176 3a40 0E94 0000 		call __mulsi3
 10177 3a44 9B01      		movw r18,r22
 10178 3a46 AC01      		movw r20,r24
 10179               	.LVL864:
 10180 3a48 F401      		movw r30,r8
 10181 3a4a 86A1      		ldd r24,Z+38
 10182 3a4c 97A1      		ldd r25,Z+39
 10183 3a4e A0A5      		ldd r26,Z+40
 10184 3a50 B1A5      		ldd r27,Z+41
 10185 3a52 280F      		add r18,r24
 10186 3a54 391F      		adc r19,r25
 10187 3a56 4A1F      		adc r20,r26
 10188 3a58 5B1F      		adc r21,r27
 10189               	.LBE614:
 10190               	.LBE613:
 10191               	.LM970:
 10192 3a5a 2115      		cp r18,__zero_reg__
 10193 3a5c 3105      		cpc r19,__zero_reg__
 10194 3a5e 4105      		cpc r20,__zero_reg__
 10195 3a60 5105      		cpc r21,__zero_reg__
 10196 3a62 01F4      		brne .L630
 10197               	.LVL865:
 10198               	.L629:
 10199 3a64 AF81      		ldd r26,Y+7
 10200 3a66 B885      		ldd r27,Y+8
 10201 3a68 1496      		adiw r26,4
 10202 3a6a 8C91      		ld r24,X
 10203 3a6c 1497      		sbiw r26,4
 10204 3a6e 8068      		ori r24,lo8(-128)
 10205 3a70 1496      		adiw r26,4
 10206 3a72 8C93      		st X,r24
 10207 3a74 00C0      		rjmp .L638
 10208               	.LVL866:
 10209               	.L630:
 10210               	.LM971:
 10211 3a76 5901      		movw r10,r18
 10212 3a78 6A01      		movw r12,r20
 10213               	.LVL867:
 10214 3a7a A00E      		add r10,r16
 10215 3a7c B11C      		adc r11,__zero_reg__
 10216 3a7e C11C      		adc r12,__zero_reg__
 10217 3a80 D11C      		adc r13,__zero_reg__
 10218               	.LVL868:
 10219               	.LM972:
 10220 3a82 0F5F      		subi r16,lo8(-(1))
 10221 3a84 EF81      		ldd r30,Y+7
 10222 3a86 F885      		ldd r31,Y+8
 10223 3a88 0583      		std Z+5,r16
 10224 3a8a 00C0      		rjmp .L631
 10225               	.LVL869:
 10226               	.L615:
 10227 3a8c AA24      		clr r10
 10228 3a8e BB24      		clr r11
 10229 3a90 6501      		movw r12,r10
 10230               	.LVL870:
 10231               	.L631:
 10232               	.LM973:
 10233 3a92 EF81      		ldd r30,Y+7
 10234 3a94 F885      		ldd r31,Y+8
 10235 3a96 8681      		ldd r24,Z+6
 10236 3a98 9781      		ldd r25,Z+7
 10237 3a9a A085      		ldd r26,Z+8
 10238 3a9c B185      		ldd r27,Z+9
 10239 3a9e 9170      		andi r25,hi8(511)
 10240 3aa0 A070      		andi r26,hlo8(511)
 10241 3aa2 B070      		andi r27,hhi8(511)
 10242 3aa4 0097      		sbiw r24,0
 10243 3aa6 A105      		cpc r26,__zero_reg__
 10244 3aa8 B105      		cpc r27,__zero_reg__
 10245 3aaa 01F4      		brne .+2
 10246 3aac 00C0      		rjmp .L632
 10247 3aae 2689      		ldd r18,Z+22
 10248 3ab0 3789      		ldd r19,Z+23
 10249 3ab2 408D      		ldd r20,Z+24
 10250 3ab4 518D      		ldd r21,Z+25
 10251               	.LVL871:
 10252 3ab6 A216      		cp r10,r18
 10253 3ab8 B306      		cpc r11,r19
 10254 3aba C406      		cpc r12,r20
 10255 3abc D506      		cpc r13,r21
 10256 3abe 01F0      		breq .L632
 10257               	.LM974:
 10258 3ac0 8481      		ldd r24,Z+4
 10259 3ac2 86FF      		sbrs r24,6
 10260 3ac4 00C0      		rjmp .L633
 10261               	.LM975:
 10262 3ac6 0190      		ld __tmp_reg__,Z+
 10263 3ac8 F081      		ld r31,Z
 10264 3aca E02D      		mov r30,__tmp_reg__
 10265 3acc 6F81      		ldd r22,Y+7
 10266 3ace 7885      		ldd r23,Y+8
 10267 3ad0 605E      		subi r22,lo8(-(32))
 10268 3ad2 7F4F      		sbci r23,hi8(-(32))
 10269 3ad4 8181      		ldd r24,Z+1
 10270 3ad6 01E0      		ldi r16,lo8(1)
 10271 3ad8 0E94 0000 		call disk_write
 10272               	.LVL872:
 10273 3adc AF81      		ldd r26,Y+7
 10274 3ade B885      		ldd r27,Y+8
 10275 3ae0 1496      		adiw r26,4
 10276 3ae2 9C91      		ld r25,X
 10277 3ae4 1497      		sbiw r26,4
 10278 3ae6 8823      		tst r24
 10279 3ae8 01F0      		breq .L634
 10280               	.LM976:
 10281 3aea 9068      		ori r25,lo8(-128)
 10282 3aec 1496      		adiw r26,4
 10283 3aee 9C93      		st X,r25
 10284 3af0 00C0      		rjmp .L639
 10285               	.L634:
 10286               	.LM977:
 10287 3af2 9F7B      		andi r25,lo8(-65)
 10288 3af4 EF81      		ldd r30,Y+7
 10289 3af6 F885      		ldd r31,Y+8
 10290 3af8 9483      		std Z+4,r25
 10291               	.LVL873:
 10292               	.L633:
 10293               	.LM978:
 10294 3afa AF81      		ldd r26,Y+7
 10295 3afc B885      		ldd r27,Y+8
 10296 3afe ED91      		ld r30,X+
 10297 3b00 FC91      		ld r31,X
 10298 3b02 1197      		sbiw r26,1
 10299 3b04 BD01      		movw r22,r26
 10300 3b06 605E      		subi r22,lo8(-(32))
 10301 3b08 7F4F      		sbci r23,hi8(-(32))
 10302 3b0a 8181      		ldd r24,Z+1
 10303 3b0c A601      		movw r20,r12
 10304 3b0e 9501      		movw r18,r10
 10305 3b10 01E0      		ldi r16,lo8(1)
 10306 3b12 0E94 0000 		call disk_read
 10307               	.LVL874:
 10308 3b16 8823      		tst r24
 10309 3b18 01F0      		breq .L635
 10310               	.LM979:
 10311 3b1a EF81      		ldd r30,Y+7
 10312 3b1c F885      		ldd r31,Y+8
 10313 3b1e 8481      		ldd r24,Z+4
 10314 3b20 8068      		ori r24,lo8(-128)
 10315 3b22 8483      		std Z+4,r24
 10316               	.LVL875:
 10317               	.L639:
 10318 3b24 11E0      		ldi r17,lo8(1)
 10319 3b26 00C0      		rjmp .L611
 10320               	.LVL876:
 10321               	.L635:
 10322               	.LM980:
 10323 3b28 AF81      		ldd r26,Y+7
 10324 3b2a B885      		ldd r27,Y+8
 10325 3b2c 5696      		adiw r26,22
 10326 3b2e AD92      		st X+,r10
 10327 3b30 BD92      		st X+,r11
 10328 3b32 CD92      		st X+,r12
 10329 3b34 DC92      		st X,r13
 10330 3b36 5997      		sbiw r26,22+3
 10331               	.LVL877:
 10332               	.L632:
 10333               	.LM981:
 10334 3b38 EF81      		ldd r30,Y+7
 10335 3b3a F885      		ldd r31,Y+8
 10336 3b3c 2681      		ldd r18,Z+6
 10337 3b3e 3781      		ldd r19,Z+7
 10338 3b40 4085      		ldd r20,Z+8
 10339 3b42 5185      		ldd r21,Z+9
 10340               	.LVL878:
 10341 3b44 8285      		ldd r24,Z+10
 10342 3b46 9385      		ldd r25,Z+11
 10343 3b48 A485      		ldd r26,Z+12
 10344 3b4a B585      		ldd r27,Z+13
 10345 3b4c 8217      		cp r24,r18
 10346 3b4e 9307      		cpc r25,r19
 10347 3b50 A407      		cpc r26,r20
 10348 3b52 B507      		cpc r27,r21
 10349 3b54 00F4      		brsh .L611
 10350               	.LM982:
 10351 3b56 2287      		std Z+10,r18
 10352 3b58 3387      		std Z+11,r19
 10353 3b5a 4487      		std Z+12,r20
 10354 3b5c 5587      		std Z+13,r21
 10355               	.LM983:
 10356 3b5e 8481      		ldd r24,Z+4
 10357 3b60 8062      		ori r24,lo8(32)
 10358 3b62 8483      		std Z+4,r24
 10359               	.LVL879:
 10360               	.L611:
 10361               	.LM984:
 10362 3b64 812F      		mov r24,r17
 10363               	/* epilogue start */
 10364 3b66 2896      		adiw r28,8
 10365 3b68 CDBF      		out __SP_L__,r28
 10366 3b6a DEBF      		out __SP_H__,r29
 10367 3b6c CF91      		pop r28
 10368 3b6e DF91      		pop r29
 10369 3b70 1F91      		pop r17
 10370               	.LVL880:
 10371 3b72 0F91      		pop r16
 10372 3b74 DF90      		pop r13
 10373 3b76 CF90      		pop r12
 10374 3b78 BF90      		pop r11
 10375 3b7a AF90      		pop r10
 10376               	.LVL881:
 10377 3b7c 9F90      		pop r9
 10378 3b7e 8F90      		pop r8
 10379               	.LVL882:
 10380 3b80 7F90      		pop r7
 10381               	.LVL883:
 10382 3b82 6F90      		pop r6
 10383               	.LVL884:
 10384 3b84 5F90      		pop r5
 10385 3b86 4F90      		pop r4
 10386 3b88 3F90      		pop r3
 10387 3b8a 2F90      		pop r2
 10388 3b8c 0895      		ret
 10389               	.LFE71:
 10391               	.global	f_opendir
 10393               	f_opendir:
 10394               	.LFB72:
 10395               	.LM985:
 10396               	.LVL885:
 10397 3b8e 0F93      		push r16
 10398 3b90 1F93      		push r17
 10399 3b92 DF93      		push r29
 10400 3b94 CF93      		push r28
 10401 3b96 CDB7      		in r28,__SP_L__
 10402 3b98 DEB7      		in r29,__SP_H__
 10403 3b9a 2E97      		sbiw r28,14
 10404 3b9c CDBF      		out __SP_L__,r28
 10405 3b9e DEBF      		out __SP_H__,r29
 10406               	/* prologue: function */
 10407               	/* frame size = 14 */
 10408 3ba0 8C01      		movw r16,r24
 10409 3ba2 6D87      		std Y+13,r22
 10410 3ba4 7E87      		std Y+14,r23
 10411               	.LM986:
 10412 3ba6 CE01      		movw r24,r28
 10413               	.LVL886:
 10414 3ba8 0D96      		adiw r24,13
 10415 3baa B801      		movw r22,r16
 10416               	.LVL887:
 10417 3bac 40E0      		ldi r20,lo8(0)
 10418 3bae 0E94 0000 		call chk_mounted
 10419               	.LM987:
 10420 3bb2 8823      		tst r24
 10421               	.LVL888:
 10422 3bb4 01F0      		breq .+2
 10423 3bb6 00C0      		rjmp .L643
 10424               	.LM988:
 10425 3bb8 CE01      		movw r24,r28
 10426               	.LVL889:
 10427 3bba 0196      		adiw r24,1
 10428 3bbc D801      		movw r26,r16
 10429 3bbe 5496      		adiw r26,20
 10430 3bc0 8D93      		st X+,r24
 10431 3bc2 9C93      		st X,r25
 10432 3bc4 5597      		sbiw r26,20+1
 10433               	.LM989:
 10434 3bc6 6D85      		ldd r22,Y+13
 10435 3bc8 7E85      		ldd r23,Y+14
 10436 3bca C801      		movw r24,r16
 10437 3bcc 0E94 0000 		call follow_path
 10438               	.LM990:
 10439 3bd0 8823      		tst r24
 10440               	.LVL890:
 10441 3bd2 01F4      		brne .L644
 10442               	.LM991:
 10443 3bd4 D801      		movw r26,r16
 10444 3bd6 5296      		adiw r26,18
 10445 3bd8 ED91      		ld r30,X+
 10446 3bda FC91      		ld r31,X
 10447 3bdc 5397      		sbiw r26,18+1
 10448               	.LVL891:
 10449               	.LM992:
 10450 3bde 3097      		sbiw r30,0
 10451 3be0 01F0      		breq .L645
 10452               	.LM993:
 10453 3be2 8385      		ldd r24,Z+11
 10454               	.LVL892:
 10455 3be4 84FF      		sbrs r24,4
 10456 3be6 00C0      		rjmp .L648
 10457               	.L646:
 10458               	.LM994:
 10459 3be8 3589      		ldd r19,Z+21
 10460 3bea 20E0      		ldi r18,lo8(0)
 10461 3bec 8489      		ldd r24,Z+20
 10462 3bee 90E0      		ldi r25,lo8(0)
 10463 3bf0 282B      		or r18,r24
 10464 3bf2 392B      		or r19,r25
 10465 3bf4 40E0      		ldi r20,lo8(0)
 10466 3bf6 50E0      		ldi r21,hi8(0)
 10467 3bf8 A901      		movw r20,r18
 10468 3bfa 3327      		clr r19
 10469 3bfc 2227      		clr r18
 10470 3bfe 938D      		ldd r25,Z+27
 10471 3c00 80E0      		ldi r24,lo8(0)
 10472 3c02 628D      		ldd r22,Z+26
 10473 3c04 70E0      		ldi r23,lo8(0)
 10474 3c06 862B      		or r24,r22
 10475 3c08 972B      		or r25,r23
 10476 3c0a A0E0      		ldi r26,lo8(0)
 10477 3c0c B0E0      		ldi r27,hi8(0)
 10478 3c0e 282B      		or r18,r24
 10479 3c10 392B      		or r19,r25
 10480 3c12 4A2B      		or r20,r26
 10481 3c14 5B2B      		or r21,r27
 10482 3c16 F801      		movw r30,r16
 10483               	.LVL893:
 10484 3c18 2683      		std Z+6,r18
 10485 3c1a 3783      		std Z+7,r19
 10486 3c1c 4087      		std Z+8,r20
 10487 3c1e 5187      		std Z+9,r21
 10488               	.LVL894:
 10489               	.L645:
 10490               	.LM995:
 10491 3c20 D801      		movw r26,r16
 10492 3c22 ED91      		ld r30,X+
 10493 3c24 FC91      		ld r31,X
 10494 3c26 1197      		sbiw r26,1
 10495               	.LVL895:
 10496 3c28 8681      		ldd r24,Z+6
 10497 3c2a 9781      		ldd r25,Z+7
 10498               	.LVL896:
 10499 3c2c 1296      		adiw r26,2
 10500 3c2e 8D93      		st X+,r24
 10501 3c30 9C93      		st X,r25
 10502 3c32 1397      		sbiw r26,2+1
 10503               	.LM996:
 10504 3c34 C801      		movw r24,r16
 10505 3c36 60E0      		ldi r22,lo8(0)
 10506 3c38 70E0      		ldi r23,hi8(0)
 10507 3c3a 0E94 0000 		call dir_seek
 10508               	.LVL897:
 10509               	.L644:
 10510               	.LM997:
 10511 3c3e 8430      		cpi r24,lo8(4)
 10512 3c40 01F4      		brne .L643
 10513               	.LVL898:
 10514               	.L648:
 10515 3c42 85E0      		ldi r24,lo8(5)
 10516               	.L643:
 10517               	.LVL899:
 10518               	/* epilogue start */
 10519               	.LM998:
 10520 3c44 2E96      		adiw r28,14
 10521 3c46 CDBF      		out __SP_L__,r28
 10522 3c48 DEBF      		out __SP_H__,r29
 10523 3c4a CF91      		pop r28
 10524 3c4c DF91      		pop r29
 10525 3c4e 1F91      		pop r17
 10526 3c50 0F91      		pop r16
 10527               	.LVL900:
 10528 3c52 0895      		ret
 10529               	.LFE72:
 10531               	.global	f_readdir
 10533               	f_readdir:
 10534               	.LFB73:
 10535               	.LM999:
 10536               	.LVL901:
 10537 3c54 EF92      		push r14
 10538 3c56 FF92      		push r15
 10539 3c58 0F93      		push r16
 10540 3c5a 1F93      		push r17
 10541 3c5c DF93      		push r29
 10542 3c5e CF93      		push r28
 10543 3c60 CDB7      		in r28,__SP_L__
 10544 3c62 DEB7      		in r29,__SP_H__
 10545 3c64 2C97      		sbiw r28,12
 10546 3c66 CDBF      		out __SP_L__,r28
 10547 3c68 DEBF      		out __SP_H__,r29
 10548               	/* prologue: function */
 10549               	/* frame size = 12 */
 10550 3c6a 8C01      		movw r16,r24
 10551 3c6c 7B01      		movw r14,r22
 10552               	.LM1000:
 10553 3c6e FC01      		movw r30,r24
 10554 3c70 6281      		ldd r22,Z+2
 10555 3c72 7381      		ldd r23,Z+3
 10556               	.LVL902:
 10557 3c74 8081      		ld r24,Z
 10558 3c76 9181      		ldd r25,Z+1
 10559               	.LVL903:
 10560 3c78 0E94 0000 		call validate
 10561               	.LM1001:
 10562 3c7c 8823      		tst r24
 10563               	.LVL904:
 10564 3c7e 01F4      		brne .L651
 10565               	.LM1002:
 10566 3c80 CE01      		movw r24,r28
 10567               	.LVL905:
 10568 3c82 0196      		adiw r24,1
 10569 3c84 F801      		movw r30,r16
 10570 3c86 848B      		std Z+20,r24
 10571 3c88 958B      		std Z+21,r25
 10572               	.LM1003:
 10573 3c8a E114      		cp r14,__zero_reg__
 10574 3c8c F104      		cpc r15,__zero_reg__
 10575 3c8e 01F4      		brne .L652
 10576               	.LM1004:
 10577 3c90 C801      		movw r24,r16
 10578 3c92 60E0      		ldi r22,lo8(0)
 10579 3c94 70E0      		ldi r23,hi8(0)
 10580 3c96 0E94 0000 		call dir_seek
 10581 3c9a 00C0      		rjmp .L651
 10582               	.L652:
 10583               	.LM1005:
 10584 3c9c C801      		movw r24,r16
 10585 3c9e 0E94 0000 		call dir_read
 10586               	.LM1006:
 10587 3ca2 8430      		cpi r24,lo8(4)
 10588               	.LVL906:
 10589 3ca4 01F4      		brne .L653
 10590               	.LM1007:
 10591 3ca6 F801      		movw r30,r16
 10592 3ca8 1686      		std Z+14,__zero_reg__
 10593 3caa 1786      		std Z+15,__zero_reg__
 10594 3cac 108A      		std Z+16,__zero_reg__
 10595 3cae 118A      		std Z+17,__zero_reg__
 10596 3cb0 00C0      		rjmp .L654
 10597               	.L653:
 10598               	.LM1008:
 10599 3cb2 8823      		tst r24
 10600 3cb4 01F4      		brne .L651
 10601               	.L654:
 10602               	.LM1009:
 10603 3cb6 C801      		movw r24,r16
 10604               	.LVL907:
 10605 3cb8 B701      		movw r22,r14
 10606 3cba 0E94 0000 		call get_fileinfo
 10607               	.LM1010:
 10608 3cbe C801      		movw r24,r16
 10609 3cc0 60E0      		ldi r22,lo8(0)
 10610 3cc2 0E94 0000 		call dir_next
 10611               	.LM1011:
 10612 3cc6 8430      		cpi r24,lo8(4)
 10613               	.LVL908:
 10614 3cc8 01F4      		brne .L651
 10615               	.LM1012:
 10616 3cca F801      		movw r30,r16
 10617 3ccc 1686      		std Z+14,__zero_reg__
 10618 3cce 1786      		std Z+15,__zero_reg__
 10619 3cd0 108A      		std Z+16,__zero_reg__
 10620 3cd2 118A      		std Z+17,__zero_reg__
 10621 3cd4 80E0      		ldi r24,lo8(0)
 10622               	.L651:
 10623               	.LVL909:
 10624               	/* epilogue start */
 10625               	.LM1013:
 10626 3cd6 2C96      		adiw r28,12
 10627 3cd8 CDBF      		out __SP_L__,r28
 10628 3cda DEBF      		out __SP_H__,r29
 10629 3cdc CF91      		pop r28
 10630 3cde DF91      		pop r29
 10631 3ce0 1F91      		pop r17
 10632 3ce2 0F91      		pop r16
 10633               	.LVL910:
 10634 3ce4 FF90      		pop r15
 10635 3ce6 EF90      		pop r14
 10636               	.LVL911:
 10637 3ce8 0895      		ret
 10638               	.LFE73:
 10640               	.global	f_stat
 10642               	f_stat:
 10643               	.LFB74:
 10644               	.LM1014:
 10645               	.LVL912:
 10646 3cea CF92      		push r12
 10647 3cec DF92      		push r13
 10648 3cee EF92      		push r14
 10649 3cf0 FF92      		push r15
 10650 3cf2 1F93      		push r17
 10651 3cf4 DF93      		push r29
 10652 3cf6 CF93      		push r28
 10653 3cf8 CDB7      		in r28,__SP_L__
 10654 3cfa DEB7      		in r29,__SP_H__
 10655 3cfc A497      		sbiw r28,36
 10656 3cfe CDBF      		out __SP_L__,r28
 10657 3d00 DEBF      		out __SP_H__,r29
 10658               	/* prologue: function */
 10659               	/* frame size = 36 */
 10660 3d02 8BA3      		std Y+35,r24
 10661 3d04 9CA3      		std Y+36,r25
 10662 3d06 6B01      		movw r12,r22
 10663               	.LM1015:
 10664 3d08 2DE0      		ldi r18,lo8(13)
 10665 3d0a E22E      		mov r14,r18
 10666 3d0c F12C      		mov r15,__zero_reg__
 10667 3d0e EC0E      		add r14,r28
 10668 3d10 FD1E      		adc r15,r29
 10669 3d12 CE01      		movw r24,r28
 10670               	.LVL913:
 10671 3d14 8396      		adiw r24,35
 10672 3d16 B701      		movw r22,r14
 10673               	.LVL914:
 10674 3d18 40E0      		ldi r20,lo8(0)
 10675 3d1a 0E94 0000 		call chk_mounted
 10676 3d1e 182F      		mov r17,r24
 10677               	.LVL915:
 10678               	.LM1016:
 10679 3d20 8823      		tst r24
 10680 3d22 01F4      		brne .L657
 10681               	.LVL916:
 10682               	.LM1017:
 10683 3d24 CE01      		movw r24,r28
 10684               	.LVL917:
 10685 3d26 0196      		adiw r24,1
 10686 3d28 89A3      		std Y+33,r24
 10687 3d2a 9AA3      		std Y+34,r25
 10688               	.LM1018:
 10689 3d2c 6BA1      		ldd r22,Y+35
 10690 3d2e 7CA1      		ldd r23,Y+36
 10691 3d30 C701      		movw r24,r14
 10692 3d32 0E94 0000 		call follow_path
 10693 3d36 182F      		mov r17,r24
 10694               	.LM1019:
 10695 3d38 8823      		tst r24
 10696 3d3a 01F4      		brne .L657
 10697               	.LVL918:
 10698               	.LM1020:
 10699 3d3c 8F8D      		ldd r24,Y+31
 10700 3d3e 98A1      		ldd r25,Y+32
 10701               	.LVL919:
 10702 3d40 892B      		or r24,r25
 10703 3d42 01F4      		brne .L658
 10704 3d44 16E0      		ldi r17,lo8(6)
 10705 3d46 00C0      		rjmp .L657
 10706               	.L658:
 10707               	.LM1021:
 10708 3d48 C701      		movw r24,r14
 10709 3d4a B601      		movw r22,r12
 10710 3d4c 0E94 0000 		call get_fileinfo
 10711               	.LVL920:
 10712               	.L657:
 10713               	.LM1022:
 10714 3d50 812F      		mov r24,r17
 10715               	/* epilogue start */
 10716 3d52 A496      		adiw r28,36
 10717 3d54 CDBF      		out __SP_L__,r28
 10718 3d56 DEBF      		out __SP_H__,r29
 10719 3d58 CF91      		pop r28
 10720 3d5a DF91      		pop r29
 10721 3d5c 1F91      		pop r17
 10722               	.LVL921:
 10723 3d5e FF90      		pop r15
 10724 3d60 EF90      		pop r14
 10725 3d62 DF90      		pop r13
 10726 3d64 CF90      		pop r12
 10727               	.LVL922:
 10728 3d66 0895      		ret
 10729               	.LFE74:
 10731               	.global	f_getfree
 10733               	f_getfree:
 10734               	.LFB75:
 10735               	.LM1023:
 10736               	.LVL923:
 10737 3d68 2F92      		push r2
 10738 3d6a 3F92      		push r3
 10739 3d6c 4F92      		push r4
 10740 3d6e 5F92      		push r5
 10741 3d70 6F92      		push r6
 10742 3d72 7F92      		push r7
 10743 3d74 8F92      		push r8
 10744 3d76 9F92      		push r9
 10745 3d78 AF92      		push r10
 10746 3d7a BF92      		push r11
 10747 3d7c CF92      		push r12
 10748 3d7e DF92      		push r13
 10749 3d80 EF92      		push r14
 10750 3d82 FF92      		push r15
 10751 3d84 0F93      		push r16
 10752 3d86 1F93      		push r17
 10753 3d88 DF93      		push r29
 10754 3d8a CF93      		push r28
 10755 3d8c CDB7      		in r28,__SP_L__
 10756 3d8e DEB7      		in r29,__SP_H__
 10757 3d90 2997      		sbiw r28,9
 10758 3d92 CDBF      		out __SP_L__,r28
 10759 3d94 DEBF      		out __SP_H__,r29
 10760               	/* prologue: function */
 10761               	/* frame size = 9 */
 10762 3d96 8983      		std Y+1,r24
 10763 3d98 9A83      		std Y+2,r25
 10764 3d9a 6C83      		std Y+4,r22
 10765 3d9c 7D83      		std Y+5,r23
 10766 3d9e 2A01      		movw r4,r20
 10767               	.LM1024:
 10768 3da0 CE01      		movw r24,r28
 10769               	.LVL924:
 10770 3da2 0196      		adiw r24,1
 10771 3da4 BA01      		movw r22,r20
 10772               	.LVL925:
 10773 3da6 40E0      		ldi r20,lo8(0)
 10774               	.LVL926:
 10775 3da8 0E94 0000 		call chk_mounted
 10776               	.LM1025:
 10777 3dac 8823      		tst r24
 10778               	.LVL927:
 10779 3dae 01F0      		breq .+2
 10780 3db0 00C0      		rjmp .L662
 10781               	.LM1026:
 10782 3db2 D201      		movw r26,r4
 10783 3db4 ED91      		ld r30,X+
 10784 3db6 FC91      		ld r31,X
 10785 3db8 2685      		ldd r18,Z+14
 10786 3dba 3785      		ldd r19,Z+15
 10787 3dbc 4089      		ldd r20,Z+16
 10788 3dbe 5189      		ldd r21,Z+17
 10789 3dc0 E28C      		ldd r14,Z+26
 10790 3dc2 F38C      		ldd r15,Z+27
 10791 3dc4 048D      		ldd r16,Z+28
 10792 3dc6 158D      		ldd r17,Z+29
 10793               	.LVL928:
 10794 3dc8 D801      		movw r26,r16
 10795 3dca C701      		movw r24,r14
 10796               	.LVL929:
 10797 3dcc 0297      		sbiw r24,2
 10798 3dce A109      		sbc r26,__zero_reg__
 10799 3dd0 B109      		sbc r27,__zero_reg__
 10800 3dd2 8217      		cp r24,r18
 10801 3dd4 9307      		cpc r25,r19
 10802 3dd6 A407      		cpc r26,r20
 10803 3dd8 B507      		cpc r27,r21
 10804 3dda 00F0      		brlo .L663
 10805               	.LM1027:
 10806 3ddc EC81      		ldd r30,Y+4
 10807 3dde FD81      		ldd r31,Y+5
 10808 3de0 2083      		st Z,r18
 10809 3de2 3183      		std Z+1,r19
 10810 3de4 4283      		std Z+2,r20
 10811 3de6 5383      		std Z+3,r21
 10812 3de8 00C0      		rjmp .L680
 10813               	.L663:
 10814               	.LM1028:
 10815 3dea 3080      		ld r3,Z
 10816 3dec 3B82      		std Y+3,r3
 10817               	.LVL930:
 10818               	.LM1029:
 10819 3dee 232D      		mov r18,r3
 10820 3df0 2130      		cpi r18,lo8(1)
 10821 3df2 01F4      		brne .L664
 10822 3df4 AA24      		clr r10
 10823 3df6 BB24      		clr r11
 10824 3df8 6501      		movw r12,r10
 10825               	.LVL931:
 10826 3dfa 92E0      		ldi r25,lo8(2)
 10827 3dfc E92E      		mov r14,r25
 10828 3dfe F12C      		mov r15,__zero_reg__
 10829 3e00 012D      		mov r16,__zero_reg__
 10830 3e02 112D      		mov r17,__zero_reg__
 10831               	.LVL932:
 10832               	.L668:
 10833               	.LM1030:
 10834 3e04 D201      		movw r26,r4
 10835 3e06 8D91      		ld r24,X+
 10836 3e08 9C91      		ld r25,X
 10837 3e0a B801      		movw r22,r16
 10838 3e0c A701      		movw r20,r14
 10839 3e0e 0E94 0000 		call get_fat
 10840               	.LVL933:
 10841               	.LM1031:
 10842 3e12 6F3F      		cpi r22,lo8(-1)
 10843 3e14 BFEF      		ldi r27,hi8(-1)
 10844 3e16 7B07      		cpc r23,r27
 10845 3e18 BFEF      		ldi r27,hlo8(-1)
 10846 3e1a 8B07      		cpc r24,r27
 10847 3e1c BFEF      		ldi r27,hhi8(-1)
 10848 3e1e 9B07      		cpc r25,r27
 10849               	.LVL934:
 10850 3e20 01F4      		brne .L665
 10851 3e22 81E0      		ldi r24,lo8(1)
 10852               	.LVL935:
 10853 3e24 00C0      		rjmp .L662
 10854               	.LVL936:
 10855               	.L665:
 10856               	.LM1032:
 10857 3e26 6130      		cpi r22,lo8(1)
 10858 3e28 7105      		cpc r23,__zero_reg__
 10859 3e2a 8105      		cpc r24,__zero_reg__
 10860 3e2c 9105      		cpc r25,__zero_reg__
 10861 3e2e 01F4      		brne .L666
 10862 3e30 82E0      		ldi r24,lo8(2)
 10863               	.LVL937:
 10864 3e32 00C0      		rjmp .L662
 10865               	.LVL938:
 10866               	.L666:
 10867               	.LM1033:
 10868 3e34 6115      		cp r22,__zero_reg__
 10869 3e36 7105      		cpc r23,__zero_reg__
 10870 3e38 8105      		cpc r24,__zero_reg__
 10871 3e3a 9105      		cpc r25,__zero_reg__
 10872 3e3c 01F4      		brne .L667
 10873 3e3e 0894      		sec
 10874 3e40 A11C      		adc r10,__zero_reg__
 10875 3e42 B11C      		adc r11,__zero_reg__
 10876 3e44 C11C      		adc r12,__zero_reg__
 10877 3e46 D11C      		adc r13,__zero_reg__
 10878               	.L667:
 10879               	.LM1034:
 10880 3e48 0894      		sec
 10881 3e4a E11C      		adc r14,__zero_reg__
 10882 3e4c F11C      		adc r15,__zero_reg__
 10883 3e4e 011D      		adc r16,__zero_reg__
 10884 3e50 111D      		adc r17,__zero_reg__
 10885 3e52 D201      		movw r26,r4
 10886 3e54 ED91      		ld r30,X+
 10887 3e56 FC91      		ld r31,X
 10888 3e58 828D      		ldd r24,Z+26
 10889 3e5a 938D      		ldd r25,Z+27
 10890 3e5c A48D      		ldd r26,Z+28
 10891 3e5e B58D      		ldd r27,Z+29
 10892 3e60 E816      		cp r14,r24
 10893 3e62 F906      		cpc r15,r25
 10894 3e64 0A07      		cpc r16,r26
 10895 3e66 1B07      		cpc r17,r27
 10896 3e68 00F0      		brlo .L668
 10897 3e6a 00C0      		rjmp .L669
 10898               	.LVL939:
 10899               	.L664:
 10900               	.LM1035:
 10901 3e6c 668C      		ldd r6,Z+30
 10902 3e6e 778C      		ldd r7,Z+31
 10903 3e70 80A0      		ldd r8,Z+32
 10904 3e72 91A0      		ldd r9,Z+33
 10905               	.LVL940:
 10906 3e74 AA24      		clr r10
 10907 3e76 BB24      		clr r11
 10908 3e78 6501      		movw r12,r10
 10909               	.LVL941:
 10910 3e7a 60E0      		ldi r22,lo8(0)
 10911 3e7c 70E0      		ldi r23,hi8(0)
 10912               	.LVL942:
 10913 3e7e E0E0      		ldi r30,lo8(0)
 10914 3e80 F0E0      		ldi r31,hi8(0)
 10915               	.LVL943:
 10916               	.L675:
 10917               	.LM1036:
 10918 3e82 6115      		cp r22,__zero_reg__
 10919 3e84 7105      		cpc r23,__zero_reg__
 10920 3e86 01F4      		brne .L670
 10921               	.LM1037:
 10922 3e88 F201      		movw r30,r4
 10923               	.LVL944:
 10924 3e8a 8081      		ld r24,Z
 10925 3e8c 9181      		ldd r25,Z+1
 10926 3e8e B401      		movw r22,r8
 10927 3e90 A301      		movw r20,r6
 10928 3e92 0E94 0000 		call move_window
 10929               	.LVL945:
 10930               	.LM1038:
 10931 3e96 8823      		tst r24
 10932               	.LVL946:
 10933 3e98 01F0      		breq .+2
 10934 3e9a 00C0      		rjmp .L662
 10935               	.LM1039:
 10936 3e9c 0894      		sec
 10937 3e9e 611C      		adc r6,__zero_reg__
 10938 3ea0 711C      		adc r7,__zero_reg__
 10939 3ea2 811C      		adc r8,__zero_reg__
 10940 3ea4 911C      		adc r9,__zero_reg__
 10941               	.LM1040:
 10942 3ea6 D201      		movw r26,r4
 10943 3ea8 ED91      		ld r30,X+
 10944 3eaa FC91      		ld r31,X
 10945               	.LVL947:
 10946 3eac BE96      		adiw r30,46
 10947 3eae 60E0      		ldi r22,lo8(512)
 10948 3eb0 72E0      		ldi r23,hi8(512)
 10949               	.LVL948:
 10950               	.L670:
 10951 3eb2 B181      		ldd r27,Z+1
 10952 3eb4 B887      		std Y+8,r27
 10953 3eb6 2081      		ld r18,Z
 10954 3eb8 2987      		std Y+9,r18
 10955               	.LM1041:
 10956 3eba 3B81      		ldd r19,Y+3
 10957 3ebc 3230      		cpi r19,lo8(2)
 10958 3ebe 01F4      		brne .L671
 10959               	.LM1042:
 10960 3ec0 BF83      		std Y+7,r27
 10961 3ec2 1E82      		std Y+6,__zero_reg__
 10962 3ec4 822F      		mov r24,r18
 10963               	.LVL949:
 10964 3ec6 90E0      		ldi r25,lo8(0)
 10965 3ec8 AE81      		ldd r26,Y+6
 10966 3eca BF81      		ldd r27,Y+7
 10967 3ecc 8A2B      		or r24,r26
 10968 3ece 9B2B      		or r25,r27
 10969 3ed0 892B      		or r24,r25
 10970 3ed2 01F4      		brne .L672
 10971 3ed4 0894      		sec
 10972 3ed6 A11C      		adc r10,__zero_reg__
 10973 3ed8 B11C      		adc r11,__zero_reg__
 10974 3eda C11C      		adc r12,__zero_reg__
 10975 3edc D11C      		adc r13,__zero_reg__
 10976               	.L672:
 10977               	.LM1043:
 10978 3ede 3296      		adiw r30,2
 10979 3ee0 6250      		subi r22,lo8(-(-2))
 10980 3ee2 7040      		sbci r23,hi8(-(-2))
 10981 3ee4 00C0      		rjmp .L673
 10982               	.LVL950:
 10983               	.L671:
 10984               	.LM1044:
 10985 3ee6 2381      		ldd r18,Z+3
 10986 3ee8 30E0      		ldi r19,lo8(0)
 10987 3eea 40E0      		ldi r20,lo8(0)
 10988 3eec 50E0      		ldi r21,hi8(0)
 10989 3eee 522F      		mov r21,r18
 10990 3ef0 4427      		clr r20
 10991 3ef2 3327      		clr r19
 10992 3ef4 2227      		clr r18
 10993               	.LVL951:
 10994 3ef6 8281      		ldd r24,Z+2
 10995 3ef8 90E0      		ldi r25,lo8(0)
 10996 3efa A0E0      		ldi r26,lo8(0)
 10997 3efc B0E0      		ldi r27,hi8(0)
 10998 3efe DC01      		movw r26,r24
 10999 3f00 9927      		clr r25
 11000 3f02 8827      		clr r24
 11001 3f04 282B      		or r18,r24
 11002 3f06 392B      		or r19,r25
 11003 3f08 4A2B      		or r20,r26
 11004 3f0a 5B2B      		or r21,r27
 11005 3f0c 3984      		ldd r3,Y+9
 11006 3f0e 832D      		mov r24,r3
 11007 3f10 90E0      		ldi r25,lo8(0)
 11008 3f12 A0E0      		ldi r26,lo8(0)
 11009 3f14 B0E0      		ldi r27,hi8(0)
 11010 3f16 282B      		or r18,r24
 11011 3f18 392B      		or r19,r25
 11012 3f1a 4A2B      		or r20,r26
 11013 3f1c 5B2B      		or r21,r27
 11014 3f1e 3884      		ldd r3,Y+8
 11015 3f20 2224      		clr r2
 11016 3f22 C101      		movw r24,r2
 11017 3f24 A0E0      		ldi r26,lo8(0)
 11018 3f26 B0E0      		ldi r27,hi8(0)
 11019 3f28 282B      		or r18,r24
 11020 3f2a 392B      		or r19,r25
 11021 3f2c 4A2B      		or r20,r26
 11022 3f2e 5B2B      		or r21,r27
 11023 3f30 5F70      		andi r21,hhi8(268435455)
 11024 3f32 2115      		cp r18,__zero_reg__
 11025 3f34 3105      		cpc r19,__zero_reg__
 11026 3f36 4105      		cpc r20,__zero_reg__
 11027 3f38 5105      		cpc r21,__zero_reg__
 11028 3f3a 01F4      		brne .L674
 11029 3f3c 0894      		sec
 11030 3f3e A11C      		adc r10,__zero_reg__
 11031 3f40 B11C      		adc r11,__zero_reg__
 11032 3f42 C11C      		adc r12,__zero_reg__
 11033 3f44 D11C      		adc r13,__zero_reg__
 11034               	.L674:
 11035               	.LM1045:
 11036 3f46 3496      		adiw r30,4
 11037 3f48 6450      		subi r22,lo8(-(-4))
 11038 3f4a 7040      		sbci r23,hi8(-(-4))
 11039               	.L673:
 11040               	.LM1046:
 11041 3f4c 0894      		sec
 11042 3f4e E108      		sbc r14,__zero_reg__
 11043 3f50 F108      		sbc r15,__zero_reg__
 11044 3f52 0109      		sbc r16,__zero_reg__
 11045 3f54 1109      		sbc r17,__zero_reg__
 11046 3f56 E114      		cp r14,__zero_reg__
 11047 3f58 F104      		cpc r15,__zero_reg__
 11048 3f5a 0105      		cpc r16,__zero_reg__
 11049 3f5c 1105      		cpc r17,__zero_reg__
 11050 3f5e 01F0      		breq .+2
 11051 3f60 00C0      		rjmp .L675
 11052               	.LVL952:
 11053               	.L669:
 11054               	.LM1047:
 11055 3f62 D201      		movw r26,r4
 11056 3f64 ED91      		ld r30,X+
 11057 3f66 FC91      		ld r31,X
 11058               	.LVL953:
 11059 3f68 A686      		std Z+14,r10
 11060 3f6a B786      		std Z+15,r11
 11061 3f6c C08A      		std Z+16,r12
 11062 3f6e D18A      		std Z+17,r13
 11063               	.LM1048:
 11064 3f70 BB81      		ldd r27,Y+3
 11065 3f72 B330      		cpi r27,lo8(3)
 11066 3f74 01F4      		brne .L676
 11067 3f76 81E0      		ldi r24,lo8(1)
 11068 3f78 8583      		std Z+5,r24
 11069               	.L676:
 11070               	.LM1049:
 11071 3f7a EC81      		ldd r30,Y+4
 11072 3f7c FD81      		ldd r31,Y+5
 11073 3f7e A082      		st Z,r10
 11074 3f80 B182      		std Z+1,r11
 11075 3f82 C282      		std Z+2,r12
 11076 3f84 D382      		std Z+3,r13
 11077               	.L680:
 11078 3f86 80E0      		ldi r24,lo8(0)
 11079               	.LVL954:
 11080               	.L662:
 11081               	.LVL955:
 11082               	/* epilogue start */
 11083               	.LM1050:
 11084 3f88 2996      		adiw r28,9
 11085 3f8a CDBF      		out __SP_L__,r28
 11086 3f8c DEBF      		out __SP_H__,r29
 11087 3f8e CF91      		pop r28
 11088 3f90 DF91      		pop r29
 11089 3f92 1F91      		pop r17
 11090 3f94 0F91      		pop r16
 11091 3f96 FF90      		pop r15
 11092 3f98 EF90      		pop r14
 11093               	.LVL956:
 11094 3f9a DF90      		pop r13
 11095 3f9c CF90      		pop r12
 11096 3f9e BF90      		pop r11
 11097 3fa0 AF90      		pop r10
 11098               	.LVL957:
 11099 3fa2 9F90      		pop r9
 11100 3fa4 8F90      		pop r8
 11101 3fa6 7F90      		pop r7
 11102 3fa8 6F90      		pop r6
 11103               	.LVL958:
 11104 3faa 5F90      		pop r5
 11105 3fac 4F90      		pop r4
 11106               	.LVL959:
 11107 3fae 3F90      		pop r3
 11108 3fb0 2F90      		pop r2
 11109 3fb2 0895      		ret
 11110               	.LFE75:
 11112               	.global	f_truncate
 11114               	f_truncate:
 11115               	.LFB76:
 11116               	.LM1051:
 11117               	.LVL960:
 11118 3fb4 CF92      		push r12
 11119 3fb6 DF92      		push r13
 11120 3fb8 EF92      		push r14
 11121 3fba FF92      		push r15
 11122 3fbc 0F93      		push r16
 11123 3fbe 1F93      		push r17
 11124 3fc0 CF93      		push r28
 11125 3fc2 DF93      		push r29
 11126               	/* prologue: function */
 11127               	/* frame size = 0 */
 11128 3fc4 EC01      		movw r28,r24
 11129               	.LM1052:
 11130 3fc6 6A81      		ldd r22,Y+2
 11131 3fc8 7B81      		ldd r23,Y+3
 11132 3fca 8881      		ld r24,Y
 11133 3fcc 9981      		ldd r25,Y+1
 11134               	.LVL961:
 11135 3fce 0E94 0000 		call validate
 11136 3fd2 182F      		mov r17,r24
 11137               	.LVL962:
 11138               	.LM1053:
 11139 3fd4 8823      		tst r24
 11140 3fd6 01F0      		breq .+2
 11141 3fd8 00C0      		rjmp .L682
 11142               	.LVL963:
 11143               	.LM1054:
 11144 3fda 6C81      		ldd r22,Y+4
 11145 3fdc 67FF      		sbrs r22,7
 11146 3fde 00C0      		rjmp .L683
 11147 3fe0 12E0      		ldi r17,lo8(2)
 11148               	.LVL964:
 11149 3fe2 00C0      		rjmp .L682
 11150               	.LVL965:
 11151               	.L683:
 11152               	.LM1055:
 11153 3fe4 61FD      		sbrc r22,1
 11154 3fe6 00C0      		rjmp .L684
 11155 3fe8 17E0      		ldi r17,lo8(7)
 11156               	.LVL966:
 11157 3fea 00C0      		rjmp .L682
 11158               	.LVL967:
 11159               	.L684:
 11160               	.LM1056:
 11161 3fec 2E81      		ldd r18,Y+6
 11162 3fee 3F81      		ldd r19,Y+7
 11163 3ff0 4885      		ldd r20,Y+8
 11164 3ff2 5985      		ldd r21,Y+9
 11165 3ff4 8A85      		ldd r24,Y+10
 11166 3ff6 9B85      		ldd r25,Y+11
 11167 3ff8 AC85      		ldd r26,Y+12
 11168 3ffa BD85      		ldd r27,Y+13
 11169               	.LVL968:
 11170 3ffc 2817      		cp r18,r24
 11171 3ffe 3907      		cpc r19,r25
 11172 4000 4A07      		cpc r20,r26
 11173 4002 5B07      		cpc r21,r27
 11174 4004 00F0      		brlo .+2
 11175 4006 00C0      		rjmp .L682
 11176               	.LM1057:
 11177 4008 2A87      		std Y+10,r18
 11178 400a 3B87      		std Y+11,r19
 11179 400c 4C87      		std Y+12,r20
 11180 400e 5D87      		std Y+13,r21
 11181               	.LM1058:
 11182 4010 6062      		ori r22,lo8(32)
 11183 4012 6C83      		std Y+4,r22
 11184 4014 8881      		ld r24,Y
 11185 4016 9981      		ldd r25,Y+1
 11186               	.LM1059:
 11187 4018 2115      		cp r18,__zero_reg__
 11188 401a 3105      		cpc r19,__zero_reg__
 11189 401c 4105      		cpc r20,__zero_reg__
 11190 401e 5105      		cpc r21,__zero_reg__
 11191 4020 01F4      		brne .L685
 11192               	.LM1060:
 11193 4022 4E85      		ldd r20,Y+14
 11194 4024 5F85      		ldd r21,Y+15
 11195 4026 6889      		ldd r22,Y+16
 11196 4028 7989      		ldd r23,Y+17
 11197 402a 0E94 0000 		call remove_chain
 11198 402e 182F      		mov r17,r24
 11199               	.LM1061:
 11200 4030 1E86      		std Y+14,__zero_reg__
 11201 4032 1F86      		std Y+15,__zero_reg__
 11202 4034 188A      		std Y+16,__zero_reg__
 11203 4036 198A      		std Y+17,__zero_reg__
 11204 4038 00C0      		rjmp .L686
 11205               	.L685:
 11206               	.LM1062:
 11207 403a 4A89      		ldd r20,Y+18
 11208 403c 5B89      		ldd r21,Y+19
 11209 403e 6C89      		ldd r22,Y+20
 11210 4040 7D89      		ldd r23,Y+21
 11211 4042 0E94 0000 		call get_fat
 11212 4046 6B01      		movw r12,r22
 11213 4048 7C01      		movw r14,r24
 11214               	.LVL969:
 11215               	.LM1063:
 11216 404a 8FEF      		ldi r24,lo8(-1)
 11217 404c C816      		cp r12,r24
 11218 404e 8FEF      		ldi r24,hi8(-1)
 11219 4050 D806      		cpc r13,r24
 11220 4052 8FEF      		ldi r24,hlo8(-1)
 11221 4054 E806      		cpc r14,r24
 11222 4056 8FEF      		ldi r24,hhi8(-1)
 11223 4058 F806      		cpc r15,r24
 11224 405a 01F0      		breq .L687
 11225               	.LM1064:
 11226 405c 81E0      		ldi r24,lo8(1)
 11227 405e C816      		cp r12,r24
 11228 4060 D104      		cpc r13,__zero_reg__
 11229 4062 E104      		cpc r14,__zero_reg__
 11230 4064 F104      		cpc r15,__zero_reg__
 11231 4066 01F4      		brne .L688
 11232 4068 12E0      		ldi r17,lo8(2)
 11233 406a 00C0      		rjmp .L689
 11234               	.L688:
 11235               	.LM1065:
 11236 406c E881      		ld r30,Y
 11237 406e F981      		ldd r31,Y+1
 11238 4070 828D      		ldd r24,Z+26
 11239 4072 938D      		ldd r25,Z+27
 11240 4074 A48D      		ldd r26,Z+28
 11241 4076 B58D      		ldd r27,Z+29
 11242 4078 C816      		cp r12,r24
 11243 407a D906      		cpc r13,r25
 11244 407c EA06      		cpc r14,r26
 11245 407e FB06      		cpc r15,r27
 11246 4080 00F4      		brsh .L682
 11247               	.LM1066:
 11248 4082 4A89      		ldd r20,Y+18
 11249 4084 5B89      		ldd r21,Y+19
 11250 4086 6C89      		ldd r22,Y+20
 11251 4088 7D89      		ldd r23,Y+21
 11252 408a CF01      		movw r24,r30
 11253 408c 0FEF      		ldi r16,lo8(268435455)
 11254 408e 1FEF      		ldi r17,hi8(268435455)
 11255 4090 2FEF      		ldi r18,hlo8(268435455)
 11256 4092 3FE0      		ldi r19,hhi8(268435455)
 11257 4094 0E94 0000 		call put_fat
 11258 4098 182F      		mov r17,r24
 11259               	.LM1067:
 11260 409a 8823      		tst r24
 11261 409c 01F4      		brne .L689
 11262               	.LVL970:
 11263 409e 8881      		ld r24,Y
 11264 40a0 9981      		ldd r25,Y+1
 11265               	.LVL971:
 11266 40a2 B701      		movw r22,r14
 11267 40a4 A601      		movw r20,r12
 11268 40a6 0E94 0000 		call remove_chain
 11269 40aa 182F      		mov r17,r24
 11270               	.L686:
 11271               	.LM1068:
 11272 40ac 1123      		tst r17
 11273 40ae 01F0      		breq .L682
 11274               	.LVL972:
 11275               	.L689:
 11276 40b0 8C81      		ldd r24,Y+4
 11277 40b2 8068      		ori r24,lo8(-128)
 11278 40b4 8C83      		std Y+4,r24
 11279               	.LVL973:
 11280               	.L682:
 11281               	.LM1069:
 11282 40b6 812F      		mov r24,r17
 11283               	/* epilogue start */
 11284 40b8 DF91      		pop r29
 11285 40ba CF91      		pop r28
 11286               	.LVL974:
 11287 40bc 1F91      		pop r17
 11288               	.LVL975:
 11289 40be 0F91      		pop r16
 11290 40c0 FF90      		pop r15
 11291 40c2 EF90      		pop r14
 11292 40c4 DF90      		pop r13
 11293 40c6 CF90      		pop r12
 11294               	.LVL976:
 11295 40c8 0895      		ret
 11296               	.LVL977:
 11297               	.L687:
 11298               	.LM1070:
 11299 40ca 11E0      		ldi r17,lo8(1)
 11300 40cc 00C0      		rjmp .L689
 11301               	.LFE76:
 11303               	.global	f_unlink
 11305               	f_unlink:
 11306               	.LFB77:
 11307               	.LM1071:
 11308               	.LVL978:
 11309 40ce CF92      		push r12
 11310 40d0 DF92      		push r13
 11311 40d2 EF92      		push r14
 11312 40d4 FF92      		push r15
 11313 40d6 0F93      		push r16
 11314 40d8 1F93      		push r17
 11315 40da DF93      		push r29
 11316 40dc CF93      		push r28
 11317 40de CDB7      		in r28,__SP_L__
 11318 40e0 DEB7      		in r29,__SP_H__
 11319 40e2 EA97      		sbiw r28,58
 11320 40e4 CDBF      		out __SP_L__,r28
 11321 40e6 DEBF      		out __SP_H__,r29
 11322               	/* prologue: function */
 11323               	/* frame size = 58 */
 11324 40e8 89AF      		std Y+57,r24
 11325 40ea 9AAF      		std Y+58,r25
 11326               	.LM1072:
 11327 40ec 4DE0      		ldi r20,lo8(13)
 11328 40ee C42E      		mov r12,r20
 11329 40f0 D12C      		mov r13,__zero_reg__
 11330 40f2 CC0E      		add r12,r28
 11331 40f4 DD1E      		adc r13,r29
 11332 40f6 CE01      		movw r24,r28
 11333               	.LVL979:
 11334 40f8 C996      		adiw r24,57
 11335 40fa B601      		movw r22,r12
 11336 40fc 41E0      		ldi r20,lo8(1)
 11337 40fe 0E94 0000 		call chk_mounted
 11338               	.LM1073:
 11339 4102 8823      		tst r24
 11340               	.LVL980:
 11341 4104 01F0      		breq .+2
 11342 4106 00C0      		rjmp .L692
 11343               	.LM1074:
 11344 4108 CE01      		movw r24,r28
 11345               	.LVL981:
 11346 410a 0196      		adiw r24,1
 11347 410c 89A3      		std Y+33,r24
 11348 410e 9AA3      		std Y+34,r25
 11349               	.LM1075:
 11350 4110 69AD      		ldd r22,Y+57
 11351 4112 7AAD      		ldd r23,Y+58
 11352 4114 C601      		movw r24,r12
 11353 4116 0E94 0000 		call follow_path
 11354               	.LM1076:
 11355 411a 8823      		tst r24
 11356               	.LVL982:
 11357 411c 01F0      		breq .+2
 11358 411e 00C0      		rjmp .L692
 11359               	.LM1077:
 11360 4120 EF8D      		ldd r30,Y+31
 11361 4122 F8A1      		ldd r31,Y+32
 11362               	.LVL983:
 11363               	.LM1078:
 11364 4124 3097      		sbiw r30,0
 11365 4126 01F4      		brne .L693
 11366 4128 86E0      		ldi r24,lo8(6)
 11367 412a 00C0      		rjmp .L692
 11368               	.L693:
 11369               	.LM1079:
 11370 412c 8385      		ldd r24,Z+11
 11371               	.LVL984:
 11372 412e 482F      		mov r20,r24
 11373 4130 80FD      		sbrc r24,0
 11374 4132 00C0      		rjmp .L694
 11375               	.LM1080:
 11376 4134 9589      		ldd r25,Z+21
 11377 4136 80E0      		ldi r24,lo8(0)
 11378 4138 2489      		ldd r18,Z+20
 11379 413a 30E0      		ldi r19,lo8(0)
 11380 413c 822B      		or r24,r18
 11381 413e 932B      		or r25,r19
 11382 4140 A0E0      		ldi r26,lo8(0)
 11383 4142 B0E0      		ldi r27,hi8(0)
 11384 4144 8C01      		movw r16,r24
 11385 4146 FF24      		clr r15
 11386 4148 EE24      		clr r14
 11387               	.LVL985:
 11388 414a 938D      		ldd r25,Z+27
 11389 414c 80E0      		ldi r24,lo8(0)
 11390 414e 228D      		ldd r18,Z+26
 11391 4150 30E0      		ldi r19,lo8(0)
 11392 4152 822B      		or r24,r18
 11393 4154 932B      		or r25,r19
 11394 4156 A0E0      		ldi r26,lo8(0)
 11395 4158 B0E0      		ldi r27,hi8(0)
 11396 415a E82A      		or r14,r24
 11397 415c F92A      		or r15,r25
 11398 415e 0A2B      		or r16,r26
 11399 4160 1B2B      		or r17,r27
 11400               	.LM1081:
 11401 4162 44FF      		sbrs r20,4
 11402 4164 00C0      		rjmp .L695
 11403               	.LM1082:
 11404 4166 82E0      		ldi r24,lo8(2)
 11405 4168 E816      		cp r14,r24
 11406 416a F104      		cpc r15,__zero_reg__
 11407 416c 0105      		cpc r16,__zero_reg__
 11408 416e 1105      		cpc r17,__zero_reg__
 11409 4170 00F4      		brsh .L696
 11410 4172 82E0      		ldi r24,lo8(2)
 11411               	.LVL986:
 11412 4174 00C0      		rjmp .L692
 11413               	.LVL987:
 11414               	.L696:
 11415               	.LBB615:
 11416               	.LBB616:
 11417               	.LM1083:
 11418 4176 DE01      		movw r26,r28
 11419               	.LVL988:
 11420 4178 9396      		adiw r26,35
 11421               	.LM1084:
 11422 417a F601      		movw r30,r12
 11423               	.LVL989:
 11424               	.LM1085:
 11425 417c 9D01      		movw r18,r26
 11426 417e 00C0      		rjmp .L697
 11427               	.L698:
 11428 4180 8191      		ld r24,Z+
 11429 4182 8D93      		st X+,r24
 11430               	.L697:
 11431 4184 E217      		cp r30,r18
 11432 4186 F307      		cpc r31,r19
 11433 4188 01F4      		brne .L698
 11434               	.LBE616:
 11435               	.LBE615:
 11436               	.LM1086:
 11437 418a E9A6      		std Y+41,r14
 11438 418c FAA6      		std Y+42,r15
 11439 418e 0BA7      		std Y+43,r16
 11440 4190 1CA7      		std Y+44,r17
 11441               	.LM1087:
 11442 4192 23E2      		ldi r18,lo8(35)
 11443 4194 C22E      		mov r12,r18
 11444 4196 D12C      		mov r13,__zero_reg__
 11445 4198 CC0E      		add r12,r28
 11446 419a DD1E      		adc r13,r29
 11447 419c C601      		movw r24,r12
 11448 419e 62E0      		ldi r22,lo8(2)
 11449 41a0 70E0      		ldi r23,hi8(2)
 11450 41a2 0E94 0000 		call dir_seek
 11451               	.LVL990:
 11452               	.LM1088:
 11453 41a6 8823      		tst r24
 11454               	.LVL991:
 11455 41a8 01F4      		brne .L692
 11456               	.LM1089:
 11457 41aa C601      		movw r24,r12
 11458               	.LVL992:
 11459 41ac 0E94 0000 		call dir_read
 11460               	.LM1090:
 11461 41b0 8823      		tst r24
 11462               	.LVL993:
 11463 41b2 01F0      		breq .L694
 11464               	.LM1091:
 11465 41b4 8430      		cpi r24,lo8(4)
 11466 41b6 01F4      		brne .L692
 11467               	.LVL994:
 11468               	.L695:
 11469               	.LM1092:
 11470 41b8 CE01      		movw r24,r28
 11471               	.LVL995:
 11472 41ba 0D96      		adiw r24,13
 11473 41bc 0E94 0000 		call dir_remove
 11474               	.LVL996:
 11475               	.LM1093:
 11476 41c0 8823      		tst r24
 11477               	.LVL997:
 11478 41c2 01F4      		brne .L692
 11479               	.LM1094:
 11480 41c4 E114      		cp r14,__zero_reg__
 11481 41c6 F104      		cpc r15,__zero_reg__
 11482 41c8 0105      		cpc r16,__zero_reg__
 11483 41ca 1105      		cpc r17,__zero_reg__
 11484 41cc 01F0      		breq .L699
 11485               	.LM1095:
 11486 41ce 8D85      		ldd r24,Y+13
 11487 41d0 9E85      		ldd r25,Y+14
 11488               	.LVL998:
 11489 41d2 B801      		movw r22,r16
 11490 41d4 A701      		movw r20,r14
 11491 41d6 0E94 0000 		call remove_chain
 11492               	.LM1096:
 11493 41da 8823      		tst r24
 11494               	.LVL999:
 11495 41dc 01F4      		brne .L692
 11496               	.L699:
 11497 41de 8D85      		ldd r24,Y+13
 11498 41e0 9E85      		ldd r25,Y+14
 11499               	.LVL1000:
 11500 41e2 0E94 0000 		call sync
 11501 41e6 00C0      		rjmp .L692
 11502               	.LVL1001:
 11503               	.L694:
 11504 41e8 87E0      		ldi r24,lo8(7)
 11505               	.L692:
 11506               	.LVL1002:
 11507               	/* epilogue start */
 11508               	.LM1097:
 11509 41ea EA96      		adiw r28,58
 11510 41ec CDBF      		out __SP_L__,r28
 11511 41ee DEBF      		out __SP_H__,r29
 11512 41f0 CF91      		pop r28
 11513 41f2 DF91      		pop r29
 11514 41f4 1F91      		pop r17
 11515 41f6 0F91      		pop r16
 11516 41f8 FF90      		pop r15
 11517 41fa EF90      		pop r14
 11518               	.LVL1003:
 11519 41fc DF90      		pop r13
 11520 41fe CF90      		pop r12
 11521 4200 0895      		ret
 11522               	.LFE77:
 11524               	.global	f_mkdir
 11526               	f_mkdir:
 11527               	.LFB78:
 11528               	.LM1098:
 11529               	.LVL1004:
 11530 4202 2F92      		push r2
 11531 4204 3F92      		push r3
 11532 4206 4F92      		push r4
 11533 4208 5F92      		push r5
 11534 420a 6F92      		push r6
 11535 420c 7F92      		push r7
 11536 420e 8F92      		push r8
 11537 4210 9F92      		push r9
 11538 4212 AF92      		push r10
 11539 4214 BF92      		push r11
 11540 4216 CF92      		push r12
 11541 4218 DF92      		push r13
 11542 421a EF92      		push r14
 11543 421c FF92      		push r15
 11544 421e 0F93      		push r16
 11545 4220 1F93      		push r17
 11546 4222 DF93      		push r29
 11547 4224 CF93      		push r28
 11548 4226 CDB7      		in r28,__SP_L__
 11549 4228 DEB7      		in r29,__SP_H__
 11550 422a A897      		sbiw r28,40
 11551 422c CDBF      		out __SP_L__,r28
 11552 422e DEBF      		out __SP_H__,r29
 11553               	/* prologue: function */
 11554               	/* frame size = 40 */
 11555 4230 8BA3      		std Y+35,r24
 11556 4232 9CA3      		std Y+36,r25
 11557               	.LM1099:
 11558 4234 3DE0      		ldi r19,lo8(13)
 11559 4236 E32E      		mov r14,r19
 11560 4238 F12C      		mov r15,__zero_reg__
 11561 423a EC0E      		add r14,r28
 11562 423c FD1E      		adc r15,r29
 11563 423e CE01      		movw r24,r28
 11564               	.LVL1005:
 11565 4240 8396      		adiw r24,35
 11566 4242 B701      		movw r22,r14
 11567 4244 41E0      		ldi r20,lo8(1)
 11568 4246 0E94 0000 		call chk_mounted
 11569 424a 182F      		mov r17,r24
 11570               	.LVL1006:
 11571               	.LM1100:
 11572 424c 8823      		tst r24
 11573 424e 01F0      		breq .+2
 11574 4250 00C0      		rjmp .L702
 11575               	.LVL1007:
 11576               	.LM1101:
 11577 4252 CE01      		movw r24,r28
 11578               	.LVL1008:
 11579 4254 0196      		adiw r24,1
 11580 4256 89A3      		std Y+33,r24
 11581 4258 9AA3      		std Y+34,r25
 11582               	.LM1102:
 11583 425a 6BA1      		ldd r22,Y+35
 11584 425c 7CA1      		ldd r23,Y+36
 11585 425e C701      		movw r24,r14
 11586 4260 0E94 0000 		call follow_path
 11587 4264 182F      		mov r17,r24
 11588               	.LM1103:
 11589 4266 8823      		tst r24
 11590 4268 01F4      		brne .L703
 11591               	.LVL1009:
 11592 426a 18E0      		ldi r17,lo8(8)
 11593               	.LVL1010:
 11594 426c 00C0      		rjmp .L702
 11595               	.LVL1011:
 11596               	.L703:
 11597               	.LM1104:
 11598 426e 8430      		cpi r24,lo8(4)
 11599 4270 01F0      		breq .+2
 11600 4272 00C0      		rjmp .L702
 11601               	.LM1105:
 11602 4274 8D85      		ldd r24,Y+13
 11603 4276 9E85      		ldd r25,Y+14
 11604               	.LVL1012:
 11605 4278 40E0      		ldi r20,lo8(0)
 11606 427a 50E0      		ldi r21,hi8(0)
 11607 427c 60E0      		ldi r22,hlo8(0)
 11608 427e 70E0      		ldi r23,hhi8(0)
 11609 4280 0E94 0000 		call create_chain
 11610 4284 4B01      		movw r8,r22
 11611 4286 5C01      		movw r10,r24
 11612               	.LVL1013:
 11613               	.LM1106:
 11614 4288 6115      		cp r22,__zero_reg__
 11615 428a 7105      		cpc r23,__zero_reg__
 11616 428c 8105      		cpc r24,__zero_reg__
 11617 428e 9105      		cpc r25,__zero_reg__
 11618 4290 01F4      		brne .L704
 11619               	.LVL1014:
 11620 4292 17E0      		ldi r17,lo8(7)
 11621 4294 00C0      		rjmp .L702
 11622               	.L704:
 11623               	.LM1107:
 11624 4296 6130      		cpi r22,lo8(1)
 11625 4298 7105      		cpc r23,__zero_reg__
 11626 429a 8105      		cpc r24,__zero_reg__
 11627 429c 9105      		cpc r25,__zero_reg__
 11628 429e 01F4      		brne .L705
 11629 42a0 12E0      		ldi r17,lo8(2)
 11630 42a2 00C0      		rjmp .L702
 11631               	.L705:
 11632               	.LM1108:
 11633 42a4 6F3F      		cpi r22,lo8(-1)
 11634 42a6 3FEF      		ldi r19,hi8(-1)
 11635 42a8 7307      		cpc r23,r19
 11636 42aa 3FEF      		ldi r19,hlo8(-1)
 11637 42ac 8307      		cpc r24,r19
 11638 42ae 3FEF      		ldi r19,hhi8(-1)
 11639 42b0 9307      		cpc r25,r19
 11640 42b2 01F4      		brne .+2
 11641 42b4 00C0      		rjmp .L706
 11642               	.LM1109:
 11643 42b6 8D85      		ldd r24,Y+13
 11644 42b8 9E85      		ldd r25,Y+14
 11645 42ba 40E0      		ldi r20,lo8(0)
 11646 42bc 50E0      		ldi r21,hi8(0)
 11647 42be 60E0      		ldi r22,hlo8(0)
 11648 42c0 70E0      		ldi r23,hhi8(0)
 11649 42c2 0E94 0000 		call move_window
 11650               	.LVL1015:
 11651 42c6 182F      		mov r17,r24
 11652               	.LM1110:
 11653 42c8 8823      		tst r24
 11654 42ca 01F0      		breq .+2
 11655 42cc 00C0      		rjmp .L702
 11656               	.LVL1016:
 11657               	.LM1111:
 11658 42ce 0D85      		ldd r16,Y+13
 11659 42d0 1E85      		ldd r17,Y+14
 11660               	.LBB617:
 11661               	.LBB618:
 11662               	.LM1112:
 11663 42d2 2EEF      		ldi r18,lo8(-2)
 11664 42d4 C22E      		mov r12,r18
 11665 42d6 2FEF      		ldi r18,hi8(-2)
 11666 42d8 D22E      		mov r13,r18
 11667 42da 2FEF      		ldi r18,hlo8(-2)
 11668 42dc E22E      		mov r14,r18
 11669 42de 2FEF      		ldi r18,hhi8(-2)
 11670 42e0 F22E      		mov r15,r18
 11671               	.LVL1017:
 11672 42e2 C80C      		add r12,r8
 11673 42e4 D91C      		adc r13,r9
 11674 42e6 EA1C      		adc r14,r10
 11675 42e8 FB1C      		adc r15,r11
 11676               	.LM1113:
 11677 42ea F801      		movw r30,r16
 11678 42ec 828D      		ldd r24,Z+26
 11679 42ee 938D      		ldd r25,Z+27
 11680 42f0 A48D      		ldd r26,Z+28
 11681 42f2 B58D      		ldd r27,Z+29
 11682               	.LVL1018:
 11683 42f4 0297      		sbiw r24,2
 11684 42f6 A109      		sbc r26,__zero_reg__
 11685 42f8 B109      		sbc r27,__zero_reg__
 11686 42fa C816      		cp r12,r24
 11687 42fc D906      		cpc r13,r25
 11688 42fe EA06      		cpc r14,r26
 11689 4300 FB06      		cpc r15,r27
 11690 4302 00F0      		brlo .L707
 11691 4304 4424      		clr r4
 11692 4306 5524      		clr r5
 11693 4308 3201      		movw r6,r4
 11694               	.LVL1019:
 11695 430a 00C0      		rjmp .L708
 11696               	.LVL1020:
 11697               	.L707:
 11698               	.LM1114:
 11699 430c F801      		movw r30,r16
 11700 430e 2281      		ldd r18,Z+2
 11701 4310 30E0      		ldi r19,lo8(0)
 11702 4312 40E0      		ldi r20,lo8(0)
 11703 4314 50E0      		ldi r21,hi8(0)
 11704 4316 C701      		movw r24,r14
 11705 4318 B601      		movw r22,r12
 11706 431a 0E94 0000 		call __mulsi3
 11707 431e 2B01      		movw r4,r22
 11708 4320 3C01      		movw r6,r24
 11709               	.LVL1021:
 11710 4322 F801      		movw r30,r16
 11711 4324 86A1      		ldd r24,Z+38
 11712 4326 97A1      		ldd r25,Z+39
 11713 4328 A0A5      		ldd r26,Z+40
 11714 432a B1A5      		ldd r27,Z+41
 11715 432c 480E      		add r4,r24
 11716 432e 591E      		adc r5,r25
 11717 4330 6A1E      		adc r6,r26
 11718 4332 7B1E      		adc r7,r27
 11719               	.L708:
 11720               	.LBE618:
 11721               	.LBE617:
 11722               	.LM1115:
 11723 4334 9EE2      		ldi r25,lo8(46)
 11724 4336 292E      		mov r2,r25
 11725 4338 312C      		mov r3,__zero_reg__
 11726               	.LVL1022:
 11727 433a 200E      		add r2,r16
 11728 433c 311E      		adc r3,r17
 11729 433e F101      		movw r30,r2
 11730 4340 80E0      		ldi r24,lo8(512)
 11731 4342 92E0      		ldi r25,hi8(512)
 11732               	.LVL1023:
 11733 4344 00C0      		rjmp .L709
 11734               	.LVL1024:
 11735               	.L710:
 11736               	.LBB619:
 11737               	.LBB620:
 11738               	.LM1116:
 11739 4346 1192      		st Z+,__zero_reg__
 11740               	.L709:
 11741 4348 0197      		sbiw r24,1
 11742 434a 2FEF      		ldi r18,hi8(-1)
 11743 434c 8F3F      		cpi r24,lo8(-1)
 11744 434e 9207      		cpc r25,r18
 11745 4350 01F4      		brne .L710
 11746 4352 F101      		movw r30,r2
 11747 4354 8BE0      		ldi r24,lo8(11)
 11748 4356 90E0      		ldi r25,hi8(11)
 11749               	.LVL1025:
 11750               	.LBE620:
 11751               	.LBE619:
 11752               	.LBB621:
 11753               	.LBB622:
 11754 4358 20E2      		ldi r18,lo8(32)
 11755 435a 00C0      		rjmp .L711
 11756               	.L712:
 11757 435c 2193      		st Z+,r18
 11758               	.L711:
 11759 435e 0197      		sbiw r24,1
 11760 4360 3FEF      		ldi r19,hi8(-1)
 11761 4362 8F3F      		cpi r24,lo8(-1)
 11762 4364 9307      		cpc r25,r19
 11763 4366 01F4      		brne .L712
 11764               	.LBE622:
 11765               	.LBE621:
 11766               	.LM1117:
 11767 4368 8EE2      		ldi r24,lo8(46)
 11768               	.LVL1026:
 11769 436a F801      		movw r30,r16
 11770               	.LVL1027:
 11771 436c 86A7      		std Z+46,r24
 11772               	.LM1118:
 11773 436e 80E1      		ldi r24,lo8(16)
 11774 4370 81AF      		std Z+57,r24
 11775               	.LM1119:
 11776 4372 0C5B      		subi r16,lo8(-(68))
 11777 4374 1F4F      		sbci r17,hi8(-(68))
 11778 4376 F801      		movw r30,r16
 11779 4378 1192      		st Z+,__zero_reg__
 11780 437a 1192      		st Z+,__zero_reg__
 11781 437c 1192      		st Z+,__zero_reg__
 11782 437e 1192      		st Z+,__zero_reg__
 11783               	.LM1120:
 11784 4380 88A6      		std Y+40,r8
 11785 4382 8192      		st Z+,r8
 11786 4384 8F01      		movw r16,r30
 11787 4386 892D      		mov r24,r9
 11788 4388 9927      		clr r25
 11789 438a 8FA3      		std Y+39,r24
 11790 438c 8083      		st Z,r24
 11791               	.LM1121:
 11792 438e C501      		movw r24,r10
 11793 4390 AA27      		clr r26
 11794 4392 BB27      		clr r27
 11795 4394 8EA3      		std Y+38,r24
 11796 4396 0750      		subi r16,lo8(-(-7))
 11797 4398 1040      		sbci r17,hi8(-(-7))
 11798 439a F801      		movw r30,r16
 11799 439c 8193      		st Z+,r24
 11800 439e 8F01      		movw r16,r30
 11801 43a0 892F      		mov r24,r25
 11802 43a2 9927      		clr r25
 11803 43a4 8DA3      		std Y+37,r24
 11804 43a6 8083      		st Z,r24
 11805 43a8 0354      		subi r16,lo8(-(-67))
 11806 43aa 1040      		sbci r17,hi8(-(-67))
 11807 43ac F101      		movw r30,r2
 11808               	.LVL1028:
 11809 43ae 20E2      		ldi r18,lo8(32)
 11810 43b0 30E0      		ldi r19,hi8(32)
 11811               	.LVL1029:
 11812 43b2 00C0      		rjmp .L713
 11813               	.L714:
 11814               	.LBB623:
 11815               	.LBB624:
 11816               	.LM1122:
 11817 43b4 8081      		ld r24,Z
 11818 43b6 80A3      		std Z+32,r24
 11819 43b8 3196      		adiw r30,1
 11820               	.L713:
 11821 43ba 2150      		subi r18,lo8(-(-1))
 11822 43bc 3040      		sbci r19,hi8(-(-1))
 11823 43be 8FEF      		ldi r24,hi8(-1)
 11824 43c0 2F3F      		cpi r18,lo8(-1)
 11825 43c2 3807      		cpc r19,r24
 11826 43c4 01F4      		brne .L714
 11827               	.LBE624:
 11828               	.LBE623:
 11829               	.LM1123:
 11830 43c6 015B      		subi r16,lo8(-(79))
 11831 43c8 1F4F      		sbci r17,hi8(-(79))
 11832 43ca 8EE2      		ldi r24,lo8(46)
 11833 43cc F801      		movw r30,r16
 11834               	.LVL1030:
 11835 43ce 8083      		st Z,r24
 11836 43d0 0F54      		subi r16,lo8(-(-79))
 11837 43d2 1040      		sbci r17,hi8(-(-79))
 11838               	.LM1124:
 11839 43d4 2B89      		ldd r18,Y+19
 11840 43d6 3C89      		ldd r19,Y+20
 11841 43d8 4D89      		ldd r20,Y+21
 11842 43da 5E89      		ldd r21,Y+22
 11843               	.LVL1031:
 11844               	.LM1125:
 11845 43dc ED85      		ldd r30,Y+13
 11846 43de FE85      		ldd r31,Y+14
 11847 43e0 8081      		ld r24,Z
 11848 43e2 8330      		cpi r24,lo8(3)
 11849 43e4 01F4      		brne .L715
 11850 43e6 82A1      		ldd r24,Z+34
 11851 43e8 93A1      		ldd r25,Z+35
 11852 43ea A4A1      		ldd r26,Z+36
 11853 43ec B5A1      		ldd r27,Z+37
 11854 43ee 2817      		cp r18,r24
 11855 43f0 3907      		cpc r19,r25
 11856 43f2 4A07      		cpc r20,r26
 11857 43f4 5B07      		cpc r21,r27
 11858 43f6 01F4      		brne .L715
 11859 43f8 20E0      		ldi r18,lo8(0)
 11860 43fa 30E0      		ldi r19,hi8(0)
 11861 43fc 40E0      		ldi r20,hlo8(0)
 11862 43fe 50E0      		ldi r21,hhi8(0)
 11863               	.L715:
 11864               	.LM1126:
 11865 4400 0859      		subi r16,lo8(-(104))
 11866 4402 1F4F      		sbci r17,hi8(-(104))
 11867 4404 F801      		movw r30,r16
 11868 4406 2193      		st Z+,r18
 11869 4408 8F01      		movw r16,r30
 11870 440a 832F      		mov r24,r19
 11871 440c 9927      		clr r25
 11872 440e 8083      		st Z,r24
 11873               	.LM1127:
 11874 4410 CA01      		movw r24,r20
 11875 4412 AA27      		clr r26
 11876 4414 BB27      		clr r27
 11877 4416 0750      		subi r16,lo8(-(-7))
 11878 4418 1040      		sbci r17,hi8(-(-7))
 11879 441a F801      		movw r30,r16
 11880 441c 8193      		st Z+,r24
 11881 441e 892F      		mov r24,r25
 11882 4420 9927      		clr r25
 11883 4422 8083      		st Z,r24
 11884 4424 7301      		movw r14,r6
 11885 4426 6201      		movw r12,r4
 11886               	.LVL1032:
 11887               	.LM1128:
 11888 4428 01E0      		ldi r16,lo8(1)
 11889 442a 00C0      		rjmp .L716
 11890               	.LVL1033:
 11891               	.L719:
 11892               	.LM1129:
 11893 442c C2A6      		std Z+42,r12
 11894 442e D3A6      		std Z+43,r13
 11895 4430 E4A6      		std Z+44,r14
 11896 4432 F5A6      		std Z+45,r15
 11897               	.LM1130:
 11898 4434 0483      		std Z+4,r16
 11899               	.LM1131:
 11900 4436 CF01      		movw r24,r30
 11901 4438 40E0      		ldi r20,lo8(0)
 11902 443a 50E0      		ldi r21,hi8(0)
 11903 443c 60E0      		ldi r22,hlo8(0)
 11904 443e 70E0      		ldi r23,hhi8(0)
 11905 4440 0E94 0000 		call move_window
 11906               	.LVL1034:
 11907 4444 182F      		mov r17,r24
 11908               	.LM1132:
 11909 4446 8823      		tst r24
 11910 4448 01F4      		brne .L702
 11911               	.LVL1035:
 11912 444a F101      		movw r30,r2
 11913 444c 80E0      		ldi r24,lo8(512)
 11914 444e 92E0      		ldi r25,hi8(512)
 11915               	.LVL1036:
 11916 4450 00C0      		rjmp .L717
 11917               	.LVL1037:
 11918               	.L718:
 11919               	.LBB625:
 11920               	.LBB626:
 11921               	.LM1133:
 11922 4452 1192      		st Z+,__zero_reg__
 11923               	.L717:
 11924 4454 0197      		sbiw r24,1
 11925 4456 2FEF      		ldi r18,hi8(-1)
 11926 4458 8F3F      		cpi r24,lo8(-1)
 11927 445a 9207      		cpc r25,r18
 11928 445c 01F4      		brne .L718
 11929               	.LBE626:
 11930               	.LBE625:
 11931               	.LM1134:
 11932 445e 0894      		sec
 11933 4460 C11C      		adc r12,__zero_reg__
 11934 4462 D11C      		adc r13,__zero_reg__
 11935 4464 E11C      		adc r14,__zero_reg__
 11936 4466 F11C      		adc r15,__zero_reg__
 11937               	.LVL1038:
 11938               	.L716:
 11939               	.LM1135:
 11940 4468 ED85      		ldd r30,Y+13
 11941 446a FE85      		ldd r31,Y+14
 11942 446c 9C2D      		mov r25,r12
 11943               	.LVL1039:
 11944 446e 9419      		sub r25,r4
 11945 4470 8281      		ldd r24,Z+2
 11946               	.LVL1040:
 11947 4472 9817      		cp r25,r24
 11948 4474 00F0      		brlo .L719
 11949               	.LM1136:
 11950 4476 CE01      		movw r24,r28
 11951 4478 0D96      		adiw r24,13
 11952 447a 0E94 0000 		call dir_register
 11953               	.LVL1041:
 11954 447e 182F      		mov r17,r24
 11955               	.LM1137:
 11956 4480 8823      		tst r24
 11957 4482 01F0      		breq .L720
 11958               	.LVL1042:
 11959               	.LM1138:
 11960 4484 8D85      		ldd r24,Y+13
 11961 4486 9E85      		ldd r25,Y+14
 11962               	.LVL1043:
 11963 4488 B501      		movw r22,r10
 11964 448a A401      		movw r20,r8
 11965 448c 0E94 0000 		call remove_chain
 11966 4490 00C0      		rjmp .L702
 11967               	.LVL1044:
 11968               	.L720:
 11969               	.LM1139:
 11970 4492 EF8D      		ldd r30,Y+31
 11971 4494 F8A1      		ldd r31,Y+32
 11972               	.LVL1045:
 11973               	.LM1140:
 11974 4496 80E1      		ldi r24,lo8(16)
 11975               	.LVL1046:
 11976 4498 8387      		std Z+11,r24
 11977               	.LM1141:
 11978 449a 168A      		std Z+22,__zero_reg__
 11979 449c 178A      		std Z+23,__zero_reg__
 11980 449e 108E      		std Z+24,__zero_reg__
 11981 44a0 118E      		std Z+25,__zero_reg__
 11982               	.LM1142:
 11983 44a2 38A5      		ldd r19,Y+40
 11984 44a4 328F      		std Z+26,r19
 11985 44a6 8FA1      		ldd r24,Y+39
 11986 44a8 838F      		std Z+27,r24
 11987               	.LM1143:
 11988 44aa 2EA1      		ldd r18,Y+38
 11989 44ac 248B      		std Z+20,r18
 11990 44ae 3DA1      		ldd r19,Y+37
 11991 44b0 358B      		std Z+21,r19
 11992               	.LM1144:
 11993 44b2 ED85      		ldd r30,Y+13
 11994 44b4 FE85      		ldd r31,Y+14
 11995               	.LVL1047:
 11996 44b6 81E0      		ldi r24,lo8(1)
 11997 44b8 8483      		std Z+4,r24
 11998               	.LM1145:
 11999 44ba CF01      		movw r24,r30
 12000 44bc 0E94 0000 		call sync
 12001 44c0 182F      		mov r17,r24
 12002               	.LVL1048:
 12003               	.L702:
 12004               	.LM1146:
 12005 44c2 812F      		mov r24,r17
 12006               	/* epilogue start */
 12007 44c4 A896      		adiw r28,40
 12008 44c6 CDBF      		out __SP_L__,r28
 12009 44c8 DEBF      		out __SP_H__,r29
 12010 44ca CF91      		pop r28
 12011 44cc DF91      		pop r29
 12012 44ce 1F91      		pop r17
 12013               	.LVL1049:
 12014 44d0 0F91      		pop r16
 12015 44d2 FF90      		pop r15
 12016 44d4 EF90      		pop r14
 12017 44d6 DF90      		pop r13
 12018 44d8 CF90      		pop r12
 12019 44da BF90      		pop r11
 12020 44dc AF90      		pop r10
 12021 44de 9F90      		pop r9
 12022 44e0 8F90      		pop r8
 12023               	.LVL1050:
 12024 44e2 7F90      		pop r7
 12025 44e4 6F90      		pop r6
 12026 44e6 5F90      		pop r5
 12027 44e8 4F90      		pop r4
 12028               	.LVL1051:
 12029 44ea 3F90      		pop r3
 12030 44ec 2F90      		pop r2
 12031               	.LVL1052:
 12032 44ee 0895      		ret
 12033               	.LVL1053:
 12034               	.L706:
 12035               	.LM1147:
 12036 44f0 11E0      		ldi r17,lo8(1)
 12037 44f2 00C0      		rjmp .L702
 12038               	.LFE78:
 12040               	.global	f_chmod
 12042               	f_chmod:
 12043               	.LFB79:
 12044               	.LM1148:
 12045               	.LVL1054:
 12046 44f4 EF92      		push r14
 12047 44f6 FF92      		push r15
 12048 44f8 0F93      		push r16
 12049 44fa 1F93      		push r17
 12050 44fc DF93      		push r29
 12051 44fe CF93      		push r28
 12052 4500 CDB7      		in r28,__SP_L__
 12053 4502 DEB7      		in r29,__SP_H__
 12054 4504 A497      		sbiw r28,36
 12055 4506 CDBF      		out __SP_L__,r28
 12056 4508 DEBF      		out __SP_H__,r29
 12057               	/* prologue: function */
 12058               	/* frame size = 36 */
 12059 450a 8BA3      		std Y+35,r24
 12060 450c 9CA3      		std Y+36,r25
 12061 450e E62E      		mov r14,r22
 12062 4510 F42E      		mov r15,r20
 12063               	.LM1149:
 12064 4512 8E01      		movw r16,r28
 12065 4514 035F      		subi r16,lo8(-(13))
 12066 4516 1F4F      		sbci r17,hi8(-(13))
 12067 4518 CE01      		movw r24,r28
 12068               	.LVL1055:
 12069 451a 8396      		adiw r24,35
 12070 451c B801      		movw r22,r16
 12071               	.LVL1056:
 12072 451e 41E0      		ldi r20,lo8(1)
 12073               	.LVL1057:
 12074 4520 0E94 0000 		call chk_mounted
 12075               	.LM1150:
 12076 4524 8823      		tst r24
 12077               	.LVL1058:
 12078 4526 01F4      		brne .L723
 12079               	.LM1151:
 12080 4528 CE01      		movw r24,r28
 12081               	.LVL1059:
 12082 452a 0196      		adiw r24,1
 12083 452c 89A3      		std Y+33,r24
 12084 452e 9AA3      		std Y+34,r25
 12085               	.LM1152:
 12086 4530 6BA1      		ldd r22,Y+35
 12087 4532 7CA1      		ldd r23,Y+36
 12088 4534 C801      		movw r24,r16
 12089 4536 0E94 0000 		call follow_path
 12090               	.LM1153:
 12091 453a 8823      		tst r24
 12092               	.LVL1060:
 12093 453c 01F4      		brne .L723
 12094               	.LM1154:
 12095 453e EF8D      		ldd r30,Y+31
 12096 4540 F8A1      		ldd r31,Y+32
 12097               	.LVL1061:
 12098               	.LM1155:
 12099 4542 3097      		sbiw r30,0
 12100 4544 01F4      		brne .L724
 12101 4546 86E0      		ldi r24,lo8(6)
 12102 4548 00C0      		rjmp .L723
 12103               	.L724:
 12104               	.LM1156:
 12105 454a 9F2D      		mov r25,r15
 12106 454c 9772      		andi r25,lo8(39)
 12107               	.LVL1062:
 12108               	.LM1157:
 12109 454e 892F      		mov r24,r25
 12110               	.LVL1063:
 12111 4550 8095      		com r24
 12112 4552 2385      		ldd r18,Z+11
 12113 4554 8223      		and r24,r18
 12114 4556 9E21      		and r25,r14
 12115 4558 892B      		or r24,r25
 12116 455a 8387      		std Z+11,r24
 12117               	.LM1158:
 12118 455c ED85      		ldd r30,Y+13
 12119 455e FE85      		ldd r31,Y+14
 12120               	.LVL1064:
 12121 4560 81E0      		ldi r24,lo8(1)
 12122 4562 8483      		std Z+4,r24
 12123               	.LM1159:
 12124 4564 CF01      		movw r24,r30
 12125 4566 0E94 0000 		call sync
 12126               	.LVL1065:
 12127               	.L723:
 12128               	.LVL1066:
 12129               	/* epilogue start */
 12130               	.LM1160:
 12131 456a A496      		adiw r28,36
 12132 456c CDBF      		out __SP_L__,r28
 12133 456e DEBF      		out __SP_H__,r29
 12134 4570 CF91      		pop r28
 12135 4572 DF91      		pop r29
 12136 4574 1F91      		pop r17
 12137 4576 0F91      		pop r16
 12138 4578 FF90      		pop r15
 12139               	.LVL1067:
 12140 457a EF90      		pop r14
 12141               	.LVL1068:
 12142 457c 0895      		ret
 12143               	.LFE79:
 12145               	.global	f_utime
 12147               	f_utime:
 12148               	.LFB80:
 12149               	.LM1161:
 12150               	.LVL1069:
 12151 457e EF92      		push r14
 12152 4580 FF92      		push r15
 12153 4582 0F93      		push r16
 12154 4584 1F93      		push r17
 12155 4586 DF93      		push r29
 12156 4588 CF93      		push r28
 12157 458a CDB7      		in r28,__SP_L__
 12158 458c DEB7      		in r29,__SP_H__
 12159 458e A497      		sbiw r28,36
 12160 4590 CDBF      		out __SP_L__,r28
 12161 4592 DEBF      		out __SP_H__,r29
 12162               	/* prologue: function */
 12163               	/* frame size = 36 */
 12164 4594 8BA3      		std Y+35,r24
 12165 4596 9CA3      		std Y+36,r25
 12166 4598 8B01      		movw r16,r22
 12167               	.LM1162:
 12168 459a 4DE0      		ldi r20,lo8(13)
 12169 459c E42E      		mov r14,r20
 12170 459e F12C      		mov r15,__zero_reg__
 12171 45a0 EC0E      		add r14,r28
 12172 45a2 FD1E      		adc r15,r29
 12173 45a4 CE01      		movw r24,r28
 12174               	.LVL1070:
 12175 45a6 8396      		adiw r24,35
 12176 45a8 B701      		movw r22,r14
 12177               	.LVL1071:
 12178 45aa 41E0      		ldi r20,lo8(1)
 12179 45ac 0E94 0000 		call chk_mounted
 12180               	.LM1163:
 12181 45b0 8823      		tst r24
 12182               	.LVL1072:
 12183 45b2 01F4      		brne .L727
 12184               	.LM1164:
 12185 45b4 CE01      		movw r24,r28
 12186               	.LVL1073:
 12187 45b6 0196      		adiw r24,1
 12188 45b8 89A3      		std Y+33,r24
 12189 45ba 9AA3      		std Y+34,r25
 12190               	.LM1165:
 12191 45bc 6BA1      		ldd r22,Y+35
 12192 45be 7CA1      		ldd r23,Y+36
 12193 45c0 C701      		movw r24,r14
 12194 45c2 0E94 0000 		call follow_path
 12195               	.LM1166:
 12196 45c6 8823      		tst r24
 12197               	.LVL1074:
 12198 45c8 01F4      		brne .L727
 12199               	.LM1167:
 12200 45ca EF8D      		ldd r30,Y+31
 12201 45cc F8A1      		ldd r31,Y+32
 12202               	.LVL1075:
 12203               	.LM1168:
 12204 45ce 3097      		sbiw r30,0
 12205 45d0 01F4      		brne .L728
 12206 45d2 86E0      		ldi r24,lo8(6)
 12207 45d4 00C0      		rjmp .L727
 12208               	.L728:
 12209               	.LM1169:
 12210 45d6 D801      		movw r26,r16
 12211 45d8 1696      		adiw r26,6
 12212 45da 8C91      		ld r24,X
 12213 45dc 1697      		sbiw r26,6
 12214               	.LVL1076:
 12215 45de 868B      		std Z+22,r24
 12216 45e0 1796      		adiw r26,7
 12217 45e2 8C91      		ld r24,X
 12218 45e4 1797      		sbiw r26,7
 12219 45e6 878B      		std Z+23,r24
 12220               	.LM1170:
 12221 45e8 1496      		adiw r26,4
 12222 45ea 8C91      		ld r24,X
 12223 45ec 1497      		sbiw r26,4
 12224 45ee 808F      		std Z+24,r24
 12225 45f0 1596      		adiw r26,5
 12226 45f2 8C91      		ld r24,X
 12227 45f4 818F      		std Z+25,r24
 12228               	.LM1171:
 12229 45f6 ED85      		ldd r30,Y+13
 12230 45f8 FE85      		ldd r31,Y+14
 12231               	.LVL1077:
 12232 45fa 81E0      		ldi r24,lo8(1)
 12233 45fc 8483      		std Z+4,r24
 12234               	.LM1172:
 12235 45fe CF01      		movw r24,r30
 12236 4600 0E94 0000 		call sync
 12237               	.LVL1078:
 12238               	.L727:
 12239               	.LVL1079:
 12240               	/* epilogue start */
 12241               	.LM1173:
 12242 4604 A496      		adiw r28,36
 12243 4606 CDBF      		out __SP_L__,r28
 12244 4608 DEBF      		out __SP_H__,r29
 12245 460a CF91      		pop r28
 12246 460c DF91      		pop r29
 12247 460e 1F91      		pop r17
 12248 4610 0F91      		pop r16
 12249               	.LVL1080:
 12250 4612 FF90      		pop r15
 12251 4614 EF90      		pop r14
 12252 4616 0895      		ret
 12253               	.LFE80:
 12255               	.global	f_rename
 12257               	f_rename:
 12258               	.LFB81:
 12259               	.LM1174:
 12260               	.LVL1081:
 12261 4618 CF92      		push r12
 12262 461a DF92      		push r13
 12263 461c EF92      		push r14
 12264 461e FF92      		push r15
 12265 4620 0F93      		push r16
 12266 4622 1F93      		push r17
 12267 4624 DF93      		push r29
 12268 4626 CF93      		push r28
 12269 4628 CDB7      		in r28,__SP_L__
 12270 462a DEB7      		in r29,__SP_H__
 12271 462c CF54      		subi r28,lo8(-(-79))
 12272 462e D040      		sbci r29,hi8(-(-79))
 12273 4630 CDBF      		out __SP_L__,r28
 12274 4632 DEBF      		out __SP_H__,r29
 12275               	/* prologue: function */
 12276               	/* frame size = 79 */
 12277 4634 8E01      		movw r16,r28
 12278 4636 025B      		subi r16,lo8(-(78))
 12279 4638 1F4F      		sbci r17,hi8(-(78))
 12280 463a D801      		movw r26,r16
 12281 463c 8D93      		st X+,r24
 12282 463e 9C93      		st X,r25
 12283 4640 6B01      		movw r12,r22
 12284               	.LM1175:
 12285 4642 CE01      		movw r24,r28
 12286               	.LVL1082:
 12287 4644 0196      		adiw r24,1
 12288 4646 8EAB      		std Y+54,r24
 12289 4648 9FAB      		std Y+55,r25
 12290               	.LM1176:
 12291 464a A2E2      		ldi r26,lo8(34)
 12292 464c EA2E      		mov r14,r26
 12293 464e F12C      		mov r15,__zero_reg__
 12294 4650 EC0E      		add r14,r28
 12295 4652 FD1E      		adc r15,r29
 12296 4654 C801      		movw r24,r16
 12297 4656 B701      		movw r22,r14
 12298               	.LVL1083:
 12299 4658 41E0      		ldi r20,lo8(1)
 12300 465a 0E94 0000 		call chk_mounted
 12301               	.LM1177:
 12302 465e 8823      		tst r24
 12303               	.LVL1084:
 12304 4660 01F0      		breq .+2
 12305 4662 00C0      		rjmp .L731
 12306               	.LM1178:
 12307 4664 8AA1      		ldd r24,Y+34
 12308 4666 9BA1      		ldd r25,Y+35
 12309               	.LVL1085:
 12310 4668 88AF      		std Y+56,r24
 12311 466a 99AF      		std Y+57,r25
 12312               	.LM1179:
 12313 466c F801      		movw r30,r16
 12314 466e 6081      		ld r22,Z
 12315 4670 7181      		ldd r23,Z+1
 12316 4672 C701      		movw r24,r14
 12317 4674 0E94 0000 		call follow_path
 12318               	.LM1180:
 12319 4678 8823      		tst r24
 12320               	.LVL1086:
 12321 467a 01F0      		breq .+2
 12322 467c 00C0      		rjmp .L731
 12323               	.LVL1087:
 12324               	.LM1181:
 12325 467e 8CA9      		ldd r24,Y+52
 12326 4680 9DA9      		ldd r25,Y+53
 12327               	.LVL1088:
 12328 4682 0097      		sbiw r24,0
 12329 4684 01F4      		brne .L732
 12330 4686 84E0      		ldi r24,lo8(4)
 12331               	.LVL1089:
 12332 4688 00C0      		rjmp .L731
 12333               	.LVL1090:
 12334               	.L732:
 12335 468a DC01      		movw r26,r24
 12336 468c FE01      		movw r30,r28
 12337               	.LVL1091:
 12338 468e 3D96      		adiw r30,13
 12339 4690 00C0      		rjmp .L733
 12340               	.L734:
 12341               	.LBB627:
 12342               	.LBB628:
 12343               	.LM1182:
 12344 4692 1A96      		adiw r26,10
 12345 4694 8C91      		ld r24,X
 12346 4696 1A97      		sbiw r26,10
 12347 4698 8193      		st Z+,r24
 12348               	.L733:
 12349 469a 1196      		adiw r26,1
 12350 469c EE15      		cp r30,r14
 12351 469e FF05      		cpc r31,r15
 12352 46a0 01F4      		brne .L734
 12353               	.LBE628:
 12354               	.LBE627:
 12355               	.LBB629:
 12356               	.LBB630:
 12357               	.LM1183:
 12358 46a2 DE01      		movw r26,r28
 12359               	.LVL1092:
 12360 46a4 D896      		adiw r26,56
 12361               	.LM1184:
 12362 46a6 F701      		movw r30,r14
 12363               	.LVL1093:
 12364               	.LM1185:
 12365 46a8 9D01      		movw r18,r26
 12366 46aa 00C0      		rjmp .L735
 12367               	.L736:
 12368 46ac 8191      		ld r24,Z+
 12369 46ae 8D93      		st X+,r24
 12370               	.L735:
 12371 46b0 E217      		cp r30,r18
 12372 46b2 F307      		cpc r31,r19
 12373 46b4 01F4      		brne .L736
 12374               	.LBE630:
 12375               	.LBE629:
 12376               	.LM1186:
 12377 46b6 8E01      		movw r16,r28
 12378 46b8 085C      		subi r16,lo8(-(56))
 12379 46ba 1F4F      		sbci r17,hi8(-(56))
 12380 46bc C801      		movw r24,r16
 12381 46be B601      		movw r22,r12
 12382 46c0 0E94 0000 		call follow_path
 12383               	.LVL1094:
 12384               	.LM1187:
 12385 46c4 8823      		tst r24
 12386               	.LVL1095:
 12387 46c6 01F4      		brne .L737
 12388 46c8 88E0      		ldi r24,lo8(8)
 12389 46ca 00C0      		rjmp .L731
 12390               	.L737:
 12391               	.LM1188:
 12392 46cc 8430      		cpi r24,lo8(4)
 12393 46ce 01F0      		breq .+2
 12394 46d0 00C0      		rjmp .L731
 12395               	.LM1189:
 12396 46d2 C801      		movw r24,r16
 12397               	.LVL1096:
 12398 46d4 0E94 0000 		call dir_register
 12399               	.LM1190:
 12400 46d8 8823      		tst r24
 12401               	.LVL1097:
 12402 46da 01F0      		breq .+2
 12403 46dc 00C0      		rjmp .L731
 12404               	.LM1191:
 12405 46de FE01      		movw r30,r28
 12406 46e0 E65B      		subi r30,lo8(-(74))
 12407 46e2 FF4F      		sbci r31,hi8(-(74))
 12408 46e4 4081      		ld r20,Z
 12409 46e6 5181      		ldd r21,Z+1
 12410               	.LVL1098:
 12411 46e8 DA01      		movw r26,r20
 12412 46ea FE01      		movw r30,r28
 12413               	.LVL1099:
 12414 46ec 3F96      		adiw r30,15
 12415 46ee 00C0      		rjmp .L738
 12416               	.L739:
 12417               	.LBB631:
 12418               	.LBB632:
 12419               	.LM1192:
 12420 46f0 8191      		ld r24,Z+
 12421               	.LVL1100:
 12422 46f2 1C96      		adiw r26,12
 12423 46f4 8C93      		st X,r24
 12424 46f6 1C97      		sbiw r26,12
 12425               	.LVL1101:
 12426               	.L738:
 12427 46f8 1196      		adiw r26,1
 12428 46fa EE15      		cp r30,r14
 12429 46fc FF05      		cpc r31,r15
 12430 46fe 01F4      		brne .L739
 12431               	.LBE632:
 12432               	.LBE631:
 12433               	.LM1193:
 12434 4700 8D85      		ldd r24,Y+13
 12435               	.LVL1102:
 12436 4702 8062      		ori r24,lo8(32)
 12437 4704 DA01      		movw r26,r20
 12438 4706 1B96      		adiw r26,11
 12439 4708 8C93      		st X,r24
 12440 470a 1B97      		sbiw r26,11
 12441               	.LM1194:
 12442 470c EAA1      		ldd r30,Y+34
 12443 470e FBA1      		ldd r31,Y+35
 12444               	.LVL1103:
 12445 4710 81E0      		ldi r24,lo8(1)
 12446 4712 8483      		std Z+4,r24
 12447               	.LM1195:
 12448 4714 1B96      		adiw r26,11
 12449 4716 8C91      		ld r24,X
 12450 4718 1B97      		sbiw r26,11
 12451 471a 84FF      		sbrs r24,4
 12452 471c 00C0      		rjmp .L740
 12453               	.LM1196:
 12454 471e C8AC      		ldd r12,Y+56
 12455 4720 D9AC      		ldd r13,Y+57
 12456               	.LVL1104:
 12457               	.LBB633:
 12458               	.LBB634:
 12459               	.LM1197:
 12460 4722 5A96      		adiw r26,26
 12461 4724 2C91      		ld r18,X
 12462 4726 5A97      		sbiw r26,26
 12463 4728 30E0      		ldi r19,lo8(0)
 12464 472a 5496      		adiw r26,20
 12465 472c 8C91      		ld r24,X
 12466 472e 5497      		sbiw r26,20
 12467 4730 90E0      		ldi r25,lo8(0)
 12468 4732 282B      		or r18,r24
 12469 4734 392B      		or r19,r25
 12470 4736 5596      		adiw r26,21
 12471 4738 9C91      		ld r25,X
 12472 473a 5597      		sbiw r26,21
 12473 473c 80E0      		ldi r24,lo8(0)
 12474 473e 282B      		or r18,r24
 12475 4740 392B      		or r19,r25
 12476 4742 5B96      		adiw r26,27
 12477 4744 9C91      		ld r25,X
 12478 4746 80E0      		ldi r24,lo8(0)
 12479 4748 282B      		or r18,r24
 12480 474a 392B      		or r19,r25
 12481 474c 7901      		movw r14,r18
 12482               	.LVL1105:
 12483 474e 00E0      		ldi r16,lo8(0)
 12484 4750 10E0      		ldi r17,hi8(0)
 12485               	.LVL1106:
 12486 4752 8EEF      		ldi r24,lo8(-2)
 12487 4754 9FEF      		ldi r25,hi8(-2)
 12488 4756 AFEF      		ldi r26,hlo8(-2)
 12489 4758 BFEF      		ldi r27,hhi8(-2)
 12490 475a E80E      		add r14,r24
 12491 475c F91E      		adc r15,r25
 12492 475e 0A1F      		adc r16,r26
 12493 4760 1B1F      		adc r17,r27
 12494               	.LVL1107:
 12495               	.LM1198:
 12496 4762 F601      		movw r30,r12
 12497 4764 828D      		ldd r24,Z+26
 12498 4766 938D      		ldd r25,Z+27
 12499 4768 A48D      		ldd r26,Z+28
 12500 476a B58D      		ldd r27,Z+29
 12501 476c 0297      		sbiw r24,2
 12502 476e A109      		sbc r26,__zero_reg__
 12503 4770 B109      		sbc r27,__zero_reg__
 12504 4772 E816      		cp r14,r24
 12505 4774 F906      		cpc r15,r25
 12506 4776 0A07      		cpc r16,r26
 12507 4778 1B07      		cpc r17,r27
 12508 477a 00F0      		brlo .+2
 12509 477c 00C0      		rjmp .L741
 12510               	.LM1199:
 12511 477e 2281      		ldd r18,Z+2
 12512 4780 30E0      		ldi r19,lo8(0)
 12513 4782 40E0      		ldi r20,lo8(0)
 12514 4784 50E0      		ldi r21,hi8(0)
 12515               	.LVL1108:
 12516 4786 C801      		movw r24,r16
 12517 4788 B701      		movw r22,r14
 12518 478a 0E94 0000 		call __mulsi3
 12519 478e AB01      		movw r20,r22
 12520 4790 BC01      		movw r22,r24
 12521               	.LVL1109:
 12522 4792 F601      		movw r30,r12
 12523 4794 86A1      		ldd r24,Z+38
 12524 4796 97A1      		ldd r25,Z+39
 12525 4798 A0A5      		ldd r26,Z+40
 12526 479a B1A5      		ldd r27,Z+41
 12527 479c 480F      		add r20,r24
 12528 479e 591F      		adc r21,r25
 12529 47a0 6A1F      		adc r22,r26
 12530 47a2 7B1F      		adc r23,r27
 12531               	.LBE634:
 12532               	.LBE633:
 12533               	.LM1200:
 12534 47a4 4115      		cp r20,__zero_reg__
 12535 47a6 5105      		cpc r21,__zero_reg__
 12536 47a8 6105      		cpc r22,__zero_reg__
 12537 47aa 7105      		cpc r23,__zero_reg__
 12538 47ac 01F4      		brne .+2
 12539 47ae 00C0      		rjmp .L741
 12540               	.LM1201:
 12541 47b0 C601      		movw r24,r12
 12542 47b2 0E94 0000 		call move_window
 12543               	.LVL1110:
 12544               	.LM1202:
 12545 47b6 A8AD      		ldd r26,Y+56
 12546 47b8 B9AD      		ldd r27,Y+57
 12547               	.LM1203:
 12548 47ba 8823      		tst r24
 12549               	.LVL1111:
 12550 47bc 01F0      		breq .+2
 12551 47be 00C0      		rjmp .L731
 12552               	.LM1204:
 12553 47c0 BD01      		movw r22,r26
 12554               	.LVL1112:
 12555 47c2 625B      		subi r22,lo8(-(78))
 12556 47c4 7F4F      		sbci r23,hi8(-(78))
 12557               	.LM1205:
 12558 47c6 FB01      		movw r30,r22
 12559 47c8 8181      		ldd r24,Z+1
 12560               	.LVL1113:
 12561 47ca 8E32      		cpi r24,lo8(46)
 12562 47cc 01F4      		brne .L740
 12563               	.LM1206:
 12564 47ce 8C91      		ld r24,X
 12565 47d0 8330      		cpi r24,lo8(3)
 12566 47d2 01F4      		brne .L742
 12567 47d4 FE01      		movw r30,r28
 12568 47d6 FE96      		adiw r30,62
 12569 47d8 2081      		ld r18,Z
 12570 47da 3181      		ldd r19,Z+1
 12571 47dc 4281      		ldd r20,Z+2
 12572 47de 5381      		ldd r21,Z+3
 12573 47e0 9296      		adiw r26,34
 12574 47e2 8D91      		ld r24,X+
 12575 47e4 9D91      		ld r25,X+
 12576 47e6 0D90      		ld __tmp_reg__,X+
 12577 47e8 BC91      		ld r27,X
 12578 47ea A02D      		mov r26,__tmp_reg__
 12579 47ec 2817      		cp r18,r24
 12580 47ee 3907      		cpc r19,r25
 12581 47f0 4A07      		cpc r20,r26
 12582 47f2 5B07      		cpc r21,r27
 12583 47f4 01F4      		brne .L742
 12584 47f6 20E0      		ldi r18,lo8(0)
 12585 47f8 30E0      		ldi r19,hi8(0)
 12586 47fa 40E0      		ldi r20,hlo8(0)
 12587 47fc 50E0      		ldi r21,hhi8(0)
 12588               	.LVL1114:
 12589 47fe 00C0      		rjmp .L743
 12590               	.LVL1115:
 12591               	.L742:
 12592 4800 FE01      		movw r30,r28
 12593 4802 FE96      		adiw r30,62
 12594 4804 2081      		ld r18,Z
 12595 4806 3181      		ldd r19,Z+1
 12596 4808 4281      		ldd r20,Z+2
 12597 480a 5381      		ldd r21,Z+3
 12598               	.LVL1116:
 12599               	.L743:
 12600               	.LM1207:
 12601 480c DB01      		movw r26,r22
 12602 480e 5A96      		adiw r26,26
 12603 4810 2C93      		st X,r18
 12604 4812 5A97      		sbiw r26,26
 12605 4814 832F      		mov r24,r19
 12606 4816 9927      		clr r25
 12607 4818 5B96      		adiw r26,27
 12608 481a 8C93      		st X,r24
 12609               	.LM1208:
 12610 481c CA01      		movw r24,r20
 12611 481e AA27      		clr r26
 12612 4820 BB27      		clr r27
 12613 4822 FB01      		movw r30,r22
 12614 4824 848B      		std Z+20,r24
 12615 4826 892F      		mov r24,r25
 12616 4828 9927      		clr r25
 12617 482a 858B      		std Z+21,r24
 12618               	.LM1209:
 12619 482c E8AD      		ldd r30,Y+56
 12620 482e F9AD      		ldd r31,Y+57
 12621 4830 81E0      		ldi r24,lo8(1)
 12622 4832 8483      		std Z+4,r24
 12623               	.LVL1117:
 12624               	.L740:
 12625               	.LM1210:
 12626 4834 CE01      		movw r24,r28
 12627 4836 8296      		adiw r24,34
 12628 4838 0E94 0000 		call dir_remove
 12629               	.LVL1118:
 12630               	.LM1211:
 12631 483c 8823      		tst r24
 12632               	.LVL1119:
 12633 483e 01F4      		brne .L731
 12634               	.LM1212:
 12635 4840 8AA1      		ldd r24,Y+34
 12636 4842 9BA1      		ldd r25,Y+35
 12637               	.LVL1120:
 12638 4844 0E94 0000 		call sync
 12639 4848 00C0      		rjmp .L731
 12640               	.LVL1121:
 12641               	.L741:
 12642 484a 82E0      		ldi r24,lo8(2)
 12643               	.LVL1122:
 12644               	.L731:
 12645               	.LVL1123:
 12646               	/* epilogue start */
 12647               	.LM1213:
 12648 484c C15B      		subi r28,lo8(-(79))
 12649 484e DF4F      		sbci r29,hi8(-(79))
 12650 4850 CDBF      		out __SP_L__,r28
 12651 4852 DEBF      		out __SP_H__,r29
 12652 4854 CF91      		pop r28
 12653 4856 DF91      		pop r29
 12654 4858 1F91      		pop r17
 12655 485a 0F91      		pop r16
 12656               	.LVL1124:
 12657 485c FF90      		pop r15
 12658 485e EF90      		pop r14
 12659               	.LVL1125:
 12660 4860 DF90      		pop r13
 12661 4862 CF90      		pop r12
 12662               	.LVL1126:
 12663 4864 0895      		ret
 12664               	.LFE81:
 12666               		.data
 12667               	.LC1:
 12668 000b 4E4F 204E 		.string	"NO NAME    FAT     "
 12668      414D 4520 
 12668      2020 2046 
 12668      4154 2020 
 12668      2020 2000 
 12669               	.LC2:
 12670 001f 4E4F 204E 		.string	"NO NAME    FAT32   "
 12670      414D 4520 
 12670      2020 2046 
 12670      4154 3332 
 12670      2020 2000 
 12671               		.text
 12672               	.global	f_mkfs
 12674               	f_mkfs:
 12675               	.LFB82:
 12676               	.LM1214:
 12677               	.LVL1127:
 12678 4866 2F92      		push r2
 12679 4868 3F92      		push r3
 12680 486a 4F92      		push r4
 12681 486c 5F92      		push r5
 12682 486e 6F92      		push r6
 12683 4870 7F92      		push r7
 12684 4872 8F92      		push r8
 12685 4874 9F92      		push r9
 12686 4876 AF92      		push r10
 12687 4878 BF92      		push r11
 12688 487a CF92      		push r12
 12689 487c DF92      		push r13
 12690 487e EF92      		push r14
 12691 4880 FF92      		push r15
 12692 4882 0F93      		push r16
 12693 4884 1F93      		push r17
 12694 4886 DF93      		push r29
 12695 4888 CF93      		push r28
 12696 488a CDB7      		in r28,__SP_L__
 12697 488c DEB7      		in r29,__SP_H__
 12698 488e A497      		sbiw r28,36
 12699 4890 CDBF      		out __SP_L__,r28
 12700 4892 DEBF      		out __SP_H__,r29
 12701               	/* prologue: function */
 12702               	/* frame size = 36 */
 12703 4894 68A3      		std Y+32,r22
 12704 4896 3A01      		movw r6,r20
 12705               	.LM1215:
 12706 4898 8230      		cpi r24,lo8(2)
 12707 489a 00F0      		brlo .L746
 12708               	.LVL1128:
 12709 489c 8BE0      		ldi r24,lo8(11)
 12710               	.LVL1129:
 12711 489e 00C0      		rjmp .L747
 12712               	.LVL1130:
 12713               	.L746:
 12714               	.LM1216:
 12715 48a0 28A1      		ldd r18,Y+32
 12716 48a2 2230      		cpi r18,lo8(2)
 12717 48a4 00F0      		brlo .+2
 12718 48a6 00C0      		rjmp .L748
 12719               	.LM1217:
 12720 48a8 A82F      		mov r26,r24
 12721 48aa B0E0      		ldi r27,lo8(0)
 12722 48ac AA0F      		lsl r26
 12723 48ae BB1F      		rol r27
 12724 48b0 FD01      		movw r30,r26
 12725 48b2 E050      		subi r30,lo8(-(FatFs))
 12726 48b4 F040      		sbci r31,hi8(-(FatFs))
 12727 48b6 C080      		ld r12,Z
 12728 48b8 D180      		ldd r13,Z+1
 12729               	.LVL1131:
 12730               	.LM1218:
 12731 48ba C114      		cp r12,__zero_reg__
 12732 48bc D104      		cpc r13,__zero_reg__
 12733 48be 01F4      		brne .L749
 12734 48c0 8CE0      		ldi r24,lo8(12)
 12735               	.LVL1132:
 12736 48c2 00C0      		rjmp .L747
 12737               	.LVL1133:
 12738               	.L749:
 12739               	.LM1219:
 12740 48c4 F601      		movw r30,r12
 12741 48c6 1082      		st Z,__zero_reg__
 12742               	.LM1220:
 12743 48c8 A050      		subi r26,lo8(-(Drives))
 12744 48ca B040      		sbci r27,hi8(-(Drives))
 12745 48cc FC91      		ld r31,X
 12746 48ce F98B      		std Y+17,r31
 12747               	.LVL1134:
 12748               	.LM1221:
 12749 48d0 8F2F      		mov r24,r31
 12750 48d2 0E94 0000 		call disk_initialize
 12751               	.LM1222:
 12752 48d6 80FF      		sbrs r24,0
 12753 48d8 00C0      		rjmp .L750
 12754 48da 83E0      		ldi r24,lo8(3)
 12755 48dc 00C0      		rjmp .L747
 12756               	.L750:
 12757               	.LM1223:
 12758 48de 82FF      		sbrs r24,2
 12759 48e0 00C0      		rjmp .L751
 12760 48e2 8AE0      		ldi r24,lo8(10)
 12761 48e4 00C0      		rjmp .L747
 12762               	.L751:
 12763               	.LM1224:
 12764 48e6 8989      		ldd r24,Y+17
 12765 48e8 61E0      		ldi r22,lo8(1)
 12766 48ea AE01      		movw r20,r28
 12767 48ec 4F5F      		subi r20,lo8(-(1))
 12768 48ee 5F4F      		sbci r21,hi8(-(1))
 12769 48f0 0E94 0000 		call disk_ioctl
 12770 48f4 8823      		tst r24
 12771 48f6 01F0      		breq .+2
 12772 48f8 00C0      		rjmp .L748
 12773 48fa 8981      		ldd r24,Y+1
 12774 48fc 9A81      		ldd r25,Y+2
 12775 48fe AB81      		ldd r26,Y+3
 12776 4900 BC81      		ldd r27,Y+4
 12777               	.LVL1135:
 12778 4902 803D      		cpi r24,lo8(2000)
 12779 4904 27E0      		ldi r18,hi8(2000)
 12780 4906 9207      		cpc r25,r18
 12781 4908 20E0      		ldi r18,hlo8(2000)
 12782 490a A207      		cpc r26,r18
 12783 490c 20E0      		ldi r18,hhi8(2000)
 12784 490e B207      		cpc r27,r18
 12785 4910 00F4      		brsh .+2
 12786 4912 00C0      		rjmp .L748
 12787               	.LM1225:
 12788 4914 8150      		subi r24,lo8(131072001)
 12789 4916 9040      		sbci r25,hi8(131072001)
 12790 4918 A04D      		sbci r26,hlo8(131072001)
 12791 491a B740      		sbci r27,hhi8(131072001)
 12792 491c 00F0      		brlo .L752
 12793 491e 80E0      		ldi r24,lo8(131072000)
 12794 4920 90E0      		ldi r25,hi8(131072000)
 12795 4922 A0ED      		ldi r26,hlo8(131072000)
 12796 4924 B7E0      		ldi r27,hhi8(131072000)
 12797 4926 8983      		std Y+1,r24
 12798 4928 9A83      		std Y+2,r25
 12799 492a AB83      		std Y+3,r26
 12800 492c BC83      		std Y+4,r27
 12801               	.LVL1136:
 12802               	.L752:
 12803               	.LM1226:
 12804 492e 48A1      		ldd r20,Y+32
 12805 4930 4423      		tst r20
 12806 4932 01F0      		breq .L753
 12807 4934 1A8E      		std Y+26,__zero_reg__
 12808 4936 1B8E      		std Y+27,__zero_reg__
 12809 4938 1C8E      		std Y+28,__zero_reg__
 12810 493a 1D8E      		std Y+29,__zero_reg__
 12811               	.LVL1137:
 12812 493c 00C0      		rjmp .L754
 12813               	.LVL1138:
 12814               	.L753:
 12815 493e 8FE3      		ldi r24,lo8(63)
 12816 4940 90E0      		ldi r25,hi8(63)
 12817 4942 A0E0      		ldi r26,hlo8(63)
 12818 4944 B0E0      		ldi r27,hhi8(63)
 12819 4946 8A8F      		std Y+26,r24
 12820 4948 9B8F      		std Y+27,r25
 12821 494a AC8F      		std Y+28,r26
 12822 494c BD8F      		std Y+29,r27
 12823               	.LVL1139:
 12824               	.L754:
 12825               	.LM1227:
 12826 494e 8980      		ldd r8,Y+1
 12827 4950 9A80      		ldd r9,Y+2
 12828 4952 AB80      		ldd r10,Y+3
 12829 4954 BC80      		ldd r11,Y+4
 12830 4956 2A8D      		ldd r18,Y+26
 12831 4958 3B8D      		ldd r19,Y+27
 12832 495a 4C8D      		ldd r20,Y+28
 12833 495c 5D8D      		ldd r21,Y+29
 12834 495e 821A      		sub r8,r18
 12835 4960 930A      		sbc r9,r19
 12836 4962 A40A      		sbc r10,r20
 12837 4964 B50A      		sbc r11,r21
 12838               	.LVL1140:
 12839 4966 8982      		std Y+1,r8
 12840 4968 9A82      		std Y+2,r9
 12841 496a AB82      		std Y+3,r10
 12842 496c BC82      		std Y+4,r11
 12843 496e 80E0      		ldi r24,lo8(512)
 12844 4970 92E0      		ldi r25,hi8(512)
 12845 4972 A0E0      		ldi r26,hlo8(512)
 12846 4974 B0E0      		ldi r27,hhi8(512)
 12847               	.LVL1141:
 12848 4976 20E0      		ldi r18,lo8(0)
 12849 4978 30E0      		ldi r19,hi8(0)
 12850               	.LM1228:
 12851 497a 7301      		movw r14,r6
 12852 497c 00E0      		ldi r16,lo8(0)
 12853 497e 10E0      		ldi r17,hi8(0)
 12854 4980 00C0      		rjmp .L755
 12855               	.LVL1142:
 12856               	.L757:
 12857 4982 880F      		lsl r24
 12858 4984 991F      		rol r25
 12859 4986 AA1F      		rol r26
 12860 4988 BB1F      		rol r27
 12861 498a 2F5F      		subi r18,lo8(-(1))
 12862 498c 3F4F      		sbci r19,hi8(-(1))
 12863 498e 2730      		cpi r18,7
 12864 4990 3105      		cpc r19,__zero_reg__
 12865 4992 01F0      		breq .L756
 12866               	.L755:
 12867 4994 8E15      		cp r24,r14
 12868 4996 9F05      		cpc r25,r15
 12869 4998 A007      		cpc r26,r16
 12870 499a B107      		cpc r27,r17
 12871 499c 01F4      		brne .L757
 12872 499e 00C0      		rjmp .L758
 12873               	.L756:
 12874               	.LM1229:
 12875 49a0 8E15      		cp r24,r14
 12876 49a2 9F05      		cpc r25,r15
 12877 49a4 A007      		cpc r26,r16
 12878 49a6 B107      		cpc r27,r17
 12879 49a8 01F4      		brne .L759
 12880               	.L758:
 12881               	.LM1230:
 12882 49aa 6114      		cp r6,__zero_reg__
 12883 49ac 7104      		cpc r7,__zero_reg__
 12884 49ae 01F4      		brne .L760
 12885               	.L759:
 12886               	.LM1231:
 12887 49b0 E0E0      		ldi r30,lo8(sstbl.6320)
 12888 49b2 F0E0      		ldi r31,hi8(sstbl.6320)
 12889 49b4 20E0      		ldi r18,lo8(0)
 12890 49b6 30E0      		ldi r19,hi8(0)
 12891 49b8 40E0      		ldi r20,hlo8(0)
 12892 49ba 50E0      		ldi r21,hhi8(0)
 12893               	.L761:
 12894 49bc 8191      		ld r24,Z+
 12895 49be 9191      		ld r25,Z+
 12896 49c0 A191      		ld r26,Z+
 12897 49c2 B191      		ld r27,Z+
 12898               	.LVL1143:
 12899 49c4 B901      		movw r22,r18
 12900 49c6 142F      		mov r17,r20
 12901 49c8 052F      		mov r16,r21
 12902 49ca 2F5F      		subi r18,lo8(-(1))
 12903 49cc 3F4F      		sbci r19,hi8(-(1))
 12904 49ce 4F4F      		sbci r20,hlo8(-(1))
 12905 49d0 5F4F      		sbci r21,hhi8(-(1))
 12906 49d2 8816      		cp r8,r24
 12907 49d4 9906      		cpc r9,r25
 12908 49d6 AA06      		cpc r10,r26
 12909 49d8 BB06      		cpc r11,r27
 12910 49da 00F0      		brlo .L761
 12911               	.LVL1144:
 12912 49dc CB01      		movw r24,r22
 12913 49de 6D83      		std Y+5,r22
 12914               	.LVL1145:
 12915 49e0 9E83      		std Y+6,r25
 12916               	.LVL1146:
 12917 49e2 1F83      		std Y+7,r17
 12918               	.LVL1147:
 12919 49e4 0887      		std Y+8,r16
 12920               	.LVL1148:
 12921               	.LM1232:
 12922 49e6 FB01      		movw r30,r22
 12923 49e8 EE0F      		lsl r30
 12924 49ea FF1F      		rol r31
 12925 49ec E050      		subi r30,lo8(-(cstbl.6321))
 12926 49ee F040      		sbci r31,hi8(-(cstbl.6321))
 12927 49f0 6080      		ld r6,Z
 12928 49f2 7180      		ldd r7,Z+1
 12929               	.LVL1149:
 12930               	.L760:
 12931               	.LM1233:
 12932 49f4 30E0      		ldi r19,lo8(512)
 12933 49f6 6316      		cp r6,r19
 12934 49f8 32E0      		ldi r19,hi8(512)
 12935 49fa 7306      		cpc r7,r19
 12936 49fc 00F4      		brsh .L762
 12937 49fe 612C      		mov r6,__zero_reg__
 12938 4a00 F2E0      		ldi r31,hi8(512)
 12939 4a02 7F2E      		mov r7,r31
 12940               	.L762:
 12941               	.LM1234:
 12942 4a04 1301      		movw r2,r6
 12943 4a06 232C      		mov r2,r3
 12944 4a08 3324      		clr r3
 12945 4a0a 2694      		lsr r2
 12946               	.LVL1150:
 12947               	.LM1235:
 12948 4a0c C101      		movw r24,r2
 12949               	.LVL1151:
 12950 4a0e A0E0      		ldi r26,lo8(0)
 12951 4a10 B0E0      		ldi r27,hi8(0)
 12952 4a12 8D87      		std Y+13,r24
 12953 4a14 9E87      		std Y+14,r25
 12954 4a16 AF87      		std Y+15,r26
 12955 4a18 B88B      		std Y+16,r27
 12956 4a1a C501      		movw r24,r10
 12957 4a1c B401      		movw r22,r8
 12958 4a1e 2D85      		ldd r18,Y+13
 12959 4a20 3E85      		ldd r19,Y+14
 12960 4a22 4F85      		ldd r20,Y+15
 12961 4a24 5889      		ldd r21,Y+16
 12962 4a26 0E94 0000 		call __udivmodsi4
 12963 4a2a C901      		movw r24,r18
 12964 4a2c DA01      		movw r26,r20
 12965               	.LM1236:
 12966 4a2e 853F      		cpi r24,lo8(4085)
 12967 4a30 EFE0      		ldi r30,hi8(4085)
 12968 4a32 9E07      		cpc r25,r30
 12969 4a34 E0E0      		ldi r30,hlo8(4085)
 12970 4a36 AE07      		cpc r26,r30
 12971 4a38 E0E0      		ldi r30,hhi8(4085)
 12972 4a3a BE07      		cpc r27,r30
 12973               	.LVL1152:
 12974 4a3c 00F4      		brsh .+2
 12975 4a3e 00C0      		rjmp .L763
 12976               	.LVL1153:
 12977 4a40 F8A1      		ldd r31,Y+32
 12978 4a42 2F2F      		mov r18,r31
 12979               	.LVL1154:
 12980 4a44 30E0      		ldi r19,lo8(0)
 12981               	.LVL1155:
 12982               	.LM1237:
 12983 4a46 853F      		cpi r24,lo8(65525)
 12984 4a48 4FEF      		ldi r20,hi8(65525)
 12985 4a4a 9407      		cpc r25,r20
 12986 4a4c 40E0      		ldi r20,hlo8(65525)
 12987 4a4e A407      		cpc r26,r20
 12988 4a50 40E0      		ldi r20,hhi8(65525)
 12989 4a52 B407      		cpc r27,r20
 12990 4a54 00F4      		brsh .L764
 12991               	.LM1238:
 12992 4a56 7C01      		movw r14,r24
 12993 4a58 8D01      		movw r16,r26
 12994               	.LVL1156:
 12995 4a5a EE0C      		lsl r14
 12996 4a5c FF1C      		rol r15
 12997 4a5e 001F      		rol r16
 12998 4a60 111F      		rol r17
 12999 4a62 83E0      		ldi r24,lo8(515)
 13000 4a64 92E0      		ldi r25,hi8(515)
 13001 4a66 A0E0      		ldi r26,hlo8(515)
 13002 4a68 B0E0      		ldi r27,hhi8(515)
 13003               	.LVL1157:
 13004 4a6a E80E      		add r14,r24
 13005 4a6c F91E      		adc r15,r25
 13006 4a6e 0A1F      		adc r16,r26
 13007 4a70 1B1F      		adc r17,r27
 13008 4a72 69E0      		ldi r22,9
 13009 4a74 1695      	1:	lsr r17
 13010 4a76 0795      		ror r16
 13011 4a78 F794      		ror r15
 13012 4a7a E794      		ror r14
 13013 4a7c 6A95      		dec r22
 13014 4a7e 01F4      		brne 1b
 13015               	.LM1239:
 13016 4a80 2F5F      		subi r18,lo8(-(1))
 13017 4a82 3F4F      		sbci r19,hi8(-(1))
 13018               	.LVL1158:
 13019 4a84 C901      		movw r24,r18
 13020 4a86 AA27      		clr r26
 13021 4a88 97FD      		sbrc r25,7
 13022 4a8a A095      		com r26
 13023 4a8c BA2F      		mov r27,r26
 13024 4a8e 8E8B      		std Y+22,r24
 13025 4a90 9F8B      		std Y+23,r25
 13026 4a92 A88F      		std Y+24,r26
 13027 4a94 B98F      		std Y+25,r27
 13028               	.LVL1159:
 13029 4a96 20E2      		ldi r18,lo8(32)
 13030 4a98 30E0      		ldi r19,hi8(32)
 13031 4a9a 40E0      		ldi r20,hlo8(32)
 13032 4a9c 50E0      		ldi r21,hhi8(32)
 13033               	.LVL1160:
 13034 4a9e 2A8B      		std Y+18,r18
 13035 4aa0 3B8B      		std Y+19,r19
 13036 4aa2 4C8B      		std Y+20,r20
 13037 4aa4 5D8B      		std Y+21,r21
 13038               	.LVL1161:
 13039 4aa6 32E0      		ldi r19,lo8(2)
 13040               	.LVL1162:
 13041 4aa8 00C0      		rjmp .L807
 13042               	.LVL1163:
 13043               	.L764:
 13044               	.LM1240:
 13045 4aaa 7C01      		movw r14,r24
 13046 4aac 8D01      		movw r16,r26
 13047               	.LVL1164:
 13048 4aae 52E0      		ldi r21,2
 13049 4ab0 EE0C      	1:	lsl r14
 13050 4ab2 FF1C      		rol r15
 13051 4ab4 001F      		rol r16
 13052 4ab6 111F      		rol r17
 13053 4ab8 5A95      		dec r21
 13054 4aba 01F4      		brne 1b
 13055 4abc 87E0      		ldi r24,lo8(519)
 13056 4abe 92E0      		ldi r25,hi8(519)
 13057 4ac0 A0E0      		ldi r26,hlo8(519)
 13058 4ac2 B0E0      		ldi r27,hhi8(519)
 13059               	.LVL1165:
 13060 4ac4 E80E      		add r14,r24
 13061 4ac6 F91E      		adc r15,r25
 13062 4ac8 0A1F      		adc r16,r26
 13063 4aca 1B1F      		adc r17,r27
 13064 4acc 49E0      		ldi r20,9
 13065 4ace 1695      	1:	lsr r17
 13066 4ad0 0795      		ror r16
 13067 4ad2 F794      		ror r15
 13068 4ad4 E794      		ror r14
 13069 4ad6 4A95      		dec r20
 13070 4ad8 01F4      		brne 1b
 13071               	.LM1241:
 13072 4ada 81E2      		ldi r24,lo8(33)
 13073 4adc 90E0      		ldi r25,hi8(33)
 13074 4ade 821B      		sub r24,r18
 13075 4ae0 930B      		sbc r25,r19
 13076 4ae2 9C01      		movw r18,r24
 13077 4ae4 4427      		clr r20
 13078 4ae6 37FD      		sbrc r19,7
 13079 4ae8 4095      		com r20
 13080 4aea 542F      		mov r21,r20
 13081               	.LVL1166:
 13082 4aec 2E8B      		std Y+22,r18
 13083 4aee 3F8B      		std Y+23,r19
 13084 4af0 488F      		std Y+24,r20
 13085 4af2 598F      		std Y+25,r21
 13086               	.LVL1167:
 13087 4af4 1A8A      		std Y+18,__zero_reg__
 13088 4af6 1B8A      		std Y+19,__zero_reg__
 13089 4af8 1C8A      		std Y+20,__zero_reg__
 13090 4afa 1D8A      		std Y+21,__zero_reg__
 13091               	.LVL1168:
 13092 4afc 33E0      		ldi r19,lo8(3)
 13093               	.LVL1169:
 13094               	.L807:
 13095 4afe 3F8F      		std Y+31,r19
 13096               	.LVL1170:
 13097               	.L765:
 13098               	.LM1242:
 13099 4b00 8989      		ldd r24,Y+17
 13100 4b02 63E0      		ldi r22,lo8(3)
 13101 4b04 AE01      		movw r20,r28
 13102 4b06 4B5F      		subi r20,lo8(-(5))
 13103 4b08 5F4F      		sbci r21,hi8(-(5))
 13104 4b0a 0E94 0000 		call disk_ioctl
 13105 4b0e 8823      		tst r24
 13106 4b10 01F0      		breq .+2
 13107 4b12 00C0      		rjmp .L748
 13108               	.LM1243:
 13109 4b14 8E89      		ldd r24,Y+22
 13110 4b16 9F89      		ldd r25,Y+23
 13111 4b18 A88D      		ldd r26,Y+24
 13112 4b1a B98D      		ldd r27,Y+25
 13113 4b1c 2A8D      		ldd r18,Y+26
 13114 4b1e 3B8D      		ldd r19,Y+27
 13115 4b20 4C8D      		ldd r20,Y+28
 13116 4b22 5D8D      		ldd r21,Y+29
 13117 4b24 820F      		add r24,r18
 13118 4b26 931F      		adc r25,r19
 13119 4b28 A41F      		adc r26,r20
 13120 4b2a B51F      		adc r27,r21
 13121 4b2c 8987      		std Y+9,r24
 13122 4b2e 9A87      		std Y+10,r25
 13123 4b30 AB87      		std Y+11,r26
 13124 4b32 BC87      		std Y+12,r27
 13125               	.LVL1171:
 13126               	.LM1244:
 13127 4b34 2A89      		ldd r18,Y+18
 13128 4b36 3B89      		ldd r19,Y+19
 13129 4b38 4C89      		ldd r20,Y+20
 13130 4b3a 5D89      		ldd r21,Y+21
 13131               	.LVL1172:
 13132 4b3c 2E0D      		add r18,r14
 13133 4b3e 3F1D      		adc r19,r15
 13134 4b40 401F      		adc r20,r16
 13135 4b42 511F      		adc r21,r17
 13136 4b44 280F      		add r18,r24
 13137 4b46 391F      		adc r19,r25
 13138 4b48 4A1F      		adc r20,r26
 13139 4b4a 5B1F      		adc r21,r27
 13140               	.LM1245:
 13141 4b4c 8D81      		ldd r24,Y+5
 13142 4b4e 9E81      		ldd r25,Y+6
 13143 4b50 AF81      		ldd r26,Y+7
 13144 4b52 B885      		ldd r27,Y+8
 13145 4b54 4C01      		movw r8,r24
 13146 4b56 5D01      		movw r10,r26
 13147               	.LVL1173:
 13148 4b58 0894      		sec
 13149 4b5a 8108      		sbc r8,__zero_reg__
 13150 4b5c 9108      		sbc r9,__zero_reg__
 13151 4b5e A108      		sbc r10,__zero_reg__
 13152 4b60 B108      		sbc r11,__zero_reg__
 13153 4b62 820E      		add r8,r18
 13154 4b64 931E      		adc r9,r19
 13155 4b66 A41E      		adc r10,r20
 13156 4b68 B51E      		adc r11,r21
 13157 4b6a B095      		com r27
 13158 4b6c A095      		com r26
 13159 4b6e 9095      		com r25
 13160 4b70 8195      		neg r24
 13161 4b72 9F4F      		sbci r25,lo8(-1)
 13162 4b74 AF4F      		sbci r26,lo8(-1)
 13163 4b76 BF4F      		sbci r27,lo8(-1)
 13164 4b78 8822      		and r8,r24
 13165 4b7a 9922      		and r9,r25
 13166 4b7c AA22      		and r10,r26
 13167 4b7e BB22      		and r11,r27
 13168               	.LM1246:
 13169 4b80 2701      		movw r4,r14
 13170 4b82 3801      		movw r6,r16
 13171 4b84 421A      		sub r4,r18
 13172 4b86 530A      		sbc r5,r19
 13173 4b88 640A      		sbc r6,r20
 13174 4b8a 750A      		sbc r7,r21
 13175               	.LVL1174:
 13176 4b8c 480C      		add r4,r8
 13177 4b8e 591C      		adc r5,r9
 13178 4b90 6A1C      		adc r6,r10
 13179 4b92 7B1C      		adc r7,r11
 13180               	.LM1247:
 13181 4b94 E980      		ldd r14,Y+1
 13182 4b96 FA80      		ldd r15,Y+2
 13183 4b98 0B81      		ldd r16,Y+3
 13184 4b9a 1C81      		ldd r17,Y+4
 13185 4b9c C801      		movw r24,r16
 13186 4b9e B701      		movw r22,r14
 13187 4ba0 2E89      		ldd r18,Y+22
 13188 4ba2 3F89      		ldd r19,Y+23
 13189 4ba4 488D      		ldd r20,Y+24
 13190 4ba6 598D      		ldd r21,Y+25
 13191               	.LVL1175:
 13192 4ba8 621B      		sub r22,r18
 13193 4baa 730B      		sbc r23,r19
 13194 4bac 840B      		sbc r24,r20
 13195 4bae 950B      		sbc r25,r21
 13196 4bb0 6419      		sub r22,r4
 13197 4bb2 7509      		sbc r23,r5
 13198 4bb4 8609      		sbc r24,r6
 13199 4bb6 9709      		sbc r25,r7
 13200 4bb8 2A89      		ldd r18,Y+18
 13201 4bba 3B89      		ldd r19,Y+19
 13202 4bbc 4C89      		ldd r20,Y+20
 13203 4bbe 5D89      		ldd r21,Y+21
 13204 4bc0 621B      		sub r22,r18
 13205 4bc2 730B      		sbc r23,r19
 13206 4bc4 840B      		sbc r24,r20
 13207 4bc6 950B      		sbc r25,r21
 13208 4bc8 2D85      		ldd r18,Y+13
 13209 4bca 3E85      		ldd r19,Y+14
 13210 4bcc 4F85      		ldd r20,Y+15
 13211 4bce 5889      		ldd r21,Y+16
 13212 4bd0 0E94 0000 		call __udivmodsi4
 13213 4bd4 29A3      		std Y+33,r18
 13214 4bd6 3AA3      		std Y+34,r19
 13215 4bd8 4BA3      		std Y+35,r20
 13216 4bda 5CA3      		std Y+36,r21
 13217               	.LM1248:
 13218 4bdc 3F8D      		ldd r19,Y+31
 13219 4bde 3230      		cpi r19,lo8(2)
 13220 4be0 01F4      		brne .L766
 13221 4be2 89A1      		ldd r24,Y+33
 13222 4be4 9AA1      		ldd r25,Y+34
 13223 4be6 ABA1      		ldd r26,Y+35
 13224 4be8 BCA1      		ldd r27,Y+36
 13225 4bea 855F      		subi r24,lo8(4085)
 13226 4bec 9F40      		sbci r25,hi8(4085)
 13227 4bee A040      		sbci r26,hlo8(4085)
 13228 4bf0 B040      		sbci r27,hhi8(4085)
 13229 4bf2 00F4      		brsh .L767
 13230 4bf4 00C0      		rjmp .L748
 13231               	.L766:
 13232 4bf6 FF8D      		ldd r31,Y+31
 13233 4bf8 F330      		cpi r31,lo8(3)
 13234 4bfa 01F4      		brne .L767
 13235 4bfc 29A1      		ldd r18,Y+33
 13236 4bfe 3AA1      		ldd r19,Y+34
 13237 4c00 4BA1      		ldd r20,Y+35
 13238 4c02 5CA1      		ldd r21,Y+36
 13239 4c04 255F      		subi r18,lo8(65525)
 13240 4c06 3F4F      		sbci r19,hi8(65525)
 13241 4c08 4040      		sbci r20,hlo8(65525)
 13242 4c0a 5040      		sbci r21,hhi8(65525)
 13243 4c0c 00F4      		brsh .+2
 13244 4c0e 00C0      		rjmp .L748
 13245               	.L767:
 13246               	.LM1249:
 13247 4c10 8D82      		std Y+5,r8
 13248 4c12 9E82      		std Y+6,r9
 13249 4c14 AF82      		std Y+7,r10
 13250 4c16 B886      		std Y+8,r11
 13251               	.LM1250:
 13252 4c18 98A1      		ldd r25,Y+32
 13253               	.LVL1176:
 13254 4c1a 9923      		tst r25
 13255 4c1c 01F0      		breq .L768
 13256               	.LVL1177:
 13257 4c1e 10EF      		ldi r17,lo8(-16)
 13258               	.LVL1178:
 13259 4c20 00C0      		rjmp .L769
 13260               	.LVL1179:
 13261               	.L768:
 13262               	.LBB635:
 13263               	.LM1251:
 13264 4c22 4A8D      		ldd r20,Y+26
 13265 4c24 5B8D      		ldd r21,Y+27
 13266 4c26 6C8D      		ldd r22,Y+28
 13267 4c28 7D8D      		ldd r23,Y+29
 13268               	.LVL1180:
 13269 4c2a 4E0D      		add r20,r14
 13270 4c2c 5F1D      		adc r21,r15
 13271 4c2e 601F      		adc r22,r16
 13272 4c30 711F      		adc r23,r17
 13273               	.LBB636:
 13274               	.LBB637:
 13275               	.LM1252:
 13276 4c32 3EE2      		ldi r19,lo8(46)
 13277 4c34 E32E      		mov r14,r19
 13278 4c36 F12C      		mov r15,__zero_reg__
 13279               	.LVL1181:
 13280 4c38 EC0C      		add r14,r12
 13281 4c3a FD1C      		adc r15,r13
 13282 4c3c F701      		movw r30,r14
 13283 4c3e 20E0      		ldi r18,lo8(512)
 13284 4c40 32E0      		ldi r19,hi8(512)
 13285               	.LVL1182:
 13286 4c42 00C0      		rjmp .L770
 13287               	.LVL1183:
 13288               	.L771:
 13289               	.LM1253:
 13290 4c44 1192      		st Z+,__zero_reg__
 13291               	.L770:
 13292 4c46 2150      		subi r18,lo8(-(-1))
 13293 4c48 3040      		sbci r19,hi8(-(-1))
 13294 4c4a AFEF      		ldi r26,hi8(-1)
 13295 4c4c 2F3F      		cpi r18,lo8(-1)
 13296 4c4e 3A07      		cpc r19,r26
 13297 4c50 01F4      		brne .L771
 13298               	.LBE637:
 13299               	.LBE636:
 13300               	.LM1254:
 13301 4c52 8601      		movw r16,r12
 13302               	.LVL1184:
 13303 4c54 0451      		subi r16,lo8(-(492))
 13304 4c56 1E4F      		sbci r17,hi8(-(492))
 13305               	.LM1255:
 13306 4c58 80E8      		ldi r24,lo8(-128)
 13307 4c5a F801      		movw r30,r16
 13308               	.LVL1185:
 13309 4c5c 8083      		st Z,r24
 13310 4c5e 81E0      		ldi r24,lo8(1)
 13311 4c60 8183      		std Z+1,r24
 13312 4c62 8283      		std Z+2,r24
 13313 4c64 1382      		std Z+3,__zero_reg__
 13314               	.LM1256:
 13315 4c66 4030      		cpi r20,lo8(16450560)
 13316 4c68 F4E0      		ldi r31,hi8(16450560)
 13317 4c6a 5F07      		cpc r21,r31
 13318 4c6c FBEF      		ldi r31,hlo8(16450560)
 13319 4c6e 6F07      		cpc r22,r31
 13320 4c70 F0E0      		ldi r31,hhi8(16450560)
 13321 4c72 7F07      		cpc r23,r31
 13322 4c74 00F4      		brsh .L772
 13323               	.LM1257:
 13324 4c76 CB01      		movw r24,r22
 13325 4c78 BA01      		movw r22,r20
 13326 4c7a 21EC      		ldi r18,lo8(16065)
 13327 4c7c 3EE3      		ldi r19,hi8(16065)
 13328 4c7e 40E0      		ldi r20,hlo8(16065)
 13329 4c80 50E0      		ldi r21,hhi8(16065)
 13330               	.LVL1186:
 13331 4c82 0E94 0000 		call __udivmodsi4
 13332 4c86 C901      		movw r24,r18
 13333 4c88 DA01      		movw r26,r20
 13334               	.LVL1187:
 13335               	.LM1258:
 13336 4c8a F801      		movw r30,r16
 13337 4c8c 2783      		std Z+7,r18
 13338               	.LVL1188:
 13339               	.LM1259:
 13340 4c8e 22E0      		ldi r18,2
 13341 4c90 B695      	1:	lsr r27
 13342 4c92 A795      		ror r26
 13343 4c94 9795      		ror r25
 13344 4c96 8795      		ror r24
 13345 4c98 2A95      		dec r18
 13346 4c9a 01F4      		brne 1b
 13347               	.LVL1189:
 13348 4c9c 8F63      		ori r24,lo8(63)
 13349               	.LVL1190:
 13350 4c9e 8683      		std Z+6,r24
 13351 4ca0 00C0      		rjmp .L773
 13352               	.LVL1191:
 13353               	.L772:
 13354               	.LM1260:
 13355 4ca2 8FEF      		ldi r24,lo8(-1)
 13356 4ca4 D801      		movw r26,r16
 13357 4ca6 1696      		adiw r26,6
 13358 4ca8 8C93      		st X,r24
 13359 4caa 1697      		sbiw r26,6
 13360 4cac 1796      		adiw r26,7
 13361 4cae 8C93      		st X,r24
 13362               	.L773:
 13363               	.LM1261:
 13364 4cb0 8EEF      		ldi r24,lo8(-2)
 13365 4cb2 F801      		movw r30,r16
 13366 4cb4 8583      		std Z+5,r24
 13367               	.LM1262:
 13368 4cb6 FF8D      		ldd r31,Y+31
 13369 4cb8 F330      		cpi r31,lo8(3)
 13370 4cba 01F0      		breq .L774
 13371               	.LM1263:
 13372 4cbc 8981      		ldd r24,Y+1
 13373 4cbe 9A81      		ldd r25,Y+2
 13374 4cc0 AB81      		ldd r26,Y+3
 13375 4cc2 BC81      		ldd r27,Y+4
 13376 4cc4 8050      		subi r24,lo8(65536)
 13377 4cc6 9040      		sbci r25,hi8(65536)
 13378 4cc8 A140      		sbci r26,hlo8(65536)
 13379 4cca B040      		sbci r27,hhi8(65536)
 13380               	.LVL1192:
 13381 4ccc 00F0      		brlo .L775
 13382               	.LVL1193:
 13383 4cce 86E0      		ldi r24,lo8(6)
 13384               	.LVL1194:
 13385 4cd0 00C0      		rjmp .L776
 13386               	.LVL1195:
 13387               	.L775:
 13388 4cd2 84E0      		ldi r24,lo8(4)
 13389               	.LVL1196:
 13390               	.L776:
 13391 4cd4 D801      		movw r26,r16
 13392 4cd6 1496      		adiw r26,4
 13393 4cd8 8C93      		st X,r24
 13394 4cda 00C0      		rjmp .L777
 13395               	.LVL1197:
 13396               	.L774:
 13397               	.LM1264:
 13398 4cdc 8CE0      		ldi r24,lo8(12)
 13399 4cde F801      		movw r30,r16
 13400 4ce0 8483      		std Z+4,r24
 13401               	.L777:
 13402               	.LM1265:
 13403 4ce2 8FE3      		ldi r24,lo8(63)
 13404 4ce4 D801      		movw r26,r16
 13405 4ce6 1896      		adiw r26,8
 13406 4ce8 8C93      		st X,r24
 13407 4cea 1897      		sbiw r26,8
 13408 4cec 1996      		adiw r26,9
 13409 4cee 1C92      		st X,__zero_reg__
 13410 4cf0 1997      		sbiw r26,9
 13411 4cf2 1A96      		adiw r26,10
 13412 4cf4 1C92      		st X,__zero_reg__
 13413 4cf6 1A97      		sbiw r26,10
 13414 4cf8 1B96      		adiw r26,11
 13415 4cfa 1C92      		st X,__zero_reg__
 13416 4cfc 1B97      		sbiw r26,11
 13417               	.LM1266:
 13418 4cfe 8981      		ldd r24,Y+1
 13419 4d00 1C96      		adiw r26,12
 13420 4d02 8C93      		st X,r24
 13421 4d04 1C97      		sbiw r26,12
 13422 4d06 8A81      		ldd r24,Y+2
 13423               	.LVL1198:
 13424 4d08 1D96      		adiw r26,13
 13425 4d0a 8C93      		st X,r24
 13426 4d0c 8981      		ldd r24,Y+1
 13427 4d0e 9A81      		ldd r25,Y+2
 13428 4d10 AB81      		ldd r26,Y+3
 13429 4d12 BC81      		ldd r27,Y+4
 13430 4d14 CD01      		movw r24,r26
 13431 4d16 AA27      		clr r26
 13432 4d18 BB27      		clr r27
 13433 4d1a F801      		movw r30,r16
 13434 4d1c 8687      		std Z+14,r24
 13435 4d1e 8981      		ldd r24,Y+1
 13436 4d20 9A81      		ldd r25,Y+2
 13437 4d22 AB81      		ldd r26,Y+3
 13438 4d24 BC81      		ldd r27,Y+4
 13439 4d26 8B2F      		mov r24,r27
 13440 4d28 9927      		clr r25
 13441 4d2a AA27      		clr r26
 13442 4d2c BB27      		clr r27
 13443 4d2e 8787      		std Z+15,r24
 13444               	.LM1267:
 13445 4d30 005C      		subi r16,lo8(-(64))
 13446 4d32 1F4F      		sbci r17,hi8(-(64))
 13447 4d34 85E5      		ldi r24,lo8(85)
 13448 4d36 D801      		movw r26,r16
 13449 4d38 8D93      		st X+,r24
 13450 4d3a FD01      		movw r30,r26
 13451 4d3c 8AEA      		ldi r24,lo8(-86)
 13452 4d3e 8083      		st Z,r24
 13453               	.LM1268:
 13454 4d40 8989      		ldd r24,Y+17
 13455 4d42 B701      		movw r22,r14
 13456 4d44 20E0      		ldi r18,lo8(0)
 13457 4d46 30E0      		ldi r19,hi8(0)
 13458 4d48 40E0      		ldi r20,hlo8(0)
 13459 4d4a 50E0      		ldi r21,hhi8(0)
 13460               	.LVL1199:
 13461 4d4c 01E0      		ldi r16,lo8(1)
 13462               	.LVL1200:
 13463 4d4e 0E94 0000 		call disk_write
 13464               	.LVL1201:
 13465 4d52 8823      		tst r24
 13466 4d54 01F0      		breq .+2
 13467 4d56 00C0      		rjmp .L778
 13468 4d58 18EF      		ldi r17,lo8(-8)
 13469               	.LVL1202:
 13470               	.L769:
 13471               	.LBE635:
 13472               	.LM1269:
 13473 4d5a 5EE2      		ldi r21,lo8(46)
 13474 4d5c E52E      		mov r14,r21
 13475 4d5e F12C      		mov r15,__zero_reg__
 13476               	.LVL1203:
 13477 4d60 EC0C      		add r14,r12
 13478 4d62 FD1C      		adc r15,r13
 13479 4d64 F701      		movw r30,r14
 13480 4d66 80E0      		ldi r24,lo8(512)
 13481 4d68 92E0      		ldi r25,hi8(512)
 13482               	.LVL1204:
 13483 4d6a 00C0      		rjmp .L779
 13484               	.LVL1205:
 13485               	.L780:
 13486               	.LBB638:
 13487               	.LBB639:
 13488               	.LM1270:
 13489 4d6c 1192      		st Z+,__zero_reg__
 13490               	.L779:
 13491 4d6e 0197      		sbiw r24,1
 13492 4d70 BFEF      		ldi r27,hi8(-1)
 13493 4d72 8F3F      		cpi r24,lo8(-1)
 13494 4d74 9B07      		cpc r25,r27
 13495 4d76 01F4      		brne .L780
 13496               	.LBE639:
 13497               	.LBE638:
 13498               	.LM1271:
 13499 4d78 8BEE      		ldi r24,lo8(-21)
 13500               	.LVL1206:
 13501 4d7a F601      		movw r30,r12
 13502               	.LVL1207:
 13503 4d7c 86A7      		std Z+46,r24
 13504 4d7e 8EEF      		ldi r24,lo8(-2)
 13505 4d80 87A7      		std Z+47,r24
 13506 4d82 80E9      		ldi r24,lo8(-112)
 13507 4d84 80AB      		std Z+48,r24
 13508 4d86 11AA      		std Z+49,__zero_reg__
 13509               	.LM1272:
 13510 4d88 11AE      		std Z+57,__zero_reg__
 13511 4d8a 82E0      		ldi r24,lo8(2)
 13512 4d8c 82AF      		std Z+58,r24
 13513               	.LM1273:
 13514 4d8e 2E8E      		std Y+30,r2
 13515               	.LVL1208:
 13516 4d90 23AE      		std Z+59,r2
 13517               	.LM1274:
 13518 4d92 2E89      		ldd r18,Y+22
 13519 4d94 24AF      		std Z+60,r18
 13520 4d96 15AE      		std Z+61,__zero_reg__
 13521               	.LM1275:
 13522 4d98 81E0      		ldi r24,lo8(1)
 13523 4d9a 86AF      		std Z+62,r24
 13524               	.LM1276:
 13525 4d9c 8A89      		ldd r24,Y+18
 13526 4d9e 9B89      		ldd r25,Y+19
 13527 4da0 AC89      		ldd r26,Y+20
 13528 4da2 BD89      		ldd r27,Y+21
 13529 4da4 44E0      		ldi r20,4
 13530 4da6 880F      	1:	lsl r24
 13531 4da8 991F      		rol r25
 13532 4daa AA1F      		rol r26
 13533 4dac BB1F      		rol r27
 13534 4dae 4A95      		dec r20
 13535 4db0 01F4      		brne 1b
 13536 4db2 87AF      		std Z+63,r24
 13537 4db4 40E4      		ldi r20,lo8(64)
 13538 4db6 50E0      		ldi r21,hi8(64)
 13539 4db8 C40E      		add r12,r20
 13540 4dba D51E      		adc r13,r21
 13541 4dbc 892F      		mov r24,r25
 13542 4dbe 9927      		clr r25
 13543 4dc0 D601      		movw r26,r12
 13544 4dc2 8C93      		st X,r24
 13545 4dc4 E0EC      		ldi r30,lo8(-64)
 13546 4dc6 FFEF      		ldi r31,hi8(-64)
 13547 4dc8 CE0E      		add r12,r30
 13548 4dca DF1E      		adc r13,r31
 13549               	.LM1277:
 13550 4dcc 8981      		ldd r24,Y+1
 13551 4dce 9A81      		ldd r25,Y+2
 13552 4dd0 AB81      		ldd r26,Y+3
 13553 4dd2 BC81      		ldd r27,Y+4
 13554 4dd4 8030      		cpi r24,lo8(65536)
 13555 4dd6 F0E0      		ldi r31,hi8(65536)
 13556 4dd8 9F07      		cpc r25,r31
 13557 4dda F1E0      		ldi r31,hlo8(65536)
 13558 4ddc AF07      		cpc r26,r31
 13559 4dde F0E0      		ldi r31,hhi8(65536)
 13560 4de0 BF07      		cpc r27,r31
 13561 4de2 00F4      		brsh .L781
 13562               	.LVL1209:
 13563               	.LM1278:
 13564 4de4 21E4      		ldi r18,lo8(65)
 13565 4de6 30E0      		ldi r19,hi8(65)
 13566 4de8 C20E      		add r12,r18
 13567 4dea D31E      		adc r13,r19
 13568 4dec F601      		movw r30,r12
 13569 4dee 8193      		st Z+,r24
 13570 4df0 6F01      		movw r12,r30
 13571 4df2 8A81      		ldd r24,Y+2
 13572 4df4 8083      		st Z,r24
 13573 4df6 2EEB      		ldi r18,lo8(-66)
 13574 4df8 3FEF      		ldi r19,hi8(-66)
 13575 4dfa 00C0      		rjmp .L808
 13576               	.L781:
 13577               	.LM1279:
 13578 4dfc 4EE4      		ldi r20,lo8(78)
 13579 4dfe 50E0      		ldi r21,hi8(78)
 13580 4e00 C40E      		add r12,r20
 13581 4e02 D51E      		adc r13,r21
 13582 4e04 F601      		movw r30,r12
 13583 4e06 8193      		st Z+,r24
 13584 4e08 8A81      		ldd r24,Y+2
 13585 4e0a DF01      		movw r26,r30
 13586 4e0c 8D93      		st X+,r24
 13587 4e0e 6D01      		movw r12,r26
 13588 4e10 8981      		ldd r24,Y+1
 13589 4e12 9A81      		ldd r25,Y+2
 13590 4e14 AB81      		ldd r26,Y+3
 13591 4e16 BC81      		ldd r27,Y+4
 13592 4e18 CD01      		movw r24,r26
 13593 4e1a AA27      		clr r26
 13594 4e1c BB27      		clr r27
 13595 4e1e F601      		movw r30,r12
 13596 4e20 8193      		st Z+,r24
 13597 4e22 6F01      		movw r12,r30
 13598 4e24 8981      		ldd r24,Y+1
 13599 4e26 9A81      		ldd r25,Y+2
 13600 4e28 AB81      		ldd r26,Y+3
 13601 4e2a BC81      		ldd r27,Y+4
 13602 4e2c 8B2F      		mov r24,r27
 13603 4e2e 9927      		clr r25
 13604 4e30 AA27      		clr r26
 13605 4e32 BB27      		clr r27
 13606 4e34 8083      		st Z,r24
 13607 4e36 2FEA      		ldi r18,lo8(-81)
 13608 4e38 3FEF      		ldi r19,hi8(-81)
 13609               	.L808:
 13610 4e3a C20E      		add r12,r18
 13611 4e3c D31E      		adc r13,r19
 13612               	.LM1280:
 13613 4e3e 43E4      		ldi r20,lo8(67)
 13614 4e40 50E0      		ldi r21,hi8(67)
 13615 4e42 C40E      		add r12,r20
 13616 4e44 D51E      		adc r13,r21
 13617 4e46 D601      		movw r26,r12
 13618 4e48 1C93      		st X,r17
 13619               	.LM1281:
 13620 4e4a E3E0      		ldi r30,lo8(3)
 13621 4e4c F0E0      		ldi r31,hi8(3)
 13622 4e4e CE0E      		add r12,r30
 13623 4e50 DF1E      		adc r13,r31
 13624 4e52 8FE3      		ldi r24,lo8(63)
 13625 4e54 D601      		movw r26,r12
 13626 4e56 8D93      		st X+,r24
 13627 4e58 FD01      		movw r30,r26
 13628 4e5a 1192      		st Z+,__zero_reg__
 13629               	.LM1282:
 13630 4e5c 8FEF      		ldi r24,lo8(-1)
 13631 4e5e DF01      		movw r26,r30
 13632 4e60 8D93      		st X+,r24
 13633 4e62 FD01      		movw r30,r26
 13634 4e64 1192      		st Z+,__zero_reg__
 13635               	.LM1283:
 13636 4e66 DF01      		movw r26,r30
 13637 4e68 EA8D      		ldd r30,Y+26
 13638 4e6a ED93      		st X+,r30
 13639 4e6c 1D92      		st X+,__zero_reg__
 13640 4e6e FD01      		movw r30,r26
 13641 4e70 1192      		st Z+,__zero_reg__
 13642 4e72 6F01      		movw r12,r30
 13643 4e74 1082      		st Z,__zero_reg__
 13644 4e76 23EB      		ldi r18,lo8(-77)
 13645 4e78 3FEF      		ldi r19,hi8(-77)
 13646 4e7a C20E      		add r12,r18
 13647 4e7c D31E      		adc r13,r19
 13648               	.LM1284:
 13649 4e7e 1D82      		std Y+5,__zero_reg__
 13650 4e80 1E82      		std Y+6,__zero_reg__
 13651 4e82 1F82      		std Y+7,__zero_reg__
 13652 4e84 1886      		std Y+8,__zero_reg__
 13653               	.LVL1210:
 13654 4e86 B601      		movw r22,r12
 13655 4e88 6B5A      		subi r22,lo8(-(85))
 13656 4e8a 7F4F      		sbci r23,hi8(-(85))
 13657 4e8c 852D      		mov r24,r5
 13658 4e8e 9927      		clr r25
 13659 4e90 D601      		movw r26,r12
 13660 4e92 AE5A      		subi r26,lo8(-(82))
 13661 4e94 BF4F      		sbci r27,hi8(-(82))
 13662 4e96 9601      		movw r18,r12
 13663 4e98 2C5A      		subi r18,lo8(-(84))
 13664 4e9a 3F4F      		sbci r19,hi8(-(84))
 13665               	.LM1285:
 13666 4e9c 4F8D      		ldd r20,Y+31
 13667 4e9e 4330      		cpi r20,lo8(3)
 13668 4ea0 01F0      		breq .L783
 13669               	.LVL1211:
 13670               	.LM1286:
 13671 4ea2 FB01      		movw r30,r22
 13672 4ea4 1082      		st Z,__zero_reg__
 13673 4ea6 46E5      		ldi r20,lo8(86)
 13674 4ea8 50E0      		ldi r21,hi8(86)
 13675 4eaa C40E      		add r12,r20
 13676 4eac D51E      		adc r13,r21
 13677 4eae F601      		movw r30,r12
 13678 4eb0 1192      		st Z+,__zero_reg__
 13679 4eb2 1192      		st Z+,__zero_reg__
 13680 4eb4 6F01      		movw r12,r30
 13681 4eb6 1082      		st Z,__zero_reg__
 13682               	.LM1287:
 13683 4eb8 4CEE      		ldi r20,lo8(-20)
 13684 4eba 5FEF      		ldi r21,hi8(-20)
 13685 4ebc C40E      		add r12,r20
 13686 4ebe D51E      		adc r13,r21
 13687 4ec0 F601      		movw r30,r12
 13688 4ec2 4192      		st Z+,r4
 13689 4ec4 6F01      		movw r12,r30
 13690 4ec6 8083      		st Z,r24
 13691 4ec8 4BEB      		ldi r20,lo8(-69)
 13692 4eca 5FEF      		ldi r21,hi8(-69)
 13693 4ecc C40E      		add r12,r20
 13694 4ece D51E      		adc r13,r21
 13695               	.LM1288:
 13696 4ed0 80E8      		ldi r24,lo8(-128)
 13697 4ed2 8C93      		st X,r24
 13698               	.LM1289:
 13699 4ed4 89E2      		ldi r24,lo8(41)
 13700 4ed6 D901      		movw r26,r18
 13701 4ed8 8C93      		st X,r24
 13702               	.LBB640:
 13703               	.LBB641:
 13704               	.LM1290:
 13705 4eda D701      		movw r26,r14
 13706               	.LVL1212:
 13707 4edc 9B96      		adiw r26,43
 13708 4ede E0E0      		ldi r30,lo8(.LC1)
 13709 4ee0 F0E0      		ldi r31,hi8(.LC1)
 13710               	.LVL1213:
 13711 4ee2 00C0      		rjmp .L784
 13712               	.L785:
 13713               	.LM1291:
 13714 4ee4 8191      		ld r24,Z+
 13715 4ee6 8D93      		st X+,r24
 13716               	.L784:
 13717 4ee8 20E0      		ldi r18,hi8(.LC1+19)
 13718 4eea E030      		cpi r30,lo8(.LC1+19)
 13719 4eec F207      		cpc r31,r18
 13720 4eee 01F4      		brne .L785
 13721 4ef0 00C0      		rjmp .L786
 13722               	.LVL1214:
 13723               	.L783:
 13724               	.LBE641:
 13725               	.LBE640:
 13726               	.LM1292:
 13727 4ef2 41E7      		ldi r20,lo8(113)
 13728 4ef4 50E0      		ldi r21,hi8(113)
 13729 4ef6 C40E      		add r12,r20
 13730 4ef8 D51E      		adc r13,r21
 13731 4efa F601      		movw r30,r12
 13732 4efc 1192      		st Z+,__zero_reg__
 13733 4efe 1192      		st Z+,__zero_reg__
 13734 4f00 1192      		st Z+,__zero_reg__
 13735 4f02 6F01      		movw r12,r30
 13736 4f04 1082      		st Z,__zero_reg__
 13737               	.LM1293:
 13738 4f06 4C92      		st X,r4
 13739 4f08 4FED      		ldi r20,lo8(-33)
 13740 4f0a 5FEF      		ldi r21,hi8(-33)
 13741 4f0c C40E      		add r12,r20
 13742 4f0e D51E      		adc r13,r21
 13743 4f10 D601      		movw r26,r12
 13744 4f12 8C93      		st X,r24
 13745 4f14 C301      		movw r24,r6
 13746 4f16 AA27      		clr r26
 13747 4f18 BB27      		clr r27
 13748 4f1a F901      		movw r30,r18
 13749 4f1c 8083      		st Z,r24
 13750 4f1e 872D      		mov r24,r7
 13751 4f20 9927      		clr r25
 13752 4f22 AA27      		clr r26
 13753 4f24 BB27      		clr r27
 13754 4f26 FB01      		movw r30,r22
 13755 4f28 8083      		st Z,r24
 13756               	.LM1294:
 13757 4f2a 27E0      		ldi r18,lo8(7)
 13758 4f2c 30E0      		ldi r19,hi8(7)
 13759 4f2e C20E      		add r12,r18
 13760 4f30 D31E      		adc r13,r19
 13761 4f32 82E0      		ldi r24,lo8(2)
 13762 4f34 D601      		movw r26,r12
 13763 4f36 8D93      		st X+,r24
 13764 4f38 FD01      		movw r30,r26
 13765 4f3a 1192      		st Z+,__zero_reg__
 13766 4f3c DF01      		movw r26,r30
 13767 4f3e 1D92      		st X+,__zero_reg__
 13768 4f40 FD01      		movw r30,r26
 13769 4f42 1192      		st Z+,__zero_reg__
 13770               	.LM1295:
 13771 4f44 81E0      		ldi r24,lo8(1)
 13772 4f46 DF01      		movw r26,r30
 13773 4f48 8D93      		st X+,r24
 13774 4f4a FD01      		movw r30,r26
 13775 4f4c 1192      		st Z+,__zero_reg__
 13776               	.LM1296:
 13777 4f4e 86E0      		ldi r24,lo8(6)
 13778 4f50 DF01      		movw r26,r30
 13779 4f52 8D93      		st X+,r24
 13780 4f54 6D01      		movw r12,r26
 13781 4f56 1C92      		st X,__zero_reg__
 13782               	.LM1297:
 13783 4f58 EDE0      		ldi r30,lo8(13)
 13784 4f5a F0E0      		ldi r31,hi8(13)
 13785 4f5c CE0E      		add r12,r30
 13786 4f5e DF1E      		adc r13,r31
 13787 4f60 80E8      		ldi r24,lo8(-128)
 13788 4f62 D601      		movw r26,r12
 13789 4f64 8C93      		st X,r24
 13790               	.LM1298:
 13791 4f66 E2E0      		ldi r30,lo8(2)
 13792 4f68 F0E0      		ldi r31,hi8(2)
 13793 4f6a CE0E      		add r12,r30
 13794 4f6c DF1E      		adc r13,r31
 13795 4f6e 89E2      		ldi r24,lo8(41)
 13796 4f70 D601      		movw r26,r12
 13797 4f72 8C93      		st X,r24
 13798 4f74 E0E9      		ldi r30,lo8(-112)
 13799 4f76 FFEF      		ldi r31,hi8(-112)
 13800 4f78 CE0E      		add r12,r30
 13801 4f7a DF1E      		adc r13,r31
 13802               	.LBB642:
 13803               	.LBB643:
 13804               	.LM1299:
 13805 4f7c D701      		movw r26,r14
 13806               	.LVL1215:
 13807 4f7e A95B      		subi r26,lo8(-(71))
 13808 4f80 BF4F      		sbci r27,hi8(-(71))
 13809 4f82 E0E0      		ldi r30,lo8(.LC2)
 13810 4f84 F0E0      		ldi r31,hi8(.LC2)
 13811               	.LVL1216:
 13812 4f86 00C0      		rjmp .L787
 13813               	.L788:
 13814               	.LM1300:
 13815 4f88 8191      		ld r24,Z+
 13816 4f8a 8D93      		st X+,r24
 13817               	.L787:
 13818 4f8c 20E0      		ldi r18,hi8(.LC2+19)
 13819 4f8e E030      		cpi r30,lo8(.LC2+19)
 13820 4f90 F207      		cpc r31,r18
 13821 4f92 01F4      		brne .L788
 13822               	.LVL1217:
 13823               	.L786:
 13824               	.LBE643:
 13825               	.LBE642:
 13826               	.LM1301:
 13827 4f94 4CE2      		ldi r20,lo8(556)
 13828 4f96 52E0      		ldi r21,hi8(556)
 13829 4f98 C40E      		add r12,r20
 13830 4f9a D51E      		adc r13,r21
 13831 4f9c 85E5      		ldi r24,lo8(85)
 13832 4f9e D601      		movw r26,r12
 13833               	.LVL1218:
 13834 4fa0 8D93      		st X+,r24
 13835 4fa2 6D01      		movw r12,r26
 13836 4fa4 8AEA      		ldi r24,lo8(-86)
 13837 4fa6 8C93      		st X,r24
 13838 4fa8 E3ED      		ldi r30,lo8(-557)
 13839 4faa FDEF      		ldi r31,hi8(-557)
 13840               	.LVL1219:
 13841 4fac CE0E      		add r12,r30
 13842 4fae DF1E      		adc r13,r31
 13843               	.LM1302:
 13844 4fb0 8989      		ldd r24,Y+17
 13845 4fb2 B701      		movw r22,r14
 13846 4fb4 2A8D      		ldd r18,Y+26
 13847 4fb6 3B8D      		ldd r19,Y+27
 13848 4fb8 4C8D      		ldd r20,Y+28
 13849 4fba 5D8D      		ldd r21,Y+29
 13850 4fbc 01E0      		ldi r16,lo8(1)
 13851 4fbe 0E94 0000 		call disk_write
 13852 4fc2 8823      		tst r24
 13853 4fc4 01F0      		breq .+2
 13854 4fc6 00C0      		rjmp .L778
 13855               	.LVL1220:
 13856               	.LM1303:
 13857 4fc8 FF8D      		ldd r31,Y+31
 13858 4fca F330      		cpi r31,lo8(3)
 13859 4fcc 01F4      		brne .L789
 13860               	.LM1304:
 13861 4fce 2A8D      		ldd r18,Y+26
 13862 4fd0 3B8D      		ldd r19,Y+27
 13863 4fd2 4C8D      		ldd r20,Y+28
 13864 4fd4 5D8D      		ldd r21,Y+29
 13865 4fd6 2A5F      		subi r18,lo8(-(6))
 13866 4fd8 3F4F      		sbci r19,hi8(-(6))
 13867 4fda 4F4F      		sbci r20,hlo8(-(6))
 13868 4fdc 5F4F      		sbci r21,hhi8(-(6))
 13869 4fde 8989      		ldd r24,Y+17
 13870 4fe0 B701      		movw r22,r14
 13871 4fe2 0E94 0000 		call disk_write
 13872               	.L789:
 13873 4fe6 F701      		movw r30,r14
 13874 4fe8 80E0      		ldi r24,lo8(512)
 13875 4fea 92E0      		ldi r25,hi8(512)
 13876               	.LVL1221:
 13877 4fec 00C0      		rjmp .L790
 13878               	.LVL1222:
 13879               	.L791:
 13880               	.LBB644:
 13881               	.LBB645:
 13882               	.LM1305:
 13883 4fee 1192      		st Z+,__zero_reg__
 13884               	.L790:
 13885 4ff0 0197      		sbiw r24,1
 13886 4ff2 2FEF      		ldi r18,hi8(-1)
 13887 4ff4 8F3F      		cpi r24,lo8(-1)
 13888 4ff6 9207      		cpc r25,r18
 13889 4ff8 01F4      		brne .L791
 13890               	.LBE645:
 13891               	.LBE644:
 13892               	.LM1306:
 13893 4ffa 3F8D      		ldd r19,Y+31
 13894 4ffc 3330      		cpi r19,lo8(3)
 13895 4ffe 01F0      		breq .L792
 13896               	.LM1307:
 13897 5000 3130      		cpi r19,lo8(1)
 13898 5002 01F0      		breq .L793
 13899 5004 20E0      		ldi r18,lo8(-256)
 13900 5006 3FEF      		ldi r19,hi8(-256)
 13901 5008 4FEF      		ldi r20,hlo8(-256)
 13902 500a 5FEF      		ldi r21,hhi8(-256)
 13903               	.LVL1223:
 13904 500c 00C0      		rjmp .L794
 13905               	.LVL1224:
 13906               	.L793:
 13907 500e 20E0      		ldi r18,lo8(16776960)
 13908 5010 3FEF      		ldi r19,hi8(16776960)
 13909 5012 4FEF      		ldi r20,hlo8(16776960)
 13910 5014 50E0      		ldi r21,hhi8(16776960)
 13911               	.LVL1225:
 13912               	.L794:
 13913               	.LM1308:
 13914 5016 812F      		mov r24,r17
 13915               	.LVL1226:
 13916 5018 90E0      		ldi r25,lo8(0)
 13917               	.LVL1227:
 13918 501a A0E0      		ldi r26,lo8(0)
 13919 501c B0E0      		ldi r27,hi8(0)
 13920               	.LVL1228:
 13921 501e 822B      		or r24,r18
 13922 5020 932B      		or r25,r19
 13923 5022 A42B      		or r26,r20
 13924 5024 B52B      		or r27,r21
 13925               	.LVL1229:
 13926 5026 8D83      		std Y+5,r24
 13927 5028 9E83      		std Y+6,r25
 13928 502a AF83      		std Y+7,r26
 13929 502c B887      		std Y+8,r27
 13930               	.LM1309:
 13931 502e F601      		movw r30,r12
 13932               	.LVL1230:
 13933 5030 86A7      		std Z+46,r24
 13934 5032 292F      		mov r18,r25
 13935 5034 3327      		clr r19
 13936 5036 27A7      		std Z+47,r18
 13937 5038 9D01      		movw r18,r26
 13938 503a 4427      		clr r20
 13939 503c 5527      		clr r21
 13940 503e 20AB      		std Z+48,r18
 13941 5040 8B2F      		mov r24,r27
 13942 5042 9927      		clr r25
 13943 5044 AA27      		clr r26
 13944 5046 BB27      		clr r27
 13945               	.LVL1231:
 13946 5048 81AB      		std Z+49,r24
 13947 504a 00C0      		rjmp .L795
 13948               	.LVL1232:
 13949               	.L792:
 13950               	.LM1310:
 13951 504c 88EF      		ldi r24,lo8(-8)
 13952               	.LVL1233:
 13953 504e D601      		movw r26,r12
 13954 5050 9E96      		adiw r26,46
 13955 5052 8C93      		st X,r24
 13956 5054 9E97      		sbiw r26,46
 13957 5056 8FEF      		ldi r24,lo8(-1)
 13958 5058 9F96      		adiw r26,47
 13959 505a 8C93      		st X,r24
 13960 505c 9F97      		sbiw r26,47
 13961 505e D096      		adiw r26,48
 13962 5060 8C93      		st X,r24
 13963 5062 D097      		sbiw r26,48
 13964 5064 D196      		adiw r26,49
 13965 5066 8C93      		st X,r24
 13966 5068 D197      		sbiw r26,49
 13967               	.LM1311:
 13968 506a D296      		adiw r26,50
 13969 506c 8C93      		st X,r24
 13970 506e D297      		sbiw r26,50
 13971 5070 D396      		adiw r26,51
 13972 5072 8C93      		st X,r24
 13973 5074 D397      		sbiw r26,51
 13974 5076 D496      		adiw r26,52
 13975 5078 8C93      		st X,r24
 13976 507a D497      		sbiw r26,52
 13977 507c D596      		adiw r26,53
 13978 507e 8C93      		st X,r24
 13979 5080 D597      		sbiw r26,53
 13980               	.LM1312:
 13981 5082 D696      		adiw r26,54
 13982 5084 8C93      		st X,r24
 13983 5086 D697      		sbiw r26,54
 13984 5088 D796      		adiw r26,55
 13985 508a 8C93      		st X,r24
 13986 508c D797      		sbiw r26,55
 13987 508e D896      		adiw r26,56
 13988 5090 8C93      		st X,r24
 13989 5092 D897      		sbiw r26,56
 13990 5094 8FE0      		ldi r24,lo8(15)
 13991 5096 D996      		adiw r26,57
 13992 5098 8C93      		st X,r24
 13993               	.LVL1234:
 13994               	.L795:
 13995               	.LM1313:
 13996 509a 8989      		ldd r24,Y+17
 13997 509c B701      		movw r22,r14
 13998 509e 2985      		ldd r18,Y+9
 13999 50a0 3A85      		ldd r19,Y+10
 14000 50a2 4B85      		ldd r20,Y+11
 14001 50a4 5C85      		ldd r21,Y+12
 14002 50a6 01E0      		ldi r16,lo8(1)
 14003 50a8 0E94 0000 		call disk_write
 14004 50ac 8823      		tst r24
 14005 50ae 01F0      		breq .+2
 14006 50b0 00C0      		rjmp .L778
 14007 50b2 F701      		movw r30,r14
 14008 50b4 80E0      		ldi r24,lo8(512)
 14009 50b6 92E0      		ldi r25,hi8(512)
 14010               	.LVL1235:
 14011 50b8 00C0      		rjmp .L796
 14012               	.LVL1236:
 14013               	.L797:
 14014               	.LBB646:
 14015               	.LBB647:
 14016               	.LM1314:
 14017 50ba 1192      		st Z+,__zero_reg__
 14018               	.L796:
 14019 50bc 0197      		sbiw r24,1
 14020 50be BFEF      		ldi r27,hi8(-1)
 14021 50c0 8F3F      		cpi r24,lo8(-1)
 14022 50c2 9B07      		cpc r25,r27
 14023 50c4 01F4      		brne .L797
 14024               	.LBE647:
 14025               	.LBE646:
 14026               	.LM1315:
 14027 50c6 8984      		ldd r8,Y+9
 14028 50c8 9A84      		ldd r9,Y+10
 14029 50ca AB84      		ldd r10,Y+11
 14030 50cc BC84      		ldd r11,Y+12
 14031 50ce 0894      		sec
 14032 50d0 811C      		adc r8,__zero_reg__
 14033 50d2 911C      		adc r9,__zero_reg__
 14034 50d4 A11C      		adc r10,__zero_reg__
 14035 50d6 B11C      		adc r11,__zero_reg__
 14036               	.LVL1237:
 14037               	.LM1316:
 14038 50d8 81E0      		ldi r24,lo8(1)
 14039 50da 90E0      		ldi r25,hi8(1)
 14040 50dc A0E0      		ldi r26,hlo8(1)
 14041 50de B0E0      		ldi r27,hhi8(1)
 14042               	.LVL1238:
 14043 50e0 00C0      		rjmp .L809
 14044               	.LVL1239:
 14045               	.L799:
 14046               	.LM1317:
 14047 50e2 8989      		ldd r24,Y+17
 14048               	.LVL1240:
 14049 50e4 B701      		movw r22,r14
 14050 50e6 A501      		movw r20,r10
 14051 50e8 9401      		movw r18,r8
 14052 50ea 01E0      		ldi r16,lo8(1)
 14053 50ec 0E94 0000 		call disk_write
 14054               	.LVL1241:
 14055 50f0 8823      		tst r24
 14056 50f2 01F0      		breq .+2
 14057 50f4 00C0      		rjmp .L778
 14058 50f6 0894      		sec
 14059 50f8 811C      		adc r8,__zero_reg__
 14060 50fa 911C      		adc r9,__zero_reg__
 14061 50fc A11C      		adc r10,__zero_reg__
 14062 50fe B11C      		adc r11,__zero_reg__
 14063               	.LM1318:
 14064 5100 8D81      		ldd r24,Y+5
 14065 5102 9E81      		ldd r25,Y+6
 14066 5104 AF81      		ldd r26,Y+7
 14067 5106 B885      		ldd r27,Y+8
 14068 5108 0196      		adiw r24,1
 14069 510a A11D      		adc r26,__zero_reg__
 14070 510c B11D      		adc r27,__zero_reg__
 14071               	.LVL1242:
 14072               	.L809:
 14073 510e 8D83      		std Y+5,r24
 14074 5110 9E83      		std Y+6,r25
 14075 5112 AF83      		std Y+7,r26
 14076 5114 B887      		std Y+8,r27
 14077 5116 8D81      		ldd r24,Y+5
 14078 5118 9E81      		ldd r25,Y+6
 14079 511a AF81      		ldd r26,Y+7
 14080 511c B885      		ldd r27,Y+8
 14081 511e 8415      		cp r24,r4
 14082 5120 9505      		cpc r25,r5
 14083 5122 A605      		cpc r26,r6
 14084 5124 B705      		cpc r27,r7
 14085 5126 00F0      		brlo .L799
 14086               	.LVL1243:
 14087               	.LM1319:
 14088 5128 EF8D      		ldd r30,Y+31
 14089               	.LVL1244:
 14090 512a E330      		cpi r30,lo8(3)
 14091 512c 01F0      		breq .L806
 14092 512e FA89      		ldd r31,Y+18
 14093 5130 FE8F      		std Y+30,r31
 14094               	.LVL1245:
 14095               	.L806:
 14096               	.LM1320:
 14097 5132 2401      		movw r4,r8
 14098 5134 3501      		movw r6,r10
 14099               	.LVL1246:
 14100 5136 0894      		sec
 14101 5138 411C      		adc r4,__zero_reg__
 14102 513a 511C      		adc r5,__zero_reg__
 14103 513c 611C      		adc r6,__zero_reg__
 14104 513e 711C      		adc r7,__zero_reg__
 14105               	.LVL1247:
 14106 5140 8989      		ldd r24,Y+17
 14107 5142 B701      		movw r22,r14
 14108 5144 A501      		movw r20,r10
 14109 5146 9401      		movw r18,r8
 14110 5148 01E0      		ldi r16,lo8(1)
 14111 514a 0E94 0000 		call disk_write
 14112 514e 8823      		tst r24
 14113 5150 01F0      		breq .+2
 14114 5152 00C0      		rjmp .L778
 14115               	.LVL1248:
 14116               	.LM1321:
 14117 5154 2E8D      		ldd r18,Y+30
 14118 5156 2150      		subi r18,lo8(-(-1))
 14119 5158 2E8F      		std Y+30,r18
 14120               	.LVL1249:
 14121 515a 2223      		tst r18
 14122 515c 01F0      		breq .L801
 14123 515e 5301      		movw r10,r6
 14124 5160 4201      		movw r8,r4
 14125 5162 00C0      		rjmp .L806
 14126               	.L801:
 14127               	.LM1322:
 14128 5164 3F8D      		ldd r19,Y+31
 14129 5166 3330      		cpi r19,lo8(3)
 14130 5168 01F0      		breq .+2
 14131 516a 00C0      		rjmp .L802
 14132               	.LM1323:
 14133 516c 4CE2      		ldi r20,lo8(556)
 14134 516e 52E0      		ldi r21,hi8(556)
 14135 5170 C40E      		add r12,r20
 14136 5172 D51E      		adc r13,r21
 14137 5174 85E5      		ldi r24,lo8(85)
 14138 5176 D601      		movw r26,r12
 14139 5178 8D93      		st X+,r24
 14140 517a 6D01      		movw r12,r26
 14141 517c 8AEA      		ldi r24,lo8(-86)
 14142 517e 8C93      		st X,r24
 14143 5180 E3ED      		ldi r30,lo8(-557)
 14144 5182 FDEF      		ldi r31,hi8(-557)
 14145 5184 CE0E      		add r12,r30
 14146 5186 DF1E      		adc r13,r31
 14147               	.LM1324:
 14148 5188 82E5      		ldi r24,lo8(82)
 14149 518a D601      		movw r26,r12
 14150 518c 9E96      		adiw r26,46
 14151 518e 8C93      		st X,r24
 14152 5190 9E97      		sbiw r26,46
 14153 5192 9F96      		adiw r26,47
 14154 5194 8C93      		st X,r24
 14155 5196 9F97      		sbiw r26,47
 14156 5198 21E6      		ldi r18,lo8(97)
 14157 519a D096      		adiw r26,48
 14158 519c 2C93      		st X,r18
 14159 519e D097      		sbiw r26,48
 14160 51a0 91E4      		ldi r25,lo8(65)
 14161 51a2 D196      		adiw r26,49
 14162 51a4 9C93      		st X,r25
 14163               	.LM1325:
 14164 51a6 E2E1      		ldi r30,lo8(530)
 14165 51a8 F2E0      		ldi r31,hi8(530)
 14166 51aa CE0E      		add r12,r30
 14167 51ac DF1E      		adc r13,r31
 14168 51ae 82E7      		ldi r24,lo8(114)
 14169 51b0 D601      		movw r26,r12
 14170 51b2 8D93      		st X+,r24
 14171 51b4 FD01      		movw r30,r26
 14172 51b6 8193      		st Z+,r24
 14173 51b8 DF01      		movw r26,r30
 14174 51ba 9D93      		st X+,r25
 14175 51bc FD01      		movw r30,r26
 14176 51be 2193      		st Z+,r18
 14177               	.LM1326:
 14178 51c0 89A1      		ldd r24,Y+33
 14179 51c2 8150      		subi r24,lo8(-(-1))
 14180 51c4 DF01      		movw r26,r30
 14181 51c6 8D93      		st X+,r24
 14182 51c8 89A1      		ldd r24,Y+33
 14183 51ca 9AA1      		ldd r25,Y+34
 14184 51cc 0197      		sbiw r24,1
 14185 51ce FD01      		movw r30,r26
 14186 51d0 9193      		st Z+,r25
 14187 51d2 89A1      		ldd r24,Y+33
 14188 51d4 9AA1      		ldd r25,Y+34
 14189 51d6 ABA1      		ldd r26,Y+35
 14190 51d8 BCA1      		ldd r27,Y+36
 14191 51da 0197      		sbiw r24,1
 14192 51dc A109      		sbc r26,__zero_reg__
 14193 51de B109      		sbc r27,__zero_reg__
 14194 51e0 9D01      		movw r18,r26
 14195 51e2 4427      		clr r20
 14196 51e4 5527      		clr r21
 14197 51e6 2193      		st Z+,r18
 14198 51e8 8B2F      		mov r24,r27
 14199 51ea 9927      		clr r25
 14200 51ec AA27      		clr r26
 14201 51ee BB27      		clr r27
 14202 51f0 8193      		st Z+,r24
 14203               	.LM1327:
 14204 51f2 8FEF      		ldi r24,lo8(-1)
 14205 51f4 DF01      		movw r26,r30
 14206 51f6 8D93      		st X+,r24
 14207 51f8 FD01      		movw r30,r26
 14208 51fa 8193      		st Z+,r24
 14209 51fc DF01      		movw r26,r30
 14210 51fe 8D93      		st X+,r24
 14211 5200 FD01      		movw r30,r26
 14212 5202 8083      		st Z,r24
 14213               	.LM1328:
 14214 5204 2A8D      		ldd r18,Y+26
 14215 5206 3B8D      		ldd r19,Y+27
 14216 5208 4C8D      		ldd r20,Y+28
 14217 520a 5D8D      		ldd r21,Y+29
 14218 520c 2F5F      		subi r18,lo8(-(1))
 14219 520e 3F4F      		sbci r19,hi8(-(1))
 14220 5210 4F4F      		sbci r20,hlo8(-(1))
 14221 5212 5F4F      		sbci r21,hhi8(-(1))
 14222 5214 2A8F      		std Y+26,r18
 14223 5216 3B8F      		std Y+27,r19
 14224 5218 4C8F      		std Y+28,r20
 14225 521a 5D8F      		std Y+29,r21
 14226               	.LVL1250:
 14227 521c 8989      		ldd r24,Y+17
 14228 521e B701      		movw r22,r14
 14229 5220 01E0      		ldi r16,lo8(1)
 14230 5222 0E94 0000 		call disk_write
 14231               	.LM1329:
 14232 5226 8A8D      		ldd r24,Y+26
 14233 5228 9B8D      		ldd r25,Y+27
 14234 522a AC8D      		ldd r26,Y+28
 14235 522c BD8D      		ldd r27,Y+29
 14236 522e 0696      		adiw r24,6
 14237 5230 A11D      		adc r26,__zero_reg__
 14238 5232 B11D      		adc r27,__zero_reg__
 14239 5234 8A8F      		std Y+26,r24
 14240 5236 9B8F      		std Y+27,r25
 14241 5238 AC8F      		std Y+28,r26
 14242 523a BD8F      		std Y+29,r27
 14243               	.LVL1251:
 14244 523c 8989      		ldd r24,Y+17
 14245 523e B701      		movw r22,r14
 14246 5240 2A8D      		ldd r18,Y+26
 14247 5242 3B8D      		ldd r19,Y+27
 14248 5244 4C8D      		ldd r20,Y+28
 14249 5246 5D8D      		ldd r21,Y+29
 14250 5248 0E94 0000 		call disk_write
 14251               	.LVL1252:
 14252               	.L802:
 14253               	.LM1330:
 14254 524c 8989      		ldd r24,Y+17
 14255 524e 60E0      		ldi r22,lo8(0)
 14256 5250 40E0      		ldi r20,lo8(0)
 14257 5252 50E0      		ldi r21,hi8(0)
 14258 5254 0E94 0000 		call disk_ioctl
 14259 5258 8823      		tst r24
 14260 525a 01F0      		breq .L747
 14261 525c 00C0      		rjmp .L778
 14262               	.LVL1253:
 14263               	.L748:
 14264 525e 8EE0      		ldi r24,lo8(14)
 14265 5260 00C0      		rjmp .L747
 14266               	.LVL1254:
 14267               	.L778:
 14268 5262 81E0      		ldi r24,lo8(1)
 14269               	.LVL1255:
 14270               	.L747:
 14271               	/* epilogue start */
 14272               	.LM1331:
 14273 5264 A496      		adiw r28,36
 14274 5266 CDBF      		out __SP_L__,r28
 14275 5268 DEBF      		out __SP_H__,r29
 14276 526a CF91      		pop r28
 14277 526c DF91      		pop r29
 14278 526e 1F91      		pop r17
 14279 5270 0F91      		pop r16
 14280 5272 FF90      		pop r15
 14281 5274 EF90      		pop r14
 14282               	.LVL1256:
 14283 5276 DF90      		pop r13
 14284 5278 CF90      		pop r12
 14285               	.LVL1257:
 14286 527a BF90      		pop r11
 14287 527c AF90      		pop r10
 14288 527e 9F90      		pop r9
 14289 5280 8F90      		pop r8
 14290               	.LVL1258:
 14291 5282 7F90      		pop r7
 14292 5284 6F90      		pop r6
 14293               	.LVL1259:
 14294 5286 5F90      		pop r5
 14295 5288 4F90      		pop r4
 14296               	.LVL1260:
 14297 528a 3F90      		pop r3
 14298 528c 2F90      		pop r2
 14299               	.LVL1261:
 14300 528e 0895      		ret
 14301               	.LVL1262:
 14302               	.L763:
 14303               	.LM1332:
 14304 5290 7C01      		movw r14,r24
 14305 5292 8D01      		movw r16,r26
 14306               	.LVL1263:
 14307 5294 EE0C      		lsl r14
 14308 5296 FF1C      		rol r15
 14309 5298 001F      		rol r16
 14310 529a 111F      		rol r17
 14311 529c E80E      		add r14,r24
 14312 529e F91E      		adc r15,r25
 14313 52a0 0A1F      		adc r16,r26
 14314 52a2 1B1F      		adc r17,r27
 14315 52a4 0894      		sec
 14316 52a6 E11C      		adc r14,__zero_reg__
 14317 52a8 F11C      		adc r15,__zero_reg__
 14318 52aa 011D      		adc r16,__zero_reg__
 14319 52ac 111D      		adc r17,__zero_reg__
 14320 52ae 1695      		lsr r17
 14321 52b0 0795      		ror r16
 14322 52b2 F794      		ror r15
 14323 52b4 E794      		ror r14
 14324               	.LVL1264:
 14325 52b6 22E0      		ldi r18,lo8(514)
 14326 52b8 32E0      		ldi r19,hi8(514)
 14327 52ba 40E0      		ldi r20,hlo8(514)
 14328 52bc 50E0      		ldi r21,hhi8(514)
 14329 52be E20E      		add r14,r18
 14330 52c0 F31E      		adc r15,r19
 14331 52c2 041F      		adc r16,r20
 14332 52c4 151F      		adc r17,r21
 14333 52c6 B9E0      		ldi r27,9
 14334 52c8 1695      	1:	lsr r17
 14335 52ca 0795      		ror r16
 14336 52cc F794      		ror r15
 14337 52ce E794      		ror r14
 14338 52d0 BA95      		dec r27
 14339 52d2 01F4      		brne 1b
 14340               	.LM1333:
 14341 52d4 38A1      		ldd r19,Y+32
 14342 52d6 832F      		mov r24,r19
 14343               	.LVL1265:
 14344 52d8 90E0      		ldi r25,lo8(0)
 14345               	.LVL1266:
 14346 52da 0196      		adiw r24,1
 14347               	.LVL1267:
 14348 52dc 9C01      		movw r18,r24
 14349 52de 4427      		clr r20
 14350 52e0 37FD      		sbrc r19,7
 14351 52e2 4095      		com r20
 14352 52e4 542F      		mov r21,r20
 14353 52e6 2E8B      		std Y+22,r18
 14354 52e8 3F8B      		std Y+23,r19
 14355 52ea 488F      		std Y+24,r20
 14356 52ec 598F      		std Y+25,r21
 14357               	.LVL1268:
 14358 52ee 80E2      		ldi r24,lo8(32)
 14359 52f0 90E0      		ldi r25,hi8(32)
 14360 52f2 A0E0      		ldi r26,hlo8(32)
 14361 52f4 B0E0      		ldi r27,hhi8(32)
 14362               	.LVL1269:
 14363 52f6 8A8B      		std Y+18,r24
 14364 52f8 9B8B      		std Y+19,r25
 14365 52fa AC8B      		std Y+20,r26
 14366 52fc BD8B      		std Y+21,r27
 14367               	.LVL1270:
 14368 52fe 91E0      		ldi r25,lo8(1)
 14369               	.LVL1271:
 14370 5300 9F8F      		std Y+31,r25
 14371               	.LVL1272:
 14372 5302 00C0      		rjmp .L765
 14373               	.LFE82:
 14375               	.global	f_gets
 14377               	f_gets:
 14378               	.LFB83:
 14379               	.LM1334:
 14380               	.LVL1273:
 14381 5304 6F92      		push r6
 14382 5306 7F92      		push r7
 14383 5308 8F92      		push r8
 14384 530a 9F92      		push r9
 14385 530c AF92      		push r10
 14386 530e BF92      		push r11
 14387 5310 CF92      		push r12
 14388 5312 DF92      		push r13
 14389 5314 EF92      		push r14
 14390 5316 FF92      		push r15
 14391 5318 0F93      		push r16
 14392 531a 1F93      		push r17
 14393 531c DF93      		push r29
 14394 531e CF93      		push r28
 14395 5320 0F92      		push __tmp_reg__
 14396 5322 0F92      		push __tmp_reg__
 14397 5324 CDB7      		in r28,__SP_L__
 14398 5326 DEB7      		in r29,__SP_H__
 14399               	/* prologue: function */
 14400               	/* frame size = 2 */
 14401 5328 5C01      		movw r10,r24
 14402 532a 6B01      		movw r12,r22
 14403 532c 4A01      		movw r8,r20
 14404               	.LM1335:
 14405 532e 8C01      		movw r16,r24
 14406               	.LVL1274:
 14407 5330 EE24      		clr r14
 14408 5332 FF24      		clr r15
 14409               	.LVL1275:
 14410               	.LM1336:
 14411 5334 0894      		sec
 14412 5336 C108      		sbc r12,__zero_reg__
 14413 5338 D108      		sbc r13,__zero_reg__
 14414               	.LM1337:
 14415 533a 3E01      		movw r6,r28
 14416 533c 0894      		sec
 14417 533e 611C      		adc r6,__zero_reg__
 14418 5340 711C      		adc r7,__zero_reg__
 14419 5342 00C0      		rjmp .L811
 14420               	.LVL1276:
 14421               	.L813:
 14422 5344 C401      		movw r24,r8
 14423 5346 B801      		movw r22,r16
 14424               	.LVL1277:
 14425 5348 41E0      		ldi r20,lo8(1)
 14426 534a 50E0      		ldi r21,hi8(1)
 14427 534c 9301      		movw r18,r6
 14428 534e 0E94 0000 		call f_read
 14429               	.LM1338:
 14430 5352 8981      		ldd r24,Y+1
 14431 5354 9A81      		ldd r25,Y+2
 14432 5356 0197      		sbiw r24,1
 14433 5358 01F4      		brne .L812
 14434               	.LVL1278:
 14435               	.LM1339:
 14436 535a 0894      		sec
 14437 535c E11C      		adc r14,__zero_reg__
 14438 535e F11C      		adc r15,__zero_reg__
 14439               	.LM1340:
 14440 5360 F801      		movw r30,r16
 14441 5362 8191      		ld r24,Z+
 14442               	.LVL1279:
 14443 5364 8F01      		movw r16,r30
 14444 5366 8A30      		cpi r24,lo8(10)
 14445 5368 01F0      		breq .L812
 14446               	.LVL1280:
 14447               	.L811:
 14448               	.LM1341:
 14449 536a EC14      		cp r14,r12
 14450 536c FD04      		cpc r15,r13
 14451 536e 04F0      		brlt .L813
 14452               	.LVL1281:
 14453               	.L812:
 14454               	.LM1342:
 14455 5370 F801      		movw r30,r16
 14456 5372 1082      		st Z,__zero_reg__
 14457               	.LM1343:
 14458 5374 EF28      		or r14,r15
 14459 5376 01F4      		brne .L814
 14460 5378 AA24      		clr r10
 14461 537a BB24      		clr r11
 14462               	.LVL1282:
 14463               	.L814:
 14464               	.LM1344:
 14465 537c C501      		movw r24,r10
 14466               	.LVL1283:
 14467               	/* epilogue start */
 14468 537e 0F90      		pop __tmp_reg__
 14469 5380 0F90      		pop __tmp_reg__
 14470 5382 CF91      		pop r28
 14471 5384 DF91      		pop r29
 14472 5386 1F91      		pop r17
 14473 5388 0F91      		pop r16
 14474               	.LVL1284:
 14475 538a FF90      		pop r15
 14476 538c EF90      		pop r14
 14477               	.LVL1285:
 14478 538e DF90      		pop r13
 14479 5390 CF90      		pop r12
 14480 5392 BF90      		pop r11
 14481 5394 AF90      		pop r10
 14482 5396 9F90      		pop r9
 14483 5398 8F90      		pop r8
 14484               	.LVL1286:
 14485 539a 7F90      		pop r7
 14486 539c 6F90      		pop r6
 14487 539e 0895      		ret
 14488               	.LFE83:
 14490               	.global	f_putc
 14492               	f_putc:
 14493               	.LFB84:
 14494               	.LM1345:
 14495               	.LVL1287:
 14496 53a0 0F93      		push r16
 14497 53a2 1F93      		push r17
 14498 53a4 DF93      		push r29
 14499 53a6 CF93      		push r28
 14500 53a8 00D0      		rcall .
 14501 53aa CDB7      		in r28,__SP_L__
 14502 53ac DEB7      		in r29,__SP_H__
 14503               	/* prologue: function */
 14504               	/* frame size = 3 */
 14505 53ae 8C01      		movw r16,r24
 14506               	.LM1346:
 14507 53b0 6115      		cp r22,__zero_reg__
 14508 53b2 7105      		cpc r23,__zero_reg__
 14509 53b4 01F0      		breq .L817
 14510               	.LVL1288:
 14511               	.LM1347:
 14512 53b6 8983      		std Y+1,r24
 14513               	.LVL1289:
 14514               	.LM1348:
 14515 53b8 CB01      		movw r24,r22
 14516 53ba BE01      		movw r22,r28
 14517               	.LVL1290:
 14518 53bc 6F5F      		subi r22,lo8(-(1))
 14519 53be 7F4F      		sbci r23,hi8(-(1))
 14520 53c0 41E0      		ldi r20,lo8(1)
 14521 53c2 50E0      		ldi r21,hi8(1)
 14522 53c4 9E01      		movw r18,r28
 14523 53c6 2E5F      		subi r18,lo8(-(2))
 14524 53c8 3F4F      		sbci r19,hi8(-(2))
 14525 53ca 0E94 0000 		call f_write
 14526               	.LM1349:
 14527 53ce 8A81      		ldd r24,Y+2
 14528 53d0 9B81      		ldd r25,Y+3
 14529               	.LVL1291:
 14530 53d2 892B      		or r24,r25
 14531 53d4 01F4      		brne .L817
 14532               	.LVL1292:
 14533 53d6 0FEF      		ldi r16,lo8(-1)
 14534 53d8 1FEF      		ldi r17,hi8(-1)
 14535               	.LVL1293:
 14536               	.L817:
 14537               	.LM1350:
 14538 53da C801      		movw r24,r16
 14539               	.LVL1294:
 14540               	/* epilogue start */
 14541 53dc 2396      		adiw r28,3
 14542 53de CDBF      		out __SP_L__,r28
 14543 53e0 DEBF      		out __SP_H__,r29
 14544 53e2 CF91      		pop r28
 14545 53e4 DF91      		pop r29
 14546 53e6 1F91      		pop r17
 14547 53e8 0F91      		pop r16
 14548 53ea 0895      		ret
 14549               	.LFE84:
 14551               	.global	f_puts
 14553               	f_puts:
 14554               	.LFB85:
 14555               	.LM1351:
 14556               	.LVL1295:
 14557 53ec EF92      		push r14
 14558 53ee FF92      		push r15
 14559 53f0 0F93      		push r16
 14560 53f2 1F93      		push r17
 14561 53f4 CF93      		push r28
 14562 53f6 DF93      		push r29
 14563               	/* prologue: function */
 14564               	/* frame size = 0 */
 14565 53f8 8C01      		movw r16,r24
 14566 53fa 7B01      		movw r14,r22
 14567               	.LM1352:
 14568 53fc C0E0      		ldi r28,lo8(0)
 14569 53fe D0E0      		ldi r29,hi8(0)
 14570               	.LVL1296:
 14571 5400 00C0      		rjmp .L820
 14572               	.LVL1297:
 14573               	.L823:
 14574               	.LM1353:
 14575 5402 90E0      		ldi r25,lo8(0)
 14576 5404 B701      		movw r22,r14
 14577 5406 0E94 0000 		call f_putc
 14578 540a 8F5F      		subi r24,lo8(-1)
 14579 540c 9F4F      		sbci r25,hi8(-1)
 14580 540e 01F4      		brne .L821
 14581 5410 CFEF      		ldi r28,lo8(-1)
 14582 5412 DFEF      		ldi r29,hi8(-1)
 14583 5414 00C0      		rjmp .L822
 14584               	.L821:
 14585               	.LM1354:
 14586 5416 0F5F      		subi r16,lo8(-(1))
 14587 5418 1F4F      		sbci r17,hi8(-(1))
 14588 541a 2196      		adiw r28,1
 14589               	.LVL1298:
 14590               	.L820:
 14591 541c F801      		movw r30,r16
 14592 541e 8081      		ld r24,Z
 14593 5420 8823      		tst r24
 14594 5422 01F4      		brne .L823
 14595               	.L822:
 14596               	.LM1355:
 14597 5424 CE01      		movw r24,r28
 14598               	.LVL1299:
 14599               	/* epilogue start */
 14600 5426 DF91      		pop r29
 14601 5428 CF91      		pop r28
 14602 542a 1F91      		pop r17
 14603 542c 0F91      		pop r16
 14604               	.LVL1300:
 14605 542e FF90      		pop r15
 14606 5430 EF90      		pop r14
 14607               	.LVL1301:
 14608 5432 0895      		ret
 14609               	.LFE85:
 14611               	.global	SD_Close
 14613               	SD_Close:
 14614               	.LFB89:
 14615               	.LM1356:
 14616               	/* prologue: function */
 14617               	/* frame size = 0 */
 14618               	.LM1357:
 14619 5434 80E0      		ldi r24,lo8(Log_File)
 14620 5436 90E0      		ldi r25,hi8(Log_File)
 14621 5438 0E94 0000 		call f_close
 14622               	/* epilogue start */
 14623               	.LM1358:
 14624 543c 0895      		ret
 14625               	.LFE89:
 14627               	.global	SD_Inserted
 14629               	SD_Inserted:
 14630               	.LFB90:
 14631               	.LM1359:
 14632               	/* prologue: function */
 14633               	/* frame size = 0 */
 14634               	.LM1360:
 14635 543e E0EA      		ldi r30,lo8(1696)
 14636 5440 F6E0      		ldi r31,hi8(1696)
 14637 5442 8085      		ldd r24,Z+8
 14638 5444 8295      		swap r24
 14639 5446 8F70      		andi r24,lo8(15)
 14640 5448 8095      		com r24
 14641               	.LM1361:
 14642 544a 8170      		andi r24,lo8(1)
 14643               	/* epilogue start */
 14644 544c 0895      		ret
 14645               	.LFE90:
 14647               	.global	SD_WriteBuffer
 14649               	SD_WriteBuffer:
 14650               	.LFB95:
 14651               	.LM1362:
 14652               	.LVL1302:
 14653 544e AF92      		push r10
 14654 5450 BF92      		push r11
 14655 5452 CF92      		push r12
 14656 5454 DF92      		push r13
 14657 5456 EF92      		push r14
 14658 5458 FF92      		push r15
 14659 545a 0F93      		push r16
 14660 545c 1F93      		push r17
 14661 545e DF93      		push r29
 14662 5460 CF93      		push r28
 14663 5462 0F92      		push __tmp_reg__
 14664 5464 0F92      		push __tmp_reg__
 14665 5466 CDB7      		in r28,__SP_L__
 14666 5468 DEB7      		in r29,__SP_H__
 14667               	/* prologue: function */
 14668               	/* frame size = 2 */
 14669 546a 5C01      		movw r10,r24
 14670 546c 6B01      		movw r12,r22
 14671               	.LM1363:
 14672 546e 80E0      		ldi r24,lo8(Log_File)
 14673 5470 90E0      		ldi r25,hi8(Log_File)
 14674               	.LVL1303:
 14675 5472 B501      		movw r22,r10
 14676               	.LVL1304:
 14677 5474 A601      		movw r20,r12
 14678 5476 9E01      		movw r18,r28
 14679 5478 2F5F      		subi r18,lo8(-(1))
 14680 547a 3F4F      		sbci r19,hi8(-(1))
 14681 547c 0E94 0000 		call f_write
 14682 5480 60E0      		ldi r22,lo8(0)
 14683 5482 70E0      		ldi r23,hi8(0)
 14684               	.LVL1305:
 14685 5484 00C0      		rjmp .L830
 14686               	.L831:
 14687               	.LBB648:
 14688               	.LM1364:
 14689 5486 E090 0000 		lds r14,CRC
 14690 548a F090 0000 		lds r15,(CRC)+1
 14691 548e 0091 0000 		lds r16,(CRC)+2
 14692 5492 1091 0000 		lds r17,(CRC)+3
 14693 5496 2091 0000 		lds r18,CRC
 14694 549a 3091 0000 		lds r19,(CRC)+1
 14695 549e 4091 0000 		lds r20,(CRC)+2
 14696 54a2 5091 0000 		lds r21,(CRC)+3
 14697 54a6 3070      		andi r19,hi8(255)
 14698 54a8 4070      		andi r20,hlo8(255)
 14699 54aa 5070      		andi r21,hhi8(255)
 14700 54ac F501      		movw r30,r10
 14701 54ae E60F      		add r30,r22
 14702 54b0 F71F      		adc r31,r23
 14703 54b2 8081      		ld r24,Z
 14704 54b4 90E0      		ldi r25,lo8(0)
 14705 54b6 A0E0      		ldi r26,lo8(0)
 14706 54b8 B0E0      		ldi r27,hi8(0)
 14707 54ba 2827      		eor r18,r24
 14708 54bc 3927      		eor r19,r25
 14709 54be 4A27      		eor r20,r26
 14710 54c0 5B27      		eor r21,r27
 14711 54c2 220F      		lsl r18
 14712 54c4 331F      		rol r19
 14713 54c6 220F      		lsl r18
 14714 54c8 331F      		rol r19
 14715 54ca 2050      		subi r18,lo8(-(crc_table))
 14716 54cc 3040      		sbci r19,hi8(-(crc_table))
 14717 54ce EF2C      		mov r14,r15
 14718 54d0 F02E      		mov r15,r16
 14719 54d2 012F      		mov r16,r17
 14720 54d4 1127      		clr r17
 14721 54d6 F901      		movw r30,r18
 14722 54d8 8081      		ld r24,Z
 14723 54da 9181      		ldd r25,Z+1
 14724 54dc A281      		ldd r26,Z+2
 14725 54de B381      		ldd r27,Z+3
 14726 54e0 E826      		eor r14,r24
 14727 54e2 F926      		eor r15,r25
 14728 54e4 0A27      		eor r16,r26
 14729 54e6 1B27      		eor r17,r27
 14730 54e8 E092 0000 		sts CRC,r14
 14731 54ec F092 0000 		sts (CRC)+1,r15
 14732 54f0 0093 0000 		sts (CRC)+2,r16
 14733 54f4 1093 0000 		sts (CRC)+3,r17
 14734               	.LM1365:
 14735 54f8 6F5F      		subi r22,lo8(-(1))
 14736 54fa 7F4F      		sbci r23,hi8(-(1))
 14737               	.L830:
 14738 54fc 6C15      		cp r22,r12
 14739 54fe 7D05      		cpc r23,r13
 14740 5500 00F0      		brlo .L831
 14741               	/* epilogue start */
 14742               	.LBE648:
 14743               	.LM1366:
 14744 5502 0F90      		pop __tmp_reg__
 14745 5504 0F90      		pop __tmp_reg__
 14746 5506 CF91      		pop r28
 14747 5508 DF91      		pop r29
 14748 550a 1F91      		pop r17
 14749 550c 0F91      		pop r16
 14750 550e FF90      		pop r15
 14751 5510 EF90      		pop r14
 14752 5512 DF90      		pop r13
 14753 5514 CF90      		pop r12
 14754               	.LVL1306:
 14755 5516 BF90      		pop r11
 14756 5518 AF90      		pop r10
 14757               	.LVL1307:
 14758 551a 0895      		ret
 14759               	.LFE95:
 14761               	.global	SD_Write32
 14763               	SD_Write32:
 14764               	.LFB93:
 14765               	.LM1367:
 14766               	.LVL1308:
 14767               	/* prologue: function */
 14768               	/* frame size = 0 */
 14769               	.LM1368:
 14770 551c 6093 0000 		sts tmp32,r22
 14771               	.LM1369:
 14772 5520 272F      		mov r18,r23
 14773 5522 382F      		mov r19,r24
 14774 5524 492F      		mov r20,r25
 14775 5526 5527      		clr r21
 14776 5528 2093 0000 		sts tmp32+1,r18
 14777               	.LM1370:
 14778 552c 9C01      		movw r18,r24
 14779 552e 4427      		clr r20
 14780 5530 5527      		clr r21
 14781 5532 2093 0000 		sts tmp32+2,r18
 14782               	.LM1371:
 14783 5536 692F      		mov r22,r25
 14784 5538 7727      		clr r23
 14785 553a 8827      		clr r24
 14786 553c 9927      		clr r25
 14787               	.LVL1309:
 14788 553e 6093 0000 		sts tmp32+3,r22
 14789               	.LM1372:
 14790 5542 80E0      		ldi r24,lo8(tmp32)
 14791 5544 90E0      		ldi r25,hi8(tmp32)
 14792 5546 64E0      		ldi r22,lo8(4)
 14793 5548 70E0      		ldi r23,hi8(4)
 14794 554a 0E94 0000 		call SD_WriteBuffer
 14795               	/* epilogue start */
 14796               	.LM1373:
 14797 554e 0895      		ret
 14798               	.LFE93:
 14800               	.global	SD_Write16
 14802               	SD_Write16:
 14803               	.LFB92:
 14804               	.LM1374:
 14805               	.LVL1310:
 14806               	/* prologue: function */
 14807               	/* frame size = 0 */
 14808               	.LM1375:
 14809 5550 8093 0000 		sts tmp16,r24
 14810               	.LM1376:
 14811 5554 9093 0000 		sts tmp16+1,r25
 14812               	.LVL1311:
 14813               	.LM1377:
 14814 5558 80E0      		ldi r24,lo8(tmp16)
 14815 555a 90E0      		ldi r25,hi8(tmp16)
 14816               	.LVL1312:
 14817 555c 62E0      		ldi r22,lo8(2)
 14818 555e 70E0      		ldi r23,hi8(2)
 14819 5560 0E94 0000 		call SD_WriteBuffer
 14820               	.LVL1313:
 14821               	/* epilogue start */
 14822               	.LM1378:
 14823 5564 0895      		ret
 14824               	.LFE92:
 14826               	.global	SD_Write8
 14828               	SD_Write8:
 14829               	.LFB91:
 14830               	.LM1379:
 14831               	.LVL1314:
 14832               	/* prologue: function */
 14833               	/* frame size = 0 */
 14834               	.LM1380:
 14835 5566 8093 0000 		sts tmp8,r24
 14836               	.LM1381:
 14837 556a 80E0      		ldi r24,lo8(tmp8)
 14838 556c 90E0      		ldi r25,hi8(tmp8)
 14839               	.LVL1315:
 14840 556e 61E0      		ldi r22,lo8(1)
 14841 5570 70E0      		ldi r23,hi8(1)
 14842 5572 0E94 0000 		call SD_WriteBuffer
 14843               	/* epilogue start */
 14844               	.LM1382:
 14845 5576 0895      		ret
 14846               	.LFE91:
 14848               	.global	SD_ClearCRC
 14850               	SD_ClearCRC:
 14851               	.LFB96:
 14852               	.LM1383:
 14853               	/* prologue: function */
 14854               	/* frame size = 0 */
 14855               	.LM1384:
 14856 5578 8FEF      		ldi r24,lo8(-1)
 14857 557a 9FEF      		ldi r25,hi8(-1)
 14858 557c AFEF      		ldi r26,hlo8(-1)
 14859 557e BFEF      		ldi r27,hhi8(-1)
 14860 5580 8093 0000 		sts CRC,r24
 14861 5584 9093 0000 		sts (CRC)+1,r25
 14862 5588 A093 0000 		sts (CRC)+2,r26
 14863 558c B093 0000 		sts (CRC)+3,r27
 14864               	/* epilogue start */
 14865               	.LM1385:
 14866 5590 0895      		ret
 14867               	.LFE96:
 14869               	.global	SD_WriteCRC
 14871               	SD_WriteCRC:
 14872               	.LFB97:
 14873               	.LM1386:
 14874               	/* prologue: function */
 14875               	/* frame size = 0 */
 14876               	.LM1387:
 14877 5592 6091 0000 		lds r22,CRC
 14878 5596 7091 0000 		lds r23,(CRC)+1
 14879 559a 8091 0000 		lds r24,(CRC)+2
 14880 559e 9091 0000 		lds r25,(CRC)+3
 14881 55a2 6095      		com r22
 14882 55a4 7095      		com r23
 14883 55a6 8095      		com r24
 14884 55a8 9095      		com r25
 14885 55aa 0E94 0000 		call SD_Write32
 14886               	/* epilogue start */
 14887               	.LM1388:
 14888 55ae 0895      		ret
 14889               	.LFE97:
 14891               	.global	SD_Timer_Init
 14893               	SD_Timer_Init:
 14894               	.LFB100:
 14895               	.LM1389:
 14896               	/* prologue: function */
 14897               	/* frame size = 0 */
 14898               	.LM1390:
 14899 55b0 E0E0      		ldi r30,lo8(2560)
 14900 55b2 FAE0      		ldi r31,hi8(2560)
 14901 55b4 80E4      		ldi r24,lo8(576)
 14902 55b6 92E0      		ldi r25,hi8(576)
 14903 55b8 86A3      		std Z+38,r24
 14904 55ba 97A3      		std Z+39,r25
 14905               	.LM1391:
 14906 55bc 8081      		ld r24,Z
 14907 55be 807F      		andi r24,lo8(-16)
 14908 55c0 8660      		ori r24,lo8(6)
 14909 55c2 8083      		st Z,r24
 14910               	.LM1392:
 14911 55c4 8681      		ldd r24,Z+6
 14912 55c6 8C7F      		andi r24,lo8(-4)
 14913 55c8 8260      		ori r24,lo8(2)
 14914 55ca 8683      		std Z+6,r24
 14915               	/* epilogue start */
 14916               	.LM1393:
 14917 55cc 0895      		ret
 14918               	.LFE100:
 14920               	.global	SD_Init
 14922               	SD_Init:
 14923               	.LFB87:
 14924               	.LM1394:
 14925 55ce 1F93      		push r17
 14926               	/* prologue: function */
 14927               	/* frame size = 0 */
 14928               	.LM1395:
 14929 55d0 80E1      		ldi r24,lo8(16)
 14930 55d2 E0EA      		ldi r30,lo8(1696)
 14931 55d4 F6E0      		ldi r31,hi8(1696)
 14932 55d6 8283      		std Z+2,r24
 14933               	.LM1396:
 14934 55d8 0E94 0000 		call SD_Timer_Init
 14935               	.LM1397:
 14936 55dc 80E0      		ldi r24,lo8(0)
 14937 55de 0E94 0000 		call disk_initialize
 14938 55e2 182F      		mov r17,r24
 14939               	.LVL1316:
 14940               	.LM1398:
 14941 55e4 80E0      		ldi r24,lo8(0)
 14942 55e6 60E0      		ldi r22,lo8(fso0)
 14943 55e8 70E0      		ldi r23,hi8(fso0)
 14944 55ea 0E94 0000 		call f_mount
 14945               	.LM1399:
 14946 55ee 81E0      		ldi r24,lo8(1)
 14947 55f0 60E0      		ldi r22,lo8(fso1)
 14948 55f2 70E0      		ldi r23,hi8(fso1)
 14949 55f4 0E94 0000 		call f_mount
 14950               	.LM1400:
 14951 55f8 812F      		mov r24,r17
 14952               	/* epilogue start */
 14953 55fa 1F91      		pop r17
 14954               	.LVL1317:
 14955 55fc 0895      		ret
 14956               	.LFE87:
 14958               	.global	__vector_47
 14960               	__vector_47:
 14961               	.LFB101:
 14962               	.LM1401:
 14963 55fe 1F92      		push __zero_reg__
 14964 5600 0F92      		push r0
 14965 5602 0FB6      		in r0,__SREG__
 14966 5604 0F92      		push r0
 14967 5606 0BB6      		in r0,59-0
 14968 5608 0F92      		push r0
 14969 560a 1124      		clr __zero_reg__
 14970 560c 2F93      		push r18
 14971 560e 3F93      		push r19
 14972 5610 4F93      		push r20
 14973 5612 5F93      		push r21
 14974 5614 6F93      		push r22
 14975 5616 7F93      		push r23
 14976 5618 8F93      		push r24
 14977 561a 9F93      		push r25
 14978 561c AF93      		push r26
 14979 561e BF93      		push r27
 14980 5620 EF93      		push r30
 14981 5622 FF93      		push r31
 14982               	/* prologue: Signal */
 14983               	/* frame size = 0 */
 14984               	.LM1402:
 14985 5624 0E94 0000 		call disk_timerproc
 14986               	/* epilogue start */
 14987               	.LM1403:
 14988 5628 FF91      		pop r31
 14989 562a EF91      		pop r30
 14990 562c BF91      		pop r27
 14991 562e AF91      		pop r26
 14992 5630 9F91      		pop r25
 14993 5632 8F91      		pop r24
 14994 5634 7F91      		pop r23
 14995 5636 6F91      		pop r22
 14996 5638 5F91      		pop r21
 14997 563a 4F91      		pop r20
 14998 563c 3F91      		pop r19
 14999 563e 2F91      		pop r18
 15000 5640 0F90      		pop r0
 15001 5642 0BBE      		out 59-0,r0
 15002 5644 0F90      		pop r0
 15003 5646 0FBE      		out __SREG__,r0
 15004 5648 0F90      		pop r0
 15005 564a 1F90      		pop __zero_reg__
 15006 564c 1895      		reti
 15007               	.LFE101:
 15009               	.global	Button_Init
 15011               	Button_Init:
 15012               	.LFB102:
 15013               	.LM1404:
 15014               	.LVL1318:
 15015               	/* prologue: function */
 15016               	/* frame size = 0 */
 15017               	.LM1405:
 15018 564e 21E0      		ldi r18,lo8(1)
 15019 5650 30E0      		ldi r19,hi8(1)
 15020 5652 00C0      		rjmp 2f
 15021 5654 220F      	1:	lsl r18
 15022 5656 331F      		rol r19
 15023 5658 8A95      	2:	dec r24
 15024 565a 02F4      		brpl 1b
 15025 565c E0EA      		ldi r30,lo8(1696)
 15026 565e F6E0      		ldi r31,hi8(1696)
 15027 5660 2283      		std Z+2,r18
 15028               	.LM1406:
 15029 5662 2093 B000 		sts 176,r18
 15030               	.LM1407:
 15031 5666 88E3      		ldi r24,lo8(56)
 15032               	.LVL1319:
 15033 5668 808B      		std Z+16,r24
 15034               	/* epilogue start */
 15035               	.LM1408:
 15036 566a 0895      		ret
 15037               	.LFE102:
 15039               	.global	Button_Pressed
 15041               	Button_Pressed:
 15042               	.LFB103:
 15043               	.LM1409:
 15044               	.LVL1320:
 15045               	/* prologue: function */
 15046               	/* frame size = 0 */
 15047               	.LM1410:
 15048 566c 4091 A806 		lds r20,1704
 15049 5670 90E0      		ldi r25,lo8(0)
 15050 5672 21E0      		ldi r18,lo8(1)
 15051 5674 30E0      		ldi r19,hi8(1)
 15052 5676 00C0      		rjmp 2f
 15053 5678 220F      	1:	lsl r18
 15054 567a 331F      		rol r19
 15055 567c 8A95      	2:	dec r24
 15056 567e 02F4      		brpl 1b
 15057 5680 50E0      		ldi r21,lo8(0)
 15058 5682 2423      		and r18,r20
 15059 5684 3523      		and r19,r21
 15060 5686 1216      		cp __zero_reg__,r18
 15061 5688 1306      		cpc __zero_reg__,r19
 15062 568a 04F0      		brlt .L852
 15063 568c 91E0      		ldi r25,lo8(1)
 15064               	.L852:
 15065               	.LM1411:
 15066 568e 892F      		mov r24,r25
 15067               	.LVL1321:
 15068               	/* epilogue start */
 15069 5690 0895      		ret
 15070               	.LFE103:
 15072               	.global	Accel_Write_Byte
 15074               	Accel_Write_Byte:
 15075               	.LFB105:
 15076               	.LM1412:
 15077               	.LVL1322:
 15078               	/* prologue: function */
 15079               	/* frame size = 0 */
 15080               	.LM1413:
 15081 5692 E0EC      		ldi r30,lo8(2240)
 15082 5694 F8E0      		ldi r31,hi8(2240)
 15083 5696 8383      		std Z+3,r24
 15084               	.L855:
 15085               	.LM1414:
 15086 5698 8091 C208 		lds r24,2242
 15087               	.LVL1323:
 15088 569c 87FF      		sbrs r24,7
 15089 569e 00C0      		rjmp .L855
 15090               	/* epilogue start */
 15091               	.LM1415:
 15092 56a0 0895      		ret
 15093               	.LFE105:
 15095               	.global	Accel_Read_Byte
 15097               	Accel_Read_Byte:
 15098               	.LFB106:
 15099               	.LM1416:
 15100               	/* prologue: function */
 15101               	/* frame size = 0 */
 15102               	.LBB649:
 15103               	.LBB650:
 15104               	.LM1417:
 15105 56a2 E0EC      		ldi r30,lo8(2240)
 15106 56a4 F8E0      		ldi r31,hi8(2240)
 15107 56a6 1382      		std Z+3,__zero_reg__
 15108               	.L859:
 15109               	.LM1418:
 15110 56a8 8091 C208 		lds r24,2242
 15111 56ac 87FF      		sbrs r24,7
 15112 56ae 00C0      		rjmp .L859
 15113               	.LBE650:
 15114               	.LBE649:
 15115               	.LM1419:
 15116 56b0 8091 C308 		lds r24,2243
 15117               	/* epilogue start */
 15118               	.LM1420:
 15119 56b4 0895      		ret
 15120               	.LFE106:
 15122               	.global	Accel_WriteToAddress
 15124               	Accel_WriteToAddress:
 15125               	.LFB107:
 15126               	.LM1421:
 15127               	.LVL1324:
 15128               	/* prologue: function */
 15129               	/* frame size = 0 */
 15130               	.LM1422:
 15131 56b6 90E1      		ldi r25,lo8(16)
 15132 56b8 E0E4      		ldi r30,lo8(1600)
 15133 56ba F6E0      		ldi r31,hi8(1600)
 15134 56bc 9683      		std Z+6,r25
 15135               	.LM1423:
 15136 56be 8F73      		andi r24,lo8(63)
 15137               	.LVL1325:
 15138               	.LBB651:
 15139               	.LBB652:
 15140               	.LM1424:
 15141 56c0 E0EC      		ldi r30,lo8(2240)
 15142 56c2 F8E0      		ldi r31,hi8(2240)
 15143 56c4 8383      		std Z+3,r24
 15144               	.L863:
 15145               	.LM1425:
 15146 56c6 8091 C208 		lds r24,2242
 15147 56ca 87FF      		sbrs r24,7
 15148 56cc 00C0      		rjmp .L863
 15149               	.LBE652:
 15150               	.LBE651:
 15151               	.LBB653:
 15152               	.LBB654:
 15153               	.LM1426:
 15154 56ce E0EC      		ldi r30,lo8(2240)
 15155 56d0 F8E0      		ldi r31,hi8(2240)
 15156 56d2 6383      		std Z+3,r22
 15157               	.L864:
 15158               	.LM1427:
 15159 56d4 8091 C208 		lds r24,2242
 15160 56d8 87FF      		sbrs r24,7
 15161 56da 00C0      		rjmp .L864
 15162               	.LBE654:
 15163               	.LBE653:
 15164               	.LM1428:
 15165 56dc 80E1      		ldi r24,lo8(16)
 15166 56de E0E4      		ldi r30,lo8(1600)
 15167 56e0 F6E0      		ldi r31,hi8(1600)
 15168 56e2 8583      		std Z+5,r24
 15169               	/* epilogue start */
 15170               	.LM1429:
 15171 56e4 0895      		ret
 15172               	.LFE107:
 15174               	.global	Accel_Init
 15176               	Accel_Init:
 15177               	.LFB104:
 15178               	.LM1430:
 15179               	/* prologue: function */
 15180               	/* frame size = 0 */
 15181               	.LM1431:
 15182 56e6 E0E4      		ldi r30,lo8(1600)
 15183 56e8 F6E0      		ldi r31,hi8(1600)
 15184 56ea 80EB      		ldi r24,lo8(-80)
 15185 56ec 8183      		std Z+1,r24
 15186               	.LM1432:
 15187 56ee 88E3      		ldi r24,lo8(56)
 15188 56f0 848B      		std Z+20,r24
 15189               	.LM1433:
 15190 56f2 80E1      		ldi r24,lo8(16)
 15191 56f4 8583      		std Z+5,r24
 15192               	.LM1434:
 15193 56f6 E0EC      		ldi r30,lo8(2240)
 15194 56f8 F8E0      		ldi r31,hi8(2240)
 15195 56fa 8081      		ld r24,Z
 15196 56fc 8C65      		ori r24,lo8(92)
 15197 56fe 8083      		st Z,r24
 15198               	.LM1435:
 15199 5700 8CE0      		ldi r24,lo8(12)
 15200 5702 E0EA      		ldi r30,lo8(1696)
 15201 5704 F6E0      		ldi r31,hi8(1696)
 15202 5706 8283      		std Z+2,r24
 15203               	.LM1436:
 15204 5708 81E3      		ldi r24,lo8(49)
 15205 570a 69E0      		ldi r22,lo8(9)
 15206 570c 0E94 0000 		call Accel_WriteToAddress
 15207               	.LM1437:
 15208 5710 8CE2      		ldi r24,lo8(44)
 15209 5712 6CE0      		ldi r22,lo8(12)
 15210 5714 0E94 0000 		call Accel_WriteToAddress
 15211               	.LM1438:
 15212 5718 8DE2      		ldi r24,lo8(45)
 15213 571a 68E0      		ldi r22,lo8(8)
 15214 571c 0E94 0000 		call Accel_WriteToAddress
 15215               	.LM1439:
 15216 5720 E0E0      		ldi r30,lo8(2816)
 15217 5722 FBE0      		ldi r31,hi8(2816)
 15218 5724 80E8      		ldi r24,lo8(5760)
 15219 5726 96E1      		ldi r25,hi8(5760)
 15220 5728 86A3      		std Z+38,r24
 15221 572a 97A3      		std Z+39,r25
 15222               	.LM1440:
 15223 572c 8081      		ld r24,Z
 15224 572e 807F      		andi r24,lo8(-16)
 15225 5730 8460      		ori r24,lo8(4)
 15226 5732 8083      		st Z,r24
 15227               	.LM1441:
 15228 5734 8681      		ldd r24,Z+6
 15229 5736 8360      		ori r24,lo8(3)
 15230 5738 8683      		std Z+6,r24
 15231               	/* epilogue start */
 15232               	.LM1442:
 15233 573a 0895      		ret
 15234               	.LFE104:
 15236               	.global	Accel_ReadFromAddress
 15238               	Accel_ReadFromAddress:
 15239               	.LFB108:
 15240               	.LM1443:
 15241               	.LVL1326:
 15242               	/* prologue: function */
 15243               	/* frame size = 0 */
 15244               	.LM1444:
 15245 573c 90E1      		ldi r25,lo8(16)
 15246 573e E0E4      		ldi r30,lo8(1600)
 15247 5740 F6E0      		ldi r31,hi8(1600)
 15248 5742 9683      		std Z+6,r25
 15249               	.LM1445:
 15250 5744 8068      		ori r24,lo8(-128)
 15251               	.LVL1327:
 15252               	.LBB655:
 15253               	.LBB656:
 15254               	.LM1446:
 15255 5746 E0EC      		ldi r30,lo8(2240)
 15256 5748 F8E0      		ldi r31,hi8(2240)
 15257 574a 8383      		std Z+3,r24
 15258               	.L871:
 15259               	.LM1447:
 15260 574c 8091 C208 		lds r24,2242
 15261 5750 87FF      		sbrs r24,7
 15262 5752 00C0      		rjmp .L871
 15263               	.LBE656:
 15264               	.LBE655:
 15265               	.LBB657:
 15266               	.LBB658:
 15267               	.LBB659:
 15268               	.LBB660:
 15269               	.LM1448:
 15270 5754 E0EC      		ldi r30,lo8(2240)
 15271 5756 F8E0      		ldi r31,hi8(2240)
 15272 5758 1382      		std Z+3,__zero_reg__
 15273               	.L872:
 15274               	.LM1449:
 15275 575a 8091 C208 		lds r24,2242
 15276 575e 87FF      		sbrs r24,7
 15277 5760 00C0      		rjmp .L872
 15278               	.LBE660:
 15279               	.LBE659:
 15280               	.LM1450:
 15281 5762 8091 C308 		lds r24,2243
 15282               	.LVL1328:
 15283               	.LBE658:
 15284               	.LBE657:
 15285               	.LM1451:
 15286 5766 90E1      		ldi r25,lo8(16)
 15287 5768 E0E4      		ldi r30,lo8(1600)
 15288 576a F6E0      		ldi r31,hi8(1600)
 15289 576c 9583      		std Z+5,r25
 15290               	.LVL1329:
 15291               	/* epilogue start */
 15292               	.LM1452:
 15293 576e 0895      		ret
 15294               	.LFE108:
 15296               	.global	Accel_ReadResults
 15298               	Accel_ReadResults:
 15299               	.LFB109:
 15300               	.LM1453:
 15301               	.LVL1330:
 15302               	/* prologue: function */
 15303               	/* frame size = 0 */
 15304 5770 DC01      		movw r26,r24
 15305               	.LM1454:
 15306 5772 80E1      		ldi r24,lo8(16)
 15307               	.LVL1331:
 15308 5774 E0E4      		ldi r30,lo8(1600)
 15309 5776 F6E0      		ldi r31,hi8(1600)
 15310 5778 8683      		std Z+6,r24
 15311               	.LBB661:
 15312               	.LBB662:
 15313               	.LM1455:
 15314 577a 82EF      		ldi r24,lo8(-14)
 15315 577c E0EC      		ldi r30,lo8(2240)
 15316 577e F8E0      		ldi r31,hi8(2240)
 15317 5780 8383      		std Z+3,r24
 15318               	.L877:
 15319               	.LM1456:
 15320 5782 8091 C208 		lds r24,2242
 15321 5786 87FF      		sbrs r24,7
 15322 5788 00C0      		rjmp .L877
 15323               	.LBE662:
 15324               	.LBE661:
 15325               	.LBB663:
 15326               	.LBB664:
 15327               	.LBB665:
 15328               	.LBB666:
 15329               	.LM1457:
 15330 578a E0EC      		ldi r30,lo8(2240)
 15331 578c F8E0      		ldi r31,hi8(2240)
 15332 578e 1382      		std Z+3,__zero_reg__
 15333               	.L878:
 15334               	.LM1458:
 15335 5790 8091 C208 		lds r24,2242
 15336 5794 87FF      		sbrs r24,7
 15337 5796 00C0      		rjmp .L878
 15338               	.LBE666:
 15339               	.LBE665:
 15340               	.LM1459:
 15341 5798 2091 C308 		lds r18,2243
 15342               	.LBE664:
 15343               	.LBE663:
 15344               	.LBB667:
 15345               	.LBB668:
 15346               	.LBB669:
 15347               	.LBB670:
 15348               	.LM1460:
 15349 579c E0EC      		ldi r30,lo8(2240)
 15350 579e F8E0      		ldi r31,hi8(2240)
 15351 57a0 1382      		std Z+3,__zero_reg__
 15352               	.L879:
 15353               	.LM1461:
 15354 57a2 8091 C208 		lds r24,2242
 15355 57a6 87FF      		sbrs r24,7
 15356 57a8 00C0      		rjmp .L879
 15357               	.LBE670:
 15358               	.LBE669:
 15359               	.LM1462:
 15360 57aa 4091 C308 		lds r20,2243
 15361               	.LBE668:
 15362               	.LBE667:
 15363               	.LM1463:
 15364 57ae FB01      		movw r30,r22
 15365 57b0 EE0F      		lsl r30
 15366 57b2 FF1F      		rol r31
 15367 57b4 EA0F      		add r30,r26
 15368 57b6 FB1F      		adc r31,r27
 15369 57b8 30E0      		ldi r19,lo8(0)
 15370 57ba 2050      		subi r18,lo8(-(1024))
 15371 57bc 3C4F      		sbci r19,hi8(-(1024))
 15372 57be 942F      		mov r25,r20
 15373 57c0 80E0      		ldi r24,lo8(0)
 15374 57c2 280F      		add r18,r24
 15375 57c4 391F      		adc r19,r25
 15376 57c6 2083      		st Z,r18
 15377 57c8 3183      		std Z+1,r19
 15378               	.LBB671:
 15379               	.LBB672:
 15380               	.LBB673:
 15381               	.LBB674:
 15382               	.LM1464:
 15383 57ca E0EC      		ldi r30,lo8(2240)
 15384 57cc F8E0      		ldi r31,hi8(2240)
 15385 57ce 1382      		std Z+3,__zero_reg__
 15386               	.L880:
 15387               	.LM1465:
 15388 57d0 8091 C208 		lds r24,2242
 15389 57d4 87FF      		sbrs r24,7
 15390 57d6 00C0      		rjmp .L880
 15391               	.LBE674:
 15392               	.LBE673:
 15393               	.LM1466:
 15394 57d8 2091 C308 		lds r18,2243
 15395               	.LBE672:
 15396               	.LBE671:
 15397               	.LBB675:
 15398               	.LBB676:
 15399               	.LBB677:
 15400               	.LBB678:
 15401               	.LM1467:
 15402 57dc E0EC      		ldi r30,lo8(2240)
 15403 57de F8E0      		ldi r31,hi8(2240)
 15404 57e0 1382      		std Z+3,__zero_reg__
 15405               	.L881:
 15406               	.LM1468:
 15407 57e2 8091 C208 		lds r24,2242
 15408 57e6 87FF      		sbrs r24,7
 15409 57e8 00C0      		rjmp .L881
 15410               	.LBE678:
 15411               	.LBE677:
 15412               	.LM1469:
 15413 57ea 4091 C308 		lds r20,2243
 15414               	.LBE676:
 15415               	.LBE675:
 15416               	.LM1470:
 15417 57ee FB01      		movw r30,r22
 15418 57f0 3196      		adiw r30,1
 15419 57f2 EE0F      		lsl r30
 15420 57f4 FF1F      		rol r31
 15421 57f6 EA0F      		add r30,r26
 15422 57f8 FB1F      		adc r31,r27
 15423 57fa 30E0      		ldi r19,lo8(0)
 15424 57fc 2050      		subi r18,lo8(-(1024))
 15425 57fe 3C4F      		sbci r19,hi8(-(1024))
 15426 5800 942F      		mov r25,r20
 15427 5802 80E0      		ldi r24,lo8(0)
 15428 5804 280F      		add r18,r24
 15429 5806 391F      		adc r19,r25
 15430 5808 2083      		st Z,r18
 15431 580a 3183      		std Z+1,r19
 15432               	.LBB679:
 15433               	.LBB680:
 15434               	.LBB681:
 15435               	.LBB682:
 15436               	.LM1471:
 15437 580c E0EC      		ldi r30,lo8(2240)
 15438 580e F8E0      		ldi r31,hi8(2240)
 15439 5810 1382      		std Z+3,__zero_reg__
 15440               	.L882:
 15441               	.LM1472:
 15442 5812 8091 C208 		lds r24,2242
 15443 5816 87FF      		sbrs r24,7
 15444 5818 00C0      		rjmp .L882
 15445               	.LBE682:
 15446               	.LBE681:
 15447               	.LM1473:
 15448 581a 2091 C308 		lds r18,2243
 15449               	.LBE680:
 15450               	.LBE679:
 15451               	.LBB683:
 15452               	.LBB684:
 15453               	.LBB685:
 15454               	.LBB686:
 15455               	.LM1474:
 15456 581e E0EC      		ldi r30,lo8(2240)
 15457 5820 F8E0      		ldi r31,hi8(2240)
 15458 5822 1382      		std Z+3,__zero_reg__
 15459               	.L883:
 15460               	.LM1475:
 15461 5824 8091 C208 		lds r24,2242
 15462 5828 87FF      		sbrs r24,7
 15463 582a 00C0      		rjmp .L883
 15464               	.LBE686:
 15465               	.LBE685:
 15466               	.LM1476:
 15467 582c 4091 C308 		lds r20,2243
 15468               	.LBE684:
 15469               	.LBE683:
 15470               	.LM1477:
 15471 5830 6E5F      		subi r22,lo8(-(2))
 15472 5832 7F4F      		sbci r23,hi8(-(2))
 15473               	.LVL1332:
 15474 5834 660F      		lsl r22
 15475 5836 771F      		rol r23
 15476 5838 A60F      		add r26,r22
 15477 583a B71F      		adc r27,r23
 15478 583c 30E0      		ldi r19,lo8(0)
 15479 583e 2050      		subi r18,lo8(-(1024))
 15480 5840 3C4F      		sbci r19,hi8(-(1024))
 15481 5842 942F      		mov r25,r20
 15482 5844 80E0      		ldi r24,lo8(0)
 15483 5846 280F      		add r18,r24
 15484 5848 391F      		adc r19,r25
 15485 584a 2D93      		st X+,r18
 15486 584c 3C93      		st X,r19
 15487               	.LM1478:
 15488 584e 80E1      		ldi r24,lo8(16)
 15489 5850 E0E4      		ldi r30,lo8(1600)
 15490 5852 F6E0      		ldi r31,hi8(1600)
 15491 5854 8583      		std Z+5,r24
 15492               	/* epilogue start */
 15493               	.LM1479:
 15494 5856 0895      		ret
 15495               	.LFE109:
 15497               	.global	Sensors_ResetAccelBuffers
 15499               	Sensors_ResetAccelBuffers:
 15500               	.LFB110:
 15501               	.LM1480:
 15502               	/* prologue: function */
 15503               	/* frame size = 0 */
 15504               	.LM1481:
 15505 5858 1092 0000 		sts accelBufferCounter,__zero_reg__
 15506 585c 1092 0000 		sts (accelBufferCounter)+1,__zero_reg__
 15507               	.LM1482:
 15508 5860 81E0      		ldi r24,lo8(1)
 15509 5862 8093 0000 		sts accelBufferToWriteTo,r24
 15510               	.LM1483:
 15511 5866 1092 0000 		sts okToSendAccelBuffer1,__zero_reg__
 15512               	.LM1484:
 15513 586a 1092 0000 		sts okToSendAccelBuffer2,__zero_reg__
 15514               	/* epilogue start */
 15515               	.LM1485:
 15516 586e 0895      		ret
 15517               	.LFE110:
 15519               	.global	__vector_108
 15521               	__vector_108:
 15522               	.LFB111:
 15523               	.LM1486:
 15524 5870 1F92      		push __zero_reg__
 15525 5872 0F92      		push r0
 15526 5874 0FB6      		in r0,__SREG__
 15527 5876 0F92      		push r0
 15528 5878 0BB6      		in r0,59-0
 15529 587a 0F92      		push r0
 15530 587c 1124      		clr __zero_reg__
 15531 587e 2F93      		push r18
 15532 5880 3F93      		push r19
 15533 5882 4F93      		push r20
 15534 5884 5F93      		push r21
 15535 5886 6F93      		push r22
 15536 5888 7F93      		push r23
 15537 588a 8F93      		push r24
 15538 588c 9F93      		push r25
 15539 588e AF93      		push r26
 15540 5890 BF93      		push r27
 15541 5892 EF93      		push r30
 15542 5894 FF93      		push r31
 15543               	/* prologue: Signal */
 15544               	/* frame size = 0 */
 15545               	.LM1487:
 15546 5896 8091 0000 		lds r24,recording
 15547 589a 8823      		tst r24
 15548 589c 01F4      		brne .+2
 15549 589e 00C0      		rjmp .L899
 15550 58a0 8091 0000 		lds r24,wantToRecordFast
 15551 58a4 8823      		tst r24
 15552 58a6 01F4      		brne .+2
 15553 58a8 00C0      		rjmp .L899
 15554               	.LM1488:
 15555 58aa 8091 0000 		lds r24,accelBufferToWriteTo
 15556 58ae 8130      		cpi r24,lo8(1)
 15557 58b0 01F4      		brne .L896
 15558               	.LM1489:
 15559 58b2 8091 0000 		lds r24,accelBufferCounter
 15560 58b6 9091 0000 		lds r25,(accelBufferCounter)+1
 15561 58ba 892B      		or r24,r25
 15562 58bc 01F4      		brne .L897
 15563               	.LM1490:
 15564 58be 0E94 0000 		call Time_Get32BitTimer
 15565 58c2 6093 0000 		sts accelSampleStartTime1,r22
 15566 58c6 7093 0000 		sts (accelSampleStartTime1)+1,r23
 15567 58ca 8093 0000 		sts (accelSampleStartTime1)+2,r24
 15568 58ce 9093 0000 		sts (accelSampleStartTime1)+3,r25
 15569               	.L897:
 15570               	.LM1491:
 15571 58d2 6091 0000 		lds r22,accelBufferCounter
 15572 58d6 7091 0000 		lds r23,(accelBufferCounter)+1
 15573 58da 80E0      		ldi r24,lo8(accelBuffer1)
 15574 58dc 90E0      		ldi r25,hi8(accelBuffer1)
 15575 58de 0E94 0000 		call Accel_ReadResults
 15576               	.LM1492:
 15577 58e2 8091 0000 		lds r24,accelBufferCounter
 15578 58e6 9091 0000 		lds r25,(accelBufferCounter)+1
 15579 58ea 0396      		adiw r24,3
 15580 58ec 8093 0000 		sts accelBufferCounter,r24
 15581 58f0 9093 0000 		sts (accelBufferCounter)+1,r25
 15582               	.LM1493:
 15583 58f4 8855      		subi r24,lo8(600)
 15584 58f6 9240      		sbci r25,hi8(600)
 15585 58f8 01F4      		brne .L899
 15586               	.LM1494:
 15587 58fa 1092 0000 		sts accelBufferCounter,__zero_reg__
 15588 58fe 1092 0000 		sts (accelBufferCounter)+1,__zero_reg__
 15589               	.LM1495:
 15590 5902 82E0      		ldi r24,lo8(2)
 15591 5904 8093 0000 		sts accelBufferToWriteTo,r24
 15592               	.LM1496:
 15593 5908 81E0      		ldi r24,lo8(1)
 15594 590a 8093 0000 		sts okToSendAccelBuffer1,r24
 15595 590e 00C0      		rjmp .L899
 15596               	.L896:
 15597               	.LM1497:
 15598 5910 8230      		cpi r24,lo8(2)
 15599 5912 01F4      		brne .L899
 15600               	.LM1498:
 15601 5914 8091 0000 		lds r24,accelBufferCounter
 15602 5918 9091 0000 		lds r25,(accelBufferCounter)+1
 15603 591c 892B      		or r24,r25
 15604 591e 01F4      		brne .L898
 15605               	.LM1499:
 15606 5920 0E94 0000 		call Time_Get32BitTimer
 15607 5924 6093 0000 		sts accelSampleStartTime2,r22
 15608 5928 7093 0000 		sts (accelSampleStartTime2)+1,r23
 15609 592c 8093 0000 		sts (accelSampleStartTime2)+2,r24
 15610 5930 9093 0000 		sts (accelSampleStartTime2)+3,r25
 15611               	.L898:
 15612               	.LM1500:
 15613 5934 6091 0000 		lds r22,accelBufferCounter
 15614 5938 7091 0000 		lds r23,(accelBufferCounter)+1
 15615 593c 80E0      		ldi r24,lo8(accelBuffer2)
 15616 593e 90E0      		ldi r25,hi8(accelBuffer2)
 15617 5940 0E94 0000 		call Accel_ReadResults
 15618               	.LM1501:
 15619 5944 8091 0000 		lds r24,accelBufferCounter
 15620 5948 9091 0000 		lds r25,(accelBufferCounter)+1
 15621 594c 0396      		adiw r24,3
 15622 594e 8093 0000 		sts accelBufferCounter,r24
 15623 5952 9093 0000 		sts (accelBufferCounter)+1,r25
 15624               	.LM1502:
 15625 5956 8855      		subi r24,lo8(600)
 15626 5958 9240      		sbci r25,hi8(600)
 15627 595a 01F4      		brne .L899
 15628               	.LM1503:
 15629 595c 1092 0000 		sts accelBufferCounter,__zero_reg__
 15630 5960 1092 0000 		sts (accelBufferCounter)+1,__zero_reg__
 15631               	.LM1504:
 15632 5964 81E0      		ldi r24,lo8(1)
 15633 5966 8093 0000 		sts accelBufferToWriteTo,r24
 15634               	.LM1505:
 15635 596a 8093 0000 		sts okToSendAccelBuffer2,r24
 15636               	.L899:
 15637               	/* epilogue start */
 15638               	.LM1506:
 15639 596e FF91      		pop r31
 15640 5970 EF91      		pop r30
 15641 5972 BF91      		pop r27
 15642 5974 AF91      		pop r26
 15643 5976 9F91      		pop r25
 15644 5978 8F91      		pop r24
 15645 597a 7F91      		pop r23
 15646 597c 6F91      		pop r22
 15647 597e 5F91      		pop r21
 15648 5980 4F91      		pop r20
 15649 5982 3F91      		pop r19
 15650 5984 2F91      		pop r18
 15651 5986 0F90      		pop r0
 15652 5988 0BBE      		out 59-0,r0
 15653 598a 0F90      		pop r0
 15654 598c 0FBE      		out __SREG__,r0
 15655 598e 0F90      		pop r0
 15656 5990 1F90      		pop __zero_reg__
 15657 5992 1895      		reti
 15658               	.LFE111:
 15660               	.global	Sensors_Init
 15662               	Sensors_Init:
 15663               	.LFB112:
 15664               	.LM1507:
 15665 5994 CF93      		push r28
 15666 5996 DF93      		push r29
 15667               	/* prologue: function */
 15668               	/* frame size = 0 */
 15669               	.LBB687:
 15670               	.LBB688:
 15671               	.LM1508:
 15672 5998 8AEC      		ldi r24,lo8(458)
 15673 599a 91E0      		ldi r25,hi8(458)
 15674 599c 42E0      		ldi r20,lo8(2)
 15675 599e DC01      		movw r26,r24
 15676 59a0 4C93      		st X,r20
 15677               	.LBB689:
 15678               	.LM1509:
 15679 59a2 E0E2      		ldi r30,lo8(32)
 15680 59a4 F0E0      		ldi r31,hi8(32)
 15681               	/* #APP */
 15682               	 ;  304 "sensorsCS.c" 1
 15683 59a6 E491      		lpm r30, Z
 15684               		
 15685               	 ;  0 "" 2
 15686               	.LVL1333:
 15687               	/* #NOAPP */
 15688               	.LBE689:
 15689               	.LM1510:
 15690 59a8 1C92      		st X,__zero_reg__
 15691               	.LBE688:
 15692               	.LBE687:
 15693               	.LM1511:
 15694 59aa A0E0      		ldi r26,lo8(512)
 15695 59ac B2E0      		ldi r27,hi8(512)
 15696 59ae 1C96      		adiw r26,12
 15697 59b0 EC93      		st X,r30
 15698 59b2 1C97      		sbiw r26,12
 15699               	.LBB690:
 15700               	.LBB691:
 15701               	.LM1512:
 15702 59b4 EC01      		movw r28,r24
 15703 59b6 4883      		st Y,r20
 15704               	.LBB692:
 15705               	.LM1513:
 15706 59b8 E1E2      		ldi r30,lo8(33)
 15707 59ba F0E0      		ldi r31,hi8(33)
 15708               	.LVL1334:
 15709               	/* #APP */
 15710               	 ;  304 "sensorsCS.c" 1
 15711 59bc E491      		lpm r30, Z
 15712               		
 15713               	 ;  0 "" 2
 15714               	.LVL1335:
 15715               	/* #NOAPP */
 15716               	.LBE692:
 15717               	.LM1514:
 15718 59be 1882      		st Y,__zero_reg__
 15719               	.LBE691:
 15720               	.LBE690:
 15721               	.LM1515:
 15722 59c0 1D96      		adiw r26,13
 15723 59c2 EC93      		st X,r30
 15724 59c4 1D97      		sbiw r26,13
 15725               	.LBB693:
 15726               	.LBB694:
 15727               	.LM1516:
 15728 59c6 4883      		st Y,r20
 15729               	.LBB695:
 15730               	.LM1517:
 15731 59c8 E4E2      		ldi r30,lo8(36)
 15732 59ca F0E0      		ldi r31,hi8(36)
 15733               	.LVL1336:
 15734               	/* #APP */
 15735               	 ;  304 "sensorsCS.c" 1
 15736 59cc E491      		lpm r30, Z
 15737               		
 15738               	 ;  0 "" 2
 15739               	.LVL1337:
 15740               	/* #NOAPP */
 15741               	.LBE695:
 15742               	.LM1518:
 15743 59ce 1882      		st Y,__zero_reg__
 15744               	.LBE694:
 15745               	.LBE693:
 15746               	.LM1519:
 15747 59d0 20E4      		ldi r18,lo8(576)
 15748 59d2 32E0      		ldi r19,hi8(576)
 15749 59d4 E901      		movw r28,r18
 15750 59d6 EC87      		std Y+12,r30
 15751               	.LBB696:
 15752               	.LBB697:
 15753               	.LM1520:
 15754 59d8 FC01      		movw r30,r24
 15755               	.LVL1338:
 15756 59da 4083      		st Z,r20
 15757               	.LBB698:
 15758               	.LM1521:
 15759 59dc E5E2      		ldi r30,lo8(37)
 15760 59de F0E0      		ldi r31,hi8(37)
 15761               	/* #APP */
 15762               	 ;  304 "sensorsCS.c" 1
 15763 59e0 E491      		lpm r30, Z
 15764               		
 15765               	 ;  0 "" 2
 15766               	.LVL1339:
 15767               	/* #NOAPP */
 15768               	.LBE698:
 15769               	.LM1522:
 15770 59e2 EC01      		movw r28,r24
 15771 59e4 1882      		st Y,__zero_reg__
 15772               	.LBE697:
 15773               	.LBE696:
 15774               	.LM1523:
 15775 59e6 E901      		movw r28,r18
 15776 59e8 ED87      		std Y+13,r30
 15777               	.LM1524:
 15778 59ea 61E0      		ldi r22,lo8(1)
 15779 59ec 9096      		adiw r26,32
 15780 59ee 6C93      		st X,r22
 15781 59f0 9097      		sbiw r26,32
 15782               	.LM1525:
 15783 59f2 70E2      		ldi r23,lo8(32)
 15784 59f4 9196      		adiw r26,33
 15785 59f6 7C93      		st X,r23
 15786 59f8 9197      		sbiw r26,33
 15787               	.LM1526:
 15788 59fa 9896      		adiw r26,40
 15789 59fc 6C93      		st X,r22
 15790 59fe 9897      		sbiw r26,40
 15791               	.LM1527:
 15792 5a00 88E2      		ldi r24,lo8(40)
 15793 5a02 9996      		adiw r26,41
 15794 5a04 8C93      		st X,r24
 15795 5a06 9997      		sbiw r26,41
 15796               	.LM1528:
 15797 5a08 D096      		adiw r26,48
 15798 5a0a 6C93      		st X,r22
 15799 5a0c D097      		sbiw r26,48
 15800               	.LM1529:
 15801 5a0e 80E3      		ldi r24,lo8(48)
 15802 5a10 D196      		adiw r26,49
 15803 5a12 8C93      		st X,r24
 15804 5a14 D197      		sbiw r26,49
 15805               	.LM1530:
 15806 5a16 D896      		adiw r26,56
 15807 5a18 6C93      		st X,r22
 15808 5a1a D897      		sbiw r26,56
 15809               	.LM1531:
 15810 5a1c 88E0      		ldi r24,lo8(8)
 15811 5a1e D996      		adiw r26,57
 15812 5a20 8C93      		st X,r24
 15813 5a22 D997      		sbiw r26,57
 15814               	.LM1532:
 15815 5a24 1496      		adiw r26,4
 15816 5a26 8C91      		ld r24,X
 15817 5a28 1497      		sbiw r26,4
 15818 5a2a 887F      		andi r24,lo8(-8)
 15819 5a2c 8460      		ori r24,lo8(4)
 15820 5a2e 1496      		adiw r26,4
 15821 5a30 8C93      		st X,r24
 15822 5a32 1497      		sbiw r26,4
 15823               	.LM1533:
 15824 5a34 1296      		adiw r26,2
 15825 5a36 7C93      		st X,r23
 15826 5a38 1297      		sbiw r26,2
 15827               	.LM1534:
 15828 5a3a 1396      		adiw r26,3
 15829 5a3c 8C91      		ld r24,X
 15830 5a3e 1397      		sbiw r26,3
 15831 5a40 806C      		ori r24,lo8(-64)
 15832 5a42 1396      		adiw r26,3
 15833 5a44 8C93      		st X,r24
 15834 5a46 1397      		sbiw r26,3
 15835               	.LM1535:
 15836 5a48 1196      		adiw r26,1
 15837 5a4a 8C91      		ld r24,X
 15838 5a4c 1197      		sbiw r26,1
 15839 5a4e 8860      		ori r24,lo8(8)
 15840 5a50 1196      		adiw r26,1
 15841 5a52 8C93      		st X,r24
 15842 5a54 1197      		sbiw r26,1
 15843               	.LM1536:
 15844 5a56 9896      		adiw r26,40
 15845 5a58 8C91      		ld r24,X
 15846 5a5a 9897      		sbiw r26,40
 15847 5a5c 8068      		ori r24,lo8(-128)
 15848 5a5e 9896      		adiw r26,40
 15849 5a60 8C93      		st X,r24
 15850 5a62 9897      		sbiw r26,40
 15851               	.LM1537:
 15852 5a64 D096      		adiw r26,48
 15853 5a66 8C91      		ld r24,X
 15854 5a68 D097      		sbiw r26,48
 15855 5a6a 8068      		ori r24,lo8(-128)
 15856 5a6c D096      		adiw r26,48
 15857 5a6e 8C93      		st X,r24
 15858 5a70 D097      		sbiw r26,48
 15859               	.LM1538:
 15860 5a72 9096      		adiw r26,32
 15861 5a74 8C91      		ld r24,X
 15862 5a76 9097      		sbiw r26,32
 15863 5a78 8068      		ori r24,lo8(-128)
 15864 5a7a 9096      		adiw r26,32
 15865 5a7c 8C93      		st X,r24
 15866 5a7e 9097      		sbiw r26,32
 15867               	.LM1539:
 15868 5a80 D896      		adiw r26,56
 15869 5a82 8C91      		ld r24,X
 15870 5a84 D897      		sbiw r26,56
 15871 5a86 8068      		ori r24,lo8(-128)
 15872 5a88 D896      		adiw r26,56
 15873 5a8a 8C93      		st X,r24
 15874 5a8c D897      		sbiw r26,56
 15875               	.LM1540:
 15876 5a8e 6C93      		st X,r22
 15877               	.LBB699:
 15878               	.LBB700:
 15879               	.LBB701:
 15880               	.LBB702:
 15881               	.LM1541:
 15882 5a90 40E0      		ldi r20,lo8(-28672)
 15883 5a92 50E9      		ldi r21,hi8(-28672)
 15884 5a94 CA01      		movw r24,r20
 15885               	.LVL1340:
 15886               	/* #APP */
 15887               	 ;  105 "/usr/local/CrossPack-AVR-20100115/lib/gcc/avr/4.3.3/../../../../avr/include/util/delay_bas
 15888 5a96 0197      		1: sbiw r24,1
 15889 5a98 01F4      		brne 1b
 15890               	 ;  0 "" 2
 15891               	/* #NOAPP */
 15892               	.LBE702:
 15893               	.LBE701:
 15894               	.LBE700:
 15895               	.LBE699:
 15896               	.LM1542:
 15897 5a9a 5696      		adiw r26,22
 15898 5a9c 8D91      		ld r24,X+
 15899 5a9e 9C91      		ld r25,X
 15900 5aa0 5797      		sbiw r26,22+1
 15901               	.LVL1341:
 15902 5aa2 8093 0000 		sts zeroOffsetA,r24
 15903 5aa6 9093 0000 		sts (zeroOffsetA)+1,r25
 15904               	.LM1543:
 15905 5aaa 8FE0      		ldi r24,lo8(15)
 15906 5aac F901      		movw r30,r18
 15907               	.LVL1342:
 15908 5aae 80A3      		std Z+32,r24
 15909               	.LM1544:
 15910 5ab0 8CE0      		ldi r24,lo8(12)
 15911 5ab2 81A3      		std Z+33,r24
 15912               	.LM1545:
 15913 5ab4 8481      		ldd r24,Z+4
 15914 5ab6 887F      		andi r24,lo8(-8)
 15915 5ab8 8460      		ori r24,lo8(4)
 15916 5aba 8483      		std Z+4,r24
 15917               	.LM1546:
 15918 5abc 7283      		std Z+2,r23
 15919               	.LM1547:
 15920 5abe 8381      		ldd r24,Z+3
 15921 5ac0 806C      		ori r24,lo8(-64)
 15922 5ac2 8383      		std Z+3,r24
 15923               	.LM1548:
 15924 5ac4 8181      		ldd r24,Z+1
 15925 5ac6 8861      		ori r24,lo8(24)
 15926 5ac8 8183      		std Z+1,r24
 15927               	.LM1549:
 15928 5aca 80A1      		ldd r24,Z+32
 15929 5acc 8068      		ori r24,lo8(-128)
 15930 5ace 80A3      		std Z+32,r24
 15931               	.LM1550:
 15932 5ad0 6083      		st Z,r22
 15933               	.LBB703:
 15934               	.LBB704:
 15935               	.LBB705:
 15936               	.LBB706:
 15937               	.LM1551:
 15938 5ad2 CA01      		movw r24,r20
 15939               	.LVL1343:
 15940               	/* #APP */
 15941               	 ;  105 "/usr/local/CrossPack-AVR-20100115/lib/gcc/avr/4.3.3/../../../../avr/include/util/delay_bas
 15942 5ad4 0197      		1: sbiw r24,1
 15943 5ad6 01F4      		brne 1b
 15944               	 ;  0 "" 2
 15945               	/* #NOAPP */
 15946               	.LBE706:
 15947               	.LBE705:
 15948               	.LBE704:
 15949               	.LBE703:
 15950               	.LM1552:
 15951 5ad8 D901      		movw r26,r18
 15952 5ada 5696      		adiw r26,22
 15953 5adc 8D91      		ld r24,X+
 15954 5ade 9C91      		ld r25,X
 15955 5ae0 5797      		sbiw r26,22+1
 15956               	.LVL1344:
 15957 5ae2 8093 0000 		sts zeroOffsetB,r24
 15958 5ae6 9093 0000 		sts (zeroOffsetB)+1,r25
 15959               	.LM1553:
 15960 5aea E0E2      		ldi r30,lo8(1568)
 15961 5aec F6E0      		ldi r31,hi8(1568)
 15962 5aee 84E0      		ldi r24,lo8(4)
 15963 5af0 8183      		std Z+1,r24
 15964               	.LM1554:
 15965 5af2 8583      		std Z+5,r24
 15966               	.LM1555:
 15967 5af4 E0E4      		ldi r30,lo8(2368)
 15968 5af6 F9E0      		ldi r31,hi8(2368)
 15969 5af8 80E0      		ldi r24,lo8(768)
 15970 5afa 93E0      		ldi r25,hi8(768)
 15971 5afc 86A3      		std Z+38,r24
 15972 5afe 97A3      		std Z+39,r25
 15973               	.LM1556:
 15974 5b00 8081      		ld r24,Z
 15975 5b02 807F      		andi r24,lo8(-16)
 15976 5b04 8560      		ori r24,lo8(5)
 15977 5b06 8083      		st Z,r24
 15978               	.LM1557:
 15979 5b08 8681      		ldd r24,Z+6
 15980 5b0a 8360      		ori r24,lo8(3)
 15981 5b0c 8683      		std Z+6,r24
 15982               	/* epilogue start */
 15983               	.LM1558:
 15984 5b0e DF91      		pop r29
 15985 5b10 CF91      		pop r28
 15986 5b12 0895      		ret
 15987               	.LFE112:
 15989               	.global	Sensors_ReadTemperature
 15991               	Sensors_ReadTemperature:
 15992               	.LFB113:
 15993               	.LM1559:
 15994               	/* prologue: function */
 15995               	/* frame size = 0 */
 15996               	.LM1560:
 15997 5b14 E0E0      		ldi r30,lo8(512)
 15998 5b16 F2E0      		ldi r31,hi8(512)
 15999 5b18 2289      		ldd r18,Z+18
 16000 5b1a 3389      		ldd r19,Z+19
 16001               	.LM1561:
 16002 5b1c C901      		movw r24,r18
 16003               	/* epilogue start */
 16004 5b1e 0895      		ret
 16005               	.LFE113:
 16007               	.global	Sensors_ReadRespiration
 16009               	Sensors_ReadRespiration:
 16010               	.LFB114:
 16011               	.LM1562:
 16012               	/* prologue: function */
 16013               	/* frame size = 0 */
 16014               	.LM1563:
 16015 5b20 E0E4      		ldi r30,lo8(576)
 16016 5b22 F2E0      		ldi r31,hi8(576)
 16017 5b24 2089      		ldd r18,Z+16
 16018 5b26 3189      		ldd r19,Z+17
 16019               	.LM1564:
 16020 5b28 C901      		movw r24,r18
 16021               	/* epilogue start */
 16022 5b2a 0895      		ret
 16023               	.LFE114:
 16025               	.global	Sensors_ReadEKG
 16027               	Sensors_ReadEKG:
 16028               	.LFB115:
 16029               	.LM1565:
 16030               	/* prologue: function */
 16031               	/* frame size = 0 */
 16032               	.LM1566:
 16033 5b2c E0E0      		ldi r30,lo8(512)
 16034 5b2e F2E0      		ldi r31,hi8(512)
 16035 5b30 2089      		ldd r18,Z+16
 16036 5b32 3189      		ldd r19,Z+17
 16037               	.LM1567:
 16038 5b34 C901      		movw r24,r18
 16039               	/* epilogue start */
 16040 5b36 0895      		ret
 16041               	.LFE115:
 16043               	.global	Sensors_ReadHumidity
 16045               	Sensors_ReadHumidity:
 16046               	.LFB116:
 16047               	.LM1568:
 16048 5b38 0F93      		push r16
 16049 5b3a 1F93      		push r17
 16050               	/* prologue: function */
 16051               	/* frame size = 0 */
 16052               	.LM1569:
 16053 5b3c E0E0      		ldi r30,lo8(512)
 16054 5b3e F2E0      		ldi r31,hi8(512)
 16055 5b40 6489      		ldd r22,Z+20
 16056 5b42 7589      		ldd r23,Z+21
 16057 5b44 0091 0000 		lds r16,zeroOffsetA
 16058 5b48 1091 0000 		lds r17,(zeroOffsetA)+1
 16059 5b4c 601B      		sub r22,r16
 16060 5b4e 710B      		sbc r23,r17
 16061 5b50 80E0      		ldi r24,lo8(0)
 16062 5b52 90E0      		ldi r25,hi8(0)
 16063               	.LVL1345:
 16064               	.LM1570:
 16065 5b54 22E6      		ldi r18,lo8(19554)
 16066 5b56 3CE4      		ldi r19,hi8(19554)
 16067 5b58 40E0      		ldi r20,hlo8(19554)
 16068 5b5a 50E0      		ldi r21,hhi8(19554)
 16069 5b5c 0E94 0000 		call __mulsi3
 16070 5b60 9B01      		movw r18,r22
 16071 5b62 AC01      		movw r20,r24
 16072               	.LVL1346:
 16073               	.LM1571:
 16074 5b64 8EE4      		ldi r24,lo8(2382)
 16075 5b66 99E0      		ldi r25,hi8(2382)
 16076               	.LVL1347:
 16077 5b68 089F      		mul r16,r24
 16078 5b6a B001      		movw r22,r0
 16079 5b6c 099F      		mul r16,r25
 16080 5b6e 700D      		add r23,r0
 16081 5b70 189F      		mul r17,r24
 16082 5b72 700D      		add r23,r0
 16083 5b74 1124      		clr r1
 16084 5b76 80E0      		ldi r24,lo8(0)
 16085 5b78 90E0      		ldi r25,hi8(0)
 16086 5b7a 6050      		subi r22,lo8(-(-9756672))
 16087 5b7c 704E      		sbci r23,hi8(-(-9756672))
 16088 5b7e 8449      		sbci r24,hlo8(-(-9756672))
 16089 5b80 9040      		sbci r25,hhi8(-(-9756672))
 16090 5b82 620F      		add r22,r18
 16091 5b84 731F      		adc r23,r19
 16092 5b86 841F      		adc r24,r20
 16093 5b88 951F      		adc r25,r21
 16094 5b8a 20E0      		ldi r18,lo8(4096)
 16095 5b8c 30E1      		ldi r19,hi8(4096)
 16096               	.LVL1348:
 16097 5b8e 201B      		sub r18,r16
 16098 5b90 310B      		sbc r19,r17
 16099 5b92 40E0      		ldi r20,lo8(0)
 16100 5b94 50E0      		ldi r21,hi8(0)
 16101 5b96 0E94 0000 		call __udivmodsi4
 16102 5b9a CA01      		movw r24,r20
 16103 5b9c B901      		movw r22,r18
 16104 5b9e 2AE0      		ldi r18,lo8(10)
 16105 5ba0 30E0      		ldi r19,hi8(10)
 16106 5ba2 40E0      		ldi r20,hlo8(10)
 16107 5ba4 50E0      		ldi r21,hhi8(10)
 16108 5ba6 0E94 0000 		call __udivmodsi4
 16109 5baa C901      		movw r24,r18
 16110               	/* epilogue start */
 16111               	.LM1572:
 16112 5bac 1F91      		pop r17
 16113 5bae 0F91      		pop r16
 16114 5bb0 0895      		ret
 16115               	.LFE116:
 16117               	.global	Sensors_ResetTemperatureBuffers
 16119               	Sensors_ResetTemperatureBuffers:
 16120               	.LFB117:
 16121               	.LM1573:
 16122               	/* prologue: function */
 16123               	/* frame size = 0 */
 16124               	.LM1574:
 16125 5bb2 1092 0000 		sts temperatureBufferCounter,__zero_reg__
 16126 5bb6 1092 0000 		sts (temperatureBufferCounter)+1,__zero_reg__
 16127               	.LM1575:
 16128 5bba 81E0      		ldi r24,lo8(1)
 16129 5bbc 8093 0000 		sts temperatureBufferToWriteTo,r24
 16130               	.LM1576:
 16131 5bc0 1092 0000 		sts okToSendTemperatureBuffer1,__zero_reg__
 16132               	.LM1577:
 16133 5bc4 1092 0000 		sts okToSendTemperatureBuffer2,__zero_reg__
 16134               	/* epilogue start */
 16135               	.LM1578:
 16136 5bc8 0895      		ret
 16137               	.LFE117:
 16139               	.global	Sensors_ResetRespirationBuffers
 16141               	Sensors_ResetRespirationBuffers:
 16142               	.LFB118:
 16143               	.LM1579:
 16144               	/* prologue: function */
 16145               	/* frame size = 0 */
 16146               	.LM1580:
 16147 5bca 1092 0000 		sts respirationBufferCounter,__zero_reg__
 16148 5bce 1092 0000 		sts (respirationBufferCounter)+1,__zero_reg__
 16149               	.LM1581:
 16150 5bd2 81E0      		ldi r24,lo8(1)
 16151 5bd4 8093 0000 		sts respirationBufferToWriteTo,r24
 16152               	.LM1582:
 16153 5bd8 1092 0000 		sts okToSendRespirationBuffer1,__zero_reg__
 16154               	.LM1583:
 16155 5bdc 1092 0000 		sts okToSendRespirationBuffer2,__zero_reg__
 16156               	/* epilogue start */
 16157               	.LM1584:
 16158 5be0 0895      		ret
 16159               	.LFE118:
 16161               	.global	Sensors_ResetEKGBuffers
 16163               	Sensors_ResetEKGBuffers:
 16164               	.LFB119:
 16165               	.LM1585:
 16166               	/* prologue: function */
 16167               	/* frame size = 0 */
 16168               	.LM1586:
 16169 5be2 1092 0000 		sts EKGBufferCounter,__zero_reg__
 16170 5be6 1092 0000 		sts (EKGBufferCounter)+1,__zero_reg__
 16171               	.LM1587:
 16172 5bea 81E0      		ldi r24,lo8(1)
 16173 5bec 8093 0000 		sts EKGBufferToWriteTo,r24
 16174               	.LM1588:
 16175 5bf0 1092 0000 		sts okToSendEKGBuffer1,__zero_reg__
 16176               	.LM1589:
 16177 5bf4 1092 0000 		sts okToSendEKGBuffer2,__zero_reg__
 16178               	/* epilogue start */
 16179               	.LM1590:
 16180 5bf8 0895      		ret
 16181               	.LFE119:
 16183               	.global	Sensors_ResetHumidityBuffers
 16185               	Sensors_ResetHumidityBuffers:
 16186               	.LFB120:
 16187               	.LM1591:
 16188               	/* prologue: function */
 16189               	/* frame size = 0 */
 16190               	.LM1592:
 16191 5bfa 1092 0000 		sts humidityBufferCounter,__zero_reg__
 16192 5bfe 1092 0000 		sts (humidityBufferCounter)+1,__zero_reg__
 16193               	.LM1593:
 16194 5c02 81E0      		ldi r24,lo8(1)
 16195 5c04 8093 0000 		sts humidityBufferToWriteTo,r24
 16196               	.LM1594:
 16197 5c08 1092 0000 		sts okToSendHumidityBuffer1,__zero_reg__
 16198               	.LM1595:
 16199 5c0c 1092 0000 		sts okToSendHumidityBuffer2,__zero_reg__
 16200               	/* epilogue start */
 16201               	.LM1596:
 16202 5c10 0895      		ret
 16203               	.LFE120:
 16205               	.global	__vector_83
 16207               	__vector_83:
 16208               	.LFB121:
 16209               	.LM1597:
 16210 5c12 1F92      		push __zero_reg__
 16211 5c14 0F92      		push r0
 16212 5c16 0FB6      		in r0,__SREG__
 16213 5c18 0F92      		push r0
 16214 5c1a 0BB6      		in r0,59-0
 16215 5c1c 0F92      		push r0
 16216 5c1e 1124      		clr __zero_reg__
 16217 5c20 0F93      		push r16
 16218 5c22 1F93      		push r17
 16219 5c24 2F93      		push r18
 16220 5c26 3F93      		push r19
 16221 5c28 4F93      		push r20
 16222 5c2a 5F93      		push r21
 16223 5c2c 6F93      		push r22
 16224 5c2e 7F93      		push r23
 16225 5c30 8F93      		push r24
 16226 5c32 9F93      		push r25
 16227 5c34 AF93      		push r26
 16228 5c36 BF93      		push r27
 16229 5c38 EF93      		push r30
 16230 5c3a FF93      		push r31
 16231               	/* prologue: Signal */
 16232               	/* frame size = 0 */
 16233               	.LM1598:
 16234 5c3c 8091 0000 		lds r24,recording
 16235 5c40 8823      		tst r24
 16236 5c42 01F4      		brne .+2
 16237 5c44 00C0      		rjmp .L936
 16238               	.LM1599:
 16239 5c46 8091 0000 		lds r24,wantToRecordRespiration
 16240 5c4a 8823      		tst r24
 16241 5c4c 01F4      		brne .+2
 16242 5c4e 00C0      		rjmp .L920
 16243               	.LM1600:
 16244 5c50 8091 0000 		lds r24,respirationBufferToWriteTo
 16245 5c54 8130      		cpi r24,lo8(1)
 16246 5c56 01F4      		brne .L921
 16247               	.LM1601:
 16248 5c58 8091 0000 		lds r24,respirationBufferCounter
 16249 5c5c 9091 0000 		lds r25,(respirationBufferCounter)+1
 16250 5c60 892B      		or r24,r25
 16251 5c62 01F4      		brne .L922
 16252               	.LM1602:
 16253 5c64 0E94 0000 		call Time_Get32BitTimer
 16254 5c68 6093 0000 		sts respirationSampleStartTime1,r22
 16255 5c6c 7093 0000 		sts (respirationSampleStartTime1)+1,r23
 16256 5c70 8093 0000 		sts (respirationSampleStartTime1)+2,r24
 16257 5c74 9093 0000 		sts (respirationSampleStartTime1)+3,r25
 16258               	.L922:
 16259               	.LM1603:
 16260 5c78 8091 0000 		lds r24,respirationBufferCounter
 16261 5c7c 9091 0000 		lds r25,(respirationBufferCounter)+1
 16262               	.LBB707:
 16263               	.LBB708:
 16264               	.LM1604:
 16265 5c80 2091 5002 		lds r18,592
 16266 5c84 3091 5102 		lds r19,(592)+1
 16267               	.LBE708:
 16268               	.LBE707:
 16269               	.LM1605:
 16270 5c88 FC01      		movw r30,r24
 16271 5c8a EE0F      		lsl r30
 16272 5c8c FF1F      		rol r31
 16273 5c8e E050      		subi r30,lo8(-(respirationBuffer1))
 16274 5c90 F040      		sbci r31,hi8(-(respirationBuffer1))
 16275 5c92 2083      		st Z,r18
 16276 5c94 3183      		std Z+1,r19
 16277               	.LM1606:
 16278 5c96 0196      		adiw r24,1
 16279 5c98 8093 0000 		sts respirationBufferCounter,r24
 16280 5c9c 9093 0000 		sts (respirationBufferCounter)+1,r25
 16281               	.LM1607:
 16282 5ca0 883C      		cpi r24,200
 16283 5ca2 9105      		cpc r25,__zero_reg__
 16284 5ca4 01F4      		brne .L920
 16285               	.LM1608:
 16286 5ca6 1092 0000 		sts respirationBufferCounter,__zero_reg__
 16287 5caa 1092 0000 		sts (respirationBufferCounter)+1,__zero_reg__
 16288               	.LM1609:
 16289 5cae 82E0      		ldi r24,lo8(2)
 16290 5cb0 8093 0000 		sts respirationBufferToWriteTo,r24
 16291               	.LM1610:
 16292 5cb4 81E0      		ldi r24,lo8(1)
 16293 5cb6 8093 0000 		sts okToSendRespirationBuffer1,r24
 16294 5cba 00C0      		rjmp .L920
 16295               	.L921:
 16296               	.LM1611:
 16297 5cbc 8230      		cpi r24,lo8(2)
 16298 5cbe 01F4      		brne .L920
 16299               	.LM1612:
 16300 5cc0 8091 0000 		lds r24,respirationBufferCounter
 16301 5cc4 9091 0000 		lds r25,(respirationBufferCounter)+1
 16302 5cc8 892B      		or r24,r25
 16303 5cca 01F4      		brne .L923
 16304               	.LM1613:
 16305 5ccc 0E94 0000 		call Time_Get32BitTimer
 16306 5cd0 6093 0000 		sts respirationSampleStartTime2,r22
 16307 5cd4 7093 0000 		sts (respirationSampleStartTime2)+1,r23
 16308 5cd8 8093 0000 		sts (respirationSampleStartTime2)+2,r24
 16309 5cdc 9093 0000 		sts (respirationSampleStartTime2)+3,r25
 16310               	.L923:
 16311               	.LM1614:
 16312 5ce0 8091 0000 		lds r24,respirationBufferCounter
 16313 5ce4 9091 0000 		lds r25,(respirationBufferCounter)+1
 16314               	.LBB709:
 16315               	.LBB710:
 16316               	.LM1615:
 16317 5ce8 2091 5002 		lds r18,592
 16318 5cec 3091 5102 		lds r19,(592)+1
 16319               	.LBE710:
 16320               	.LBE709:
 16321               	.LM1616:
 16322 5cf0 FC01      		movw r30,r24
 16323 5cf2 EE0F      		lsl r30
 16324 5cf4 FF1F      		rol r31
 16325 5cf6 E050      		subi r30,lo8(-(respirationBuffer2))
 16326 5cf8 F040      		sbci r31,hi8(-(respirationBuffer2))
 16327 5cfa 2083      		st Z,r18
 16328 5cfc 3183      		std Z+1,r19
 16329               	.LM1617:
 16330 5cfe 0196      		adiw r24,1
 16331 5d00 8093 0000 		sts respirationBufferCounter,r24
 16332 5d04 9093 0000 		sts (respirationBufferCounter)+1,r25
 16333               	.LM1618:
 16334 5d08 883C      		cpi r24,200
 16335 5d0a 9105      		cpc r25,__zero_reg__
 16336 5d0c 01F4      		brne .L920
 16337               	.LM1619:
 16338 5d0e 1092 0000 		sts respirationBufferCounter,__zero_reg__
 16339 5d12 1092 0000 		sts (respirationBufferCounter)+1,__zero_reg__
 16340               	.LM1620:
 16341 5d16 81E0      		ldi r24,lo8(1)
 16342 5d18 8093 0000 		sts respirationBufferToWriteTo,r24
 16343               	.LM1621:
 16344 5d1c 8093 0000 		sts okToSendRespirationBuffer2,r24
 16345               	.L920:
 16346               	.LM1622:
 16347 5d20 8091 0000 		lds r24,wantToRecordEKG
 16348 5d24 8823      		tst r24
 16349 5d26 01F4      		brne .+2
 16350 5d28 00C0      		rjmp .L924
 16351               	.LM1623:
 16352 5d2a 8091 0000 		lds r24,EKGBufferToWriteTo
 16353 5d2e 8130      		cpi r24,lo8(1)
 16354 5d30 01F4      		brne .L925
 16355               	.LM1624:
 16356 5d32 8091 0000 		lds r24,EKGBufferCounter
 16357 5d36 9091 0000 		lds r25,(EKGBufferCounter)+1
 16358 5d3a 892B      		or r24,r25
 16359 5d3c 01F4      		brne .L926
 16360               	.LM1625:
 16361 5d3e 0E94 0000 		call Time_Get32BitTimer
 16362 5d42 6093 0000 		sts EKGSampleStartTime1,r22
 16363 5d46 7093 0000 		sts (EKGSampleStartTime1)+1,r23
 16364 5d4a 8093 0000 		sts (EKGSampleStartTime1)+2,r24
 16365 5d4e 9093 0000 		sts (EKGSampleStartTime1)+3,r25
 16366               	.L926:
 16367               	.LM1626:
 16368 5d52 8091 0000 		lds r24,EKGBufferCounter
 16369 5d56 9091 0000 		lds r25,(EKGBufferCounter)+1
 16370               	.LBB711:
 16371               	.LBB712:
 16372               	.LM1627:
 16373 5d5a 2091 1002 		lds r18,528
 16374 5d5e 3091 1102 		lds r19,(528)+1
 16375               	.LBE712:
 16376               	.LBE711:
 16377               	.LM1628:
 16378 5d62 FC01      		movw r30,r24
 16379 5d64 EE0F      		lsl r30
 16380 5d66 FF1F      		rol r31
 16381 5d68 E050      		subi r30,lo8(-(EKGBuffer1))
 16382 5d6a F040      		sbci r31,hi8(-(EKGBuffer1))
 16383 5d6c 2083      		st Z,r18
 16384 5d6e 3183      		std Z+1,r19
 16385               	.LM1629:
 16386 5d70 0196      		adiw r24,1
 16387 5d72 8093 0000 		sts EKGBufferCounter,r24
 16388 5d76 9093 0000 		sts (EKGBufferCounter)+1,r25
 16389               	.LM1630:
 16390 5d7a 883C      		cpi r24,200
 16391 5d7c 9105      		cpc r25,__zero_reg__
 16392 5d7e 01F4      		brne .L924
 16393               	.LM1631:
 16394 5d80 1092 0000 		sts EKGBufferCounter,__zero_reg__
 16395 5d84 1092 0000 		sts (EKGBufferCounter)+1,__zero_reg__
 16396               	.LM1632:
 16397 5d88 82E0      		ldi r24,lo8(2)
 16398 5d8a 8093 0000 		sts EKGBufferToWriteTo,r24
 16399               	.LM1633:
 16400 5d8e 81E0      		ldi r24,lo8(1)
 16401 5d90 8093 0000 		sts okToSendEKGBuffer1,r24
 16402 5d94 00C0      		rjmp .L924
 16403               	.L925:
 16404               	.LM1634:
 16405 5d96 8230      		cpi r24,lo8(2)
 16406 5d98 01F4      		brne .L924
 16407               	.LM1635:
 16408 5d9a 8091 0000 		lds r24,EKGBufferCounter
 16409 5d9e 9091 0000 		lds r25,(EKGBufferCounter)+1
 16410 5da2 892B      		or r24,r25
 16411 5da4 01F4      		brne .L927
 16412               	.LM1636:
 16413 5da6 0E94 0000 		call Time_Get32BitTimer
 16414 5daa 6093 0000 		sts EKGSampleStartTime2,r22
 16415 5dae 7093 0000 		sts (EKGSampleStartTime2)+1,r23
 16416 5db2 8093 0000 		sts (EKGSampleStartTime2)+2,r24
 16417 5db6 9093 0000 		sts (EKGSampleStartTime2)+3,r25
 16418               	.L927:
 16419               	.LM1637:
 16420 5dba 8091 0000 		lds r24,EKGBufferCounter
 16421 5dbe 9091 0000 		lds r25,(EKGBufferCounter)+1
 16422               	.LBB713:
 16423               	.LBB714:
 16424               	.LM1638:
 16425 5dc2 2091 1002 		lds r18,528
 16426 5dc6 3091 1102 		lds r19,(528)+1
 16427               	.LBE714:
 16428               	.LBE713:
 16429               	.LM1639:
 16430 5dca FC01      		movw r30,r24
 16431 5dcc EE0F      		lsl r30
 16432 5dce FF1F      		rol r31
 16433 5dd0 E050      		subi r30,lo8(-(EKGBuffer2))
 16434 5dd2 F040      		sbci r31,hi8(-(EKGBuffer2))
 16435 5dd4 2083      		st Z,r18
 16436 5dd6 3183      		std Z+1,r19
 16437               	.LM1640:
 16438 5dd8 0196      		adiw r24,1
 16439 5dda 8093 0000 		sts EKGBufferCounter,r24
 16440 5dde 9093 0000 		sts (EKGBufferCounter)+1,r25
 16441               	.LM1641:
 16442 5de2 883C      		cpi r24,200
 16443 5de4 9105      		cpc r25,__zero_reg__
 16444 5de6 01F4      		brne .L924
 16445               	.LM1642:
 16446 5de8 1092 0000 		sts EKGBufferCounter,__zero_reg__
 16447 5dec 1092 0000 		sts (EKGBufferCounter)+1,__zero_reg__
 16448               	.LM1643:
 16449 5df0 81E0      		ldi r24,lo8(1)
 16450 5df2 8093 0000 		sts EKGBufferToWriteTo,r24
 16451               	.LM1644:
 16452 5df6 8093 0000 		sts okToSendEKGBuffer2,r24
 16453               	.L924:
 16454               	.LM1645:
 16455 5dfa 8091 0000 		lds r24,HZ_RefeshCounter
 16456 5dfe 9091 0000 		lds r25,(HZ_RefeshCounter)+1
 16457 5e02 0196      		adiw r24,1
 16458 5e04 8093 0000 		sts HZ_RefeshCounter,r24
 16459 5e08 9093 0000 		sts (HZ_RefeshCounter)+1,r25
 16460               	.LM1646:
 16461 5e0c 8C52      		subi r24,lo8(300)
 16462 5e0e 9140      		sbci r25,hi8(300)
 16463 5e10 01F0      		breq .+2
 16464 5e12 00C0      		rjmp .L936
 16465               	.LM1647:
 16466 5e14 1092 0000 		sts HZ_RefeshCounter,__zero_reg__
 16467 5e18 1092 0000 		sts (HZ_RefeshCounter)+1,__zero_reg__
 16468               	.LM1648:
 16469 5e1c 8091 0000 		lds r24,UNIX_Time
 16470 5e20 9091 0000 		lds r25,(UNIX_Time)+1
 16471 5e24 A091 0000 		lds r26,(UNIX_Time)+2
 16472 5e28 B091 0000 		lds r27,(UNIX_Time)+3
 16473 5e2c 0196      		adiw r24,1
 16474 5e2e A11D      		adc r26,__zero_reg__
 16475 5e30 B11D      		adc r27,__zero_reg__
 16476 5e32 8093 0000 		sts UNIX_Time,r24
 16477 5e36 9093 0000 		sts (UNIX_Time)+1,r25
 16478 5e3a A093 0000 		sts (UNIX_Time)+2,r26
 16479 5e3e B093 0000 		sts (UNIX_Time)+3,r27
 16480               	.LM1649:
 16481 5e42 8091 0000 		lds r24,rtcBlockCounter
 16482 5e46 8F5F      		subi r24,lo8(-(1))
 16483 5e48 8093 0000 		sts rtcBlockCounter,r24
 16484               	.LM1650:
 16485 5e4c 8823      		tst r24
 16486 5e4e 01F4      		brne .L928
 16487               	.LM1651:
 16488 5e50 81E0      		ldi r24,lo8(1)
 16489 5e52 8093 0000 		sts okToSendRTCBlock,r24
 16490               	.L928:
 16491               	.LM1652:
 16492 5e56 8091 0000 		lds r24,wantToRecordTemperature
 16493 5e5a 8823      		tst r24
 16494 5e5c 01F4      		brne .+2
 16495 5e5e 00C0      		rjmp .L929
 16496               	.LM1653:
 16497 5e60 8091 0000 		lds r24,temperatureBufferToWriteTo
 16498 5e64 8130      		cpi r24,lo8(1)
 16499 5e66 01F4      		brne .L930
 16500               	.LM1654:
 16501 5e68 8091 0000 		lds r24,temperatureBufferCounter
 16502 5e6c 9091 0000 		lds r25,(temperatureBufferCounter)+1
 16503 5e70 892B      		or r24,r25
 16504 5e72 01F4      		brne .L931
 16505               	.LM1655:
 16506 5e74 0E94 0000 		call Time_Get32BitTimer
 16507 5e78 6093 0000 		sts temperatureSampleStartTime1,r22
 16508 5e7c 7093 0000 		sts (temperatureSampleStartTime1)+1,r23
 16509 5e80 8093 0000 		sts (temperatureSampleStartTime1)+2,r24
 16510 5e84 9093 0000 		sts (temperatureSampleStartTime1)+3,r25
 16511               	.L931:
 16512               	.LM1656:
 16513 5e88 8091 0000 		lds r24,temperatureBufferCounter
 16514 5e8c 9091 0000 		lds r25,(temperatureBufferCounter)+1
 16515               	.LBB715:
 16516               	.LBB716:
 16517               	.LM1657:
 16518 5e90 2091 1202 		lds r18,530
 16519 5e94 3091 1302 		lds r19,(530)+1
 16520               	.LBE716:
 16521               	.LBE715:
 16522               	.LM1658:
 16523 5e98 FC01      		movw r30,r24
 16524 5e9a EE0F      		lsl r30
 16525 5e9c FF1F      		rol r31
 16526 5e9e E050      		subi r30,lo8(-(temperatureBuffer1))
 16527 5ea0 F040      		sbci r31,hi8(-(temperatureBuffer1))
 16528 5ea2 2083      		st Z,r18
 16529 5ea4 3183      		std Z+1,r19
 16530               	.LM1659:
 16531 5ea6 0196      		adiw r24,1
 16532 5ea8 8093 0000 		sts temperatureBufferCounter,r24
 16533 5eac 9093 0000 		sts (temperatureBufferCounter)+1,r25
 16534               	.LM1660:
 16535 5eb0 0A97      		sbiw r24,10
 16536 5eb2 01F4      		brne .L929
 16537               	.LM1661:
 16538 5eb4 1092 0000 		sts temperatureBufferCounter,__zero_reg__
 16539 5eb8 1092 0000 		sts (temperatureBufferCounter)+1,__zero_reg__
 16540               	.LM1662:
 16541 5ebc 82E0      		ldi r24,lo8(2)
 16542 5ebe 8093 0000 		sts temperatureBufferToWriteTo,r24
 16543               	.LM1663:
 16544 5ec2 81E0      		ldi r24,lo8(1)
 16545 5ec4 8093 0000 		sts okToSendTemperatureBuffer1,r24
 16546 5ec8 00C0      		rjmp .L929
 16547               	.L930:
 16548               	.LM1664:
 16549 5eca 8230      		cpi r24,lo8(2)
 16550 5ecc 01F4      		brne .L929
 16551               	.LM1665:
 16552 5ece 8091 0000 		lds r24,temperatureBufferCounter
 16553 5ed2 9091 0000 		lds r25,(temperatureBufferCounter)+1
 16554 5ed6 892B      		or r24,r25
 16555 5ed8 01F4      		brne .L932
 16556               	.LM1666:
 16557 5eda 0E94 0000 		call Time_Get32BitTimer
 16558 5ede 6093 0000 		sts temperatureSampleStartTime2,r22
 16559 5ee2 7093 0000 		sts (temperatureSampleStartTime2)+1,r23
 16560 5ee6 8093 0000 		sts (temperatureSampleStartTime2)+2,r24
 16561 5eea 9093 0000 		sts (temperatureSampleStartTime2)+3,r25
 16562               	.L932:
 16563               	.LM1667:
 16564 5eee 8091 0000 		lds r24,temperatureBufferCounter
 16565 5ef2 9091 0000 		lds r25,(temperatureBufferCounter)+1
 16566               	.LBB717:
 16567               	.LBB718:
 16568               	.LM1668:
 16569 5ef6 2091 1202 		lds r18,530
 16570 5efa 3091 1302 		lds r19,(530)+1
 16571               	.LBE718:
 16572               	.LBE717:
 16573               	.LM1669:
 16574 5efe FC01      		movw r30,r24
 16575 5f00 EE0F      		lsl r30
 16576 5f02 FF1F      		rol r31
 16577 5f04 E050      		subi r30,lo8(-(temperatureBuffer2))
 16578 5f06 F040      		sbci r31,hi8(-(temperatureBuffer2))
 16579 5f08 2083      		st Z,r18
 16580 5f0a 3183      		std Z+1,r19
 16581               	.LM1670:
 16582 5f0c 0196      		adiw r24,1
 16583 5f0e 8093 0000 		sts temperatureBufferCounter,r24
 16584 5f12 9093 0000 		sts (temperatureBufferCounter)+1,r25
 16585               	.LM1671:
 16586 5f16 0A97      		sbiw r24,10
 16587 5f18 01F4      		brne .L929
 16588               	.LM1672:
 16589 5f1a 1092 0000 		sts temperatureBufferCounter,__zero_reg__
 16590 5f1e 1092 0000 		sts (temperatureBufferCounter)+1,__zero_reg__
 16591               	.LM1673:
 16592 5f22 81E0      		ldi r24,lo8(1)
 16593 5f24 8093 0000 		sts temperatureBufferToWriteTo,r24
 16594               	.LM1674:
 16595 5f28 8093 0000 		sts okToSendTemperatureBuffer2,r24
 16596               	.L929:
 16597               	.LM1675:
 16598 5f2c 8091 0000 		lds r24,wantToRecordHumidity
 16599 5f30 8823      		tst r24
 16600 5f32 01F4      		brne .+2
 16601 5f34 00C0      		rjmp .L936
 16602               	.LM1676:
 16603 5f36 8091 0000 		lds r24,humidityBufferToWriteTo
 16604 5f3a 8130      		cpi r24,lo8(1)
 16605 5f3c 01F4      		brne .L933
 16606               	.LM1677:
 16607 5f3e 8091 0000 		lds r24,humidityBufferCounter
 16608 5f42 9091 0000 		lds r25,(humidityBufferCounter)+1
 16609 5f46 892B      		or r24,r25
 16610 5f48 01F4      		brne .L934
 16611               	.LM1678:
 16612 5f4a 0E94 0000 		call Time_Get32BitTimer
 16613 5f4e 6093 0000 		sts humiditySampleStartTime1,r22
 16614 5f52 7093 0000 		sts (humiditySampleStartTime1)+1,r23
 16615 5f56 8093 0000 		sts (humiditySampleStartTime1)+2,r24
 16616 5f5a 9093 0000 		sts (humiditySampleStartTime1)+3,r25
 16617               	.L934:
 16618               	.LM1679:
 16619 5f5e 0091 0000 		lds r16,humidityBufferCounter
 16620 5f62 1091 0000 		lds r17,(humidityBufferCounter)+1
 16621 5f66 0E94 0000 		call Sensors_ReadHumidity
 16622 5f6a 000F      		lsl r16
 16623 5f6c 111F      		rol r17
 16624 5f6e 0050      		subi r16,lo8(-(humidityBuffer1))
 16625 5f70 1040      		sbci r17,hi8(-(humidityBuffer1))
 16626 5f72 F801      		movw r30,r16
 16627 5f74 8083      		st Z,r24
 16628 5f76 9183      		std Z+1,r25
 16629               	.LM1680:
 16630 5f78 8091 0000 		lds r24,humidityBufferCounter
 16631 5f7c 9091 0000 		lds r25,(humidityBufferCounter)+1
 16632 5f80 0196      		adiw r24,1
 16633 5f82 8093 0000 		sts humidityBufferCounter,r24
 16634 5f86 9093 0000 		sts (humidityBufferCounter)+1,r25
 16635               	.LM1681:
 16636 5f8a 0A97      		sbiw r24,10
 16637 5f8c 01F0      		breq .+2
 16638 5f8e 00C0      		rjmp .L936
 16639               	.LM1682:
 16640 5f90 1092 0000 		sts humidityBufferCounter,__zero_reg__
 16641 5f94 1092 0000 		sts (humidityBufferCounter)+1,__zero_reg__
 16642               	.LM1683:
 16643 5f98 82E0      		ldi r24,lo8(2)
 16644 5f9a 8093 0000 		sts humidityBufferToWriteTo,r24
 16645               	.LM1684:
 16646 5f9e 81E0      		ldi r24,lo8(1)
 16647 5fa0 8093 0000 		sts okToSendHumidityBuffer1,r24
 16648 5fa4 00C0      		rjmp .L936
 16649               	.L933:
 16650               	.LM1685:
 16651 5fa6 8230      		cpi r24,lo8(2)
 16652 5fa8 01F4      		brne .L936
 16653               	.LM1686:
 16654 5faa 8091 0000 		lds r24,humidityBufferCounter
 16655 5fae 9091 0000 		lds r25,(humidityBufferCounter)+1
 16656 5fb2 892B      		or r24,r25
 16657 5fb4 01F4      		brne .L935
 16658               	.LM1687:
 16659 5fb6 0E94 0000 		call Time_Get32BitTimer
 16660 5fba 6093 0000 		sts humiditySampleStartTime2,r22
 16661 5fbe 7093 0000 		sts (humiditySampleStartTime2)+1,r23
 16662 5fc2 8093 0000 		sts (humiditySampleStartTime2)+2,r24
 16663 5fc6 9093 0000 		sts (humiditySampleStartTime2)+3,r25
 16664               	.L935:
 16665               	.LM1688:
 16666 5fca 0091 0000 		lds r16,humidityBufferCounter
 16667 5fce 1091 0000 		lds r17,(humidityBufferCounter)+1
 16668 5fd2 0E94 0000 		call Sensors_ReadHumidity
 16669 5fd6 000F      		lsl r16
 16670 5fd8 111F      		rol r17
 16671 5fda 0050      		subi r16,lo8(-(humidityBuffer2))
 16672 5fdc 1040      		sbci r17,hi8(-(humidityBuffer2))
 16673 5fde F801      		movw r30,r16
 16674 5fe0 8083      		st Z,r24
 16675 5fe2 9183      		std Z+1,r25
 16676               	.LM1689:
 16677 5fe4 8091 0000 		lds r24,humidityBufferCounter
 16678 5fe8 9091 0000 		lds r25,(humidityBufferCounter)+1
 16679 5fec 0196      		adiw r24,1
 16680 5fee 8093 0000 		sts humidityBufferCounter,r24
 16681 5ff2 9093 0000 		sts (humidityBufferCounter)+1,r25
 16682               	.LM1690:
 16683 5ff6 0A97      		sbiw r24,10
 16684 5ff8 01F4      		brne .L936
 16685               	.LM1691:
 16686 5ffa 1092 0000 		sts humidityBufferCounter,__zero_reg__
 16687 5ffe 1092 0000 		sts (humidityBufferCounter)+1,__zero_reg__
 16688               	.LM1692:
 16689 6002 81E0      		ldi r24,lo8(1)
 16690 6004 8093 0000 		sts humidityBufferToWriteTo,r24
 16691               	.LM1693:
 16692 6008 8093 0000 		sts okToSendHumidityBuffer2,r24
 16693               	.L936:
 16694               	/* epilogue start */
 16695               	.LM1694:
 16696 600c FF91      		pop r31
 16697 600e EF91      		pop r30
 16698 6010 BF91      		pop r27
 16699 6012 AF91      		pop r26
 16700 6014 9F91      		pop r25
 16701 6016 8F91      		pop r24
 16702 6018 7F91      		pop r23
 16703 601a 6F91      		pop r22
 16704 601c 5F91      		pop r21
 16705 601e 4F91      		pop r20
 16706 6020 3F91      		pop r19
 16707 6022 2F91      		pop r18
 16708 6024 1F91      		pop r17
 16709 6026 0F91      		pop r16
 16710 6028 0F90      		pop r0
 16711 602a 0BBE      		out 59-0,r0
 16712 602c 0F90      		pop r0
 16713 602e 0FBE      		out __SREG__,r0
 16714 6030 0F90      		pop r0
 16715 6032 1F90      		pop __zero_reg__
 16716 6034 1895      		reti
 16717               	.LFE121:
 16719               	.global	SP_ReadCalibrationByte
 16721               	SP_ReadCalibrationByte:
 16722               	.LFB122:
 16723               	.LM1695:
 16724               	.LVL1349:
 16725               	/* prologue: function */
 16726               	/* frame size = 0 */
 16727               	.LM1696:
 16728 6036 AAEC      		ldi r26,lo8(458)
 16729 6038 B1E0      		ldi r27,hi8(458)
 16730 603a 92E0      		ldi r25,lo8(2)
 16731 603c 9C93      		st X,r25
 16732               	.LBB719:
 16733               	.LM1697:
 16734 603e E82F      		mov r30,r24
 16735 6040 F0E0      		ldi r31,lo8(0)
 16736               	.LVL1350:
 16737               	/* #APP */
 16738               	 ;  304 "sensorsCS.c" 1
 16739 6042 E491      		lpm r30, Z
 16740               		
 16741               	 ;  0 "" 2
 16742               	.LVL1351:
 16743               	/* #NOAPP */
 16744               	.LBE719:
 16745               	.LM1698:
 16746 6044 1C92      		st X,__zero_reg__
 16747               	.LM1699:
 16748 6046 8E2F      		mov r24,r30
 16749               	.LVL1352:
 16750               	/* epilogue start */
 16751 6048 0895      		ret
 16752               	.LFE122:
 16754               	.global	Uploader_getTime
 16756               	Uploader_getTime:
 16757               	.LFB125:
 16758               	.LM1700:
 16759 604a 0F93      		push r16
 16760 604c 1F93      		push r17
 16761 604e CF93      		push r28
 16762 6050 DF93      		push r29
 16763               	/* prologue: function */
 16764               	/* frame size = 0 */
 16765               	.LM1701:
 16766 6052 84E5      		ldi r24,lo8(84)
 16767 6054 0E94 0000 		call Debug_SendByte
 16768 6058 00E0      		ldi r16,lo8(0)
 16769               	.LVL1353:
 16770 605a 10E0      		ldi r17,lo8(0)
 16771               	.LVL1354:
 16772               	.LBB720:
 16773               	.LBB721:
 16774               	.LBB722:
 16775               	.LBB723:
 16776               	.LM1702:
 16777 605c C6E6      		ldi r28,lo8(3686)
 16778 605e DEE0      		ldi r29,hi8(3686)
 16779               	.LVL1355:
 16780               	.L942:
 16781               	.LBE723:
 16782               	.LBE722:
 16783               	.LBE721:
 16784               	.LBE720:
 16785               	.LM1703:
 16786 6060 0E94 0000 		call Debug_CharReadyToRead
 16787               	.LVL1356:
 16788 6064 8823      		tst r24
 16789 6066 01F0      		breq .L940
 16790               	.LM1704:
 16791 6068 80E0      		ldi r24,lo8(0)
 16792 606a 0E94 0000 		call Debug_GetByte
 16793 606e E12F      		mov r30,r17
 16794 6070 F0E0      		ldi r31,lo8(0)
 16795               	.LVL1357:
 16796 6072 E050      		subi r30,lo8(-(command))
 16797 6074 F040      		sbci r31,hi8(-(command))
 16798               	.LVL1358:
 16799 6076 8183      		std Z+1,r24
 16800               	.LM1705:
 16801 6078 0E94 0000 		call Debug_SendByte
 16802               	.LVL1359:
 16803               	.LM1706:
 16804 607c 1F5F      		subi r17,lo8(-(1))
 16805               	.LVL1360:
 16806               	.LM1707:
 16807 607e 1430      		cpi r17,lo8(4)
 16808 6080 01F4      		brne .L940
 16809               	.LM1708:
 16810 6082 6091 0000 		lds r22,command+1
 16811 6086 70E0      		ldi r23,lo8(0)
 16812               	.LVL1361:
 16813 6088 80E0      		ldi r24,lo8(0)
 16814 608a 90E0      		ldi r25,hi8(0)
 16815               	.LVL1362:
 16816               	.LM1709:
 16817 608c 982F      		mov r25,r24
 16818 608e 872F      		mov r24,r23
 16819 6090 762F      		mov r23,r22
 16820 6092 6627      		clr r22
 16821               	.LVL1363:
 16822               	.LM1710:
 16823 6094 2091 0000 		lds r18,command+2
 16824 6098 620F      		add r22,r18
 16825 609a 711D      		adc r23,__zero_reg__
 16826 609c 811D      		adc r24,__zero_reg__
 16827 609e 911D      		adc r25,__zero_reg__
 16828               	.LM1711:
 16829 60a0 982F      		mov r25,r24
 16830 60a2 872F      		mov r24,r23
 16831 60a4 762F      		mov r23,r22
 16832 60a6 6627      		clr r22
 16833               	.LVL1364:
 16834               	.LM1712:
 16835 60a8 2091 0000 		lds r18,command+3
 16836 60ac 620F      		add r22,r18
 16837 60ae 711D      		adc r23,__zero_reg__
 16838 60b0 811D      		adc r24,__zero_reg__
 16839 60b2 911D      		adc r25,__zero_reg__
 16840               	.LM1713:
 16841 60b4 982F      		mov r25,r24
 16842 60b6 872F      		mov r24,r23
 16843 60b8 762F      		mov r23,r22
 16844 60ba 6627      		clr r22
 16845               	.LVL1365:
 16846               	.LM1714:
 16847 60bc 2091 0000 		lds r18,command+4
 16848 60c0 620F      		add r22,r18
 16849 60c2 711D      		adc r23,__zero_reg__
 16850 60c4 811D      		adc r24,__zero_reg__
 16851 60c6 911D      		adc r25,__zero_reg__
 16852 60c8 0E94 0000 		call Time_Set
 16853               	.LVL1366:
 16854 60cc 81E0      		ldi r24,lo8(1)
 16855 60ce 00C0      		rjmp .L941
 16856               	.LVL1367:
 16857               	.L940:
 16858               	.LBB727:
 16859               	.LBB726:
 16860               	.LBB725:
 16861               	.LBB724:
 16862               	.LM1715:
 16863 60d0 CE01      		movw r24,r28
 16864               	.LVL1368:
 16865               	/* #APP */
 16866               	 ;  105 "/usr/local/CrossPack-AVR-20100115/lib/gcc/avr/4.3.3/../../../../avr/include/util/delay_bas
 16867 60d2 0197      		1: sbiw r24,1
 16868 60d4 01F4      		brne 1b
 16869               	 ;  0 "" 2
 16870               	/* #NOAPP */
 16871               	.LBE724:
 16872               	.LBE725:
 16873               	.LBE726:
 16874               	.LBE727:
 16875               	.LM1716:
 16876 60d6 0F5F      		subi r16,lo8(-(1))
 16877               	.LM1717:
 16878 60d8 0536      		cpi r16,lo8(101)
 16879 60da 01F0      		breq .+2
 16880 60dc 00C0      		rjmp .L942
 16881 60de 80E0      		ldi r24,lo8(0)
 16882               	.LVL1369:
 16883               	.L941:
 16884               	/* epilogue start */
 16885               	.LM1718:
 16886 60e0 DF91      		pop r29
 16887 60e2 CF91      		pop r28
 16888 60e4 1F91      		pop r17
 16889               	.LVL1370:
 16890 60e6 0F91      		pop r16
 16891               	.LVL1371:
 16892 60e8 0895      		ret
 16893               	.LFE125:
 16895               	.global	Uploader_eraseFile
 16897               	Uploader_eraseFile:
 16898               	.LFB133:
 16899               	.LM1719:
 16900 60ea FF92      		push r15
 16901 60ec 0F93      		push r16
 16902 60ee 1F93      		push r17
 16903 60f0 CF93      		push r28
 16904 60f2 DF93      		push r29
 16905               	/* prologue: function */
 16906               	/* frame size = 0 */
 16907               	.LM1720:
 16908 60f4 85E4      		ldi r24,lo8(69)
 16909 60f6 0E94 0000 		call Debug_SendByte
 16910 60fa FF24      		clr r15
 16911               	.LVL1372:
 16912 60fc 10E0      		ldi r17,lo8(0)
 16913               	.LVL1373:
 16914 60fe 00E0      		ldi r16,lo8(0)
 16915               	.LVL1374:
 16916               	.LBB728:
 16917               	.LBB729:
 16918               	.LBB730:
 16919               	.LBB731:
 16920               	.LM1721:
 16921 6100 C6E6      		ldi r28,lo8(3686)
 16922 6102 DEE0      		ldi r29,hi8(3686)
 16923               	.LVL1375:
 16924               	.L951:
 16925               	.LBE731:
 16926               	.LBE730:
 16927               	.LBE729:
 16928               	.LBE728:
 16929               	.LM1722:
 16930 6104 0E94 0000 		call Debug_CharReadyToRead
 16931               	.LVL1376:
 16932 6108 8823      		tst r24
 16933 610a 01F0      		breq .L946
 16934               	.LM1723:
 16935 610c 1123      		tst r17
 16936 610e 01F4      		brne .L947
 16937               	.LM1724:
 16938 6110 80E0      		ldi r24,lo8(0)
 16939 6112 0E94 0000 		call Debug_GetByte
 16940 6116 082F      		mov r16,r24
 16941               	.LM1725:
 16942 6118 0E94 0000 		call Debug_SendByte
 16943 611c 11E0      		ldi r17,lo8(1)
 16944 611e 00C0      		rjmp .L946
 16945               	.L947:
 16946               	.LM1726:
 16947 6120 80E0      		ldi r24,lo8(0)
 16948 6122 0E94 0000 		call Debug_GetByte
 16949 6126 E12F      		mov r30,r17
 16950 6128 F0E0      		ldi r31,lo8(0)
 16951               	.LVL1377:
 16952 612a E050      		subi r30,lo8(-(fileToErase-1))
 16953 612c F040      		sbci r31,hi8(-(fileToErase-1))
 16954               	.LVL1378:
 16955 612e 8083      		st Z,r24
 16956               	.LM1727:
 16957 6130 0E94 0000 		call Debug_SendByte
 16958               	.LVL1379:
 16959               	.LM1728:
 16960 6134 1F5F      		subi r17,lo8(-(1))
 16961               	.LVL1380:
 16962               	.LM1729:
 16963 6136 802F      		mov r24,r16
 16964 6138 90E0      		ldi r25,lo8(0)
 16965               	.LVL1381:
 16966 613a 0196      		adiw r24,1
 16967               	.LVL1382:
 16968 613c E12F      		mov r30,r17
 16969 613e F0E0      		ldi r31,lo8(0)
 16970               	.LVL1383:
 16971 6140 E817      		cp r30,r24
 16972 6142 F907      		cpc r31,r25
 16973 6144 01F4      		brne .L946
 16974               	.LVL1384:
 16975               	.LM1730:
 16976 6146 E050      		subi r30,lo8(-(fileToErase))
 16977 6148 F040      		sbci r31,hi8(-(fileToErase))
 16978               	.LVL1385:
 16979 614a 1082      		st Z,__zero_reg__
 16980               	.LM1731:
 16981 614c 81E0      		ldi r24,lo8(1)
 16982               	.LVL1386:
 16983 614e 8093 0000 		sts okToEraseFile,r24
 16984               	.L948:
 16985               	.LM1732:
 16986 6152 8091 0000 		lds r24,okToEraseFile
 16987 6156 8823      		tst r24
 16988 6158 01F4      		brne .L948
 16989               	.LM1733:
 16990 615a 8091 0000 		lds r24,eraseFileReturn
 16991 615e 8823      		tst r24
 16992 6160 01F4      		brne .L949
 16993               	.LM1734:
 16994 6162 84E5      		ldi r24,lo8(84)
 16995 6164 00C0      		rjmp .L955
 16996               	.L949:
 16997               	.LM1735:
 16998 6166 86E4      		ldi r24,lo8(70)
 16999               	.L955:
 17000 6168 0E94 0000 		call Debug_SendByte
 17001               	.LVL1387:
 17002 616c 81E0      		ldi r24,lo8(1)
 17003 616e 00C0      		rjmp .L950
 17004               	.LVL1388:
 17005               	.L946:
 17006               	.LBB735:
 17007               	.LBB734:
 17008               	.LBB733:
 17009               	.LBB732:
 17010               	.LM1736:
 17011 6170 CE01      		movw r24,r28
 17012               	.LVL1389:
 17013               	/* #APP */
 17014               	 ;  105 "/usr/local/CrossPack-AVR-20100115/lib/gcc/avr/4.3.3/../../../../avr/include/util/delay_bas
 17015 6172 0197      		1: sbiw r24,1
 17016 6174 01F4      		brne 1b
 17017               	 ;  0 "" 2
 17018               	/* #NOAPP */
 17019               	.LBE732:
 17020               	.LBE733:
 17021               	.LBE734:
 17022               	.LBE735:
 17023               	.LM1737:
 17024 6176 F394      		inc r15
 17025               	.LM1738:
 17026 6178 85E6      		ldi r24,lo8(101)
 17027               	.LVL1390:
 17028 617a F816      		cp r15,r24
 17029 617c 01F4      		brne .L951
 17030 617e 80E0      		ldi r24,lo8(0)
 17031               	.L950:
 17032               	/* epilogue start */
 17033               	.LM1739:
 17034 6180 DF91      		pop r29
 17035 6182 CF91      		pop r28
 17036 6184 1F91      		pop r17
 17037               	.LVL1391:
 17038 6186 0F91      		pop r16
 17039               	.LVL1392:
 17040 6188 FF90      		pop r15
 17041               	.LVL1393:
 17042 618a 0895      		ret
 17043               	.LFE133:
 17045               	.global	Uploader_ClearCRC
 17047               	Uploader_ClearCRC:
 17048               	.LFB136:
 17049               	.LM1740:
 17050               	/* prologue: function */
 17051               	/* frame size = 0 */
 17052               	.LM1741:
 17053 618c 8FEF      		ldi r24,lo8(-1)
 17054 618e 9FEF      		ldi r25,hi8(-1)
 17055 6190 AFEF      		ldi r26,hlo8(-1)
 17056 6192 BFEF      		ldi r27,hhi8(-1)
 17057 6194 8093 0000 		sts uploadCRC,r24
 17058 6198 9093 0000 		sts (uploadCRC)+1,r25
 17059 619c A093 0000 		sts (uploadCRC)+2,r26
 17060 61a0 B093 0000 		sts (uploadCRC)+3,r27
 17061               	/* epilogue start */
 17062               	.LM1742:
 17063 61a4 0895      		ret
 17064               	.LFE136:
 17066               	.global	Uploader_WriteCRC
 17068               	Uploader_WriteCRC:
 17069               	.LFB137:
 17070               	.LM1743:
 17071 61a6 EF92      		push r14
 17072 61a8 FF92      		push r15
 17073 61aa 0F93      		push r16
 17074 61ac 1F93      		push r17
 17075               	/* prologue: function */
 17076               	/* frame size = 0 */
 17077               	.LM1744:
 17078 61ae E090 0000 		lds r14,uploadCRC
 17079 61b2 F090 0000 		lds r15,(uploadCRC)+1
 17080 61b6 0091 0000 		lds r16,(uploadCRC)+2
 17081 61ba 1091 0000 		lds r17,(uploadCRC)+3
 17082               	.LVL1394:
 17083 61be E094      		com r14
 17084 61c0 F094      		com r15
 17085 61c2 0095      		com r16
 17086 61c4 1095      		com r17
 17087               	.LM1745:
 17088 61c6 812F      		mov r24,r17
 17089 61c8 9927      		clr r25
 17090 61ca AA27      		clr r26
 17091 61cc BB27      		clr r27
 17092 61ce 0E94 0000 		call Debug_SendByte
 17093               	.LM1746:
 17094 61d2 C801      		movw r24,r16
 17095 61d4 AA27      		clr r26
 17096 61d6 BB27      		clr r27
 17097 61d8 0E94 0000 		call Debug_SendByte
 17098               	.LM1747:
 17099 61dc BB27      		clr r27
 17100 61de A12F      		mov r26,r17
 17101 61e0 902F      		mov r25,r16
 17102 61e2 8F2D      		mov r24,r15
 17103 61e4 0E94 0000 		call Debug_SendByte
 17104               	.LM1748:
 17105 61e8 8E2D      		mov r24,r14
 17106 61ea 0E94 0000 		call Debug_SendByte
 17107               	/* epilogue start */
 17108               	.LM1749:
 17109 61ee 1F91      		pop r17
 17110 61f0 0F91      		pop r16
 17111 61f2 FF90      		pop r15
 17112 61f4 EF90      		pop r14
 17113               	.LVL1395:
 17114 61f6 0895      		ret
 17115               	.LFE137:
 17117               	.global	Uploader_uploadFile
 17119               	Uploader_uploadFile:
 17120               	.LFB132:
 17121               	.LM1750:
 17122 61f8 5F92      		push r5
 17123 61fa 6F92      		push r6
 17124 61fc 7F92      		push r7
 17125 61fe 8F92      		push r8
 17126 6200 9F92      		push r9
 17127 6202 AF92      		push r10
 17128 6204 BF92      		push r11
 17129 6206 CF92      		push r12
 17130 6208 DF92      		push r13
 17131 620a EF92      		push r14
 17132 620c FF92      		push r15
 17133 620e 0F93      		push r16
 17134 6210 1F93      		push r17
 17135 6212 CF93      		push r28
 17136 6214 DF93      		push r29
 17137               	/* prologue: function */
 17138               	/* frame size = 0 */
 17139               	.LM1751:
 17140 6216 81E0      		ldi r24,lo8(1)
 17141 6218 8093 0000 		sts uploading,r24
 17142 621c 88EE      		ldi r24,lo8(1000)
 17143 621e 93E0      		ldi r25,hi8(1000)
 17144               	.LVL1396:
 17145               	.LBB736:
 17146               	.LBB737:
 17147               	.LBB738:
 17148               	.LBB739:
 17149               	.LM1752:
 17150 6220 20E7      		ldi r18,lo8(368)
 17151 6222 31E0      		ldi r19,hi8(368)
 17152               	.L961:
 17153 6224 F901      		movw r30,r18
 17154               	.LVL1397:
 17155               	/* #APP */
 17156               	 ;  105 "/usr/local/CrossPack-AVR-20100115/lib/gcc/avr/4.3.3/../../../../avr/include/util/delay_bas
 17157 6226 3197      		1: sbiw r30,1
 17158 6228 01F4      		brne 1b
 17159               	 ;  0 "" 2
 17160               	/* #NOAPP */
 17161               	.LBE739:
 17162               	.LBE738:
 17163               	.LM1753:
 17164 622a 0197      		sbiw r24,1
 17165               	.LM1754:
 17166 622c 01F4      		brne .L961
 17167               	.LBE737:
 17168               	.LBE736:
 17169               	.LM1755:
 17170 622e 84E4      		ldi r24,lo8(68)
 17171               	.LVL1398:
 17172 6230 0E94 0000 		call Debug_SendByte
 17173               	.LVL1399:
 17174 6234 EE24      		clr r14
 17175               	.LVL1400:
 17176 6236 10E0      		ldi r17,lo8(0)
 17177               	.LVL1401:
 17178 6238 00E0      		ldi r16,lo8(0)
 17179               	.LVL1402:
 17180               	.LBB740:
 17181               	.LBB741:
 17182               	.LBB742:
 17183               	.LBB743:
 17184               	.LM1756:
 17185 623a C6E6      		ldi r28,lo8(3686)
 17186 623c DEE0      		ldi r29,hi8(3686)
 17187               	.LVL1403:
 17188               	.L967:
 17189               	.LBE743:
 17190               	.LBE742:
 17191               	.LBE741:
 17192               	.LBE740:
 17193               	.LM1757:
 17194 623e 0E94 0000 		call Debug_CharReadyToRead
 17195               	.LVL1404:
 17196 6242 8823      		tst r24
 17197 6244 01F0      		breq .L962
 17198               	.LM1758:
 17199 6246 1123      		tst r17
 17200 6248 01F4      		brne .L963
 17201               	.LM1759:
 17202 624a 80E0      		ldi r24,lo8(0)
 17203 624c 0E94 0000 		call Debug_GetByte
 17204 6250 082F      		mov r16,r24
 17205               	.LM1760:
 17206 6252 0E94 0000 		call Debug_SendByte
 17207 6256 11E0      		ldi r17,lo8(1)
 17208 6258 00C0      		rjmp .L962
 17209               	.L963:
 17210               	.LM1761:
 17211 625a 80E0      		ldi r24,lo8(0)
 17212 625c 0E94 0000 		call Debug_GetByte
 17213 6260 E12F      		mov r30,r17
 17214 6262 F0E0      		ldi r31,lo8(0)
 17215               	.LVL1405:
 17216 6264 E050      		subi r30,lo8(-(fileToUpload-1))
 17217 6266 F040      		sbci r31,hi8(-(fileToUpload-1))
 17218               	.LVL1406:
 17219 6268 8083      		st Z,r24
 17220               	.LM1762:
 17221 626a 0E94 0000 		call Debug_SendByte
 17222               	.LVL1407:
 17223               	.LM1763:
 17224 626e 1F5F      		subi r17,lo8(-(1))
 17225               	.LVL1408:
 17226               	.LM1764:
 17227 6270 E12F      		mov r30,r17
 17228 6272 F0E0      		ldi r31,lo8(0)
 17229 6274 802F      		mov r24,r16
 17230 6276 90E0      		ldi r25,lo8(0)
 17231               	.LVL1409:
 17232 6278 0196      		adiw r24,1
 17233               	.LVL1410:
 17234 627a E817      		cp r30,r24
 17235 627c F907      		cpc r31,r25
 17236 627e 01F4      		brne .L962
 17237               	.LM1765:
 17238 6280 E050      		subi r30,lo8(-(fileToUpload))
 17239 6282 F040      		sbci r31,hi8(-(fileToUpload))
 17240 6284 1082      		st Z,__zero_reg__
 17241 6286 21E0      		ldi r18,lo8(1)
 17242               	.LVL1411:
 17243 6288 00C0      		rjmp .L964
 17244               	.LVL1412:
 17245               	.L962:
 17246 628a 20E0      		ldi r18,lo8(0)
 17247               	.LVL1413:
 17248               	.L964:
 17249               	.LBB747:
 17250               	.LBB746:
 17251               	.LBB745:
 17252               	.LBB744:
 17253               	.LM1766:
 17254 628c CE01      		movw r24,r28
 17255               	.LVL1414:
 17256               	/* #APP */
 17257               	 ;  105 "/usr/local/CrossPack-AVR-20100115/lib/gcc/avr/4.3.3/../../../../avr/include/util/delay_bas
 17258 628e 0197      		1: sbiw r24,1
 17259 6290 01F4      		brne 1b
 17260               	 ;  0 "" 2
 17261               	/* #NOAPP */
 17262               	.LBE744:
 17263               	.LBE745:
 17264               	.LBE746:
 17265               	.LBE747:
 17266               	.LM1767:
 17267 6292 E394      		inc r14
 17268               	.LM1768:
 17269 6294 85E6      		ldi r24,lo8(101)
 17270               	.LVL1415:
 17271 6296 E816      		cp r14,r24
 17272 6298 01F4      		brne .L965
 17273 629a 80E0      		ldi r24,lo8(0)
 17274 629c 00C0      		rjmp .L966
 17275               	.L965:
 17276               	.LM1769:
 17277 629e 2223      		tst r18
 17278 62a0 01F0      		breq .L967
 17279               	.LM1770:
 17280 62a2 81E0      		ldi r24,lo8(1)
 17281 62a4 8093 0000 		sts okToOpenFileToUpload,r24
 17282               	.L968:
 17283               	.LM1771:
 17284 62a8 8091 0000 		lds r24,uploadFileOpened
 17285 62ac 8823      		tst r24
 17286 62ae 01F0      		breq .L968
 17287 62b0 80E1      		ldi r24,lo8(10000)
 17288 62b2 97E2      		ldi r25,hi8(10000)
 17289               	.LVL1416:
 17290               	.LBB748:
 17291               	.LBB749:
 17292               	.LBB750:
 17293               	.LBB751:
 17294               	.LM1772:
 17295 62b4 20E7      		ldi r18,lo8(368)
 17296 62b6 31E0      		ldi r19,hi8(368)
 17297               	.LVL1417:
 17298               	.L969:
 17299 62b8 F901      		movw r30,r18
 17300               	.LVL1418:
 17301               	/* #APP */
 17302               	 ;  105 "/usr/local/CrossPack-AVR-20100115/lib/gcc/avr/4.3.3/../../../../avr/include/util/delay_bas
 17303 62ba 3197      		1: sbiw r30,1
 17304 62bc 01F4      		brne 1b
 17305               	 ;  0 "" 2
 17306               	/* #NOAPP */
 17307               	.LBE751:
 17308               	.LBE750:
 17309               	.LM1773:
 17310 62be 0197      		sbiw r24,1
 17311               	.LM1774:
 17312 62c0 01F4      		brne .L969
 17313               	.LBE749:
 17314               	.LBE748:
 17315               	.LM1775:
 17316 62c2 8091 0000 		lds r24,fileExists
 17317               	.LVL1419:
 17318 62c6 8823      		tst r24
 17319 62c8 01F4      		brne .L970
 17320               	.LM1776:
 17321 62ca 0E94 0000 		call Debug_SendByte
 17322               	.LVL1420:
 17323               	.LM1777:
 17324 62ce 80E0      		ldi r24,lo8(0)
 17325 62d0 0E94 0000 		call Debug_SendByte
 17326               	.LM1778:
 17327 62d4 80E0      		ldi r24,lo8(0)
 17328 62d6 0E94 0000 		call Debug_SendByte
 17329               	.LM1779:
 17330 62da 80E0      		ldi r24,lo8(0)
 17331 62dc 0E94 0000 		call Debug_SendByte
 17332               	.LM1780:
 17333 62e0 81E0      		ldi r24,lo8(1)
 17334 62e2 8093 0000 		sts okToCloseUploadFile,r24
 17335               	.L971:
 17336               	.LM1781:
 17337 62e6 8091 0000 		lds r24,okToCloseUploadFile
 17338 62ea 8823      		tst r24
 17339 62ec 01F4      		brne .L971
 17340               	.LM1782:
 17341 62ee 1092 0000 		sts uploading,__zero_reg__
 17342               	.LM1783:
 17343 62f2 1092 0000 		sts okToUpload,__zero_reg__
 17344 62f6 00C0      		rjmp .L990
 17345               	.LVL1421:
 17346               	.L970:
 17347               	.LBB752:
 17348               	.LBB753:
 17349               	.LM1784:
 17350 62f8 8FEF      		ldi r24,lo8(-1)
 17351 62fa 9FEF      		ldi r25,hi8(-1)
 17352 62fc AFEF      		ldi r26,hlo8(-1)
 17353 62fe BFEF      		ldi r27,hhi8(-1)
 17354 6300 8093 0000 		sts uploadCRC,r24
 17355 6304 9093 0000 		sts (uploadCRC)+1,r25
 17356 6308 A093 0000 		sts (uploadCRC)+2,r26
 17357 630c B093 0000 		sts (uploadCRC)+3,r27
 17358               	.LBE753:
 17359               	.LBE752:
 17360               	.LM1785:
 17361 6310 E090 0000 		lds r14,uploadFileSize
 17362 6314 F090 0000 		lds r15,(uploadFileSize)+1
 17363 6318 0091 0000 		lds r16,(uploadFileSize)+2
 17364 631c 1091 0000 		lds r17,(uploadFileSize)+3
 17365               	.LVL1422:
 17366 6320 84E0      		ldi r24,lo8(4)
 17367 6322 90E0      		ldi r25,hi8(4)
 17368 6324 A0E0      		ldi r26,hlo8(4)
 17369 6326 B0E0      		ldi r27,hhi8(4)
 17370 6328 E80E      		add r14,r24
 17371 632a F91E      		adc r15,r25
 17372 632c 0A1F      		adc r16,r26
 17373 632e 1B1F      		adc r17,r27
 17374               	.LM1786:
 17375 6330 812F      		mov r24,r17
 17376 6332 9927      		clr r25
 17377 6334 AA27      		clr r26
 17378 6336 BB27      		clr r27
 17379 6338 0E94 0000 		call Debug_SendByte
 17380               	.LVL1423:
 17381               	.LM1787:
 17382 633c C801      		movw r24,r16
 17383 633e AA27      		clr r26
 17384 6340 BB27      		clr r27
 17385 6342 0E94 0000 		call Debug_SendByte
 17386               	.LM1788:
 17387 6346 BB27      		clr r27
 17388 6348 A12F      		mov r26,r17
 17389 634a 902F      		mov r25,r16
 17390 634c 8F2D      		mov r24,r15
 17391 634e 0E94 0000 		call Debug_SendByte
 17392               	.LM1789:
 17393 6352 8E2D      		mov r24,r14
 17394 6354 0E94 0000 		call Debug_SendByte
 17395               	.LM1790:
 17396 6358 6091 0000 		lds r22,uploadFileSize
 17397 635c 7091 0000 		lds r23,(uploadFileSize)+1
 17398 6360 8091 0000 		lds r24,(uploadFileSize)+2
 17399 6364 9091 0000 		lds r25,(uploadFileSize)+3
 17400 6368 28EE      		ldi r18,lo8(1000)
 17401 636a 33E0      		ldi r19,hi8(1000)
 17402 636c 40E0      		ldi r20,hlo8(1000)
 17403 636e 50E0      		ldi r21,hhi8(1000)
 17404 6370 0E94 0000 		call __udivmodsi4
 17405 6374 C901      		movw r24,r18
 17406 6376 DA01      		movw r26,r20
 17407 6378 8093 0000 		sts numberOfPacketsToUpload,r24
 17408 637c 9093 0000 		sts (numberOfPacketsToUpload)+1,r25
 17409 6380 A093 0000 		sts (numberOfPacketsToUpload)+2,r26
 17410 6384 B093 0000 		sts (numberOfPacketsToUpload)+3,r27
 17411               	.LM1791:
 17412 6388 6091 0000 		lds r22,uploadFileSize
 17413 638c 7091 0000 		lds r23,(uploadFileSize)+1
 17414 6390 8091 0000 		lds r24,(uploadFileSize)+2
 17415 6394 9091 0000 		lds r25,(uploadFileSize)+3
 17416 6398 28EE      		ldi r18,lo8(1000)
 17417 639a 33E0      		ldi r19,hi8(1000)
 17418 639c 40E0      		ldi r20,hlo8(1000)
 17419 639e 50E0      		ldi r21,hhi8(1000)
 17420 63a0 0E94 0000 		call __udivmodsi4
 17421 63a4 9B01      		movw r18,r22
 17422 63a6 AC01      		movw r20,r24
 17423 63a8 2093 0000 		sts leftOverBytesToUpload,r18
 17424 63ac 3093 0000 		sts (leftOverBytesToUpload)+1,r19
 17425 63b0 4093 0000 		sts (leftOverBytesToUpload)+2,r20
 17426 63b4 5093 0000 		sts (leftOverBytesToUpload)+3,r21
 17427 63b8 6624      		clr r6
 17428 63ba 7724      		clr r7
 17429 63bc 4301      		movw r8,r6
 17430               	.LVL1424:
 17431 63be AA24      		clr r10
 17432 63c0 BB24      		clr r11
 17433 63c2 6501      		movw r12,r10
 17434               	.LBB754:
 17435               	.LM1792:
 17436 63c4 5524      		clr r5
 17437 63c6 5394      		inc r5
 17438 63c8 00C0      		rjmp .L972
 17439               	.L975:
 17440               	.LM1793:
 17441 63ca 1092 0000 		sts uploadFileBufferFull,__zero_reg__
 17442               	.LM1794:
 17443 63ce 5092 0000 		sts okToFillUploadFileBuffer,r5
 17444               	.LM1795:
 17445 63d2 2091 0000 		lds r18,numberOfPacketsToUpload
 17446 63d6 3091 0000 		lds r19,(numberOfPacketsToUpload)+1
 17447 63da 4091 0000 		lds r20,(numberOfPacketsToUpload)+2
 17448 63de 5091 0000 		lds r21,(numberOfPacketsToUpload)+3
 17449 63e2 C601      		movw r24,r12
 17450 63e4 B501      		movw r22,r10
 17451 63e6 0E94 0000 		call __udivmodsi4
 17452 63ea 2093 0000 		sts uploadPercentBS,r18
 17453               	.L973:
 17454               	.LM1796:
 17455 63ee 8091 0000 		lds r24,uploadFileBufferFull
 17456 63f2 8823      		tst r24
 17457 63f4 01F0      		breq .L973
 17458 63f6 C0E0      		ldi r28,lo8(uploadFileBuffer)
 17459 63f8 D0E0      		ldi r29,hi8(uploadFileBuffer)
 17460               	.L974:
 17461               	.LBB755:
 17462               	.LM1797:
 17463 63fa 8881      		ld r24,Y
 17464 63fc 0E94 0000 		call Debug_SendByte
 17465               	.LBB756:
 17466               	.LBB757:
 17467               	.LM1798:
 17468 6400 E090 0000 		lds r14,uploadCRC
 17469 6404 F090 0000 		lds r15,(uploadCRC)+1
 17470 6408 0091 0000 		lds r16,(uploadCRC)+2
 17471 640c 1091 0000 		lds r17,(uploadCRC)+3
 17472               	.LVL1425:
 17473 6410 8091 0000 		lds r24,uploadCRC
 17474 6414 9091 0000 		lds r25,(uploadCRC)+1
 17475 6418 A091 0000 		lds r26,(uploadCRC)+2
 17476 641c B091 0000 		lds r27,(uploadCRC)+3
 17477 6420 9070      		andi r25,hi8(255)
 17478 6422 A070      		andi r26,hlo8(255)
 17479 6424 B070      		andi r27,hhi8(255)
 17480 6426 2991      		ld r18,Y+
 17481 6428 30E0      		ldi r19,lo8(0)
 17482 642a 40E0      		ldi r20,lo8(0)
 17483 642c 50E0      		ldi r21,hi8(0)
 17484 642e 8227      		eor r24,r18
 17485 6430 9327      		eor r25,r19
 17486 6432 A427      		eor r26,r20
 17487 6434 B527      		eor r27,r21
 17488 6436 880F      		lsl r24
 17489 6438 991F      		rol r25
 17490 643a 880F      		lsl r24
 17491 643c 991F      		rol r25
 17492 643e 8050      		subi r24,lo8(-(crc_table))
 17493 6440 9040      		sbci r25,hi8(-(crc_table))
 17494 6442 EF2C      		mov r14,r15
 17495 6444 F02E      		mov r15,r16
 17496 6446 012F      		mov r16,r17
 17497 6448 1127      		clr r17
 17498 644a FC01      		movw r30,r24
 17499 644c 8081      		ld r24,Z
 17500 644e 9181      		ldd r25,Z+1
 17501 6450 A281      		ldd r26,Z+2
 17502 6452 B381      		ldd r27,Z+3
 17503 6454 E826      		eor r14,r24
 17504 6456 F926      		eor r15,r25
 17505 6458 0A27      		eor r16,r26
 17506 645a 1B27      		eor r17,r27
 17507 645c E092 0000 		sts uploadCRC,r14
 17508 6460 F092 0000 		sts (uploadCRC)+1,r15
 17509 6464 0093 0000 		sts (uploadCRC)+2,r16
 17510 6468 1093 0000 		sts (uploadCRC)+3,r17
 17511               	.LBE757:
 17512               	.LBE756:
 17513               	.LM1799:
 17514 646c F0E0      		ldi r31,hi8(uploadFileBuffer+1000)
 17515 646e C030      		cpi r28,lo8(uploadFileBuffer+1000)
 17516 6470 DF07      		cpc r29,r31
 17517 6472 01F4      		brne .L974
 17518               	.LBE755:
 17519               	.LM1800:
 17520 6474 0894      		sec
 17521 6476 611C      		adc r6,__zero_reg__
 17522 6478 711C      		adc r7,__zero_reg__
 17523 647a 811C      		adc r8,__zero_reg__
 17524 647c 911C      		adc r9,__zero_reg__
 17525 647e 84E6      		ldi r24,lo8(100)
 17526 6480 90E0      		ldi r25,hi8(100)
 17527 6482 A0E0      		ldi r26,hlo8(100)
 17528 6484 B0E0      		ldi r27,hhi8(100)
 17529 6486 A80E      		add r10,r24
 17530 6488 B91E      		adc r11,r25
 17531 648a CA1E      		adc r12,r26
 17532 648c DB1E      		adc r13,r27
 17533               	.LVL1426:
 17534               	.L972:
 17535 648e 8091 0000 		lds r24,numberOfPacketsToUpload
 17536 6492 9091 0000 		lds r25,(numberOfPacketsToUpload)+1
 17537 6496 A091 0000 		lds r26,(numberOfPacketsToUpload)+2
 17538 649a B091 0000 		lds r27,(numberOfPacketsToUpload)+3
 17539 649e 6816      		cp r6,r24
 17540 64a0 7906      		cpc r7,r25
 17541 64a2 8A06      		cpc r8,r26
 17542 64a4 9B06      		cpc r9,r27
 17543 64a6 00F4      		brsh .+2
 17544 64a8 00C0      		rjmp .L975
 17545               	.LBE754:
 17546               	.LM1801:
 17547 64aa 1092 0000 		sts uploadFileBufferFull,__zero_reg__
 17548               	.LM1802:
 17549 64ae 81E0      		ldi r24,lo8(1)
 17550 64b0 8093 0000 		sts okToFillUploadFileBuffer,r24
 17551               	.L976:
 17552               	.LM1803:
 17553 64b4 8091 0000 		lds r24,uploadFileBufferFull
 17554 64b8 8823      		tst r24
 17555 64ba 01F0      		breq .L976
 17556 64bc C0E0      		ldi r28,lo8(uploadFileBuffer)
 17557 64be D0E0      		ldi r29,hi8(uploadFileBuffer)
 17558 64c0 20E0      		ldi r18,lo8(0)
 17559 64c2 30E0      		ldi r19,hi8(0)
 17560 64c4 40E0      		ldi r20,hlo8(0)
 17561 64c6 50E0      		ldi r21,hhi8(0)
 17562 64c8 00C0      		rjmp .L977
 17563               	.L978:
 17564               	.LBB758:
 17565               	.LM1804:
 17566 64ca 8881      		ld r24,Y
 17567 64cc 0E94 0000 		call Debug_SendByte
 17568               	.LBB759:
 17569               	.LBB760:
 17570               	.LM1805:
 17571 64d0 E090 0000 		lds r14,uploadCRC
 17572 64d4 F090 0000 		lds r15,(uploadCRC)+1
 17573 64d8 0091 0000 		lds r16,(uploadCRC)+2
 17574 64dc 1091 0000 		lds r17,(uploadCRC)+3
 17575               	.LVL1427:
 17576 64e0 8091 0000 		lds r24,uploadCRC
 17577 64e4 9091 0000 		lds r25,(uploadCRC)+1
 17578 64e8 A091 0000 		lds r26,(uploadCRC)+2
 17579 64ec B091 0000 		lds r27,(uploadCRC)+3
 17580 64f0 9070      		andi r25,hi8(255)
 17581 64f2 A070      		andi r26,hlo8(255)
 17582 64f4 B070      		andi r27,hhi8(255)
 17583 64f6 2991      		ld r18,Y+
 17584 64f8 30E0      		ldi r19,lo8(0)
 17585 64fa 40E0      		ldi r20,lo8(0)
 17586 64fc 50E0      		ldi r21,hi8(0)
 17587 64fe 8227      		eor r24,r18
 17588 6500 9327      		eor r25,r19
 17589 6502 A427      		eor r26,r20
 17590 6504 B527      		eor r27,r21
 17591 6506 880F      		lsl r24
 17592 6508 991F      		rol r25
 17593 650a 880F      		lsl r24
 17594 650c 991F      		rol r25
 17595 650e 8050      		subi r24,lo8(-(crc_table))
 17596 6510 9040      		sbci r25,hi8(-(crc_table))
 17597 6512 EF2C      		mov r14,r15
 17598 6514 F02E      		mov r15,r16
 17599 6516 012F      		mov r16,r17
 17600 6518 1127      		clr r17
 17601 651a FC01      		movw r30,r24
 17602 651c 8081      		ld r24,Z
 17603 651e 9181      		ldd r25,Z+1
 17604 6520 A281      		ldd r26,Z+2
 17605 6522 B381      		ldd r27,Z+3
 17606 6524 E826      		eor r14,r24
 17607 6526 F926      		eor r15,r25
 17608 6528 0A27      		eor r16,r26
 17609 652a 1B27      		eor r17,r27
 17610 652c E092 0000 		sts uploadCRC,r14
 17611 6530 F092 0000 		sts (uploadCRC)+1,r15
 17612 6534 0093 0000 		sts (uploadCRC)+2,r16
 17613 6538 1093 0000 		sts (uploadCRC)+3,r17
 17614 653c A601      		movw r20,r12
 17615 653e 9501      		movw r18,r10
 17616               	.LVL1428:
 17617               	.L977:
 17618               	.LBE760:
 17619               	.LBE759:
 17620               	.LM1806:
 17621 6540 8091 0000 		lds r24,leftOverBytesToUpload
 17622 6544 9091 0000 		lds r25,(leftOverBytesToUpload)+1
 17623 6548 A091 0000 		lds r26,(leftOverBytesToUpload)+2
 17624 654c B091 0000 		lds r27,(leftOverBytesToUpload)+3
 17625 6550 5901      		movw r10,r18
 17626 6552 6A01      		movw r12,r20
 17627 6554 0894      		sec
 17628 6556 A11C      		adc r10,__zero_reg__
 17629 6558 B11C      		adc r11,__zero_reg__
 17630 655a C11C      		adc r12,__zero_reg__
 17631 655c D11C      		adc r13,__zero_reg__
 17632 655e 2817      		cp r18,r24
 17633 6560 3907      		cpc r19,r25
 17634 6562 4A07      		cpc r20,r26
 17635 6564 5B07      		cpc r21,r27
 17636 6566 00F4      		brsh .+2
 17637 6568 00C0      		rjmp .L978
 17638               	.LBE758:
 17639               	.LM1807:
 17640 656a 0E94 0000 		call Uploader_WriteCRC
 17641               	.LM1808:
 17642 656e 81E0      		ldi r24,lo8(1)
 17643 6570 8093 0000 		sts okToCloseUploadFile,r24
 17644               	.L979:
 17645               	.LM1809:
 17646 6574 8091 0000 		lds r24,okToCloseUploadFile
 17647 6578 8823      		tst r24
 17648 657a 01F4      		brne .L979
 17649               	.LM1810:
 17650 657c 1092 0000 		sts uploading,__zero_reg__
 17651               	.LM1811:
 17652 6580 1092 0000 		sts okToUpload,__zero_reg__
 17653               	.LM1812:
 17654 6584 84E6      		ldi r24,lo8(100)
 17655 6586 8093 0000 		sts uploadPercentBS,r24
 17656               	.LVL1429:
 17657               	.L990:
 17658 658a 81E0      		ldi r24,lo8(1)
 17659               	.LVL1430:
 17660               	.L966:
 17661               	/* epilogue start */
 17662               	.LM1813:
 17663 658c DF91      		pop r29
 17664 658e CF91      		pop r28
 17665 6590 1F91      		pop r17
 17666               	.LVL1431:
 17667 6592 0F91      		pop r16
 17668               	.LVL1432:
 17669 6594 FF90      		pop r15
 17670 6596 EF90      		pop r14
 17671               	.LVL1433:
 17672 6598 DF90      		pop r13
 17673 659a CF90      		pop r12
 17674 659c BF90      		pop r11
 17675 659e AF90      		pop r10
 17676 65a0 9F90      		pop r9
 17677 65a2 8F90      		pop r8
 17678 65a4 7F90      		pop r7
 17679 65a6 6F90      		pop r6
 17680               	.LVL1434:
 17681 65a8 5F90      		pop r5
 17682 65aa 0895      		ret
 17683               	.LFE132:
 17685               	.global	Uploader_UpdateCRC
 17687               	Uploader_UpdateCRC:
 17688               	.LFB138:
 17689               	.LM1814:
 17690               	.LVL1435:
 17691 65ac EF92      		push r14
 17692 65ae FF92      		push r15
 17693 65b0 0F93      		push r16
 17694 65b2 1F93      		push r17
 17695               	/* prologue: function */
 17696               	/* frame size = 0 */
 17697               	.LM1815:
 17698 65b4 E090 0000 		lds r14,uploadCRC
 17699 65b8 F090 0000 		lds r15,(uploadCRC)+1
 17700 65bc 0091 0000 		lds r16,(uploadCRC)+2
 17701 65c0 1091 0000 		lds r17,(uploadCRC)+3
 17702 65c4 2091 0000 		lds r18,uploadCRC
 17703 65c8 3091 0000 		lds r19,(uploadCRC)+1
 17704 65cc 4091 0000 		lds r20,(uploadCRC)+2
 17705 65d0 5091 0000 		lds r21,(uploadCRC)+3
 17706 65d4 90E0      		ldi r25,lo8(0)
 17707               	.LVL1436:
 17708 65d6 A0E0      		ldi r26,lo8(0)
 17709 65d8 B0E0      		ldi r27,hi8(0)
 17710               	.LVL1437:
 17711 65da 3070      		andi r19,hi8(255)
 17712 65dc 4070      		andi r20,hlo8(255)
 17713 65de 5070      		andi r21,hhi8(255)
 17714 65e0 8227      		eor r24,r18
 17715 65e2 9327      		eor r25,r19
 17716 65e4 A427      		eor r26,r20
 17717 65e6 B527      		eor r27,r21
 17718               	.LVL1438:
 17719 65e8 880F      		lsl r24
 17720 65ea 991F      		rol r25
 17721 65ec 880F      		lsl r24
 17722 65ee 991F      		rol r25
 17723               	.LVL1439:
 17724 65f0 8050      		subi r24,lo8(-(crc_table))
 17725 65f2 9040      		sbci r25,hi8(-(crc_table))
 17726 65f4 EF2C      		mov r14,r15
 17727 65f6 F02E      		mov r15,r16
 17728 65f8 012F      		mov r16,r17
 17729 65fa 1127      		clr r17
 17730 65fc FC01      		movw r30,r24
 17731 65fe 8081      		ld r24,Z
 17732 6600 9181      		ldd r25,Z+1
 17733 6602 A281      		ldd r26,Z+2
 17734 6604 B381      		ldd r27,Z+3
 17735 6606 E826      		eor r14,r24
 17736 6608 F926      		eor r15,r25
 17737 660a 0A27      		eor r16,r26
 17738 660c 1B27      		eor r17,r27
 17739 660e E092 0000 		sts uploadCRC,r14
 17740 6612 F092 0000 		sts (uploadCRC)+1,r15
 17741 6616 0093 0000 		sts (uploadCRC)+2,r16
 17742 661a 1093 0000 		sts (uploadCRC)+3,r17
 17743               	/* epilogue start */
 17744               	.LM1816:
 17745 661e 1F91      		pop r17
 17746 6620 0F91      		pop r16
 17747 6622 FF90      		pop r15
 17748 6624 EF90      		pop r14
 17749 6626 0895      		ret
 17750               	.LFE138:
 17752               	.global	Clock_Init
 17754               	Clock_Init:
 17755               	.LFB140:
 17756               	.LM1817:
 17757 6628 0F93      		push r16
 17758 662a DF93      		push r29
 17759 662c CF93      		push r28
 17760 662e 0F92      		push __tmp_reg__
 17761 6630 CDB7      		in r28,__SP_L__
 17762 6632 DEB7      		in r29,__SP_H__
 17763               	/* prologue: function */
 17764               	/* frame size = 1 */
 17765               	.LM1818:
 17766 6634 80EC      		ldi r24,lo8(-64)
 17767 6636 E0E5      		ldi r30,lo8(80)
 17768 6638 F0E0      		ldi r31,hi8(80)
 17769 663a 8283      		std Z+2,r24
 17770               	.LM1819:
 17771 663c 8091 5000 		lds r24,80
 17772 6640 8860      		ori r24,lo8(8)
 17773 6642 8093 5000 		sts 80,r24
 17774               	.L994:
 17775               	.LM1820:
 17776 6646 8091 5100 		lds r24,81
 17777 664a 83FF      		sbrs r24,3
 17778 664c 00C0      		rjmp .L994
 17779               	.LM1821:
 17780 664e 2091 4000 		lds r18,64
 17781               	.LBB761:
 17782               	.LBB762:
 17783               	.LM1822:
 17784 6652 8FB7      		in r24,__SREG__
 17785 6654 8983      		std Y+1,r24
 17786               	.LVL1440:
 17787               	.LM1823:
 17788               	/* #APP */
 17789               	 ;  80 "mainChestStrap.h" 1
 17790 6656 F894      		cli
 17791               	 ;  0 "" 2
 17792               	.LM1824:
 17793               	/* #NOAPP */
 17794 6658 1BBE      		out 59-0,__zero_reg__
 17795               	.LM1825:
 17796 665a 287F      		andi r18,lo8(-8)
 17797 665c 2360      		ori r18,lo8(3)
 17798 665e 80E4      		ldi r24,lo8(64)
 17799 6660 90E0      		ldi r25,hi8(64)
 17800               	/* #APP */
 17801               	 ;  102 "mainChestStrap.h" 1
 17802 6662 FC01      		movw r30,  r24
 17803 6664 08ED      		ldi  r16,  216
 17804 6666 04BF      		out   52, r16
 17805 6668 2083      		st     Z,  r18
 17806               		
 17807               	 ;  0 "" 2
 17808               	.LM1826:
 17809               	/* #NOAPP */
 17810 666a 8981      		ldd r24,Y+1
 17811 666c 8FBF      		out __SREG__,r24
 17812               	.LBE762:
 17813               	.LBE761:
 17814               	.LM1827:
 17815 666e 8091 5000 		lds r24,80
 17816 6672 8E7F      		andi r24,lo8(-2)
 17817 6674 8093 5000 		sts 80,r24
 17818               	/* epilogue start */
 17819               	.LM1828:
 17820 6678 0F90      		pop __tmp_reg__
 17821 667a CF91      		pop r28
 17822 667c DF91      		pop r29
 17823 667e 0F91      		pop r16
 17824 6680 0895      		ret
 17825               	.LFE140:
 17827               	.global	Disable_JTAG
 17829               	Disable_JTAG:
 17830               	.LFB141:
 17831               	.LM1829:
 17832 6682 0F93      		push r16
 17833 6684 DF93      		push r29
 17834 6686 CF93      		push r28
 17835 6688 0F92      		push __tmp_reg__
 17836 668a CDB7      		in r28,__SP_L__
 17837 668c DEB7      		in r29,__SP_H__
 17838               	/* prologue: function */
 17839               	/* frame size = 1 */
 17840               	.LBB763:
 17841               	.LBB764:
 17842               	.LM1830:
 17843 668e 8FB7      		in r24,__SREG__
 17844 6690 8983      		std Y+1,r24
 17845               	.LVL1441:
 17846               	.LM1831:
 17847               	/* #APP */
 17848               	 ;  80 "mainChestStrap.h" 1
 17849 6692 F894      		cli
 17850               	 ;  0 "" 2
 17851               	.LM1832:
 17852               	/* #NOAPP */
 17853 6694 1BBE      		out 59-0,__zero_reg__
 17854               	.LM1833:
 17855 6696 21E0      		ldi r18,lo8(1)
 17856 6698 86E9      		ldi r24,lo8(150)
 17857 669a 90E0      		ldi r25,hi8(150)
 17858               	/* #APP */
 17859               	 ;  102 "mainChestStrap.h" 1
 17860 669c FC01      		movw r30,  r24
 17861 669e 08ED      		ldi  r16,  216
 17862 66a0 04BF      		out   52, r16
 17863 66a2 2083      		st     Z,  r18
 17864               		
 17865               	 ;  0 "" 2
 17866               	.LM1834:
 17867               	/* #NOAPP */
 17868 66a4 8981      		ldd r24,Y+1
 17869 66a6 8FBF      		out __SREG__,r24
 17870               	/* epilogue start */
 17871               	.LBE764:
 17872               	.LBE763:
 17873               	.LM1835:
 17874 66a8 0F90      		pop __tmp_reg__
 17875 66aa CF91      		pop r28
 17876 66ac DF91      		pop r29
 17877 66ae 0F91      		pop r16
 17878 66b0 0895      		ret
 17879               	.LFE141:
 17881               	.global	Interrupt_Init
 17883               	Interrupt_Init:
 17884               	.LFB142:
 17885               	.LM1836:
 17886               	/* prologue: function */
 17887               	/* frame size = 0 */
 17888               	.LM1837:
 17889 66b2 E0EA      		ldi r30,lo8(160)
 17890 66b4 F0E0      		ldi r31,hi8(160)
 17891 66b6 8281      		ldd r24,Z+2
 17892 66b8 8760      		ori r24,lo8(7)
 17893 66ba 8283      		std Z+2,r24
 17894               	.LM1838:
 17895               	/* #APP */
 17896               	 ;  163 "mainChestStrap.c" 1
 17897 66bc 7894      		sei
 17898               	 ;  0 "" 2
 17899               	/* epilogue start */
 17900               	.LM1839:
 17901               	/* #NOAPP */
 17902 66be 0895      		ret
 17903               	.LFE142:
 17905               	.global	Charger_Init
 17907               	Charger_Init:
 17908               	.LFB143:
 17909               	.LM1840:
 17910               	/* prologue: function */
 17911               	/* frame size = 0 */
 17912               	.LM1841:
 17913 66c0 E0E6      		ldi r30,lo8(1632)
 17914 66c2 F6E0      		ldi r31,hi8(1632)
 17915 66c4 88E0      		ldi r24,lo8(8)
 17916 66c6 8283      		std Z+2,r24
 17917               	.LM1842:
 17918 66c8 88E3      		ldi r24,lo8(56)
 17919 66ca 838B      		std Z+19,r24
 17920               	/* epilogue start */
 17921               	.LM1843:
 17922 66cc 0895      		ret
 17923               	.LFE143:
 17925               	.global	Charged
 17927               	Charged:
 17928               	.LFB144:
 17929               	.LM1844:
 17930               	/* prologue: function */
 17931               	/* frame size = 0 */
 17932               	.LM1845:
 17933 66ce E0EA      		ldi r30,lo8(1696)
 17934 66d0 F6E0      		ldi r31,hi8(1696)
 17935 66d2 8085      		ldd r24,Z+8
 17936 66d4 90E0      		ldi r25,lo8(0)
 17937 66d6 43E0      		ldi r20,3
 17938 66d8 9695      	1:	lsr r25
 17939 66da 8795      		ror r24
 17940 66dc 4A95      		dec r20
 17941 66de 01F4      		brne 1b
 17942               	.LM1846:
 17943 66e0 8170      		andi r24,lo8(1)
 17944               	/* epilogue start */
 17945 66e2 0895      		ret
 17946               	.LFE144:
 17948               	.global	GUI_Init
 17950               	GUI_Init:
 17951               	.LFB145:
 17952               	.LM1847:
 17953               	/* prologue: function */
 17954               	/* frame size = 0 */
 17955               	.LM1848:
 17956 66e4 E0E0      		ldi r30,lo8(2304)
 17957 66e6 F9E0      		ldi r31,hi8(2304)
 17958 66e8 80EA      		ldi r24,lo8(1440)
 17959 66ea 95E0      		ldi r25,hi8(1440)
 17960 66ec 86A3      		std Z+38,r24
 17961 66ee 97A3      		std Z+39,r25
 17962               	.LM1849:
 17963 66f0 8081      		ld r24,Z
 17964 66f2 807F      		andi r24,lo8(-16)
 17965 66f4 8760      		ori r24,lo8(7)
 17966 66f6 8083      		st Z,r24
 17967               	.LM1850:
 17968 66f8 8681      		ldd r24,Z+6
 17969 66fa 8C7F      		andi r24,lo8(-4)
 17970 66fc 8160      		ori r24,lo8(1)
 17971 66fe 8683      		std Z+6,r24
 17972               	/* epilogue start */
 17973               	.LM1851:
 17974 6700 0895      		ret
 17975               	.LFE145:
 17977               	.global	__vector_77
 17979               	__vector_77:
 17980               	.LFB146:
 17981               	.LM1852:
 17982 6702 1F92      		push __zero_reg__
 17983 6704 0F92      		push r0
 17984 6706 0FB6      		in r0,__SREG__
 17985 6708 0F92      		push r0
 17986 670a 0BB6      		in r0,59-0
 17987 670c 0F92      		push r0
 17988 670e 1124      		clr __zero_reg__
 17989 6710 2F93      		push r18
 17990 6712 3F93      		push r19
 17991 6714 4F93      		push r20
 17992 6716 5F93      		push r21
 17993 6718 8F93      		push r24
 17994 671a 9F93      		push r25
 17995 671c AF93      		push r26
 17996 671e BF93      		push r27
 17997 6720 CF93      		push r28
 17998 6722 DF93      		push r29
 17999 6724 EF93      		push r30
 18000 6726 FF93      		push r31
 18001               	/* prologue: Signal */
 18002               	/* frame size = 0 */
 18003               	.LM1853:
 18004 6728 8091 0000 		lds r24,recording
 18005 672c 8823      		tst r24
 18006 672e 01F0      		breq .L1008
 18007               	.LM1854:
 18008 6730 2091 0000 		lds r18,timeToStopRecording
 18009 6734 3091 0000 		lds r19,(timeToStopRecording)+1
 18010 6738 4091 0000 		lds r20,(timeToStopRecording)+2
 18011 673c 5091 0000 		lds r21,(timeToStopRecording)+3
 18012 6740 8091 0000 		lds r24,UNIX_Time
 18013 6744 9091 0000 		lds r25,(UNIX_Time)+1
 18014 6748 A091 0000 		lds r26,(UNIX_Time)+2
 18015 674c B091 0000 		lds r27,(UNIX_Time)+3
 18016 6750 2817      		cp r18,r24
 18017 6752 3907      		cpc r19,r25
 18018 6754 4A07      		cpc r20,r26
 18019 6756 5B07      		cpc r21,r27
 18020 6758 00F4      		brsh .L1008
 18021               	.LM1855:
 18022 675a 81E0      		ldi r24,lo8(1)
 18023 675c 8093 0000 		sts restartingFile,r24
 18024               	.LM1856:
 18025 6760 1092 0000 		sts recording,__zero_reg__
 18026               	.LM1857:
 18027 6764 8093 0000 		sts okToCloseLogFile,r24
 18028               	.L1009:
 18029               	.LM1858:
 18030 6768 8091 0000 		lds r24,okToCloseLogFile
 18031 676c 8823      		tst r24
 18032 676e 01F4      		brne .L1009
 18033               	.LM1859:
 18034 6770 8091 0000 		lds r24,percentDiskUsed
 18035 6774 9091 0000 		lds r25,(percentDiskUsed)+1
 18036 6778 A091 0000 		lds r26,(percentDiskUsed)+2
 18037 677c B091 0000 		lds r27,(percentDiskUsed)+3
 18038 6780 865B      		subi r24,lo8(950)
 18039 6782 9340      		sbci r25,hi8(950)
 18040 6784 A040      		sbci r26,hlo8(950)
 18041 6786 B040      		sbci r27,hhi8(950)
 18042 6788 00F4      		brsh .L1010
 18043               	.LM1860:
 18044 678a 81E0      		ldi r24,lo8(1)
 18045 678c 8093 0000 		sts okToOpenLogFile,r24
 18046               	.L1011:
 18047               	.LM1861:
 18048 6790 8091 0000 		lds r24,recording
 18049 6794 8823      		tst r24
 18050 6796 01F0      		breq .L1011
 18051               	.L1010:
 18052               	.LM1862:
 18053 6798 1092 0000 		sts restartingFile,__zero_reg__
 18054               	.L1008:
 18055               	.LM1863:
 18056 679c 8091 0000 		lds r24,timeIsValid
 18057 67a0 8823      		tst r24
 18058 67a2 01F0      		breq .L1012
 18059               	.LM1864:
 18060 67a4 8091 0000 		lds r24,syncCounter
 18061 67a8 9091 0000 		lds r25,(syncCounter)+1
 18062 67ac 0196      		adiw r24,1
 18063 67ae 8093 0000 		sts syncCounter,r24
 18064 67b2 9093 0000 		sts (syncCounter)+1,r25
 18065               	.LM1865:
 18066 67b6 8091 0000 		lds r24,syncCounter
 18067 67ba 9091 0000 		lds r25,(syncCounter)+1
 18068 67be 8157      		subi r24,lo8(6001)
 18069 67c0 9741      		sbci r25,hi8(6001)
 18070 67c2 00F0      		brlo .L1012
 18071               	.LM1866:
 18072 67c4 1092 0000 		sts syncCounter,__zero_reg__
 18073 67c8 1092 0000 		sts (syncCounter)+1,__zero_reg__
 18074               	.LBB765:
 18075               	.LBB766:
 18076               	.LM1867:
 18077 67cc 8091 2104 		lds r24,1057
 18078 67d0 8061      		ori r24,lo8(16)
 18079 67d2 E0E2      		ldi r30,lo8(1056)
 18080 67d4 F4E0      		ldi r31,hi8(1056)
 18081 67d6 8183      		std Z+1,r24
 18082               	.L1013:
 18083               	.LM1868:
 18084 67d8 8091 2104 		lds r24,1057
 18085 67dc 84FD      		sbrc r24,4
 18086 67de 00C0      		rjmp .L1013
 18087               	.LM1869:
 18088 67e0 8091 2404 		lds r24,1060
 18089 67e4 9091 2504 		lds r25,(1060)+1
 18090 67e8 A091 2604 		lds r26,(1060)+2
 18091 67ec B091 2704 		lds r27,(1060)+3
 18092               	.LBE766:
 18093               	.LBE765:
 18094               	.LM1870:
 18095 67f0 8093 0000 		sts UNIX_Time,r24
 18096 67f4 9093 0000 		sts (UNIX_Time)+1,r25
 18097 67f8 A093 0000 		sts (UNIX_Time)+2,r26
 18098 67fc B093 0000 		sts (UNIX_Time)+3,r27
 18099               	.L1012:
 18100               	.LM1871:
 18101 6800 8091 0000 		lds r24,debounceEnabled
 18102 6804 8823      		tst r24
 18103 6806 01F0      		breq .L1014
 18104               	.LM1872:
 18105 6808 8091 0000 		lds r24,debounceTimer
 18106 680c 8F5F      		subi r24,lo8(-(1))
 18107 680e 8093 0000 		sts debounceTimer,r24
 18108               	.LM1873:
 18109 6812 8091 0000 		lds r24,debounceTimer
 18110 6816 8B30      		cpi r24,lo8(11)
 18111 6818 00F0      		brlo .L1014
 18112               	.LM1874:
 18113 681a 1092 0000 		sts debounceTimer,__zero_reg__
 18114               	.LM1875:
 18115 681e 1092 0000 		sts debounceEnabled,__zero_reg__
 18116               	.L1014:
 18117               	.LBB767:
 18118               	.LBB768:
 18119               	.LM1876:
 18120 6822 8091 A806 		lds r24,1704
 18121 6826 86FD      		sbrc r24,6
 18122 6828 00C0      		rjmp .L1015
 18123 682a 00C0      		rjmp .L1056
 18124               	.L1059:
 18125               	.LBE768:
 18126               	.LBE767:
 18127               	.LM1877:
 18128 682c 8091 0000 		lds r24,timeIsValid
 18129 6830 8823      		tst r24
 18130 6832 01F0      		breq .L1015
 18131               	.LBB769:
 18132               	.LBB770:
 18133               	.LM1878:
 18134 6834 8091 A806 		lds r24,1704
 18135 6838 84FD      		sbrc r24,4
 18136 683a 00C0      		rjmp .L1015
 18137 683c 00C0      		rjmp .L1057
 18138               	.L1060:
 18139               	.LBE770:
 18140               	.LBE769:
 18141               	.LM1879:
 18142 683e 8091 0000 		lds r24,percentDiskUsed
 18143 6842 9091 0000 		lds r25,(percentDiskUsed)+1
 18144 6846 A091 0000 		lds r26,(percentDiskUsed)+2
 18145 684a B091 0000 		lds r27,(percentDiskUsed)+3
 18146 684e 865B      		subi r24,lo8(950)
 18147 6850 9340      		sbci r25,hi8(950)
 18148 6852 A040      		sbci r26,hlo8(950)
 18149 6854 B040      		sbci r27,hhi8(950)
 18150 6856 00F0      		brlo .+2
 18151 6858 00C0      		rjmp .L1018
 18152               	.LM1880:
 18153 685a 81E0      		ldi r24,lo8(1)
 18154 685c 8093 0000 		sts okToGetRemainingSpace,r24
 18155               	.L1019:
 18156               	.LM1881:
 18157 6860 8091 0000 		lds r24,okToGetRemainingSpace
 18158 6864 8823      		tst r24
 18159 6866 01F0      		breq .L1019
 18160               	.LM1882:
 18161 6868 81E0      		ldi r24,lo8(1)
 18162 686a 8093 0000 		sts okToOpenLogFile,r24
 18163               	.L1020:
 18164               	.LM1883:
 18165 686e 8091 0000 		lds r24,okToOpenLogFile
 18166 6872 8823      		tst r24
 18167 6874 01F4      		brne .L1020
 18168               	.LM1884:
 18169 6876 81E0      		ldi r24,lo8(1)
 18170 6878 00C0      		rjmp .L1052
 18171               	.L1015:
 18172               	.LBB771:
 18173               	.LBB772:
 18174               	.LM1885:
 18175 687a 8091 A806 		lds r24,1704
 18176 687e 86FF      		sbrs r24,6
 18177 6880 00C0      		rjmp .L1021
 18178               	.LBE772:
 18179               	.LBE771:
 18180               	.LBB773:
 18181               	.LBB774:
 18182               	.LM1886:
 18183 6882 8091 A806 		lds r24,1704
 18184 6886 84FF      		sbrs r24,4
 18185 6888 00C0      		rjmp .L1018
 18186               	.L1021:
 18187               	.LBE774:
 18188               	.LBE773:
 18189               	.LM1887:
 18190 688a 8091 0000 		lds r24,recording
 18191 688e 8823      		tst r24
 18192 6890 01F0      		breq .L1018
 18193 6892 8091 0000 		lds r24,debounceEnabled
 18194 6896 8823      		tst r24
 18195 6898 01F4      		brne .L1018
 18196               	.LM1888:
 18197 689a 1092 0000 		sts recording,__zero_reg__
 18198               	.LBB775:
 18199               	.LBB776:
 18200               	.LM1889:
 18201 689e 1092 0000 		sts humidityBufferCounter,__zero_reg__
 18202 68a2 1092 0000 		sts (humidityBufferCounter)+1,__zero_reg__
 18203               	.LM1890:
 18204 68a6 81E0      		ldi r24,lo8(1)
 18205 68a8 8093 0000 		sts humidityBufferToWriteTo,r24
 18206               	.LM1891:
 18207 68ac 1092 0000 		sts okToSendHumidityBuffer1,__zero_reg__
 18208               	.LM1892:
 18209 68b0 1092 0000 		sts okToSendHumidityBuffer2,__zero_reg__
 18210               	.LBE776:
 18211               	.LBE775:
 18212               	.LBB777:
 18213               	.LBB778:
 18214               	.LM1893:
 18215 68b4 1092 0000 		sts temperatureBufferCounter,__zero_reg__
 18216 68b8 1092 0000 		sts (temperatureBufferCounter)+1,__zero_reg__
 18217               	.LM1894:
 18218 68bc 8093 0000 		sts temperatureBufferToWriteTo,r24
 18219               	.LM1895:
 18220 68c0 1092 0000 		sts okToSendTemperatureBuffer1,__zero_reg__
 18221               	.LM1896:
 18222 68c4 1092 0000 		sts okToSendTemperatureBuffer2,__zero_reg__
 18223               	.LBE778:
 18224               	.LBE777:
 18225               	.LBB779:
 18226               	.LBB780:
 18227               	.LM1897:
 18228 68c8 1092 0000 		sts respirationBufferCounter,__zero_reg__
 18229 68cc 1092 0000 		sts (respirationBufferCounter)+1,__zero_reg__
 18230               	.LM1898:
 18231 68d0 8093 0000 		sts respirationBufferToWriteTo,r24
 18232               	.LM1899:
 18233 68d4 1092 0000 		sts okToSendRespirationBuffer1,__zero_reg__
 18234               	.LM1900:
 18235 68d8 1092 0000 		sts okToSendRespirationBuffer2,__zero_reg__
 18236               	.LBE780:
 18237               	.LBE779:
 18238               	.LBB781:
 18239               	.LBB782:
 18240               	.LM1901:
 18241 68dc 1092 0000 		sts EKGBufferCounter,__zero_reg__
 18242 68e0 1092 0000 		sts (EKGBufferCounter)+1,__zero_reg__
 18243               	.LM1902:
 18244 68e4 8093 0000 		sts EKGBufferToWriteTo,r24
 18245               	.LM1903:
 18246 68e8 1092 0000 		sts okToSendEKGBuffer1,__zero_reg__
 18247               	.LM1904:
 18248 68ec 1092 0000 		sts okToSendEKGBuffer2,__zero_reg__
 18249               	.LBE782:
 18250               	.LBE781:
 18251               	.LBB783:
 18252               	.LBB784:
 18253               	.LM1905:
 18254 68f0 1092 0000 		sts accelBufferCounter,__zero_reg__
 18255 68f4 1092 0000 		sts (accelBufferCounter)+1,__zero_reg__
 18256               	.LM1906:
 18257 68f8 8093 0000 		sts accelBufferToWriteTo,r24
 18258               	.LM1907:
 18259 68fc 1092 0000 		sts okToSendAccelBuffer1,__zero_reg__
 18260               	.LM1908:
 18261 6900 1092 0000 		sts okToSendAccelBuffer2,__zero_reg__
 18262               	.LBE784:
 18263               	.LBE783:
 18264               	.LM1909:
 18265 6904 8093 0000 		sts okToCloseLogFile,r24
 18266               	.L1052:
 18267               	.LM1910:
 18268 6908 8093 0000 		sts debounceEnabled,r24
 18269               	.L1018:
 18270               	.LBB785:
 18271               	.LBB786:
 18272               	.LM1911:
 18273 690c 8091 A806 		lds r24,1704
 18274 6910 84FF      		sbrs r24,4
 18275 6912 00C0      		rjmp .L1022
 18276               	.LBE786:
 18277               	.LBE785:
 18278               	.LBB787:
 18279               	.LBB788:
 18280               	.LM1912:
 18281 6914 81E0      		ldi r24,lo8(1)
 18282 6916 00C0      		rjmp .L1053
 18283               	.L1037:
 18284               	.LBE788:
 18285               	.LBE787:
 18286               	.LBB789:
 18287               	.LBB790:
 18288 6918 82E0      		ldi r24,lo8(2)
 18289               	.L1053:
 18290 691a 8093 0000 		sts ledState,r24
 18291 691e 00C0      		rjmp .L1023
 18292               	.L1061:
 18293               	.LBE790:
 18294               	.LBE789:
 18295               	.LM1913:
 18296 6920 8091 0000 		lds r24,batteryVoltageOk
 18297 6924 8823      		tst r24
 18298 6926 01F4      		brne .L1024
 18299               	.LBB791:
 18300               	.LBB792:
 18301               	.LM1914:
 18302 6928 83E0      		ldi r24,lo8(3)
 18303 692a 00C0      		rjmp .L1053
 18304               	.L1024:
 18305               	.LBE792:
 18306               	.LBE791:
 18307               	.LBB793:
 18308               	.LBB794:
 18309 692c 1092 0000 		sts ledState,__zero_reg__
 18310               	.L1023:
 18311               	.LBE794:
 18312               	.LBE793:
 18313               	.LM1915:
 18314 6930 8091 0000 		lds r24,recording
 18315 6934 8823      		tst r24
 18316 6936 01F0      		breq .L1025
 18317               	.LBB795:
 18318               	.LBB796:
 18319               	.LM1916:
 18320 6938 81E0      		ldi r24,lo8(1)
 18321 693a 00C0      		rjmp .L1054
 18322               	.L1025:
 18323               	.LBE796:
 18324               	.LBE795:
 18325               	.LM1917:
 18326 693c 8091 0000 		lds r24,connected
 18327 6940 8823      		tst r24
 18328 6942 01F0      		breq .L1027
 18329               	.LBB797:
 18330               	.LBB798:
 18331               	.LM1918:
 18332 6944 8091 A806 		lds r24,1704
 18333 6948 83FF      		sbrs r24,3
 18334 694a 00C0      		rjmp .L1028
 18335               	.L1027:
 18336               	.LBE798:
 18337               	.LBE797:
 18338               	.LBB799:
 18339               	.LBB800:
 18340 694c 8091 A806 		lds r24,1704
 18341 6950 83FF      		sbrs r24,3
 18342 6952 00C0      		rjmp .L1029
 18343               	.LBE800:
 18344               	.LBE799:
 18345               	.LBB801:
 18346               	.LBB802:
 18347               	.LM1919:
 18348 6954 83E0      		ldi r24,lo8(3)
 18349               	.L1054:
 18350 6956 8093 0000 		sts ledState+1,r24
 18351               	.L1026:
 18352 695a 20E0      		ldi r18,lo8(0)
 18353 695c 30E0      		ldi r19,hi8(0)
 18354               	.LBE802:
 18355               	.LBE801:
 18356               	.LBB803:
 18357               	.LBB804:
 18358               	.LBB805:
 18359               	.LM1920:
 18360 695e 41E0      		ldi r20,lo8(1)
 18361 6960 50E0      		ldi r21,hi8(1)
 18362 6962 C0EA      		ldi r28,lo8(1696)
 18363 6964 D6E0      		ldi r29,hi8(1696)
 18364               	.L1034:
 18365               	.LBE805:
 18366               	.LBE804:
 18367               	.LM1921:
 18368 6966 D901      		movw r26,r18
 18369 6968 A050      		subi r26,lo8(-(ledCounter))
 18370 696a B040      		sbci r27,hi8(-(ledCounter))
 18371 696c 8C91      		ld r24,X
 18372 696e 8F5F      		subi r24,lo8(-(1))
 18373 6970 8C93      		st X,r24
 18374               	.LM1922:
 18375 6972 F901      		movw r30,r18
 18376 6974 E050      		subi r30,lo8(-(ledState))
 18377 6976 F040      		sbci r31,hi8(-(ledState))
 18378 6978 8081      		ld r24,Z
 18379 697a 8130      		cpi r24,lo8(1)
 18380 697c 01F4      		brne .L1030
 18381               	.LBB807:
 18382               	.LBB808:
 18383               	.LM1923:
 18384 697e CA01      		movw r24,r20
 18385 6980 022E      		mov r0,r18
 18386 6982 00C0      		rjmp 2f
 18387 6984 880F      	1:	lsl r24
 18388 6986 991F      		rol r25
 18389 6988 0A94      	2:	dec r0
 18390 698a 02F4      		brpl 1b
 18391 698c 8D83      		std Y+5,r24
 18392 698e 00C0      		rjmp .L1031
 18393               	.L1030:
 18394               	.LBE808:
 18395               	.LBE807:
 18396               	.LM1924:
 18397 6990 8081      		ld r24,Z
 18398 6992 8230      		cpi r24,lo8(2)
 18399 6994 01F4      		brne .L1032
 18400               	.LM1925:
 18401 6996 8C91      		ld r24,X
 18402 6998 8B30      		cpi r24,lo8(11)
 18403 699a 00F0      		brlo .L1031
 18404 699c 00C0      		rjmp .L1055
 18405               	.L1032:
 18406               	.LM1926:
 18407 699e 8081      		ld r24,Z
 18408 69a0 8330      		cpi r24,lo8(3)
 18409 69a2 01F4      		brne .L1033
 18410               	.LM1927:
 18411 69a4 8C91      		ld r24,X
 18412 69a6 8330      		cpi r24,lo8(3)
 18413 69a8 00F0      		brlo .L1031
 18414               	.L1055:
 18415               	.LBB809:
 18416               	.LBB810:
 18417               	.LM1928:
 18418 69aa CA01      		movw r24,r20
 18419 69ac 022E      		mov r0,r18
 18420 69ae 00C0      		rjmp 2f
 18421 69b0 880F      	1:	lsl r24
 18422 69b2 991F      		rol r25
 18423 69b4 0A94      	2:	dec r0
 18424 69b6 02F4      		brpl 1b
 18425 69b8 8F83      		std Y+7,r24
 18426               	.LBE810:
 18427               	.LBE809:
 18428               	.LM1929:
 18429 69ba 1C92      		st X,__zero_reg__
 18430 69bc 00C0      		rjmp .L1031
 18431               	.L1033:
 18432               	.LBB811:
 18433               	.LBB806:
 18434               	.LM1930:
 18435 69be CA01      		movw r24,r20
 18436 69c0 022E      		mov r0,r18
 18437 69c2 00C0      		rjmp 2f
 18438 69c4 880F      	1:	lsl r24
 18439 69c6 991F      		rol r25
 18440 69c8 0A94      	2:	dec r0
 18441 69ca 02F4      		brpl 1b
 18442 69cc 8E83      		std Y+6,r24
 18443               	.L1031:
 18444 69ce 2F5F      		subi r18,lo8(-(1))
 18445 69d0 3F4F      		sbci r19,hi8(-(1))
 18446               	.LBE806:
 18447               	.LBE811:
 18448               	.LM1931:
 18449 69d2 2230      		cpi r18,2
 18450 69d4 3105      		cpc r19,__zero_reg__
 18451 69d6 01F4      		brne .L1034
 18452 69d8 00C0      		rjmp .L1058
 18453               	.L1056:
 18454               	.LBE803:
 18455               	.LM1932:
 18456 69da 8091 0000 		lds r24,recording
 18457 69de 8823      		tst r24
 18458 69e0 01F0      		breq .+2
 18459 69e2 00C0      		rjmp .L1015
 18460 69e4 00C0      		rjmp .L1059
 18461               	.L1057:
 18462 69e6 8091 0000 		lds r24,debounceEnabled
 18463 69ea 8823      		tst r24
 18464 69ec 01F0      		breq .+2
 18465 69ee 00C0      		rjmp .L1015
 18466 69f0 00C0      		rjmp .L1060
 18467               	.L1022:
 18468               	.LM1933:
 18469 69f2 8091 0000 		lds r24,timeIsValid
 18470 69f6 8823      		tst r24
 18471 69f8 01F4      		brne .+2
 18472 69fa 00C0      		rjmp .L1037
 18473 69fc 00C0      		rjmp .L1061
 18474               	.L1028:
 18475               	.LBB812:
 18476               	.LBB813:
 18477               	.LM1934:
 18478 69fe 82E0      		ldi r24,lo8(2)
 18479 6a00 00C0      		rjmp .L1054
 18480               	.L1029:
 18481               	.LBE813:
 18482               	.LBE812:
 18483               	.LBB814:
 18484               	.LBB815:
 18485               	.LM1935:
 18486 6a02 1092 0000 		sts ledState+1,__zero_reg__
 18487 6a06 00C0      		rjmp .L1026
 18488               	.L1058:
 18489               	/* epilogue start */
 18490               	.LBE815:
 18491               	.LBE814:
 18492               	.LM1936:
 18493 6a08 FF91      		pop r31
 18494 6a0a EF91      		pop r30
 18495 6a0c DF91      		pop r29
 18496 6a0e CF91      		pop r28
 18497 6a10 BF91      		pop r27
 18498 6a12 AF91      		pop r26
 18499 6a14 9F91      		pop r25
 18500 6a16 8F91      		pop r24
 18501 6a18 5F91      		pop r21
 18502 6a1a 4F91      		pop r20
 18503 6a1c 3F91      		pop r19
 18504 6a1e 2F91      		pop r18
 18505 6a20 0F90      		pop r0
 18506 6a22 0BBE      		out 59-0,r0
 18507 6a24 0F90      		pop r0
 18508 6a26 0FBE      		out __SREG__,r0
 18509 6a28 0F90      		pop r0
 18510 6a2a 1F90      		pop __zero_reg__
 18511 6a2c 1895      		reti
 18512               	.LFE146:
 18514               	.global	SD_BackroundWriter_Init
 18516               	SD_BackroundWriter_Init:
 18517               	.LFB147:
 18518               	.LM1937:
 18519               	/* prologue: function */
 18520               	/* frame size = 0 */
 18521               	.LM1938:
 18522 6a2e E0E4      		ldi r30,lo8(2624)
 18523 6a30 FAE0      		ldi r31,hi8(2624)
 18524 6a32 80E0      		ldi r24,lo8(2304)
 18525 6a34 99E0      		ldi r25,hi8(2304)
 18526 6a36 86A3      		std Z+38,r24
 18527 6a38 97A3      		std Z+39,r25
 18528               	.LM1939:
 18529 6a3a 8081      		ld r24,Z
 18530 6a3c 807F      		andi r24,lo8(-16)
 18531 6a3e 8560      		ori r24,lo8(5)
 18532 6a40 8083      		st Z,r24
 18533               	.LM1940:
 18534 6a42 8681      		ldd r24,Z+6
 18535 6a44 8C7F      		andi r24,lo8(-4)
 18536 6a46 8260      		ori r24,lo8(2)
 18537 6a48 8683      		std Z+6,r24
 18538               	/* epilogue start */
 18539               	.LM1941:
 18540 6a4a 0895      		ret
 18541               	.LFE147:
 18543               	.global	SD_WriteRTCBlock
 18545               	SD_WriteRTCBlock:
 18546               	.LFB150:
 18547               	.LM1942:
 18548               	.LVL1442:
 18549 6a4c AF92      		push r10
 18550 6a4e BF92      		push r11
 18551 6a50 CF92      		push r12
 18552 6a52 DF92      		push r13
 18553 6a54 EF92      		push r14
 18554 6a56 FF92      		push r15
 18555 6a58 0F93      		push r16
 18556 6a5a 1F93      		push r17
 18557               	/* prologue: function */
 18558               	/* frame size = 0 */
 18559 6a5c 7B01      		movw r14,r22
 18560 6a5e 8C01      		movw r16,r24
 18561 6a60 5901      		movw r10,r18
 18562 6a62 6A01      		movw r12,r20
 18563               	.LBB816:
 18564               	.LBB817:
 18565               	.LM1943:
 18566 6a64 8FEF      		ldi r24,lo8(-1)
 18567 6a66 9FEF      		ldi r25,hi8(-1)
 18568 6a68 AFEF      		ldi r26,hlo8(-1)
 18569 6a6a BFEF      		ldi r27,hhi8(-1)
 18570 6a6c 8093 0000 		sts CRC,r24
 18571 6a70 9093 0000 		sts (CRC)+1,r25
 18572 6a74 A093 0000 		sts (CRC)+2,r26
 18573 6a78 B093 0000 		sts (CRC)+3,r27
 18574               	.LBE817:
 18575               	.LBE816:
 18576               	.LM1944:
 18577 6a7c 6CE4      		ldi r22,lo8(-1327598516)
 18578 6a7e 74E7      		ldi r23,hi8(-1327598516)
 18579 6a80 8EED      		ldi r24,hlo8(-1327598516)
 18580 6a82 90EB      		ldi r25,hhi8(-1327598516)
 18581               	.LVL1443:
 18582 6a84 0E94 0000 		call SD_Write32
 18583               	.LVL1444:
 18584               	.LM1945:
 18585 6a88 6BE1      		ldi r22,lo8(27)
 18586 6a8a 70E0      		ldi r23,hi8(27)
 18587 6a8c 80E0      		ldi r24,hlo8(27)
 18588 6a8e 90E0      		ldi r25,hhi8(27)
 18589 6a90 0E94 0000 		call SD_Write32
 18590               	.LM1946:
 18591 6a94 82E0      		ldi r24,lo8(2)
 18592 6a96 90E0      		ldi r25,hi8(2)
 18593 6a98 0E94 0000 		call SD_Write16
 18594               	.LM1947:
 18595 6a9c C801      		movw r24,r16
 18596 6a9e B701      		movw r22,r14
 18597 6aa0 0E94 0000 		call SD_Write32
 18598               	.LM1948:
 18599 6aa4 C601      		movw r24,r12
 18600 6aa6 B501      		movw r22,r10
 18601 6aa8 0E94 0000 		call SD_Write32
 18602               	.LM1949:
 18603 6aac 80E0      		ldi r24,lo8(0)
 18604 6aae 0E94 0000 		call SD_Write8
 18605               	.LM1950:
 18606 6ab2 60E0      		ldi r22,lo8(0)
 18607 6ab4 70E0      		ldi r23,hi8(0)
 18608 6ab6 80E0      		ldi r24,hlo8(0)
 18609 6ab8 90E0      		ldi r25,hhi8(0)
 18610 6aba 0E94 0000 		call SD_Write32
 18611               	.LM1951:
 18612 6abe 0E94 0000 		call SD_WriteCRC
 18613               	.LM1952:
 18614 6ac2 80E0      		ldi r24,lo8(Log_File)
 18615 6ac4 90E0      		ldi r25,hi8(Log_File)
 18616 6ac6 0E94 0000 		call f_sync
 18617               	/* epilogue start */
 18618               	.LM1953:
 18619 6aca 1F91      		pop r17
 18620 6acc 0F91      		pop r16
 18621 6ace FF90      		pop r15
 18622 6ad0 EF90      		pop r14
 18623               	.LVL1445:
 18624 6ad2 DF90      		pop r13
 18625 6ad4 CF90      		pop r12
 18626 6ad6 BF90      		pop r11
 18627 6ad8 AF90      		pop r10
 18628               	.LVL1446:
 18629 6ada 0895      		ret
 18630               	.LFE150:
 18632               	.global	getDeviceID
 18634               	getDeviceID:
 18635               	.LFB156:
 18636               	.LM1954:
 18637 6adc BF92      		push r11
 18638 6ade CF92      		push r12
 18639 6ae0 DF92      		push r13
 18640 6ae2 EF92      		push r14
 18641 6ae4 FF92      		push r15
 18642 6ae6 0F93      		push r16
 18643 6ae8 1F93      		push r17
 18644 6aea DF93      		push r29
 18645 6aec CF93      		push r28
 18646 6aee CDB7      		in r28,__SP_L__
 18647 6af0 DEB7      		in r29,__SP_H__
 18648 6af2 2597      		sbiw r28,5
 18649 6af4 CDBF      		out __SP_L__,r28
 18650 6af6 DEBF      		out __SP_H__,r29
 18651               	/* prologue: function */
 18652               	/* frame size = 5 */
 18653               	.LBB818:
 18654               	.LBB819:
 18655               	.LM1955:
 18656 6af8 0AEC      		ldi r16,lo8(458)
 18657 6afa 11E0      		ldi r17,hi8(458)
 18658 6afc 62E0      		ldi r22,lo8(2)
 18659 6afe B62E      		mov r11,r22
 18660 6b00 D801      		movw r26,r16
 18661 6b02 BC92      		st X,r11
 18662               	.LBB820:
 18663               	.LM1956:
 18664 6b04 E8E0      		ldi r30,lo8(8)
 18665 6b06 F0E0      		ldi r31,hi8(8)
 18666               	/* #APP */
 18667               	 ;  304 "sensorsCS.c" 1
 18668 6b08 E491      		lpm r30, Z
 18669               		
 18670               	 ;  0 "" 2
 18671               	.LVL1447:
 18672               	/* #NOAPP */
 18673               	.LBE820:
 18674               	.LM1957:
 18675 6b0a 1C92      		st X,__zero_reg__
 18676               	.LBE819:
 18677               	.LBE818:
 18678               	.LM1958:
 18679 6b0c 8E2F      		mov r24,r30
 18680 6b0e 90E0      		ldi r25,lo8(0)
 18681 6b10 6E01      		movw r12,r28
 18682 6b12 0894      		sec
 18683 6b14 C11C      		adc r12,__zero_reg__
 18684 6b16 D11C      		adc r13,__zero_reg__
 18685 6b18 B601      		movw r22,r12
 18686 6b1a 40E1      		ldi r20,lo8(16)
 18687 6b1c 50E0      		ldi r21,hi8(16)
 18688 6b1e 0E94 0000 		call itoa
 18689               	.LVL1448:
 18690 6b22 BC01      		movw r22,r24
 18691 6b24 50E0      		ldi r21,lo8(deviceID)
 18692 6b26 E52E      		mov r14,r21
 18693 6b28 50E0      		ldi r21,hi8(deviceID)
 18694 6b2a F52E      		mov r15,r21
 18695 6b2c C701      		movw r24,r14
 18696 6b2e 0E94 0000 		call strcpy
 18697               	.LBB821:
 18698               	.LBB822:
 18699               	.LM1959:
 18700 6b32 F801      		movw r30,r16
 18701 6b34 B082      		st Z,r11
 18702               	.LBB823:
 18703               	.LM1960:
 18704 6b36 E9E0      		ldi r30,lo8(9)
 18705 6b38 F0E0      		ldi r31,hi8(9)
 18706               	/* #APP */
 18707               	 ;  304 "sensorsCS.c" 1
 18708 6b3a E491      		lpm r30, Z
 18709               		
 18710               	 ;  0 "" 2
 18711               	.LVL1449:
 18712               	/* #NOAPP */
 18713               	.LBE823:
 18714               	.LM1961:
 18715 6b3c D801      		movw r26,r16
 18716 6b3e 1C92      		st X,__zero_reg__
 18717               	.LBE822:
 18718               	.LBE821:
 18719               	.LM1962:
 18720 6b40 8E2F      		mov r24,r30
 18721 6b42 90E0      		ldi r25,lo8(0)
 18722 6b44 B601      		movw r22,r12
 18723 6b46 40E1      		ldi r20,lo8(16)
 18724 6b48 50E0      		ldi r21,hi8(16)
 18725 6b4a 0E94 0000 		call itoa
 18726               	.LVL1450:
 18727 6b4e BC01      		movw r22,r24
 18728 6b50 C701      		movw r24,r14
 18729 6b52 0E94 0000 		call strcat
 18730               	.LBB824:
 18731               	.LBB825:
 18732               	.LM1963:
 18733 6b56 F801      		movw r30,r16
 18734 6b58 B082      		st Z,r11
 18735               	.LBB826:
 18736               	.LM1964:
 18737 6b5a EAE0      		ldi r30,lo8(10)
 18738 6b5c F0E0      		ldi r31,hi8(10)
 18739               	/* #APP */
 18740               	 ;  304 "sensorsCS.c" 1
 18741 6b5e E491      		lpm r30, Z
 18742               		
 18743               	 ;  0 "" 2
 18744               	.LVL1451:
 18745               	/* #NOAPP */
 18746               	.LBE826:
 18747               	.LM1965:
 18748 6b60 D801      		movw r26,r16
 18749 6b62 1C92      		st X,__zero_reg__
 18750               	.LBE825:
 18751               	.LBE824:
 18752               	.LM1966:
 18753 6b64 8E2F      		mov r24,r30
 18754 6b66 90E0      		ldi r25,lo8(0)
 18755 6b68 B601      		movw r22,r12
 18756 6b6a 40E1      		ldi r20,lo8(16)
 18757 6b6c 50E0      		ldi r21,hi8(16)
 18758 6b6e 0E94 0000 		call itoa
 18759               	.LVL1452:
 18760 6b72 BC01      		movw r22,r24
 18761 6b74 C701      		movw r24,r14
 18762 6b76 0E94 0000 		call strcat
 18763               	.LBB827:
 18764               	.LBB828:
 18765               	.LM1967:
 18766 6b7a F801      		movw r30,r16
 18767 6b7c B082      		st Z,r11
 18768               	.LBB829:
 18769               	.LM1968:
 18770 6b7e EBE0      		ldi r30,lo8(11)
 18771 6b80 F0E0      		ldi r31,hi8(11)
 18772               	/* #APP */
 18773               	 ;  304 "sensorsCS.c" 1
 18774 6b82 E491      		lpm r30, Z
 18775               		
 18776               	 ;  0 "" 2
 18777               	.LVL1453:
 18778               	/* #NOAPP */
 18779               	.LBE829:
 18780               	.LM1969:
 18781 6b84 D801      		movw r26,r16
 18782 6b86 1C92      		st X,__zero_reg__
 18783               	.LBE828:
 18784               	.LBE827:
 18785               	.LM1970:
 18786 6b88 8E2F      		mov r24,r30
 18787 6b8a 90E0      		ldi r25,lo8(0)
 18788 6b8c B601      		movw r22,r12
 18789 6b8e 40E1      		ldi r20,lo8(16)
 18790 6b90 50E0      		ldi r21,hi8(16)
 18791 6b92 0E94 0000 		call itoa
 18792               	.LVL1454:
 18793 6b96 BC01      		movw r22,r24
 18794 6b98 C701      		movw r24,r14
 18795 6b9a 0E94 0000 		call strcat
 18796               	.LBB830:
 18797               	.LBB831:
 18798               	.LM1971:
 18799 6b9e F801      		movw r30,r16
 18800 6ba0 B082      		st Z,r11
 18801               	.LBB832:
 18802               	.LM1972:
 18803 6ba2 ECE0      		ldi r30,lo8(12)
 18804 6ba4 F0E0      		ldi r31,hi8(12)
 18805               	/* #APP */
 18806               	 ;  304 "sensorsCS.c" 1
 18807 6ba6 E491      		lpm r30, Z
 18808               		
 18809               	 ;  0 "" 2
 18810               	.LVL1455:
 18811               	/* #NOAPP */
 18812               	.LBE832:
 18813               	.LM1973:
 18814 6ba8 D801      		movw r26,r16
 18815 6baa 1C92      		st X,__zero_reg__
 18816               	.LBE831:
 18817               	.LBE830:
 18818               	.LM1974:
 18819 6bac 8E2F      		mov r24,r30
 18820 6bae 90E0      		ldi r25,lo8(0)
 18821 6bb0 B601      		movw r22,r12
 18822 6bb2 40E1      		ldi r20,lo8(16)
 18823 6bb4 50E0      		ldi r21,hi8(16)
 18824 6bb6 0E94 0000 		call itoa
 18825               	.LVL1456:
 18826 6bba BC01      		movw r22,r24
 18827 6bbc C701      		movw r24,r14
 18828 6bbe 0E94 0000 		call strcat
 18829               	.LBB833:
 18830               	.LBB834:
 18831               	.LM1975:
 18832 6bc2 F801      		movw r30,r16
 18833 6bc4 B082      		st Z,r11
 18834               	.LBB835:
 18835               	.LM1976:
 18836 6bc6 EDE0      		ldi r30,lo8(13)
 18837 6bc8 F0E0      		ldi r31,hi8(13)
 18838               	/* #APP */
 18839               	 ;  304 "sensorsCS.c" 1
 18840 6bca E491      		lpm r30, Z
 18841               		
 18842               	 ;  0 "" 2
 18843               	.LVL1457:
 18844               	/* #NOAPP */
 18845               	.LBE835:
 18846               	.LM1977:
 18847 6bcc D801      		movw r26,r16
 18848 6bce 1C92      		st X,__zero_reg__
 18849               	.LBE834:
 18850               	.LBE833:
 18851               	.LM1978:
 18852 6bd0 8E2F      		mov r24,r30
 18853 6bd2 90E0      		ldi r25,lo8(0)
 18854 6bd4 B601      		movw r22,r12
 18855 6bd6 40E1      		ldi r20,lo8(16)
 18856 6bd8 50E0      		ldi r21,hi8(16)
 18857 6bda 0E94 0000 		call itoa
 18858               	.LVL1458:
 18859 6bde BC01      		movw r22,r24
 18860 6be0 C701      		movw r24,r14
 18861 6be2 0E94 0000 		call strcat
 18862               	.LBB836:
 18863               	.LBB837:
 18864               	.LM1979:
 18865 6be6 F801      		movw r30,r16
 18866 6be8 B082      		st Z,r11
 18867               	.LBB838:
 18868               	.LM1980:
 18869 6bea E0E1      		ldi r30,lo8(16)
 18870 6bec F0E0      		ldi r31,hi8(16)
 18871               	/* #APP */
 18872               	 ;  304 "sensorsCS.c" 1
 18873 6bee E491      		lpm r30, Z
 18874               		
 18875               	 ;  0 "" 2
 18876               	.LVL1459:
 18877               	/* #NOAPP */
 18878               	.LBE838:
 18879               	.LM1981:
 18880 6bf0 D801      		movw r26,r16
 18881 6bf2 1C92      		st X,__zero_reg__
 18882               	.LBE837:
 18883               	.LBE836:
 18884               	.LM1982:
 18885 6bf4 8E2F      		mov r24,r30
 18886 6bf6 90E0      		ldi r25,lo8(0)
 18887 6bf8 B601      		movw r22,r12
 18888 6bfa 40E1      		ldi r20,lo8(16)
 18889 6bfc 50E0      		ldi r21,hi8(16)
 18890 6bfe 0E94 0000 		call itoa
 18891               	.LVL1460:
 18892 6c02 BC01      		movw r22,r24
 18893 6c04 C701      		movw r24,r14
 18894 6c06 0E94 0000 		call strcat
 18895               	.LBB839:
 18896               	.LBB840:
 18897               	.LM1983:
 18898 6c0a F801      		movw r30,r16
 18899 6c0c B082      		st Z,r11
 18900               	.LBB841:
 18901               	.LM1984:
 18902 6c0e E2E1      		ldi r30,lo8(18)
 18903 6c10 F0E0      		ldi r31,hi8(18)
 18904               	/* #APP */
 18905               	 ;  304 "sensorsCS.c" 1
 18906 6c12 E491      		lpm r30, Z
 18907               		
 18908               	 ;  0 "" 2
 18909               	.LVL1461:
 18910               	/* #NOAPP */
 18911               	.LBE841:
 18912               	.LM1985:
 18913 6c14 D801      		movw r26,r16
 18914 6c16 1C92      		st X,__zero_reg__
 18915               	.LBE840:
 18916               	.LBE839:
 18917               	.LM1986:
 18918 6c18 8E2F      		mov r24,r30
 18919 6c1a 90E0      		ldi r25,lo8(0)
 18920 6c1c B601      		movw r22,r12
 18921 6c1e 40E1      		ldi r20,lo8(16)
 18922 6c20 50E0      		ldi r21,hi8(16)
 18923 6c22 0E94 0000 		call itoa
 18924               	.LVL1462:
 18925 6c26 BC01      		movw r22,r24
 18926 6c28 C701      		movw r24,r14
 18927 6c2a 0E94 0000 		call strcat
 18928               	.LBB842:
 18929               	.LBB843:
 18930               	.LM1987:
 18931 6c2e F801      		movw r30,r16
 18932 6c30 B082      		st Z,r11
 18933               	.LBB844:
 18934               	.LM1988:
 18935 6c32 E3E1      		ldi r30,lo8(19)
 18936 6c34 F0E0      		ldi r31,hi8(19)
 18937               	/* #APP */
 18938               	 ;  304 "sensorsCS.c" 1
 18939 6c36 E491      		lpm r30, Z
 18940               		
 18941               	 ;  0 "" 2
 18942               	.LVL1463:
 18943               	/* #NOAPP */
 18944               	.LBE844:
 18945               	.LM1989:
 18946 6c38 D801      		movw r26,r16
 18947 6c3a 1C92      		st X,__zero_reg__
 18948               	.LBE843:
 18949               	.LBE842:
 18950               	.LM1990:
 18951 6c3c 8E2F      		mov r24,r30
 18952 6c3e 90E0      		ldi r25,lo8(0)
 18953 6c40 B601      		movw r22,r12
 18954 6c42 40E1      		ldi r20,lo8(16)
 18955 6c44 50E0      		ldi r21,hi8(16)
 18956 6c46 0E94 0000 		call itoa
 18957               	.LVL1464:
 18958 6c4a BC01      		movw r22,r24
 18959 6c4c C701      		movw r24,r14
 18960 6c4e 0E94 0000 		call strcat
 18961               	.LBB845:
 18962               	.LBB846:
 18963               	.LM1991:
 18964 6c52 F801      		movw r30,r16
 18965 6c54 B082      		st Z,r11
 18966               	.LBB847:
 18967               	.LM1992:
 18968 6c56 E4E1      		ldi r30,lo8(20)
 18969 6c58 F0E0      		ldi r31,hi8(20)
 18970               	/* #APP */
 18971               	 ;  304 "sensorsCS.c" 1
 18972 6c5a E491      		lpm r30, Z
 18973               		
 18974               	 ;  0 "" 2
 18975               	.LVL1465:
 18976               	/* #NOAPP */
 18977               	.LBE847:
 18978               	.LM1993:
 18979 6c5c D801      		movw r26,r16
 18980 6c5e 1C92      		st X,__zero_reg__
 18981               	.LBE846:
 18982               	.LBE845:
 18983               	.LM1994:
 18984 6c60 8E2F      		mov r24,r30
 18985 6c62 90E0      		ldi r25,lo8(0)
 18986 6c64 B601      		movw r22,r12
 18987 6c66 40E1      		ldi r20,lo8(16)
 18988 6c68 50E0      		ldi r21,hi8(16)
 18989 6c6a 0E94 0000 		call itoa
 18990               	.LVL1466:
 18991 6c6e BC01      		movw r22,r24
 18992 6c70 C701      		movw r24,r14
 18993 6c72 0E94 0000 		call strcat
 18994               	.LBB848:
 18995               	.LBB849:
 18996               	.LM1995:
 18997 6c76 F801      		movw r30,r16
 18998 6c78 B082      		st Z,r11
 18999               	.LBB850:
 19000               	.LM1996:
 19001 6c7a E5E1      		ldi r30,lo8(21)
 19002 6c7c F0E0      		ldi r31,hi8(21)
 19003               	/* #APP */
 19004               	 ;  304 "sensorsCS.c" 1
 19005 6c7e E491      		lpm r30, Z
 19006               		
 19007               	 ;  0 "" 2
 19008               	.LVL1467:
 19009               	/* #NOAPP */
 19010               	.LBE850:
 19011               	.LM1997:
 19012 6c80 D801      		movw r26,r16
 19013 6c82 1C92      		st X,__zero_reg__
 19014               	.LBE849:
 19015               	.LBE848:
 19016               	.LM1998:
 19017 6c84 8E2F      		mov r24,r30
 19018 6c86 90E0      		ldi r25,lo8(0)
 19019 6c88 B601      		movw r22,r12
 19020 6c8a 40E1      		ldi r20,lo8(16)
 19021 6c8c 50E0      		ldi r21,hi8(16)
 19022 6c8e 0E94 0000 		call itoa
 19023               	.LVL1468:
 19024 6c92 BC01      		movw r22,r24
 19025 6c94 C701      		movw r24,r14
 19026 6c96 0E94 0000 		call strcat
 19027               	/* epilogue start */
 19028               	.LM1999:
 19029 6c9a 2596      		adiw r28,5
 19030 6c9c CDBF      		out __SP_L__,r28
 19031 6c9e DEBF      		out __SP_H__,r29
 19032 6ca0 CF91      		pop r28
 19033 6ca2 DF91      		pop r29
 19034 6ca4 1F91      		pop r17
 19035 6ca6 0F91      		pop r16
 19036 6ca8 FF90      		pop r15
 19037 6caa EF90      		pop r14
 19038 6cac DF90      		pop r13
 19039 6cae CF90      		pop r12
 19040 6cb0 BF90      		pop r11
 19041 6cb2 0895      		ret
 19042               	.LFE156:
 19044               	.global	SD_WriteString
 19046               	SD_WriteString:
 19047               	.LFB94:
 19048               	.LM2000:
 19049               	.LVL1469:
 19050 6cb4 EF92      		push r14
 19051 6cb6 FF92      		push r15
 19052 6cb8 0F93      		push r16
 19053 6cba 1F93      		push r17
 19054 6cbc CF93      		push r28
 19055 6cbe DF93      		push r29
 19056               	/* prologue: function */
 19057               	/* frame size = 0 */
 19058 6cc0 EC01      		movw r28,r24
 19059               	.LM2001:
 19060 6cc2 60E0      		ldi r22,lo8(Log_File)
 19061 6cc4 70E0      		ldi r23,hi8(Log_File)
 19062 6cc6 0E94 0000 		call f_puts
 19063               	.LVL1470:
 19064 6cca 60E0      		ldi r22,lo8(0)
 19065 6ccc 70E0      		ldi r23,hi8(0)
 19066               	.LVL1471:
 19067 6cce 00C0      		rjmp .L1069
 19068               	.L1070:
 19069               	.LBB851:
 19070               	.LM2002:
 19071 6cd0 E090 0000 		lds r14,CRC
 19072 6cd4 F090 0000 		lds r15,(CRC)+1
 19073 6cd8 0091 0000 		lds r16,(CRC)+2
 19074 6cdc 1091 0000 		lds r17,(CRC)+3
 19075 6ce0 2091 0000 		lds r18,CRC
 19076 6ce4 3091 0000 		lds r19,(CRC)+1
 19077 6ce8 4091 0000 		lds r20,(CRC)+2
 19078 6cec 5091 0000 		lds r21,(CRC)+3
 19079 6cf0 3070      		andi r19,hi8(255)
 19080 6cf2 4070      		andi r20,hlo8(255)
 19081 6cf4 5070      		andi r21,hhi8(255)
 19082 6cf6 FE01      		movw r30,r28
 19083 6cf8 E60F      		add r30,r22
 19084 6cfa F71F      		adc r31,r23
 19085 6cfc 8081      		ld r24,Z
 19086 6cfe 90E0      		ldi r25,lo8(0)
 19087 6d00 A0E0      		ldi r26,lo8(0)
 19088 6d02 B0E0      		ldi r27,hi8(0)
 19089 6d04 2827      		eor r18,r24
 19090 6d06 3927      		eor r19,r25
 19091 6d08 4A27      		eor r20,r26
 19092 6d0a 5B27      		eor r21,r27
 19093 6d0c 220F      		lsl r18
 19094 6d0e 331F      		rol r19
 19095 6d10 220F      		lsl r18
 19096 6d12 331F      		rol r19
 19097 6d14 2050      		subi r18,lo8(-(crc_table))
 19098 6d16 3040      		sbci r19,hi8(-(crc_table))
 19099 6d18 EF2C      		mov r14,r15
 19100 6d1a F02E      		mov r15,r16
 19101 6d1c 012F      		mov r16,r17
 19102 6d1e 1127      		clr r17
 19103 6d20 F901      		movw r30,r18
 19104 6d22 8081      		ld r24,Z
 19105 6d24 9181      		ldd r25,Z+1
 19106 6d26 A281      		ldd r26,Z+2
 19107 6d28 B381      		ldd r27,Z+3
 19108 6d2a E826      		eor r14,r24
 19109 6d2c F926      		eor r15,r25
 19110 6d2e 0A27      		eor r16,r26
 19111 6d30 1B27      		eor r17,r27
 19112 6d32 E092 0000 		sts CRC,r14
 19113 6d36 F092 0000 		sts (CRC)+1,r15
 19114 6d3a 0093 0000 		sts (CRC)+2,r16
 19115 6d3e 1093 0000 		sts (CRC)+3,r17
 19116               	.LM2003:
 19117 6d42 6F5F      		subi r22,lo8(-(1))
 19118 6d44 7F4F      		sbci r23,hi8(-(1))
 19119               	.L1069:
 19120 6d46 FE01      		movw r30,r28
 19121 6d48 0190      		ld __tmp_reg__,Z+
 19122 6d4a 0020      		tst __tmp_reg__
 19123 6d4c 01F4      		brne .-6
 19124 6d4e 3197      		sbiw r30,1
 19125 6d50 EC1B      		sub r30,r28
 19126 6d52 FD0B      		sbc r31,r29
 19127 6d54 6E17      		cp r22,r30
 19128 6d56 7F07      		cpc r23,r31
 19129 6d58 00F4      		brsh .+2
 19130 6d5a 00C0      		rjmp .L1070
 19131               	/* epilogue start */
 19132               	.LBE851:
 19133               	.LM2004:
 19134 6d5c DF91      		pop r29
 19135 6d5e CF91      		pop r28
 19136               	.LVL1472:
 19137 6d60 1F91      		pop r17
 19138 6d62 0F91      		pop r16
 19139 6d64 FF90      		pop r15
 19140 6d66 EF90      		pop r14
 19141 6d68 0895      		ret
 19142               	.LFE94:
 19144               		.data
 19145               	.LC3:
 19146 0033 4163 6365 		.string	"Accel_X"
 19146      6C5F 5800 
 19147               	.LC4:
 19148 003b 3136 00   		.string	"16"
 19149               	.LC5:
 19150 003e 4163 6365 		.string	"Accel_Y"
 19150      6C5F 5900 
 19151               	.LC6:
 19152 0046 4163 6365 		.string	"Accel_Z"
 19152      6C5F 5A00 
 19153               		.text
 19154               	.global	SD_WriteAccelBuffer
 19156               	SD_WriteAccelBuffer:
 19157               	.LFB155:
 19158               	.LM2005:
 19159               	.LVL1473:
 19160 6d6a 1F93      		push r17
 19161 6d6c CF93      		push r28
 19162 6d6e DF93      		push r29
 19163               	/* prologue: function */
 19164               	/* frame size = 0 */
 19165 6d70 182F      		mov r17,r24
 19166               	.LBB852:
 19167               	.LBB853:
 19168               	.LM2006:
 19169 6d72 8FEF      		ldi r24,lo8(-1)
 19170 6d74 9FEF      		ldi r25,hi8(-1)
 19171 6d76 AFEF      		ldi r26,hlo8(-1)
 19172 6d78 BFEF      		ldi r27,hhi8(-1)
 19173               	.LVL1474:
 19174 6d7a 8093 0000 		sts CRC,r24
 19175 6d7e 9093 0000 		sts (CRC)+1,r25
 19176 6d82 A093 0000 		sts (CRC)+2,r26
 19177 6d86 B093 0000 		sts (CRC)+3,r27
 19178               	.LBE853:
 19179               	.LBE852:
 19180               	.LM2007:
 19181 6d8a 6CE4      		ldi r22,lo8(-1327598516)
 19182 6d8c 74E7      		ldi r23,hi8(-1327598516)
 19183 6d8e 8EED      		ldi r24,hlo8(-1327598516)
 19184 6d90 90EB      		ldi r25,hhi8(-1327598516)
 19185 6d92 0E94 0000 		call SD_Write32
 19186               	.LM2008:
 19187 6d96 6CEE      		ldi r22,lo8(1260)
 19188 6d98 74E0      		ldi r23,hi8(1260)
 19189 6d9a 80E0      		ldi r24,hlo8(1260)
 19190 6d9c 90E0      		ldi r25,hhi8(1260)
 19191 6d9e 0E94 0000 		call SD_Write32
 19192               	.LM2009:
 19193 6da2 83E0      		ldi r24,lo8(3)
 19194 6da4 90E0      		ldi r25,hi8(3)
 19195 6da6 0E94 0000 		call SD_Write16
 19196               	.LM2010:
 19197 6daa 1130      		cpi r17,lo8(1)
 19198 6dac 01F4      		brne .L1073
 19199               	.LM2011:
 19200 6dae 6091 0000 		lds r22,accelSampleStartTime1
 19201 6db2 7091 0000 		lds r23,(accelSampleStartTime1)+1
 19202 6db6 8091 0000 		lds r24,(accelSampleStartTime1)+2
 19203 6dba 9091 0000 		lds r25,(accelSampleStartTime1)+3
 19204 6dbe 00C0      		rjmp .L1082
 19205               	.L1073:
 19206               	.LM2012:
 19207 6dc0 6091 0000 		lds r22,accelSampleStartTime2
 19208 6dc4 7091 0000 		lds r23,(accelSampleStartTime2)+1
 19209 6dc8 8091 0000 		lds r24,(accelSampleStartTime2)+2
 19210 6dcc 9091 0000 		lds r25,(accelSampleStartTime2)+3
 19211               	.L1082:
 19212 6dd0 0E94 0000 		call SD_Write32
 19213               	.LM2013:
 19214 6dd4 60E8      		ldi r22,lo8(5760)
 19215 6dd6 76E1      		ldi r23,hi8(5760)
 19216 6dd8 80E0      		ldi r24,hlo8(5760)
 19217 6dda 90E0      		ldi r25,hhi8(5760)
 19218 6ddc 0E94 0000 		call SD_Write32
 19219               	.LM2014:
 19220 6de0 68EC      		ldi r22,lo8(200)
 19221 6de2 70E0      		ldi r23,hi8(200)
 19222 6de4 80E0      		ldi r24,hlo8(200)
 19223 6de6 90E0      		ldi r25,hhi8(200)
 19224 6de8 0E94 0000 		call SD_Write32
 19225               	.LM2015:
 19226 6dec 80E0      		ldi r24,lo8(.LC3)
 19227 6dee 90E0      		ldi r25,hi8(.LC3)
 19228 6df0 0E94 0000 		call SD_WriteString
 19229               	.LM2016:
 19230 6df4 89E0      		ldi r24,lo8(9)
 19231 6df6 0E94 0000 		call SD_Write8
 19232               	.LM2017:
 19233 6dfa 80E0      		ldi r24,lo8(.LC4)
 19234 6dfc 90E0      		ldi r25,hi8(.LC4)
 19235 6dfe 0E94 0000 		call SD_WriteString
 19236               	.LM2018:
 19237 6e02 8AE0      		ldi r24,lo8(10)
 19238 6e04 0E94 0000 		call SD_Write8
 19239               	.LM2019:
 19240 6e08 80E0      		ldi r24,lo8(.LC5)
 19241 6e0a 90E0      		ldi r25,hi8(.LC5)
 19242 6e0c 0E94 0000 		call SD_WriteString
 19243               	.LM2020:
 19244 6e10 89E0      		ldi r24,lo8(9)
 19245 6e12 0E94 0000 		call SD_Write8
 19246               	.LM2021:
 19247 6e16 80E0      		ldi r24,lo8(.LC4)
 19248 6e18 90E0      		ldi r25,hi8(.LC4)
 19249 6e1a 0E94 0000 		call SD_WriteString
 19250               	.LM2022:
 19251 6e1e 8AE0      		ldi r24,lo8(10)
 19252 6e20 0E94 0000 		call SD_Write8
 19253               	.LM2023:
 19254 6e24 80E0      		ldi r24,lo8(.LC6)
 19255 6e26 90E0      		ldi r25,hi8(.LC6)
 19256 6e28 0E94 0000 		call SD_WriteString
 19257               	.LM2024:
 19258 6e2c 89E0      		ldi r24,lo8(9)
 19259 6e2e 0E94 0000 		call SD_Write8
 19260               	.LM2025:
 19261 6e32 80E0      		ldi r24,lo8(.LC4)
 19262 6e34 90E0      		ldi r25,hi8(.LC4)
 19263 6e36 0E94 0000 		call SD_WriteString
 19264               	.LM2026:
 19265 6e3a 8AE0      		ldi r24,lo8(10)
 19266 6e3c 0E94 0000 		call SD_Write8
 19267               	.LM2027:
 19268 6e40 80E0      		ldi r24,lo8(0)
 19269 6e42 0E94 0000 		call SD_Write8
 19270               	.LM2028:
 19271 6e46 1130      		cpi r17,lo8(1)
 19272 6e48 01F4      		brne .L1075
 19273 6e4a C0E0      		ldi r28,lo8(accelBuffer1)
 19274 6e4c D0E0      		ldi r29,hi8(accelBuffer1)
 19275               	.L1076:
 19276               	.LBB854:
 19277               	.LM2029:
 19278 6e4e 8991      		ld r24,Y+
 19279 6e50 9991      		ld r25,Y+
 19280 6e52 0E94 0000 		call SD_Write16
 19281               	.LM2030:
 19282 6e56 80E0      		ldi r24,hi8(accelBuffer1+1200)
 19283 6e58 C030      		cpi r28,lo8(accelBuffer1+1200)
 19284 6e5a D807      		cpc r29,r24
 19285 6e5c 01F4      		brne .L1076
 19286 6e5e 00C0      		rjmp .L1077
 19287               	.L1075:
 19288 6e60 C0E0      		ldi r28,lo8(accelBuffer2)
 19289 6e62 D0E0      		ldi r29,hi8(accelBuffer2)
 19290               	.L1078:
 19291               	.LBE854:
 19292               	.LBB855:
 19293               	.LM2031:
 19294 6e64 8991      		ld r24,Y+
 19295 6e66 9991      		ld r25,Y+
 19296 6e68 0E94 0000 		call SD_Write16
 19297               	.LM2032:
 19298 6e6c 80E0      		ldi r24,hi8(accelBuffer2+1200)
 19299 6e6e C030      		cpi r28,lo8(accelBuffer2+1200)
 19300 6e70 D807      		cpc r29,r24
 19301 6e72 01F4      		brne .L1078
 19302               	.L1077:
 19303               	.LBE855:
 19304               	.LM2033:
 19305 6e74 0E94 0000 		call SD_WriteCRC
 19306               	.LM2034:
 19307 6e78 80E0      		ldi r24,lo8(Log_File)
 19308 6e7a 90E0      		ldi r25,hi8(Log_File)
 19309 6e7c 0E94 0000 		call f_sync
 19310               	/* epilogue start */
 19311               	.LM2035:
 19312 6e80 DF91      		pop r29
 19313 6e82 CF91      		pop r28
 19314 6e84 1F91      		pop r17
 19315               	.LVL1475:
 19316 6e86 0895      		ret
 19317               	.LFE155:
 19319               		.data
 19320               	.LC7:
 19321 004e 454B 4700 		.string	"EKG"
 19322               		.text
 19323               	.global	SD_WriteEKGBuffer
 19325               	SD_WriteEKGBuffer:
 19326               	.LFB154:
 19327               	.LM2036:
 19328               	.LVL1476:
 19329 6e88 1F93      		push r17
 19330 6e8a CF93      		push r28
 19331 6e8c DF93      		push r29
 19332               	/* prologue: function */
 19333               	/* frame size = 0 */
 19334 6e8e 182F      		mov r17,r24
 19335               	.LBB856:
 19336               	.LBB857:
 19337               	.LM2037:
 19338 6e90 8FEF      		ldi r24,lo8(-1)
 19339 6e92 9FEF      		ldi r25,hi8(-1)
 19340 6e94 AFEF      		ldi r26,hlo8(-1)
 19341 6e96 BFEF      		ldi r27,hhi8(-1)
 19342               	.LVL1477:
 19343 6e98 8093 0000 		sts CRC,r24
 19344 6e9c 9093 0000 		sts (CRC)+1,r25
 19345 6ea0 A093 0000 		sts (CRC)+2,r26
 19346 6ea4 B093 0000 		sts (CRC)+3,r27
 19347               	.LBE857:
 19348               	.LBE856:
 19349               	.LM2038:
 19350 6ea8 6CE4      		ldi r22,lo8(-1327598516)
 19351 6eaa 74E7      		ldi r23,hi8(-1327598516)
 19352 6eac 8EED      		ldi r24,hlo8(-1327598516)
 19353 6eae 90EB      		ldi r25,hhi8(-1327598516)
 19354 6eb0 0E94 0000 		call SD_Write32
 19355               	.LM2039:
 19356 6eb4 62EB      		ldi r22,lo8(434)
 19357 6eb6 71E0      		ldi r23,hi8(434)
 19358 6eb8 80E0      		ldi r24,hlo8(434)
 19359 6eba 90E0      		ldi r25,hhi8(434)
 19360 6ebc 0E94 0000 		call SD_Write32
 19361               	.LM2040:
 19362 6ec0 83E0      		ldi r24,lo8(3)
 19363 6ec2 90E0      		ldi r25,hi8(3)
 19364 6ec4 0E94 0000 		call SD_Write16
 19365               	.LM2041:
 19366 6ec8 1130      		cpi r17,lo8(1)
 19367 6eca 01F4      		brne .L1084
 19368               	.LM2042:
 19369 6ecc 6091 0000 		lds r22,EKGSampleStartTime1
 19370 6ed0 7091 0000 		lds r23,(EKGSampleStartTime1)+1
 19371 6ed4 8091 0000 		lds r24,(EKGSampleStartTime1)+2
 19372 6ed8 9091 0000 		lds r25,(EKGSampleStartTime1)+3
 19373 6edc 00C0      		rjmp .L1093
 19374               	.L1084:
 19375               	.LM2043:
 19376 6ede 6091 0000 		lds r22,EKGSampleStartTime2
 19377 6ee2 7091 0000 		lds r23,(EKGSampleStartTime2)+1
 19378 6ee6 8091 0000 		lds r24,(EKGSampleStartTime2)+2
 19379 6eea 9091 0000 		lds r25,(EKGSampleStartTime2)+3
 19380               	.L1093:
 19381 6eee 0E94 0000 		call SD_Write32
 19382               	.LM2044:
 19383 6ef2 60E0      		ldi r22,lo8(6144)
 19384 6ef4 78E1      		ldi r23,hi8(6144)
 19385 6ef6 80E0      		ldi r24,hlo8(6144)
 19386 6ef8 90E0      		ldi r25,hhi8(6144)
 19387 6efa 0E94 0000 		call SD_Write32
 19388               	.LM2045:
 19389 6efe 68EC      		ldi r22,lo8(200)
 19390 6f00 70E0      		ldi r23,hi8(200)
 19391 6f02 80E0      		ldi r24,hlo8(200)
 19392 6f04 90E0      		ldi r25,hhi8(200)
 19393 6f06 0E94 0000 		call SD_Write32
 19394               	.LM2046:
 19395 6f0a 80E0      		ldi r24,lo8(.LC7)
 19396 6f0c 90E0      		ldi r25,hi8(.LC7)
 19397 6f0e 0E94 0000 		call SD_WriteString
 19398               	.LM2047:
 19399 6f12 89E0      		ldi r24,lo8(9)
 19400 6f14 0E94 0000 		call SD_Write8
 19401               	.LM2048:
 19402 6f18 80E0      		ldi r24,lo8(.LC4)
 19403 6f1a 90E0      		ldi r25,hi8(.LC4)
 19404 6f1c 0E94 0000 		call SD_WriteString
 19405               	.LM2049:
 19406 6f20 8AE0      		ldi r24,lo8(10)
 19407 6f22 0E94 0000 		call SD_Write8
 19408               	.LM2050:
 19409 6f26 80E0      		ldi r24,lo8(0)
 19410 6f28 0E94 0000 		call SD_Write8
 19411               	.LM2051:
 19412 6f2c 1130      		cpi r17,lo8(1)
 19413 6f2e 01F4      		brne .L1086
 19414 6f30 C0E0      		ldi r28,lo8(EKGBuffer1)
 19415 6f32 D0E0      		ldi r29,hi8(EKGBuffer1)
 19416               	.L1087:
 19417               	.LBB858:
 19418               	.LM2052:
 19419 6f34 8991      		ld r24,Y+
 19420 6f36 9991      		ld r25,Y+
 19421 6f38 0E94 0000 		call SD_Write16
 19422               	.LM2053:
 19423 6f3c 80E0      		ldi r24,hi8(EKGBuffer1+400)
 19424 6f3e C030      		cpi r28,lo8(EKGBuffer1+400)
 19425 6f40 D807      		cpc r29,r24
 19426 6f42 01F4      		brne .L1087
 19427 6f44 00C0      		rjmp .L1088
 19428               	.L1086:
 19429 6f46 C0E0      		ldi r28,lo8(EKGBuffer2)
 19430 6f48 D0E0      		ldi r29,hi8(EKGBuffer2)
 19431               	.L1089:
 19432               	.LBE858:
 19433               	.LBB859:
 19434               	.LM2054:
 19435 6f4a 8991      		ld r24,Y+
 19436 6f4c 9991      		ld r25,Y+
 19437 6f4e 0E94 0000 		call SD_Write16
 19438               	.LM2055:
 19439 6f52 80E0      		ldi r24,hi8(EKGBuffer2+400)
 19440 6f54 C030      		cpi r28,lo8(EKGBuffer2+400)
 19441 6f56 D807      		cpc r29,r24
 19442 6f58 01F4      		brne .L1089
 19443               	.L1088:
 19444               	.LBE859:
 19445               	.LM2056:
 19446 6f5a 0E94 0000 		call SD_WriteCRC
 19447               	.LM2057:
 19448 6f5e 80E0      		ldi r24,lo8(Log_File)
 19449 6f60 90E0      		ldi r25,hi8(Log_File)
 19450 6f62 0E94 0000 		call f_sync
 19451               	/* epilogue start */
 19452               	.LM2058:
 19453 6f66 DF91      		pop r29
 19454 6f68 CF91      		pop r28
 19455 6f6a 1F91      		pop r17
 19456               	.LVL1478:
 19457 6f6c 0895      		ret
 19458               	.LFE154:
 19460               		.data
 19461               	.LC8:
 19462 0052 5265 7370 		.string	"Respiration"
 19462      6972 6174 
 19462      696F 6E00 
 19463               		.text
 19464               	.global	SD_WriteRespirationBuffer
 19466               	SD_WriteRespirationBuffer:
 19467               	.LFB153:
 19468               	.LM2059:
 19469               	.LVL1479:
 19470 6f6e 1F93      		push r17
 19471 6f70 CF93      		push r28
 19472 6f72 DF93      		push r29
 19473               	/* prologue: function */
 19474               	/* frame size = 0 */
 19475 6f74 182F      		mov r17,r24
 19476               	.LBB860:
 19477               	.LBB861:
 19478               	.LM2060:
 19479 6f76 8FEF      		ldi r24,lo8(-1)
 19480 6f78 9FEF      		ldi r25,hi8(-1)
 19481 6f7a AFEF      		ldi r26,hlo8(-1)
 19482 6f7c BFEF      		ldi r27,hhi8(-1)
 19483               	.LVL1480:
 19484 6f7e 8093 0000 		sts CRC,r24
 19485 6f82 9093 0000 		sts (CRC)+1,r25
 19486 6f86 A093 0000 		sts (CRC)+2,r26
 19487 6f8a B093 0000 		sts (CRC)+3,r27
 19488               	.LBE861:
 19489               	.LBE860:
 19490               	.LM2061:
 19491 6f8e 6CE4      		ldi r22,lo8(-1327598516)
 19492 6f90 74E7      		ldi r23,hi8(-1327598516)
 19493 6f92 8EED      		ldi r24,hlo8(-1327598516)
 19494 6f94 90EB      		ldi r25,hhi8(-1327598516)
 19495 6f96 0E94 0000 		call SD_Write32
 19496               	.LM2062:
 19497 6f9a 6AEB      		ldi r22,lo8(442)
 19498 6f9c 71E0      		ldi r23,hi8(442)
 19499 6f9e 80E0      		ldi r24,hlo8(442)
 19500 6fa0 90E0      		ldi r25,hhi8(442)
 19501 6fa2 0E94 0000 		call SD_Write32
 19502               	.LM2063:
 19503 6fa6 83E0      		ldi r24,lo8(3)
 19504 6fa8 90E0      		ldi r25,hi8(3)
 19505 6faa 0E94 0000 		call SD_Write16
 19506               	.LM2064:
 19507 6fae 1130      		cpi r17,lo8(1)
 19508 6fb0 01F4      		brne .L1095
 19509               	.LM2065:
 19510 6fb2 6091 0000 		lds r22,respirationSampleStartTime1
 19511 6fb6 7091 0000 		lds r23,(respirationSampleStartTime1)+1
 19512 6fba 8091 0000 		lds r24,(respirationSampleStartTime1)+2
 19513 6fbe 9091 0000 		lds r25,(respirationSampleStartTime1)+3
 19514 6fc2 00C0      		rjmp .L1104
 19515               	.L1095:
 19516               	.LM2066:
 19517 6fc4 6091 0000 		lds r22,respirationSampleStartTime2
 19518 6fc8 7091 0000 		lds r23,(respirationSampleStartTime2)+1
 19519 6fcc 8091 0000 		lds r24,(respirationSampleStartTime2)+2
 19520 6fd0 9091 0000 		lds r25,(respirationSampleStartTime2)+3
 19521               	.L1104:
 19522 6fd4 0E94 0000 		call SD_Write32
 19523               	.LM2067:
 19524 6fd8 60E0      		ldi r22,lo8(6144)
 19525 6fda 78E1      		ldi r23,hi8(6144)
 19526 6fdc 80E0      		ldi r24,hlo8(6144)
 19527 6fde 90E0      		ldi r25,hhi8(6144)
 19528 6fe0 0E94 0000 		call SD_Write32
 19529               	.LM2068:
 19530 6fe4 68EC      		ldi r22,lo8(200)
 19531 6fe6 70E0      		ldi r23,hi8(200)
 19532 6fe8 80E0      		ldi r24,hlo8(200)
 19533 6fea 90E0      		ldi r25,hhi8(200)
 19534 6fec 0E94 0000 		call SD_Write32
 19535               	.LM2069:
 19536 6ff0 80E0      		ldi r24,lo8(.LC8)
 19537 6ff2 90E0      		ldi r25,hi8(.LC8)
 19538 6ff4 0E94 0000 		call SD_WriteString
 19539               	.LM2070:
 19540 6ff8 89E0      		ldi r24,lo8(9)
 19541 6ffa 0E94 0000 		call SD_Write8
 19542               	.LM2071:
 19543 6ffe 80E0      		ldi r24,lo8(.LC4)
 19544 7000 90E0      		ldi r25,hi8(.LC4)
 19545 7002 0E94 0000 		call SD_WriteString
 19546               	.LM2072:
 19547 7006 8AE0      		ldi r24,lo8(10)
 19548 7008 0E94 0000 		call SD_Write8
 19549               	.LM2073:
 19550 700c 80E0      		ldi r24,lo8(0)
 19551 700e 0E94 0000 		call SD_Write8
 19552               	.LM2074:
 19553 7012 1130      		cpi r17,lo8(1)
 19554 7014 01F4      		brne .L1097
 19555 7016 C0E0      		ldi r28,lo8(respirationBuffer1)
 19556 7018 D0E0      		ldi r29,hi8(respirationBuffer1)
 19557               	.L1098:
 19558               	.LBB862:
 19559               	.LM2075:
 19560 701a 8991      		ld r24,Y+
 19561 701c 9991      		ld r25,Y+
 19562 701e 0E94 0000 		call SD_Write16
 19563               	.LM2076:
 19564 7022 80E0      		ldi r24,hi8(respirationBuffer1+400)
 19565 7024 C030      		cpi r28,lo8(respirationBuffer1+400)
 19566 7026 D807      		cpc r29,r24
 19567 7028 01F4      		brne .L1098
 19568 702a 00C0      		rjmp .L1099
 19569               	.L1097:
 19570 702c C0E0      		ldi r28,lo8(respirationBuffer2)
 19571 702e D0E0      		ldi r29,hi8(respirationBuffer2)
 19572               	.L1100:
 19573               	.LBE862:
 19574               	.LBB863:
 19575               	.LM2077:
 19576 7030 8991      		ld r24,Y+
 19577 7032 9991      		ld r25,Y+
 19578 7034 0E94 0000 		call SD_Write16
 19579               	.LM2078:
 19580 7038 80E0      		ldi r24,hi8(respirationBuffer2+400)
 19581 703a C030      		cpi r28,lo8(respirationBuffer2+400)
 19582 703c D807      		cpc r29,r24
 19583 703e 01F4      		brne .L1100
 19584               	.L1099:
 19585               	.LBE863:
 19586               	.LM2079:
 19587 7040 0E94 0000 		call SD_WriteCRC
 19588               	.LM2080:
 19589 7044 80E0      		ldi r24,lo8(Log_File)
 19590 7046 90E0      		ldi r25,hi8(Log_File)
 19591 7048 0E94 0000 		call f_sync
 19592               	/* epilogue start */
 19593               	.LM2081:
 19594 704c DF91      		pop r29
 19595 704e CF91      		pop r28
 19596 7050 1F91      		pop r17
 19597               	.LVL1481:
 19598 7052 0895      		ret
 19599               	.LFE153:
 19601               		.data
 19602               	.LC9:
 19603 005e 4875 6D69 		.string	"Humidity"
 19603      6469 7479 
 19603      00
 19604               		.text
 19605               	.global	SD_WriteHumidityBuffer
 19607               	SD_WriteHumidityBuffer:
 19608               	.LFB152:
 19609               	.LM2082:
 19610               	.LVL1482:
 19611 7054 1F93      		push r17
 19612 7056 CF93      		push r28
 19613 7058 DF93      		push r29
 19614               	/* prologue: function */
 19615               	/* frame size = 0 */
 19616 705a 182F      		mov r17,r24
 19617               	.LBB864:
 19618               	.LBB865:
 19619               	.LM2083:
 19620 705c 8FEF      		ldi r24,lo8(-1)
 19621 705e 9FEF      		ldi r25,hi8(-1)
 19622 7060 AFEF      		ldi r26,hlo8(-1)
 19623 7062 BFEF      		ldi r27,hhi8(-1)
 19624               	.LVL1483:
 19625 7064 8093 0000 		sts CRC,r24
 19626 7068 9093 0000 		sts (CRC)+1,r25
 19627 706c A093 0000 		sts (CRC)+2,r26
 19628 7070 B093 0000 		sts (CRC)+3,r27
 19629               	.LBE865:
 19630               	.LBE864:
 19631               	.LM2084:
 19632 7074 6CE4      		ldi r22,lo8(-1327598516)
 19633 7076 74E7      		ldi r23,hi8(-1327598516)
 19634 7078 8EED      		ldi r24,hlo8(-1327598516)
 19635 707a 90EB      		ldi r25,hhi8(-1327598516)
 19636 707c 0E94 0000 		call SD_Write32
 19637               	.LM2085:
 19638 7080 6BE3      		ldi r22,lo8(59)
 19639 7082 70E0      		ldi r23,hi8(59)
 19640 7084 80E0      		ldi r24,hlo8(59)
 19641 7086 90E0      		ldi r25,hhi8(59)
 19642 7088 0E94 0000 		call SD_Write32
 19643               	.LM2086:
 19644 708c 83E0      		ldi r24,lo8(3)
 19645 708e 90E0      		ldi r25,hi8(3)
 19646 7090 0E94 0000 		call SD_Write16
 19647               	.LM2087:
 19648 7094 1130      		cpi r17,lo8(1)
 19649 7096 01F4      		brne .L1106
 19650               	.LM2088:
 19651 7098 6091 0000 		lds r22,humiditySampleStartTime1
 19652 709c 7091 0000 		lds r23,(humiditySampleStartTime1)+1
 19653 70a0 8091 0000 		lds r24,(humiditySampleStartTime1)+2
 19654 70a4 9091 0000 		lds r25,(humiditySampleStartTime1)+3
 19655 70a8 00C0      		rjmp .L1115
 19656               	.L1106:
 19657               	.LM2089:
 19658 70aa 6091 0000 		lds r22,humiditySampleStartTime2
 19659 70ae 7091 0000 		lds r23,(humiditySampleStartTime2)+1
 19660 70b2 8091 0000 		lds r24,(humiditySampleStartTime2)+2
 19661 70b6 9091 0000 		lds r25,(humiditySampleStartTime2)+3
 19662               	.L1115:
 19663 70ba 0E94 0000 		call SD_Write32
 19664               	.LM2090:
 19665 70be 60E0      		ldi r22,lo8(1843200)
 19666 70c0 70E2      		ldi r23,hi8(1843200)
 19667 70c2 8CE1      		ldi r24,hlo8(1843200)
 19668 70c4 90E0      		ldi r25,hhi8(1843200)
 19669 70c6 0E94 0000 		call SD_Write32
 19670               	.LM2091:
 19671 70ca 6AE0      		ldi r22,lo8(10)
 19672 70cc 70E0      		ldi r23,hi8(10)
 19673 70ce 80E0      		ldi r24,hlo8(10)
 19674 70d0 90E0      		ldi r25,hhi8(10)
 19675 70d2 0E94 0000 		call SD_Write32
 19676               	.LM2092:
 19677 70d6 80E0      		ldi r24,lo8(.LC9)
 19678 70d8 90E0      		ldi r25,hi8(.LC9)
 19679 70da 0E94 0000 		call SD_WriteString
 19680               	.LM2093:
 19681 70de 89E0      		ldi r24,lo8(9)
 19682 70e0 0E94 0000 		call SD_Write8
 19683               	.LM2094:
 19684 70e4 80E0      		ldi r24,lo8(.LC4)
 19685 70e6 90E0      		ldi r25,hi8(.LC4)
 19686 70e8 0E94 0000 		call SD_WriteString
 19687               	.LM2095:
 19688 70ec 8AE0      		ldi r24,lo8(10)
 19689 70ee 0E94 0000 		call SD_Write8
 19690               	.LM2096:
 19691 70f2 80E0      		ldi r24,lo8(0)
 19692 70f4 0E94 0000 		call SD_Write8
 19693               	.LM2097:
 19694 70f8 1130      		cpi r17,lo8(1)
 19695 70fa 01F4      		brne .L1108
 19696 70fc C0E0      		ldi r28,lo8(humidityBuffer1)
 19697 70fe D0E0      		ldi r29,hi8(humidityBuffer1)
 19698               	.L1109:
 19699               	.LBB866:
 19700               	.LM2098:
 19701 7100 8991      		ld r24,Y+
 19702 7102 9991      		ld r25,Y+
 19703 7104 0E94 0000 		call SD_Write16
 19704               	.LM2099:
 19705 7108 80E0      		ldi r24,hi8(humidityBuffer1+20)
 19706 710a C030      		cpi r28,lo8(humidityBuffer1+20)
 19707 710c D807      		cpc r29,r24
 19708 710e 01F4      		brne .L1109
 19709 7110 00C0      		rjmp .L1110
 19710               	.L1108:
 19711 7112 C0E0      		ldi r28,lo8(humidityBuffer2)
 19712 7114 D0E0      		ldi r29,hi8(humidityBuffer2)
 19713               	.L1111:
 19714               	.LBE866:
 19715               	.LBB867:
 19716               	.LM2100:
 19717 7116 8991      		ld r24,Y+
 19718 7118 9991      		ld r25,Y+
 19719 711a 0E94 0000 		call SD_Write16
 19720               	.LM2101:
 19721 711e 80E0      		ldi r24,hi8(humidityBuffer2+20)
 19722 7120 C030      		cpi r28,lo8(humidityBuffer2+20)
 19723 7122 D807      		cpc r29,r24
 19724 7124 01F4      		brne .L1111
 19725               	.L1110:
 19726               	.LBE867:
 19727               	.LM2102:
 19728 7126 0E94 0000 		call SD_WriteCRC
 19729               	.LM2103:
 19730 712a 80E0      		ldi r24,lo8(Log_File)
 19731 712c 90E0      		ldi r25,hi8(Log_File)
 19732 712e 0E94 0000 		call f_sync
 19733               	/* epilogue start */
 19734               	.LM2104:
 19735 7132 DF91      		pop r29
 19736 7134 CF91      		pop r28
 19737 7136 1F91      		pop r17
 19738               	.LVL1484:
 19739 7138 0895      		ret
 19740               	.LFE152:
 19742               		.data
 19743               	.LC10:
 19744 0067 5465 6D70 		.string	"Temperature"
 19744      6572 6174 
 19744      7572 6500 
 19745               		.text
 19746               	.global	SD_WriteTemperatureBuffer
 19748               	SD_WriteTemperatureBuffer:
 19749               	.LFB151:
 19750               	.LM2105:
 19751               	.LVL1485:
 19752 713a 1F93      		push r17
 19753 713c CF93      		push r28
 19754 713e DF93      		push r29
 19755               	/* prologue: function */
 19756               	/* frame size = 0 */
 19757 7140 182F      		mov r17,r24
 19758               	.LBB868:
 19759               	.LBB869:
 19760               	.LM2106:
 19761 7142 8FEF      		ldi r24,lo8(-1)
 19762 7144 9FEF      		ldi r25,hi8(-1)
 19763 7146 AFEF      		ldi r26,hlo8(-1)
 19764 7148 BFEF      		ldi r27,hhi8(-1)
 19765               	.LVL1486:
 19766 714a 8093 0000 		sts CRC,r24
 19767 714e 9093 0000 		sts (CRC)+1,r25
 19768 7152 A093 0000 		sts (CRC)+2,r26
 19769 7156 B093 0000 		sts (CRC)+3,r27
 19770               	.LBE869:
 19771               	.LBE868:
 19772               	.LM2107:
 19773 715a 6CE4      		ldi r22,lo8(-1327598516)
 19774 715c 74E7      		ldi r23,hi8(-1327598516)
 19775 715e 8EED      		ldi r24,hlo8(-1327598516)
 19776 7160 90EB      		ldi r25,hhi8(-1327598516)
 19777 7162 0E94 0000 		call SD_Write32
 19778               	.LM2108:
 19779 7166 6EE3      		ldi r22,lo8(62)
 19780 7168 70E0      		ldi r23,hi8(62)
 19781 716a 80E0      		ldi r24,hlo8(62)
 19782 716c 90E0      		ldi r25,hhi8(62)
 19783 716e 0E94 0000 		call SD_Write32
 19784               	.LM2109:
 19785 7172 83E0      		ldi r24,lo8(3)
 19786 7174 90E0      		ldi r25,hi8(3)
 19787 7176 0E94 0000 		call SD_Write16
 19788               	.LM2110:
 19789 717a 1130      		cpi r17,lo8(1)
 19790 717c 01F4      		brne .L1117
 19791               	.LM2111:
 19792 717e 6091 0000 		lds r22,temperatureSampleStartTime1
 19793 7182 7091 0000 		lds r23,(temperatureSampleStartTime1)+1
 19794 7186 8091 0000 		lds r24,(temperatureSampleStartTime1)+2
 19795 718a 9091 0000 		lds r25,(temperatureSampleStartTime1)+3
 19796 718e 00C0      		rjmp .L1126
 19797               	.L1117:
 19798               	.LM2112:
 19799 7190 6091 0000 		lds r22,temperatureSampleStartTime2
 19800 7194 7091 0000 		lds r23,(temperatureSampleStartTime2)+1
 19801 7198 8091 0000 		lds r24,(temperatureSampleStartTime2)+2
 19802 719c 9091 0000 		lds r25,(temperatureSampleStartTime2)+3
 19803               	.L1126:
 19804 71a0 0E94 0000 		call SD_Write32
 19805               	.LM2113:
 19806 71a4 60E0      		ldi r22,lo8(1843200)
 19807 71a6 70E2      		ldi r23,hi8(1843200)
 19808 71a8 8CE1      		ldi r24,hlo8(1843200)
 19809 71aa 90E0      		ldi r25,hhi8(1843200)
 19810 71ac 0E94 0000 		call SD_Write32
 19811               	.LM2114:
 19812 71b0 6AE0      		ldi r22,lo8(10)
 19813 71b2 70E0      		ldi r23,hi8(10)
 19814 71b4 80E0      		ldi r24,hlo8(10)
 19815 71b6 90E0      		ldi r25,hhi8(10)
 19816 71b8 0E94 0000 		call SD_Write32
 19817               	.LM2115:
 19818 71bc 80E0      		ldi r24,lo8(.LC10)
 19819 71be 90E0      		ldi r25,hi8(.LC10)
 19820 71c0 0E94 0000 		call SD_WriteString
 19821               	.LM2116:
 19822 71c4 89E0      		ldi r24,lo8(9)
 19823 71c6 0E94 0000 		call SD_Write8
 19824               	.LM2117:
 19825 71ca 80E0      		ldi r24,lo8(.LC4)
 19826 71cc 90E0      		ldi r25,hi8(.LC4)
 19827 71ce 0E94 0000 		call SD_WriteString
 19828               	.LM2118:
 19829 71d2 8AE0      		ldi r24,lo8(10)
 19830 71d4 0E94 0000 		call SD_Write8
 19831               	.LM2119:
 19832 71d8 80E0      		ldi r24,lo8(0)
 19833 71da 0E94 0000 		call SD_Write8
 19834               	.LM2120:
 19835 71de 1130      		cpi r17,lo8(1)
 19836 71e0 01F4      		brne .L1119
 19837 71e2 C0E0      		ldi r28,lo8(temperatureBuffer1)
 19838 71e4 D0E0      		ldi r29,hi8(temperatureBuffer1)
 19839               	.L1120:
 19840               	.LBB870:
 19841               	.LM2121:
 19842 71e6 8991      		ld r24,Y+
 19843 71e8 9991      		ld r25,Y+
 19844 71ea 0E94 0000 		call SD_Write16
 19845               	.LM2122:
 19846 71ee 80E0      		ldi r24,hi8(temperatureBuffer1+20)
 19847 71f0 C030      		cpi r28,lo8(temperatureBuffer1+20)
 19848 71f2 D807      		cpc r29,r24
 19849 71f4 01F4      		brne .L1120
 19850 71f6 00C0      		rjmp .L1121
 19851               	.L1119:
 19852 71f8 C0E0      		ldi r28,lo8(temperatureBuffer2)
 19853 71fa D0E0      		ldi r29,hi8(temperatureBuffer2)
 19854               	.L1122:
 19855               	.LBE870:
 19856               	.LBB871:
 19857               	.LM2123:
 19858 71fc 8991      		ld r24,Y+
 19859 71fe 9991      		ld r25,Y+
 19860 7200 0E94 0000 		call SD_Write16
 19861               	.LM2124:
 19862 7204 80E0      		ldi r24,hi8(temperatureBuffer2+20)
 19863 7206 C030      		cpi r28,lo8(temperatureBuffer2+20)
 19864 7208 D807      		cpc r29,r24
 19865 720a 01F4      		brne .L1122
 19866               	.L1121:
 19867               	.LBE871:
 19868               	.LM2125:
 19869 720c 0E94 0000 		call SD_WriteCRC
 19870               	.LM2126:
 19871 7210 80E0      		ldi r24,lo8(Log_File)
 19872 7212 90E0      		ldi r25,hi8(Log_File)
 19873 7214 0E94 0000 		call f_sync
 19874               	/* epilogue start */
 19875               	.LM2127:
 19876 7218 DF91      		pop r29
 19877 721a CF91      		pop r28
 19878 721c 1F91      		pop r17
 19879               	.LVL1487:
 19880 721e 0895      		ret
 19881               	.LFE151:
 19883               	.global	Debug_SendString
 19885               	Debug_SendString:
 19886               	.LFB13:
 19887               	.LM2128:
 19888               	.LVL1488:
 19889 7220 EF92      		push r14
 19890 7222 FF92      		push r15
 19891 7224 0F93      		push r16
 19892 7226 1F93      		push r17
 19893 7228 CF93      		push r28
 19894 722a DF93      		push r29
 19895               	/* prologue: function */
 19896               	/* frame size = 0 */
 19897 722c 8C01      		movw r16,r24
 19898 722e E62E      		mov r14,r22
 19899               	.LM2129:
 19900 7230 FF24      		clr r15
 19901               	.LVL1489:
 19902 7232 00C0      		rjmp .L1128
 19903               	.LVL1490:
 19904               	.L1129:
 19905               	.LBB872:
 19906               	.LM2130:
 19907 7234 C00F      		add r28,r16
 19908 7236 D11F      		adc r29,r17
 19909 7238 8881      		ld r24,Y
 19910 723a 0E94 0000 		call Debug_SendByte
 19911               	.LM2131:
 19912 723e F394      		inc r15
 19913               	.LVL1491:
 19914               	.L1128:
 19915 7240 CF2D      		mov r28,r15
 19916 7242 D0E0      		ldi r29,lo8(0)
 19917 7244 F801      		movw r30,r16
 19918 7246 0190      		ld __tmp_reg__,Z+
 19919 7248 0020      		tst __tmp_reg__
 19920 724a 01F4      		brne .-6
 19921 724c 3197      		sbiw r30,1
 19922 724e E01B      		sub r30,r16
 19923 7250 F10B      		sbc r31,r17
 19924 7252 CE17      		cp r28,r30
 19925 7254 DF07      		cpc r29,r31
 19926 7256 00F0      		brlo .L1129
 19927               	.LBE872:
 19928               	.LM2132:
 19929 7258 EE20      		tst r14
 19930 725a 01F0      		breq .L1131
 19931               	.LM2133:
 19932 725c 8DE0      		ldi r24,lo8(13)
 19933 725e 0E94 0000 		call Debug_SendByte
 19934               	.LM2134:
 19935 7262 8AE0      		ldi r24,lo8(10)
 19936 7264 0E94 0000 		call Debug_SendByte
 19937               	.LVL1492:
 19938               	.L1131:
 19939               	/* epilogue start */
 19940               	.LM2135:
 19941 7268 DF91      		pop r29
 19942 726a CF91      		pop r28
 19943 726c 1F91      		pop r17
 19944 726e 0F91      		pop r16
 19945               	.LVL1493:
 19946 7270 FF90      		pop r15
 19947               	.LVL1494:
 19948 7272 EF90      		pop r14
 19949               	.LVL1495:
 19950 7274 0895      		ret
 19951               	.LFE13:
 19953               		.data
 19954               	.LC11:
 19955 0073 4253 00   		.string	"BS"
 19956               	.LC12:
 19957 0076 4254 00   		.string	"BT"
 19958               		.text
 19959               	.global	Uploader_connectToComputer
 19961               	Uploader_connectToComputer:
 19962               	.LFB124:
 19963               	.LM2136:
 19964 7276 DF92      		push r13
 19965 7278 EF92      		push r14
 19966 727a FF92      		push r15
 19967 727c 0F93      		push r16
 19968 727e 1F93      		push r17
 19969 7280 CF93      		push r28
 19970 7282 DF93      		push r29
 19971               	/* prologue: function */
 19972               	/* frame size = 0 */
 19973               	.LM2137:
 19974 7284 1092 0000 		sts connected,__zero_reg__
 19975               	.LM2138:
 19976 7288 0E94 0000 		call Debug_ClearBuffer
 19977               	.LBB873:
 19978               	.LBB874:
 19979               	.LBB875:
 19980               	.LBB876:
 19981               	.LM2139:
 19982 728c E12C      		mov r14,__zero_reg__
 19983 728e A8E4      		ldi r26,hi8(18432)
 19984 7290 FA2E      		mov r15,r26
 19985               	.LBE876:
 19986               	.LBE875:
 19987               	.LBE874:
 19988               	.LBE873:
 19989               	.LBB880:
 19990               	.LBB881:
 19991               	.LBB882:
 19992               	.LBB883:
 19993 7292 06E6      		ldi r16,lo8(3686)
 19994 7294 1EE0      		ldi r17,hi8(3686)
 19995               	.LBE883:
 19996               	.LBE882:
 19997               	.LBE881:
 19998               	.LBE880:
 19999               	.LM2140:
 20000 7296 DD24      		clr r13
 20001 7298 D394      		inc r13
 20002 729a 00C0      		rjmp .L1139
 20003               	.LVL1496:
 20004               	.L1136:
 20005               	.LM2141:
 20006 729c 80E0      		ldi r24,lo8(.LC11)
 20007 729e 90E0      		ldi r25,hi8(.LC11)
 20008 72a0 60E0      		ldi r22,lo8(0)
 20009 72a2 0E94 0000 		call Debug_SendString
 20010 72a6 CEEE      		ldi r28,lo8(750)
 20011 72a8 D2E0      		ldi r29,hi8(750)
 20012               	.LVL1497:
 20013               	.L1135:
 20014               	.LM2142:
 20015 72aa 0E94 0000 		call Debug_CharReadyToRead
 20016               	.LVL1498:
 20017 72ae 8823      		tst r24
 20018 72b0 01F0      		breq .L1134
 20019               	.LM2143:
 20020 72b2 80E0      		ldi r24,lo8(0)
 20021 72b4 0E94 0000 		call Debug_GetByte
 20022               	.LM2144:
 20023 72b8 8234      		cpi r24,lo8(66)
 20024 72ba 01F4      		brne .L1134
 20025               	.LBB887:
 20026               	.LBB879:
 20027               	.LBB878:
 20028               	.LBB877:
 20029               	.LM2145:
 20030 72bc C701      		movw r24,r14
 20031               	.LVL1499:
 20032               	/* #APP */
 20033               	 ;  105 "/usr/local/CrossPack-AVR-20100115/lib/gcc/avr/4.3.3/../../../../avr/include/util/delay_bas
 20034 72be 0197      		1: sbiw r24,1
 20035 72c0 01F4      		brne 1b
 20036               	 ;  0 "" 2
 20037               	/* #NOAPP */
 20038               	.LBE877:
 20039               	.LBE878:
 20040               	.LBE879:
 20041               	.LBE887:
 20042               	.LM2146:
 20043 72c2 80E0      		ldi r24,lo8(0)
 20044               	.LVL1500:
 20045 72c4 0E94 0000 		call Debug_GetByte
 20046               	.LM2147:
 20047 72c8 8435      		cpi r24,lo8(84)
 20048 72ca 01F4      		brne .L1134
 20049               	.LM2148:
 20050 72cc D092 0000 		sts connected,r13
 20051               	.LM2149:
 20052 72d0 80E0      		ldi r24,lo8(.LC12)
 20053 72d2 90E0      		ldi r25,hi8(.LC12)
 20054 72d4 60E0      		ldi r22,lo8(0)
 20055 72d6 0E94 0000 		call Debug_SendString
 20056               	.LM2150:
 20057 72da 1092 0000 		sts timeOutCounter,__zero_reg__
 20058 72de 1092 0000 		sts (timeOutCounter)+1,__zero_reg__
 20059               	.LM2151:
 20060 72e2 0E94 0000 		call Debug_ClearBuffer
 20061 72e6 00C0      		rjmp .L1139
 20062               	.L1134:
 20063               	.LBB888:
 20064               	.LBB886:
 20065               	.LBB885:
 20066               	.LBB884:
 20067               	.LM2152:
 20068 72e8 C801      		movw r24,r16
 20069               	.LVL1501:
 20070               	/* #APP */
 20071               	 ;  105 "/usr/local/CrossPack-AVR-20100115/lib/gcc/avr/4.3.3/../../../../avr/include/util/delay_bas
 20072 72ea 0197      		1: sbiw r24,1
 20073 72ec 01F4      		brne 1b
 20074               	 ;  0 "" 2
 20075               	/* #NOAPP */
 20076               	.LBE884:
 20077               	.LBE885:
 20078               	.LBE886:
 20079               	.LBE888:
 20080               	.LM2153:
 20081 72ee 2197      		sbiw r28,1
 20082               	.LM2154:
 20083 72f0 01F4      		brne .L1135
 20084               	.L1139:
 20085               	.LM2155:
 20086 72f2 8091 0000 		lds r24,connected
 20087               	.LVL1502:
 20088 72f6 8823      		tst r24
 20089 72f8 01F0      		breq .L1136
 20090               	/* epilogue start */
 20091               	.LM2156:
 20092 72fa DF91      		pop r29
 20093 72fc CF91      		pop r28
 20094               	.LVL1503:
 20095 72fe 1F91      		pop r17
 20096 7300 0F91      		pop r16
 20097 7302 FF90      		pop r15
 20098 7304 EF90      		pop r14
 20099 7306 DF90      		pop r13
 20100 7308 0895      		ret
 20101               	.LFE124:
 20103               	.global	Uploader_sendPort
 20105               	Uploader_sendPort:
 20106               	.LFB135:
 20107               	.LM2157:
 20108 730a 0F93      		push r16
 20109 730c 1F93      		push r17
 20110               	/* prologue: function */
 20111               	/* frame size = 0 */
 20112               	.LM2158:
 20113 730e 8FE4      		ldi r24,lo8(79)
 20114 7310 0E94 0000 		call Debug_SendByte
 20115               	.LM2159:
 20116 7314 E0E0      		ldi r30,lo8(port)
 20117 7316 F0E0      		ldi r31,hi8(port)
 20118 7318 0190      		ld __tmp_reg__,Z+
 20119 731a 0020      		tst __tmp_reg__
 20120 731c 01F4      		brne .-6
 20121 731e 3297      		sbiw r30,2
 20122 7320 8081      		ld r24,Z
 20123 7322 8032      		cpi r24,lo8(32)
 20124 7324 00F4      		brsh .L1141
 20125               	.LM2160:
 20126 7326 1082      		st Z,__zero_reg__
 20127               	.L1141:
 20128               	.LM2161:
 20129 7328 00E0      		ldi r16,lo8(port)
 20130 732a 10E0      		ldi r17,hi8(port)
 20131 732c F801      		movw r30,r16
 20132 732e 0190      		ld __tmp_reg__,Z+
 20133 7330 0020      		tst __tmp_reg__
 20134 7332 01F4      		brne .-6
 20135 7334 3197      		sbiw r30,1
 20136 7336 E01B      		sub r30,r16
 20137 7338 F10B      		sbc r31,r17
 20138 733a 8E2F      		mov r24,r30
 20139 733c 8E5F      		subi r24,lo8(-(2))
 20140 733e 0E94 0000 		call Debug_SendByte
 20141               	.LM2162:
 20142 7342 C801      		movw r24,r16
 20143 7344 61E0      		ldi r22,lo8(1)
 20144 7346 0E94 0000 		call Debug_SendString
 20145               	/* epilogue start */
 20146               	.LM2163:
 20147 734a 1F91      		pop r17
 20148 734c 0F91      		pop r16
 20149 734e 0895      		ret
 20150               	.LFE135:
 20152               	.global	Uploader_sendServer
 20154               	Uploader_sendServer:
 20155               	.LFB134:
 20156               	.LM2164:
 20157 7350 0F93      		push r16
 20158 7352 1F93      		push r17
 20159               	/* prologue: function */
 20160               	/* frame size = 0 */
 20161               	.LM2165:
 20162 7354 86E5      		ldi r24,lo8(86)
 20163 7356 0E94 0000 		call Debug_SendByte
 20164               	.LM2166:
 20165 735a E0E0      		ldi r30,lo8(server)
 20166 735c F0E0      		ldi r31,hi8(server)
 20167 735e 0190      		ld __tmp_reg__,Z+
 20168 7360 0020      		tst __tmp_reg__
 20169 7362 01F4      		brne .-6
 20170 7364 3297      		sbiw r30,2
 20171 7366 8081      		ld r24,Z
 20172 7368 8032      		cpi r24,lo8(32)
 20173 736a 00F4      		brsh .L1144
 20174               	.LM2167:
 20175 736c 1082      		st Z,__zero_reg__
 20176               	.L1144:
 20177               	.LM2168:
 20178 736e 00E0      		ldi r16,lo8(server)
 20179 7370 10E0      		ldi r17,hi8(server)
 20180 7372 F801      		movw r30,r16
 20181 7374 0190      		ld __tmp_reg__,Z+
 20182 7376 0020      		tst __tmp_reg__
 20183 7378 01F4      		brne .-6
 20184 737a 3197      		sbiw r30,1
 20185 737c E01B      		sub r30,r16
 20186 737e F10B      		sbc r31,r17
 20187 7380 8E2F      		mov r24,r30
 20188 7382 8E5F      		subi r24,lo8(-(2))
 20189 7384 0E94 0000 		call Debug_SendByte
 20190               	.LM2169:
 20191 7388 C801      		movw r24,r16
 20192 738a 61E0      		ldi r22,lo8(1)
 20193 738c 0E94 0000 		call Debug_SendString
 20194               	/* epilogue start */
 20195               	.LM2170:
 20196 7390 1F91      		pop r17
 20197 7392 0F91      		pop r16
 20198 7394 0895      		ret
 20199               	.LFE134:
 20201               	.global	Uploader_sendNickname
 20203               	Uploader_sendNickname:
 20204               	.LFB130:
 20205               	.LM2171:
 20206 7396 0F93      		push r16
 20207 7398 1F93      		push r17
 20208               	/* prologue: function */
 20209               	/* frame size = 0 */
 20210               	.LM2172:
 20211 739a 8EE4      		ldi r24,lo8(78)
 20212 739c 0E94 0000 		call Debug_SendByte
 20213               	.LM2173:
 20214 73a0 E0E0      		ldi r30,lo8(nickname)
 20215 73a2 F0E0      		ldi r31,hi8(nickname)
 20216 73a4 0190      		ld __tmp_reg__,Z+
 20217 73a6 0020      		tst __tmp_reg__
 20218 73a8 01F4      		brne .-6
 20219 73aa 3297      		sbiw r30,2
 20220 73ac 8081      		ld r24,Z
 20221 73ae 8032      		cpi r24,lo8(32)
 20222 73b0 00F4      		brsh .L1147
 20223               	.LM2174:
 20224 73b2 1082      		st Z,__zero_reg__
 20225               	.L1147:
 20226               	.LM2175:
 20227 73b4 00E0      		ldi r16,lo8(nickname)
 20228 73b6 10E0      		ldi r17,hi8(nickname)
 20229 73b8 F801      		movw r30,r16
 20230 73ba 0190      		ld __tmp_reg__,Z+
 20231 73bc 0020      		tst __tmp_reg__
 20232 73be 01F4      		brne .-6
 20233 73c0 3197      		sbiw r30,1
 20234 73c2 E01B      		sub r30,r16
 20235 73c4 F10B      		sbc r31,r17
 20236 73c6 8E2F      		mov r24,r30
 20237 73c8 8E5F      		subi r24,lo8(-(2))
 20238 73ca 0E94 0000 		call Debug_SendByte
 20239               	.LM2176:
 20240 73ce C801      		movw r24,r16
 20241 73d0 61E0      		ldi r22,lo8(1)
 20242 73d2 0E94 0000 		call Debug_SendString
 20243               	/* epilogue start */
 20244               	.LM2177:
 20245 73d6 1F91      		pop r17
 20246 73d8 0F91      		pop r16
 20247 73da 0895      		ret
 20248               	.LFE130:
 20250               	.global	Uploader_sendUser
 20252               	Uploader_sendUser:
 20253               	.LFB129:
 20254               	.LM2178:
 20255 73dc 0F93      		push r16
 20256 73de 1F93      		push r17
 20257               	/* prologue: function */
 20258               	/* frame size = 0 */
 20259               	.LM2179:
 20260 73e0 85E5      		ldi r24,lo8(85)
 20261 73e2 0E94 0000 		call Debug_SendByte
 20262               	.LM2180:
 20263 73e6 E0E0      		ldi r30,lo8(user)
 20264 73e8 F0E0      		ldi r31,hi8(user)
 20265 73ea 0190      		ld __tmp_reg__,Z+
 20266 73ec 0020      		tst __tmp_reg__
 20267 73ee 01F4      		brne .-6
 20268 73f0 3297      		sbiw r30,2
 20269 73f2 8081      		ld r24,Z
 20270 73f4 8032      		cpi r24,lo8(32)
 20271 73f6 00F4      		brsh .L1150
 20272               	.LM2181:
 20273 73f8 1082      		st Z,__zero_reg__
 20274               	.L1150:
 20275               	.LM2182:
 20276 73fa 00E0      		ldi r16,lo8(user)
 20277 73fc 10E0      		ldi r17,hi8(user)
 20278 73fe F801      		movw r30,r16
 20279 7400 0190      		ld __tmp_reg__,Z+
 20280 7402 0020      		tst __tmp_reg__
 20281 7404 01F4      		brne .-6
 20282 7406 3197      		sbiw r30,1
 20283 7408 E01B      		sub r30,r16
 20284 740a F10B      		sbc r31,r17
 20285 740c 8E2F      		mov r24,r30
 20286 740e 8E5F      		subi r24,lo8(-(2))
 20287 7410 0E94 0000 		call Debug_SendByte
 20288               	.LM2183:
 20289 7414 C801      		movw r24,r16
 20290 7416 61E0      		ldi r22,lo8(1)
 20291 7418 0E94 0000 		call Debug_SendString
 20292               	/* epilogue start */
 20293               	.LM2184:
 20294 741c 1F91      		pop r17
 20295 741e 0F91      		pop r16
 20296 7420 0895      		ret
 20297               	.LFE129:
 20299               		.data
 20300               	.LC13:
 20301 0079 00        		.string	""
 20302               		.text
 20303               	.global	Uploader_sendKey
 20305               	Uploader_sendKey:
 20306               	.LFB128:
 20307               	.LM2185:
 20308 7422 0F93      		push r16
 20309 7424 1F93      		push r17
 20310               	/* prologue: function */
 20311               	/* frame size = 0 */
 20312               	.LM2186:
 20313 7426 8091 0000 		lds r24,phraseRead
 20314 742a 8823      		tst r24
 20315 742c 01F0      		breq .L1153
 20316               	.LM2187:
 20317 742e E0E0      		ldi r30,lo8(phrase)
 20318 7430 F0E0      		ldi r31,hi8(phrase)
 20319 7432 0190      		ld __tmp_reg__,Z+
 20320 7434 0020      		tst __tmp_reg__
 20321 7436 01F4      		brne .-6
 20322 7438 3297      		sbiw r30,2
 20323 743a 8081      		ld r24,Z
 20324 743c 8032      		cpi r24,lo8(32)
 20325 743e 00F4      		brsh .L1154
 20326               	.LM2188:
 20327 7440 1082      		st Z,__zero_reg__
 20328               	.L1154:
 20329               	.LM2189:
 20330 7442 8BE4      		ldi r24,lo8(75)
 20331 7444 0E94 0000 		call Debug_SendByte
 20332               	.LM2190:
 20333 7448 00E0      		ldi r16,lo8(phrase)
 20334 744a 10E0      		ldi r17,hi8(phrase)
 20335 744c 00C0      		rjmp .L1160
 20336               	.L1153:
 20337               	.LM2191:
 20338 744e 8091 0000 		lds r24,keyRead
 20339 7452 8823      		tst r24
 20340 7454 01F0      		breq .L1156
 20341               	.LM2192:
 20342 7456 E0E0      		ldi r30,lo8(key)
 20343 7458 F0E0      		ldi r31,hi8(key)
 20344 745a 0190      		ld __tmp_reg__,Z+
 20345 745c 0020      		tst __tmp_reg__
 20346 745e 01F4      		brne .-6
 20347 7460 3297      		sbiw r30,2
 20348 7462 8081      		ld r24,Z
 20349 7464 8032      		cpi r24,lo8(32)
 20350 7466 00F4      		brsh .L1157
 20351               	.LM2193:
 20352 7468 1082      		st Z,__zero_reg__
 20353               	.L1157:
 20354               	.LM2194:
 20355 746a 8BE4      		ldi r24,lo8(75)
 20356 746c 0E94 0000 		call Debug_SendByte
 20357               	.LM2195:
 20358 7470 00E0      		ldi r16,lo8(key)
 20359 7472 10E0      		ldi r17,hi8(key)
 20360               	.L1160:
 20361 7474 F801      		movw r30,r16
 20362 7476 0190      		ld __tmp_reg__,Z+
 20363 7478 0020      		tst __tmp_reg__
 20364 747a 01F4      		brne .-6
 20365 747c 3197      		sbiw r30,1
 20366 747e E01B      		sub r30,r16
 20367 7480 F10B      		sbc r31,r17
 20368 7482 8E2F      		mov r24,r30
 20369 7484 8E5F      		subi r24,lo8(-(2))
 20370 7486 0E94 0000 		call Debug_SendByte
 20371               	.LM2196:
 20372 748a C801      		movw r24,r16
 20373 748c 00C0      		rjmp .L1159
 20374               	.L1156:
 20375               	.LM2197:
 20376 748e 8BE4      		ldi r24,lo8(75)
 20377 7490 0E94 0000 		call Debug_SendByte
 20378               	.LM2198:
 20379 7494 80E0      		ldi r24,lo8(0)
 20380 7496 0E94 0000 		call Debug_SendByte
 20381               	.LM2199:
 20382 749a 80E0      		ldi r24,lo8(.LC13)
 20383 749c 90E0      		ldi r25,hi8(.LC13)
 20384               	.L1159:
 20385 749e 61E0      		ldi r22,lo8(1)
 20386 74a0 0E94 0000 		call Debug_SendString
 20387               	/* epilogue start */
 20388               	.LM2200:
 20389 74a4 1F91      		pop r17
 20390 74a6 0F91      		pop r16
 20391 74a8 0895      		ret
 20392               	.LFE128:
 20394               	.global	Uploader_sendAuthType
 20396               	Uploader_sendAuthType:
 20397               	.LFB127:
 20398               	.LM2201:
 20399 74aa 0F93      		push r16
 20400 74ac 1F93      		push r17
 20401               	/* prologue: function */
 20402               	/* frame size = 0 */
 20403               	.LM2202:
 20404 74ae 8091 0000 		lds r24,authRead
 20405 74b2 8823      		tst r24
 20406 74b4 01F0      		breq .L1162
 20407               	.LM2203:
 20408 74b6 E0E0      		ldi r30,lo8(auth)
 20409 74b8 F0E0      		ldi r31,hi8(auth)
 20410 74ba 0190      		ld __tmp_reg__,Z+
 20411 74bc 0020      		tst __tmp_reg__
 20412 74be 01F4      		brne .-6
 20413 74c0 3297      		sbiw r30,2
 20414 74c2 8081      		ld r24,Z
 20415 74c4 8032      		cpi r24,lo8(32)
 20416 74c6 00F4      		brsh .L1163
 20417               	.LM2204:
 20418 74c8 1082      		st Z,__zero_reg__
 20419               	.L1163:
 20420               	.LM2205:
 20421 74ca 81E4      		ldi r24,lo8(65)
 20422 74cc 0E94 0000 		call Debug_SendByte
 20423               	.LM2206:
 20424 74d0 00E0      		ldi r16,lo8(auth)
 20425 74d2 10E0      		ldi r17,hi8(auth)
 20426 74d4 F801      		movw r30,r16
 20427 74d6 0190      		ld __tmp_reg__,Z+
 20428 74d8 0020      		tst __tmp_reg__
 20429 74da 01F4      		brne .-6
 20430 74dc 3197      		sbiw r30,1
 20431 74de E01B      		sub r30,r16
 20432 74e0 F10B      		sbc r31,r17
 20433 74e2 8E2F      		mov r24,r30
 20434 74e4 8E5F      		subi r24,lo8(-(2))
 20435 74e6 0E94 0000 		call Debug_SendByte
 20436               	.LM2207:
 20437 74ea C801      		movw r24,r16
 20438 74ec 00C0      		rjmp .L1166
 20439               	.L1162:
 20440               	.LM2208:
 20441 74ee 81E4      		ldi r24,lo8(65)
 20442 74f0 0E94 0000 		call Debug_SendByte
 20443               	.LM2209:
 20444 74f4 80E0      		ldi r24,lo8(0)
 20445 74f6 0E94 0000 		call Debug_SendByte
 20446               	.LM2210:
 20447 74fa 80E0      		ldi r24,lo8(.LC13)
 20448 74fc 90E0      		ldi r25,hi8(.LC13)
 20449               	.L1166:
 20450 74fe 61E0      		ldi r22,lo8(1)
 20451 7500 0E94 0000 		call Debug_SendString
 20452               	/* epilogue start */
 20453               	.LM2211:
 20454 7504 1F91      		pop r17
 20455 7506 0F91      		pop r16
 20456 7508 0895      		ret
 20457               	.LFE127:
 20459               	.global	Uploader_sendSSID
 20461               	Uploader_sendSSID:
 20462               	.LFB126:
 20463               	.LM2212:
 20464 750a 0F93      		push r16
 20465 750c 1F93      		push r17
 20466               	/* prologue: function */
 20467               	/* frame size = 0 */
 20468               	.LM2213:
 20469 750e 8091 0000 		lds r24,ssidRead
 20470 7512 8823      		tst r24
 20471 7514 01F0      		breq .L1168
 20472               	.LM2214:
 20473 7516 E0E0      		ldi r30,lo8(ssid)
 20474 7518 F0E0      		ldi r31,hi8(ssid)
 20475 751a 0190      		ld __tmp_reg__,Z+
 20476 751c 0020      		tst __tmp_reg__
 20477 751e 01F4      		brne .-6
 20478 7520 3297      		sbiw r30,2
 20479 7522 8081      		ld r24,Z
 20480 7524 8032      		cpi r24,lo8(32)
 20481 7526 00F4      		brsh .L1169
 20482               	.LM2215:
 20483 7528 1082      		st Z,__zero_reg__
 20484               	.L1169:
 20485               	.LM2216:
 20486 752a 83E5      		ldi r24,lo8(83)
 20487 752c 0E94 0000 		call Debug_SendByte
 20488               	.LM2217:
 20489 7530 00E0      		ldi r16,lo8(ssid)
 20490 7532 10E0      		ldi r17,hi8(ssid)
 20491 7534 F801      		movw r30,r16
 20492 7536 0190      		ld __tmp_reg__,Z+
 20493 7538 0020      		tst __tmp_reg__
 20494 753a 01F4      		brne .-6
 20495 753c 3197      		sbiw r30,1
 20496 753e E01B      		sub r30,r16
 20497 7540 F10B      		sbc r31,r17
 20498 7542 8E2F      		mov r24,r30
 20499 7544 8E5F      		subi r24,lo8(-(2))
 20500 7546 0E94 0000 		call Debug_SendByte
 20501               	.LM2218:
 20502 754a C801      		movw r24,r16
 20503 754c 00C0      		rjmp .L1172
 20504               	.L1168:
 20505               	.LM2219:
 20506 754e 83E5      		ldi r24,lo8(83)
 20507 7550 0E94 0000 		call Debug_SendByte
 20508               	.LM2220:
 20509 7554 80E0      		ldi r24,lo8(0)
 20510 7556 0E94 0000 		call Debug_SendByte
 20511               	.LM2221:
 20512 755a 80E0      		ldi r24,lo8(.LC13)
 20513 755c 90E0      		ldi r25,hi8(.LC13)
 20514               	.L1172:
 20515 755e 61E0      		ldi r22,lo8(1)
 20516 7560 0E94 0000 		call Debug_SendString
 20517               	/* epilogue start */
 20518               	.LM2222:
 20519 7564 1F91      		pop r17
 20520 7566 0F91      		pop r16
 20521 7568 0895      		ret
 20522               	.LFE126:
 20524               		.data
 20525               	.LC14:
 20526 007a 2E42 5400 		.string	".BT"
 20527               	.LC15:
 20528 007e 2E42 5455 		.string	".BTU"
 20528      00
 20529               		.text
 20530               	.global	Uploader_sendFilename
 20532               	Uploader_sendFilename:
 20533               	.LFB131:
 20534               	.LM2223:
 20535 756a 1F93      		push r17
 20536               	/* prologue: function */
 20537               	/* frame size = 0 */
 20538               	.LM2224:
 20539 756c 86E4      		ldi r24,lo8(70)
 20540 756e 0E94 0000 		call Debug_SendByte
 20541               	.LM2225:
 20542 7572 81E0      		ldi r24,lo8(1)
 20543 7574 8093 0000 		sts okToOpenDirectory,r24
 20544               	.L1174:
 20545               	.LM2226:
 20546 7578 8091 0000 		lds r24,okToOpenDirectory
 20547 757c 8823      		tst r24
 20548 757e 01F4      		brne .L1174
 20549               	.LM2227:
 20550 7580 11E0      		ldi r17,lo8(1)
 20551               	.L1184:
 20552 7582 1093 0000 		sts okToGrabNextFileName,r17
 20553               	.L1175:
 20554               	.LM2228:
 20555 7586 8091 0000 		lds r24,okToGrabNextFileName
 20556 758a 8823      		tst r24
 20557 758c 01F4      		brne .L1175
 20558               	.LM2229:
 20559 758e 8091 0000 		lds r24,availableFileName
 20560 7592 8823      		tst r24
 20561 7594 01F4      		brne .L1176
 20562               	.LM2230:
 20563 7596 80E0      		ldi r24,lo8(.LC13)
 20564 7598 90E0      		ldi r25,hi8(.LC13)
 20565 759a 61E0      		ldi r22,lo8(1)
 20566 759c 0E94 0000 		call Debug_SendString
 20567               	/* epilogue start */
 20568               	.LM2231:
 20569 75a0 1F91      		pop r17
 20570 75a2 0895      		ret
 20571               	.L1176:
 20572               	.LM2232:
 20573 75a4 8091 0000 		lds r24,recording
 20574 75a8 8823      		tst r24
 20575 75aa 01F0      		breq .L1177
 20576               	.LM2233:
 20577 75ac 80E0      		ldi r24,lo8(currentLogFile)
 20578 75ae 90E0      		ldi r25,hi8(currentLogFile)
 20579 75b0 60E0      		ldi r22,lo8(fno+9)
 20580 75b2 70E0      		ldi r23,hi8(fno+9)
 20581 75b4 0E94 0000 		call strcasecmp
 20582 75b8 892B      		or r24,r25
 20583 75ba 01F0      		breq .L1184
 20584               	.LM2234:
 20585 75bc 80E0      		ldi r24,lo8(fno+9)
 20586 75be 90E0      		ldi r25,hi8(fno+9)
 20587 75c0 60E0      		ldi r22,lo8(.LC14)
 20588 75c2 70E0      		ldi r23,hi8(.LC14)
 20589 75c4 0E94 0000 		call strcasestr
 20590 75c8 892B      		or r24,r25
 20591 75ca 01F0      		breq .L1184
 20592               	.LM2235:
 20593 75cc 80E0      		ldi r24,lo8(fno+9)
 20594 75ce 90E0      		ldi r25,hi8(fno+9)
 20595 75d0 60E0      		ldi r22,lo8(.LC15)
 20596 75d2 70E0      		ldi r23,hi8(.LC15)
 20597 75d4 0E94 0000 		call strcasestr
 20598 75d8 00C0      		rjmp .L1187
 20599               	.L1177:
 20600               	.LM2236:
 20601 75da 80E0      		ldi r24,lo8(fno+9)
 20602 75dc 90E0      		ldi r25,hi8(fno+9)
 20603 75de 60E0      		ldi r22,lo8(.LC14)
 20604 75e0 70E0      		ldi r23,hi8(.LC14)
 20605 75e2 0E94 0000 		call strcasestr
 20606 75e6 892B      		or r24,r25
 20607 75e8 01F0      		breq .L1184
 20608               	.LM2237:
 20609 75ea 80E0      		ldi r24,lo8(fno+9)
 20610 75ec 90E0      		ldi r25,hi8(fno+9)
 20611 75ee 60E0      		ldi r22,lo8(.LC15)
 20612 75f0 70E0      		ldi r23,hi8(.LC15)
 20613 75f2 0E94 0000 		call strcasestr
 20614               	.L1187:
 20615 75f6 892B      		or r24,r25
 20616 75f8 01F4      		brne .L1184
 20617               	.LM2238:
 20618 75fa 80E0      		ldi r24,lo8(availableFileName)
 20619 75fc 90E0      		ldi r25,hi8(availableFileName)
 20620 75fe 60E0      		ldi r22,lo8(fno+9)
 20621 7600 70E0      		ldi r23,hi8(fno+9)
 20622 7602 0E94 0000 		call strcpy
 20623               	.LM2239:
 20624 7606 80E0      		ldi r24,lo8(availableFileName)
 20625 7608 90E0      		ldi r25,hi8(availableFileName)
 20626 760a 60E0      		ldi r22,lo8(0)
 20627 760c 0E94 0000 		call Debug_SendString
 20628               	.LM2240:
 20629 7610 8CE2      		ldi r24,lo8(44)
 20630 7612 0E94 0000 		call Debug_SendByte
 20631 7616 00C0      		rjmp .L1184
 20632               	.LFE131:
 20634               	.global	Uploader_Update
 20636               	Uploader_Update:
 20637               	.LFB123:
 20638               	.LM2241:
 20639               	/* prologue: function */
 20640               	/* frame size = 0 */
 20641               	.LM2242:
 20642 7618 0E94 0000 		call Debug_CharReadyToRead
 20643 761c 8823      		tst r24
 20644 761e 01F4      		brne .+2
 20645 7620 00C0      		rjmp .L1189
 20646               	.LM2243:
 20647 7622 1092 0000 		sts timeOutCounter,__zero_reg__
 20648 7626 1092 0000 		sts (timeOutCounter)+1,__zero_reg__
 20649               	.LM2244:
 20650 762a 80E0      		ldi r24,lo8(0)
 20651 762c 0E94 0000 		call Debug_GetByte
 20652 7630 8093 0000 		sts command,r24
 20653               	.LM2245:
 20654 7634 8435      		cpi r24,lo8(84)
 20655 7636 01F4      		brne .L1190
 20656               	.LM2246:
 20657 7638 0E94 0000 		call Uploader_getTime
 20658 763c 8823      		tst r24
 20659 763e 01F0      		breq .L1191
 20660               	.LM2247:
 20661 7640 81E0      		ldi r24,lo8(1)
 20662 7642 8093 0000 		sts timeIsValid,r24
 20663               	.LBB889:
 20664               	.LBB890:
 20665               	.LM2248:
 20666 7646 8091 2104 		lds r24,1057
 20667 764a 8061      		ori r24,lo8(16)
 20668 764c E0E2      		ldi r30,lo8(1056)
 20669 764e F4E0      		ldi r31,hi8(1056)
 20670 7650 8183      		std Z+1,r24
 20671               	.L1192:
 20672               	.LM2249:
 20673 7652 8091 2104 		lds r24,1057
 20674 7656 84FD      		sbrc r24,4
 20675 7658 00C0      		rjmp .L1192
 20676               	.LM2250:
 20677 765a 8091 2404 		lds r24,1060
 20678 765e 9091 2504 		lds r25,(1060)+1
 20679 7662 A091 2604 		lds r26,(1060)+2
 20680 7666 B091 2704 		lds r27,(1060)+3
 20681               	.LBE890:
 20682               	.LBE889:
 20683               	.LM2251:
 20684 766a 8093 0000 		sts UNIX_Time,r24
 20685 766e 9093 0000 		sts (UNIX_Time)+1,r25
 20686 7672 A093 0000 		sts (UNIX_Time)+2,r26
 20687 7676 B093 0000 		sts (UNIX_Time)+3,r27
 20688 767a 00C0      		rjmp .L1189
 20689               	.L1191:
 20690               	.LM2252:
 20691 767c 1092 0000 		sts timeIsValid,__zero_reg__
 20692 7680 00C0      		rjmp .L1201
 20693               	.L1190:
 20694               	.LM2253:
 20695 7682 8335      		cpi r24,lo8(83)
 20696 7684 01F4      		brne .L1194
 20697               	.LM2254:
 20698 7686 0E94 0000 		call Uploader_sendSSID
 20699 768a 00C0      		rjmp .L1189
 20700               	.L1194:
 20701               	.LM2255:
 20702 768c 8134      		cpi r24,lo8(65)
 20703 768e 01F4      		brne .L1195
 20704               	.LM2256:
 20705 7690 0E94 0000 		call Uploader_sendAuthType
 20706 7694 00C0      		rjmp .L1189
 20707               	.L1195:
 20708               	.LM2257:
 20709 7696 8B34      		cpi r24,lo8(75)
 20710 7698 01F4      		brne .L1196
 20711               	.LM2258:
 20712 769a 0E94 0000 		call Uploader_sendKey
 20713 769e 00C0      		rjmp .L1189
 20714               	.L1196:
 20715               	.LM2259:
 20716 76a0 8535      		cpi r24,lo8(85)
 20717 76a2 01F4      		brne .L1197
 20718               	.LM2260:
 20719 76a4 0E94 0000 		call Uploader_sendUser
 20720 76a8 00C0      		rjmp .L1189
 20721               	.L1197:
 20722               	.LM2261:
 20723 76aa 8E34      		cpi r24,lo8(78)
 20724 76ac 01F4      		brne .L1198
 20725               	.LM2262:
 20726 76ae 0E94 0000 		call Uploader_sendNickname
 20727 76b2 00C0      		rjmp .L1189
 20728               	.L1198:
 20729               	.LM2263:
 20730 76b4 8634      		cpi r24,lo8(70)
 20731 76b6 01F4      		brne .L1199
 20732               	.LM2264:
 20733 76b8 0E94 0000 		call Uploader_sendFilename
 20734 76bc 00C0      		rjmp .L1189
 20735               	.L1199:
 20736               	.LM2265:
 20737 76be 8434      		cpi r24,lo8(68)
 20738 76c0 01F4      		brne .L1200
 20739               	.LM2266:
 20740 76c2 0E94 0000 		call Uploader_uploadFile
 20741 76c6 00C0      		rjmp .L1209
 20742               	.L1200:
 20743               	.LM2267:
 20744 76c8 8534      		cpi r24,lo8(69)
 20745 76ca 01F4      		brne .L1202
 20746               	.LM2268:
 20747 76cc 0E94 0000 		call Uploader_eraseFile
 20748               	.L1209:
 20749 76d0 8823      		tst r24
 20750 76d2 01F4      		brne .L1189
 20751 76d4 00C0      		rjmp .L1201
 20752               	.L1202:
 20753               	.LM2269:
 20754 76d6 8635      		cpi r24,lo8(86)
 20755 76d8 01F4      		brne .L1203
 20756               	.LM2270:
 20757 76da 0E94 0000 		call Uploader_sendServer
 20758 76de 00C0      		rjmp .L1189
 20759               	.L1203:
 20760               	.LM2271:
 20761 76e0 8F34      		cpi r24,lo8(79)
 20762 76e2 01F4      		brne .L1204
 20763               	.LM2272:
 20764 76e4 0E94 0000 		call Uploader_sendPort
 20765 76e8 00C0      		rjmp .L1189
 20766               	.L1204:
 20767               	.LM2273:
 20768 76ea 8235      		cpi r24,lo8(82)
 20769 76ec 01F4      		brne .L1189
 20770               	.LBB891:
 20771               	.LBB892:
 20772               	.LBB893:
 20773               	.LBB894:
 20774               	.LM2274:
 20775 76ee 80E0      		ldi r24,lo8(18432)
 20776 76f0 98E4      		ldi r25,hi8(18432)
 20777               	.LVL1504:
 20778               	/* #APP */
 20779               	 ;  105 "/usr/local/CrossPack-AVR-20100115/lib/gcc/avr/4.3.3/../../../../avr/include/util/delay_bas
 20780 76f2 0197      		1: sbiw r24,1
 20781 76f4 01F4      		brne 1b
 20782               	 ;  0 "" 2
 20783               	/* #NOAPP */
 20784               	.LBE894:
 20785               	.LBE893:
 20786               	.LBE892:
 20787               	.LBE891:
 20788               	.LM2275:
 20789 76f6 82E5      		ldi r24,lo8(82)
 20790               	.LVL1505:
 20791 76f8 0E94 0000 		call Debug_SendByte
 20792 76fc 00C0      		rjmp .L1201
 20793               	.L1189:
 20794               	.LBB895:
 20795               	.LBB896:
 20796               	.LBB897:
 20797               	.LBB898:
 20798               	.LM2276:
 20799 76fe 86E6      		ldi r24,lo8(3686)
 20800 7700 9EE0      		ldi r25,hi8(3686)
 20801               	.LVL1506:
 20802               	/* #APP */
 20803               	 ;  105 "/usr/local/CrossPack-AVR-20100115/lib/gcc/avr/4.3.3/../../../../avr/include/util/delay_bas
 20804 7702 0197      		1: sbiw r24,1
 20805 7704 01F4      		brne 1b
 20806               	 ;  0 "" 2
 20807               	/* #NOAPP */
 20808               	.LBE898:
 20809               	.LBE897:
 20810               	.LBE896:
 20811               	.LBE895:
 20812               	.LM2277:
 20813 7706 8091 0000 		lds r24,timeOutCounter
 20814 770a 9091 0000 		lds r25,(timeOutCounter)+1
 20815               	.LVL1507:
 20816 770e 0196      		adiw r24,1
 20817 7710 8093 0000 		sts timeOutCounter,r24
 20818 7714 9093 0000 		sts (timeOutCounter)+1,r25
 20819               	.LM2278:
 20820 7718 8091 0000 		lds r24,timeOutCounter
 20821 771c 9091 0000 		lds r25,(timeOutCounter)+1
 20822 7720 20E0      		ldi r18,lo8(0)
 20823 7722 8153      		subi r24,lo8(30001)
 20824 7724 9547      		sbci r25,hi8(30001)
 20825 7726 00F4      		brsh .L1193
 20826 7728 21E0      		ldi r18,lo8(1)
 20827 772a 00C0      		rjmp .L1193
 20828               	.L1201:
 20829 772c 20E0      		ldi r18,lo8(0)
 20830               	.L1193:
 20831               	.LM2279:
 20832 772e 822F      		mov r24,r18
 20833               	/* epilogue start */
 20834 7730 0895      		ret
 20835               	.LFE123:
 20837               		.data
 20838               	.LC16:
 20839 0083 2E62 7400 		.string	".bt"
 20840               		.text
 20841               	.global	SD_MakeFileName
 20843               	SD_MakeFileName:
 20844               	.LFB98:
 20845               	.LM2280:
 20846               	.LVL1508:
 20847 7732 0F93      		push r16
 20848 7734 1F93      		push r17
 20849               	/* prologue: function */
 20850               	/* frame size = 0 */
 20851               	.LM2281:
 20852 7736 00E0      		ldi r16,lo8(fileName)
 20853 7738 10E0      		ldi r17,hi8(fileName)
 20854 773a 2FE2      		ldi r18,lo8(47)
 20855 773c 2093 0000 		sts fileName,r18
 20856               	.LM2282:
 20857 7740 A801      		movw r20,r16
 20858 7742 4F5F      		subi r20,lo8(-(1))
 20859 7744 5F4F      		sbci r21,hi8(-(1))
 20860 7746 20E1      		ldi r18,lo8(16)
 20861 7748 30E0      		ldi r19,hi8(16)
 20862 774a 0E94 0000 		call ltoa
 20863               	.LVL1509:
 20864               	.LM2283:
 20865 774e C801      		movw r24,r16
 20866 7750 60E0      		ldi r22,lo8(.LC16)
 20867 7752 70E0      		ldi r23,hi8(.LC16)
 20868 7754 0E94 0000 		call strcat
 20869               	/* epilogue start */
 20870               	.LM2284:
 20871 7758 1F91      		pop r17
 20872 775a 0F91      		pop r16
 20873 775c 0895      		ret
 20874               	.LFE98:
 20876               	.global	SD_Open
 20878               	SD_Open:
 20879               	.LFB88:
 20880               	.LM2285:
 20881               	.LVL1510:
 20882 775e CF93      		push r28
 20883 7760 DF93      		push r29
 20884               	/* prologue: function */
 20885               	/* frame size = 0 */
 20886 7762 EC01      		movw r28,r24
 20887               	.LM2286:
 20888 7764 80E0      		ldi r24,lo8(currentLogFile)
 20889 7766 90E0      		ldi r25,hi8(currentLogFile)
 20890               	.LVL1511:
 20891 7768 BE01      		movw r22,r28
 20892 776a 0E94 0000 		call strcpy
 20893               	.LM2287:
 20894 776e 80E0      		ldi r24,lo8(currentLogFile)
 20895 7770 90E0      		ldi r25,hi8(currentLogFile)
 20896 7772 0E94 0000 		call strupr
 20897 7776 21E0      		ldi r18,lo8(1)
 20898               	.LVL1512:
 20899               	.LBB899:
 20900               	.LM2288:
 20901 7778 A0E0      		ldi r26,lo8(currentLogFile)
 20902 777a B0E0      		ldi r27,hi8(currentLogFile)
 20903 777c 00C0      		rjmp .L1213
 20904               	.LVL1513:
 20905               	.L1214:
 20906               	.LM2289:
 20907 777e FC01      		movw r30,r24
 20908 7780 E050      		subi r30,lo8(-(currentLogFile))
 20909 7782 F040      		sbci r31,hi8(-(currentLogFile))
 20910 7784 8081      		ld r24,Z
 20911               	.LVL1514:
 20912 7786 3197      		sbiw r30,1
 20913 7788 8083      		st Z,r24
 20914               	.LM2290:
 20915 778a 2F5F      		subi r18,lo8(-(1))
 20916               	.L1213:
 20917 778c FD01      		movw r30,r26
 20918 778e 0190      		ld __tmp_reg__,Z+
 20919 7790 0020      		tst __tmp_reg__
 20920 7792 01F4      		brne .-6
 20921 7794 3197      		sbiw r30,1
 20922 7796 E050      		subi r30,lo8(currentLogFile)
 20923 7798 F040      		sbci r31,hi8(currentLogFile)
 20924 779a 822F      		mov r24,r18
 20925 779c 90E0      		ldi r25,lo8(0)
 20926 779e 8E17      		cp r24,r30
 20927 77a0 9F07      		cpc r25,r31
 20928 77a2 00F0      		brlo .L1214
 20929               	.LVL1515:
 20930               	.LBE899:
 20931               	.LM2291:
 20932 77a4 E050      		subi r30,lo8(-(currentLogFile-1))
 20933 77a6 F040      		sbci r31,hi8(-(currentLogFile-1))
 20934 77a8 1082      		st Z,__zero_reg__
 20935               	.LM2292:
 20936 77aa 80E0      		ldi r24,lo8(Log_File)
 20937 77ac 90E0      		ldi r25,hi8(Log_File)
 20938               	.LVL1516:
 20939 77ae BE01      		movw r22,r28
 20940 77b0 43E1      		ldi r20,lo8(19)
 20941 77b2 0E94 0000 		call f_open
 20942               	.LVL1517:
 20943               	/* epilogue start */
 20944               	.LM2293:
 20945 77b6 DF91      		pop r29
 20946 77b8 CF91      		pop r28
 20947               	.LVL1518:
 20948 77ba 0895      		ret
 20949               	.LFE88:
 20951               		.data
 20952               	.LC17:
 20953 0087 6465 7669 		.string	"device_class"
 20953      6365 5F63 
 20953      6C61 7373 
 20953      00
 20954               	.LC18:
 20955 0094 4368 6573 		.string	"ChestStrap"
 20955      7453 7472 
 20955      6170 00
 20956               	.LC19:
 20957 009f 6465 7669 		.string	"device_id"
 20957      6365 5F69 
 20957      6400 
 20958               	.LC20:
 20959 00a9 6669 726D 		.string	"firmware_version"
 20959      7761 7265 
 20959      5F76 6572 
 20959      7369 6F6E 
 20959      00
 20960               	.LC21:
 20961 00ba 332E 3030 		.string	"3.00"
 20961      00
 20962               	.LC22:
 20963 00bf 6861 7264 		.string	"hardware_version"
 20963      7761 7265 
 20963      5F76 6572 
 20963      7369 6F6E 
 20963      00
 20964               	.LC23:
 20965 00d0 3300      		.string	"3"
 20966               	.LC24:
 20967 00d2 6368 616E 		.string	"channel_specs"
 20967      6E65 6C5F 
 20967      7370 6563 
 20967      7300 
 20968               	.LC25:
 20969 00e0 7B22 5465 		.string	"{\"Temperature\":{\"units\": \"bits\", \"scale\": 1},"
 20969      6D70 6572 
 20969      6174 7572 
 20969      6522 3A7B 
 20969      2275 6E69 
 20970               	.LC26:
 20971 010e 2252 6573 		.string	"\"Respiration\":{\"units\": \"bits\", \"scale\": 1},"
 20971      7069 7261 
 20971      7469 6F6E 
 20971      223A 7B22 
 20971      756E 6974 
 20972               	.LC27:
 20973 013b 2245 4B47 		.string	"\"EKG\":{\"units\": \"bits\", \"scale\": 1},"
 20973      223A 7B22 
 20973      756E 6974 
 20973      7322 3A20 
 20973      2262 6974 
 20974               	.LC28:
 20975 0160 2248 756D 		.string	"\"Humidity\":{\"units\": \"%RH\", \"scale\": 0.1},"
 20975      6964 6974 
 20975      7922 3A7B 
 20975      2275 6E69 
 20975      7473 223A 
 20976               	.LC29:
 20977 018b 2241 6363 		.string	"\"Accel_X\":{\"units\": \"bits\", \"offset\": -1024, \"scale\": 0.004},"
 20977      656C 5F58 
 20977      223A 7B22 
 20977      756E 6974 
 20977      7322 3A20 
 20978               	.LC30:
 20979 01c9 2241 6363 		.string	"\"Accel_Y\":{\"units\": \"bits\", \"offset\": -1024, \"scale\": 0.004},"
 20979      656C 5F59 
 20979      223A 7B22 
 20979      756E 6974 
 20979      7322 3A20 
 20980               	.LC31:
 20981 0207 2241 6363 		.string	"\"Accel_Z\":{\"units\": \"bits\", \"offset\": -1024, \"scale\": 0.004}}"
 20981      656C 5F5A 
 20981      223A 7B22 
 20981      756E 6974 
 20981      7322 3A20 
 20982               		.text
 20983               	.global	SD_StartLogFile
 20985               	SD_StartLogFile:
 20986               	.LFB149:
 20987               	.LM2294:
 20988               	.LVL1519:
 20989 77bc FF92      		push r15
 20990 77be 0F93      		push r16
 20991 77c0 1F93      		push r17
 20992               	/* prologue: function */
 20993               	/* frame size = 0 */
 20994               	.LM2295:
 20995 77c2 0E94 0000 		call SD_MakeFileName
 20996               	.LVL1520:
 20997               	.LM2296:
 20998 77c6 80E0      		ldi r24,lo8(fileName)
 20999 77c8 90E0      		ldi r25,hi8(fileName)
 21000 77ca 0E94 0000 		call SD_Open
 21001 77ce F82E      		mov r15,r24
 21002               	.LVL1521:
 21003               	.LM2297:
 21004 77d0 8823      		tst r24
 21005 77d2 01F0      		breq .+2
 21006 77d4 00C0      		rjmp .L1217
 21007               	.LVL1522:
 21008               	.LBB900:
 21009               	.LBB901:
 21010               	.LM2298:
 21011 77d6 8FEF      		ldi r24,lo8(-1)
 21012 77d8 9FEF      		ldi r25,hi8(-1)
 21013 77da AFEF      		ldi r26,hlo8(-1)
 21014 77dc BFEF      		ldi r27,hhi8(-1)
 21015               	.LVL1523:
 21016 77de 8093 0000 		sts CRC,r24
 21017 77e2 9093 0000 		sts (CRC)+1,r25
 21018 77e6 A093 0000 		sts (CRC)+2,r26
 21019 77ea B093 0000 		sts (CRC)+3,r27
 21020               	.LBE901:
 21021               	.LBE900:
 21022               	.LM2299:
 21023 77ee 6CE4      		ldi r22,lo8(-1327598516)
 21024 77f0 74E7      		ldi r23,hi8(-1327598516)
 21025 77f2 8EED      		ldi r24,hlo8(-1327598516)
 21026 77f4 90EB      		ldi r25,hhi8(-1327598516)
 21027 77f6 0E94 0000 		call SD_Write32
 21028               	.LM2300:
 21029 77fa 00E0      		ldi r16,lo8(deviceID)
 21030 77fc 10E0      		ldi r17,hi8(deviceID)
 21031 77fe F801      		movw r30,r16
 21032 7800 0190      		ld __tmp_reg__,Z+
 21033 7802 0020      		tst __tmp_reg__
 21034 7804 01F4      		brne .-6
 21035 7806 CF01      		movw r24,r30
 21036 7808 8050      		subi r24,lo8(deviceID-468)
 21037 780a 9040      		sbci r25,hi8(deviceID-468)
 21038 780c A0E0      		ldi r26,lo8(0)
 21039 780e B0E0      		ldi r27,hi8(0)
 21040 7810 BC01      		movw r22,r24
 21041 7812 CD01      		movw r24,r26
 21042 7814 0E94 0000 		call SD_Write32
 21043               	.LM2301:
 21044 7818 81E0      		ldi r24,lo8(1)
 21045 781a 90E0      		ldi r25,hi8(1)
 21046 781c 0E94 0000 		call SD_Write16
 21047               	.LM2302:
 21048 7820 80E0      		ldi r24,lo8(256)
 21049 7822 91E0      		ldi r25,hi8(256)
 21050 7824 0E94 0000 		call SD_Write16
 21051               	.LM2303:
 21052 7828 82E0      		ldi r24,lo8(2)
 21053 782a 0E94 0000 		call SD_Write8
 21054               	.LM2304:
 21055 782e 0E94 0000 		call Time_Get32BitTimer
 21056 7832 0E94 0000 		call SD_Write32
 21057               	.LM2305:
 21058 7836 67E4      		ldi r22,lo8(542535)
 21059 7838 77E4      		ldi r23,hi8(542535)
 21060 783a 88E0      		ldi r24,hlo8(542535)
 21061 783c 90E0      		ldi r25,hhi8(542535)
 21062 783e 0E94 0000 		call SD_Write32
 21063               	.LM2306:
 21064 7842 80E0      		ldi r24,lo8(0)
 21065 7844 90E0      		ldi r25,hi8(0)
 21066 7846 0E94 0000 		call SD_Write16
 21067               	.LM2307:
 21068 784a 80E0      		ldi r24,lo8(.LC17)
 21069 784c 90E0      		ldi r25,hi8(.LC17)
 21070 784e 0E94 0000 		call SD_WriteString
 21071               	.LM2308:
 21072 7852 89E0      		ldi r24,lo8(9)
 21073 7854 0E94 0000 		call SD_Write8
 21074               	.LM2309:
 21075 7858 80E0      		ldi r24,lo8(.LC18)
 21076 785a 90E0      		ldi r25,hi8(.LC18)
 21077 785c 0E94 0000 		call SD_WriteString
 21078               	.LM2310:
 21079 7860 8AE0      		ldi r24,lo8(10)
 21080 7862 0E94 0000 		call SD_Write8
 21081               	.LM2311:
 21082 7866 80E0      		ldi r24,lo8(.LC19)
 21083 7868 90E0      		ldi r25,hi8(.LC19)
 21084 786a 0E94 0000 		call SD_WriteString
 21085               	.LM2312:
 21086 786e 89E0      		ldi r24,lo8(9)
 21087 7870 0E94 0000 		call SD_Write8
 21088               	.LM2313:
 21089 7874 C801      		movw r24,r16
 21090 7876 0E94 0000 		call SD_WriteString
 21091               	.LM2314:
 21092 787a 8AE0      		ldi r24,lo8(10)
 21093 787c 0E94 0000 		call SD_Write8
 21094               	.LM2315:
 21095 7880 80E0      		ldi r24,lo8(.LC20)
 21096 7882 90E0      		ldi r25,hi8(.LC20)
 21097 7884 0E94 0000 		call SD_WriteString
 21098               	.LM2316:
 21099 7888 89E0      		ldi r24,lo8(9)
 21100 788a 0E94 0000 		call SD_Write8
 21101               	.LM2317:
 21102 788e 80E0      		ldi r24,lo8(.LC21)
 21103 7890 90E0      		ldi r25,hi8(.LC21)
 21104 7892 0E94 0000 		call SD_WriteString
 21105               	.LM2318:
 21106 7896 8AE0      		ldi r24,lo8(10)
 21107 7898 0E94 0000 		call SD_Write8
 21108               	.LM2319:
 21109 789c 80E0      		ldi r24,lo8(.LC22)
 21110 789e 90E0      		ldi r25,hi8(.LC22)
 21111 78a0 0E94 0000 		call SD_WriteString
 21112               	.LM2320:
 21113 78a4 89E0      		ldi r24,lo8(9)
 21114 78a6 0E94 0000 		call SD_Write8
 21115               	.LM2321:
 21116 78aa 80E0      		ldi r24,lo8(.LC23)
 21117 78ac 90E0      		ldi r25,hi8(.LC23)
 21118 78ae 0E94 0000 		call SD_WriteString
 21119               	.LM2322:
 21120 78b2 8AE0      		ldi r24,lo8(10)
 21121 78b4 0E94 0000 		call SD_Write8
 21122               	.LM2323:
 21123 78b8 80E0      		ldi r24,lo8(.LC24)
 21124 78ba 90E0      		ldi r25,hi8(.LC24)
 21125 78bc 0E94 0000 		call SD_WriteString
 21126               	.LM2324:
 21127 78c0 89E0      		ldi r24,lo8(9)
 21128 78c2 0E94 0000 		call SD_Write8
 21129               	.LM2325:
 21130 78c6 80E0      		ldi r24,lo8(.LC25)
 21131 78c8 90E0      		ldi r25,hi8(.LC25)
 21132 78ca 0E94 0000 		call SD_WriteString
 21133               	.LM2326:
 21134 78ce 80E0      		ldi r24,lo8(.LC26)
 21135 78d0 90E0      		ldi r25,hi8(.LC26)
 21136 78d2 0E94 0000 		call SD_WriteString
 21137               	.LM2327:
 21138 78d6 80E0      		ldi r24,lo8(.LC27)
 21139 78d8 90E0      		ldi r25,hi8(.LC27)
 21140 78da 0E94 0000 		call SD_WriteString
 21141               	.LM2328:
 21142 78de 80E0      		ldi r24,lo8(.LC28)
 21143 78e0 90E0      		ldi r25,hi8(.LC28)
 21144 78e2 0E94 0000 		call SD_WriteString
 21145               	.LM2329:
 21146 78e6 80E0      		ldi r24,lo8(.LC29)
 21147 78e8 90E0      		ldi r25,hi8(.LC29)
 21148 78ea 0E94 0000 		call SD_WriteString
 21149               	.LM2330:
 21150 78ee 80E0      		ldi r24,lo8(.LC30)
 21151 78f0 90E0      		ldi r25,hi8(.LC30)
 21152 78f2 0E94 0000 		call SD_WriteString
 21153               	.LM2331:
 21154 78f6 80E0      		ldi r24,lo8(.LC31)
 21155 78f8 90E0      		ldi r25,hi8(.LC31)
 21156 78fa 0E94 0000 		call SD_WriteString
 21157               	.LM2332:
 21158 78fe 8AE0      		ldi r24,lo8(10)
 21159 7900 0E94 0000 		call SD_Write8
 21160               	.LM2333:
 21161 7904 80E0      		ldi r24,lo8(0)
 21162 7906 0E94 0000 		call SD_Write8
 21163               	.LM2334:
 21164 790a 0E94 0000 		call SD_WriteCRC
 21165               	.LM2335:
 21166 790e 80E0      		ldi r24,lo8(Log_File)
 21167 7910 90E0      		ldi r25,hi8(Log_File)
 21168 7912 0E94 0000 		call f_sync
 21169               	.LVL1524:
 21170               	.L1217:
 21171               	.LM2336:
 21172 7916 8F2D      		mov r24,r15
 21173               	/* epilogue start */
 21174 7918 1F91      		pop r17
 21175 791a 0F91      		pop r16
 21176 791c FF90      		pop r15
 21177               	.LVL1525:
 21178 791e 0895      		ret
 21179               	.LFE149:
 21181               		.data
 21182               	.LC32:
 21183 0245 2F00      		.string	"/"
 21184               	.LC33:
 21185 0247 303A 00   		.string	"0:"
 21186               		.text
 21187               	.global	__vector_53
 21189               	__vector_53:
 21190               	.LFB148:
 21191               	.LM2337:
 21192 7920 1F92      		push __zero_reg__
 21193 7922 0F92      		push r0
 21194 7924 0FB6      		in r0,__SREG__
 21195 7926 0F92      		push r0
 21196 7928 0BB6      		in r0,59-0
 21197 792a 0F92      		push r0
 21198 792c 1124      		clr __zero_reg__
 21199 792e AF92      		push r10
 21200 7930 BF92      		push r11
 21201 7932 CF92      		push r12
 21202 7934 DF92      		push r13
 21203 7936 EF92      		push r14
 21204 7938 FF92      		push r15
 21205 793a 0F93      		push r16
 21206 793c 1F93      		push r17
 21207 793e 2F93      		push r18
 21208 7940 3F93      		push r19
 21209 7942 4F93      		push r20
 21210 7944 5F93      		push r21
 21211 7946 6F93      		push r22
 21212 7948 7F93      		push r23
 21213 794a 8F93      		push r24
 21214 794c 9F93      		push r25
 21215 794e AF93      		push r26
 21216 7950 BF93      		push r27
 21217 7952 EF93      		push r30
 21218 7954 FF93      		push r31
 21219 7956 DF93      		push r29
 21220 7958 CF93      		push r28
 21221 795a 0F92      		push __tmp_reg__
 21222 795c 0F92      		push __tmp_reg__
 21223 795e CDB7      		in r28,__SP_L__
 21224 7960 DEB7      		in r29,__SP_H__
 21225               	/* prologue: Signal */
 21226               	/* frame size = 2 */
 21227               	.LBB902:
 21228               	.LM2338:
 21229 7962 6E01      		movw r12,r28
 21230 7964 0894      		sec
 21231 7966 C11C      		adc r12,__zero_reg__
 21232 7968 D11C      		adc r13,__zero_reg__
 21233               	.LBE902:
 21234               	.LBB903:
 21235               	.LBB904:
 21236               	.LBB905:
 21237               	.LBB906:
 21238               	.LM2339:
 21239 796a B0E7      		ldi r27,lo8(368)
 21240 796c AB2E      		mov r10,r27
 21241 796e B1E0      		ldi r27,hi8(368)
 21242 7970 BB2E      		mov r11,r27
 21243               	.L1251:
 21244               	.LBE906:
 21245               	.LBE905:
 21246               	.LBE904:
 21247               	.LBE903:
 21248               	.LM2340:
 21249 7972 8091 0000 		lds r24,okToSendAccelBuffer1
 21250 7976 8823      		tst r24
 21251 7978 01F0      		breq .L1220
 21252 797a 8091 0000 		lds r24,recording
 21253 797e 8823      		tst r24
 21254 7980 01F0      		breq .L1220
 21255               	.LM2341:
 21256 7982 81E0      		ldi r24,lo8(1)
 21257 7984 0E94 0000 		call SD_WriteAccelBuffer
 21258               	.LM2342:
 21259 7988 1092 0000 		sts okToSendAccelBuffer1,__zero_reg__
 21260 798c 00C0      		rjmp .L1251
 21261               	.L1220:
 21262               	.LM2343:
 21263 798e 8091 0000 		lds r24,okToSendAccelBuffer2
 21264 7992 8823      		tst r24
 21265 7994 01F0      		breq .L1222
 21266 7996 8091 0000 		lds r24,recording
 21267 799a 8823      		tst r24
 21268 799c 01F0      		breq .L1222
 21269               	.LM2344:
 21270 799e 82E0      		ldi r24,lo8(2)
 21271 79a0 0E94 0000 		call SD_WriteAccelBuffer
 21272               	.LM2345:
 21273 79a4 1092 0000 		sts okToSendAccelBuffer2,__zero_reg__
 21274 79a8 00C0      		rjmp .L1251
 21275               	.L1222:
 21276               	.LM2346:
 21277 79aa 8091 0000 		lds r24,okToSendTemperatureBuffer1
 21278 79ae 8823      		tst r24
 21279 79b0 01F0      		breq .L1223
 21280 79b2 8091 0000 		lds r24,recording
 21281 79b6 8823      		tst r24
 21282 79b8 01F0      		breq .L1223
 21283               	.LM2347:
 21284 79ba 81E0      		ldi r24,lo8(1)
 21285 79bc 0E94 0000 		call SD_WriteTemperatureBuffer
 21286               	.LM2348:
 21287 79c0 1092 0000 		sts okToSendTemperatureBuffer1,__zero_reg__
 21288 79c4 00C0      		rjmp .L1251
 21289               	.L1223:
 21290               	.LM2349:
 21291 79c6 8091 0000 		lds r24,okToSendTemperatureBuffer2
 21292 79ca 8823      		tst r24
 21293 79cc 01F0      		breq .L1224
 21294 79ce 8091 0000 		lds r24,recording
 21295 79d2 8823      		tst r24
 21296 79d4 01F0      		breq .L1224
 21297               	.LM2350:
 21298 79d6 82E0      		ldi r24,lo8(2)
 21299 79d8 0E94 0000 		call SD_WriteTemperatureBuffer
 21300               	.LM2351:
 21301 79dc 1092 0000 		sts okToSendTemperatureBuffer2,__zero_reg__
 21302 79e0 00C0      		rjmp .L1251
 21303               	.L1224:
 21304               	.LM2352:
 21305 79e2 8091 0000 		lds r24,okToSendHumidityBuffer1
 21306 79e6 8823      		tst r24
 21307 79e8 01F0      		breq .L1225
 21308 79ea 8091 0000 		lds r24,recording
 21309 79ee 8823      		tst r24
 21310 79f0 01F0      		breq .L1225
 21311               	.LM2353:
 21312 79f2 81E0      		ldi r24,lo8(1)
 21313 79f4 0E94 0000 		call SD_WriteHumidityBuffer
 21314               	.LM2354:
 21315 79f8 1092 0000 		sts okToSendHumidityBuffer1,__zero_reg__
 21316 79fc 00C0      		rjmp .L1251
 21317               	.L1225:
 21318               	.LM2355:
 21319 79fe 8091 0000 		lds r24,okToSendHumidityBuffer2
 21320 7a02 8823      		tst r24
 21321 7a04 01F0      		breq .L1226
 21322 7a06 8091 0000 		lds r24,recording
 21323 7a0a 8823      		tst r24
 21324 7a0c 01F0      		breq .L1226
 21325               	.LM2356:
 21326 7a0e 82E0      		ldi r24,lo8(2)
 21327 7a10 0E94 0000 		call SD_WriteHumidityBuffer
 21328               	.LM2357:
 21329 7a14 1092 0000 		sts okToSendHumidityBuffer2,__zero_reg__
 21330 7a18 00C0      		rjmp .L1251
 21331               	.L1226:
 21332               	.LM2358:
 21333 7a1a 8091 0000 		lds r24,okToSendRespirationBuffer1
 21334 7a1e 8823      		tst r24
 21335 7a20 01F0      		breq .L1227
 21336 7a22 8091 0000 		lds r24,recording
 21337 7a26 8823      		tst r24
 21338 7a28 01F0      		breq .L1227
 21339               	.LM2359:
 21340 7a2a 81E0      		ldi r24,lo8(1)
 21341 7a2c 0E94 0000 		call SD_WriteRespirationBuffer
 21342               	.LM2360:
 21343 7a30 1092 0000 		sts okToSendRespirationBuffer1,__zero_reg__
 21344 7a34 00C0      		rjmp .L1251
 21345               	.L1227:
 21346               	.LM2361:
 21347 7a36 8091 0000 		lds r24,okToSendRespirationBuffer2
 21348 7a3a 8823      		tst r24
 21349 7a3c 01F0      		breq .L1228
 21350 7a3e 8091 0000 		lds r24,recording
 21351 7a42 8823      		tst r24
 21352 7a44 01F0      		breq .L1228
 21353               	.LM2362:
 21354 7a46 82E0      		ldi r24,lo8(2)
 21355 7a48 0E94 0000 		call SD_WriteRespirationBuffer
 21356               	.LM2363:
 21357 7a4c 1092 0000 		sts okToSendRespirationBuffer2,__zero_reg__
 21358 7a50 00C0      		rjmp .L1251
 21359               	.L1228:
 21360               	.LM2364:
 21361 7a52 8091 0000 		lds r24,okToSendEKGBuffer1
 21362 7a56 8823      		tst r24
 21363 7a58 01F0      		breq .L1229
 21364 7a5a 8091 0000 		lds r24,recording
 21365 7a5e 8823      		tst r24
 21366 7a60 01F0      		breq .L1229
 21367               	.LM2365:
 21368 7a62 81E0      		ldi r24,lo8(1)
 21369 7a64 0E94 0000 		call SD_WriteEKGBuffer
 21370               	.LM2366:
 21371 7a68 1092 0000 		sts okToSendEKGBuffer1,__zero_reg__
 21372 7a6c 00C0      		rjmp .L1251
 21373               	.L1229:
 21374               	.LM2367:
 21375 7a6e 8091 0000 		lds r24,okToSendEKGBuffer2
 21376 7a72 8823      		tst r24
 21377 7a74 01F0      		breq .L1230
 21378 7a76 8091 0000 		lds r24,recording
 21379 7a7a 8823      		tst r24
 21380 7a7c 01F0      		breq .L1230
 21381               	.LM2368:
 21382 7a7e 82E0      		ldi r24,lo8(2)
 21383 7a80 0E94 0000 		call SD_WriteEKGBuffer
 21384               	.LM2369:
 21385 7a84 1092 0000 		sts okToSendEKGBuffer2,__zero_reg__
 21386 7a88 00C0      		rjmp .L1251
 21387               	.L1230:
 21388               	.LM2370:
 21389 7a8a 8091 0000 		lds r24,okToSendRTCBlock
 21390 7a8e 8823      		tst r24
 21391 7a90 01F0      		breq .L1231
 21392 7a92 8091 0000 		lds r24,recording
 21393 7a96 8823      		tst r24
 21394 7a98 01F0      		breq .L1231
 21395               	.LM2371:
 21396 7a9a 0E94 0000 		call Time_Get32BitTimer
 21397 7a9e 2091 0000 		lds r18,UNIX_Time
 21398 7aa2 3091 0000 		lds r19,(UNIX_Time)+1
 21399 7aa6 4091 0000 		lds r20,(UNIX_Time)+2
 21400 7aaa 5091 0000 		lds r21,(UNIX_Time)+3
 21401 7aae 0E94 0000 		call SD_WriteRTCBlock
 21402               	.LM2372:
 21403 7ab2 1092 0000 		sts okToSendRTCBlock,__zero_reg__
 21404 7ab6 00C0      		rjmp .L1251
 21405               	.L1231:
 21406               	.LM2373:
 21407 7ab8 8091 0000 		lds r24,okToOpenLogFile
 21408 7abc 8823      		tst r24
 21409 7abe 01F4      		brne .+2
 21410 7ac0 00C0      		rjmp .L1232
 21411 7ac2 8091 0000 		lds r24,percentDiskUsed
 21412 7ac6 9091 0000 		lds r25,(percentDiskUsed)+1
 21413 7aca A091 0000 		lds r26,(percentDiskUsed)+2
 21414 7ace B091 0000 		lds r27,(percentDiskUsed)+3
 21415 7ad2 865B      		subi r24,lo8(950)
 21416 7ad4 9340      		sbci r25,hi8(950)
 21417 7ad6 A040      		sbci r26,hlo8(950)
 21418 7ad8 B040      		sbci r27,hhi8(950)
 21419 7ada 00F0      		brlo .+2
 21420 7adc 00C0      		rjmp .L1232
 21421               	.LM2374:
 21422 7ade 6091 0000 		lds r22,UNIX_Time
 21423 7ae2 7091 0000 		lds r23,(UNIX_Time)+1
 21424 7ae6 8091 0000 		lds r24,(UNIX_Time)+2
 21425 7aea 9091 0000 		lds r25,(UNIX_Time)+3
 21426 7aee 0E94 0000 		call SD_StartLogFile
 21427 7af2 8823      		tst r24
 21428 7af4 01F4      		brne .L1233
 21429 7af6 88EE      		ldi r24,lo8(1000)
 21430 7af8 93E0      		ldi r25,hi8(1000)
 21431               	.LVL1526:
 21432               	.L1234:
 21433               	.LBB910:
 21434               	.LBB909:
 21435               	.LBB908:
 21436               	.LBB907:
 21437               	.LM2375:
 21438 7afa F501      		movw r30,r10
 21439               	.LVL1527:
 21440               	/* #APP */
 21441               	 ;  105 "/usr/local/CrossPack-AVR-20100115/lib/gcc/avr/4.3.3/../../../../avr/include/util/delay_bas
 21442 7afc 3197      		1: sbiw r30,1
 21443 7afe 01F4      		brne 1b
 21444               	 ;  0 "" 2
 21445               	/* #NOAPP */
 21446               	.LBE907:
 21447               	.LBE908:
 21448               	.LM2376:
 21449 7b00 0197      		sbiw r24,1
 21450               	.LM2377:
 21451 7b02 01F4      		brne .L1234
 21452               	.LBE909:
 21453               	.LBE910:
 21454               	.LM2378:
 21455 7b04 8091 0000 		lds r24,UNIX_Time
 21456 7b08 9091 0000 		lds r25,(UNIX_Time)+1
 21457 7b0c A091 0000 		lds r26,(UNIX_Time)+2
 21458 7b10 B091 0000 		lds r27,(UNIX_Time)+3
 21459               	.LVL1528:
 21460 7b14 8C57      		subi r24,lo8(-(900))
 21461 7b16 9C4F      		sbci r25,hi8(-(900))
 21462 7b18 AF4F      		sbci r26,hlo8(-(900))
 21463 7b1a BF4F      		sbci r27,hhi8(-(900))
 21464 7b1c 8093 0000 		sts timeToStopRecording,r24
 21465 7b20 9093 0000 		sts (timeToStopRecording)+1,r25
 21466 7b24 A093 0000 		sts (timeToStopRecording)+2,r26
 21467 7b28 B093 0000 		sts (timeToStopRecording)+3,r27
 21468 7b2c 8458      		subi r24,lo8(-(-900))
 21469 7b2e 9340      		sbci r25,hi8(-(-900))
 21470 7b30 A040      		sbci r26,hlo8(-(-900))
 21471 7b32 B040      		sbci r27,hhi8(-(-900))
 21472               	.LM2379:
 21473 7b34 8093 0000 		sts timeRecordingStarted,r24
 21474 7b38 9093 0000 		sts (timeRecordingStarted)+1,r25
 21475 7b3c A093 0000 		sts (timeRecordingStarted)+2,r26
 21476 7b40 B093 0000 		sts (timeRecordingStarted)+3,r27
 21477               	.LM2380:
 21478 7b44 0E94 0000 		call Time_Get32BitTimer
 21479               	.LVL1529:
 21480 7b48 2091 0000 		lds r18,UNIX_Time
 21481 7b4c 3091 0000 		lds r19,(UNIX_Time)+1
 21482 7b50 4091 0000 		lds r20,(UNIX_Time)+2
 21483 7b54 5091 0000 		lds r21,(UNIX_Time)+3
 21484 7b58 0E94 0000 		call SD_WriteRTCBlock
 21485               	.LM2381:
 21486 7b5c 81E0      		ldi r24,lo8(1)
 21487 7b5e 8093 0000 		sts recording,r24
 21488               	.LM2382:
 21489 7b62 1092 0000 		sts okToOpenLogFile,__zero_reg__
 21490 7b66 00C0      		rjmp .L1232
 21491               	.L1233:
 21492               	.LM2383:
 21493 7b68 0E94 0000 		call SD_Init
 21494               	.L1232:
 21495               	.LM2384:
 21496 7b6c 8091 0000 		lds r24,okToCloseLogFile
 21497 7b70 8823      		tst r24
 21498 7b72 01F0      		breq .L1235
 21499               	.LM2385:
 21500 7b74 0E94 0000 		call SD_Close
 21501               	.LM2386:
 21502 7b78 1092 0000 		sts okToCloseLogFile,__zero_reg__
 21503 7b7c 00C0      		rjmp .L1251
 21504               	.L1235:
 21505               	.LM2387:
 21506 7b7e 8091 0000 		lds r24,okToOpenDirectory
 21507 7b82 8823      		tst r24
 21508 7b84 01F0      		breq .L1236
 21509               	.LM2388:
 21510 7b86 80E0      		ldi r24,lo8(dir)
 21511 7b88 90E0      		ldi r25,hi8(dir)
 21512 7b8a 60E0      		ldi r22,lo8(.LC32)
 21513 7b8c 70E0      		ldi r23,hi8(.LC32)
 21514 7b8e 0E94 0000 		call f_opendir
 21515               	.LM2389:
 21516 7b92 1092 0000 		sts okToOpenDirectory,__zero_reg__
 21517               	.L1236:
 21518               	.LM2390:
 21519 7b96 8091 0000 		lds r24,okToGrabNextFileName
 21520 7b9a 8823      		tst r24
 21521 7b9c 01F0      		breq .L1237
 21522               	.LM2391:
 21523 7b9e 1092 0000 		sts availableFileName,__zero_reg__
 21524               	.LM2392:
 21525 7ba2 80E0      		ldi r24,lo8(dir)
 21526 7ba4 90E0      		ldi r25,hi8(dir)
 21527 7ba6 60E0      		ldi r22,lo8(fno)
 21528 7ba8 70E0      		ldi r23,hi8(fno)
 21529 7baa 0E94 0000 		call f_readdir
 21530 7bae 8823      		tst r24
 21531 7bb0 01F4      		brne .L1238
 21532               	.LM2393:
 21533 7bb2 8091 0000 		lds r24,fno+9
 21534 7bb6 8823      		tst r24
 21535 7bb8 01F0      		breq .L1239
 21536               	.LM2394:
 21537 7bba 80E0      		ldi r24,lo8(availableFileName)
 21538 7bbc 90E0      		ldi r25,hi8(availableFileName)
 21539 7bbe 60E0      		ldi r22,lo8(fno+9)
 21540 7bc0 70E0      		ldi r23,hi8(fno+9)
 21541 7bc2 0E94 0000 		call strcpy
 21542               	.L1239:
 21543               	.LM2395:
 21544 7bc6 1092 0000 		sts okToGrabNextFileName,__zero_reg__
 21545 7bca 00C0      		rjmp .L1237
 21546               	.L1238:
 21547               	.LBB911:
 21548               	.LBB912:
 21549               	.LM2396:
 21550 7bcc 8091 A806 		lds r24,1704
 21551 7bd0 84FF      		sbrs r24,4
 21552 7bd2 00C0      		rjmp .L1240
 21553               	.L1237:
 21554               	.LBE912:
 21555               	.LBE911:
 21556               	.LM2397:
 21557 7bd4 8091 0000 		lds r24,okToOpenFileToUpload
 21558 7bd8 8823      		tst r24
 21559 7bda 01F0      		breq .L1241
 21560               	.LM2398:
 21561 7bdc 80E0      		ldi r24,lo8(fileToUpload)
 21562 7bde 90E0      		ldi r25,hi8(fileToUpload)
 21563 7be0 60E0      		ldi r22,lo8(fno)
 21564 7be2 70E0      		ldi r23,hi8(fno)
 21565 7be4 0E94 0000 		call f_stat
 21566               	.LM2399:
 21567 7be8 8091 0000 		lds r24,fno
 21568 7bec 9091 0000 		lds r25,(fno)+1
 21569 7bf0 A091 0000 		lds r26,(fno)+2
 21570 7bf4 B091 0000 		lds r27,(fno)+3
 21571 7bf8 8093 0000 		sts uploadFileSize,r24
 21572 7bfc 9093 0000 		sts (uploadFileSize)+1,r25
 21573 7c00 A093 0000 		sts (uploadFileSize)+2,r26
 21574 7c04 B093 0000 		sts (uploadFileSize)+3,r27
 21575               	.LM2400:
 21576 7c08 80E0      		ldi r24,lo8(Upload_File)
 21577 7c0a 90E0      		ldi r25,hi8(Upload_File)
 21578 7c0c 60E0      		ldi r22,lo8(fileToUpload)
 21579 7c0e 70E0      		ldi r23,hi8(fileToUpload)
 21580 7c10 43E0      		ldi r20,lo8(3)
 21581 7c12 0E94 0000 		call f_open
 21582 7c16 8823      		tst r24
 21583 7c18 01F4      		brne .L1242
 21584               	.LM2401:
 21585 7c1a 81E0      		ldi r24,lo8(1)
 21586 7c1c 8093 0000 		sts fileExists,r24
 21587 7c20 00C0      		rjmp .L1243
 21588               	.L1242:
 21589               	.LM2402:
 21590 7c22 1092 0000 		sts fileExists,__zero_reg__
 21591               	.L1243:
 21592               	.LM2403:
 21593 7c26 80E0      		ldi r24,lo8(Upload_File)
 21594 7c28 90E0      		ldi r25,hi8(Upload_File)
 21595 7c2a 40E0      		ldi r20,lo8(0)
 21596 7c2c 50E0      		ldi r21,hi8(0)
 21597 7c2e 60E0      		ldi r22,hlo8(0)
 21598 7c30 70E0      		ldi r23,hhi8(0)
 21599 7c32 0E94 0000 		call f_lseek
 21600               	.LM2404:
 21601 7c36 81E0      		ldi r24,lo8(1)
 21602 7c38 8093 0000 		sts uploadFileOpened,r24
 21603               	.LM2405:
 21604 7c3c 1092 0000 		sts okToOpenFileToUpload,__zero_reg__
 21605 7c40 00C0      		rjmp .L1251
 21606               	.L1241:
 21607               	.LM2406:
 21608 7c42 8091 0000 		lds r24,okToFillUploadFileBuffer
 21609 7c46 8823      		tst r24
 21610 7c48 01F0      		breq .L1244
 21611               	.LBB913:
 21612               	.LM2407:
 21613 7c4a 80E0      		ldi r24,lo8(Upload_File)
 21614 7c4c 90E0      		ldi r25,hi8(Upload_File)
 21615 7c4e 60E0      		ldi r22,lo8(uploadFileBuffer)
 21616 7c50 70E0      		ldi r23,hi8(uploadFileBuffer)
 21617 7c52 48EE      		ldi r20,lo8(1000)
 21618 7c54 53E0      		ldi r21,hi8(1000)
 21619 7c56 9601      		movw r18,r12
 21620 7c58 0E94 0000 		call f_read
 21621               	.LM2408:
 21622 7c5c 1092 0000 		sts okToFillUploadFileBuffer,__zero_reg__
 21623               	.LM2409:
 21624 7c60 81E0      		ldi r24,lo8(1)
 21625 7c62 8093 0000 		sts uploadFileBufferFull,r24
 21626 7c66 00C0      		rjmp .L1251
 21627               	.L1244:
 21628               	.LBE913:
 21629               	.LM2410:
 21630 7c68 8091 0000 		lds r24,okToCloseUploadFile
 21631 7c6c 8823      		tst r24
 21632 7c6e 01F0      		breq .L1245
 21633               	.LM2411:
 21634 7c70 80E0      		ldi r24,lo8(Upload_File)
 21635 7c72 90E0      		ldi r25,hi8(Upload_File)
 21636 7c74 0E94 0000 		call f_sync
 21637               	.LM2412:
 21638 7c78 80E0      		ldi r24,lo8(Upload_File)
 21639 7c7a 90E0      		ldi r25,hi8(Upload_File)
 21640 7c7c 0E94 0000 		call f_close
 21641               	.LM2413:
 21642 7c80 80E0      		ldi r24,lo8(fileToUpload)
 21643 7c82 90E0      		ldi r25,hi8(fileToUpload)
 21644 7c84 60E0      		ldi r22,lo8(.LC13)
 21645 7c86 70E0      		ldi r23,hi8(.LC13)
 21646 7c88 0E94 0000 		call strcpy
 21647               	.LM2414:
 21648 7c8c 1092 0000 		sts okToCloseUploadFile,__zero_reg__
 21649 7c90 00C0      		rjmp .L1251
 21650               	.L1245:
 21651               	.LM2415:
 21652 7c92 8091 0000 		lds r24,okToGetRemainingSpace
 21653 7c96 8823      		tst r24
 21654 7c98 01F4      		brne .+2
 21655 7c9a 00C0      		rjmp .L1246
 21656               	.LM2416:
 21657 7c9c 80E0      		ldi r24,lo8(.LC33)
 21658 7c9e 90E0      		ldi r25,hi8(.LC33)
 21659 7ca0 60E0      		ldi r22,lo8(spaceRemainingOnDisk)
 21660 7ca2 70E0      		ldi r23,hi8(spaceRemainingOnDisk)
 21661 7ca4 40E0      		ldi r20,lo8(fs)
 21662 7ca6 50E0      		ldi r21,hi8(fs)
 21663 7ca8 0E94 0000 		call f_getfree
 21664 7cac 8823      		tst r24
 21665 7cae 01F0      		breq .L1247
 21666               	.LM2417:
 21667 7cb0 1092 0000 		sts spaceRemainingOnDisk,__zero_reg__
 21668 7cb4 1092 0000 		sts (spaceRemainingOnDisk)+1,__zero_reg__
 21669 7cb8 1092 0000 		sts (spaceRemainingOnDisk)+2,__zero_reg__
 21670 7cbc 1092 0000 		sts (spaceRemainingOnDisk)+3,__zero_reg__
 21671               	.L1247:
 21672               	.LM2418:
 21673 7cc0 E091 0000 		lds r30,fs
 21674 7cc4 F091 0000 		lds r31,(fs)+1
 21675 7cc8 E28C      		ldd r14,Z+26
 21676 7cca F38C      		ldd r15,Z+27
 21677 7ccc 048D      		ldd r16,Z+28
 21678 7cce 158D      		ldd r17,Z+29
 21679 7cd0 E092 0000 		sts totalDiskSpace,r14
 21680 7cd4 F092 0000 		sts (totalDiskSpace)+1,r15
 21681 7cd8 0093 0000 		sts (totalDiskSpace)+2,r16
 21682 7cdc 1093 0000 		sts (totalDiskSpace)+3,r17
 21683               	.LM2419:
 21684 7ce0 8091 0000 		lds r24,spaceRemainingOnDisk
 21685 7ce4 9091 0000 		lds r25,(spaceRemainingOnDisk)+1
 21686 7ce8 A091 0000 		lds r26,(spaceRemainingOnDisk)+2
 21687 7cec B091 0000 		lds r27,(spaceRemainingOnDisk)+3
 21688 7cf0 A801      		movw r20,r16
 21689 7cf2 9701      		movw r18,r14
 21690 7cf4 281B      		sub r18,r24
 21691 7cf6 390B      		sbc r19,r25
 21692 7cf8 4A0B      		sbc r20,r26
 21693 7cfa 5B0B      		sbc r21,r27
 21694 7cfc CA01      		movw r24,r20
 21695 7cfe B901      		movw r22,r18
 21696 7d00 28EE      		ldi r18,lo8(1000)
 21697 7d02 33E0      		ldi r19,hi8(1000)
 21698 7d04 40E0      		ldi r20,hlo8(1000)
 21699 7d06 50E0      		ldi r21,hhi8(1000)
 21700 7d08 0E94 0000 		call __mulsi3
 21701               	.LM2420:
 21702 7d0c A801      		movw r20,r16
 21703 7d0e 9701      		movw r18,r14
 21704 7d10 0E94 0000 		call __udivmodsi4
 21705 7d14 2093 0000 		sts percentDiskUsed,r18
 21706 7d18 3093 0000 		sts (percentDiskUsed)+1,r19
 21707 7d1c 4093 0000 		sts (percentDiskUsed)+2,r20
 21708 7d20 5093 0000 		sts (percentDiskUsed)+3,r21
 21709               	.LM2421:
 21710 7d24 1092 0000 		sts okToGetRemainingSpace,__zero_reg__
 21711 7d28 00C0      		rjmp .L1251
 21712               	.L1246:
 21713               	.LM2422:
 21714 7d2a 8091 0000 		lds r24,okToEraseFile
 21715 7d2e 8823      		tst r24
 21716 7d30 01F0      		breq .L1249
 21717               	.LM2423:
 21718 7d32 80E0      		ldi r24,lo8(fileToErase)
 21719 7d34 90E0      		ldi r25,hi8(fileToErase)
 21720 7d36 0E94 0000 		call f_unlink
 21721 7d3a 8093 0000 		sts eraseFileReturn,r24
 21722               	.LM2424:
 21723 7d3e 80E0      		ldi r24,lo8(fileToUpload)
 21724 7d40 90E0      		ldi r25,hi8(fileToUpload)
 21725 7d42 60E0      		ldi r22,lo8(.LC13)
 21726 7d44 70E0      		ldi r23,hi8(.LC13)
 21727 7d46 0E94 0000 		call strcpy
 21728               	.LM2425:
 21729 7d4a 1092 0000 		sts okToEraseFile,__zero_reg__
 21730 7d4e 00C0      		rjmp .L1251
 21731               	.L1240:
 21732               	.LM2426:
 21733 7d50 0E94 0000 		call SD_Init
 21734               	.LM2427:
 21735 7d54 80E0      		ldi r24,lo8(dir)
 21736 7d56 90E0      		ldi r25,hi8(dir)
 21737 7d58 60E0      		ldi r22,lo8(.LC32)
 21738 7d5a 70E0      		ldi r23,hi8(.LC32)
 21739 7d5c 0E94 0000 		call f_opendir
 21740 7d60 00C0      		rjmp .L1237
 21741               	.L1249:
 21742               	/* epilogue start */
 21743               	.LM2428:
 21744 7d62 0F90      		pop __tmp_reg__
 21745 7d64 0F90      		pop __tmp_reg__
 21746 7d66 CF91      		pop r28
 21747 7d68 DF91      		pop r29
 21748 7d6a FF91      		pop r31
 21749 7d6c EF91      		pop r30
 21750 7d6e BF91      		pop r27
 21751 7d70 AF91      		pop r26
 21752 7d72 9F91      		pop r25
 21753 7d74 8F91      		pop r24
 21754 7d76 7F91      		pop r23
 21755 7d78 6F91      		pop r22
 21756 7d7a 5F91      		pop r21
 21757 7d7c 4F91      		pop r20
 21758 7d7e 3F91      		pop r19
 21759 7d80 2F91      		pop r18
 21760 7d82 1F91      		pop r17
 21761 7d84 0F91      		pop r16
 21762 7d86 FF90      		pop r15
 21763 7d88 EF90      		pop r14
 21764 7d8a DF90      		pop r13
 21765 7d8c CF90      		pop r12
 21766 7d8e BF90      		pop r11
 21767 7d90 AF90      		pop r10
 21768 7d92 0F90      		pop r0
 21769 7d94 0BBE      		out 59-0,r0
 21770 7d96 0F90      		pop r0
 21771 7d98 0FBE      		out __SREG__,r0
 21772 7d9a 0F90      		pop r0
 21773 7d9c 1F90      		pop __zero_reg__
 21774 7d9e 1895      		reti
 21775               	.LFE148:
 21777               		.data
 21778               	.LC34:
 21779 024a 2F63 6F6E 		.string	"/config.txt"
 21779      6669 672E 
 21779      7478 7400 
 21780               	.LC35:
 21781 0256 7373 6964 		.string	"ssid"
 21781      00
 21782               	.LC36:
 21783 025b 3D00      		.string	"="
 21784               	.LC37:
 21785 025d 7068 7261 		.string	"phrase"
 21785      7365 00
 21786               	.LC38:
 21787 0264 6B65 7900 		.string	"key"
 21788               	.LC39:
 21789 0268 706F 7274 		.string	"port"
 21789      00
 21790               	.LC40:
 21791 026d 6175 7468 		.string	"auth"
 21791      00
 21792               	.LC41:
 21793 0272 7573 6572 		.string	"user"
 21793      00
 21794               	.LC42:
 21795 0277 6E69 636B 		.string	"nickname"
 21795      6E61 6D65 
 21795      00
 21796               	.LC43:
 21797 0280 7365 7276 		.string	"server"
 21797      6572 00
 21798               	.LC44:
 21799 0287 6461 796C 		.string	"daylightTime"
 21799      6967 6874 
 21799      5469 6D65 
 21799      00
 21800               	.LC45:
 21801 0294 6465 6D6F 		.string	"demoMode"
 21801      4D6F 6465 
 21801      00
 21802               	.LC46:
 21803 029d 7265 636F 		.string	"recordFast"
 21803      7264 4661 
 21803      7374 00
 21804               	.LC47:
 21805 02a8 7A6F 6E65 		.string	"zone"
 21805      00
 21806               	.LC48:
 21807 02ad 4553 5400 		.string	"EST"
 21808               	.LC49:
 21809 02b1 4353 5400 		.string	"CST"
 21810               	.LC50:
 21811 02b5 4D53 5400 		.string	"MST"
 21812               	.LC51:
 21813 02b9 5053 5400 		.string	"PST"
 21814               	.LC52:
 21815 02bd 2000      		.string	" "
 21816               	.LC53:
 21817 02bf 7472 7565 		.string	"true"
 21817      00
 21818               		.text
 21819               	.global	SD_Read_config_file
 21821               	SD_Read_config_file:
 21822               	.LFB99:
 21823               	.LM2429:
 21824 7da0 AF92      		push r10
 21825 7da2 BF92      		push r11
 21826 7da4 CF92      		push r12
 21827 7da6 DF92      		push r13
 21828 7da8 EF92      		push r14
 21829 7daa FF92      		push r15
 21830 7dac 0F93      		push r16
 21831 7dae 1F93      		push r17
 21832 7db0 DF93      		push r29
 21833 7db2 CF93      		push r28
 21834 7db4 CDB7      		in r28,__SP_L__
 21835 7db6 DEB7      		in r29,__SP_H__
 21836 7db8 E297      		sbiw r28,50
 21837 7dba CDBF      		out __SP_L__,r28
 21838 7dbc DEBF      		out __SP_H__,r29
 21839               	/* prologue: function */
 21840               	/* frame size = 50 */
 21841               	.LM2430:
 21842 7dbe 80E0      		ldi r24,lo8(.LC34)
 21843 7dc0 90E0      		ldi r25,hi8(.LC34)
 21844 7dc2 0E94 0000 		call SD_Open
 21845               	.LM2431:
 21846 7dc6 80E0      		ldi r24,lo8(Log_File)
 21847 7dc8 90E0      		ldi r25,hi8(Log_File)
 21848 7dca 40E0      		ldi r20,lo8(0)
 21849 7dcc 50E0      		ldi r21,hi8(0)
 21850 7dce 60E0      		ldi r22,hlo8(0)
 21851 7dd0 70E0      		ldi r23,hhi8(0)
 21852 7dd2 0E94 0000 		call f_lseek
 21853               	.LM2432:
 21854 7dd6 8E01      		movw r16,r28
 21855 7dd8 0F5F      		subi r16,lo8(-(1))
 21856 7dda 1F4F      		sbci r17,hi8(-(1))
 21857               	.LM2433:
 21858 7ddc 20E0      		ldi r18,lo8(zone)
 21859 7dde E22E      		mov r14,r18
 21860 7de0 20E0      		ldi r18,hi8(zone)
 21861 7de2 F22E      		mov r15,r18
 21862               	.LM2434:
 21863 7de4 90E0      		ldi r25,lo8(nickname)
 21864 7de6 C92E      		mov r12,r25
 21865 7de8 90E0      		ldi r25,hi8(nickname)
 21866 7dea D92E      		mov r13,r25
 21867               	.LM2435:
 21868 7dec 80E0      		ldi r24,lo8(user)
 21869 7dee A82E      		mov r10,r24
 21870 7df0 80E0      		ldi r24,hi8(user)
 21871 7df2 B82E      		mov r11,r24
 21872               	.LVL1530:
 21873               	.L1285:
 21874               	.LM2436:
 21875 7df4 C801      		movw r24,r16
 21876 7df6 62E3      		ldi r22,lo8(50)
 21877 7df8 70E0      		ldi r23,hi8(50)
 21878 7dfa 40E0      		ldi r20,lo8(Log_File)
 21879 7dfc 50E0      		ldi r21,hi8(Log_File)
 21880 7dfe 0E94 0000 		call f_gets
 21881               	.LVL1531:
 21882               	.LM2437:
 21883 7e02 8981      		ldd r24,Y+1
 21884 7e04 8823      		tst r24
 21885 7e06 01F4      		brne .+2
 21886 7e08 00C0      		rjmp .L1253
 21887               	.LM2438:
 21888 7e0a C801      		movw r24,r16
 21889 7e0c 60E0      		ldi r22,lo8(.LC35)
 21890 7e0e 70E0      		ldi r23,hi8(.LC35)
 21891 7e10 0E94 0000 		call strstr
 21892 7e14 0097      		sbiw r24,0
 21893 7e16 01F0      		breq .L1254
 21894               	.LM2439:
 21895 7e18 C801      		movw r24,r16
 21896 7e1a 60E0      		ldi r22,lo8(.LC36)
 21897 7e1c 70E0      		ldi r23,hi8(.LC36)
 21898 7e1e 0E94 0000 		call strtok
 21899               	.LM2440:
 21900 7e22 80E0      		ldi r24,lo8(0)
 21901 7e24 90E0      		ldi r25,hi8(0)
 21902 7e26 60E0      		ldi r22,lo8(.LC36)
 21903 7e28 70E0      		ldi r23,hi8(.LC36)
 21904 7e2a 0E94 0000 		call strtok
 21905 7e2e BC01      		movw r22,r24
 21906 7e30 80E0      		ldi r24,lo8(ssid)
 21907 7e32 90E0      		ldi r25,hi8(ssid)
 21908 7e34 0E94 0000 		call strcpy
 21909               	.LM2441:
 21910 7e38 81E0      		ldi r24,lo8(1)
 21911 7e3a 8093 0000 		sts ssidRead,r24
 21912 7e3e 00C0      		rjmp .L1285
 21913               	.L1254:
 21914               	.LM2442:
 21915 7e40 C801      		movw r24,r16
 21916 7e42 60E0      		ldi r22,lo8(.LC37)
 21917 7e44 70E0      		ldi r23,hi8(.LC37)
 21918 7e46 0E94 0000 		call strstr
 21919 7e4a 0097      		sbiw r24,0
 21920 7e4c 01F0      		breq .L1256
 21921               	.LM2443:
 21922 7e4e C801      		movw r24,r16
 21923 7e50 60E0      		ldi r22,lo8(.LC36)
 21924 7e52 70E0      		ldi r23,hi8(.LC36)
 21925 7e54 0E94 0000 		call strtok
 21926               	.LM2444:
 21927 7e58 80E0      		ldi r24,lo8(0)
 21928 7e5a 90E0      		ldi r25,hi8(0)
 21929 7e5c 60E0      		ldi r22,lo8(.LC36)
 21930 7e5e 70E0      		ldi r23,hi8(.LC36)
 21931 7e60 0E94 0000 		call strtok
 21932 7e64 BC01      		movw r22,r24
 21933 7e66 80E0      		ldi r24,lo8(phrase)
 21934 7e68 90E0      		ldi r25,hi8(phrase)
 21935 7e6a 0E94 0000 		call strcpy
 21936               	.LM2445:
 21937 7e6e 81E0      		ldi r24,lo8(1)
 21938 7e70 8093 0000 		sts phraseRead,r24
 21939 7e74 00C0      		rjmp .L1285
 21940               	.L1256:
 21941               	.LM2446:
 21942 7e76 C801      		movw r24,r16
 21943 7e78 60E0      		ldi r22,lo8(.LC38)
 21944 7e7a 70E0      		ldi r23,hi8(.LC38)
 21945 7e7c 0E94 0000 		call strstr
 21946 7e80 0097      		sbiw r24,0
 21947 7e82 01F0      		breq .L1257
 21948               	.LM2447:
 21949 7e84 C801      		movw r24,r16
 21950 7e86 60E0      		ldi r22,lo8(.LC36)
 21951 7e88 70E0      		ldi r23,hi8(.LC36)
 21952 7e8a 0E94 0000 		call strtok
 21953               	.LM2448:
 21954 7e8e 80E0      		ldi r24,lo8(0)
 21955 7e90 90E0      		ldi r25,hi8(0)
 21956 7e92 60E0      		ldi r22,lo8(.LC36)
 21957 7e94 70E0      		ldi r23,hi8(.LC36)
 21958 7e96 0E94 0000 		call strtok
 21959 7e9a BC01      		movw r22,r24
 21960 7e9c 80E0      		ldi r24,lo8(key)
 21961 7e9e 90E0      		ldi r25,hi8(key)
 21962 7ea0 0E94 0000 		call strcpy
 21963               	.LM2449:
 21964 7ea4 81E0      		ldi r24,lo8(1)
 21965 7ea6 8093 0000 		sts keyRead,r24
 21966 7eaa 00C0      		rjmp .L1285
 21967               	.L1257:
 21968               	.LM2450:
 21969 7eac C801      		movw r24,r16
 21970 7eae 60E0      		ldi r22,lo8(.LC39)
 21971 7eb0 70E0      		ldi r23,hi8(.LC39)
 21972 7eb2 0E94 0000 		call strstr
 21973 7eb6 0097      		sbiw r24,0
 21974 7eb8 01F0      		breq .L1258
 21975               	.LM2451:
 21976 7eba C801      		movw r24,r16
 21977 7ebc 60E0      		ldi r22,lo8(.LC36)
 21978 7ebe 70E0      		ldi r23,hi8(.LC36)
 21979 7ec0 0E94 0000 		call strtok
 21980               	.LM2452:
 21981 7ec4 80E0      		ldi r24,lo8(0)
 21982 7ec6 90E0      		ldi r25,hi8(0)
 21983 7ec8 60E0      		ldi r22,lo8(.LC36)
 21984 7eca 70E0      		ldi r23,hi8(.LC36)
 21985 7ecc 0E94 0000 		call strtok
 21986 7ed0 BC01      		movw r22,r24
 21987 7ed2 80E0      		ldi r24,lo8(port)
 21988 7ed4 90E0      		ldi r25,hi8(port)
 21989 7ed6 00C0      		rjmp .L1287
 21990               	.L1258:
 21991               	.LM2453:
 21992 7ed8 C801      		movw r24,r16
 21993 7eda 60E0      		ldi r22,lo8(.LC40)
 21994 7edc 70E0      		ldi r23,hi8(.LC40)
 21995 7ede 0E94 0000 		call strstr
 21996 7ee2 0097      		sbiw r24,0
 21997 7ee4 01F0      		breq .L1259
 21998               	.LM2454:
 21999 7ee6 C801      		movw r24,r16
 22000 7ee8 60E0      		ldi r22,lo8(.LC36)
 22001 7eea 70E0      		ldi r23,hi8(.LC36)
 22002 7eec 0E94 0000 		call strtok
 22003               	.LM2455:
 22004 7ef0 80E0      		ldi r24,lo8(0)
 22005 7ef2 90E0      		ldi r25,hi8(0)
 22006 7ef4 60E0      		ldi r22,lo8(.LC36)
 22007 7ef6 70E0      		ldi r23,hi8(.LC36)
 22008 7ef8 0E94 0000 		call strtok
 22009 7efc BC01      		movw r22,r24
 22010 7efe 80E0      		ldi r24,lo8(auth)
 22011 7f00 90E0      		ldi r25,hi8(auth)
 22012 7f02 0E94 0000 		call strcpy
 22013               	.LM2456:
 22014 7f06 81E0      		ldi r24,lo8(1)
 22015 7f08 8093 0000 		sts authRead,r24
 22016 7f0c 00C0      		rjmp .L1285
 22017               	.L1259:
 22018               	.LM2457:
 22019 7f0e C801      		movw r24,r16
 22020 7f10 60E0      		ldi r22,lo8(.LC41)
 22021 7f12 70E0      		ldi r23,hi8(.LC41)
 22022 7f14 0E94 0000 		call strstr
 22023 7f18 0097      		sbiw r24,0
 22024 7f1a 01F0      		breq .L1260
 22025               	.LM2458:
 22026 7f1c C801      		movw r24,r16
 22027 7f1e 60E0      		ldi r22,lo8(.LC36)
 22028 7f20 70E0      		ldi r23,hi8(.LC36)
 22029 7f22 0E94 0000 		call strtok
 22030               	.LM2459:
 22031 7f26 80E0      		ldi r24,lo8(0)
 22032 7f28 90E0      		ldi r25,hi8(0)
 22033 7f2a 60E0      		ldi r22,lo8(.LC36)
 22034 7f2c 70E0      		ldi r23,hi8(.LC36)
 22035 7f2e 0E94 0000 		call strtok
 22036 7f32 BC01      		movw r22,r24
 22037 7f34 80E0      		ldi r24,lo8(user)
 22038 7f36 90E0      		ldi r25,hi8(user)
 22039 7f38 0E94 0000 		call strcpy
 22040               	.LBB914:
 22041               	.LM2460:
 22042 7f3c F501      		movw r30,r10
 22043 7f3e 0190      		ld __tmp_reg__,Z+
 22044 7f40 0020      		tst __tmp_reg__
 22045 7f42 01F4      		brne .-6
 22046 7f44 3197      		sbiw r30,1
 22047 7f46 E050      		subi r30,lo8(user)
 22048 7f48 F040      		sbci r31,hi8(user)
 22049 7f4a 20E0      		ldi r18,lo8(0)
 22050               	.LVL1532:
 22051 7f4c 00C0      		rjmp .L1261
 22052               	.LVL1533:
 22053               	.L1263:
 22054               	.LM2461:
 22055 7f4e DC01      		movw r26,r24
 22056 7f50 A050      		subi r26,lo8(-(user))
 22057 7f52 B040      		sbci r27,hi8(-(user))
 22058 7f54 8C91      		ld r24,X
 22059               	.LVL1534:
 22060 7f56 8032      		cpi r24,lo8(32)
 22061 7f58 00F0      		brlo .L1288
 22062               	.L1262:
 22063               	.LM2462:
 22064 7f5a 2F5F      		subi r18,lo8(-(1))
 22065               	.L1261:
 22066 7f5c 822F      		mov r24,r18
 22067 7f5e 90E0      		ldi r25,lo8(0)
 22068 7f60 8E17      		cp r24,r30
 22069 7f62 9F07      		cpc r25,r31
 22070 7f64 00F0      		brlo .L1263
 22071               	.LVL1535:
 22072 7f66 00C0      		rjmp .L1285
 22073               	.LVL1536:
 22074               	.L1260:
 22075               	.LBE914:
 22076               	.LM2463:
 22077 7f68 C801      		movw r24,r16
 22078 7f6a 60E0      		ldi r22,lo8(.LC42)
 22079 7f6c 70E0      		ldi r23,hi8(.LC42)
 22080 7f6e 0E94 0000 		call strstr
 22081 7f72 0097      		sbiw r24,0
 22082 7f74 01F0      		breq .L1264
 22083               	.LM2464:
 22084 7f76 C801      		movw r24,r16
 22085 7f78 60E0      		ldi r22,lo8(.LC36)
 22086 7f7a 70E0      		ldi r23,hi8(.LC36)
 22087 7f7c 0E94 0000 		call strtok
 22088               	.LM2465:
 22089 7f80 80E0      		ldi r24,lo8(0)
 22090 7f82 90E0      		ldi r25,hi8(0)
 22091 7f84 60E0      		ldi r22,lo8(.LC36)
 22092 7f86 70E0      		ldi r23,hi8(.LC36)
 22093 7f88 0E94 0000 		call strtok
 22094 7f8c BC01      		movw r22,r24
 22095 7f8e 80E0      		ldi r24,lo8(nickname)
 22096 7f90 90E0      		ldi r25,hi8(nickname)
 22097 7f92 0E94 0000 		call strcpy
 22098               	.LBB915:
 22099               	.LM2466:
 22100 7f96 F601      		movw r30,r12
 22101 7f98 0190      		ld __tmp_reg__,Z+
 22102 7f9a 0020      		tst __tmp_reg__
 22103 7f9c 01F4      		brne .-6
 22104 7f9e 3197      		sbiw r30,1
 22105 7fa0 E050      		subi r30,lo8(nickname)
 22106 7fa2 F040      		sbci r31,hi8(nickname)
 22107 7fa4 20E0      		ldi r18,lo8(0)
 22108               	.LVL1537:
 22109 7fa6 00C0      		rjmp .L1265
 22110               	.LVL1538:
 22111               	.L1267:
 22112               	.LM2467:
 22113 7fa8 DC01      		movw r26,r24
 22114 7faa A050      		subi r26,lo8(-(nickname))
 22115 7fac B040      		sbci r27,hi8(-(nickname))
 22116 7fae 8C91      		ld r24,X
 22117               	.LVL1539:
 22118 7fb0 8032      		cpi r24,lo8(32)
 22119 7fb2 00F4      		brsh .L1266
 22120               	.LVL1540:
 22121               	.L1288:
 22122               	.LM2468:
 22123 7fb4 1C92      		st X,__zero_reg__
 22124 7fb6 00C0      		rjmp .L1285
 22125               	.LVL1541:
 22126               	.L1266:
 22127               	.LM2469:
 22128 7fb8 2F5F      		subi r18,lo8(-(1))
 22129               	.L1265:
 22130 7fba 822F      		mov r24,r18
 22131 7fbc 90E0      		ldi r25,lo8(0)
 22132 7fbe 8E17      		cp r24,r30
 22133 7fc0 9F07      		cpc r25,r31
 22134 7fc2 00F0      		brlo .L1267
 22135               	.LVL1542:
 22136 7fc4 00C0      		rjmp .L1285
 22137               	.LVL1543:
 22138               	.L1264:
 22139               	.LBE915:
 22140               	.LM2470:
 22141 7fc6 C801      		movw r24,r16
 22142 7fc8 60E0      		ldi r22,lo8(.LC43)
 22143 7fca 70E0      		ldi r23,hi8(.LC43)
 22144 7fcc 0E94 0000 		call strstr
 22145 7fd0 0097      		sbiw r24,0
 22146 7fd2 01F0      		breq .L1268
 22147               	.LM2471:
 22148 7fd4 C801      		movw r24,r16
 22149 7fd6 60E0      		ldi r22,lo8(.LC36)
 22150 7fd8 70E0      		ldi r23,hi8(.LC36)
 22151 7fda 0E94 0000 		call strtok
 22152               	.LM2472:
 22153 7fde 80E0      		ldi r24,lo8(0)
 22154 7fe0 90E0      		ldi r25,hi8(0)
 22155 7fe2 60E0      		ldi r22,lo8(.LC36)
 22156 7fe4 70E0      		ldi r23,hi8(.LC36)
 22157 7fe6 0E94 0000 		call strtok
 22158 7fea BC01      		movw r22,r24
 22159 7fec 80E0      		ldi r24,lo8(server)
 22160 7fee 90E0      		ldi r25,hi8(server)
 22161               	.L1287:
 22162 7ff0 0E94 0000 		call strcpy
 22163 7ff4 00C0      		rjmp .L1285
 22164               	.L1268:
 22165               	.LM2473:
 22166 7ff6 C801      		movw r24,r16
 22167 7ff8 60E0      		ldi r22,lo8(.LC44)
 22168 7ffa 70E0      		ldi r23,hi8(.LC44)
 22169 7ffc 0E94 0000 		call strstr
 22170 8000 0097      		sbiw r24,0
 22171 8002 01F0      		breq .L1269
 22172               	.LM2474:
 22173 8004 C801      		movw r24,r16
 22174 8006 60E0      		ldi r22,lo8(.LC36)
 22175 8008 70E0      		ldi r23,hi8(.LC36)
 22176 800a 0E94 0000 		call strtok
 22177               	.LM2475:
 22178 800e 80E0      		ldi r24,lo8(0)
 22179 8010 90E0      		ldi r25,hi8(0)
 22180 8012 60E0      		ldi r22,lo8(.LC36)
 22181 8014 70E0      		ldi r23,hi8(.LC36)
 22182 8016 0E94 0000 		call strtok
 22183 801a BC01      		movw r22,r24
 22184 801c 80E0      		ldi r24,lo8(daylightTime)
 22185 801e 90E0      		ldi r25,hi8(daylightTime)
 22186 8020 00C0      		rjmp .L1287
 22187               	.L1269:
 22188               	.LM2476:
 22189 8022 C801      		movw r24,r16
 22190 8024 60E0      		ldi r22,lo8(.LC45)
 22191 8026 70E0      		ldi r23,hi8(.LC45)
 22192 8028 0E94 0000 		call strstr
 22193 802c 0097      		sbiw r24,0
 22194 802e 01F0      		breq .L1270
 22195               	.LM2477:
 22196 8030 C801      		movw r24,r16
 22197 8032 60E0      		ldi r22,lo8(.LC36)
 22198 8034 70E0      		ldi r23,hi8(.LC36)
 22199 8036 0E94 0000 		call strtok
 22200               	.LM2478:
 22201 803a 80E0      		ldi r24,lo8(0)
 22202 803c 90E0      		ldi r25,hi8(0)
 22203 803e 60E0      		ldi r22,lo8(.LC36)
 22204 8040 70E0      		ldi r23,hi8(.LC36)
 22205 8042 0E94 0000 		call strtok
 22206 8046 BC01      		movw r22,r24
 22207 8048 80E0      		ldi r24,lo8(demoModeString)
 22208 804a 90E0      		ldi r25,hi8(demoModeString)
 22209 804c 00C0      		rjmp .L1287
 22210               	.L1270:
 22211               	.LM2479:
 22212 804e C801      		movw r24,r16
 22213 8050 60E0      		ldi r22,lo8(.LC46)
 22214 8052 70E0      		ldi r23,hi8(.LC46)
 22215 8054 0E94 0000 		call strstr
 22216 8058 0097      		sbiw r24,0
 22217 805a 01F0      		breq .L1271
 22218               	.LM2480:
 22219 805c C801      		movw r24,r16
 22220 805e 60E0      		ldi r22,lo8(.LC36)
 22221 8060 70E0      		ldi r23,hi8(.LC36)
 22222 8062 0E94 0000 		call strtok
 22223               	.LM2481:
 22224 8066 80E0      		ldi r24,lo8(0)
 22225 8068 90E0      		ldi r25,hi8(0)
 22226 806a 60E0      		ldi r22,lo8(.LC36)
 22227 806c 70E0      		ldi r23,hi8(.LC36)
 22228 806e 0E94 0000 		call strtok
 22229 8072 BC01      		movw r22,r24
 22230 8074 80E0      		ldi r24,lo8(fastString)
 22231 8076 90E0      		ldi r25,hi8(fastString)
 22232 8078 00C0      		rjmp .L1287
 22233               	.L1271:
 22234               	.LM2482:
 22235 807a C801      		movw r24,r16
 22236 807c 60E0      		ldi r22,lo8(.LC47)
 22237 807e 70E0      		ldi r23,hi8(.LC47)
 22238 8080 0E94 0000 		call strstr
 22239 8084 0097      		sbiw r24,0
 22240 8086 01F4      		brne .+2
 22241 8088 00C0      		rjmp .L1285
 22242               	.LM2483:
 22243 808a C801      		movw r24,r16
 22244 808c 60E0      		ldi r22,lo8(.LC36)
 22245 808e 70E0      		ldi r23,hi8(.LC36)
 22246 8090 0E94 0000 		call strtok
 22247               	.LM2484:
 22248 8094 80E0      		ldi r24,lo8(0)
 22249 8096 90E0      		ldi r25,hi8(0)
 22250 8098 60E0      		ldi r22,lo8(.LC36)
 22251 809a 70E0      		ldi r23,hi8(.LC36)
 22252 809c 0E94 0000 		call strtok
 22253 80a0 BC01      		movw r22,r24
 22254 80a2 80E0      		ldi r24,lo8(zone)
 22255 80a4 90E0      		ldi r25,hi8(zone)
 22256 80a6 44E0      		ldi r20,lo8(4)
 22257 80a8 50E0      		ldi r21,hi8(4)
 22258 80aa 0E94 0000 		call memmove
 22259 80ae 20E0      		ldi r18,lo8(0)
 22260               	.LVL1544:
 22261 80b0 00C0      		rjmp .L1272
 22262               	.LVL1545:
 22263               	.L1274:
 22264               	.LBB916:
 22265               	.LM2485:
 22266 80b2 FC01      		movw r30,r24
 22267 80b4 E050      		subi r30,lo8(-(zone))
 22268 80b6 F040      		sbci r31,hi8(-(zone))
 22269 80b8 8081      		ld r24,Z
 22270               	.LVL1546:
 22271 80ba 8032      		cpi r24,lo8(32)
 22272 80bc 00F4      		brsh .L1273
 22273               	.LM2486:
 22274 80be 1082      		st Z,__zero_reg__
 22275               	.L1273:
 22276               	.LM2487:
 22277 80c0 2F5F      		subi r18,lo8(-(1))
 22278               	.L1272:
 22279 80c2 F701      		movw r30,r14
 22280 80c4 0190      		ld __tmp_reg__,Z+
 22281 80c6 0020      		tst __tmp_reg__
 22282 80c8 01F4      		brne .-6
 22283 80ca 3197      		sbiw r30,1
 22284 80cc E050      		subi r30,lo8(zone)
 22285 80ce F040      		sbci r31,hi8(zone)
 22286 80d0 822F      		mov r24,r18
 22287 80d2 90E0      		ldi r25,lo8(0)
 22288 80d4 8E17      		cp r24,r30
 22289 80d6 9F07      		cpc r25,r31
 22290 80d8 00F0      		brlo .L1274
 22291               	.LVL1547:
 22292               	.LBE916:
 22293               	.LM2488:
 22294 80da 80E0      		ldi r24,lo8(zone)
 22295 80dc 90E0      		ldi r25,hi8(zone)
 22296               	.LVL1548:
 22297 80de 60E0      		ldi r22,lo8(.LC48)
 22298 80e0 70E0      		ldi r23,hi8(.LC48)
 22299 80e2 0E94 0000 		call strcmp
 22300               	.LVL1549:
 22301 80e6 0097      		sbiw r24,0
 22302 80e8 01F4      		brne .L1275
 22303               	.LM2489:
 22304 80ea 85E0      		ldi r24,lo8(5)
 22305 80ec 00C0      		rjmp .L1286
 22306               	.L1275:
 22307               	.LM2490:
 22308 80ee 80E0      		ldi r24,lo8(zone)
 22309 80f0 90E0      		ldi r25,hi8(zone)
 22310 80f2 60E0      		ldi r22,lo8(.LC49)
 22311 80f4 70E0      		ldi r23,hi8(.LC49)
 22312 80f6 0E94 0000 		call strcmp
 22313 80fa 0097      		sbiw r24,0
 22314 80fc 01F4      		brne .L1276
 22315               	.LM2491:
 22316 80fe 86E0      		ldi r24,lo8(6)
 22317 8100 00C0      		rjmp .L1286
 22318               	.L1276:
 22319               	.LM2492:
 22320 8102 80E0      		ldi r24,lo8(zone)
 22321 8104 90E0      		ldi r25,hi8(zone)
 22322 8106 60E0      		ldi r22,lo8(.LC50)
 22323 8108 70E0      		ldi r23,hi8(.LC50)
 22324 810a 0E94 0000 		call strcmp
 22325 810e 0097      		sbiw r24,0
 22326 8110 01F4      		brne .L1277
 22327               	.LM2493:
 22328 8112 87E0      		ldi r24,lo8(7)
 22329 8114 00C0      		rjmp .L1286
 22330               	.L1277:
 22331               	.LM2494:
 22332 8116 80E0      		ldi r24,lo8(zone)
 22333 8118 90E0      		ldi r25,hi8(zone)
 22334 811a 60E0      		ldi r22,lo8(.LC51)
 22335 811c 70E0      		ldi r23,hi8(.LC51)
 22336 811e 0E94 0000 		call strcmp
 22337 8122 0097      		sbiw r24,0
 22338 8124 01F0      		breq .+2
 22339 8126 00C0      		rjmp .L1285
 22340               	.LM2495:
 22341 8128 88E0      		ldi r24,lo8(8)
 22342               	.L1286:
 22343 812a 8093 0000 		sts timeZoneShift,r24
 22344               	.LM2496:
 22345 812e 81E0      		ldi r24,lo8(1)
 22346 8130 8093 0000 		sts zoneChanged,r24
 22347 8134 00C0      		rjmp .L1285
 22348               	.L1253:
 22349               	.LM2497:
 22350 8136 E0E0      		ldi r30,lo8(server)
 22351 8138 F0E0      		ldi r31,hi8(server)
 22352 813a 0190      		ld __tmp_reg__,Z+
 22353 813c 0020      		tst __tmp_reg__
 22354 813e 01F4      		brne .-6
 22355 8140 3297      		sbiw r30,2
 22356 8142 8081      		ld r24,Z
 22357 8144 8032      		cpi r24,lo8(32)
 22358 8146 00F4      		brsh .L1278
 22359               	.LM2498:
 22360 8148 1082      		st Z,__zero_reg__
 22361               	.L1278:
 22362               	.LM2499:
 22363 814a 80E0      		ldi r24,lo8(serverOpenCommand)
 22364 814c 90E0      		ldi r25,hi8(serverOpenCommand)
 22365 814e 60E0      		ldi r22,lo8(server)
 22366 8150 70E0      		ldi r23,hi8(server)
 22367 8152 0E94 0000 		call strcat
 22368               	.LM2500:
 22369 8156 80E0      		ldi r24,lo8(serverOpenCommand)
 22370 8158 90E0      		ldi r25,hi8(serverOpenCommand)
 22371 815a 60E0      		ldi r22,lo8(.LC52)
 22372 815c 70E0      		ldi r23,hi8(.LC52)
 22373 815e 0E94 0000 		call strcat
 22374               	.LM2501:
 22375 8162 80E0      		ldi r24,lo8(serverOpenCommand)
 22376 8164 90E0      		ldi r25,hi8(serverOpenCommand)
 22377 8166 60E0      		ldi r22,lo8(port)
 22378 8168 70E0      		ldi r23,hi8(port)
 22379 816a 0E94 0000 		call strcat
 22380               	.LM2502:
 22381 816e 80E0      		ldi r24,lo8(daylightTime)
 22382 8170 90E0      		ldi r25,hi8(daylightTime)
 22383 8172 60E0      		ldi r22,lo8(.LC53)
 22384 8174 70E0      		ldi r23,hi8(.LC53)
 22385 8176 0E94 0000 		call strstr
 22386 817a 0097      		sbiw r24,0
 22387 817c 01F0      		breq .L1279
 22388 817e 8091 0000 		lds r24,zoneChanged
 22389 8182 8823      		tst r24
 22390 8184 01F0      		breq .L1279
 22391               	.LM2503:
 22392 8186 8091 0000 		lds r24,timeZoneShift
 22393 818a 8150      		subi r24,lo8(-(-1))
 22394 818c 8093 0000 		sts timeZoneShift,r24
 22395               	.L1279:
 22396               	.LM2504:
 22397 8190 80E0      		ldi r24,lo8(demoModeString)
 22398 8192 90E0      		ldi r25,hi8(demoModeString)
 22399 8194 60E0      		ldi r22,lo8(.LC53)
 22400 8196 70E0      		ldi r23,hi8(.LC53)
 22401 8198 0E94 0000 		call strstr
 22402 819c 0097      		sbiw r24,0
 22403 819e 01F0      		breq .L1280
 22404               	.LM2505:
 22405 81a0 81E0      		ldi r24,lo8(1)
 22406 81a2 8093 0000 		sts demoMode,r24
 22407               	.L1280:
 22408               	.LM2506:
 22409 81a6 80E0      		ldi r24,lo8(fastString)
 22410 81a8 90E0      		ldi r25,hi8(fastString)
 22411 81aa 60E0      		ldi r22,lo8(.LC53)
 22412 81ac 70E0      		ldi r23,hi8(.LC53)
 22413 81ae 0E94 0000 		call strstr
 22414 81b2 0097      		sbiw r24,0
 22415 81b4 01F0      		breq .L1282
 22416               	.LM2507:
 22417 81b6 81E0      		ldi r24,lo8(1)
 22418 81b8 8093 0000 		sts wantToRecordFast,r24
 22419               	.L1282:
 22420               	/* epilogue start */
 22421               	.LM2508:
 22422 81bc E296      		adiw r28,50
 22423 81be CDBF      		out __SP_L__,r28
 22424 81c0 DEBF      		out __SP_H__,r29
 22425 81c2 CF91      		pop r28
 22426 81c4 DF91      		pop r29
 22427 81c6 1F91      		pop r17
 22428 81c8 0F91      		pop r16
 22429 81ca FF90      		pop r15
 22430 81cc EF90      		pop r14
 22431 81ce DF90      		pop r13
 22432 81d0 CF90      		pop r12
 22433 81d2 BF90      		pop r11
 22434 81d4 AF90      		pop r10
 22435 81d6 0895      		ret
 22436               	.LFE99:
 22438               	.global	main
 22440               	main:
 22441               	.LFB139:
 22442               	.LM2509:
 22443 81d8 FF92      		push r15
 22444 81da 0F93      		push r16
 22445 81dc 1F93      		push r17
 22446 81de DF93      		push r29
 22447 81e0 CF93      		push r28
 22448 81e2 0F92      		push __tmp_reg__
 22449 81e4 CDB7      		in r28,__SP_L__
 22450 81e6 DEB7      		in r29,__SP_H__
 22451               	/* prologue: function */
 22452               	/* frame size = 1 */
 22453               	.LM2510:
 22454 81e8 0E94 0000 		call Clock_Init
 22455               	.LBB917:
 22456               	.LBB918:
 22457               	.LBB919:
 22458               	.LBB920:
 22459               	.LM2511:
 22460 81ec 8FB7      		in r24,__SREG__
 22461 81ee 8983      		std Y+1,r24
 22462               	.LVL1550:
 22463               	.LM2512:
 22464               	/* #APP */
 22465               	 ;  80 "mainChestStrap.h" 1
 22466 81f0 F894      		cli
 22467               	 ;  0 "" 2
 22468               	.LM2513:
 22469               	/* #NOAPP */
 22470 81f2 1BBE      		out 59-0,__zero_reg__
 22471               	.LM2514:
 22472 81f4 FF24      		clr r15
 22473 81f6 F394      		inc r15
 22474 81f8 86E9      		ldi r24,lo8(150)
 22475 81fa 90E0      		ldi r25,hi8(150)
 22476               	/* #APP */
 22477               	 ;  102 "mainChestStrap.h" 1
 22478 81fc FC01      		movw r30,  r24
 22479 81fe 08ED      		ldi  r16,  216
 22480 8200 04BF      		out   52, r16
 22481 8202 F082      		st     Z,  r15
 22482               		
 22483               	 ;  0 "" 2
 22484               	.LM2515:
 22485               	/* #NOAPP */
 22486 8204 8981      		ldd r24,Y+1
 22487 8206 8FBF      		out __SREG__,r24
 22488               	.LBE920:
 22489               	.LBE919:
 22490               	.LBE918:
 22491               	.LBE917:
 22492               	.LM2516:
 22493 8208 0E94 0000 		call getDeviceID
 22494               	.LM2517:
 22495 820c 0E94 0000 		call Time_Init
 22496               	.LM2518:
 22497 8210 0E94 0000 		call Sensors_Init
 22498               	.LM2519:
 22499 8214 60E0      		ldi r22,lo8(460800)
 22500 8216 78E0      		ldi r23,hi8(460800)
 22501 8218 87E0      		ldi r24,hlo8(460800)
 22502 821a 90E0      		ldi r25,hhi8(460800)
 22503 821c 0E94 0000 		call Debug_Init
 22504               	.LBB921:
 22505               	.LBB922:
 22506               	.LM2520:
 22507 8220 00EA      		ldi r16,lo8(1696)
 22508 8222 16E0      		ldi r17,hi8(1696)
 22509 8224 80E4      		ldi r24,lo8(64)
 22510 8226 F801      		movw r30,r16
 22511 8228 8283      		std Z+2,r24
 22512               	.LM2521:
 22513 822a 8093 B000 		sts 176,r24
 22514               	.LM2522:
 22515 822e 88E3      		ldi r24,lo8(56)
 22516 8230 808B      		std Z+16,r24
 22517               	.LBE922:
 22518               	.LBE921:
 22519               	.LM2523:
 22520 8232 0E94 0000 		call Accel_Init
 22521               	.LBB923:
 22522               	.LBB924:
 22523               	.LM2524:
 22524 8236 82E0      		ldi r24,lo8(2)
 22525 8238 F801      		movw r30,r16
 22526 823a 8183      		std Z+1,r24
 22527               	.LBB925:
 22528               	.LBB926:
 22529               	.LM2525:
 22530 823c 1092 0000 		sts ledState+1,__zero_reg__
 22531               	.LBE926:
 22532               	.LBE925:
 22533               	.LBE924:
 22534               	.LBE923:
 22535               	.LBB927:
 22536               	.LBB928:
 22537               	.LM2526:
 22538 8240 F182      		std Z+1,r15
 22539               	.LBB929:
 22540               	.LBB930:
 22541               	.LM2527:
 22542 8242 1092 0000 		sts ledState,__zero_reg__
 22543               	.LBE930:
 22544               	.LBE929:
 22545               	.LBE928:
 22546               	.LBE927:
 22547               	.LM2528:
 22548 8246 0E94 0000 		call GUI_Init
 22549               	.LM2529:
 22550 824a 0E94 0000 		call SD_BackroundWriter_Init
 22551               	.LM2530:
 22552 824e 0E94 0000 		call SD_Init
 22553               	.LBB931:
 22554               	.LBB932:
 22555               	.LM2531:
 22556 8252 8091 A200 		lds r24,162
 22557 8256 8760      		ori r24,lo8(7)
 22558 8258 E0EA      		ldi r30,lo8(160)
 22559 825a F0E0      		ldi r31,hi8(160)
 22560 825c 8283      		std Z+2,r24
 22561               	.LM2532:
 22562               	/* #APP */
 22563               	 ;  163 "mainChestStrap.c" 1
 22564 825e 7894      		sei
 22565               	 ;  0 "" 2
 22566               	/* #NOAPP */
 22567               	.LBE932:
 22568               	.LBE931:
 22569               	.LM2533:
 22570 8260 0E94 0000 		call Time_CheckVBatSystem
 22571 8264 8823      		tst r24
 22572 8266 01F0      		breq .L1290
 22573               	.LBB933:
 22574               	.LBB934:
 22575               	.LM2534:
 22576 8268 8091 2104 		lds r24,1057
 22577 826c 8061      		ori r24,lo8(16)
 22578 826e E0E2      		ldi r30,lo8(1056)
 22579 8270 F4E0      		ldi r31,hi8(1056)
 22580 8272 8183      		std Z+1,r24
 22581               	.L1291:
 22582               	.LM2535:
 22583 8274 E0E2      		ldi r30,lo8(1056)
 22584 8276 F4E0      		ldi r31,hi8(1056)
 22585 8278 8091 2104 		lds r24,1057
 22586 827c 84FD      		sbrc r24,4
 22587 827e 00C0      		rjmp .L1291
 22588               	.LM2536:
 22589 8280 8091 2404 		lds r24,1060
 22590 8284 9091 2504 		lds r25,(1060)+1
 22591 8288 A091 2604 		lds r26,(1060)+2
 22592 828c B091 2704 		lds r27,(1060)+3
 22593               	.LBE934:
 22594               	.LBE933:
 22595               	.LM2537:
 22596 8290 8154      		subi r24,lo8(1000001)
 22597 8292 9244      		sbci r25,hi8(1000001)
 22598 8294 AF40      		sbci r26,hlo8(1000001)
 22599 8296 B040      		sbci r27,hhi8(1000001)
 22600 8298 00F0      		brlo .L1290
 22601               	.LM2538:
 22602 829a 81E0      		ldi r24,lo8(1)
 22603 829c 8093 0000 		sts timeIsValid,r24
 22604               	.LM2539:
 22605 82a0 8091 2204 		lds r24,1058
 22606 82a4 837F      		andi r24,lo8(-13)
 22607 82a6 8460      		ori r24,lo8(4)
 22608 82a8 8283      		std Z+2,r24
 22609               	.LBB935:
 22610               	.LBB936:
 22611               	.LM2540:
 22612 82aa 8091 2104 		lds r24,1057
 22613 82ae 8061      		ori r24,lo8(16)
 22614 82b0 8183      		std Z+1,r24
 22615               	.L1292:
 22616               	.LM2541:
 22617 82b2 8091 2104 		lds r24,1057
 22618 82b6 84FD      		sbrc r24,4
 22619 82b8 00C0      		rjmp .L1292
 22620               	.LM2542:
 22621 82ba 8091 2404 		lds r24,1060
 22622 82be 9091 2504 		lds r25,(1060)+1
 22623 82c2 A091 2604 		lds r26,(1060)+2
 22624 82c6 B091 2704 		lds r27,(1060)+3
 22625               	.LBE936:
 22626               	.LBE935:
 22627               	.LM2543:
 22628 82ca 8093 0000 		sts UNIX_Time,r24
 22629 82ce 9093 0000 		sts (UNIX_Time)+1,r25
 22630 82d2 A093 0000 		sts (UNIX_Time)+2,r26
 22631 82d6 B093 0000 		sts (UNIX_Time)+3,r27
 22632 82da 00C0      		rjmp .L1299
 22633               	.L1290:
 22634               	.LM2544:
 22635 82dc 82E0      		ldi r24,lo8(2)
 22636 82de 8093 F000 		sts 240,r24
 22637               	.LBB937:
 22638               	.LBB938:
 22639               	.LM2545:
 22640 82e2 8FB7      		in r24,__SREG__
 22641 82e4 8983      		std Y+1,r24
 22642               	.LVL1551:
 22643               	.LM2546:
 22644               	/* #APP */
 22645               	 ;  80 "mainChestStrap.h" 1
 22646 82e6 F894      		cli
 22647               	 ;  0 "" 2
 22648               	.LM2547:
 22649               	/* #NOAPP */
 22650 82e8 1BBE      		out 59-0,__zero_reg__
 22651               	.LM2548:
 22652 82ea 21E0      		ldi r18,lo8(1)
 22653 82ec 80EF      		ldi r24,lo8(240)
 22654 82ee 90E0      		ldi r25,hi8(240)
 22655               	/* #APP */
 22656               	 ;  102 "mainChestStrap.h" 1
 22657 82f0 FC01      		movw r30,  r24
 22658 82f2 08ED      		ldi  r16,  216
 22659 82f4 04BF      		out   52, r16
 22660 82f6 2083      		st     Z,  r18
 22661               		
 22662               	 ;  0 "" 2
 22663               	.LM2549:
 22664               	/* #NOAPP */
 22665 82f8 8981      		ldd r24,Y+1
 22666 82fa 8FBF      		out __SREG__,r24
 22667               	.LBE938:
 22668               	.LBE937:
 22669               	.LM2550:
 22670 82fc 1092 2004 		sts 1056,__zero_reg__
 22671               	.LM2551:
 22672 8300 E0E2      		ldi r30,lo8(1056)
 22673 8302 F4E0      		ldi r31,hi8(1056)
 22674 8304 1282      		std Z+2,__zero_reg__
 22675               	.L1299:
 22676               	.LBB939:
 22677               	.LBB940:
 22678               	.LM2552:
 22679 8306 8091 A806 		lds r24,1704
 22680 830a 84FD      		sbrc r24,4
 22681 830c 00C0      		rjmp .L1299
 22682 830e 80E1      		ldi r24,lo8(10000)
 22683 8310 97E2      		ldi r25,hi8(10000)
 22684               	.LVL1552:
 22685               	.LBE940:
 22686               	.LBE939:
 22687               	.LBB941:
 22688               	.LBB942:
 22689               	.LBB943:
 22690               	.LBB944:
 22691               	.LM2553:
 22692 8312 20E7      		ldi r18,lo8(368)
 22693 8314 31E0      		ldi r19,hi8(368)
 22694               	.L1294:
 22695 8316 F901      		movw r30,r18
 22696               	.LVL1553:
 22697               	/* #APP */
 22698               	 ;  105 "/usr/local/CrossPack-AVR-20100115/lib/gcc/avr/4.3.3/../../../../avr/include/util/delay_bas
 22699 8318 3197      		1: sbiw r30,1
 22700 831a 01F4      		brne 1b
 22701               	 ;  0 "" 2
 22702               	/* #NOAPP */
 22703               	.LBE944:
 22704               	.LBE943:
 22705               	.LM2554:
 22706 831c 0197      		sbiw r24,1
 22707               	.LM2555:
 22708 831e 01F4      		brne .L1294
 22709               	.LBE942:
 22710               	.LBE941:
 22711               	.LM2556:
 22712 8320 0E94 0000 		call SD_Read_config_file
 22713               	.LVL1554:
 22714 8324 28E8      		ldi r18,lo8(5000)
 22715 8326 33E1      		ldi r19,hi8(5000)
 22716               	.LVL1555:
 22717               	.LM2557:
 22718 8328 FF24      		clr r15
 22719 832a F394      		inc r15
 22720               	.LBB945:
 22721               	.LBB946:
 22722               	.LBB947:
 22723               	.LBB948:
 22724               	.LM2558:
 22725 832c 00E7      		ldi r16,lo8(368)
 22726 832e 11E0      		ldi r17,hi8(368)
 22727 8330 00C0      		rjmp .L1305
 22728               	.LVL1556:
 22729               	.L1296:
 22730 8332 C801      		movw r24,r16
 22731               	/* #APP */
 22732               	 ;  105 "/usr/local/CrossPack-AVR-20100115/lib/gcc/avr/4.3.3/../../../../avr/include/util/delay_bas
 22733 8334 0197      		1: sbiw r24,1
 22734 8336 01F4      		brne 1b
 22735               	 ;  0 "" 2
 22736               	/* #NOAPP */
 22737               	.LBE948:
 22738               	.LBE947:
 22739               	.LM2559:
 22740 8338 2150      		subi r18,lo8(-(-1))
 22741 833a 3040      		sbci r19,hi8(-(-1))
 22742               	.L1305:
 22743               	.LM2560:
 22744 833c 2115      		cp r18,__zero_reg__
 22745 833e 3105      		cpc r19,__zero_reg__
 22746 8340 01F4      		brne .L1296
 22747               	.LBE946:
 22748               	.LBE945:
 22749               	.LM2561:
 22750 8342 1092 0000 		sts connected,__zero_reg__
 22751               	.LM2562:
 22752 8346 0E94 0000 		call Uploader_connectToComputer
 22753               	.LVL1557:
 22754               	.LM2563:
 22755 834a F092 0000 		sts connected,r15
 22756               	.L1297:
 22757               	.LM2564:
 22758 834e 0E94 0000 		call Uploader_Update
 22759 8352 8823      		tst r24
 22760 8354 01F4      		brne .L1297
 22761 8356 28E8      		ldi r18,lo8(5000)
 22762 8358 33E1      		ldi r19,hi8(5000)
 22763               	.LVL1558:
 22764 835a 00C0      		rjmp .L1296
 22765               	.LFE139:
 22767               	.global	f_printf
 22769               	f_printf:
 22770               	.LFB86:
 22771               	.LM2565:
 22772               	.LVL1559:
 22773 835c 2F92      		push r2
 22774 835e 3F92      		push r3
 22775 8360 4F92      		push r4
 22776 8362 5F92      		push r5
 22777 8364 6F92      		push r6
 22778 8366 7F92      		push r7
 22779 8368 8F92      		push r8
 22780 836a 9F92      		push r9
 22781 836c AF92      		push r10
 22782 836e BF92      		push r11
 22783 8370 CF92      		push r12
 22784 8372 DF92      		push r13
 22785 8374 EF92      		push r14
 22786 8376 FF92      		push r15
 22787 8378 0F93      		push r16
 22788 837a 1F93      		push r17
 22789 837c DF93      		push r29
 22790 837e CF93      		push r28
 22791 8380 CDB7      		in r28,__SP_L__
 22792 8382 DEB7      		in r29,__SP_H__
 22793 8384 6397      		sbiw r28,19
 22794 8386 CDBF      		out __SP_L__,r28
 22795 8388 DEBF      		out __SP_H__,r29
 22796               	/* prologue: function */
 22797               	/* frame size = 19 */
 22798 838a 6BA4      		ldd r6,Y+43
 22799 838c 7CA4      		ldd r7,Y+44
 22800               	.LM2566:
 22801 838e 8E01      		movw r16,r28
 22802               	.LVL1560:
 22803 8390 035D      		subi r16,lo8(-(45))
 22804 8392 1F4F      		sbci r17,hi8(-(45))
 22805 8394 198A      		std Y+17,__zero_reg__
 22806 8396 1A8A      		std Y+18,__zero_reg__
 22807               	.LVL1561:
 22808 8398 20E0      		ldi r18,lo8(0)
 22809 839a 30E0      		ldi r19,hi8(0)
 22810               	.LVL1562:
 22811               	.LVL1563:
 22812               	.L1334:
 22813               	.LM2567:
 22814 839c D301      		movw r26,r6
 22815 839e 8C91      		ld r24,X
 22816               	.LVL1564:
 22817               	.LM2568:
 22818 83a0 8823      		tst r24
 22819 83a2 01F4      		brne .+2
 22820 83a4 00C0      		rjmp .L1307
 22821               	.LM2569:
 22822 83a6 0894      		sec
 22823 83a8 611C      		adc r6,__zero_reg__
 22824 83aa 711C      		adc r7,__zero_reg__
 22825               	.LM2570:
 22826 83ac 8532      		cpi r24,lo8(37)
 22827 83ae 01F0      		breq .L1308
 22828               	.LM2571:
 22829 83b0 90E0      		ldi r25,lo8(0)
 22830 83b2 69A5      		ldd r22,Y+41
 22831 83b4 7AA5      		ldd r23,Y+42
 22832 83b6 0E94 0000 		call f_putc
 22833               	.LVL1565:
 22834 83ba 9C01      		movw r18,r24
 22835               	.LVL1566:
 22836               	.LM2572:
 22837 83bc BFEF      		ldi r27,hi8(-1)
 22838 83be 8F3F      		cpi r24,lo8(-1)
 22839 83c0 9B07      		cpc r25,r27
 22840 83c2 01F4      		brne .L1309
 22841               	.LVL1567:
 22842 83c4 4801      		movw r8,r16
 22843 83c6 00C0      		rjmp .L1310
 22844               	.L1309:
 22845 83c8 4801      		movw r8,r16
 22846 83ca 00C0      		rjmp .L1337
 22847               	.LVL1568:
 22848               	.L1308:
 22849               	.LM2573:
 22850 83cc D301      		movw r26,r6
 22851 83ce ED91      		ld r30,X+
 22852               	.LVL1569:
 22853 83d0 3D01      		movw r6,r26
 22854               	.LM2574:
 22855 83d2 E033      		cpi r30,lo8(48)
 22856 83d4 01F0      		breq .L1311
 22857 83d6 1B8A      		std Y+19,__zero_reg__
 22858               	.LVL1570:
 22859 83d8 00C0      		rjmp .L1312
 22860               	.L1311:
 22861               	.LM2575:
 22862 83da ED91      		ld r30,X+
 22863 83dc 3D01      		movw r6,r26
 22864 83de B1E0      		ldi r27,lo8(1)
 22865 83e0 BB8B      		std Y+19,r27
 22866               	.LVL1571:
 22867               	.L1312:
 22868 83e2 AA24      		clr r10
 22869 83e4 BB24      		clr r11
 22870 83e6 00C0      		rjmp .L1313
 22871               	.L1314:
 22872               	.LM2576:
 22873 83e8 C501      		movw r24,r10
 22874 83ea F3E0      		ldi r31,3
 22875 83ec 880F      	1:	lsl r24
 22876 83ee 991F      		rol r25
 22877 83f0 FA95      		dec r31
 22878 83f2 01F4      		brne 1b
 22879 83f4 AA0C      		lsl r10
 22880 83f6 BB1C      		rol r11
 22881 83f8 A80E      		add r10,r24
 22882 83fa B91E      		adc r11,r25
 22883 83fc AE0E      		add r10,r30
 22884 83fe B11C      		adc r11,__zero_reg__
 22885 8400 E0ED      		ldi r30,lo8(-48)
 22886 8402 FFEF      		ldi r31,hi8(-48)
 22887               	.LVL1572:
 22888 8404 AE0E      		add r10,r30
 22889 8406 BF1E      		adc r11,r31
 22890               	.LM2577:
 22891 8408 D301      		movw r26,r6
 22892 840a ED91      		ld r30,X+
 22893               	.LVL1573:
 22894 840c 3D01      		movw r6,r26
 22895               	.L1313:
 22896               	.LM2578:
 22897 840e 8E2F      		mov r24,r30
 22898 8410 8053      		subi r24,lo8(-(-48))
 22899 8412 8A30      		cpi r24,lo8(10)
 22900 8414 00F0      		brlo .L1314
 22901               	.LM2579:
 22902 8416 EC36      		cpi r30,lo8(108)
 22903 8418 01F4      		brne .L1315
 22904               	.LM2580:
 22905 841a BB89      		ldd r27,Y+19
 22906 841c B260      		ori r27,lo8(2)
 22907 841e BB8B      		std Y+19,r27
 22908               	.LVL1574:
 22909 8420 D301      		movw r26,r6
 22910 8422 ED91      		ld r30,X+
 22911 8424 3D01      		movw r6,r26
 22912               	.L1315:
 22913               	.LM2581:
 22914 8426 E337      		cpi r30,lo8(115)
 22915 8428 01F4      		brne .L1316
 22916               	.LM2582:
 22917 842a 62E0      		ldi r22,lo8(2)
 22918 842c 862E      		mov r8,r22
 22919 842e 912C      		mov r9,__zero_reg__
 22920               	.LVL1575:
 22921 8430 800E      		add r8,r16
 22922 8432 911E      		adc r9,r17
 22923 8434 F801      		movw r30,r16
 22924               	.LVL1576:
 22925 8436 8081      		ld r24,Z
 22926 8438 9181      		ldd r25,Z+1
 22927 843a 00C0      		rjmp .L1338
 22928               	.LVL1577:
 22929               	.L1316:
 22930               	.LM2583:
 22931 843c E336      		cpi r30,lo8(99)
 22932 843e 01F4      		brne .L1317
 22933               	.LM2584:
 22934 8440 52E0      		ldi r21,lo8(2)
 22935 8442 852E      		mov r8,r21
 22936 8444 912C      		mov r9,__zero_reg__
 22937               	.LVL1578:
 22938 8446 800E      		add r8,r16
 22939 8448 911E      		adc r9,r17
 22940 844a D801      		movw r26,r16
 22941 844c 8D91      		ld r24,X+
 22942 844e 9C91      		ld r25,X
 22943 8450 69A5      		ldd r22,Y+41
 22944 8452 7AA5      		ldd r23,Y+42
 22945 8454 0E94 0000 		call f_putc
 22946               	.LVL1579:
 22947 8458 9C01      		movw r18,r24
 22948               	.LVL1580:
 22949               	.LM2585:
 22950 845a BFEF      		ldi r27,hi8(-1)
 22951 845c 8F3F      		cpi r24,lo8(-1)
 22952 845e 9B07      		cpc r25,r27
 22953 8460 01F4      		brne .+2
 22954 8462 00C0      		rjmp .L1310
 22955               	.LVL1581:
 22956               	.L1337:
 22957 8464 21E0      		ldi r18,lo8(1)
 22958 8466 30E0      		ldi r19,hi8(1)
 22959               	.LVL1582:
 22960 8468 00C0      		rjmp .L1310
 22961               	.LVL1583:
 22962               	.L1317:
 22963               	.LM2586:
 22964 846a E436      		cpi r30,lo8(100)
 22965 846c 01F0      		breq .L1318
 22966               	.LM2587:
 22967 846e E537      		cpi r30,lo8(117)
 22968 8470 01F0      		breq .L1318
 22969               	.LM2588:
 22970 8472 E835      		cpi r30,lo8(88)
 22971 8474 01F0      		breq .+2
 22972 8476 00C0      		rjmp .L1307
 22973 8478 20E1      		ldi r18,lo8(16)
 22974               	.LVL1584:
 22975 847a 00C0      		rjmp .L1319
 22976               	.LVL1585:
 22977               	.L1318:
 22978 847c 2AE0      		ldi r18,lo8(10)
 22979               	.LVL1586:
 22980               	.L1319:
 22981               	.LM2589:
 22982 847e FB89      		ldd r31,Y+19
 22983 8480 F1FF      		sbrs r31,1
 22984 8482 00C0      		rjmp .L1320
 22985               	.LM2590:
 22986 8484 44E0      		ldi r20,lo8(4)
 22987 8486 842E      		mov r8,r20
 22988 8488 912C      		mov r9,__zero_reg__
 22989               	.LVL1587:
 22990 848a 800E      		add r8,r16
 22991 848c 911E      		adc r9,r17
 22992 848e D801      		movw r26,r16
 22993 8490 ED90      		ld r14,X+
 22994 8492 FD90      		ld r15,X+
 22995 8494 0D91      		ld r16,X+
 22996 8496 1C91      		ld r17,X
 22997               	.LM2591:
 22998 8498 E436      		cpi r30,lo8(100)
 22999 849a 01F4      		brne .L1322
 23000               	.LVL1588:
 23001 849c 00C0      		rjmp .L1321
 23002               	.L1320:
 23003 849e C801      		movw r24,r16
 23004 84a0 0296      		adiw r24,2
 23005               	.LVL1589:
 23006 84a2 D801      		movw r26,r16
 23007 84a4 6D91      		ld r22,X+
 23008 84a6 7C91      		ld r23,X
 23009               	.LM2592:
 23010 84a8 E436      		cpi r30,lo8(100)
 23011 84aa 01F4      		brne .L1323
 23012               	.LVL1590:
 23013 84ac 4C01      		movw r8,r24
 23014 84ae 7B01      		movw r14,r22
 23015 84b0 0027      		clr r16
 23016 84b2 F7FC      		sbrc r15,7
 23017 84b4 0095      		com r16
 23018 84b6 102F      		mov r17,r16
 23019 84b8 00C0      		rjmp .L1321
 23020               	.LVL1591:
 23021               	.L1323:
 23022 84ba 4C01      		movw r8,r24
 23023 84bc 7B01      		movw r14,r22
 23024               	.LVL1592:
 23025 84be 00E0      		ldi r16,lo8(0)
 23026 84c0 10E0      		ldi r17,hi8(0)
 23027               	.LVL1593:
 23028 84c2 00C0      		rjmp .L1322
 23029               	.LVL1594:
 23030               	.L1321:
 23031               	.LM2593:
 23032 84c4 17FF      		sbrs r17,7
 23033 84c6 00C0      		rjmp .L1322
 23034               	.LM2594:
 23035 84c8 1095      		com r17
 23036 84ca 0095      		com r16
 23037 84cc F094      		com r15
 23038 84ce E094      		com r14
 23039 84d0 E11C      		adc r14,__zero_reg__
 23040 84d2 F11C      		adc r15,__zero_reg__
 23041 84d4 011D      		adc r16,__zero_reg__
 23042 84d6 111D      		adc r17,__zero_reg__
 23043               	.LM2595:
 23044 84d8 BB89      		ldd r27,Y+19
 23045 84da B460      		ori r27,lo8(4)
 23046 84dc BB8B      		std Y+19,r27
 23047               	.LVL1595:
 23048               	.L1322:
 23049               	.LM2596:
 23050 84de 188A      		std Y+16,__zero_reg__
 23051 84e0 3FE0      		ldi r19,lo8(15)
 23052 84e2 C32E      		mov r12,r19
 23053 84e4 D12C      		mov r13,__zero_reg__
 23054               	.LM2597:
 23055 84e6 222E      		mov r2,r18
 23056 84e8 3324      		clr r3
 23057 84ea 4424      		clr r4
 23058 84ec 5524      		clr r5
 23059               	.LVL1596:
 23060               	.L1327:
 23061 84ee C801      		movw r24,r16
 23062 84f0 B701      		movw r22,r14
 23063 84f2 A201      		movw r20,r4
 23064 84f4 9101      		movw r18,r2
 23065               	.LVL1597:
 23066 84f6 0E94 0000 		call __udivmodsi4
 23067               	.LVL1598:
 23068 84fa 862F      		mov r24,r22
 23069               	.LVL1599:
 23070 84fc 805D      		subi r24,lo8(-(48))
 23071               	.LM2598:
 23072 84fe 8A33      		cpi r24,lo8(58)
 23073 8500 00F0      		brlo .L1324
 23074 8502 895F      		subi r24,lo8(-(7))
 23075               	.L1324:
 23076               	.LM2599:
 23077 8504 0894      		sec
 23078 8506 C108      		sbc r12,__zero_reg__
 23079 8508 D108      		sbc r13,__zero_reg__
 23080 850a E1E0      		ldi r30,lo8(1)
 23081 850c F0E0      		ldi r31,hi8(1)
 23082 850e EC0F      		add r30,r28
 23083 8510 FD1F      		adc r31,r29
 23084 8512 EC0D      		add r30,r12
 23085 8514 FD1D      		adc r31,r13
 23086 8516 8083      		st Z,r24
 23087               	.LM2600:
 23088 8518 C114      		cp r12,__zero_reg__
 23089 851a D104      		cpc r13,__zero_reg__
 23090 851c 01F0      		breq .L1326
 23091               	.LM2601:
 23092 851e C801      		movw r24,r16
 23093 8520 B701      		movw r22,r14
 23094 8522 A201      		movw r20,r4
 23095 8524 9101      		movw r18,r2
 23096 8526 0E94 0000 		call __udivmodsi4
 23097 852a C901      		movw r24,r18
 23098               	.LVL1600:
 23099 852c DA01      		movw r26,r20
 23100 852e 7C01      		movw r14,r24
 23101 8530 8D01      		movw r16,r26
 23102               	.LM2602:
 23103 8532 E114      		cp r14,__zero_reg__
 23104 8534 F104      		cpc r15,__zero_reg__
 23105 8536 0105      		cpc r16,__zero_reg__
 23106 8538 1105      		cpc r17,__zero_reg__
 23107 853a 01F4      		brne .L1327
 23108               	.LM2603:
 23109 853c EB89      		ldd r30,Y+19
 23110 853e E2FF      		sbrs r30,2
 23111 8540 00C0      		rjmp .L1326
 23112 8542 0894      		sec
 23113 8544 C108      		sbc r12,__zero_reg__
 23114 8546 D108      		sbc r13,__zero_reg__
 23115 8548 E1E0      		ldi r30,lo8(1)
 23116 854a F0E0      		ldi r31,hi8(1)
 23117 854c EC0F      		add r30,r28
 23118 854e FD1F      		adc r31,r29
 23119 8550 EC0D      		add r30,r12
 23120 8552 FD1D      		adc r31,r13
 23121 8554 4DE2      		ldi r20,lo8(45)
 23122 8556 4083      		st Z,r20
 23123               	.LVL1601:
 23124               	.L1326:
 23125               	.LM2604:
 23126 8558 8FE0      		ldi r24,lo8(15)
 23127 855a 90E0      		ldi r25,hi8(15)
 23128               	.LVL1602:
 23129 855c 8A19      		sub r24,r10
 23130 855e 9B09      		sbc r25,r11
 23131 8560 0894      		sec
 23132 8562 C108      		sbc r12,__zero_reg__
 23133 8564 D108      		sbc r13,__zero_reg__
 23134 8566 E1E0      		ldi r30,lo8(1)
 23135 8568 F0E0      		ldi r31,hi8(1)
 23136 856a EC0F      		add r30,r28
 23137 856c FD1F      		adc r31,r29
 23138 856e EC0D      		add r30,r12
 23139 8570 FD1D      		adc r31,r13
 23140 8572 0894      		sec
 23141 8574 C11C      		adc r12,__zero_reg__
 23142 8576 D11C      		adc r13,__zero_reg__
 23143               	.LM2605:
 23144 8578 AB89      		ldd r26,Y+19
 23145 857a 2A2F      		mov r18,r26
 23146 857c 30E0      		ldi r19,lo8(0)
 23147 857e 2170      		andi r18,lo8(1)
 23148 8580 3070      		andi r19,hi8(1)
 23149 8582 00C0      		rjmp .L1328
 23150               	.L1332:
 23151 8584 0894      		sec
 23152 8586 C108      		sbc r12,__zero_reg__
 23153 8588 D108      		sbc r13,__zero_reg__
 23154 858a 2115      		cp r18,__zero_reg__
 23155 858c 3105      		cpc r19,__zero_reg__
 23156 858e 01F4      		brne .L1329
 23157 8590 40E2      		ldi r20,lo8(32)
 23158 8592 00C0      		rjmp .L1330
 23159               	.L1329:
 23160 8594 40E3      		ldi r20,lo8(48)
 23161               	.L1330:
 23162 8596 4083      		st Z,r20
 23163 8598 3197      		sbiw r30,1
 23164               	.L1328:
 23165 859a C114      		cp r12,__zero_reg__
 23166 859c D104      		cpc r13,__zero_reg__
 23167 859e 01F0      		breq .L1331
 23168 85a0 8C15      		cp r24,r12
 23169 85a2 9D05      		cpc r25,r13
 23170 85a4 04F0      		brlt .L1332
 23171               	.L1331:
 23172               	.LM2606:
 23173 85a6 81E0      		ldi r24,lo8(1)
 23174 85a8 90E0      		ldi r25,hi8(1)
 23175               	.LVL1603:
 23176 85aa 8C0F      		add r24,r28
 23177 85ac 9D1F      		adc r25,r29
 23178 85ae 8C0D      		add r24,r12
 23179 85b0 9D1D      		adc r25,r13
 23180               	.LVL1604:
 23181               	.L1338:
 23182 85b2 69A5      		ldd r22,Y+41
 23183 85b4 7AA5      		ldd r23,Y+42
 23184 85b6 0E94 0000 		call f_puts
 23185               	.LVL1605:
 23186 85ba 9C01      		movw r18,r24
 23187               	.LVL1606:
 23188               	.L1310:
 23189               	.LM2607:
 23190 85bc E989      		ldd r30,Y+17
 23191 85be FA89      		ldd r31,Y+18
 23192 85c0 E20F      		add r30,r18
 23193 85c2 F31F      		adc r31,r19
 23194 85c4 E98B      		std Y+17,r30
 23195 85c6 FA8B      		std Y+18,r31
 23196               	.LVL1607:
 23197 85c8 FFEF      		ldi r31,hi8(-1)
 23198 85ca 2F3F      		cpi r18,lo8(-1)
 23199 85cc 3F07      		cpc r19,r31
 23200 85ce 01F0      		breq .L1333
 23201 85d0 8401      		movw r16,r8
 23202               	.LVL1608:
 23203 85d2 00C0      		rjmp .L1334
 23204               	.LVL1609:
 23205               	.L1307:
 23206               	.LM2608:
 23207 85d4 4FEF      		ldi r20,hi8(-1)
 23208 85d6 2F3F      		cpi r18,lo8(-1)
 23209 85d8 3407      		cpc r19,r20
 23210 85da 01F0      		breq .L1333
 23211 85dc 2989      		ldd r18,Y+17
 23212 85de 3A89      		ldd r19,Y+18
 23213               	.LVL1610:
 23214               	.L1333:
 23215               	.LM2609:
 23216 85e0 C901      		movw r24,r18
 23217               	.LVL1611:
 23218               	/* epilogue start */
 23219 85e2 6396      		adiw r28,19
 23220 85e4 CDBF      		out __SP_L__,r28
 23221 85e6 DEBF      		out __SP_H__,r29
 23222 85e8 CF91      		pop r28
 23223 85ea DF91      		pop r29
 23224 85ec 1F91      		pop r17
 23225 85ee 0F91      		pop r16
 23226               	.LVL1612:
 23227 85f0 FF90      		pop r15
 23228 85f2 EF90      		pop r14
 23229               	.LVL1613:
 23230 85f4 DF90      		pop r13
 23231 85f6 CF90      		pop r12
 23232               	.LVL1614:
 23233 85f8 BF90      		pop r11
 23234 85fa AF90      		pop r10
 23235               	.LVL1615:
 23236 85fc 9F90      		pop r9
 23237 85fe 8F90      		pop r8
 23238               	.LVL1616:
 23239 8600 7F90      		pop r7
 23240 8602 6F90      		pop r6
 23241               	.LVL1617:
 23242 8604 5F90      		pop r5
 23243 8606 4F90      		pop r4
 23244 8608 3F90      		pop r3
 23245 860a 2F90      		pop r2
 23246 860c 0895      		ret
 23247               	.LFE86:
 23249               	.global	wantToRecordTemperature
 23250               		.data
 23253               	wantToRecordTemperature:
 23254 02c4 01        		.byte	1
 23255               	.global	wantToRecordHumidity
 23258               	wantToRecordHumidity:
 23259 02c5 01        		.byte	1
 23260               	.global	wantToRecordEKG
 23263               	wantToRecordEKG:
 23264 02c6 01        		.byte	1
 23265               	.global	wantToRecordRespiration
 23268               	wantToRecordRespiration:
 23269 02c7 01        		.byte	1
 23270               	.global	wantToRecordFast
 23271               	.global	wantToRecordFast
 23272               		.section .bss
 23275               	wantToRecordFast:
 23276 0000 00        		.skip 1,0
 23277               	.global	recording
 23278               	.global	recording
 23281               	recording:
 23282 0001 00        		.skip 1,0
 23283               	.global	temperatureSampleStartTime1
 23284               	.global	temperatureSampleStartTime1
 23287               	temperatureSampleStartTime1:
 23288 0002 0000 0000 		.skip 4,0
 23289               	.global	temperatureSampleStartTime2
 23290               	.global	temperatureSampleStartTime2
 23293               	temperatureSampleStartTime2:
 23294 0006 0000 0000 		.skip 4,0
 23295               	.global	respirationSampleStartTime1
 23296               	.global	respirationSampleStartTime1
 23299               	respirationSampleStartTime1:
 23300 000a 0000 0000 		.skip 4,0
 23301               	.global	respirationSampleStartTime2
 23302               	.global	respirationSampleStartTime2
 23305               	respirationSampleStartTime2:
 23306 000e 0000 0000 		.skip 4,0
 23307               	.global	EKGSampleStartTime1
 23308               	.global	EKGSampleStartTime1
 23311               	EKGSampleStartTime1:
 23312 0012 0000 0000 		.skip 4,0
 23313               	.global	EKGSampleStartTime2
 23314               	.global	EKGSampleStartTime2
 23317               	EKGSampleStartTime2:
 23318 0016 0000 0000 		.skip 4,0
 23319               	.global	humiditySampleStartTime1
 23320               	.global	humiditySampleStartTime1
 23323               	humiditySampleStartTime1:
 23324 001a 0000 0000 		.skip 4,0
 23325               	.global	humiditySampleStartTime2
 23326               	.global	humiditySampleStartTime2
 23329               	humiditySampleStartTime2:
 23330 001e 0000 0000 		.skip 4,0
 23331               	.global	accelSampleStartTime1
 23332               	.global	accelSampleStartTime1
 23335               	accelSampleStartTime1:
 23336 0022 0000 0000 		.skip 4,0
 23337               	.global	accelSampleStartTime2
 23338               	.global	accelSampleStartTime2
 23341               	accelSampleStartTime2:
 23342 0026 0000 0000 		.skip 4,0
 23343               	.global	timeRecordingStarted
 23344               	.global	timeRecordingStarted
 23347               	timeRecordingStarted:
 23348 002a 0000 0000 		.skip 4,0
 23349               	.global	demoMode
 23350               	.global	demoMode
 23353               	demoMode:
 23354 002e 00        		.skip 1,0
 23355               	.global	useWifiForUploading
 23356               	.global	useWifiForUploading
 23359               	useWifiForUploading:
 23360 002f 00        		.skip 1,0
 23361               	.global	Debug_readLocation
 23362               	.global	Debug_readLocation
 23365               	Debug_readLocation:
 23366 0030 0000      		.skip 2,0
 23367               	.global	Debug_writeLocation
 23368               	.global	Debug_writeLocation
 23371               	Debug_writeLocation:
 23372 0032 0000      		.skip 2,0
 23373               	.global	UNIX_Time
 23374               	.global	UNIX_Time
 23377               	UNIX_Time:
 23378 0034 0000 0000 		.skip 4,0
 23379               	.global	Drives
 23380               		.data
 23383               	Drives:
 23384 02c8 00        		.byte	0
 23385 02c9 00        		.byte	0
 23386 02ca 00        		.byte	0
 23387 02cb 01        		.byte	1
 23388               	.global	serverOpenCommand
 23391               	serverOpenCommand:
 23392 02cc 6F70 656E 		.string	"open "
 23392      2000 
 23393 02d2 0000 0000 		.skip 44,0
 23393      0000 0000 
 23393      0000 0000 
 23393      0000 0000 
 23393      0000 0000 
 23394               	.global	zone
 23397               	zone:
 23398 02fe 474D 5400 		.string	"GMT"
 23399 0302 0000 0000 		.skip 6,0
 23399      0000 
 23400               	.global	am
 23403               	am:
 23404 0308 414D 00   		.string	"AM"
 23405 030b 0000      		.skip 2,0
 23406               	.global	pm
 23409               	pm:
 23410 030d 504D 00   		.string	"PM"
 23411 0310 0000      		.skip 2,0
 23412               	.global	timeZoneShift
 23413               	.global	timeZoneShift
 23414               		.section .bss
 23417               	timeZoneShift:
 23418 0038 00        		.skip 1,0
 23419               	.global	authRead
 23420               	.global	authRead
 23423               	authRead:
 23424 0039 00        		.skip 1,0
 23425               	.global	phraseRead
 23426               	.global	phraseRead
 23429               	phraseRead:
 23430 003a 00        		.skip 1,0
 23431               	.global	keyRead
 23432               	.global	keyRead
 23435               	keyRead:
 23436 003b 00        		.skip 1,0
 23437               	.global	ssidRead
 23438               	.global	ssidRead
 23441               	ssidRead:
 23442 003c 00        		.skip 1,0
 23443               	.global	zoneChanged
 23444               	.global	zoneChanged
 23447               	zoneChanged:
 23448 003d 00        		.skip 1,0
 23449               	.global	crc_table
 23450               		.data
 23453               	crc_table:
 23454 0312 00        		.byte	0
 23455 0313 00        		.byte	0
 23456 0314 00        		.byte	0
 23457 0315 00        		.byte	0
 23458 0316 96        		.byte	-106
 23459 0317 30        		.byte	48
 23460 0318 07        		.byte	7
 23461 0319 77        		.byte	119
 23462 031a 2C        		.byte	44
 23463 031b 61        		.byte	97
 23464 031c 0E        		.byte	14
 23465 031d EE        		.byte	-18
 23466 031e BA        		.byte	-70
 23467 031f 51        		.byte	81
 23468 0320 09        		.byte	9
 23469 0321 99        		.byte	-103
 23470 0322 19        		.byte	25
 23471 0323 C4        		.byte	-60
 23472 0324 6D        		.byte	109
 23473 0325 07        		.byte	7
 23474 0326 8F        		.byte	-113
 23475 0327 F4        		.byte	-12
 23476 0328 6A        		.byte	106
 23477 0329 70        		.byte	112
 23478 032a 35        		.byte	53
 23479 032b A5        		.byte	-91
 23480 032c 63        		.byte	99
 23481 032d E9        		.byte	-23
 23482 032e A3        		.byte	-93
 23483 032f 95        		.byte	-107
 23484 0330 64        		.byte	100
 23485 0331 9E        		.byte	-98
 23486 0332 32        		.byte	50
 23487 0333 88        		.byte	-120
 23488 0334 DB        		.byte	-37
 23489 0335 0E        		.byte	14
 23490 0336 A4        		.byte	-92
 23491 0337 B8        		.byte	-72
 23492 0338 DC        		.byte	-36
 23493 0339 79        		.byte	121
 23494 033a 1E        		.byte	30
 23495 033b E9        		.byte	-23
 23496 033c D5        		.byte	-43
 23497 033d E0        		.byte	-32
 23498 033e 88        		.byte	-120
 23499 033f D9        		.byte	-39
 23500 0340 D2        		.byte	-46
 23501 0341 97        		.byte	-105
 23502 0342 2B        		.byte	43
 23503 0343 4C        		.byte	76
 23504 0344 B6        		.byte	-74
 23505 0345 09        		.byte	9
 23506 0346 BD        		.byte	-67
 23507 0347 7C        		.byte	124
 23508 0348 B1        		.byte	-79
 23509 0349 7E        		.byte	126
 23510 034a 07        		.byte	7
 23511 034b 2D        		.byte	45
 23512 034c B8        		.byte	-72
 23513 034d E7        		.byte	-25
 23514 034e 91        		.byte	-111
 23515 034f 1D        		.byte	29
 23516 0350 BF        		.byte	-65
 23517 0351 90        		.byte	-112
 23518 0352 64        		.byte	100
 23519 0353 10        		.byte	16
 23520 0354 B7        		.byte	-73
 23521 0355 1D        		.byte	29
 23522 0356 F2        		.byte	-14
 23523 0357 20        		.byte	32
 23524 0358 B0        		.byte	-80
 23525 0359 6A        		.byte	106
 23526 035a 48        		.byte	72
 23527 035b 71        		.byte	113
 23528 035c B9        		.byte	-71
 23529 035d F3        		.byte	-13
 23530 035e DE        		.byte	-34
 23531 035f 41        		.byte	65
 23532 0360 BE        		.byte	-66
 23533 0361 84        		.byte	-124
 23534 0362 7D        		.byte	125
 23535 0363 D4        		.byte	-44
 23536 0364 DA        		.byte	-38
 23537 0365 1A        		.byte	26
 23538 0366 EB        		.byte	-21
 23539 0367 E4        		.byte	-28
 23540 0368 DD        		.byte	-35
 23541 0369 6D        		.byte	109
 23542 036a 51        		.byte	81
 23543 036b B5        		.byte	-75
 23544 036c D4        		.byte	-44
 23545 036d F4        		.byte	-12
 23546 036e C7        		.byte	-57
 23547 036f 85        		.byte	-123
 23548 0370 D3        		.byte	-45
 23549 0371 83        		.byte	-125
 23550 0372 56        		.byte	86
 23551 0373 98        		.byte	-104
 23552 0374 6C        		.byte	108
 23553 0375 13        		.byte	19
 23554 0376 C0        		.byte	-64
 23555 0377 A8        		.byte	-88
 23556 0378 6B        		.byte	107
 23557 0379 64        		.byte	100
 23558 037a 7A        		.byte	122
 23559 037b F9        		.byte	-7
 23560 037c 62        		.byte	98
 23561 037d FD        		.byte	-3
 23562 037e EC        		.byte	-20
 23563 037f C9        		.byte	-55
 23564 0380 65        		.byte	101
 23565 0381 8A        		.byte	-118
 23566 0382 4F        		.byte	79
 23567 0383 5C        		.byte	92
 23568 0384 01        		.byte	1
 23569 0385 14        		.byte	20
 23570 0386 D9        		.byte	-39
 23571 0387 6C        		.byte	108
 23572 0388 06        		.byte	6
 23573 0389 63        		.byte	99
 23574 038a 63        		.byte	99
 23575 038b 3D        		.byte	61
 23576 038c 0F        		.byte	15
 23577 038d FA        		.byte	-6
 23578 038e F5        		.byte	-11
 23579 038f 0D        		.byte	13
 23580 0390 08        		.byte	8
 23581 0391 8D        		.byte	-115
 23582 0392 C8        		.byte	-56
 23583 0393 20        		.byte	32
 23584 0394 6E        		.byte	110
 23585 0395 3B        		.byte	59
 23586 0396 5E        		.byte	94
 23587 0397 10        		.byte	16
 23588 0398 69        		.byte	105
 23589 0399 4C        		.byte	76
 23590 039a E4        		.byte	-28
 23591 039b 41        		.byte	65
 23592 039c 60        		.byte	96
 23593 039d D5        		.byte	-43
 23594 039e 72        		.byte	114
 23595 039f 71        		.byte	113
 23596 03a0 67        		.byte	103
 23597 03a1 A2        		.byte	-94
 23598 03a2 D1        		.byte	-47
 23599 03a3 E4        		.byte	-28
 23600 03a4 03        		.byte	3
 23601 03a5 3C        		.byte	60
 23602 03a6 47        		.byte	71
 23603 03a7 D4        		.byte	-44
 23604 03a8 04        		.byte	4
 23605 03a9 4B        		.byte	75
 23606 03aa FD        		.byte	-3
 23607 03ab 85        		.byte	-123
 23608 03ac 0D        		.byte	13
 23609 03ad D2        		.byte	-46
 23610 03ae 6B        		.byte	107
 23611 03af B5        		.byte	-75
 23612 03b0 0A        		.byte	10
 23613 03b1 A5        		.byte	-91
 23614 03b2 FA        		.byte	-6
 23615 03b3 A8        		.byte	-88
 23616 03b4 B5        		.byte	-75
 23617 03b5 35        		.byte	53
 23618 03b6 6C        		.byte	108
 23619 03b7 98        		.byte	-104
 23620 03b8 B2        		.byte	-78
 23621 03b9 42        		.byte	66
 23622 03ba D6        		.byte	-42
 23623 03bb C9        		.byte	-55
 23624 03bc BB        		.byte	-69
 23625 03bd DB        		.byte	-37
 23626 03be 40        		.byte	64
 23627 03bf F9        		.byte	-7
 23628 03c0 BC        		.byte	-68
 23629 03c1 AC        		.byte	-84
 23630 03c2 E3        		.byte	-29
 23631 03c3 6C        		.byte	108
 23632 03c4 D8        		.byte	-40
 23633 03c5 32        		.byte	50
 23634 03c6 75        		.byte	117
 23635 03c7 5C        		.byte	92
 23636 03c8 DF        		.byte	-33
 23637 03c9 45        		.byte	69
 23638 03ca CF        		.byte	-49
 23639 03cb 0D        		.byte	13
 23640 03cc D6        		.byte	-42
 23641 03cd DC        		.byte	-36
 23642 03ce 59        		.byte	89
 23643 03cf 3D        		.byte	61
 23644 03d0 D1        		.byte	-47
 23645 03d1 AB        		.byte	-85
 23646 03d2 AC        		.byte	-84
 23647 03d3 30        		.byte	48
 23648 03d4 D9        		.byte	-39
 23649 03d5 26        		.byte	38
 23650 03d6 3A        		.byte	58
 23651 03d7 00        		.byte	0
 23652 03d8 DE        		.byte	-34
 23653 03d9 51        		.byte	81
 23654 03da 80        		.byte	-128
 23655 03db 51        		.byte	81
 23656 03dc D7        		.byte	-41
 23657 03dd C8        		.byte	-56
 23658 03de 16        		.byte	22
 23659 03df 61        		.byte	97
 23660 03e0 D0        		.byte	-48
 23661 03e1 BF        		.byte	-65
 23662 03e2 B5        		.byte	-75
 23663 03e3 F4        		.byte	-12
 23664 03e4 B4        		.byte	-76
 23665 03e5 21        		.byte	33
 23666 03e6 23        		.byte	35
 23667 03e7 C4        		.byte	-60
 23668 03e8 B3        		.byte	-77
 23669 03e9 56        		.byte	86
 23670 03ea 99        		.byte	-103
 23671 03eb 95        		.byte	-107
 23672 03ec BA        		.byte	-70
 23673 03ed CF        		.byte	-49
 23674 03ee 0F        		.byte	15
 23675 03ef A5        		.byte	-91
 23676 03f0 BD        		.byte	-67
 23677 03f1 B8        		.byte	-72
 23678 03f2 9E        		.byte	-98
 23679 03f3 B8        		.byte	-72
 23680 03f4 02        		.byte	2
 23681 03f5 28        		.byte	40
 23682 03f6 08        		.byte	8
 23683 03f7 88        		.byte	-120
 23684 03f8 05        		.byte	5
 23685 03f9 5F        		.byte	95
 23686 03fa B2        		.byte	-78
 23687 03fb D9        		.byte	-39
 23688 03fc 0C        		.byte	12
 23689 03fd C6        		.byte	-58
 23690 03fe 24        		.byte	36
 23691 03ff E9        		.byte	-23
 23692 0400 0B        		.byte	11
 23693 0401 B1        		.byte	-79
 23694 0402 87        		.byte	-121
 23695 0403 7C        		.byte	124
 23696 0404 6F        		.byte	111
 23697 0405 2F        		.byte	47
 23698 0406 11        		.byte	17
 23699 0407 4C        		.byte	76
 23700 0408 68        		.byte	104
 23701 0409 58        		.byte	88
 23702 040a AB        		.byte	-85
 23703 040b 1D        		.byte	29
 23704 040c 61        		.byte	97
 23705 040d C1        		.byte	-63
 23706 040e 3D        		.byte	61
 23707 040f 2D        		.byte	45
 23708 0410 66        		.byte	102
 23709 0411 B6        		.byte	-74
 23710 0412 90        		.byte	-112
 23711 0413 41        		.byte	65
 23712 0414 DC        		.byte	-36
 23713 0415 76        		.byte	118
 23714 0416 06        		.byte	6
 23715 0417 71        		.byte	113
 23716 0418 DB        		.byte	-37
 23717 0419 01        		.byte	1
 23718 041a BC        		.byte	-68
 23719 041b 20        		.byte	32
 23720 041c D2        		.byte	-46
 23721 041d 98        		.byte	-104
 23722 041e 2A        		.byte	42
 23723 041f 10        		.byte	16
 23724 0420 D5        		.byte	-43
 23725 0421 EF        		.byte	-17
 23726 0422 89        		.byte	-119
 23727 0423 85        		.byte	-123
 23728 0424 B1        		.byte	-79
 23729 0425 71        		.byte	113
 23730 0426 1F        		.byte	31
 23731 0427 B5        		.byte	-75
 23732 0428 B6        		.byte	-74
 23733 0429 06        		.byte	6
 23734 042a A5        		.byte	-91
 23735 042b E4        		.byte	-28
 23736 042c BF        		.byte	-65
 23737 042d 9F        		.byte	-97
 23738 042e 33        		.byte	51
 23739 042f D4        		.byte	-44
 23740 0430 B8        		.byte	-72
 23741 0431 E8        		.byte	-24
 23742 0432 A2        		.byte	-94
 23743 0433 C9        		.byte	-55
 23744 0434 07        		.byte	7
 23745 0435 78        		.byte	120
 23746 0436 34        		.byte	52
 23747 0437 F9        		.byte	-7
 23748 0438 00        		.byte	0
 23749 0439 0F        		.byte	15
 23750 043a 8E        		.byte	-114
 23751 043b A8        		.byte	-88
 23752 043c 09        		.byte	9
 23753 043d 96        		.byte	-106
 23754 043e 18        		.byte	24
 23755 043f 98        		.byte	-104
 23756 0440 0E        		.byte	14
 23757 0441 E1        		.byte	-31
 23758 0442 BB        		.byte	-69
 23759 0443 0D        		.byte	13
 23760 0444 6A        		.byte	106
 23761 0445 7F        		.byte	127
 23762 0446 2D        		.byte	45
 23763 0447 3D        		.byte	61
 23764 0448 6D        		.byte	109
 23765 0449 08        		.byte	8
 23766 044a 97        		.byte	-105
 23767 044b 6C        		.byte	108
 23768 044c 64        		.byte	100
 23769 044d 91        		.byte	-111
 23770 044e 01        		.byte	1
 23771 044f 5C        		.byte	92
 23772 0450 63        		.byte	99
 23773 0451 E6        		.byte	-26
 23774 0452 F4        		.byte	-12
 23775 0453 51        		.byte	81
 23776 0454 6B        		.byte	107
 23777 0455 6B        		.byte	107
 23778 0456 62        		.byte	98
 23779 0457 61        		.byte	97
 23780 0458 6C        		.byte	108
 23781 0459 1C        		.byte	28
 23782 045a D8        		.byte	-40
 23783 045b 30        		.byte	48
 23784 045c 65        		.byte	101
 23785 045d 85        		.byte	-123
 23786 045e 4E        		.byte	78
 23787 045f 00        		.byte	0
 23788 0460 62        		.byte	98
 23789 0461 F2        		.byte	-14
 23790 0462 ED        		.byte	-19
 23791 0463 95        		.byte	-107
 23792 0464 06        		.byte	6
 23793 0465 6C        		.byte	108
 23794 0466 7B        		.byte	123
 23795 0467 A5        		.byte	-91
 23796 0468 01        		.byte	1
 23797 0469 1B        		.byte	27
 23798 046a C1        		.byte	-63
 23799 046b F4        		.byte	-12
 23800 046c 08        		.byte	8
 23801 046d 82        		.byte	-126
 23802 046e 57        		.byte	87
 23803 046f C4        		.byte	-60
 23804 0470 0F        		.byte	15
 23805 0471 F5        		.byte	-11
 23806 0472 C6        		.byte	-58
 23807 0473 D9        		.byte	-39
 23808 0474 B0        		.byte	-80
 23809 0475 65        		.byte	101
 23810 0476 50        		.byte	80
 23811 0477 E9        		.byte	-23
 23812 0478 B7        		.byte	-73
 23813 0479 12        		.byte	18
 23814 047a EA        		.byte	-22
 23815 047b B8        		.byte	-72
 23816 047c BE        		.byte	-66
 23817 047d 8B        		.byte	-117
 23818 047e 7C        		.byte	124
 23819 047f 88        		.byte	-120
 23820 0480 B9        		.byte	-71
 23821 0481 FC        		.byte	-4
 23822 0482 DF        		.byte	-33
 23823 0483 1D        		.byte	29
 23824 0484 DD        		.byte	-35
 23825 0485 62        		.byte	98
 23826 0486 49        		.byte	73
 23827 0487 2D        		.byte	45
 23828 0488 DA        		.byte	-38
 23829 0489 15        		.byte	21
 23830 048a F3        		.byte	-13
 23831 048b 7C        		.byte	124
 23832 048c D3        		.byte	-45
 23833 048d 8C        		.byte	-116
 23834 048e 65        		.byte	101
 23835 048f 4C        		.byte	76
 23836 0490 D4        		.byte	-44
 23837 0491 FB        		.byte	-5
 23838 0492 58        		.byte	88
 23839 0493 61        		.byte	97
 23840 0494 B2        		.byte	-78
 23841 0495 4D        		.byte	77
 23842 0496 CE        		.byte	-50
 23843 0497 51        		.byte	81
 23844 0498 B5        		.byte	-75
 23845 0499 3A        		.byte	58
 23846 049a 74        		.byte	116
 23847 049b 00        		.byte	0
 23848 049c BC        		.byte	-68
 23849 049d A3        		.byte	-93
 23850 049e E2        		.byte	-30
 23851 049f 30        		.byte	48
 23852 04a0 BB        		.byte	-69
 23853 04a1 D4        		.byte	-44
 23854 04a2 41        		.byte	65
 23855 04a3 A5        		.byte	-91
 23856 04a4 DF        		.byte	-33
 23857 04a5 4A        		.byte	74
 23858 04a6 D7        		.byte	-41
 23859 04a7 95        		.byte	-107
 23860 04a8 D8        		.byte	-40
 23861 04a9 3D        		.byte	61
 23862 04aa 6D        		.byte	109
 23863 04ab C4        		.byte	-60
 23864 04ac D1        		.byte	-47
 23865 04ad A4        		.byte	-92
 23866 04ae FB        		.byte	-5
 23867 04af F4        		.byte	-12
 23868 04b0 D6        		.byte	-42
 23869 04b1 D3        		.byte	-45
 23870 04b2 6A        		.byte	106
 23871 04b3 E9        		.byte	-23
 23872 04b4 69        		.byte	105
 23873 04b5 43        		.byte	67
 23874 04b6 FC        		.byte	-4
 23875 04b7 D9        		.byte	-39
 23876 04b8 6E        		.byte	110
 23877 04b9 34        		.byte	52
 23878 04ba 46        		.byte	70
 23879 04bb 88        		.byte	-120
 23880 04bc 67        		.byte	103
 23881 04bd AD        		.byte	-83
 23882 04be D0        		.byte	-48
 23883 04bf B8        		.byte	-72
 23884 04c0 60        		.byte	96
 23885 04c1 DA        		.byte	-38
 23886 04c2 73        		.byte	115
 23887 04c3 2D        		.byte	45
 23888 04c4 04        		.byte	4
 23889 04c5 44        		.byte	68
 23890 04c6 E5        		.byte	-27
 23891 04c7 1D        		.byte	29
 23892 04c8 03        		.byte	3
 23893 04c9 33        		.byte	51
 23894 04ca 5F        		.byte	95
 23895 04cb 4C        		.byte	76
 23896 04cc 0A        		.byte	10
 23897 04cd AA        		.byte	-86
 23898 04ce C9        		.byte	-55
 23899 04cf 7C        		.byte	124
 23900 04d0 0D        		.byte	13
 23901 04d1 DD        		.byte	-35
 23902 04d2 3C        		.byte	60
 23903 04d3 71        		.byte	113
 23904 04d4 05        		.byte	5
 23905 04d5 50        		.byte	80
 23906 04d6 AA        		.byte	-86
 23907 04d7 41        		.byte	65
 23908 04d8 02        		.byte	2
 23909 04d9 27        		.byte	39
 23910 04da 10        		.byte	16
 23911 04db 10        		.byte	16
 23912 04dc 0B        		.byte	11
 23913 04dd BE        		.byte	-66
 23914 04de 86        		.byte	-122
 23915 04df 20        		.byte	32
 23916 04e0 0C        		.byte	12
 23917 04e1 C9        		.byte	-55
 23918 04e2 25        		.byte	37
 23919 04e3 B5        		.byte	-75
 23920 04e4 68        		.byte	104
 23921 04e5 57        		.byte	87
 23922 04e6 B3        		.byte	-77
 23923 04e7 85        		.byte	-123
 23924 04e8 6F        		.byte	111
 23925 04e9 20        		.byte	32
 23926 04ea 09        		.byte	9
 23927 04eb D4        		.byte	-44
 23928 04ec 66        		.byte	102
 23929 04ed B9        		.byte	-71
 23930 04ee 9F        		.byte	-97
 23931 04ef E4        		.byte	-28
 23932 04f0 61        		.byte	97
 23933 04f1 CE        		.byte	-50
 23934 04f2 0E        		.byte	14
 23935 04f3 F9        		.byte	-7
 23936 04f4 DE        		.byte	-34
 23937 04f5 5E        		.byte	94
 23938 04f6 98        		.byte	-104
 23939 04f7 C9        		.byte	-55
 23940 04f8 D9        		.byte	-39
 23941 04f9 29        		.byte	41
 23942 04fa 22        		.byte	34
 23943 04fb 98        		.byte	-104
 23944 04fc D0        		.byte	-48
 23945 04fd B0        		.byte	-80
 23946 04fe B4        		.byte	-76
 23947 04ff A8        		.byte	-88
 23948 0500 D7        		.byte	-41
 23949 0501 C7        		.byte	-57
 23950 0502 17        		.byte	23
 23951 0503 3D        		.byte	61
 23952 0504 B3        		.byte	-77
 23953 0505 59        		.byte	89
 23954 0506 81        		.byte	-127
 23955 0507 0D        		.byte	13
 23956 0508 B4        		.byte	-76
 23957 0509 2E        		.byte	46
 23958 050a 3B        		.byte	59
 23959 050b 5C        		.byte	92
 23960 050c BD        		.byte	-67
 23961 050d B7        		.byte	-73
 23962 050e AD        		.byte	-83
 23963 050f 6C        		.byte	108
 23964 0510 BA        		.byte	-70
 23965 0511 C0        		.byte	-64
 23966 0512 20        		.byte	32
 23967 0513 83        		.byte	-125
 23968 0514 B8        		.byte	-72
 23969 0515 ED        		.byte	-19
 23970 0516 B6        		.byte	-74
 23971 0517 B3        		.byte	-77
 23972 0518 BF        		.byte	-65
 23973 0519 9A        		.byte	-102
 23974 051a 0C        		.byte	12
 23975 051b E2        		.byte	-30
 23976 051c B6        		.byte	-74
 23977 051d 03        		.byte	3
 23978 051e 9A        		.byte	-102
 23979 051f D2        		.byte	-46
 23980 0520 B1        		.byte	-79
 23981 0521 74        		.byte	116
 23982 0522 39        		.byte	57
 23983 0523 47        		.byte	71
 23984 0524 D5        		.byte	-43
 23985 0525 EA        		.byte	-22
 23986 0526 AF        		.byte	-81
 23987 0527 77        		.byte	119
 23988 0528 D2        		.byte	-46
 23989 0529 9D        		.byte	-99
 23990 052a 15        		.byte	21
 23991 052b 26        		.byte	38
 23992 052c DB        		.byte	-37
 23993 052d 04        		.byte	4
 23994 052e 83        		.byte	-125
 23995 052f 16        		.byte	22
 23996 0530 DC        		.byte	-36
 23997 0531 73        		.byte	115
 23998 0532 12        		.byte	18
 23999 0533 0B        		.byte	11
 24000 0534 63        		.byte	99
 24001 0535 E3        		.byte	-29
 24002 0536 84        		.byte	-124
 24003 0537 3B        		.byte	59
 24004 0538 64        		.byte	100
 24005 0539 94        		.byte	-108
 24006 053a 3E        		.byte	62
 24007 053b 6A        		.byte	106
 24008 053c 6D        		.byte	109
 24009 053d 0D        		.byte	13
 24010 053e A8        		.byte	-88
 24011 053f 5A        		.byte	90
 24012 0540 6A        		.byte	106
 24013 0541 7A        		.byte	122
 24014 0542 0B        		.byte	11
 24015 0543 CF        		.byte	-49
 24016 0544 0E        		.byte	14
 24017 0545 E4        		.byte	-28
 24018 0546 9D        		.byte	-99
 24019 0547 FF        		.byte	-1
 24020 0548 09        		.byte	9
 24021 0549 93        		.byte	-109
 24022 054a 27        		.byte	39
 24023 054b AE        		.byte	-82
 24024 054c 00        		.byte	0
 24025 054d 0A        		.byte	10
 24026 054e B1        		.byte	-79
 24027 054f 9E        		.byte	-98
 24028 0550 07        		.byte	7
 24029 0551 7D        		.byte	125
 24030 0552 44        		.byte	68
 24031 0553 93        		.byte	-109
 24032 0554 0F        		.byte	15
 24033 0555 F0        		.byte	-16
 24034 0556 D2        		.byte	-46
 24035 0557 A3        		.byte	-93
 24036 0558 08        		.byte	8
 24037 0559 87        		.byte	-121
 24038 055a 68        		.byte	104
 24039 055b F2        		.byte	-14
 24040 055c 01        		.byte	1
 24041 055d 1E        		.byte	30
 24042 055e FE        		.byte	-2
 24043 055f C2        		.byte	-62
 24044 0560 06        		.byte	6
 24045 0561 69        		.byte	105
 24046 0562 5D        		.byte	93
 24047 0563 57        		.byte	87
 24048 0564 62        		.byte	98
 24049 0565 F7        		.byte	-9
 24050 0566 CB        		.byte	-53
 24051 0567 67        		.byte	103
 24052 0568 65        		.byte	101
 24053 0569 80        		.byte	-128
 24054 056a 71        		.byte	113
 24055 056b 36        		.byte	54
 24056 056c 6C        		.byte	108
 24057 056d 19        		.byte	25
 24058 056e E7        		.byte	-25
 24059 056f 06        		.byte	6
 24060 0570 6B        		.byte	107
 24061 0571 6E        		.byte	110
 24062 0572 76        		.byte	118
 24063 0573 1B        		.byte	27
 24064 0574 D4        		.byte	-44
 24065 0575 FE        		.byte	-2
 24066 0576 E0        		.byte	-32
 24067 0577 2B        		.byte	43
 24068 0578 D3        		.byte	-45
 24069 0579 89        		.byte	-119
 24070 057a 5A        		.byte	90
 24071 057b 7A        		.byte	122
 24072 057c DA        		.byte	-38
 24073 057d 10        		.byte	16
 24074 057e CC        		.byte	-52
 24075 057f 4A        		.byte	74
 24076 0580 DD        		.byte	-35
 24077 0581 67        		.byte	103
 24078 0582 6F        		.byte	111
 24079 0583 DF        		.byte	-33
 24080 0584 B9        		.byte	-71
 24081 0585 F9        		.byte	-7
 24082 0586 F9        		.byte	-7
 24083 0587 EF        		.byte	-17
 24084 0588 BE        		.byte	-66
 24085 0589 8E        		.byte	-114
 24086 058a 43        		.byte	67
 24087 058b BE        		.byte	-66
 24088 058c B7        		.byte	-73
 24089 058d 17        		.byte	23
 24090 058e D5        		.byte	-43
 24091 058f 8E        		.byte	-114
 24092 0590 B0        		.byte	-80
 24093 0591 60        		.byte	96
 24094 0592 E8        		.byte	-24
 24095 0593 A3        		.byte	-93
 24096 0594 D6        		.byte	-42
 24097 0595 D6        		.byte	-42
 24098 0596 7E        		.byte	126
 24099 0597 93        		.byte	-109
 24100 0598 D1        		.byte	-47
 24101 0599 A1        		.byte	-95
 24102 059a C4        		.byte	-60
 24103 059b C2        		.byte	-62
 24104 059c D8        		.byte	-40
 24105 059d 38        		.byte	56
 24106 059e 52        		.byte	82
 24107 059f F2        		.byte	-14
 24108 05a0 DF        		.byte	-33
 24109 05a1 4F        		.byte	79
 24110 05a2 F1        		.byte	-15
 24111 05a3 67        		.byte	103
 24112 05a4 BB        		.byte	-69
 24113 05a5 D1        		.byte	-47
 24114 05a6 67        		.byte	103
 24115 05a7 57        		.byte	87
 24116 05a8 BC        		.byte	-68
 24117 05a9 A6        		.byte	-90
 24118 05aa DD        		.byte	-35
 24119 05ab 06        		.byte	6
 24120 05ac B5        		.byte	-75
 24121 05ad 3F        		.byte	63
 24122 05ae 4B        		.byte	75
 24123 05af 36        		.byte	54
 24124 05b0 B2        		.byte	-78
 24125 05b1 48        		.byte	72
 24126 05b2 DA        		.byte	-38
 24127 05b3 2B        		.byte	43
 24128 05b4 0D        		.byte	13
 24129 05b5 D8        		.byte	-40
 24130 05b6 4C        		.byte	76
 24131 05b7 1B        		.byte	27
 24132 05b8 0A        		.byte	10
 24133 05b9 AF        		.byte	-81
 24134 05ba F6        		.byte	-10
 24135 05bb 4A        		.byte	74
 24136 05bc 03        		.byte	3
 24137 05bd 36        		.byte	54
 24138 05be 60        		.byte	96
 24139 05bf 7A        		.byte	122
 24140 05c0 04        		.byte	4
 24141 05c1 41        		.byte	65
 24142 05c2 C3        		.byte	-61
 24143 05c3 EF        		.byte	-17
 24144 05c4 60        		.byte	96
 24145 05c5 DF        		.byte	-33
 24146 05c6 55        		.byte	85
 24147 05c7 DF        		.byte	-33
 24148 05c8 67        		.byte	103
 24149 05c9 A8        		.byte	-88
 24150 05ca EF        		.byte	-17
 24151 05cb 8E        		.byte	-114
 24152 05cc 6E        		.byte	110
 24153 05cd 31        		.byte	49
 24154 05ce 79        		.byte	121
 24155 05cf BE        		.byte	-66
 24156 05d0 69        		.byte	105
 24157 05d1 46        		.byte	70
 24158 05d2 8C        		.byte	-116
 24159 05d3 B3        		.byte	-77
 24160 05d4 61        		.byte	97
 24161 05d5 CB        		.byte	-53
 24162 05d6 1A        		.byte	26
 24163 05d7 83        		.byte	-125
 24164 05d8 66        		.byte	102
 24165 05d9 BC        		.byte	-68
 24166 05da A0        		.byte	-96
 24167 05db D2        		.byte	-46
 24168 05dc 6F        		.byte	111
 24169 05dd 25        		.byte	37
 24170 05de 36        		.byte	54
 24171 05df E2        		.byte	-30
 24172 05e0 68        		.byte	104
 24173 05e1 52        		.byte	82
 24174 05e2 95        		.byte	-107
 24175 05e3 77        		.byte	119
 24176 05e4 0C        		.byte	12
 24177 05e5 CC        		.byte	-52
 24178 05e6 03        		.byte	3
 24179 05e7 47        		.byte	71
 24180 05e8 0B        		.byte	11
 24181 05e9 BB        		.byte	-69
 24182 05ea B9        		.byte	-71
 24183 05eb 16        		.byte	22
 24184 05ec 02        		.byte	2
 24185 05ed 22        		.byte	34
 24186 05ee 2F        		.byte	47
 24187 05ef 26        		.byte	38
 24188 05f0 05        		.byte	5
 24189 05f1 55        		.byte	85
 24190 05f2 BE        		.byte	-66
 24191 05f3 3B        		.byte	59
 24192 05f4 BA        		.byte	-70
 24193 05f5 C5        		.byte	-59
 24194 05f6 28        		.byte	40
 24195 05f7 0B        		.byte	11
 24196 05f8 BD        		.byte	-67
 24197 05f9 B2        		.byte	-78
 24198 05fa 92        		.byte	-110
 24199 05fb 5A        		.byte	90
 24200 05fc B4        		.byte	-76
 24201 05fd 2B        		.byte	43
 24202 05fe 04        		.byte	4
 24203 05ff 6A        		.byte	106
 24204 0600 B3        		.byte	-77
 24205 0601 5C        		.byte	92
 24206 0602 A7        		.byte	-89
 24207 0603 FF        		.byte	-1
 24208 0604 D7        		.byte	-41
 24209 0605 C2        		.byte	-62
 24210 0606 31        		.byte	49
 24211 0607 CF        		.byte	-49
 24212 0608 D0        		.byte	-48
 24213 0609 B5        		.byte	-75
 24214 060a 8B        		.byte	-117
 24215 060b 9E        		.byte	-98
 24216 060c D9        		.byte	-39
 24217 060d 2C        		.byte	44
 24218 060e 1D        		.byte	29
 24219 060f AE        		.byte	-82
 24220 0610 DE        		.byte	-34
 24221 0611 5B        		.byte	91
 24222 0612 B0        		.byte	-80
 24223 0613 C2        		.byte	-62
 24224 0614 64        		.byte	100
 24225 0615 9B        		.byte	-101
 24226 0616 26        		.byte	38
 24227 0617 F2        		.byte	-14
 24228 0618 63        		.byte	99
 24229 0619 EC        		.byte	-20
 24230 061a 9C        		.byte	-100
 24231 061b A3        		.byte	-93
 24232 061c 6A        		.byte	106
 24233 061d 75        		.byte	117
 24234 061e 0A        		.byte	10
 24235 061f 93        		.byte	-109
 24236 0620 6D        		.byte	109
 24237 0621 02        		.byte	2
 24238 0622 A9        		.byte	-87
 24239 0623 06        		.byte	6
 24240 0624 09        		.byte	9
 24241 0625 9C        		.byte	-100
 24242 0626 3F        		.byte	63
 24243 0627 36        		.byte	54
 24244 0628 0E        		.byte	14
 24245 0629 EB        		.byte	-21
 24246 062a 85        		.byte	-123
 24247 062b 67        		.byte	103
 24248 062c 07        		.byte	7
 24249 062d 72        		.byte	114
 24250 062e 13        		.byte	19
 24251 062f 57        		.byte	87
 24252 0630 00        		.byte	0
 24253 0631 05        		.byte	5
 24254 0632 82        		.byte	-126
 24255 0633 4A        		.byte	74
 24256 0634 BF        		.byte	-65
 24257 0635 95        		.byte	-107
 24258 0636 14        		.byte	20
 24259 0637 7A        		.byte	122
 24260 0638 B8        		.byte	-72
 24261 0639 E2        		.byte	-30
 24262 063a AE        		.byte	-82
 24263 063b 2B        		.byte	43
 24264 063c B1        		.byte	-79
 24265 063d 7B        		.byte	123
 24266 063e 38        		.byte	56
 24267 063f 1B        		.byte	27
 24268 0640 B6        		.byte	-74
 24269 0641 0C        		.byte	12
 24270 0642 9B        		.byte	-101
 24271 0643 8E        		.byte	-114
 24272 0644 D2        		.byte	-46
 24273 0645 92        		.byte	-110
 24274 0646 0D        		.byte	13
 24275 0647 BE        		.byte	-66
 24276 0648 D5        		.byte	-43
 24277 0649 E5        		.byte	-27
 24278 064a B7        		.byte	-73
 24279 064b EF        		.byte	-17
 24280 064c DC        		.byte	-36
 24281 064d 7C        		.byte	124
 24282 064e 21        		.byte	33
 24283 064f DF        		.byte	-33
 24284 0650 DB        		.byte	-37
 24285 0651 0B        		.byte	11
 24286 0652 D4        		.byte	-44
 24287 0653 D2        		.byte	-46
 24288 0654 D3        		.byte	-45
 24289 0655 86        		.byte	-122
 24290 0656 42        		.byte	66
 24291 0657 E2        		.byte	-30
 24292 0658 D4        		.byte	-44
 24293 0659 F1        		.byte	-15
 24294 065a F8        		.byte	-8
 24295 065b B3        		.byte	-77
 24296 065c DD        		.byte	-35
 24297 065d 68        		.byte	104
 24298 065e 6E        		.byte	110
 24299 065f 83        		.byte	-125
 24300 0660 DA        		.byte	-38
 24301 0661 1F        		.byte	31
 24302 0662 CD        		.byte	-51
 24303 0663 16        		.byte	22
 24304 0664 BE        		.byte	-66
 24305 0665 81        		.byte	-127
 24306 0666 5B        		.byte	91
 24307 0667 26        		.byte	38
 24308 0668 B9        		.byte	-71
 24309 0669 F6        		.byte	-10
 24310 066a E1        		.byte	-31
 24311 066b 77        		.byte	119
 24312 066c B0        		.byte	-80
 24313 066d 6F        		.byte	111
 24314 066e 77        		.byte	119
 24315 066f 47        		.byte	71
 24316 0670 B7        		.byte	-73
 24317 0671 18        		.byte	24
 24318 0672 E6        		.byte	-26
 24319 0673 5A        		.byte	90
 24320 0674 08        		.byte	8
 24321 0675 88        		.byte	-120
 24322 0676 70        		.byte	112
 24323 0677 6A        		.byte	106
 24324 0678 0F        		.byte	15
 24325 0679 FF        		.byte	-1
 24326 067a CA        		.byte	-54
 24327 067b 3B        		.byte	59
 24328 067c 06        		.byte	6
 24329 067d 66        		.byte	102
 24330 067e 5C        		.byte	92
 24331 067f 0B        		.byte	11
 24332 0680 01        		.byte	1
 24333 0681 11        		.byte	17
 24334 0682 FF        		.byte	-1
 24335 0683 9E        		.byte	-98
 24336 0684 65        		.byte	101
 24337 0685 8F        		.byte	-113
 24338 0686 69        		.byte	105
 24339 0687 AE        		.byte	-82
 24340 0688 62        		.byte	98
 24341 0689 F8        		.byte	-8
 24342 068a D3        		.byte	-45
 24343 068b FF        		.byte	-1
 24344 068c 6B        		.byte	107
 24345 068d 61        		.byte	97
 24346 068e 45        		.byte	69
 24347 068f CF        		.byte	-49
 24348 0690 6C        		.byte	108
 24349 0691 16        		.byte	22
 24350 0692 78        		.byte	120
 24351 0693 E2        		.byte	-30
 24352 0694 0A        		.byte	10
 24353 0695 A0        		.byte	-96
 24354 0696 EE        		.byte	-18
 24355 0697 D2        		.byte	-46
 24356 0698 0D        		.byte	13
 24357 0699 D7        		.byte	-41
 24358 069a 54        		.byte	84
 24359 069b 83        		.byte	-125
 24360 069c 04        		.byte	4
 24361 069d 4E        		.byte	78
 24362 069e C2        		.byte	-62
 24363 069f B3        		.byte	-77
 24364 06a0 03        		.byte	3
 24365 06a1 39        		.byte	57
 24366 06a2 61        		.byte	97
 24367 06a3 26        		.byte	38
 24368 06a4 67        		.byte	103
 24369 06a5 A7        		.byte	-89
 24370 06a6 F7        		.byte	-9
 24371 06a7 16        		.byte	22
 24372 06a8 60        		.byte	96
 24373 06a9 D0        		.byte	-48
 24374 06aa 4D        		.byte	77
 24375 06ab 47        		.byte	71
 24376 06ac 69        		.byte	105
 24377 06ad 49        		.byte	73
 24378 06ae DB        		.byte	-37
 24379 06af 77        		.byte	119
 24380 06b0 6E        		.byte	110
 24381 06b1 3E        		.byte	62
 24382 06b2 4A        		.byte	74
 24383 06b3 6A        		.byte	106
 24384 06b4 D1        		.byte	-47
 24385 06b5 AE        		.byte	-82
 24386 06b6 DC        		.byte	-36
 24387 06b7 5A        		.byte	90
 24388 06b8 D6        		.byte	-42
 24389 06b9 D9        		.byte	-39
 24390 06ba 66        		.byte	102
 24391 06bb 0B        		.byte	11
 24392 06bc DF        		.byte	-33
 24393 06bd 40        		.byte	64
 24394 06be F0        		.byte	-16
 24395 06bf 3B        		.byte	59
 24396 06c0 D8        		.byte	-40
 24397 06c1 37        		.byte	55
 24398 06c2 53        		.byte	83
 24399 06c3 AE        		.byte	-82
 24400 06c4 BC        		.byte	-68
 24401 06c5 A9        		.byte	-87
 24402 06c6 C5        		.byte	-59
 24403 06c7 9E        		.byte	-98
 24404 06c8 BB        		.byte	-69
 24405 06c9 DE        		.byte	-34
 24406 06ca 7F        		.byte	127
 24407 06cb CF        		.byte	-49
 24408 06cc B2        		.byte	-78
 24409 06cd 47        		.byte	71
 24410 06ce E9        		.byte	-23
 24411 06cf FF        		.byte	-1
 24412 06d0 B5        		.byte	-75
 24413 06d1 30        		.byte	48
 24414 06d2 1C        		.byte	28
 24415 06d3 F2        		.byte	-14
 24416 06d4 BD        		.byte	-67
 24417 06d5 BD        		.byte	-67
 24418 06d6 8A        		.byte	-118
 24419 06d7 C2        		.byte	-62
 24420 06d8 BA        		.byte	-70
 24421 06d9 CA        		.byte	-54
 24422 06da 30        		.byte	48
 24423 06db 93        		.byte	-109
 24424 06dc B3        		.byte	-77
 24425 06dd 53        		.byte	83
 24426 06de A6        		.byte	-90
 24427 06df A3        		.byte	-93
 24428 06e0 B4        		.byte	-76
 24429 06e1 24        		.byte	36
 24430 06e2 05        		.byte	5
 24431 06e3 36        		.byte	54
 24432 06e4 D0        		.byte	-48
 24433 06e5 BA        		.byte	-70
 24434 06e6 93        		.byte	-109
 24435 06e7 06        		.byte	6
 24436 06e8 D7        		.byte	-41
 24437 06e9 CD        		.byte	-51
 24438 06ea 29        		.byte	41
 24439 06eb 57        		.byte	87
 24440 06ec DE        		.byte	-34
 24441 06ed 54        		.byte	84
 24442 06ee BF        		.byte	-65
 24443 06ef 67        		.byte	103
 24444 06f0 D9        		.byte	-39
 24445 06f1 23        		.byte	35
 24446 06f2 2E        		.byte	46
 24447 06f3 7A        		.byte	122
 24448 06f4 66        		.byte	102
 24449 06f5 B3        		.byte	-77
 24450 06f6 B8        		.byte	-72
 24451 06f7 4A        		.byte	74
 24452 06f8 61        		.byte	97
 24453 06f9 C4        		.byte	-60
 24454 06fa 02        		.byte	2
 24455 06fb 1B        		.byte	27
 24456 06fc 68        		.byte	104
 24457 06fd 5D        		.byte	93
 24458 06fe 94        		.byte	-108
 24459 06ff 2B        		.byte	43
 24460 0700 6F        		.byte	111
 24461 0701 2A        		.byte	42
 24462 0702 37        		.byte	55
 24463 0703 BE        		.byte	-66
 24464 0704 0B        		.byte	11
 24465 0705 B4        		.byte	-76
 24466 0706 A1        		.byte	-95
 24467 0707 8E        		.byte	-114
 24468 0708 0C        		.byte	12
 24469 0709 C3        		.byte	-61
 24470 070a 1B        		.byte	27
 24471 070b DF        		.byte	-33
 24472 070c 05        		.byte	5
 24473 070d 5A        		.byte	90
 24474 070e 8D        		.byte	-115
 24475 070f EF        		.byte	-17
 24476 0710 02        		.byte	2
 24477 0711 2D        		.byte	45
 24478               	.global	okToSendAccelBuffer1
 24479               	.global	okToSendAccelBuffer1
 24480               		.section .bss
 24483               	okToSendAccelBuffer1:
 24484 003e 00        		.skip 1,0
 24485               	.global	okToSendAccelBuffer2
 24486               	.global	okToSendAccelBuffer2
 24489               	okToSendAccelBuffer2:
 24490 003f 00        		.skip 1,0
 24491               	.global	accelBufferToWriteTo
 24492               		.data
 24495               	accelBufferToWriteTo:
 24496 0712 01        		.byte	1
 24497               	.global	accelBufferCounter
 24498               	.global	accelBufferCounter
 24499               		.section .bss
 24502               	accelBufferCounter:
 24503 0040 0000      		.skip 2,0
 24504               	.global	okToSendRespirationBuffer1
 24505               	.global	okToSendRespirationBuffer1
 24508               	okToSendRespirationBuffer1:
 24509 0042 00        		.skip 1,0
 24510               	.global	okToSendRespirationBuffer2
 24511               	.global	okToSendRespirationBuffer2
 24514               	okToSendRespirationBuffer2:
 24515 0043 00        		.skip 1,0
 24516               	.global	respirationBufferToWriteTo
 24517               		.data
 24520               	respirationBufferToWriteTo:
 24521 0713 01        		.byte	1
 24522               	.global	respirationBufferCounter
 24523               	.global	respirationBufferCounter
 24524               		.section .bss
 24527               	respirationBufferCounter:
 24528 0044 0000      		.skip 2,0
 24529               	.global	okToSendTemperatureBuffer1
 24530               	.global	okToSendTemperatureBuffer1
 24533               	okToSendTemperatureBuffer1:
 24534 0046 00        		.skip 1,0
 24535               	.global	okToSendTemperatureBuffer2
 24536               	.global	okToSendTemperatureBuffer2
 24539               	okToSendTemperatureBuffer2:
 24540 0047 00        		.skip 1,0
 24541               	.global	temperatureBufferToWriteTo
 24542               		.data
 24545               	temperatureBufferToWriteTo:
 24546 0714 01        		.byte	1
 24547               	.global	temperatureBufferCounter
 24548               	.global	temperatureBufferCounter
 24549               		.section .bss
 24552               	temperatureBufferCounter:
 24553 0048 0000      		.skip 2,0
 24554               	.global	okToSendEKGBuffer1
 24555               	.global	okToSendEKGBuffer1
 24558               	okToSendEKGBuffer1:
 24559 004a 00        		.skip 1,0
 24560               	.global	okToSendEKGBuffer2
 24561               	.global	okToSendEKGBuffer2
 24564               	okToSendEKGBuffer2:
 24565 004b 00        		.skip 1,0
 24566               	.global	EKGBufferToWriteTo
 24567               		.data
 24570               	EKGBufferToWriteTo:
 24571 0715 01        		.byte	1
 24572               	.global	EKGBufferCounter
 24573               	.global	EKGBufferCounter
 24574               		.section .bss
 24577               	EKGBufferCounter:
 24578 004c 0000      		.skip 2,0
 24579               	.global	okToSendHumidityBuffer1
 24580               	.global	okToSendHumidityBuffer1
 24583               	okToSendHumidityBuffer1:
 24584 004e 00        		.skip 1,0
 24585               	.global	okToSendHumidityBuffer2
 24586               	.global	okToSendHumidityBuffer2
 24589               	okToSendHumidityBuffer2:
 24590 004f 00        		.skip 1,0
 24591               	.global	humidityBufferToWriteTo
 24592               		.data
 24595               	humidityBufferToWriteTo:
 24596 0716 01        		.byte	1
 24597               	.global	humidityBufferCounter
 24598               	.global	humidityBufferCounter
 24599               		.section .bss
 24602               	humidityBufferCounter:
 24603 0050 0000      		.skip 2,0
 24604               	.global	okToSendRTCBlock
 24605               	.global	okToSendRTCBlock
 24608               	okToSendRTCBlock:
 24609 0052 00        		.skip 1,0
 24610               	.global	rtcBlockCounter
 24611               	.global	rtcBlockCounter
 24614               	rtcBlockCounter:
 24615 0053 00        		.skip 1,0
 24616               	.global	HZ_RefeshCounter
 24617               	.global	HZ_RefeshCounter
 24620               	HZ_RefeshCounter:
 24621 0054 0000      		.skip 2,0
 24622               	.global	tempTime
 24623               	.global	tempTime
 24626               	tempTime:
 24627 0056 0000 0000 		.skip 4,0
 24628               	.global	commandCounter
 24629               		.data
 24632               	commandCounter:
 24633 0717 30        		.byte	48
 24634               	.global	timeOutCounter
 24635               	.global	timeOutCounter
 24636               		.section .bss
 24639               	timeOutCounter:
 24640 005a 0000      		.skip 2,0
 24641               	.global	uploadFileSize
 24642               	.global	uploadFileSize
 24645               	uploadFileSize:
 24646 005c 0000 0000 		.skip 4,0
 24647               	.global	uploadPercentBS
 24648               	.global	uploadPercentBS
 24651               	uploadPercentBS:
 24652 0060 00        		.skip 1,0
 24653               	.global	numberOfPacketsToUpload
 24654               	.global	numberOfPacketsToUpload
 24657               	numberOfPacketsToUpload:
 24658 0061 0000 0000 		.skip 4,0
 24659               	.global	leftOverBytesToUpload
 24660               	.global	leftOverBytesToUpload
 24663               	leftOverBytesToUpload:
 24664 0065 0000 0000 		.skip 4,0
 24665               	.global	connected
 24666               	.global	connected
 24669               	connected:
 24670 0069 00        		.skip 1,0
 24671               	.global	uploading
 24672               	.global	uploading
 24675               	uploading:
 24676 006a 00        		.skip 1,0
 24677               	.global	okToOpenDirectory
 24678               	.global	okToOpenDirectory
 24681               	okToOpenDirectory:
 24682 006b 00        		.skip 1,0
 24683               	.global	okToGrabNextFileName
 24684               	.global	okToGrabNextFileName
 24687               	okToGrabNextFileName:
 24688 006c 00        		.skip 1,0
 24689               	.global	okToUpload
 24690               	.global	okToUpload
 24693               	okToUpload:
 24694 006d 00        		.skip 1,0
 24695               	.global	doneUploading
 24696               	.global	doneUploading
 24699               	doneUploading:
 24700 006e 00        		.skip 1,0
 24701               	.global	okToOpenFileToUpload
 24702               	.global	okToOpenFileToUpload
 24705               	okToOpenFileToUpload:
 24706 006f 00        		.skip 1,0
 24707               	.global	uploadFileOpened
 24708               	.global	uploadFileOpened
 24711               	uploadFileOpened:
 24712 0070 00        		.skip 1,0
 24713               	.global	okToFillUploadFileBuffer
 24714               	.global	okToFillUploadFileBuffer
 24717               	okToFillUploadFileBuffer:
 24718 0071 00        		.skip 1,0
 24719               	.global	uploadFileBufferFull
 24720               	.global	uploadFileBufferFull
 24723               	uploadFileBufferFull:
 24724 0072 00        		.skip 1,0
 24725               	.global	okToCloseUploadFile
 24726               	.global	okToCloseUploadFile
 24729               	okToCloseUploadFile:
 24730 0073 00        		.skip 1,0
 24731               	.global	okToEraseFile
 24732               	.global	okToEraseFile
 24735               	okToEraseFile:
 24736 0074 00        		.skip 1,0
 24737               	.global	fileExists
 24738               	.global	fileExists
 24741               	fileExists:
 24742 0075 00        		.skip 1,0
 24743               	.global	timeIsValid
 24744               	.global	timeIsValid
 24747               	timeIsValid:
 24748 0076 00        		.skip 1,0
 24749               	.global	okToOpenLogFile
 24750               	.global	okToOpenLogFile
 24753               	okToOpenLogFile:
 24754 0077 00        		.skip 1,0
 24755               	.global	okToWriteToLogFile
 24756               	.global	okToWriteToLogFile
 24759               	okToWriteToLogFile:
 24760 0078 00        		.skip 1,0
 24761               	.global	okToCloseLogFile
 24762               	.global	okToCloseLogFile
 24765               	okToCloseLogFile:
 24766 0079 00        		.skip 1,0
 24767               	.global	restartingFile
 24768               	.global	restartingFile
 24771               	restartingFile:
 24772 007a 00        		.skip 1,0
 24773               	.global	timeToStopRecording
 24774               	.global	timeToStopRecording
 24777               	timeToStopRecording:
 24778 007b 0000 0000 		.skip 4,0
 24779               	.global	spaceRemainingOnDisk
 24780               	.global	spaceRemainingOnDisk
 24783               	spaceRemainingOnDisk:
 24784 007f 0000 0000 		.skip 4,0
 24785               	.global	totalDiskSpace
 24786               	.global	totalDiskSpace
 24789               	totalDiskSpace:
 24790 0083 0000 0000 		.skip 4,0
 24791               	.global	percentDiskUsed
 24792               	.global	percentDiskUsed
 24795               	percentDiskUsed:
 24796 0087 0000 0000 		.skip 4,0
 24797               	.global	syncCounter
 24798               	.global	syncCounter
 24801               	syncCounter:
 24802 008b 0000      		.skip 2,0
 24803               	.global	debounceTimer
 24804               	.global	debounceTimer
 24807               	debounceTimer:
 24808 008d 00        		.skip 1,0
 24809               	.global	debounceEnabled
 24810               	.global	debounceEnabled
 24813               	debounceEnabled:
 24814 008e 00        		.skip 1,0
 24815               	.global	batteryVoltageOk
 24816               		.data
 24819               	batteryVoltageOk:
 24820 0718 01        		.byte	1
 24823               	cstbl.6321:
 24824 0719 0080      		.word	-32768
 24825 071b 0040      		.word	16384
 24826 071d 0020      		.word	8192
 24827 071f 0010      		.word	4096
 24828 0721 0008      		.word	2048
 24829 0723 0040      		.word	16384
 24830 0725 0020      		.word	8192
 24831 0727 0010      		.word	4096
 24832 0729 0008      		.word	2048
 24833 072b 0004      		.word	1024
 24834 072d 0002      		.word	512
 24837               	sstbl.6320:
 24838 072f 00        		.byte	0
 24839 0730 40        		.byte	64
 24840 0731 1F        		.byte	31
 24841 0732 00        		.byte	0
 24842 0733 00        		.byte	0
 24843 0734 A0        		.byte	-96
 24844 0735 0F        		.byte	15
 24845 0736 00        		.byte	0
 24846 0737 00        		.byte	0
 24847 0738 D0        		.byte	-48
 24848 0739 07        		.byte	7
 24849 073a 00        		.byte	0
 24850 073b 00        		.byte	0
 24851 073c E8        		.byte	-24
 24852 073d 03        		.byte	3
 24853 073e 00        		.byte	0
 24854 073f 00        		.byte	0
 24855 0740 F4        		.byte	-12
 24856 0741 01        		.byte	1
 24857 0742 00        		.byte	0
 24858 0743 00        		.byte	0
 24859 0744 FA        		.byte	-6
 24860 0745 00        		.byte	0
 24861 0746 00        		.byte	0
 24862 0747 00        		.byte	0
 24863 0748 7D        		.byte	125
 24864 0749 00        		.byte	0
 24865 074a 00        		.byte	0
 24866 074b 80        		.byte	-128
 24867 074c 3E        		.byte	62
 24868 074d 00        		.byte	0
 24869 074e 00        		.byte	0
 24870 074f 40        		.byte	64
 24871 0750 1F        		.byte	31
 24872 0751 00        		.byte	0
 24873 0752 00        		.byte	0
 24874 0753 A0        		.byte	-96
 24875 0754 0F        		.byte	15
 24876 0755 00        		.byte	0
 24877 0756 00        		.byte	0
 24878 0757 00        		.byte	0
 24879 0758 00        		.byte	0
 24880 0759 00        		.byte	0
 24881 075a 00        		.byte	0
 24884               	Stat:
 24885 075b 01        		.byte	1
 24888               	monthDays:
 24889 075c 1F        		.byte	31
 24890 075d 1C        		.byte	28
 24891 075e 1F        		.byte	31
 24892 075f 1E        		.byte	30
 24893 0760 1F        		.byte	31
 24894 0761 1E        		.byte	30
 24895 0762 1F        		.byte	31
 24896 0763 1F        		.byte	31
 24897 0764 1E        		.byte	30
 24898 0765 1F        		.byte	31
 24899 0766 1E        		.byte	30
 24900 0767 1F        		.byte	31
 24901               		.lcomm Timer1,1
 24902               		.lcomm Timer2,1
 24903               		.lcomm CardType,1
 24904               		.lcomm FatFs,4
 24905               		.lcomm Fsid,2
 24906               		.lcomm fso0,558
 24907               		.lcomm fso1,558
 24908               		.comm deviceID,50,1
 24909               		.comm temperatureBuffer1,20,1
 24910               		.comm temperatureBuffer2,20,1
 24911               		.comm respirationBuffer1,400,1
 24912               		.comm respirationBuffer2,400,1
 24913               		.comm EKGBuffer1,400,1
 24914               		.comm EKGBuffer2,400,1
 24915               		.comm humidityBuffer1,20,1
 24916               		.comm humidityBuffer2,20,1
 24917               		.comm accelBuffer1,1200,1
 24918               		.comm accelBuffer2,1200,1
 24919               		.comm DebugBuffer,100,1
 24920               		.comm ledState,2,1
 24921               		.comm ledCounter,2,1
 24922               		.comm time,8,1
 24923               		.comm fs,2,1
 24924               		.comm fno,22,1
 24925               		.comm fno2,22,1
 24926               		.comm dir,22,1
 24927               		.comm Log_File,544,1
 24928               		.comm Upload_File,544,1
 24929               		.comm fileName,20,1
 24930               		.comm tmp8,1,1
 24931               		.comm tmp16,2,1
 24932               		.comm tmp32,4,1
 24933               		.comm CRC,4,1
 24934               		.comm currentLogFile,15,1
 24935               		.comm auth,50,1
 24936               		.comm phrase,50,1
 24937               		.comm key,50,1
 24938               		.comm ssid,50,1
 24939               		.comm nickname,50,1
 24940               		.comm port,50,1
 24941               		.comm server,50,1
 24942               		.comm user,10,1
 24943               		.comm daylightTime,10,1
 24944               		.comm demoModeString,10,1
 24945               		.comm fastString,10,1
 24946               		.comm zeroOffsetA,2,1
 24947               		.comm zeroOffsetB,2,1
 24948               		.comm uploadFileBuffer,1000,1
 24949               		.comm fileToUpload,15,1
 24950               		.comm availableFileName,15,1
 24951               		.comm fileToErase,20,1
 24952               		.comm command,50,1
 24953               		.comm eraseFileReturn,1,1
 24954               		.comm uploadCRC,4,1
 24955               		.comm temp,50,1
 24956               		.comm okToGetRemainingSpace,1,1
 26085               	.Letext0:
DEFINED SYMBOLS
                            *ABS*:00000000 mainChestStrap.c
/var/folders/wz/wzM13vx1HuGiQAygYPOM9k+++TI/-Tmp-//ccZ2CUOL.s:2      *ABS*:0000003f __SREG__
/var/folders/wz/wzM13vx1HuGiQAygYPOM9k+++TI/-Tmp-//ccZ2CUOL.s:3      *ABS*:0000003e __SP_H__
/var/folders/wz/wzM13vx1HuGiQAygYPOM9k+++TI/-Tmp-//ccZ2CUOL.s:4      *ABS*:0000003d __SP_L__
/var/folders/wz/wzM13vx1HuGiQAygYPOM9k+++TI/-Tmp-//ccZ2CUOL.s:5      *ABS*:00000034 __CCP__
/var/folders/wz/wzM13vx1HuGiQAygYPOM9k+++TI/-Tmp-//ccZ2CUOL.s:6      *ABS*:00000000 __tmp_reg__
/var/folders/wz/wzM13vx1HuGiQAygYPOM9k+++TI/-Tmp-//ccZ2CUOL.s:7      *ABS*:00000001 __zero_reg__
/var/folders/wz/wzM13vx1HuGiQAygYPOM9k+++TI/-Tmp-//ccZ2CUOL.s:18     .text:00000000 CCPWrite
/var/folders/wz/wzM13vx1HuGiQAygYPOM9k+++TI/-Tmp-//ccZ2CUOL.s:67     .text:0000002a Debug_CharReadyToRead
/var/folders/wz/wzM13vx1HuGiQAygYPOM9k+++TI/-Tmp-//ccZ2CUOL.s:23371  .bss:00000032 Debug_writeLocation
                            *COM*:00000064 DebugBuffer
/var/folders/wz/wzM13vx1HuGiQAygYPOM9k+++TI/-Tmp-//ccZ2CUOL.s:23365  .bss:00000030 Debug_readLocation
/var/folders/wz/wzM13vx1HuGiQAygYPOM9k+++TI/-Tmp-//ccZ2CUOL.s:112    .text:00000084 Debug_ClearBuffer
/var/folders/wz/wzM13vx1HuGiQAygYPOM9k+++TI/-Tmp-//ccZ2CUOL.s:153    .text:000000da Debug_Init
/var/folders/wz/wzM13vx1HuGiQAygYPOM9k+++TI/-Tmp-//ccZ2CUOL.s:305    .text:000001b0 Debug_GetByte
/var/folders/wz/wzM13vx1HuGiQAygYPOM9k+++TI/-Tmp-//ccZ2CUOL.s:354    .text:000001f6 Debug_SendByte
/var/folders/wz/wzM13vx1HuGiQAygYPOM9k+++TI/-Tmp-//ccZ2CUOL.s:381    .text:0000020e Leds_Init
                            *COM*:00000002 ledState
/var/folders/wz/wzM13vx1HuGiQAygYPOM9k+++TI/-Tmp-//ccZ2CUOL.s:418    .text:00000232 Leds_State
/var/folders/wz/wzM13vx1HuGiQAygYPOM9k+++TI/-Tmp-//ccZ2CUOL.s:437    .text:0000023e Leds_Set
/var/folders/wz/wzM13vx1HuGiQAygYPOM9k+++TI/-Tmp-//ccZ2CUOL.s:461    .text:00000254 Leds_Clear
/var/folders/wz/wzM13vx1HuGiQAygYPOM9k+++TI/-Tmp-//ccZ2CUOL.s:485    .text:0000026a Leds_Toggle
/var/folders/wz/wzM13vx1HuGiQAygYPOM9k+++TI/-Tmp-//ccZ2CUOL.s:509    .text:00000280 Time_Init
/var/folders/wz/wzM13vx1HuGiQAygYPOM9k+++TI/-Tmp-//ccZ2CUOL.s:539    .text:000002a2 Time_Set
/var/folders/wz/wzM13vx1HuGiQAygYPOM9k+++TI/-Tmp-//ccZ2CUOL.s:666    .text:0000034a Time_CheckVBatSystem
/var/folders/wz/wzM13vx1HuGiQAygYPOM9k+++TI/-Tmp-//ccZ2CUOL.s:701    .text:0000037a Time_Get
/var/folders/wz/wzM13vx1HuGiQAygYPOM9k+++TI/-Tmp-//ccZ2CUOL.s:731    .text:000003a4 Time_Get32BitTimer
/var/folders/wz/wzM13vx1HuGiQAygYPOM9k+++TI/-Tmp-//ccZ2CUOL.s:795    .text:000003f4 Time_UTCSecsToTime
/var/folders/wz/wzM13vx1HuGiQAygYPOM9k+++TI/-Tmp-//ccZ2CUOL.s:24888  .data:0000075c monthDays
/var/folders/wz/wzM13vx1HuGiQAygYPOM9k+++TI/-Tmp-//ccZ2CUOL.s:1113   .text:000005fa wait_ready
/var/folders/wz/wzM13vx1HuGiQAygYPOM9k+++TI/-Tmp-//ccZ2CUOL.s:24901  .bss:00000090 Timer2
/var/folders/wz/wzM13vx1HuGiQAygYPOM9k+++TI/-Tmp-//ccZ2CUOL.s:1169   .text:00000638 select
/var/folders/wz/wzM13vx1HuGiQAygYPOM9k+++TI/-Tmp-//ccZ2CUOL.s:1222   .text:00000672 rcvr_datablock
                             .bss:0000008f Timer1
/var/folders/wz/wzM13vx1HuGiQAygYPOM9k+++TI/-Tmp-//ccZ2CUOL.s:1366   .text:00000736 xmit_datablock
/var/folders/wz/wzM13vx1HuGiQAygYPOM9k+++TI/-Tmp-//ccZ2CUOL.s:1483   .text:000007d4 send_cmd
/var/folders/wz/wzM13vx1HuGiQAygYPOM9k+++TI/-Tmp-//ccZ2CUOL.s:1700   .text:000008ec disk_initialize
/var/folders/wz/wzM13vx1HuGiQAygYPOM9k+++TI/-Tmp-//ccZ2CUOL.s:24884  .data:0000075b Stat
/var/folders/wz/wzM13vx1HuGiQAygYPOM9k+++TI/-Tmp-//ccZ2CUOL.s:24902  .bss:00000091 CardType
/var/folders/wz/wzM13vx1HuGiQAygYPOM9k+++TI/-Tmp-//ccZ2CUOL.s:2033   .text:00000ab8 disk_status
/var/folders/wz/wzM13vx1HuGiQAygYPOM9k+++TI/-Tmp-//ccZ2CUOL.s:2056   .text:00000ac6 disk_read
/var/folders/wz/wzM13vx1HuGiQAygYPOM9k+++TI/-Tmp-//ccZ2CUOL.s:2202   .text:00000b86 disk_write
/var/folders/wz/wzM13vx1HuGiQAygYPOM9k+++TI/-Tmp-//ccZ2CUOL.s:2379   .text:00000c76 disk_ioctl
/var/folders/wz/wzM13vx1HuGiQAygYPOM9k+++TI/-Tmp-//ccZ2CUOL.s:3019   .text:0000101c disk_timerproc
/var/folders/wz/wzM13vx1HuGiQAygYPOM9k+++TI/-Tmp-//ccZ2CUOL.s:3056   .text:00001044 get_fattime
/var/folders/wz/wzM13vx1HuGiQAygYPOM9k+++TI/-Tmp-//ccZ2CUOL.s:3071   .text:0000104e move_window
/var/folders/wz/wzM13vx1HuGiQAygYPOM9k+++TI/-Tmp-//ccZ2CUOL.s:3232   .text:00001140 sync
/var/folders/wz/wzM13vx1HuGiQAygYPOM9k+++TI/-Tmp-//ccZ2CUOL.s:3418   .text:0000125e get_fat
/var/folders/wz/wzM13vx1HuGiQAygYPOM9k+++TI/-Tmp-//ccZ2CUOL.s:3706   .text:00001432 put_fat
/var/folders/wz/wzM13vx1HuGiQAygYPOM9k+++TI/-Tmp-//ccZ2CUOL.s:4023   .text:0000160a remove_chain
/var/folders/wz/wzM13vx1HuGiQAygYPOM9k+++TI/-Tmp-//ccZ2CUOL.s:4192   .text:00001700 create_chain
/var/folders/wz/wzM13vx1HuGiQAygYPOM9k+++TI/-Tmp-//ccZ2CUOL.s:4513   .text:000018e6 clust2sect
/var/folders/wz/wzM13vx1HuGiQAygYPOM9k+++TI/-Tmp-//ccZ2CUOL.s:4593   .text:00001960 dir_seek
/var/folders/wz/wzM13vx1HuGiQAygYPOM9k+++TI/-Tmp-//ccZ2CUOL.s:4913   .text:00001b58 dir_next
/var/folders/wz/wzM13vx1HuGiQAygYPOM9k+++TI/-Tmp-//ccZ2CUOL.s:5394   .text:00001e52 dir_read
/var/folders/wz/wzM13vx1HuGiQAygYPOM9k+++TI/-Tmp-//ccZ2CUOL.s:5490   .text:00001eba dir_register
/var/folders/wz/wzM13vx1HuGiQAygYPOM9k+++TI/-Tmp-//ccZ2CUOL.s:5641   .text:00001f68 dir_remove
/var/folders/wz/wzM13vx1HuGiQAygYPOM9k+++TI/-Tmp-//ccZ2CUOL.s:5700   .text:00001faa get_fileinfo
/var/folders/wz/wzM13vx1HuGiQAygYPOM9k+++TI/-Tmp-//ccZ2CUOL.s:5899   .text:000020c2 follow_path
/var/folders/wz/wzM13vx1HuGiQAygYPOM9k+++TI/-Tmp-//ccZ2CUOL.s:6436   .text:0000236e check_fs
/var/folders/wz/wzM13vx1HuGiQAygYPOM9k+++TI/-Tmp-//ccZ2CUOL.s:6590   .text:00002474 chk_mounted
/var/folders/wz/wzM13vx1HuGiQAygYPOM9k+++TI/-Tmp-//ccZ2CUOL.s:24903  .bss:00000092 FatFs
/var/folders/wz/wzM13vx1HuGiQAygYPOM9k+++TI/-Tmp-//ccZ2CUOL.s:23383  .data:000002c8 Drives
/var/folders/wz/wzM13vx1HuGiQAygYPOM9k+++TI/-Tmp-//ccZ2CUOL.s:24904  .bss:00000096 Fsid
/var/folders/wz/wzM13vx1HuGiQAygYPOM9k+++TI/-Tmp-//ccZ2CUOL.s:7483   .text:00002a60 validate
/var/folders/wz/wzM13vx1HuGiQAygYPOM9k+++TI/-Tmp-//ccZ2CUOL.s:7533   .text:00002a94 f_mount
/var/folders/wz/wzM13vx1HuGiQAygYPOM9k+++TI/-Tmp-//ccZ2CUOL.s:7595   .text:00002ad6 f_open
/var/folders/wz/wzM13vx1HuGiQAygYPOM9k+++TI/-Tmp-//ccZ2CUOL.s:8070   .text:00002db6 f_read
/var/folders/wz/wzM13vx1HuGiQAygYPOM9k+++TI/-Tmp-//ccZ2CUOL.s:8737   .text:000031a2 f_write
/var/folders/wz/wzM13vx1HuGiQAygYPOM9k+++TI/-Tmp-//ccZ2CUOL.s:9502   .text:0000362a f_sync
/var/folders/wz/wzM13vx1HuGiQAygYPOM9k+++TI/-Tmp-//ccZ2CUOL.s:9667   .text:0000371a f_close
/var/folders/wz/wzM13vx1HuGiQAygYPOM9k+++TI/-Tmp-//ccZ2CUOL.s:9697   .text:00003732 f_lseek
/var/folders/wz/wzM13vx1HuGiQAygYPOM9k+++TI/-Tmp-//ccZ2CUOL.s:10393  .text:00003b8e f_opendir
/var/folders/wz/wzM13vx1HuGiQAygYPOM9k+++TI/-Tmp-//ccZ2CUOL.s:10533  .text:00003c54 f_readdir
/var/folders/wz/wzM13vx1HuGiQAygYPOM9k+++TI/-Tmp-//ccZ2CUOL.s:10642  .text:00003cea f_stat
/var/folders/wz/wzM13vx1HuGiQAygYPOM9k+++TI/-Tmp-//ccZ2CUOL.s:10733  .text:00003d68 f_getfree
/var/folders/wz/wzM13vx1HuGiQAygYPOM9k+++TI/-Tmp-//ccZ2CUOL.s:11114  .text:00003fb4 f_truncate
/var/folders/wz/wzM13vx1HuGiQAygYPOM9k+++TI/-Tmp-//ccZ2CUOL.s:11305  .text:000040ce f_unlink
/var/folders/wz/wzM13vx1HuGiQAygYPOM9k+++TI/-Tmp-//ccZ2CUOL.s:11526  .text:00004202 f_mkdir
/var/folders/wz/wzM13vx1HuGiQAygYPOM9k+++TI/-Tmp-//ccZ2CUOL.s:12042  .text:000044f4 f_chmod
/var/folders/wz/wzM13vx1HuGiQAygYPOM9k+++TI/-Tmp-//ccZ2CUOL.s:12147  .text:0000457e f_utime
/var/folders/wz/wzM13vx1HuGiQAygYPOM9k+++TI/-Tmp-//ccZ2CUOL.s:12257  .text:00004618 f_rename
/var/folders/wz/wzM13vx1HuGiQAygYPOM9k+++TI/-Tmp-//ccZ2CUOL.s:12674  .text:00004866 f_mkfs
/var/folders/wz/wzM13vx1HuGiQAygYPOM9k+++TI/-Tmp-//ccZ2CUOL.s:24837  .data:0000072f sstbl.6320
/var/folders/wz/wzM13vx1HuGiQAygYPOM9k+++TI/-Tmp-//ccZ2CUOL.s:24823  .data:00000719 cstbl.6321
/var/folders/wz/wzM13vx1HuGiQAygYPOM9k+++TI/-Tmp-//ccZ2CUOL.s:14377  .text:00005304 f_gets
/var/folders/wz/wzM13vx1HuGiQAygYPOM9k+++TI/-Tmp-//ccZ2CUOL.s:14492  .text:000053a0 f_putc
/var/folders/wz/wzM13vx1HuGiQAygYPOM9k+++TI/-Tmp-//ccZ2CUOL.s:14553  .text:000053ec f_puts
/var/folders/wz/wzM13vx1HuGiQAygYPOM9k+++TI/-Tmp-//ccZ2CUOL.s:14613  .text:00005434 SD_Close
                            *COM*:00000220 Log_File
/var/folders/wz/wzM13vx1HuGiQAygYPOM9k+++TI/-Tmp-//ccZ2CUOL.s:14629  .text:0000543e SD_Inserted
/var/folders/wz/wzM13vx1HuGiQAygYPOM9k+++TI/-Tmp-//ccZ2CUOL.s:14649  .text:0000544e SD_WriteBuffer
                            *COM*:00000004 CRC
/var/folders/wz/wzM13vx1HuGiQAygYPOM9k+++TI/-Tmp-//ccZ2CUOL.s:23453  .data:00000312 crc_table
/var/folders/wz/wzM13vx1HuGiQAygYPOM9k+++TI/-Tmp-//ccZ2CUOL.s:14763  .text:0000551c SD_Write32
                            *COM*:00000004 tmp32
/var/folders/wz/wzM13vx1HuGiQAygYPOM9k+++TI/-Tmp-//ccZ2CUOL.s:14802  .text:00005550 SD_Write16
                            *COM*:00000002 tmp16
/var/folders/wz/wzM13vx1HuGiQAygYPOM9k+++TI/-Tmp-//ccZ2CUOL.s:14828  .text:00005566 SD_Write8
                            *COM*:00000001 tmp8
/var/folders/wz/wzM13vx1HuGiQAygYPOM9k+++TI/-Tmp-//ccZ2CUOL.s:14850  .text:00005578 SD_ClearCRC
/var/folders/wz/wzM13vx1HuGiQAygYPOM9k+++TI/-Tmp-//ccZ2CUOL.s:14871  .text:00005592 SD_WriteCRC
/var/folders/wz/wzM13vx1HuGiQAygYPOM9k+++TI/-Tmp-//ccZ2CUOL.s:14893  .text:000055b0 SD_Timer_Init
/var/folders/wz/wzM13vx1HuGiQAygYPOM9k+++TI/-Tmp-//ccZ2CUOL.s:14922  .text:000055ce SD_Init
/var/folders/wz/wzM13vx1HuGiQAygYPOM9k+++TI/-Tmp-//ccZ2CUOL.s:24905  .bss:00000098 fso0
/var/folders/wz/wzM13vx1HuGiQAygYPOM9k+++TI/-Tmp-//ccZ2CUOL.s:24906  .bss:000002c6 fso1
/var/folders/wz/wzM13vx1HuGiQAygYPOM9k+++TI/-Tmp-//ccZ2CUOL.s:14960  .text:000055fe __vector_47
/var/folders/wz/wzM13vx1HuGiQAygYPOM9k+++TI/-Tmp-//ccZ2CUOL.s:15011  .text:0000564e Button_Init
/var/folders/wz/wzM13vx1HuGiQAygYPOM9k+++TI/-Tmp-//ccZ2CUOL.s:15041  .text:0000566c Button_Pressed
/var/folders/wz/wzM13vx1HuGiQAygYPOM9k+++TI/-Tmp-//ccZ2CUOL.s:15074  .text:00005692 Accel_Write_Byte
/var/folders/wz/wzM13vx1HuGiQAygYPOM9k+++TI/-Tmp-//ccZ2CUOL.s:15097  .text:000056a2 Accel_Read_Byte
/var/folders/wz/wzM13vx1HuGiQAygYPOM9k+++TI/-Tmp-//ccZ2CUOL.s:15124  .text:000056b6 Accel_WriteToAddress
/var/folders/wz/wzM13vx1HuGiQAygYPOM9k+++TI/-Tmp-//ccZ2CUOL.s:15176  .text:000056e6 Accel_Init
/var/folders/wz/wzM13vx1HuGiQAygYPOM9k+++TI/-Tmp-//ccZ2CUOL.s:15238  .text:0000573c Accel_ReadFromAddress
/var/folders/wz/wzM13vx1HuGiQAygYPOM9k+++TI/-Tmp-//ccZ2CUOL.s:15298  .text:00005770 Accel_ReadResults
/var/folders/wz/wzM13vx1HuGiQAygYPOM9k+++TI/-Tmp-//ccZ2CUOL.s:15499  .text:00005858 Sensors_ResetAccelBuffers
/var/folders/wz/wzM13vx1HuGiQAygYPOM9k+++TI/-Tmp-//ccZ2CUOL.s:24502  .bss:00000040 accelBufferCounter
/var/folders/wz/wzM13vx1HuGiQAygYPOM9k+++TI/-Tmp-//ccZ2CUOL.s:24495  .data:00000712 accelBufferToWriteTo
/var/folders/wz/wzM13vx1HuGiQAygYPOM9k+++TI/-Tmp-//ccZ2CUOL.s:24483  .bss:0000003e okToSendAccelBuffer1
/var/folders/wz/wzM13vx1HuGiQAygYPOM9k+++TI/-Tmp-//ccZ2CUOL.s:24489  .bss:0000003f okToSendAccelBuffer2
/var/folders/wz/wzM13vx1HuGiQAygYPOM9k+++TI/-Tmp-//ccZ2CUOL.s:15521  .text:00005870 __vector_108
/var/folders/wz/wzM13vx1HuGiQAygYPOM9k+++TI/-Tmp-//ccZ2CUOL.s:23281  .bss:00000001 recording
/var/folders/wz/wzM13vx1HuGiQAygYPOM9k+++TI/-Tmp-//ccZ2CUOL.s:23275  .bss:00000000 wantToRecordFast
/var/folders/wz/wzM13vx1HuGiQAygYPOM9k+++TI/-Tmp-//ccZ2CUOL.s:23335  .bss:00000022 accelSampleStartTime1
                            *COM*:000004b0 accelBuffer1
/var/folders/wz/wzM13vx1HuGiQAygYPOM9k+++TI/-Tmp-//ccZ2CUOL.s:23341  .bss:00000026 accelSampleStartTime2
                            *COM*:000004b0 accelBuffer2
/var/folders/wz/wzM13vx1HuGiQAygYPOM9k+++TI/-Tmp-//ccZ2CUOL.s:15662  .text:00005994 Sensors_Init
                            *COM*:00000002 zeroOffsetA
                            *COM*:00000002 zeroOffsetB
/var/folders/wz/wzM13vx1HuGiQAygYPOM9k+++TI/-Tmp-//ccZ2CUOL.s:15991  .text:00005b14 Sensors_ReadTemperature
/var/folders/wz/wzM13vx1HuGiQAygYPOM9k+++TI/-Tmp-//ccZ2CUOL.s:16009  .text:00005b20 Sensors_ReadRespiration
/var/folders/wz/wzM13vx1HuGiQAygYPOM9k+++TI/-Tmp-//ccZ2CUOL.s:16027  .text:00005b2c Sensors_ReadEKG
/var/folders/wz/wzM13vx1HuGiQAygYPOM9k+++TI/-Tmp-//ccZ2CUOL.s:16045  .text:00005b38 Sensors_ReadHumidity
/var/folders/wz/wzM13vx1HuGiQAygYPOM9k+++TI/-Tmp-//ccZ2CUOL.s:16119  .text:00005bb2 Sensors_ResetTemperatureBuffers
/var/folders/wz/wzM13vx1HuGiQAygYPOM9k+++TI/-Tmp-//ccZ2CUOL.s:24552  .bss:00000048 temperatureBufferCounter
/var/folders/wz/wzM13vx1HuGiQAygYPOM9k+++TI/-Tmp-//ccZ2CUOL.s:24545  .data:00000714 temperatureBufferToWriteTo
/var/folders/wz/wzM13vx1HuGiQAygYPOM9k+++TI/-Tmp-//ccZ2CUOL.s:24533  .bss:00000046 okToSendTemperatureBuffer1
/var/folders/wz/wzM13vx1HuGiQAygYPOM9k+++TI/-Tmp-//ccZ2CUOL.s:24539  .bss:00000047 okToSendTemperatureBuffer2
/var/folders/wz/wzM13vx1HuGiQAygYPOM9k+++TI/-Tmp-//ccZ2CUOL.s:16141  .text:00005bca Sensors_ResetRespirationBuffers
/var/folders/wz/wzM13vx1HuGiQAygYPOM9k+++TI/-Tmp-//ccZ2CUOL.s:24527  .bss:00000044 respirationBufferCounter
/var/folders/wz/wzM13vx1HuGiQAygYPOM9k+++TI/-Tmp-//ccZ2CUOL.s:24520  .data:00000713 respirationBufferToWriteTo
/var/folders/wz/wzM13vx1HuGiQAygYPOM9k+++TI/-Tmp-//ccZ2CUOL.s:24508  .bss:00000042 okToSendRespirationBuffer1
/var/folders/wz/wzM13vx1HuGiQAygYPOM9k+++TI/-Tmp-//ccZ2CUOL.s:24514  .bss:00000043 okToSendRespirationBuffer2
/var/folders/wz/wzM13vx1HuGiQAygYPOM9k+++TI/-Tmp-//ccZ2CUOL.s:16163  .text:00005be2 Sensors_ResetEKGBuffers
/var/folders/wz/wzM13vx1HuGiQAygYPOM9k+++TI/-Tmp-//ccZ2CUOL.s:24577  .bss:0000004c EKGBufferCounter
/var/folders/wz/wzM13vx1HuGiQAygYPOM9k+++TI/-Tmp-//ccZ2CUOL.s:24570  .data:00000715 EKGBufferToWriteTo
/var/folders/wz/wzM13vx1HuGiQAygYPOM9k+++TI/-Tmp-//ccZ2CUOL.s:24558  .bss:0000004a okToSendEKGBuffer1
/var/folders/wz/wzM13vx1HuGiQAygYPOM9k+++TI/-Tmp-//ccZ2CUOL.s:24564  .bss:0000004b okToSendEKGBuffer2
/var/folders/wz/wzM13vx1HuGiQAygYPOM9k+++TI/-Tmp-//ccZ2CUOL.s:16185  .text:00005bfa Sensors_ResetHumidityBuffers
/var/folders/wz/wzM13vx1HuGiQAygYPOM9k+++TI/-Tmp-//ccZ2CUOL.s:24602  .bss:00000050 humidityBufferCounter
/var/folders/wz/wzM13vx1HuGiQAygYPOM9k+++TI/-Tmp-//ccZ2CUOL.s:24595  .data:00000716 humidityBufferToWriteTo
/var/folders/wz/wzM13vx1HuGiQAygYPOM9k+++TI/-Tmp-//ccZ2CUOL.s:24583  .bss:0000004e okToSendHumidityBuffer1
/var/folders/wz/wzM13vx1HuGiQAygYPOM9k+++TI/-Tmp-//ccZ2CUOL.s:24589  .bss:0000004f okToSendHumidityBuffer2
/var/folders/wz/wzM13vx1HuGiQAygYPOM9k+++TI/-Tmp-//ccZ2CUOL.s:16207  .text:00005c12 __vector_83
/var/folders/wz/wzM13vx1HuGiQAygYPOM9k+++TI/-Tmp-//ccZ2CUOL.s:23268  .data:000002c7 wantToRecordRespiration
/var/folders/wz/wzM13vx1HuGiQAygYPOM9k+++TI/-Tmp-//ccZ2CUOL.s:23299  .bss:0000000a respirationSampleStartTime1
                            *COM*:00000190 respirationBuffer1
/var/folders/wz/wzM13vx1HuGiQAygYPOM9k+++TI/-Tmp-//ccZ2CUOL.s:23305  .bss:0000000e respirationSampleStartTime2
                            *COM*:00000190 respirationBuffer2
/var/folders/wz/wzM13vx1HuGiQAygYPOM9k+++TI/-Tmp-//ccZ2CUOL.s:23263  .data:000002c6 wantToRecordEKG
/var/folders/wz/wzM13vx1HuGiQAygYPOM9k+++TI/-Tmp-//ccZ2CUOL.s:23311  .bss:00000012 EKGSampleStartTime1
                            *COM*:00000190 EKGBuffer1
/var/folders/wz/wzM13vx1HuGiQAygYPOM9k+++TI/-Tmp-//ccZ2CUOL.s:23317  .bss:00000016 EKGSampleStartTime2
                            *COM*:00000190 EKGBuffer2
/var/folders/wz/wzM13vx1HuGiQAygYPOM9k+++TI/-Tmp-//ccZ2CUOL.s:24620  .bss:00000054 HZ_RefeshCounter
/var/folders/wz/wzM13vx1HuGiQAygYPOM9k+++TI/-Tmp-//ccZ2CUOL.s:23377  .bss:00000034 UNIX_Time
/var/folders/wz/wzM13vx1HuGiQAygYPOM9k+++TI/-Tmp-//ccZ2CUOL.s:24614  .bss:00000053 rtcBlockCounter
/var/folders/wz/wzM13vx1HuGiQAygYPOM9k+++TI/-Tmp-//ccZ2CUOL.s:24608  .bss:00000052 okToSendRTCBlock
/var/folders/wz/wzM13vx1HuGiQAygYPOM9k+++TI/-Tmp-//ccZ2CUOL.s:23253  .data:000002c4 wantToRecordTemperature
/var/folders/wz/wzM13vx1HuGiQAygYPOM9k+++TI/-Tmp-//ccZ2CUOL.s:23287  .bss:00000002 temperatureSampleStartTime1
                            *COM*:00000014 temperatureBuffer1
/var/folders/wz/wzM13vx1HuGiQAygYPOM9k+++TI/-Tmp-//ccZ2CUOL.s:23293  .bss:00000006 temperatureSampleStartTime2
                            *COM*:00000014 temperatureBuffer2
/var/folders/wz/wzM13vx1HuGiQAygYPOM9k+++TI/-Tmp-//ccZ2CUOL.s:23258  .data:000002c5 wantToRecordHumidity
/var/folders/wz/wzM13vx1HuGiQAygYPOM9k+++TI/-Tmp-//ccZ2CUOL.s:23323  .bss:0000001a humiditySampleStartTime1
                            *COM*:00000014 humidityBuffer1
/var/folders/wz/wzM13vx1HuGiQAygYPOM9k+++TI/-Tmp-//ccZ2CUOL.s:23329  .bss:0000001e humiditySampleStartTime2
                            *COM*:00000014 humidityBuffer2
/var/folders/wz/wzM13vx1HuGiQAygYPOM9k+++TI/-Tmp-//ccZ2CUOL.s:16721  .text:00006036 SP_ReadCalibrationByte
/var/folders/wz/wzM13vx1HuGiQAygYPOM9k+++TI/-Tmp-//ccZ2CUOL.s:16756  .text:0000604a Uploader_getTime
                            *COM*:00000032 command
/var/folders/wz/wzM13vx1HuGiQAygYPOM9k+++TI/-Tmp-//ccZ2CUOL.s:16897  .text:000060ea Uploader_eraseFile
                            *COM*:00000014 fileToErase
/var/folders/wz/wzM13vx1HuGiQAygYPOM9k+++TI/-Tmp-//ccZ2CUOL.s:24735  .bss:00000074 okToEraseFile
                            *COM*:00000001 eraseFileReturn
/var/folders/wz/wzM13vx1HuGiQAygYPOM9k+++TI/-Tmp-//ccZ2CUOL.s:17047  .text:0000618c Uploader_ClearCRC
                            *COM*:00000004 uploadCRC
/var/folders/wz/wzM13vx1HuGiQAygYPOM9k+++TI/-Tmp-//ccZ2CUOL.s:17068  .text:000061a6 Uploader_WriteCRC
/var/folders/wz/wzM13vx1HuGiQAygYPOM9k+++TI/-Tmp-//ccZ2CUOL.s:17119  .text:000061f8 Uploader_uploadFile
/var/folders/wz/wzM13vx1HuGiQAygYPOM9k+++TI/-Tmp-//ccZ2CUOL.s:24675  .bss:0000006a uploading
                            *COM*:0000000f fileToUpload
/var/folders/wz/wzM13vx1HuGiQAygYPOM9k+++TI/-Tmp-//ccZ2CUOL.s:24705  .bss:0000006f okToOpenFileToUpload
/var/folders/wz/wzM13vx1HuGiQAygYPOM9k+++TI/-Tmp-//ccZ2CUOL.s:24711  .bss:00000070 uploadFileOpened
/var/folders/wz/wzM13vx1HuGiQAygYPOM9k+++TI/-Tmp-//ccZ2CUOL.s:24741  .bss:00000075 fileExists
/var/folders/wz/wzM13vx1HuGiQAygYPOM9k+++TI/-Tmp-//ccZ2CUOL.s:24729  .bss:00000073 okToCloseUploadFile
/var/folders/wz/wzM13vx1HuGiQAygYPOM9k+++TI/-Tmp-//ccZ2CUOL.s:24693  .bss:0000006d okToUpload
/var/folders/wz/wzM13vx1HuGiQAygYPOM9k+++TI/-Tmp-//ccZ2CUOL.s:24645  .bss:0000005c uploadFileSize
/var/folders/wz/wzM13vx1HuGiQAygYPOM9k+++TI/-Tmp-//ccZ2CUOL.s:24657  .bss:00000061 numberOfPacketsToUpload
/var/folders/wz/wzM13vx1HuGiQAygYPOM9k+++TI/-Tmp-//ccZ2CUOL.s:24663  .bss:00000065 leftOverBytesToUpload
/var/folders/wz/wzM13vx1HuGiQAygYPOM9k+++TI/-Tmp-//ccZ2CUOL.s:24723  .bss:00000072 uploadFileBufferFull
/var/folders/wz/wzM13vx1HuGiQAygYPOM9k+++TI/-Tmp-//ccZ2CUOL.s:24717  .bss:00000071 okToFillUploadFileBuffer
/var/folders/wz/wzM13vx1HuGiQAygYPOM9k+++TI/-Tmp-//ccZ2CUOL.s:24651  .bss:00000060 uploadPercentBS
                            *COM*:000003e8 uploadFileBuffer
/var/folders/wz/wzM13vx1HuGiQAygYPOM9k+++TI/-Tmp-//ccZ2CUOL.s:17687  .text:000065ac Uploader_UpdateCRC
/var/folders/wz/wzM13vx1HuGiQAygYPOM9k+++TI/-Tmp-//ccZ2CUOL.s:17754  .text:00006628 Clock_Init
/var/folders/wz/wzM13vx1HuGiQAygYPOM9k+++TI/-Tmp-//ccZ2CUOL.s:17829  .text:00006682 Disable_JTAG
/var/folders/wz/wzM13vx1HuGiQAygYPOM9k+++TI/-Tmp-//ccZ2CUOL.s:17883  .text:000066b2 Interrupt_Init
/var/folders/wz/wzM13vx1HuGiQAygYPOM9k+++TI/-Tmp-//ccZ2CUOL.s:17907  .text:000066c0 Charger_Init
/var/folders/wz/wzM13vx1HuGiQAygYPOM9k+++TI/-Tmp-//ccZ2CUOL.s:17927  .text:000066ce Charged
/var/folders/wz/wzM13vx1HuGiQAygYPOM9k+++TI/-Tmp-//ccZ2CUOL.s:17950  .text:000066e4 GUI_Init
/var/folders/wz/wzM13vx1HuGiQAygYPOM9k+++TI/-Tmp-//ccZ2CUOL.s:17979  .text:00006702 __vector_77
/var/folders/wz/wzM13vx1HuGiQAygYPOM9k+++TI/-Tmp-//ccZ2CUOL.s:24777  .bss:0000007b timeToStopRecording
/var/folders/wz/wzM13vx1HuGiQAygYPOM9k+++TI/-Tmp-//ccZ2CUOL.s:24771  .bss:0000007a restartingFile
/var/folders/wz/wzM13vx1HuGiQAygYPOM9k+++TI/-Tmp-//ccZ2CUOL.s:24765  .bss:00000079 okToCloseLogFile
/var/folders/wz/wzM13vx1HuGiQAygYPOM9k+++TI/-Tmp-//ccZ2CUOL.s:24795  .bss:00000087 percentDiskUsed
/var/folders/wz/wzM13vx1HuGiQAygYPOM9k+++TI/-Tmp-//ccZ2CUOL.s:24753  .bss:00000077 okToOpenLogFile
/var/folders/wz/wzM13vx1HuGiQAygYPOM9k+++TI/-Tmp-//ccZ2CUOL.s:24747  .bss:00000076 timeIsValid
/var/folders/wz/wzM13vx1HuGiQAygYPOM9k+++TI/-Tmp-//ccZ2CUOL.s:24801  .bss:0000008b syncCounter
/var/folders/wz/wzM13vx1HuGiQAygYPOM9k+++TI/-Tmp-//ccZ2CUOL.s:24813  .bss:0000008e debounceEnabled
/var/folders/wz/wzM13vx1HuGiQAygYPOM9k+++TI/-Tmp-//ccZ2CUOL.s:24807  .bss:0000008d debounceTimer
                            *COM*:00000001 okToGetRemainingSpace
/var/folders/wz/wzM13vx1HuGiQAygYPOM9k+++TI/-Tmp-//ccZ2CUOL.s:24819  .data:00000718 batteryVoltageOk
/var/folders/wz/wzM13vx1HuGiQAygYPOM9k+++TI/-Tmp-//ccZ2CUOL.s:24669  .bss:00000069 connected
                            *COM*:00000002 ledCounter
/var/folders/wz/wzM13vx1HuGiQAygYPOM9k+++TI/-Tmp-//ccZ2CUOL.s:18516  .text:00006a2e SD_BackroundWriter_Init
/var/folders/wz/wzM13vx1HuGiQAygYPOM9k+++TI/-Tmp-//ccZ2CUOL.s:18545  .text:00006a4c SD_WriteRTCBlock
/var/folders/wz/wzM13vx1HuGiQAygYPOM9k+++TI/-Tmp-//ccZ2CUOL.s:18634  .text:00006adc getDeviceID
                            *COM*:00000032 deviceID
/var/folders/wz/wzM13vx1HuGiQAygYPOM9k+++TI/-Tmp-//ccZ2CUOL.s:19046  .text:00006cb4 SD_WriteString
/var/folders/wz/wzM13vx1HuGiQAygYPOM9k+++TI/-Tmp-//ccZ2CUOL.s:19156  .text:00006d6a SD_WriteAccelBuffer
/var/folders/wz/wzM13vx1HuGiQAygYPOM9k+++TI/-Tmp-//ccZ2CUOL.s:19325  .text:00006e88 SD_WriteEKGBuffer
/var/folders/wz/wzM13vx1HuGiQAygYPOM9k+++TI/-Tmp-//ccZ2CUOL.s:19466  .text:00006f6e SD_WriteRespirationBuffer
/var/folders/wz/wzM13vx1HuGiQAygYPOM9k+++TI/-Tmp-//ccZ2CUOL.s:19607  .text:00007054 SD_WriteHumidityBuffer
/var/folders/wz/wzM13vx1HuGiQAygYPOM9k+++TI/-Tmp-//ccZ2CUOL.s:19748  .text:0000713a SD_WriteTemperatureBuffer
/var/folders/wz/wzM13vx1HuGiQAygYPOM9k+++TI/-Tmp-//ccZ2CUOL.s:19885  .text:00007220 Debug_SendString
/var/folders/wz/wzM13vx1HuGiQAygYPOM9k+++TI/-Tmp-//ccZ2CUOL.s:19961  .text:00007276 Uploader_connectToComputer
/var/folders/wz/wzM13vx1HuGiQAygYPOM9k+++TI/-Tmp-//ccZ2CUOL.s:24639  .bss:0000005a timeOutCounter
/var/folders/wz/wzM13vx1HuGiQAygYPOM9k+++TI/-Tmp-//ccZ2CUOL.s:20105  .text:0000730a Uploader_sendPort
                            *COM*:00000032 port
/var/folders/wz/wzM13vx1HuGiQAygYPOM9k+++TI/-Tmp-//ccZ2CUOL.s:20154  .text:00007350 Uploader_sendServer
                            *COM*:00000032 server
/var/folders/wz/wzM13vx1HuGiQAygYPOM9k+++TI/-Tmp-//ccZ2CUOL.s:20203  .text:00007396 Uploader_sendNickname
                            *COM*:00000032 nickname
/var/folders/wz/wzM13vx1HuGiQAygYPOM9k+++TI/-Tmp-//ccZ2CUOL.s:20252  .text:000073dc Uploader_sendUser
                            *COM*:0000000a user
/var/folders/wz/wzM13vx1HuGiQAygYPOM9k+++TI/-Tmp-//ccZ2CUOL.s:20305  .text:00007422 Uploader_sendKey
/var/folders/wz/wzM13vx1HuGiQAygYPOM9k+++TI/-Tmp-//ccZ2CUOL.s:23429  .bss:0000003a phraseRead
                            *COM*:00000032 phrase
/var/folders/wz/wzM13vx1HuGiQAygYPOM9k+++TI/-Tmp-//ccZ2CUOL.s:23435  .bss:0000003b keyRead
                            *COM*:00000032 key
/var/folders/wz/wzM13vx1HuGiQAygYPOM9k+++TI/-Tmp-//ccZ2CUOL.s:20396  .text:000074aa Uploader_sendAuthType
/var/folders/wz/wzM13vx1HuGiQAygYPOM9k+++TI/-Tmp-//ccZ2CUOL.s:23423  .bss:00000039 authRead
                            *COM*:00000032 auth
/var/folders/wz/wzM13vx1HuGiQAygYPOM9k+++TI/-Tmp-//ccZ2CUOL.s:20461  .text:0000750a Uploader_sendSSID
/var/folders/wz/wzM13vx1HuGiQAygYPOM9k+++TI/-Tmp-//ccZ2CUOL.s:23441  .bss:0000003c ssidRead
                            *COM*:00000032 ssid
/var/folders/wz/wzM13vx1HuGiQAygYPOM9k+++TI/-Tmp-//ccZ2CUOL.s:20532  .text:0000756a Uploader_sendFilename
/var/folders/wz/wzM13vx1HuGiQAygYPOM9k+++TI/-Tmp-//ccZ2CUOL.s:24681  .bss:0000006b okToOpenDirectory
/var/folders/wz/wzM13vx1HuGiQAygYPOM9k+++TI/-Tmp-//ccZ2CUOL.s:24687  .bss:0000006c okToGrabNextFileName
                            *COM*:0000000f availableFileName
                            *COM*:0000000f currentLogFile
                            *COM*:00000016 fno
/var/folders/wz/wzM13vx1HuGiQAygYPOM9k+++TI/-Tmp-//ccZ2CUOL.s:20636  .text:00007618 Uploader_Update
/var/folders/wz/wzM13vx1HuGiQAygYPOM9k+++TI/-Tmp-//ccZ2CUOL.s:20843  .text:00007732 SD_MakeFileName
                            *COM*:00000014 fileName
/var/folders/wz/wzM13vx1HuGiQAygYPOM9k+++TI/-Tmp-//ccZ2CUOL.s:20878  .text:0000775e SD_Open
/var/folders/wz/wzM13vx1HuGiQAygYPOM9k+++TI/-Tmp-//ccZ2CUOL.s:20985  .text:000077bc SD_StartLogFile
/var/folders/wz/wzM13vx1HuGiQAygYPOM9k+++TI/-Tmp-//ccZ2CUOL.s:21189  .text:00007920 __vector_53
/var/folders/wz/wzM13vx1HuGiQAygYPOM9k+++TI/-Tmp-//ccZ2CUOL.s:23347  .bss:0000002a timeRecordingStarted
                            *COM*:00000016 dir
                            *COM*:00000220 Upload_File
/var/folders/wz/wzM13vx1HuGiQAygYPOM9k+++TI/-Tmp-//ccZ2CUOL.s:24783  .bss:0000007f spaceRemainingOnDisk
                            *COM*:00000002 fs
/var/folders/wz/wzM13vx1HuGiQAygYPOM9k+++TI/-Tmp-//ccZ2CUOL.s:24789  .bss:00000083 totalDiskSpace
/var/folders/wz/wzM13vx1HuGiQAygYPOM9k+++TI/-Tmp-//ccZ2CUOL.s:21821  .text:00007da0 SD_Read_config_file
/var/folders/wz/wzM13vx1HuGiQAygYPOM9k+++TI/-Tmp-//ccZ2CUOL.s:23397  .data:000002fe zone
                            *COM*:0000000a daylightTime
                            *COM*:0000000a demoModeString
                            *COM*:0000000a fastString
/var/folders/wz/wzM13vx1HuGiQAygYPOM9k+++TI/-Tmp-//ccZ2CUOL.s:23417  .bss:00000038 timeZoneShift
/var/folders/wz/wzM13vx1HuGiQAygYPOM9k+++TI/-Tmp-//ccZ2CUOL.s:23447  .bss:0000003d zoneChanged
/var/folders/wz/wzM13vx1HuGiQAygYPOM9k+++TI/-Tmp-//ccZ2CUOL.s:23391  .data:000002cc serverOpenCommand
/var/folders/wz/wzM13vx1HuGiQAygYPOM9k+++TI/-Tmp-//ccZ2CUOL.s:23353  .bss:0000002e demoMode
/var/folders/wz/wzM13vx1HuGiQAygYPOM9k+++TI/-Tmp-//ccZ2CUOL.s:22440  .text:000081d8 main
/var/folders/wz/wzM13vx1HuGiQAygYPOM9k+++TI/-Tmp-//ccZ2CUOL.s:22769  .text:0000835c f_printf
/var/folders/wz/wzM13vx1HuGiQAygYPOM9k+++TI/-Tmp-//ccZ2CUOL.s:23359  .bss:0000002f useWifiForUploading
/var/folders/wz/wzM13vx1HuGiQAygYPOM9k+++TI/-Tmp-//ccZ2CUOL.s:23403  .data:00000308 am
/var/folders/wz/wzM13vx1HuGiQAygYPOM9k+++TI/-Tmp-//ccZ2CUOL.s:23409  .data:0000030d pm
/var/folders/wz/wzM13vx1HuGiQAygYPOM9k+++TI/-Tmp-//ccZ2CUOL.s:24626  .bss:00000056 tempTime
/var/folders/wz/wzM13vx1HuGiQAygYPOM9k+++TI/-Tmp-//ccZ2CUOL.s:24632  .data:00000717 commandCounter
/var/folders/wz/wzM13vx1HuGiQAygYPOM9k+++TI/-Tmp-//ccZ2CUOL.s:24699  .bss:0000006e doneUploading
/var/folders/wz/wzM13vx1HuGiQAygYPOM9k+++TI/-Tmp-//ccZ2CUOL.s:24759  .bss:00000078 okToWriteToLogFile
                            *COM*:00000008 time
                            *COM*:00000016 fno2
                            *COM*:00000032 temp

UNDEFINED SYMBOLS
__udivmodsi4
__divmodhi4
__mulsi3
itoa
strcpy
strcat
strcasecmp
strcasestr
ltoa
strupr
strstr
strtok
memmove
strcmp
__do_copy_data
__do_clear_bss
